ccopy_reg
_reconstructor
p0
(clanguage_schemas
SEM_GENERATOR
p1
c__builtin__
object
p2
Ntp3
Rp4
(dp5
S'sem_inputs'
p6
(dp7
S'{}'
p8
(dp9
Vtiming
p10
(lp11
F0.0
aF100.0
aF200.0
asVsem_rate
p12
I1
sVpropositions
p13
(dp14
VMAN_AREA
p15
(lp16
VENTITY(e1,F)
p17
aVMAN(man)
p18
aVIS(is1)
p19
aVis1(e1, man)
p20
asVACTION_AREA
p21
(lp22
VEVENT(evt1,F)
p23
aVACTION(a1,F)
p24
aVIS(is3)
p25
aVis3(evt1,a1)
p26
aVKICK(kick)
p27
aVIS(is4)
p28
aVis4(a1, kick)
p29
aVENTITY(e1,F)
p30
aVENTITY(e2,F)
p31
aVAGENT(agt)
p32
aVPATIENT(pt)
p33
aVagt(a1, e2)
p34
aVpt(a1, e1)
p35
asVGIRL_AREA
p36
(lp37
VENTITY(e2,F)
p38
aVGIRL(girl)
p39
aVIS(is2)
p40
aVis2(e2, girl)
p41
assVcomments
p42
V
p43
sVsequence
p44
(lp45
VACTION_AREA
p46
aVMAN_AREA
p47
aVGIRL_AREA
p48
asssS'is_macro'
p49
I01
sS'ground_truths'
p50
NsS'speed_param'
p51
I100
sS'interpreter'
p52
g0
(clanguage_schemas
ISRF_INTERPRETER
p53
g2
Ntp54
Rp55
(dp56
S'name_table'
p57
(dp58
sS'conceptLTM'
p59
g0
(clanguage_schemas
CONCEPT_LTM
p60
g2
Ntp61
Rp62
(dp63
S'inputs'
p64
(dp65
sS'name'
p66
S'Concept_LTM'
p67
sS'out_ports'
p68
(lp69
g0
(cschema_theory
PORT
p70
g2
Ntp71
Rp72
(dp73
g66
S'to_conceptualizer'
p74
sS'data'
p75
NsS'value'
p76
(lp77
g0
(clanguage_schemas
CPT_EVENT_SCHEMA
p78
g2
Ntp79
Rp80
(dp81
g66
S'?'
p82
sS'content'
p83
(dp84
S'concept'
p85
g0
(cconcept
CONCEPT
p86
g2
Ntp87
Rp88
(dp89
S'meaning'
p90
g82
sS'conceptual_knowledge'
p91
g0
(cconcept
CONCEPTUAL_KNOWLEDGE
p92
g2
Ntp93
Rp94
(dp95
S'graph'
p96
g0
(cnetworkx.classes.digraph
DiGraph
p97
g2
Ntp98
Rp99
(dp100
S'node'
p101
(dp102
I1
(dp103
g90
g82
ssI2
(dp104
g90
S'CONCEPT'
p105
ssI3
(dp106
g90
VACTION
p107
ssI4
(dp108
g90
VSYMMETRIC
p109
ssI5
(dp110
g90
VMEET
p111
ssI6
(dp112
g90
VSHAKE_HANDS
p113
ssI7
(dp114
g90
VINTRANSITIVE
p115
ssI8
(dp116
g90
VLAUGH
p117
ssI9
(dp118
g90
VTRANSITIVE
p119
ssI10
(dp120
g90
VHIT
p121
ssI11
(dp122
g90
VWATCH
p123
ssI12
(dp124
g90
VPUNCH
p125
ssI13
(dp126
g90
VSPLASH
p127
ssI14
(dp128
g90
VTALK
p129
ssI15
(dp130
g90
VKISS
p131
ssI16
(dp132
g90
VSQUIRT
p133
ssI17
(dp134
g90
VKICK
p135
ssI18
(dp136
g90
VWEAR
p137
ssI19
(dp138
g90
VDITRANSITIVE
p139
ssI20
(dp140
g90
VSEND
p141
ssI21
(dp142
g90
VGIVE
p143
ssI22
(dp144
g90
VPROPERTY
p145
ssI23
(dp146
g90
VCOLOR
p147
ssI24
(dp148
g90
VBLUE
p149
ssI25
(dp150
g90
VGREEN
p151
ssI26
(dp152
g90
VWHITE
p153
ssI27
(dp154
g90
VBLACK
p155
ssI28
(dp156
g90
VRED
p157
ssI29
(dp158
g90
VAPPEARANCE
p159
ssI30
(dp160
g90
VYOUNG
p161
ssI31
(dp162
g90
VPRETTY
p163
ssI32
(dp164
g90
VHANDSOME
p165
ssI33
(dp166
g90
VSIZE
p167
ssI34
(dp168
g90
VSMALL
p169
ssI35
(dp170
g90
VBIG
p171
ssI36
(dp172
g90
VRELATION
p173
ssI37
(dp174
g90
VACTION_FRAME
p175
ssI38
(dp176
g90
VMODIFY
p177
ssI39
(dp178
g90
VTHEME
p179
ssI40
(dp180
g90
VRECIPIENT
p181
ssI41
(dp182
g90
VATTR
p183
ssI42
(dp184
g90
VAGT_PT
p185
ssI43
(dp186
g90
VPATIENT
p187
ssI44
(dp188
g90
VAGT+PT
p189
ssI45
(dp190
g90
VAGENT
p191
ssI46
(dp192
g90
VEVENT_FRAME
p193
ssI47
(dp194
g90
VTEMPORAL
p195
ssI48
(dp196
g90
VCONCURRENT
p197
ssI49
(dp198
g90
VSUCCESSIVE
p199
ssI50
(dp200
g90
VSPATIAL
p201
ssI51
(dp202
g90
VIN
p203
ssI52
(dp204
g90
VIS
p205
ssI53
(dp206
g90
VOBJECT_FRAME
p207
ssI54
(dp208
g90
VEVENT
p209
ssI55
(dp210
g90
VENTITY
p211
ssI56
(dp212
g90
VANIMATE
p213
ssI57
(dp214
g90
VANIMAL
p215
ssI58
(dp216
g90
VHUMAN
p217
ssI59
(dp218
g90
VOBJECT
p219
ssI60
(dp220
g90
VITEM
p221
ssI61
(dp222
g90
VWAGON
p223
ssI62
(dp224
g90
VWATERING_CAN
p225
ssI63
(dp226
g90
VBAG
p227
ssI64
(dp228
g90
VTREE
p229
ssI65
(dp230
g90
VHOOK
p231
ssI66
(dp232
g90
VCELLO
p233
ssI67
(dp234
g90
VBOOKSHELF
p235
ssI68
(dp236
g90
VCLOTHING
p237
ssI69
(dp238
g90
VTSHIRT
p239
ssI70
(dp240
g90
VDRESS
p241
ssI71
(dp242
g90
VSHIRT
p243
ssI72
(dp244
g90
VSUIT
p245
ssI73
(dp246
g90
VTURTLE
p247
ssI74
(dp248
g90
VMOUSE
p249
ssI75
(dp250
g90
VDOG
p251
ssI76
(dp252
g90
VBOY
p253
ssI77
(dp254
g90
VWOMAN
p255
ssI78
(dp256
g90
VPEOPLE
p257
ssI79
(dp258
g90
VPOLICEMAN
p259
ssI80
(dp260
g90
VHUNTER
p261
ssI81
(dp262
g90
VBALLERINA
p263
ssI82
(dp264
g90
VCELLIST
p265
ssI83
(dp266
g90
VGIRL
p267
ssI84
(dp268
g90
VFENCER
p269
ssI85
(dp270
g90
VROBBER
p271
ssI86
(dp272
g90
VMAN
p273
ssI87
(dp274
g90
VPLACE
p275
ssI88
(dp276
g90
VBOXINGRING
p277
ssI89
(dp278
g90
VPARK
p279
ssI90
(dp280
g90
VMALE
p281
ssI91
(dp282
g90
VFEMALE
p283
sssS'node_dict_factory'
p284
c__builtin__
dict
p285
sS'edge_attr_dict_factory'
p286
g285
sS'succ'
p287
(dp288
I1
(dp289
sI2
(dp290
sI3
(dp291
I2
(dp292
S'type'
p293
S'is_a'
p294
sssI4
(dp295
I3
(dp296
g293
g294
sssI5
(dp297
I4
(dp298
g293
g294
sssI6
(dp299
I4
(dp300
g293
g294
sssI7
(dp301
I3
(dp302
g293
g294
sssI8
(dp303
I7
(dp304
g293
g294
sssI9
(dp305
I3
(dp306
g293
g294
sssI10
(dp307
I9
(dp308
g293
g294
sssI11
(dp309
I9
(dp310
g293
g294
sssI12
(dp311
I9
(dp312
g293
g294
sssI13
(dp313
I9
(dp314
g293
g294
sssI14
(dp315
I9
(dp316
g293
g294
sssI15
(dp317
I9
(dp318
g293
g294
sssI16
(dp319
I9
(dp320
g293
g294
sssI17
(dp321
I9
(dp322
g293
g294
sssI18
(dp323
I9
(dp324
g293
g294
sssI19
(dp325
I3
(dp326
g293
g294
sssI20
(dp327
I19
(dp328
g293
g294
sssI21
(dp329
I19
(dp330
g293
g294
sssI22
(dp331
I2
(dp332
g293
g294
sssI23
(dp333
I22
(dp334
g293
g294
sssI24
(dp335
I23
(dp336
g293
g294
sssI25
(dp337
I23
(dp338
g293
g294
sssI26
(dp339
I23
(dp340
g293
g294
sssI27
(dp341
I23
(dp342
g293
g294
sssI28
(dp343
I23
(dp344
g293
g294
sssI29
(dp345
I22
(dp346
g293
g294
sssI30
(dp347
I29
(dp348
g293
g294
sssI31
(dp349
I29
(dp350
g293
g294
sssI32
(dp351
I29
(dp352
g293
g294
sssI33
(dp353
I22
(dp354
g293
g294
sssI34
(dp355
I33
(dp356
g293
g294
sssI35
(dp357
I33
(dp358
g293
g294
sssI36
(dp359
I2
(dp360
g293
g294
sssI37
(dp361
I36
(dp362
g293
g294
sssI38
(dp363
I37
(dp364
g293
g294
ssI53
(dp365
g293
g294
sssI39
(dp366
I37
(dp367
g293
g294
sssI40
(dp368
I37
(dp369
g293
g294
sssI41
(dp370
I37
(dp371
g293
g294
ssI53
(dp372
g293
g294
sssI42
(dp373
I37
(dp374
g293
g294
sssI43
(dp375
I42
(dp376
g293
g294
sssI44
(dp377
I43
(dp378
g293
g294
ssI45
(dp379
g293
g294
sssI45
(dp380
I42
(dp381
g293
g294
sssI46
(dp382
I36
(dp383
g293
g294
sssI47
(dp384
I46
(dp385
g293
g294
sssI48
(dp386
I47
(dp387
g293
g294
sssI49
(dp388
I47
(dp389
g293
g294
sssI50
(dp390
I46
(dp391
g293
g294
sssI51
(dp392
I50
(dp393
g293
g294
sssI52
(dp394
I36
(dp395
g293
g294
sssI53
(dp396
I36
(dp397
g293
g294
sssI54
(dp398
I2
(dp399
g293
g294
sssI55
(dp400
I2
(dp401
g293
g294
sssI56
(dp402
I55
(dp403
g293
g294
sssI57
(dp404
I56
(dp405
g293
g294
ssI59
(dp406
g293
g294
sssI58
(dp407
I56
(dp408
g293
g294
ssI59
(dp409
g293
g294
sssI59
(dp410
I55
(dp411
g293
g294
sssI60
(dp412
I59
(dp413
g293
g294
sssI61
(dp414
I60
(dp415
g293
g294
sssI62
(dp416
I60
(dp417
g293
g294
sssI63
(dp418
I60
(dp419
g293
g294
sssI64
(dp420
I60
(dp421
g293
g294
sssI65
(dp422
I60
(dp423
g293
g294
sssI66
(dp424
I60
(dp425
g293
g294
sssI67
(dp426
I60
(dp427
g293
g294
sssI68
(dp428
I60
(dp429
g293
g294
sssI69
(dp430
I68
(dp431
g293
g294
sssI70
(dp432
I68
(dp433
g293
g294
sssI71
(dp434
I68
(dp435
g293
g294
sssI72
(dp436
I68
(dp437
g293
g294
sssI73
(dp438
I57
(dp439
g293
g294
sssI74
(dp440
I57
(dp441
g293
g294
sssI75
(dp442
I57
(dp443
g293
g294
sssI76
(dp444
I58
(dp445
g293
g294
ssI90
(dp446
g293
g294
sssI77
(dp447
I58
(dp448
g293
g294
ssI91
(dp449
g293
g294
sssI78
(dp450
I58
(dp451
g293
g294
sssI79
(dp452
I58
(dp453
g293
g294
sssI80
(dp454
I58
(dp455
g293
g294
sssI81
(dp456
I58
(dp457
g293
g294
ssI91
(dp458
g293
g294
sssI82
(dp459
I58
(dp460
g293
g294
sssI83
(dp461
I58
(dp462
g293
g294
ssI91
(dp463
g293
g294
sssI84
(dp464
I58
(dp465
g293
g294
sssI85
(dp466
I58
(dp467
g293
g294
sssI86
(dp468
I58
(dp469
g293
g294
ssI90
(dp470
g293
g294
sssI87
(dp471
I55
(dp472
g293
g294
sssI88
(dp473
I87
(dp474
g293
g294
sssI89
(dp475
I87
(dp476
g293
g294
sssI90
(dp477
I55
(dp478
g293
g294
sssI91
(dp479
I55
(dp480
g293
g294
ssssS'edge'
p481
g288
sg96
(dp482
sS'adjlist_dict_factory'
p483
g285
sS'adj'
p484
g288
sS'pred'
p485
(dp486
I1
(dp487
sI2
(dp488
I3
g292
sI36
g360
sI54
g399
sI22
g332
sI55
g401
ssI3
(dp489
I9
g306
sI19
g326
sI4
g296
sI7
g302
ssI4
(dp490
I5
g298
sI6
g300
ssI5
(dp491
sI6
(dp492
sI7
(dp493
I8
g304
ssI8
(dp494
sI9
(dp495
I10
g308
sI11
g310
sI12
g312
sI13
g314
sI14
g316
sI15
g318
sI16
g320
sI17
g322
sI18
g324
ssI10
(dp496
sI11
(dp497
sI12
(dp498
sI13
(dp499
sI14
(dp500
sI15
(dp501
sI16
(dp502
sI17
(dp503
sI18
(dp504
sI19
(dp505
I20
g328
sI21
g330
ssI20
(dp506
sI21
(dp507
sI22
(dp508
I33
g354
sI29
g346
sI23
g334
ssI23
(dp509
I24
g336
sI25
g338
sI26
g340
sI27
g342
sI28
g344
ssI24
(dp510
sI25
(dp511
sI26
(dp512
sI27
(dp513
sI28
(dp514
sI29
(dp515
I32
g352
sI30
g348
sI31
g350
ssI30
(dp516
sI31
(dp517
sI32
(dp518
sI33
(dp519
I34
g356
sI35
g358
ssI34
(dp520
sI35
(dp521
sI36
(dp522
I52
g395
sI37
g362
sI46
g383
sI53
g397
ssI37
(dp523
I40
g369
sI41
g371
sI42
g374
sI38
g364
sI39
g367
ssI38
(dp524
sI39
(dp525
sI40
(dp526
sI41
(dp527
sI42
(dp528
I43
g376
sI45
g381
ssI43
(dp529
I44
g378
ssI44
(dp530
sI45
(dp531
I44
g379
ssI46
(dp532
I50
g391
sI47
g385
ssI47
(dp533
I48
g387
sI49
g389
ssI48
(dp534
sI49
(dp535
sI50
(dp536
I51
g393
ssI51
(dp537
sI52
(dp538
sI53
(dp539
I41
g372
sI38
g365
ssI54
(dp540
sI55
(dp541
I56
g403
sI91
g480
sI90
g478
sI59
g411
sI87
g472
ssI56
(dp542
I57
g405
sI58
g408
ssI57
(dp543
I73
g439
sI74
g441
sI75
g443
ssI58
(dp544
I76
g445
sI77
g448
sI78
g451
sI79
g453
sI80
g455
sI81
g457
sI82
g460
sI83
g462
sI84
g465
sI85
g467
sI86
g469
ssI59
(dp545
I57
g406
sI58
g409
sI60
g413
ssI60
(dp546
I64
g421
sI65
g423
sI66
g425
sI67
g427
sI68
g429
sI61
g415
sI62
g417
sI63
g419
ssI61
(dp547
sI62
(dp548
sI63
(dp549
sI64
(dp550
sI65
(dp551
sI66
(dp552
sI67
(dp553
sI68
(dp554
I72
g437
sI69
g431
sI70
g433
sI71
g435
ssI69
(dp555
sI70
(dp556
sI71
(dp557
sI72
(dp558
sI73
(dp559
sI74
(dp560
sI75
(dp561
sI76
(dp562
sI77
(dp563
sI78
(dp564
sI79
(dp565
sI80
(dp566
sI81
(dp567
sI82
(dp568
sI83
(dp569
sI84
(dp570
sI85
(dp571
sI86
(dp572
sI87
(dp573
I88
g474
sI89
g476
ssI88
(dp574
sI89
(dp575
sI90
(dp576
I76
g446
sI86
g470
ssI91
(dp577
I81
g458
sI83
g463
sI77
g449
sssbsS'nodes'
p578
(lp579
g88
ag0
(g86
g2
Ntp580
Rp581
(dp582
g90
g105
sg91
g94
sS'id'
p583
I2
sg66
g105
sbag0
(g86
g2
Ntp584
Rp585
(dp586
g90
g107
sg91
g94
sg583
I3
sg66
g107
sbag0
(g86
g2
Ntp587
Rp588
(dp589
g90
g109
sg91
g94
sg583
I4
sg66
g109
sbag0
(g86
g2
Ntp590
Rp591
(dp592
g90
g111
sg91
g94
sg583
I5
sg66
g111
sbag0
(g86
g2
Ntp593
Rp594
(dp595
g90
g113
sg91
g94
sg583
I6
sg66
g113
sbag0
(g86
g2
Ntp596
Rp597
(dp598
g90
g115
sg91
g94
sg583
I7
sg66
g115
sbag0
(g86
g2
Ntp599
Rp600
(dp601
g90
g117
sg91
g94
sg583
I8
sg66
g117
sbag0
(g86
g2
Ntp602
Rp603
(dp604
g90
g119
sg91
g94
sg583
I9
sg66
g119
sbag0
(g86
g2
Ntp605
Rp606
(dp607
g90
g121
sg91
g94
sg583
I10
sg66
g121
sbag0
(g86
g2
Ntp608
Rp609
(dp610
g90
g123
sg91
g94
sg583
I11
sg66
g123
sbag0
(g86
g2
Ntp611
Rp612
(dp613
g90
g125
sg91
g94
sg583
I12
sg66
g125
sbag0
(g86
g2
Ntp614
Rp615
(dp616
g90
g127
sg91
g94
sg583
I13
sg66
g127
sbag0
(g86
g2
Ntp617
Rp618
(dp619
g90
g129
sg91
g94
sg583
I14
sg66
g129
sbag0
(g86
g2
Ntp620
Rp621
(dp622
g90
g131
sg91
g94
sg583
I15
sg66
g131
sbag0
(g86
g2
Ntp623
Rp624
(dp625
g90
g133
sg91
g94
sg583
I16
sg66
g133
sbag0
(g86
g2
Ntp626
Rp627
(dp628
g90
g135
sg91
g94
sg583
I17
sg66
g135
sbag0
(g86
g2
Ntp629
Rp630
(dp631
g90
g137
sg91
g94
sg583
I18
sg66
g137
sbag0
(g86
g2
Ntp632
Rp633
(dp634
g90
g139
sg91
g94
sg583
I19
sg66
g139
sbag0
(g86
g2
Ntp635
Rp636
(dp637
g90
g141
sg91
g94
sg583
I20
sg66
g141
sbag0
(g86
g2
Ntp638
Rp639
(dp640
g90
g143
sg91
g94
sg583
I21
sg66
g143
sbag0
(g86
g2
Ntp641
Rp642
(dp643
g90
g145
sg91
g94
sg583
I22
sg66
g145
sbag0
(g86
g2
Ntp644
Rp645
(dp646
g90
g147
sg91
g94
sg583
I23
sg66
g147
sbag0
(g86
g2
Ntp647
Rp648
(dp649
g90
g149
sg91
g94
sg583
I24
sg66
g149
sbag0
(g86
g2
Ntp650
Rp651
(dp652
g90
g151
sg91
g94
sg583
I25
sg66
g151
sbag0
(g86
g2
Ntp653
Rp654
(dp655
g90
g153
sg91
g94
sg583
I26
sg66
g153
sbag0
(g86
g2
Ntp656
Rp657
(dp658
g90
g155
sg91
g94
sg583
I27
sg66
g155
sbag0
(g86
g2
Ntp659
Rp660
(dp661
g90
g157
sg91
g94
sg583
I28
sg66
g157
sbag0
(g86
g2
Ntp662
Rp663
(dp664
g90
g159
sg91
g94
sg583
I29
sg66
g159
sbag0
(g86
g2
Ntp665
Rp666
(dp667
g90
g161
sg91
g94
sg583
I30
sg66
g161
sbag0
(g86
g2
Ntp668
Rp669
(dp670
g90
g163
sg91
g94
sg583
I31
sg66
g163
sbag0
(g86
g2
Ntp671
Rp672
(dp673
g90
g165
sg91
g94
sg583
I32
sg66
g165
sbag0
(g86
g2
Ntp674
Rp675
(dp676
g90
g167
sg91
g94
sg583
I33
sg66
g167
sbag0
(g86
g2
Ntp677
Rp678
(dp679
g90
g169
sg91
g94
sg583
I34
sg66
g169
sbag0
(g86
g2
Ntp680
Rp681
(dp682
g90
g171
sg91
g94
sg583
I35
sg66
g171
sbag0
(g86
g2
Ntp683
Rp684
(dp685
g90
g173
sg91
g94
sg583
I36
sg66
g173
sbag0
(g86
g2
Ntp686
Rp687
(dp688
g90
g175
sg91
g94
sg583
I37
sg66
g175
sbag0
(g86
g2
Ntp689
Rp690
(dp691
g90
g177
sg91
g94
sg583
I38
sg66
g177
sbag0
(g86
g2
Ntp692
Rp693
(dp694
g90
g179
sg91
g94
sg583
I39
sg66
g179
sbag0
(g86
g2
Ntp695
Rp696
(dp697
g90
g181
sg91
g94
sg583
I40
sg66
g181
sbag0
(g86
g2
Ntp698
Rp699
(dp700
g90
g183
sg91
g94
sg583
I41
sg66
g183
sbag0
(g86
g2
Ntp701
Rp702
(dp703
g90
g185
sg91
g94
sg583
I42
sg66
g185
sbag0
(g86
g2
Ntp704
Rp705
(dp706
g90
g187
sg91
g94
sg583
I43
sg66
g187
sbag0
(g86
g2
Ntp707
Rp708
(dp709
g90
g189
sg91
g94
sg583
I44
sg66
g189
sbag0
(g86
g2
Ntp710
Rp711
(dp712
g90
g191
sg91
g94
sg583
I45
sg66
g191
sbag0
(g86
g2
Ntp713
Rp714
(dp715
g90
g193
sg91
g94
sg583
I46
sg66
g193
sbag0
(g86
g2
Ntp716
Rp717
(dp718
g90
g195
sg91
g94
sg583
I47
sg66
g195
sbag0
(g86
g2
Ntp719
Rp720
(dp721
g90
g197
sg91
g94
sg583
I48
sg66
g197
sbag0
(g86
g2
Ntp722
Rp723
(dp724
g90
g199
sg91
g94
sg583
I49
sg66
g199
sbag0
(g86
g2
Ntp725
Rp726
(dp727
g90
g201
sg91
g94
sg583
I50
sg66
g201
sbag0
(g86
g2
Ntp728
Rp729
(dp730
g90
g203
sg91
g94
sg583
I51
sg66
g203
sbag0
(g86
g2
Ntp731
Rp732
(dp733
g90
g205
sg91
g94
sg583
I52
sg66
g205
sbag0
(g86
g2
Ntp734
Rp735
(dp736
g90
g207
sg91
g94
sg583
I53
sg66
g207
sbag0
(g86
g2
Ntp737
Rp738
(dp739
g90
g209
sg91
g94
sg583
I54
sg66
g209
sbag0
(g86
g2
Ntp740
Rp741
(dp742
g90
g211
sg91
g94
sg583
I55
sg66
g211
sbag0
(g86
g2
Ntp743
Rp744
(dp745
g90
g213
sg91
g94
sg583
I56
sg66
g213
sbag0
(g86
g2
Ntp746
Rp747
(dp748
g90
g215
sg91
g94
sg583
I57
sg66
g215
sbag0
(g86
g2
Ntp749
Rp750
(dp751
g90
g217
sg91
g94
sg583
I58
sg66
g217
sbag0
(g86
g2
Ntp752
Rp753
(dp754
g90
g219
sg91
g94
sg583
I59
sg66
g219
sbag0
(g86
g2
Ntp755
Rp756
(dp757
g90
g221
sg91
g94
sg583
I60
sg66
g221
sbag0
(g86
g2
Ntp758
Rp759
(dp760
g90
g223
sg91
g94
sg583
I61
sg66
g223
sbag0
(g86
g2
Ntp761
Rp762
(dp763
g90
g225
sg91
g94
sg583
I62
sg66
g225
sbag0
(g86
g2
Ntp764
Rp765
(dp766
g90
g227
sg91
g94
sg583
I63
sg66
g227
sbag0
(g86
g2
Ntp767
Rp768
(dp769
g90
g229
sg91
g94
sg583
I64
sg66
g229
sbag0
(g86
g2
Ntp770
Rp771
(dp772
g90
g231
sg91
g94
sg583
I65
sg66
g231
sbag0
(g86
g2
Ntp773
Rp774
(dp775
g90
g233
sg91
g94
sg583
I66
sg66
g233
sbag0
(g86
g2
Ntp776
Rp777
(dp778
g90
g235
sg91
g94
sg583
I67
sg66
g235
sbag0
(g86
g2
Ntp779
Rp780
(dp781
g90
g237
sg91
g94
sg583
I68
sg66
g237
sbag0
(g86
g2
Ntp782
Rp783
(dp784
g90
g239
sg91
g94
sg583
I69
sg66
g239
sbag0
(g86
g2
Ntp785
Rp786
(dp787
g90
g241
sg91
g94
sg583
I70
sg66
g241
sbag0
(g86
g2
Ntp788
Rp789
(dp790
g90
g243
sg91
g94
sg583
I71
sg66
g243
sbag0
(g86
g2
Ntp791
Rp792
(dp793
g90
g245
sg91
g94
sg583
I72
sg66
g245
sbag0
(g86
g2
Ntp794
Rp795
(dp796
g90
g247
sg91
g94
sg583
I73
sg66
g247
sbag0
(g86
g2
Ntp797
Rp798
(dp799
g90
g249
sg91
g94
sg583
I74
sg66
g249
sbag0
(g86
g2
Ntp800
Rp801
(dp802
g90
g251
sg91
g94
sg583
I75
sg66
g251
sbag0
(g86
g2
Ntp803
Rp804
(dp805
g90
g253
sg91
g94
sg583
I76
sg66
g253
sbag0
(g86
g2
Ntp806
Rp807
(dp808
g90
g255
sg91
g94
sg583
I77
sg66
g255
sbag0
(g86
g2
Ntp809
Rp810
(dp811
g90
g257
sg91
g94
sg583
I78
sg66
g257
sbag0
(g86
g2
Ntp812
Rp813
(dp814
g90
g259
sg91
g94
sg583
I79
sg66
g259
sbag0
(g86
g2
Ntp815
Rp816
(dp817
g90
g261
sg91
g94
sg583
I80
sg66
g261
sbag0
(g86
g2
Ntp818
Rp819
(dp820
g90
g263
sg91
g94
sg583
I81
sg66
g263
sbag0
(g86
g2
Ntp821
Rp822
(dp823
g90
g265
sg91
g94
sg583
I82
sg66
g265
sbag0
(g86
g2
Ntp824
Rp825
(dp826
g90
g267
sg91
g94
sg583
I83
sg66
g267
sbag0
(g86
g2
Ntp827
Rp828
(dp829
g90
g269
sg91
g94
sg583
I84
sg66
g269
sbag0
(g86
g2
Ntp830
Rp831
(dp832
g90
g271
sg91
g94
sg583
I85
sg66
g271
sbag0
(g86
g2
Ntp833
Rp834
(dp835
g90
g273
sg91
g94
sg583
I86
sg66
g273
sbag0
(g86
g2
Ntp836
Rp837
(dp838
g90
g275
sg91
g94
sg583
I87
sg66
g275
sbag0
(g86
g2
Ntp839
Rp840
(dp841
g90
g277
sg91
g94
sg583
I88
sg66
g277
sbag0
(g86
g2
Ntp842
Rp843
(dp844
g90
g279
sg91
g94
sg583
I89
sg66
g279
sbag0
(g86
g2
Ntp845
Rp846
(dp847
g90
g281
sg91
g94
sg583
I90
sg66
g281
sbag0
(g86
g2
Ntp848
Rp849
(dp850
g90
g283
sg91
g94
sg583
I91
sg66
g283
sbasS'edges'
p851
(lp852
g0
(cconcept
SEM_REL
p853
g2
Ntp854
Rp855
(dp856
S'pTo'
p857
g581
sg293
g294
sS'pFrom'
p858
g585
sbag0
(g853
g2
Ntp859
Rp860
(dp861
g857
g585
sg293
g294
sg858
g588
sbag0
(g853
g2
Ntp862
Rp863
(dp864
g857
g588
sg293
g294
sg858
g591
sbag0
(g853
g2
Ntp865
Rp866
(dp867
g857
g588
sg293
g294
sg858
g594
sbag0
(g853
g2
Ntp868
Rp869
(dp870
g857
g585
sg293
g294
sg858
g597
sbag0
(g853
g2
Ntp871
Rp872
(dp873
g857
g597
sg293
g294
sg858
g600
sbag0
(g853
g2
Ntp874
Rp875
(dp876
g857
g585
sg293
g294
sg858
g603
sbag0
(g853
g2
Ntp877
Rp878
(dp879
g857
g603
sg293
g294
sg858
g606
sbag0
(g853
g2
Ntp880
Rp881
(dp882
g857
g603
sg293
g294
sg858
g609
sbag0
(g853
g2
Ntp883
Rp884
(dp885
g857
g603
sg293
g294
sg858
g612
sbag0
(g853
g2
Ntp886
Rp887
(dp888
g857
g603
sg293
g294
sg858
g615
sbag0
(g853
g2
Ntp889
Rp890
(dp891
g857
g603
sg293
g294
sg858
g618
sbag0
(g853
g2
Ntp892
Rp893
(dp894
g857
g603
sg293
g294
sg858
g621
sbag0
(g853
g2
Ntp895
Rp896
(dp897
g857
g603
sg293
g294
sg858
g624
sbag0
(g853
g2
Ntp898
Rp899
(dp900
g857
g603
sg293
g294
sg858
g627
sbag0
(g853
g2
Ntp901
Rp902
(dp903
g857
g603
sg293
g294
sg858
g630
sbag0
(g853
g2
Ntp904
Rp905
(dp906
g857
g585
sg293
g294
sg858
g633
sbag0
(g853
g2
Ntp907
Rp908
(dp909
g857
g633
sg293
g294
sg858
g636
sbag0
(g853
g2
Ntp910
Rp911
(dp912
g857
g633
sg293
g294
sg858
g639
sbag0
(g853
g2
Ntp913
Rp914
(dp915
g857
g581
sg293
g294
sg858
g642
sbag0
(g853
g2
Ntp916
Rp917
(dp918
g857
g642
sg293
g294
sg858
g645
sbag0
(g853
g2
Ntp919
Rp920
(dp921
g857
g645
sg293
g294
sg858
g648
sbag0
(g853
g2
Ntp922
Rp923
(dp924
g857
g645
sg293
g294
sg858
g651
sbag0
(g853
g2
Ntp925
Rp926
(dp927
g857
g645
sg293
g294
sg858
g654
sbag0
(g853
g2
Ntp928
Rp929
(dp930
g857
g645
sg293
g294
sg858
g657
sbag0
(g853
g2
Ntp931
Rp932
(dp933
g857
g645
sg293
g294
sg858
g660
sbag0
(g853
g2
Ntp934
Rp935
(dp936
g857
g642
sg293
g294
sg858
g663
sbag0
(g853
g2
Ntp937
Rp938
(dp939
g857
g663
sg293
g294
sg858
g666
sbag0
(g853
g2
Ntp940
Rp941
(dp942
g857
g663
sg293
g294
sg858
g669
sbag0
(g853
g2
Ntp943
Rp944
(dp945
g857
g663
sg293
g294
sg858
g672
sbag0
(g853
g2
Ntp946
Rp947
(dp948
g857
g642
sg293
g294
sg858
g675
sbag0
(g853
g2
Ntp949
Rp950
(dp951
g857
g675
sg293
g294
sg858
g678
sbag0
(g853
g2
Ntp952
Rp953
(dp954
g857
g675
sg293
g294
sg858
g681
sbag0
(g853
g2
Ntp955
Rp956
(dp957
g857
g581
sg293
g294
sg858
g684
sbag0
(g853
g2
Ntp958
Rp959
(dp960
g857
g684
sg293
g294
sg858
g687
sbag0
(g853
g2
Ntp961
Rp962
(dp963
g857
g687
sg293
g294
sg858
g690
sbag0
(g853
g2
Ntp964
Rp965
(dp966
g857
g687
sg293
g294
sg858
g693
sbag0
(g853
g2
Ntp967
Rp968
(dp969
g857
g687
sg293
g294
sg858
g696
sbag0
(g853
g2
Ntp970
Rp971
(dp972
g857
g687
sg293
g294
sg858
g699
sbag0
(g853
g2
Ntp973
Rp974
(dp975
g857
g687
sg293
g294
sg858
g702
sbag0
(g853
g2
Ntp976
Rp977
(dp978
g857
g702
sg293
g294
sg858
g705
sbag0
(g853
g2
Ntp979
Rp980
(dp981
g857
g705
sg293
g294
sg858
g708
sbag0
(g853
g2
Ntp982
Rp983
(dp984
g857
g702
sg293
g294
sg858
g711
sbag0
(g853
g2
Ntp985
Rp986
(dp987
g857
g711
sg293
g294
sg858
g708
sbag0
(g853
g2
Ntp988
Rp989
(dp990
g857
g684
sg293
g294
sg858
g714
sbag0
(g853
g2
Ntp991
Rp992
(dp993
g857
g714
sg293
g294
sg858
g717
sbag0
(g853
g2
Ntp994
Rp995
(dp996
g857
g717
sg293
g294
sg858
g720
sbag0
(g853
g2
Ntp997
Rp998
(dp999
g857
g717
sg293
g294
sg858
g723
sbag0
(g853
g2
Ntp1000
Rp1001
(dp1002
g857
g714
sg293
g294
sg858
g726
sbag0
(g853
g2
Ntp1003
Rp1004
(dp1005
g857
g726
sg293
g294
sg858
g729
sbag0
(g853
g2
Ntp1006
Rp1007
(dp1008
g857
g684
sg293
g294
sg858
g732
sbag0
(g853
g2
Ntp1009
Rp1010
(dp1011
g857
g684
sg293
g294
sg858
g735
sbag0
(g853
g2
Ntp1012
Rp1013
(dp1014
g857
g735
sg293
g294
sg858
g690
sbag0
(g853
g2
Ntp1015
Rp1016
(dp1017
g857
g735
sg293
g294
sg858
g699
sbag0
(g853
g2
Ntp1018
Rp1019
(dp1020
g857
g581
sg293
g294
sg858
g738
sbag0
(g853
g2
Ntp1021
Rp1022
(dp1023
g857
g581
sg293
g294
sg858
g741
sbag0
(g853
g2
Ntp1024
Rp1025
(dp1026
g857
g741
sg293
g294
sg858
g744
sbag0
(g853
g2
Ntp1027
Rp1028
(dp1029
g857
g744
sg293
g294
sg858
g747
sbag0
(g853
g2
Ntp1030
Rp1031
(dp1032
g857
g744
sg293
g294
sg858
g750
sbag0
(g853
g2
Ntp1033
Rp1034
(dp1035
g857
g741
sg293
g294
sg858
g753
sbag0
(g853
g2
Ntp1036
Rp1037
(dp1038
g857
g753
sg293
g294
sg858
g756
sbag0
(g853
g2
Ntp1039
Rp1040
(dp1041
g857
g756
sg293
g294
sg858
g759
sbag0
(g853
g2
Ntp1042
Rp1043
(dp1044
g857
g756
sg293
g294
sg858
g762
sbag0
(g853
g2
Ntp1045
Rp1046
(dp1047
g857
g756
sg293
g294
sg858
g765
sbag0
(g853
g2
Ntp1048
Rp1049
(dp1050
g857
g756
sg293
g294
sg858
g768
sbag0
(g853
g2
Ntp1051
Rp1052
(dp1053
g857
g756
sg293
g294
sg858
g771
sbag0
(g853
g2
Ntp1054
Rp1055
(dp1056
g857
g756
sg293
g294
sg858
g774
sbag0
(g853
g2
Ntp1057
Rp1058
(dp1059
g857
g756
sg293
g294
sg858
g777
sbag0
(g853
g2
Ntp1060
Rp1061
(dp1062
g857
g756
sg293
g294
sg858
g780
sbag0
(g853
g2
Ntp1063
Rp1064
(dp1065
g857
g780
sg293
g294
sg858
g783
sbag0
(g853
g2
Ntp1066
Rp1067
(dp1068
g857
g780
sg293
g294
sg858
g786
sbag0
(g853
g2
Ntp1069
Rp1070
(dp1071
g857
g780
sg293
g294
sg858
g789
sbag0
(g853
g2
Ntp1072
Rp1073
(dp1074
g857
g780
sg293
g294
sg858
g792
sbag0
(g853
g2
Ntp1075
Rp1076
(dp1077
g857
g753
sg293
g294
sg858
g747
sbag0
(g853
g2
Ntp1078
Rp1079
(dp1080
g857
g747
sg293
g294
sg858
g795
sbag0
(g853
g2
Ntp1081
Rp1082
(dp1083
g857
g747
sg293
g294
sg858
g798
sbag0
(g853
g2
Ntp1084
Rp1085
(dp1086
g857
g747
sg293
g294
sg858
g801
sbag0
(g853
g2
Ntp1087
Rp1088
(dp1089
g857
g753
sg293
g294
sg858
g750
sbag0
(g853
g2
Ntp1090
Rp1091
(dp1092
g857
g750
sg293
g294
sg858
g804
sbag0
(g853
g2
Ntp1093
Rp1094
(dp1095
g857
g750
sg293
g294
sg858
g807
sbag0
(g853
g2
Ntp1096
Rp1097
(dp1098
g857
g750
sg293
g294
sg858
g810
sbag0
(g853
g2
Ntp1099
Rp1100
(dp1101
g857
g750
sg293
g294
sg858
g813
sbag0
(g853
g2
Ntp1102
Rp1103
(dp1104
g857
g750
sg293
g294
sg858
g816
sbag0
(g853
g2
Ntp1105
Rp1106
(dp1107
g857
g750
sg293
g294
sg858
g819
sbag0
(g853
g2
Ntp1108
Rp1109
(dp1110
g857
g750
sg293
g294
sg858
g822
sbag0
(g853
g2
Ntp1111
Rp1112
(dp1113
g857
g750
sg293
g294
sg858
g825
sbag0
(g853
g2
Ntp1114
Rp1115
(dp1116
g857
g750
sg293
g294
sg858
g828
sbag0
(g853
g2
Ntp1117
Rp1118
(dp1119
g857
g750
sg293
g294
sg858
g831
sbag0
(g853
g2
Ntp1120
Rp1121
(dp1122
g857
g750
sg293
g294
sg858
g834
sbag0
(g853
g2
Ntp1123
Rp1124
(dp1125
g857
g741
sg293
g294
sg858
g837
sbag0
(g853
g2
Ntp1126
Rp1127
(dp1128
g857
g837
sg293
g294
sg858
g840
sbag0
(g853
g2
Ntp1129
Rp1130
(dp1131
g857
g837
sg293
g294
sg858
g843
sbag0
(g853
g2
Ntp1132
Rp1133
(dp1134
g857
g741
sg293
g294
sg858
g846
sbag0
(g853
g2
Ntp1135
Rp1136
(dp1137
g857
g846
sg293
g294
sg858
g804
sbag0
(g853
g2
Ntp1138
Rp1139
(dp1140
g857
g846
sg293
g294
sg858
g834
sbag0
(g853
g2
Ntp1141
Rp1142
(dp1143
g857
g741
sg293
g294
sg858
g849
sbag0
(g853
g2
Ntp1144
Rp1145
(dp1146
g857
g849
sg293
g294
sg858
g819
sbag0
(g853
g2
Ntp1147
Rp1148
(dp1149
g857
g849
sg293
g294
sg858
g825
sbag0
(g853
g2
Ntp1150
Rp1151
(dp1152
g857
g849
sg293
g294
sg858
g807
sbasS'neutral'
p1153
g88
sbsg583
I1
sg66
g82
sbssS'model'
p1154
Nsg583
I9
sS'LTM'
p1155
g62
sS'init_act'
p1156
F1.0
sbag0
(clanguage_schemas
CPT_ACTION_SCHEMA
p1157
g2
Ntp1158
Rp1159
(dp1160
g66
g107
sg83
(dp1161
g85
g585
ssg1154
Nsg583
I10
sg1155
g62
sg1156
F1.0
sbag0
(g1157
g2
Ntp1162
Rp1163
(dp1164
g66
g109
sg83
(dp1165
g85
g588
ssg1154
Nsg583
I11
sg1155
g62
sg1156
F1.0
sbag0
(g1157
g2
Ntp1166
Rp1167
(dp1168
g66
g111
sg83
(dp1169
g85
g591
ssg1154
Nsg583
I12
sg1155
g62
sg1156
F1.0
sbag0
(g1157
g2
Ntp1170
Rp1171
(dp1172
g66
g113
sg83
(dp1173
g85
g594
ssg1154
Nsg583
I13
sg1155
g62
sg1156
F1.0
sbag0
(g1157
g2
Ntp1174
Rp1175
(dp1176
g66
g115
sg83
(dp1177
g85
g597
ssg1154
Nsg583
I14
sg1155
g62
sg1156
F1.0
sbag0
(g1157
g2
Ntp1178
Rp1179
(dp1180
g66
g117
sg83
(dp1181
g85
g600
ssg1154
Nsg583
I15
sg1155
g62
sg1156
F1.0
sbag0
(g1157
g2
Ntp1182
Rp1183
(dp1184
g66
g119
sg83
(dp1185
g85
g603
ssg1154
Nsg583
I16
sg1155
g62
sg1156
F1.0
sbag0
(g1157
g2
Ntp1186
Rp1187
(dp1188
g66
g121
sg83
(dp1189
g85
g606
ssg1154
Nsg583
I17
sg1155
g62
sg1156
F1.0
sbag0
(g1157
g2
Ntp1190
Rp1191
(dp1192
g66
g123
sg83
(dp1193
g85
g609
ssg1154
Nsg583
I18
sg1155
g62
sg1156
F1.0
sbag0
(g1157
g2
Ntp1194
Rp1195
(dp1196
g66
g125
sg83
(dp1197
g85
g612
ssg1154
Nsg583
I19
sg1155
g62
sg1156
F1.0
sbag0
(g1157
g2
Ntp1198
Rp1199
(dp1200
g66
g127
sg83
(dp1201
g85
g615
ssg1154
Nsg583
I20
sg1155
g62
sg1156
F1.0
sbag0
(g1157
g2
Ntp1202
Rp1203
(dp1204
g66
g129
sg83
(dp1205
g85
g618
ssg1154
Nsg583
I21
sg1155
g62
sg1156
F1.0
sbag0
(g1157
g2
Ntp1206
Rp1207
(dp1208
g66
g131
sg83
(dp1209
g85
g621
ssg1154
Nsg583
I22
sg1155
g62
sg1156
F1.0
sbag0
(g1157
g2
Ntp1210
Rp1211
(dp1212
g66
g133
sg83
(dp1213
g85
g624
ssg1154
Nsg583
I23
sg1155
g62
sg1156
F1.0
sbag0
(g1157
g2
Ntp1214
Rp1215
(dp1216
g66
g135
sg83
(dp1217
g85
g627
ssg1154
Nsg583
I24
sg1155
g62
sg1156
F1.0
sbag0
(g1157
g2
Ntp1218
Rp1219
(dp1220
g66
g137
sg83
(dp1221
g85
g630
ssg1154
Nsg583
I25
sg1155
g62
sg1156
F1.0
sbag0
(g1157
g2
Ntp1222
Rp1223
(dp1224
g66
g139
sg83
(dp1225
g85
g633
ssg1154
Nsg583
I26
sg1155
g62
sg1156
F1.0
sbag0
(g1157
g2
Ntp1226
Rp1227
(dp1228
g66
g141
sg83
(dp1229
g85
g636
ssg1154
Nsg583
I27
sg1155
g62
sg1156
F1.0
sbag0
(g1157
g2
Ntp1230
Rp1231
(dp1232
g66
g143
sg83
(dp1233
g85
g639
ssg1154
Nsg583
I28
sg1155
g62
sg1156
F1.0
sbag0
(clanguage_schemas
CPT_PROPERTY_SCHEMA
p1234
g2
Ntp1235
Rp1236
(dp1237
g66
g145
sg83
(dp1238
g85
g642
ssg1154
Nsg583
I29
sg1155
g62
sg1156
F1.0
sbag0
(g1234
g2
Ntp1239
Rp1240
(dp1241
g66
g147
sg83
(dp1242
g85
g645
ssg1154
Nsg583
I30
sg1155
g62
sg1156
F1.0
sbag0
(g1234
g2
Ntp1243
Rp1244
(dp1245
g66
g149
sg83
(dp1246
g85
g648
ssg1154
Nsg583
I31
sg1155
g62
sg1156
F1.0
sbag0
(g1234
g2
Ntp1247
Rp1248
(dp1249
g66
g151
sg83
(dp1250
g85
g651
ssg1154
Nsg583
I32
sg1155
g62
sg1156
F1.0
sbag0
(g1234
g2
Ntp1251
Rp1252
(dp1253
g66
g153
sg83
(dp1254
g85
g654
ssg1154
Nsg583
I33
sg1155
g62
sg1156
F1.0
sbag0
(g1234
g2
Ntp1255
Rp1256
(dp1257
g66
g155
sg83
(dp1258
g85
g657
ssg1154
Nsg583
I34
sg1155
g62
sg1156
F1.0
sbag0
(g1234
g2
Ntp1259
Rp1260
(dp1261
g66
g157
sg83
(dp1262
g85
g660
ssg1154
Nsg583
I35
sg1155
g62
sg1156
F1.0
sbag0
(g1234
g2
Ntp1263
Rp1264
(dp1265
g66
g159
sg83
(dp1266
g85
g663
ssg1154
Nsg583
I36
sg1155
g62
sg1156
F1.0
sbag0
(g1234
g2
Ntp1267
Rp1268
(dp1269
g66
g161
sg83
(dp1270
g85
g666
ssg1154
Nsg583
I37
sg1155
g62
sg1156
F1.0
sbag0
(g1234
g2
Ntp1271
Rp1272
(dp1273
g66
g163
sg83
(dp1274
g85
g669
ssg1154
Nsg583
I38
sg1155
g62
sg1156
F1.0
sbag0
(g1234
g2
Ntp1275
Rp1276
(dp1277
g66
g165
sg83
(dp1278
g85
g672
ssg1154
Nsg583
I39
sg1155
g62
sg1156
F1.0
sbag0
(g1234
g2
Ntp1279
Rp1280
(dp1281
g66
g167
sg83
(dp1282
g85
g675
ssg1154
Nsg583
I40
sg1155
g62
sg1156
F1.0
sbag0
(g1234
g2
Ntp1283
Rp1284
(dp1285
g66
g169
sg83
(dp1286
g85
g678
ssg1154
Nsg583
I41
sg1155
g62
sg1156
F1.0
sbag0
(g1234
g2
Ntp1287
Rp1288
(dp1289
g66
g171
sg83
(dp1290
g85
g681
ssg1154
Nsg583
I42
sg1155
g62
sg1156
F1.0
sbag0
(clanguage_schemas
CPT_RELATION_SCHEMA
p1291
g2
Ntp1292
Rp1293
(dp1294
g66
g173
sg83
(dp1295
g857
Nsg85
g684
sg858
Nssg1154
Nsg583
I43
sg1155
g62
sg1156
F1.0
sbag0
(g1291
g2
Ntp1296
Rp1297
(dp1298
g66
g175
sg83
(dp1299
g857
Nsg85
g687
sg858
Nssg1154
Nsg583
I44
sg1155
g62
sg1156
F1.0
sbag0
(g1291
g2
Ntp1300
Rp1301
(dp1302
g66
g177
sg83
(dp1303
g857
Nsg85
g690
sg858
Nssg1154
Nsg583
I45
sg1155
g62
sg1156
F1.0
sbag0
(g1291
g2
Ntp1304
Rp1305
(dp1306
g66
g179
sg83
(dp1307
g857
Nsg85
g693
sg858
Nssg1154
Nsg583
I46
sg1155
g62
sg1156
F1.0
sbag0
(g1291
g2
Ntp1308
Rp1309
(dp1310
g66
g181
sg83
(dp1311
g857
Nsg85
g696
sg858
Nssg1154
Nsg583
I47
sg1155
g62
sg1156
F1.0
sbag0
(g1291
g2
Ntp1312
Rp1313
(dp1314
g66
g183
sg83
(dp1315
g857
Nsg85
g699
sg858
Nssg1154
Nsg583
I48
sg1155
g62
sg1156
F1.0
sbag0
(g1291
g2
Ntp1316
Rp1317
(dp1318
g66
g185
sg83
(dp1319
g857
Nsg85
g702
sg858
Nssg1154
Nsg583
I49
sg1155
g62
sg1156
F1.0
sbag0
(g1291
g2
Ntp1320
Rp1321
(dp1322
g66
g187
sg83
(dp1323
g857
Nsg85
g705
sg858
Nssg1154
Nsg583
I50
sg1155
g62
sg1156
F1.0
sbag0
(g1291
g2
Ntp1324
Rp1325
(dp1326
g66
g189
sg83
(dp1327
g857
Nsg85
g708
sg858
Nssg1154
Nsg583
I51
sg1155
g62
sg1156
F1.0
sbag0
(g1291
g2
Ntp1328
Rp1329
(dp1330
g66
g191
sg83
(dp1331
g857
Nsg85
g711
sg858
Nssg1154
Nsg583
I52
sg1155
g62
sg1156
F1.0
sbag0
(g1291
g2
Ntp1332
Rp1333
(dp1334
g66
g193
sg83
(dp1335
g857
Nsg85
g714
sg858
Nssg1154
Nsg583
I53
sg1155
g62
sg1156
F1.0
sbag0
(g1291
g2
Ntp1336
Rp1337
(dp1338
g66
g195
sg83
(dp1339
g857
Nsg85
g717
sg858
Nssg1154
Nsg583
I54
sg1155
g62
sg1156
F1.0
sbag0
(g1291
g2
Ntp1340
Rp1341
(dp1342
g66
g197
sg83
(dp1343
g857
Nsg85
g720
sg858
Nssg1154
Nsg583
I55
sg1155
g62
sg1156
F1.0
sbag0
(g1291
g2
Ntp1344
Rp1345
(dp1346
g66
g199
sg83
(dp1347
g857
Nsg85
g723
sg858
Nssg1154
Nsg583
I56
sg1155
g62
sg1156
F1.0
sbag0
(g1291
g2
Ntp1348
Rp1349
(dp1350
g66
g201
sg83
(dp1351
g857
Nsg85
g726
sg858
Nssg1154
Nsg583
I57
sg1155
g62
sg1156
F1.0
sbag0
(g1291
g2
Ntp1352
Rp1353
(dp1354
g66
g203
sg83
(dp1355
g857
Nsg85
g729
sg858
Nssg1154
Nsg583
I58
sg1155
g62
sg1156
F1.0
sbag0
(g1291
g2
Ntp1356
Rp1357
(dp1358
g66
g205
sg83
(dp1359
g857
Nsg85
g732
sg858
Nssg1154
Nsg583
I59
sg1155
g62
sg1156
F1.0
sbag0
(g1291
g2
Ntp1360
Rp1361
(dp1362
g66
g207
sg83
(dp1363
g857
Nsg85
g735
sg858
Nssg1154
Nsg583
I60
sg1155
g62
sg1156
F1.0
sbag0
(g78
g2
Ntp1364
Rp1365
(dp1366
g66
g209
sg83
(dp1367
g85
g738
ssg1154
Nsg583
I61
sg1155
g62
sg1156
F1.0
sbag0
(clanguage_schemas
CPT_ENTITY_SCHEMA
p1368
g2
Ntp1369
Rp1370
(dp1371
g66
g211
sg83
(dp1372
g85
g741
ssg1154
Nsg583
I62
sg1155
g62
sg1156
F1.0
sbag0
(g1368
g2
Ntp1373
Rp1374
(dp1375
g66
g213
sg83
(dp1376
g85
g744
ssg1154
Nsg583
I63
sg1155
g62
sg1156
F1.0
sbag0
(g1368
g2
Ntp1377
Rp1378
(dp1379
g66
g215
sg83
(dp1380
g85
g747
ssg1154
Nsg583
I64
sg1155
g62
sg1156
F1.0
sbag0
(g1368
g2
Ntp1381
Rp1382
(dp1383
g66
g217
sg83
(dp1384
g85
g750
ssg1154
Nsg583
I65
sg1155
g62
sg1156
F1.0
sbag0
(g1368
g2
Ntp1385
Rp1386
(dp1387
g66
g219
sg83
(dp1388
g85
g753
ssg1154
Nsg583
I66
sg1155
g62
sg1156
F1.0
sbag0
(g1368
g2
Ntp1389
Rp1390
(dp1391
g66
g221
sg83
(dp1392
g85
g756
ssg1154
Nsg583
I67
sg1155
g62
sg1156
F1.0
sbag0
(g1368
g2
Ntp1393
Rp1394
(dp1395
g66
g223
sg83
(dp1396
g85
g759
ssg1154
Nsg583
I68
sg1155
g62
sg1156
F1.0
sbag0
(g1368
g2
Ntp1397
Rp1398
(dp1399
g66
g225
sg83
(dp1400
g85
g762
ssg1154
Nsg583
I69
sg1155
g62
sg1156
F1.0
sbag0
(g1368
g2
Ntp1401
Rp1402
(dp1403
g66
g227
sg83
(dp1404
g85
g765
ssg1154
Nsg583
I70
sg1155
g62
sg1156
F1.0
sbag0
(g1368
g2
Ntp1405
Rp1406
(dp1407
g66
g229
sg83
(dp1408
g85
g768
ssg1154
Nsg583
I71
sg1155
g62
sg1156
F1.0
sbag0
(g1368
g2
Ntp1409
Rp1410
(dp1411
g66
g231
sg83
(dp1412
g85
g771
ssg1154
Nsg583
I72
sg1155
g62
sg1156
F1.0
sbag0
(g1368
g2
Ntp1413
Rp1414
(dp1415
g66
g233
sg83
(dp1416
g85
g774
ssg1154
Nsg583
I73
sg1155
g62
sg1156
F1.0
sbag0
(g1368
g2
Ntp1417
Rp1418
(dp1419
g66
g235
sg83
(dp1420
g85
g777
ssg1154
Nsg583
I74
sg1155
g62
sg1156
F1.0
sbag0
(g1368
g2
Ntp1421
Rp1422
(dp1423
g66
g237
sg83
(dp1424
g85
g780
ssg1154
Nsg583
I75
sg1155
g62
sg1156
F1.0
sbag0
(g1368
g2
Ntp1425
Rp1426
(dp1427
g66
g239
sg83
(dp1428
g85
g783
ssg1154
Nsg583
I76
sg1155
g62
sg1156
F1.0
sbag0
(g1368
g2
Ntp1429
Rp1430
(dp1431
g66
g241
sg83
(dp1432
g85
g786
ssg1154
Nsg583
I77
sg1155
g62
sg1156
F1.0
sbag0
(g1368
g2
Ntp1433
Rp1434
(dp1435
g66
g243
sg83
(dp1436
g85
g789
ssg1154
Nsg583
I78
sg1155
g62
sg1156
F1.0
sbag0
(g1368
g2
Ntp1437
Rp1438
(dp1439
g66
g245
sg83
(dp1440
g85
g792
ssg1154
Nsg583
I79
sg1155
g62
sg1156
F1.0
sbag0
(g1368
g2
Ntp1441
Rp1442
(dp1443
g66
g247
sg83
(dp1444
g85
g795
ssg1154
Nsg583
I80
sg1155
g62
sg1156
F1.0
sbag0
(g1368
g2
Ntp1445
Rp1446
(dp1447
g66
g249
sg83
(dp1448
g85
g798
ssg1154
Nsg583
I81
sg1155
g62
sg1156
F1.0
sbag0
(g1368
g2
Ntp1449
Rp1450
(dp1451
g66
g251
sg83
(dp1452
g85
g801
ssg1154
Nsg583
I82
sg1155
g62
sg1156
F1.0
sbag0
(g1368
g2
Ntp1453
Rp1454
(dp1455
g66
g253
sg83
(dp1456
g85
g804
ssg1154
Nsg583
I83
sg1155
g62
sg1156
F1.0
sbag0
(g1368
g2
Ntp1457
Rp1458
(dp1459
g66
g255
sg83
(dp1460
g85
g807
ssg1154
Nsg583
I84
sg1155
g62
sg1156
F1.0
sbag0
(g1368
g2
Ntp1461
Rp1462
(dp1463
g66
g257
sg83
(dp1464
g85
g810
ssg1154
Nsg583
I85
sg1155
g62
sg1156
F1.0
sbag0
(g1368
g2
Ntp1465
Rp1466
(dp1467
g66
g259
sg83
(dp1468
g85
g813
ssg1154
Nsg583
I86
sg1155
g62
sg1156
F1.0
sbag0
(g1368
g2
Ntp1469
Rp1470
(dp1471
g66
g261
sg83
(dp1472
g85
g816
ssg1154
Nsg583
I87
sg1155
g62
sg1156
F1.0
sbag0
(g1368
g2
Ntp1473
Rp1474
(dp1475
g66
g263
sg83
(dp1476
g85
g819
ssg1154
Nsg583
I88
sg1155
g62
sg1156
F1.0
sbag0
(g1368
g2
Ntp1477
Rp1478
(dp1479
g66
g265
sg83
(dp1480
g85
g822
ssg1154
Nsg583
I89
sg1155
g62
sg1156
F1.0
sbag0
(g1368
g2
Ntp1481
Rp1482
(dp1483
g66
g267
sg83
(dp1484
g85
g825
ssg1154
Nsg583
I90
sg1155
g62
sg1156
F1.0
sbag0
(g1368
g2
Ntp1485
Rp1486
(dp1487
g66
g269
sg83
(dp1488
g85
g828
ssg1154
Nsg583
I91
sg1155
g62
sg1156
F1.0
sbag0
(g1368
g2
Ntp1489
Rp1490
(dp1491
g66
g271
sg83
(dp1492
g85
g831
ssg1154
Nsg583
I92
sg1155
g62
sg1156
F1.0
sbag0
(g1368
g2
Ntp1493
Rp1494
(dp1495
g66
g273
sg83
(dp1496
g85
g834
ssg1154
Nsg583
I93
sg1155
g62
sg1156
F1.0
sbag0
(g1368
g2
Ntp1497
Rp1498
(dp1499
g66
g275
sg83
(dp1500
g85
g837
ssg1154
Nsg583
I94
sg1155
g62
sg1156
F1.0
sbag0
(g1368
g2
Ntp1501
Rp1502
(dp1503
g66
g277
sg83
(dp1504
g85
g840
ssg1154
Nsg583
I95
sg1155
g62
sg1156
F1.0
sbag0
(g1368
g2
Ntp1505
Rp1506
(dp1507
g66
g279
sg83
(dp1508
g85
g843
ssg1154
Nsg583
I96
sg1155
g62
sg1156
F1.0
sbag0
(g1368
g2
Ntp1509
Rp1510
(dp1511
g66
g281
sg83
(dp1512
g85
g846
ssg1154
Nsg583
I97
sg1155
g62
sg1156
F1.0
sbag0
(g1368
g2
Ntp1513
Rp1514
(dp1515
g66
g283
sg83
(dp1516
g85
g849
ssg1154
Nsg583
I98
sg1155
g62
sg1156
F1.0
sbasg293
S'OUT'
p1517
sg583
I11
sS'schema'
p1518
g62
sbag0
(g70
g2
Ntp1519
Rp1520
(dp1521
g66
S'to_semantic_WM'
p1522
sg75
Nsg76
g77
sg293
g1517
sg583
I12
sg1518
g62
sbasS'outputs'
p1523
(dp1524
g74
Nsg1522
NssS'connections'
p1525
(lp1526
sS'cpt_knowledge'
p1527
g94
sS'dt'
p1528
F1.0
sS'in_ports'
p1529
(lp1530
sS'params'
p1531
(dp1532
g1156
F1.0
ssS't'
p1533
I0
sS'activity'
p1534
I0
sg1154
g0
(cschema_theory
MODEL
p1535
g2
Ntp1536
Rp1537
(dp1538
S'verbose'
p1539
I00
sg66
S'language_system_P'
p1540
sS'sim_data'
p1541
(dp1542
S'system_states'
p1543
(dp1544
sg1154
(dp1545
ssg1523
(dp1546
sS'input_ports'
p1547
(lp1548
g0
(g70
g2
Ntp1549
Rp1550
(dp1551
g66
S'from_conceptualizer'
p1552
sg75
Nsg76
Nsg293
S'IN'
p1553
sg583
I1
sg1518
g0
(clanguage_schemas
SEMANTIC_WM
p1554
g2
Ntp1555
Rp1556
(dp1557
g64
(dp1558
S'from_grammatical_WM_P'
p1559
NsS'from_concept_LTM'
p1560
NsS'from_control'
p1561
NsS'from_grammatical_WM_C'
p1562
Nsg1552
NssS'schema_insts'
p1563
(lp1564
sg66
S'Semantic_WM'
p1565
sS'comp_links'
p1566
(lp1567
sg68
(lp1568
g0
(g70
g2
Ntp1569
Rp1570
(dp1571
S'port_data'
p1572
Nsg66
S'to_grammatical_WM_P'
p1573
sg75
Nsg76
NsS'port_value'
p1574
Nsg293
g1517
sg583
I6
sg1518
g1556
sbag0
(g70
g2
Ntp1575
Rp1576
(dp1577
g1572
Nsg66
S'to_cxn_retrieval_P'
p1578
sg75
Nsg76
Nsg1574
Nsg293
g1517
sg583
I7
sg1518
g1556
sbag0
(g70
g2
Ntp1579
Rp1580
(dp1581
g1572
Nsg66
S'to_control'
p1582
sg75
Nsg76
Nsg1574
Nsg293
g1517
sg583
I8
sg1518
g1556
sbag0
(g70
g2
Ntp1583
Rp1584
(dp1585
g66
S'to_visual_WM'
p1586
sg75
Nsg76
Nsg293
g1517
sg583
I9
sg1518
g1556
sbag0
(g70
g2
Ntp1587
Rp1588
(dp1589
g66
S'to_output'
p1590
sg75
Nsg76
Nsg293
g1517
sg583
I10
sg1518
g1556
sbasg1523
(dp1591
g1590
Nsg1573
Nsg1586
Nsg1578
Nsg1582
Nssg1528
F1.0
sS'coop_links'
p1592
(lp1593
sg1529
(lp1594
g1550
ag0
(g70
g2
Ntp1595
Rp1596
(dp1597
g66
g1560
sg75
Nsg76
Nsg293
g1553
sg583
I2
sg1518
g1556
sbag0
(g70
g2
Ntp1598
Rp1599
(dp1600
g66
g1562
sg75
Nsg76
Nsg293
g1553
sg583
I3
sg1518
g1556
sbag0
(g70
g2
Ntp1601
Rp1602
(dp1603
g1572
Nsg66
g1559
sg75
Nsg76
Nsg1574
Nsg293
g1553
sg583
I4
sg1518
g1556
sbag0
(g70
g2
Ntp1604
Rp1605
(dp1606
g1572
Nsg66
g1561
sg75
Nsg76
S'produce'
p1607
sg1574
Nsg293
g1553
sg583
I5
sg1518
g1556
sbasS'save_state'
p1608
(dp1609
S'insts'
p1610
(dp1611
sS'WM_activity'
p1612
(dp1613
S'comp'
p1614
(lp1615
sS'c2_network'
p1616
(dp1617
S'num_insts'
p1618
(lp1619
sS'num_coop_links'
p1620
(lp1621
sS'num_comp_links'
p1622
(lp1623
ssS'coop'
p1624
(lp1625
sg1533
(lp1626
sS'act'
p1627
(lp1628
sssg1531
(dp1629
S'C2'
p1630
(dp1631
S'P_comp'
p1632
F1.0
sS'max_capacity'
p1633
NsS'comp_weight'
p1634
F0.0
sS'P_coop'
p1635
F1.0
sS'coop_asymmetry'
p1636
F1.0
sS'coop_weight'
p1637
F0.0
sS'confidence_threshold'
p1638
F0.0
sS'comp_asymmetry'
p1639
F0.0
sS'prune_threshold'
p1640
F0.01
ssS'dyn'
p1641
(dp1642
S'tau'
p1643
F10000.0
sS'k'
p1644
F10.0
sS'act_rest'
p1645
F0.001
sS'noise_mean'
p1646
F0.0
sS'noise_std'
p1647
F1.0
sS'ext_weight'
p1648
F1.0
sS'int_weight'
p1649
F1.0
sssg1533
I0
sg1534
I0
sg1154
g1537
sS'SemRep'
p1650
g0
(g97
g2
Ntp1651
Rp1652
(dp1653
g101
(dp1654
sg284
g285
sg286
g285
sg287
(dp1655
sg481
g1655
sg96
(dp1656
sg483
g285
sg484
g1655
sg485
(dp1657
sbsg583
I1
sbsbasS'brain_mapping'
p1658
g0
(cschema_theory
BRAIN_MAPPING
p1659
g2
Ntp1660
Rp1661
(dp1662
S'schema_mapping'
p1663
(dp1664
S'Control'
p1665
(lp1666
S'DLPFC'
p1667
asS'Utter'
p1668
(lp1669
S''
p1670
asg1565
(lp1671
S'left_SFG'
p1672
aS'LIP'
p1673
aS'Hippocampus'
p1674
asS'Phonological_WM_P'
p1675
(lp1676
S'left_BA6'
p1677
asg67
(lp1678
g1670
asS'Grammatical_WM_P'
p1679
(lp1680
S'left_BA45'
p1681
aS'leftBA44'
p1682
asS'Grammatical_LTM'
p1683
(lp1684
S'left_STG'
p1685
aS'left_MTG'
p1686
asS'Cxn_retrieval_P'
p1687
(lp1688
ssS'connect_mapping'
p1689
(dp1690
sbsg1525
(lp1691
g0
(cschema_theory
CONNECT
p1692
g2
Ntp1693
Rp1694
(dp1695
S'delay'
p1696
I0
sg66
g1670
sS'weight'
p1697
I0
sS'port_to'
p1698
g0
(g70
g2
Ntp1699
Rp1700
(dp1701
g1572
Nsg66
S'from_semantic_WM'
p1702
sg75
Nsg76
Nsg1574
Nsg293
g1553
sg583
I23
sg1518
g0
(clanguage_schemas
CXN_RETRIEVAL_P
p1703
g2
Ntp1704
Rp1705
(dp1706
g64
(dp1707
g1702
NsS'from_grammatical_LTM'
p1708
Nssg66
g1687
sg68
(lp1709
g0
(g70
g2
Ntp1710
Rp1711
(dp1712
g1572
Nsg66
g1573
sg75
Nsg76
Nsg1574
Nsg293
g1517
sg583
I24
sg1518
g1705
sbasg1523
(dp1713
g1573
NssS'cxn_instances'
p1714
(lp1715
sg1528
F1.0
sg1529
(lp1716
g0
(g70
g2
Ntp1717
Rp1718
(dp1719
g1572
Nsg66
g1708
sg75
Nsg76
(lp1720
g0
(clanguage_schemas
CXN_SCHEMA
p1721
g2
Ntp1722
Rp1723
(dp1724
g66
VCNJ_AND
p1725
sg83
(iconstruction
CXN
p1726
(dp1727
S'SymLinks'
p1728
(iconstruction
TP_SYMLINKS
p1729
(dp1730
S'SL'
p1731
(dp1732
VEVT1_4
p1733
VS1_6
p1734
sVEVT2_5
p1735
VS3_8
p1736
ssg583
I3
sg66
g1670
sbsS'clss'
p1737
VD
p1738
sS'group'
p1739
I3
sg66
g1725
sS'SemFrame'
p1740
(iconstruction
TP_SEMFRAME
p1741
(dp1742
g96
g0
(g97
g2
Ntp1743
Rp1744
(dp1745
g101
(dp1746
(iconstruction
TP_NODE
p1747
(dp1748
S'head'
p1749
I00
sg85
g738
sg66
g1735
sS'frame'
p1750
I00
sS'focus'
p1751
I00
sg583
I5
sb(dp1752
g1750
I00
sg85
g738
ss(iconstruction
TP_NODE
p1753
(dp1754
g1749
I00
sg85
g738
sg66
g1733
sg1750
I00
sg1751
I01
sg583
I4
sb(dp1755
g1750
I00
sg85
g738
sssg284
g285
sg286
g285
sg287
(dp1756
g1747
(dp1757
sg1753
(dp1758
ssg481
g1756
sg96
(dp1759
sg483
g285
sg484
g1756
sg485
(dp1760
g1747
(dp1761
sg1753
(dp1762
ssbsg578
(lp1763
g1753
ag1747
asg851
(lp1764
sg583
I1
sg66
g1670
sbsS'SynForm'
p1765
(iconstruction
TP_SYNFORM
p1766
(dp1767
g583
I2
sS'form'
p1768
(lp1769
(iconstruction
TP_SLOT
p1770
(dp1771
S'cxn_classes'
p1772
(lp1773
VS
p1774
asS'order'
p1775
I0
sg583
I6
sg66
g1734
sba(iconstruction
TP_PHON
p1776
(dp1777
S'num_syllables'
p1778
I3
sg1775
I1
sg583
I7
sS'cxn_phonetics'
p1779
Vand
p1780
sg66
VS2_7
p1781
sba(iconstruction
TP_SLOT
p1782
(dp1783
g1772
(lp1784
VS
p1785
asg1775
I2
sg583
I8
sg66
g1736
sbasg66
g1670
sbsS'preference'
p1786
I1
sbsg1154
Nsg583
I99
sg1155
g0
(clanguage_schemas
GRAMMATICAL_LTM
p1787
g2
Ntp1788
Rp1789
(dp1790
g64
(dp1791
sS'grammar'
p1792
(iconstruction
GRAMMAR
p1793
(dp1794
S'constructions'
p1795
(lp1796
g1726
a(iconstruction
CXN
p1797
(dp1798
g1728
(iconstruction
TP_SYMLINKS
p1799
(dp1800
g1731
(dp1801
VEVT2_13
p1802
VS3_17
p1803
sVEVT1_12
p1804
VS1_15
p1805
ssg583
I11
sg66
g1670
sbsg1737
VD
p1806
sg1739
I3
sg66
VCNJ_THEN
p1807
sg1740
(iconstruction
TP_SEMFRAME
p1808
(dp1809
g96
g0
(g97
g2
Ntp1810
Rp1811
(dp1812
g101
(dp1813
(iconstruction
TP_NODE
p1814
(dp1815
g1749
I00
sg85
g738
sg66
g1802
sg1750
I00
sg1751
I00
sg583
I13
sb(dp1816
g1750
I00
sg85
g738
ss(iconstruction
TP_NODE
p1817
(dp1818
g1749
I00
sg85
g738
sg66
g1804
sg1750
I00
sg1751
I00
sg583
I12
sb(dp1819
g1750
I00
sg85
g738
sssg284
g285
sg286
g285
sg287
(dp1820
g1814
(dp1821
sg1817
(dp1822
g1814
(dp1823
g85
g723
ssssg481
g1820
sg96
(dp1824
sg483
g285
sg484
g1820
sg485
(dp1825
g1814
(dp1826
g1817
g1823
ssg1817
(dp1827
ssbsg578
(lp1828
g1817
ag1814
asg851
(lp1829
(iconstruction
TP_REL
p1830
(dp1831
g857
g1814
sg85
g723
sg583
I14
sg858
g1817
sg66
VEVT1_EVT2_14
p1832
sbasg583
I9
sg66
g1670
sbsg1765
(iconstruction
TP_SYNFORM
p1833
(dp1834
g583
I10
sg1768
(lp1835
(iconstruction
TP_SLOT
p1836
(dp1837
g1772
(lp1838
VS
p1839
asg1775
I0
sg583
I15
sg66
g1805
sba(iconstruction
TP_PHON
p1840
(dp1841
g1778
I4
sg1775
I1
sg583
I16
sg1779
Vthen
p1842
sg66
VS2_16
p1843
sba(iconstruction
TP_SLOT
p1844
(dp1845
g1772
(lp1846
VS
p1847
asg1775
I2
sg583
I17
sg66
g1803
sbasg66
g1670
sbsg1786
I1
sba(iconstruction
CXN
p1848
(dp1849
g1728
(iconstruction
TP_SYMLINKS
p1850
(dp1851
g1731
(dp1852
VEVT2_22
p1853
VS3_26
p1854
sVEVT1_21
p1855
VS1_24
p1856
ssg583
I20
sg66
g1670
sbsg1737
VD
p1857
sg1739
I3
sg66
VCNJ_WHILE
p1858
sg1740
(iconstruction
TP_SEMFRAME
p1859
(dp1860
g96
g0
(g97
g2
Ntp1861
Rp1862
(dp1863
g101
(dp1864
(iconstruction
TP_NODE
p1865
(dp1866
g1749
I00
sg85
g738
sg66
g1855
sg1750
I00
sg1751
I01
sg583
I21
sb(dp1867
g1750
I00
sg85
g738
ss(iconstruction
TP_NODE
p1868
(dp1869
g1749
I00
sg85
g738
sg66
g1853
sg1750
I00
sg1751
I00
sg583
I22
sb(dp1870
g1750
I00
sg85
g738
sssg284
g285
sg286
g285
sg287
(dp1871
g1865
(dp1872
g1868
(dp1873
g85
g720
sssg1868
(dp1874
ssg481
g1871
sg96
(dp1875
sg483
g285
sg484
g1871
sg485
(dp1876
g1865
(dp1877
sg1868
(dp1878
g1865
g1873
sssbsg578
(lp1879
g1865
ag1868
asg851
(lp1880
(iconstruction
TP_REL
p1881
(dp1882
g857
g1868
sg85
g720
sg583
I23
sg858
g1865
sg66
VEVT1_EVT2_23
p1883
sbasg583
I18
sg66
g1670
sbsg1765
(iconstruction
TP_SYNFORM
p1884
(dp1885
g583
I19
sg1768
(lp1886
(iconstruction
TP_SLOT
p1887
(dp1888
g1772
(lp1889
VS
p1890
asg1775
I0
sg583
I24
sg66
g1856
sba(iconstruction
TP_PHON
p1891
(dp1892
g1778
I5
sg1775
I1
sg583
I25
sg1779
Vwhile
p1893
sg66
VS2_25
p1894
sba(iconstruction
TP_SLOT
p1895
(dp1896
g1772
(lp1897
VS
p1898
asg1775
I2
sg583
I26
sg66
g1854
sbasg66
g1670
sbsg1786
I1
sba(iconstruction
CXN
p1899
(dp1900
g1728
(iconstruction
TP_SYMLINKS
p1901
(dp1902
g1731
(dp1903
VACT_31
p1904
VS4_40
p1905
sVACTOR_1_32
p1906
VS1_37
p1907
sVACTOR_2_33
p1908
VS3_39
p1909
ssg583
I29
sg66
g1670
sbsg1737
VS
p1910
sg1739
Nsg66
VSYMMETRIC_TRANS
p1911
sg1740
(iconstruction
TP_SEMFRAME
p1912
(dp1913
g96
g0
(g97
g2
Ntp1914
Rp1915
(dp1916
g101
(dp1917
(iconstruction
TP_NODE
p1918
(dp1919
g1749
I00
sg85
g585
sg66
g1904
sg1750
I01
sg1751
I00
sg583
I31
sb(dp1920
g1750
I01
sg85
g585
ss(iconstruction
TP_NODE
p1921
(dp1922
g1749
I00
sg85
g741
sg66
g1906
sg1750
I01
sg1751
I01
sg583
I32
sb(dp1923
g1750
I01
sg85
g741
ss(iconstruction
TP_NODE
p1924
(dp1925
g1749
I00
sg85
g741
sg66
g1908
sg1750
I01
sg1751
I00
sg583
I33
sb(dp1926
g1750
I01
sg85
g741
ss(iconstruction
TP_NODE
p1927
(dp1928
g1749
I01
sg85
g738
sg66
VEVT_30
p1929
sg1750
I01
sg1751
I00
sg583
I30
sb(dp1930
g1750
I01
sg85
g738
sssg284
g285
sg286
g285
sg287
(dp1931
g1918
(dp1932
g1924
(dp1933
g85
g708
ssg1921
(dp1934
g85
g708
sssg1921
(dp1935
sg1924
(dp1936
sg1927
(dp1937
g1918
(dp1938
g85
g732
ssssg481
g1931
sg96
(dp1939
sg483
g285
sg484
g1931
sg485
(dp1940
g1918
(dp1941
g1927
g1938
ssg1921
(dp1942
g1918
g1934
ssg1924
(dp1943
g1918
g1933
ssg1927
(dp1944
ssbsg578
(lp1945
g1927
ag1918
ag1921
ag1924
asg851
(lp1946
(iconstruction
TP_REL
p1947
(dp1948
g857
g1918
sg85
g732
sg583
I34
sg858
g1927
sg66
VIS_34
p1949
sba(iconstruction
TP_REL
p1950
(dp1951
g857
g1921
sg85
g708
sg583
I35
sg858
g1918
sg66
VAGT_PT_1_35
p1952
sba(iconstruction
TP_REL
p1953
(dp1954
g857
g1924
sg85
g708
sg583
I36
sg858
g1918
sg66
VAGT_PT_2_36
p1955
sbasg583
I27
sg66
g1670
sbsg1765
(iconstruction
TP_SYNFORM
p1956
(dp1957
g583
I28
sg1768
(lp1958
(iconstruction
TP_SLOT
p1959
(dp1960
g1772
(lp1961
VNP
p1962
aVN
p1963
asg1775
I0
sg583
I37
sg66
g1907
sba(iconstruction
TP_PHON
p1964
(dp1965
g1778
I3
sg1775
I1
sg583
I38
sg1779
Vand
p1966
sg66
VS2_38
p1967
sba(iconstruction
TP_SLOT
p1968
(dp1969
g1772
(lp1970
VNP
p1971
aVN
p1972
asg1775
I2
sg583
I39
sg66
g1909
sba(iconstruction
TP_SLOT
p1973
(dp1974
g1772
(lp1975
VVP
p1976
aVV
p1977
asg1775
I3
sg583
I40
sg66
g1905
sbasg66
g1670
sbsg1786
I1
sba(iconstruction
CXN
p1978
(dp1979
g1728
(iconstruction
TP_SYMLINKS
p1980
(dp1981
g1731
(dp1982
VAGT_46
p1983
VS1_51
p1984
sVACT_45
p1985
VS2_52
p1986
sVPT_47
p1987
VS3_53
p1988
ssg583
I43
sg66
g1670
sbsg1737
VS
p1989
sg1739
I2
sg66
VSVO
p1990
sg1740
(iconstruction
TP_SEMFRAME
p1991
(dp1992
g96
g0
(g97
g2
Ntp1993
Rp1994
(dp1995
g101
(dp1996
(iconstruction
TP_NODE
p1997
(dp1998
g1749
I00
sg85
g585
sg66
g1985
sg1750
I01
sg1751
I00
sg583
I45
sb(dp1999
g1750
I01
sg85
g585
ss(iconstruction
TP_NODE
p2000
(dp2001
g1749
I00
sg85
g741
sg66
g1983
sg1750
I01
sg1751
I01
sg583
I46
sb(dp2002
g1750
I01
sg85
g741
ss(iconstruction
TP_NODE
p2003
(dp2004
g1749
I01
sg85
g738
sg66
VEVT_44
p2005
sg1750
I01
sg1751
I00
sg583
I44
sb(dp2006
g1750
I01
sg85
g738
ss(iconstruction
TP_NODE
p2007
(dp2008
g1749
I00
sg85
g741
sg66
g1987
sg1750
I01
sg1751
I00
sg583
I47
sb(dp2009
g1750
I01
sg85
g741
sssg284
g285
sg286
g285
sg287
(dp2010
g1997
(dp2011
g2007
(dp2012
g85
g705
ssg2000
(dp2013
g85
g711
sssg2000
(dp2014
sg2003
(dp2015
g1997
(dp2016
g85
g732
sssg2007
(dp2017
ssg481
g2010
sg96
(dp2018
sg483
g285
sg484
g2010
sg485
(dp2019
g1997
(dp2020
g2003
g2016
ssg2000
(dp2021
g1997
g2013
ssg2003
(dp2022
sg2007
(dp2023
g1997
g2012
sssbsg578
(lp2024
g2003
ag1997
ag2000
ag2007
asg851
(lp2025
(iconstruction
TP_REL
p2026
(dp2027
g857
g1997
sg85
g732
sg583
I48
sg858
g2003
sg66
VIS_48
p2028
sba(iconstruction
TP_REL
p2029
(dp2030
g857
g2000
sg85
g711
sg583
I49
sg858
g1997
sg66
VACT_AGT_49
p2031
sba(iconstruction
TP_REL
p2032
(dp2033
g857
g2007
sg85
g705
sg583
I50
sg858
g1997
sg66
VACT_PT_50
p2034
sbasg583
I41
sg66
g1670
sbsg1765
(iconstruction
TP_SYNFORM
p2035
(dp2036
g583
I42
sg1768
(lp2037
(iconstruction
TP_SLOT
p2038
(dp2039
g1772
(lp2040
VNP
p2041
aVN
p2042
asg1775
I0
sg583
I51
sg66
g1984
sba(iconstruction
TP_SLOT
p2043
(dp2044
g1772
(lp2045
VVP
p2046
aVV
p2047
asg1775
I1
sg583
I52
sg66
g1986
sba(iconstruction
TP_SLOT
p2048
(dp2049
g1772
(lp2050
VNP
p2051
aVN
p2052
asg1775
I2
sg583
I53
sg66
g1988
sbasg66
g1670
sbsg1786
I1
sba(iconstruction
CXN
p2053
(dp2054
g1728
(iconstruction
TP_SYMLINKS
p2055
(dp2056
g1731
(dp2057
VTHEME_60
p2058
VS4_69
p2059
sVRCPT_61
p2060
VS3_68
p2061
sVACT_58
p2062
VS2_67
p2063
sVAGT_59
p2064
VS1_66
p2065
ssg583
I56
sg66
g1670
sbsg1737
VS
p2066
sg1739
I2
sg66
VDOUBLE_OBJ
p2067
sg1740
(iconstruction
TP_SEMFRAME
p2068
(dp2069
g96
g0
(g97
g2
Ntp2070
Rp2071
(dp2072
g101
(dp2073
(iconstruction
TP_NODE
p2074
(dp2075
g1749
I00
sg85
g585
sg66
g2062
sg1750
I01
sg1751
I00
sg583
I58
sb(dp2076
g1750
I01
sg85
g585
ss(iconstruction
TP_NODE
p2077
(dp2078
g1749
I00
sg85
g741
sg66
g2064
sg1750
I01
sg1751
I01
sg583
I59
sb(dp2079
g1750
I01
sg85
g741
ss(iconstruction
TP_NODE
p2080
(dp2081
g1749
I00
sg85
g741
sg66
g2060
sg1750
I01
sg1751
I00
sg583
I61
sb(dp2082
g1750
I01
sg85
g741
ss(iconstruction
TP_NODE
p2083
(dp2084
g1749
I01
sg85
g738
sg66
VEVT_57
p2085
sg1750
I01
sg1751
I00
sg583
I57
sb(dp2086
g1750
I01
sg85
g738
ss(iconstruction
TP_NODE
p2087
(dp2088
g1749
I00
sg85
g741
sg66
g2058
sg1750
I01
sg1751
I00
sg583
I60
sb(dp2089
g1750
I01
sg85
g741
sssg284
g285
sg286
g285
sg287
(dp2090
g2074
(dp2091
g2087
(dp2092
g85
g693
ssg2080
(dp2093
g85
g696
ssg2077
(dp2094
g85
g711
sssg2077
(dp2095
sg2080
(dp2096
sg2083
(dp2097
g2074
(dp2098
g85
g732
sssg2087
(dp2099
ssg481
g2090
sg96
(dp2100
sg483
g285
sg484
g2090
sg485
(dp2101
g2074
(dp2102
g2083
g2098
ssg2077
(dp2103
g2074
g2094
ssg2080
(dp2104
g2074
g2093
ssg2083
(dp2105
sg2087
(dp2106
g2074
g2092
sssbsg578
(lp2107
g2083
ag2074
ag2077
ag2087
ag2080
asg851
(lp2108
(iconstruction
TP_REL
p2109
(dp2110
g857
g2074
sg85
g732
sg583
I62
sg858
g2083
sg66
VIS_62
p2111
sba(iconstruction
TP_REL
p2112
(dp2113
g857
g2077
sg85
g711
sg583
I63
sg858
g2074
sg66
VACT_AGT_63
p2114
sba(iconstruction
TP_REL
p2115
(dp2116
g857
g2087
sg85
g693
sg583
I64
sg858
g2074
sg66
VACT_THEME_64
p2117
sba(iconstruction
TP_REL
p2118
(dp2119
g857
g2080
sg85
g696
sg583
I65
sg858
g2074
sg66
VACT_RCPT_65
p2120
sbasg583
I54
sg66
g1670
sbsg1765
(iconstruction
TP_SYNFORM
p2121
(dp2122
g583
I55
sg1768
(lp2123
(iconstruction
TP_SLOT
p2124
(dp2125
g1772
(lp2126
VNP
p2127
aVN
p2128
asg1775
I0
sg583
I66
sg66
g2065
sba(iconstruction
TP_SLOT
p2129
(dp2130
g1772
(lp2131
VVP
p2132
aVV
p2133
asg1775
I1
sg583
I67
sg66
g2063
sba(iconstruction
TP_SLOT
p2134
(dp2135
g1772
(lp2136
VNP
p2137
aVN
p2138
asg1775
I2
sg583
I68
sg66
g2061
sba(iconstruction
TP_SLOT
p2139
(dp2140
g1772
(lp2141
VNP
p2142
aVN
p2143
asg1775
I3
sg583
I69
sg66
g2059
sbasg66
g1670
sbsg1786
I1
sba(iconstruction
CXN
p2144
(dp2145
g1728
(iconstruction
TP_SYMLINKS
p2146
(dp2147
g1731
(dp2148
VACT_74
p2149
VS2_83
p2150
sVRCPT_77
p2151
VS5_86
p2152
sVTHEME_76
p2153
VS3_84
p2154
sVAGT_75
p2155
VS1_82
p2156
ssg583
I72
sg66
g1670
sbsg1737
VS
p2157
sg1739
I2
sg66
VOBLIQUE_DATIVE
p2158
sg1740
(iconstruction
TP_SEMFRAME
p2159
(dp2160
g96
g0
(g97
g2
Ntp2161
Rp2162
(dp2163
g101
(dp2164
(iconstruction
TP_NODE
p2165
(dp2166
g1749
I00
sg85
g633
sg66
g2149
sg1750
I01
sg1751
I00
sg583
I74
sb(dp2167
g1750
I01
sg85
g633
ss(iconstruction
TP_NODE
p2168
(dp2169
g1749
I00
sg85
g741
sg66
g2155
sg1750
I01
sg1751
I01
sg583
I75
sb(dp2170
g1750
I01
sg85
g741
ss(iconstruction
TP_NODE
p2171
(dp2172
g1749
I00
sg85
g741
sg66
g2153
sg1750
I01
sg1751
I00
sg583
I76
sb(dp2173
g1750
I01
sg85
g741
ss(iconstruction
TP_NODE
p2174
(dp2175
g1749
I01
sg85
g738
sg66
VEVT_73
p2176
sg1750
I01
sg1751
I00
sg583
I73
sb(dp2177
g1750
I01
sg85
g738
ss(iconstruction
TP_NODE
p2178
(dp2179
g1749
I00
sg85
g741
sg66
g2151
sg1750
I01
sg1751
I00
sg583
I77
sb(dp2180
g1750
I01
sg85
g741
sssg284
g285
sg286
g285
sg287
(dp2181
g2165
(dp2182
g2171
(dp2183
g85
g693
ssg2178
(dp2184
g85
g696
ssg2168
(dp2185
g85
g711
sssg2168
(dp2186
sg2171
(dp2187
sg2174
(dp2188
g2165
(dp2189
g85
g732
sssg2178
(dp2190
ssg481
g2181
sg96
(dp2191
sg483
g285
sg484
g2181
sg485
(dp2192
g2165
(dp2193
g2174
g2189
ssg2168
(dp2194
g2165
g2185
ssg2171
(dp2195
g2165
g2183
ssg2174
(dp2196
sg2178
(dp2197
g2165
g2184
sssbsg578
(lp2198
g2174
ag2165
ag2168
ag2171
ag2178
asg851
(lp2199
(iconstruction
TP_REL
p2200
(dp2201
g857
g2165
sg85
g732
sg583
I78
sg858
g2174
sg66
VIS_78
p2202
sba(iconstruction
TP_REL
p2203
(dp2204
g857
g2168
sg85
g711
sg583
I79
sg858
g2165
sg66
VACT_AGT_79
p2205
sba(iconstruction
TP_REL
p2206
(dp2207
g857
g2171
sg85
g693
sg583
I80
sg858
g2165
sg66
VACT_THEME_80
p2208
sba(iconstruction
TP_REL
p2209
(dp2210
g857
g2178
sg85
g696
sg583
I81
sg858
g2165
sg66
VACT_RCPT_81
p2211
sbasg583
I70
sg66
g1670
sbsg1765
(iconstruction
TP_SYNFORM
p2212
(dp2213
g583
I71
sg1768
(lp2214
(iconstruction
TP_SLOT
p2215
(dp2216
g1772
(lp2217
VNP
p2218
aVN
p2219
asg1775
I0
sg583
I82
sg66
g2156
sba(iconstruction
TP_SLOT
p2220
(dp2221
g1772
(lp2222
VVP
p2223
aVV
p2224
asg1775
I1
sg583
I83
sg66
g2150
sba(iconstruction
TP_SLOT
p2225
(dp2226
g1772
(lp2227
VNP
p2228
aVN
p2229
asg1775
I2
sg583
I84
sg66
g2154
sba(iconstruction
TP_PHON
p2230
(dp2231
g1778
I2
sg1775
I3
sg583
I85
sg1779
Vto
p2232
sg66
VS4_85
p2233
sba(iconstruction
TP_SLOT
p2234
(dp2235
g1772
(lp2236
VNP
p2237
aVN
p2238
asg1775
I4
sg583
I86
sg66
g2152
sbasg66
g1670
sbsg1786
I1
sba(iconstruction
CXN
p2239
(dp2240
g1728
(iconstruction
TP_SYMLINKS
p2241
(dp2242
g1731
(dp2243
VENT_91
p2244
VS1_95
p2245
sVATTR_92
p2246
VS3_97
p2247
ssg583
I89
sg66
g1670
sbsg1737
VS
p2248
sg1739
I2
sg66
VSPA
p2249
sg1740
(iconstruction
TP_SEMFRAME
p2250
(dp2251
g96
g0
(g97
g2
Ntp2252
Rp2253
(dp2254
g101
(dp2255
(iconstruction
TP_NODE
p2256
(dp2257
g1749
I01
sg85
g738
sg66
VEVT_90
p2258
sg1750
I01
sg1751
I00
sg583
I90
sb(dp2259
g1750
I01
sg85
g738
ss(iconstruction
TP_NODE
p2260
(dp2261
g1749
I00
sg85
g642
sg66
g2246
sg1750
I00
sg1751
I00
sg583
I92
sb(dp2262
g1750
I00
sg85
g642
ss(iconstruction
TP_NODE
p2263
(dp2264
g1749
I00
sg85
g741
sg66
g2244
sg1750
I01
sg1751
I01
sg583
I91
sb(dp2265
g1750
I01
sg85
g741
sssg284
g285
sg286
g285
sg287
(dp2266
g2256
(dp2267
g2260
(dp2268
g85
g690
ssg2263
(dp2269
g85
g732
sssg2260
(dp2270
sg2263
(dp2271
ssg481
g2266
sg96
(dp2272
sg483
g285
sg484
g2266
sg485
(dp2273
g2256
(dp2274
sg2260
(dp2275
g2256
g2268
ssg2263
(dp2276
g2256
g2269
sssbsg578
(lp2277
g2256
ag2263
ag2260
asg851
(lp2278
(iconstruction
TP_REL
p2279
(dp2280
g857
g2263
sg85
g732
sg583
I93
sg858
g2256
sg66
VIS_93
p2281
sba(iconstruction
TP_REL
p2282
(dp2283
g857
g2260
sg85
g690
sg583
I94
sg858
g2256
sg66
VEVT_ATTR_94
p2284
sbasg583
I87
sg66
g1670
sbsg1765
(iconstruction
TP_SYNFORM
p2285
(dp2286
g583
I88
sg1768
(lp2287
(iconstruction
TP_SLOT
p2288
(dp2289
g1772
(lp2290
VNP
p2291
aVN
p2292
asg1775
I0
sg583
I95
sg66
g2245
sba(iconstruction
TP_PHON
p2293
(dp2294
g1778
I2
sg1775
I1
sg583
I96
sg1779
Vis
p2295
sg66
VS2_96
p2296
sba(iconstruction
TP_SLOT
p2297
(dp2298
g1772
(lp2299
VA
p2300
asg1775
I2
sg583
I97
sg66
g2247
sbasg66
g1670
sbsg1786
I1
sba(iconstruction
CXN
p2301
(dp2302
g1728
(iconstruction
TP_SYMLINKS
p2303
(dp2304
g1731
(dp2305
VAGT_103
p2306
VS1_106
p2307
sVACT_102
p2308
VS2_107
p2309
ssg583
I100
sg66
g1670
sbsg1737
VS
p2310
sg1739
I2
sg66
VSV
p2311
sg1740
(iconstruction
TP_SEMFRAME
p2312
(dp2313
g96
g0
(g97
g2
Ntp2314
Rp2315
(dp2316
g101
(dp2317
(iconstruction
TP_NODE
p2318
(dp2319
g1749
I01
sg85
g738
sg66
VEVT_101
p2320
sg1750
I01
sg1751
I00
sg583
I101
sb(dp2321
g1750
I01
sg85
g738
ss(iconstruction
TP_NODE
p2322
(dp2323
g1749
I00
sg85
g741
sg66
g2306
sg1750
I01
sg1751
I01
sg583
I103
sb(dp2324
g1750
I01
sg85
g741
ss(iconstruction
TP_NODE
p2325
(dp2326
g1749
I00
sg85
g597
sg66
g2308
sg1750
I01
sg1751
I00
sg583
I102
sb(dp2327
g1750
I01
sg85
g597
sssg284
g285
sg286
g285
sg287
(dp2328
g2318
(dp2329
g2325
(dp2330
g85
g732
sssg2322
(dp2331
sg2325
(dp2332
g2322
(dp2333
g85
g711
ssssg481
g2328
sg96
(dp2334
sg483
g285
sg484
g2328
sg485
(dp2335
g2318
(dp2336
sg2322
(dp2337
g2325
g2333
ssg2325
(dp2338
g2318
g2330
sssbsg578
(lp2339
g2318
ag2325
ag2322
asg851
(lp2340
(iconstruction
TP_REL
p2341
(dp2342
g857
g2325
sg85
g732
sg583
I104
sg858
g2318
sg66
VIS_104
p2343
sba(iconstruction
TP_REL
p2344
(dp2345
g857
g2322
sg85
g711
sg583
I105
sg858
g2325
sg66
VACT_AGT_105
p2346
sbasg583
I98
sg66
g1670
sbsg1765
(iconstruction
TP_SYNFORM
p2347
(dp2348
g583
I99
sg1768
(lp2349
(iconstruction
TP_SLOT
p2350
(dp2351
g1772
(lp2352
VNP
p2353
aVN
p2354
asg1775
I0
sg583
I106
sg66
g2307
sba(iconstruction
TP_SLOT
p2355
(dp2356
g1772
(lp2357
VVP
p2358
aVV
p2359
asg1775
I1
sg583
I107
sg66
g2309
sbasg66
g1670
sbsg1786
I1
sba(iconstruction
CXN
p2360
(dp2361
g1728
(iconstruction
TP_SYMLINKS
p2362
(dp2363
g1731
(dp2364
VPLACE_112
p2365
VS3_116
p2366
sVEVT_111
p2367
VS1_114
p2368
ssg583
I110
sg66
g1670
sbsg1737
VS
p2369
sg1739
I2
sg66
VPP_IN
p2370
sg1740
(iconstruction
TP_SEMFRAME
p2371
(dp2372
g96
g0
(g97
g2
Ntp2373
Rp2374
(dp2375
g101
(dp2376
(iconstruction
TP_NODE
p2377
(dp2378
g1749
I01
sg85
g738
sg66
g2367
sg1750
I01
sg1751
I00
sg583
I111
sb(dp2379
g1750
I01
sg85
g738
ss(iconstruction
TP_NODE
p2380
(dp2381
g1749
I00
sg85
g741
sg66
g2365
sg1750
I01
sg1751
I00
sg583
I112
sb(dp2382
g1750
I01
sg85
g741
sssg284
g285
sg286
g285
sg287
(dp2383
g2377
(dp2384
g2380
(dp2385
g85
g729
sssg2380
(dp2386
ssg481
g2383
sg96
(dp2387
sg483
g285
sg484
g2383
sg485
(dp2388
g2377
(dp2389
sg2380
(dp2390
g2377
g2385
sssbsg578
(lp2391
g2377
ag2380
asg851
(lp2392
(iconstruction
TP_REL
p2393
(dp2394
g857
g2380
sg85
g729
sg583
I113
sg858
g2377
sg66
VEVT_PP_113
p2395
sbasg583
I108
sg66
g1670
sbsg1765
(iconstruction
TP_SYNFORM
p2396
(dp2397
g583
I109
sg1768
(lp2398
(iconstruction
TP_SLOT
p2399
(dp2400
g1772
(lp2401
VS
p2402
asg1775
I0
sg583
I114
sg66
g2368
sba(iconstruction
TP_PHON
p2403
(dp2404
g1778
I2
sg1775
I1
sg583
I115
sg1779
Vin
p2405
sg66
VS2_115
p2406
sba(iconstruction
TP_SLOT
p2407
(dp2408
g1772
(lp2409
VNP
p2410
aVN
p2411
asg1775
I2
sg583
I116
sg66
g2366
sbasg66
g1670
sbsg1786
I1
sba(iconstruction
CXN
p2412
(dp2413
g1728
(iconstruction
TP_SYMLINKS
p2414
(dp2415
g1731
(dp2416
VEVT2_121
p2417
VS2_124
p2418
sVEVT1_120
p2419
VS1_123
p2420
ssg583
I119
sg66
g1670
sbsg1737
VS
p2421
sg1739
I2
sg66
VS_PP
p2422
sg1740
(iconstruction
TP_SEMFRAME
p2423
(dp2424
g96
g0
(g97
g2
Ntp2425
Rp2426
(dp2427
g101
(dp2428
(iconstruction
TP_NODE
p2429
(dp2430
g1749
I00
sg85
g738
sg66
g2417
sg1750
I01
sg1751
I00
sg583
I121
sb(dp2431
g1750
I01
sg85
g738
ss(iconstruction
TP_NODE
p2432
(dp2433
g1749
I01
sg85
g738
sg66
g2419
sg1750
I01
sg1751
I01
sg583
I120
sb(dp2434
g1750
I01
sg85
g738
sssg284
g285
sg286
g285
sg287
(dp2435
g2429
(dp2436
sg2432
(dp2437
g2429
(dp2438
g85
g690
ssssg481
g2435
sg96
(dp2439
sg483
g285
sg484
g2435
sg485
(dp2440
g2429
(dp2441
g2432
g2438
ssg2432
(dp2442
ssbsg578
(lp2443
g2432
ag2429
asg851
(lp2444
(iconstruction
TP_REL
p2445
(dp2446
g857
g2429
sg85
g690
sg583
I122
sg858
g2432
sg66
VMOD_122
p2447
sbasg583
I117
sg66
g1670
sbsg1765
(iconstruction
TP_SYNFORM
p2448
(dp2449
g583
I118
sg1768
(lp2450
(iconstruction
TP_SLOT
p2451
(dp2452
g1772
(lp2453
VS
p2454
asg1775
I0
sg583
I123
sg66
g2420
sba(iconstruction
TP_SLOT
p2455
(dp2456
g1772
(lp2457
VPP
p2458
asg1775
I1
sg583
I124
sg66
g2418
sbasg66
g1670
sbsg1786
I1
sba(iconstruction
CXN
p2459
(dp2460
g1728
(iconstruction
TP_SYMLINKS
p2461
(dp2462
g1731
(dp2463
VENT_128
p2464
VS2_132
p2465
sVATTR_129
p2466
VS1_131
p2467
ssg583
I127
sg66
g1670
sbsg1737
VN
p2468
sg1739
I2
sg66
VADJUNCT_N
p2469
sg1740
(iconstruction
TP_SEMFRAME
p2470
(dp2471
g96
g0
(g97
g2
Ntp2472
Rp2473
(dp2474
g101
(dp2475
(iconstruction
TP_NODE
p2476
(dp2477
g1749
I00
sg85
g642
sg66
g2466
sg1750
I00
sg1751
I00
sg583
I129
sb(dp2478
g1750
I00
sg85
g642
ss(iconstruction
TP_NODE
p2479
(dp2480
g1749
I01
sg85
g741
sg66
g2464
sg1750
I01
sg1751
I00
sg583
I128
sb(dp2481
g1750
I01
sg85
g741
sssg284
g285
sg286
g285
sg287
(dp2482
g2476
(dp2483
sg2479
(dp2484
g2476
(dp2485
g85
g690
ssssg481
g2482
sg96
(dp2486
sg483
g285
sg484
g2482
sg485
(dp2487
g2476
(dp2488
g2479
g2485
ssg2479
(dp2489
ssbsg578
(lp2490
g2479
ag2476
asg851
(lp2491
(iconstruction
TP_REL
p2492
(dp2493
g857
g2476
sg85
g690
sg583
I130
sg858
g2479
sg66
VENT_ATTR_130
p2494
sbasg583
I125
sg66
g1670
sbsg1765
(iconstruction
TP_SYNFORM
p2495
(dp2496
g583
I126
sg1768
(lp2497
(iconstruction
TP_SLOT
p2498
(dp2499
g1772
(lp2500
VA
p2501
asg1775
I0
sg583
I131
sg66
g2467
sba(iconstruction
TP_SLOT
p2502
(dp2503
g1772
(lp2504
VN
p2505
asg1775
I1
sg583
I132
sg66
g2465
sbasg66
g1670
sbsg1786
I1
sba(iconstruction
CXN
p2506
(dp2507
g1728
(iconstruction
TP_SYMLINKS
p2508
(dp2509
g1731
(dp2510
VACT_137
p2511
VS3_146
p2512
sVAGT_138
p2513
VS1_144
p2514
sVPT_139
p2515
VS4_147
p2516
ssg583
I135
sg66
g1670
sbsg1737
VN
p2517
sg1739
I2
sg66
VSUBJ_REL_SVO
p2518
sg1740
(iconstruction
TP_SEMFRAME
p2519
(dp2520
g96
g0
(g97
g2
Ntp2521
Rp2522
(dp2523
g101
(dp2524
(iconstruction
TP_NODE
p2525
(dp2526
g1749
I00
sg85
g603
sg66
g2511
sg1750
I01
sg1751
I01
sg583
I137
sb(dp2527
g1750
I01
sg85
g603
ss(iconstruction
TP_NODE
p2528
(dp2529
g1749
I01
sg85
g741
sg66
g2513
sg1750
I01
sg1751
I00
sg583
I138
sb(dp2530
g1750
I01
sg85
g741
ss(iconstruction
TP_NODE
p2531
(dp2532
g1749
I00
sg85
g738
sg66
VEVT_136
p2533
sg1750
I01
sg1751
I00
sg583
I136
sb(dp2534
g1750
I01
sg85
g738
ss(iconstruction
TP_NODE
p2535
(dp2536
g1749
I00
sg85
g741
sg66
g2515
sg1750
I01
sg1751
I00
sg583
I139
sb(dp2537
g1750
I01
sg85
g741
sssg284
g285
sg286
g285
sg287
(dp2538
g2525
(dp2539
g2535
(dp2540
g85
g705
ssg2528
(dp2541
g85
g711
sssg2528
(dp2542
g2531
(dp2543
g85
g690
sssg2531
(dp2544
g2525
(dp2545
g85
g732
sssg2535
(dp2546
ssg481
g2538
sg96
(dp2547
sg483
g285
sg484
g2538
sg485
(dp2548
g2525
(dp2549
g2531
g2545
ssg2528
(dp2550
g2525
g2541
ssg2531
(dp2551
g2528
g2543
ssg2535
(dp2552
g2525
g2540
sssbsg578
(lp2553
g2531
ag2525
ag2528
ag2535
asg851
(lp2554
(iconstruction
TP_REL
p2555
(dp2556
g857
g2525
sg85
g732
sg583
I140
sg858
g2531
sg66
VIS_140
p2557
sba(iconstruction
TP_REL
p2558
(dp2559
g857
g2528
sg85
g711
sg583
I141
sg858
g2525
sg66
VACT_AGT_141
p2560
sba(iconstruction
TP_REL
p2561
(dp2562
g857
g2535
sg85
g705
sg583
I142
sg858
g2525
sg66
VACT_PT_142
p2563
sba(iconstruction
TP_REL
p2564
(dp2565
g857
g2531
sg85
g690
sg583
I143
sg858
g2528
sg66
VAGT_EVT_143
p2566
sbasg583
I133
sg66
g1670
sbsg1765
(iconstruction
TP_SYNFORM
p2567
(dp2568
g583
I134
sg1768
(lp2569
(iconstruction
TP_SLOT
p2570
(dp2571
g1772
(lp2572
VN
p2573
asg1775
I0
sg583
I144
sg66
g2514
sba(iconstruction
TP_PHON
p2574
(dp2575
g1778
I4
sg1775
I1
sg583
I145
sg1779
Vthat
p2576
sg66
VS2_145
p2577
sba(iconstruction
TP_SLOT
p2578
(dp2579
g1772
(lp2580
VVP
p2581
aVV
p2582
asg1775
I2
sg583
I146
sg66
g2512
sba(iconstruction
TP_SLOT
p2583
(dp2584
g1772
(lp2585
VNP
p2586
aVN
p2587
asg1775
I3
sg583
I147
sg66
g2516
sbasg66
g1670
sbsg1786
I1
sba(iconstruction
CXN
p2588
(dp2589
g1728
(iconstruction
TP_SYMLINKS
p2590
(dp2591
g1731
(dp2592
VACT_152
p2593
VS3_159
p2594
sVAGT_153
p2595
VS1_157
p2596
ssg583
I150
sg66
g1670
sbsg1737
VN
p2597
sg1739
I2
sg66
VSUBJ_REL_SV
p2598
sg1740
(iconstruction
TP_SEMFRAME
p2599
(dp2600
g96
g0
(g97
g2
Ntp2601
Rp2602
(dp2603
g101
(dp2604
(iconstruction
TP_NODE
p2605
(dp2606
g1749
I00
sg85
g585
sg66
g2593
sg1750
I01
sg1751
I01
sg583
I152
sb(dp2607
g1750
I01
sg85
g585
ss(iconstruction
TP_NODE
p2608
(dp2609
g1749
I01
sg85
g741
sg66
g2595
sg1750
I01
sg1751
I00
sg583
I153
sb(dp2610
g1750
I01
sg85
g741
ss(iconstruction
TP_NODE
p2611
(dp2612
g1749
I00
sg85
g738
sg66
VEVT_151
p2613
sg1750
I01
sg1751
I00
sg583
I151
sb(dp2614
g1750
I01
sg85
g738
sssg284
g285
sg286
g285
sg287
(dp2615
g2605
(dp2616
g2608
(dp2617
g85
g711
sssg2608
(dp2618
g2611
(dp2619
g85
g690
sssg2611
(dp2620
g2605
(dp2621
g85
g732
ssssg481
g2615
sg96
(dp2622
sg483
g285
sg484
g2615
sg485
(dp2623
g2605
(dp2624
g2611
g2621
ssg2608
(dp2625
g2605
g2617
ssg2611
(dp2626
g2608
g2619
sssbsg578
(lp2627
g2611
ag2605
ag2608
asg851
(lp2628
(iconstruction
TP_REL
p2629
(dp2630
g857
g2605
sg85
g732
sg583
I154
sg858
g2611
sg66
VIS_154
p2631
sba(iconstruction
TP_REL
p2632
(dp2633
g857
g2608
sg85
g711
sg583
I155
sg858
g2605
sg66
VACT_AGT_155
p2634
sba(iconstruction
TP_REL
p2635
(dp2636
g857
g2611
sg85
g690
sg583
I156
sg858
g2608
sg66
VAGT_EVT_156
p2637
sbasg583
I148
sg66
g1670
sbsg1765
(iconstruction
TP_SYNFORM
p2638
(dp2639
g583
I149
sg1768
(lp2640
(iconstruction
TP_SLOT
p2641
(dp2642
g1772
(lp2643
VN
p2644
asg1775
I0
sg583
I157
sg66
g2596
sba(iconstruction
TP_PHON
p2645
(dp2646
g1778
I4
sg1775
I1
sg583
I158
sg1779
Vthat
p2647
sg66
VS2_158
p2648
sba(iconstruction
TP_SLOT
p2649
(dp2650
g1772
(lp2651
VVP
p2652
aVV
p2653
asg1775
I2
sg583
I159
sg66
g2594
sbasg66
g1670
sbsg1786
I1
sba(iconstruction
CXN
p2654
(dp2655
g1728
(iconstruction
TP_SYMLINKS
p2656
(dp2657
g1731
(dp2658
VACT_164
p2659
VS4_174
p2660
sVPT_166
p2661
VS1_171
p2662
sVAGT_165
p2663
VS7_177
p2664
ssg583
I162
sg66
g1670
sbsg1737
VN
p2665
sg1739
I2
sg66
VSUBJ_REL_PAS_SVO
p2666
sg1740
(iconstruction
TP_SEMFRAME
p2667
(dp2668
g96
g0
(g97
g2
Ntp2669
Rp2670
(dp2671
g101
(dp2672
(iconstruction
TP_NODE
p2673
(dp2674
g1749
I00
sg85
g585
sg66
g2659
sg1750
I01
sg1751
I01
sg583
I164
sb(dp2675
g1750
I01
sg85
g585
ss(iconstruction
TP_NODE
p2676
(dp2677
g1749
I00
sg85
g741
sg66
g2663
sg1750
I01
sg1751
I00
sg583
I165
sb(dp2678
g1750
I01
sg85
g741
ss(iconstruction
TP_NODE
p2679
(dp2680
g1749
I01
sg85
g741
sg66
g2661
sg1750
I01
sg1751
I00
sg583
I166
sb(dp2681
g1750
I01
sg85
g741
ss(iconstruction
TP_NODE
p2682
(dp2683
g1749
I00
sg85
g738
sg66
VEVT_163
p2684
sg1750
I01
sg1751
I00
sg583
I163
sb(dp2685
g1750
I01
sg85
g738
sssg284
g285
sg286
g285
sg287
(dp2686
g2673
(dp2687
g2679
(dp2688
g85
g705
ssg2676
(dp2689
g85
g711
sssg2676
(dp2690
sg2679
(dp2691
g2682
(dp2692
g85
g690
sssg2682
(dp2693
g2673
(dp2694
g85
g732
ssssg481
g2686
sg96
(dp2695
sg483
g285
sg484
g2686
sg485
(dp2696
g2673
(dp2697
g2682
g2694
ssg2676
(dp2698
g2673
g2689
ssg2679
(dp2699
g2673
g2688
ssg2682
(dp2700
g2679
g2692
sssbsg578
(lp2701
g2682
ag2673
ag2676
ag2679
asg851
(lp2702
(iconstruction
TP_REL
p2703
(dp2704
g857
g2673
sg85
g732
sg583
I167
sg858
g2682
sg66
VIS_167
p2705
sba(iconstruction
TP_REL
p2706
(dp2707
g857
g2676
sg85
g711
sg583
I168
sg858
g2673
sg66
VACT_AGT_168
p2708
sba(iconstruction
TP_REL
p2709
(dp2710
g857
g2679
sg85
g705
sg583
I169
sg858
g2673
sg66
VACT_PT_169
p2711
sba(iconstruction
TP_REL
p2712
(dp2713
g857
g2682
sg85
g690
sg583
I170
sg858
g2679
sg66
VPT_EVT_170
p2714
sbasg583
I160
sg66
g1670
sbsg1765
(iconstruction
TP_SYNFORM
p2715
(dp2716
g583
I161
sg1768
(lp2717
(iconstruction
TP_SLOT
p2718
(dp2719
g1772
(lp2720
VN
p2721
asg1775
I0
sg583
I171
sg66
g2662
sba(iconstruction
TP_PHON
p2722
(dp2723
g1778
I4
sg1775
I1
sg583
I172
sg1779
Vthat
p2724
sg66
VS2_172
p2725
sba(iconstruction
TP_PHON
p2726
(dp2727
g1778
I2
sg1775
I2
sg583
I173
sg1779
Vis
p2728
sg66
VS3_173
p2729
sba(iconstruction
TP_SLOT
p2730
(dp2731
g1772
(lp2732
VVP
p2733
aVV
p2734
asg1775
I3
sg583
I174
sg66
g2660
sba(iconstruction
TP_PHON
p2735
(dp2736
g1778
I2
sg1775
I4
sg583
I175
sg1779
V-ed
p2737
sg66
VS5_175
p2738
sba(iconstruction
TP_PHON
p2739
(dp2740
g1778
I2
sg1775
I5
sg583
I176
sg1779
Vby
p2741
sg66
VS6_176
p2742
sba(iconstruction
TP_SLOT
p2743
(dp2744
g1772
(lp2745
VNP
p2746
aVN
p2747
asg1775
I6
sg583
I177
sg66
g2664
sbasg66
g1670
sbsg1786
I1
sba(iconstruction
CXN
p2748
(dp2749
g1728
(iconstruction
TP_SYMLINKS
p2750
(dp2751
g1731
(dp2752
VAGT_183
p2753
VS3_191
p2754
sVPT_184
p2755
VS1_189
p2756
sVACT_182
p2757
VS4_192
p2758
ssg583
I180
sg66
g1670
sbsg1737
VN
p2759
sg1739
I2
sg66
VOBJ_REL_SVO
p2760
sg1740
(iconstruction
TP_SEMFRAME
p2761
(dp2762
g96
g0
(g97
g2
Ntp2763
Rp2764
(dp2765
g101
(dp2766
(iconstruction
TP_NODE
p2767
(dp2768
g1749
I00
sg85
g585
sg66
g2757
sg1750
I01
sg1751
I01
sg583
I182
sb(dp2769
g1750
I01
sg85
g585
ss(iconstruction
TP_NODE
p2770
(dp2771
g1749
I00
sg85
g741
sg66
g2753
sg1750
I01
sg1751
I00
sg583
I183
sb(dp2772
g1750
I01
sg85
g741
ss(iconstruction
TP_NODE
p2773
(dp2774
g1749
I00
sg85
g738
sg66
VEVT_181
p2775
sg1750
I01
sg1751
I00
sg583
I181
sb(dp2776
g1750
I01
sg85
g738
ss(iconstruction
TP_NODE
p2777
(dp2778
g1749
I01
sg85
g741
sg66
g2755
sg1750
I01
sg1751
I00
sg583
I184
sb(dp2779
g1750
I01
sg85
g741
sssg284
g285
sg286
g285
sg287
(dp2780
g2767
(dp2781
g2777
(dp2782
g85
g705
ssg2770
(dp2783
g85
g711
sssg2770
(dp2784
sg2773
(dp2785
g2767
(dp2786
g85
g732
sssg2777
(dp2787
g2773
(dp2788
g85
g690
ssssg481
g2780
sg96
(dp2789
sg483
g285
sg484
g2780
sg485
(dp2790
g2767
(dp2791
g2773
g2786
ssg2770
(dp2792
g2767
g2783
ssg2773
(dp2793
g2777
g2788
ssg2777
(dp2794
g2767
g2782
sssbsg578
(lp2795
g2773
ag2767
ag2770
ag2777
asg851
(lp2796
(iconstruction
TP_REL
p2797
(dp2798
g857
g2767
sg85
g732
sg583
I185
sg858
g2773
sg66
VIS_185
p2799
sba(iconstruction
TP_REL
p2800
(dp2801
g857
g2770
sg85
g711
sg583
I186
sg858
g2767
sg66
VACT_AGT_186
p2802
sba(iconstruction
TP_REL
p2803
(dp2804
g857
g2777
sg85
g705
sg583
I187
sg858
g2767
sg66
VACT_PT_187
p2805
sba(iconstruction
TP_REL
p2806
(dp2807
g857
g2773
sg85
g690
sg583
I188
sg858
g2777
sg66
VPT_EVT_188
p2808
sbasg583
I178
sg66
g1670
sbsg1765
(iconstruction
TP_SYNFORM
p2809
(dp2810
g583
I179
sg1768
(lp2811
(iconstruction
TP_SLOT
p2812
(dp2813
g1772
(lp2814
VN
p2815
asg1775
I0
sg583
I189
sg66
g2756
sba(iconstruction
TP_PHON
p2816
(dp2817
g1778
I4
sg1775
I1
sg583
I190
sg1779
Vthat
p2818
sg66
VS2_190
p2819
sba(iconstruction
TP_SLOT
p2820
(dp2821
g1772
(lp2822
VNP
p2823
aVN
p2824
asg1775
I2
sg583
I191
sg66
g2754
sba(iconstruction
TP_SLOT
p2825
(dp2826
g1772
(lp2827
VVP
p2828
aVV
p2829
asg1775
I3
sg583
I192
sg66
g2758
sbasg66
g1670
sbsg1786
I1
sba(iconstruction
CXN
p2830
(dp2831
g1728
(iconstruction
TP_SYMLINKS
p2832
(dp2833
g1731
(dp2834
VAGT_198
p2835
VS1_204
p2836
sVACT_197
p2837
VS5_208
p2838
sVPT_199
p2839
VS3_206
p2840
ssg583
I195
sg66
g1670
sbsg1737
VN
p2841
sg1739
I2
sg66
VOBJ_REL_PAS_SVO
p2842
sg1740
(iconstruction
TP_SEMFRAME
p2843
(dp2844
g96
g0
(g97
g2
Ntp2845
Rp2846
(dp2847
g101
(dp2848
(iconstruction
TP_NODE
p2849
(dp2850
g1749
I00
sg85
g585
sg66
g2837
sg1750
I01
sg1751
I01
sg583
I197
sb(dp2851
g1750
I01
sg85
g585
ss(iconstruction
TP_NODE
p2852
(dp2853
g1749
I01
sg85
g741
sg66
g2835
sg1750
I01
sg1751
I00
sg583
I198
sb(dp2854
g1750
I01
sg85
g741
ss(iconstruction
TP_NODE
p2855
(dp2856
g1749
I00
sg85
g738
sg66
VEVT_196
p2857
sg1750
I01
sg1751
I00
sg583
I196
sb(dp2858
g1750
I01
sg85
g738
ss(iconstruction
TP_NODE
p2859
(dp2860
g1749
I00
sg85
g741
sg66
g2839
sg1750
I01
sg1751
I00
sg583
I199
sb(dp2861
g1750
I01
sg85
g741
sssg284
g285
sg286
g285
sg287
(dp2862
g2849
(dp2863
g2859
(dp2864
g85
g705
ssg2852
(dp2865
g85
g711
sssg2852
(dp2866
g2855
(dp2867
g85
g690
sssg2855
(dp2868
g2849
(dp2869
g85
g732
sssg2859
(dp2870
ssg481
g2862
sg96
(dp2871
sg483
g285
sg484
g2862
sg485
(dp2872
g2849
(dp2873
g2855
g2869
ssg2852
(dp2874
g2849
g2865
ssg2855
(dp2875
g2852
g2867
ssg2859
(dp2876
g2849
g2864
sssbsg578
(lp2877
g2855
ag2849
ag2852
ag2859
asg851
(lp2878
(iconstruction
TP_REL
p2879
(dp2880
g857
g2849
sg85
g732
sg583
I200
sg858
g2855
sg66
VIS_200
p2881
sba(iconstruction
TP_REL
p2882
(dp2883
g857
g2852
sg85
g711
sg583
I201
sg858
g2849
sg66
VACT_AGT_201
p2884
sba(iconstruction
TP_REL
p2885
(dp2886
g857
g2859
sg85
g705
sg583
I202
sg858
g2849
sg66
VACT_PT_202
p2887
sba(iconstruction
TP_REL
p2888
(dp2889
g857
g2855
sg85
g690
sg583
I203
sg858
g2852
sg66
VAGT_EVT_203
p2890
sbasg583
I193
sg66
g1670
sbsg1765
(iconstruction
TP_SYNFORM
p2891
(dp2892
g583
I194
sg1768
(lp2893
(iconstruction
TP_SLOT
p2894
(dp2895
g1772
(lp2896
VN
p2897
asg1775
I0
sg583
I204
sg66
g2836
sba(iconstruction
TP_PHON
p2898
(dp2899
g1778
I4
sg1775
I1
sg583
I205
sg1779
Vthat
p2900
sg66
VS2_205
p2901
sba(iconstruction
TP_SLOT
p2902
(dp2903
g1772
(lp2904
VNP
p2905
aVN
p2906
asg1775
I2
sg583
I206
sg66
g2840
sba(iconstruction
TP_PHON
p2907
(dp2908
g1778
I2
sg1775
I3
sg583
I207
sg1779
Vis
p2909
sg66
VS4_207
p2910
sba(iconstruction
TP_SLOT
p2911
(dp2912
g1772
(lp2913
VVP
p2914
aVV
p2915
asg1775
I4
sg583
I208
sg66
g2838
sba(iconstruction
TP_PHON
p2916
(dp2917
g1778
I2
sg1775
I5
sg583
I209
sg1779
V-ed
p2918
sg66
VS6_209
p2919
sba(iconstruction
TP_PHON
p2920
(dp2921
g1778
I2
sg1775
I6
sg583
I210
sg1779
Vby
p2922
sg66
VS7_210
p2923
sbasg66
g1670
sbsg1786
I1
sba(iconstruction
CXN
p2924
(dp2925
g1728
(iconstruction
TP_SYMLINKS
p2926
(dp2927
g1731
(dp2928
VENT_215
p2929
VS1_219
p2930
sVATTR_216
p2931
VS4_222
p2932
ssg583
I213
sg66
g1670
sbsg1737
VN
p2933
sg1739
I2
sg66
VREL_SPA
p2934
sg1740
(iconstruction
TP_SEMFRAME
p2935
(dp2936
g96
g0
(g97
g2
Ntp2937
Rp2938
(dp2939
g101
(dp2940
(iconstruction
TP_NODE
p2941
(dp2942
g1749
I01
sg85
g741
sg66
g2929
sg1750
I01
sg1751
I01
sg583
I215
sb(dp2943
g1750
I01
sg85
g741
ss(iconstruction
TP_NODE
p2944
(dp2945
g1749
I00
sg85
g642
sg66
g2931
sg1750
I00
sg1751
I00
sg583
I216
sb(dp2946
g1750
I00
sg85
g642
ss(iconstruction
TP_NODE
p2947
(dp2948
g1749
I00
sg85
g738
sg66
VEVT_214
p2949
sg1750
I01
sg1751
I00
sg583
I214
sb(dp2950
g1750
I01
sg85
g738
sssg284
g285
sg286
g285
sg287
(dp2951
g2941
(dp2952
sg2944
(dp2953
sg2947
(dp2954
g2941
(dp2955
g85
g732
ssg2944
(dp2956
g85
g690
ssssg481
g2951
sg96
(dp2957
sg483
g285
sg484
g2951
sg485
(dp2958
g2941
(dp2959
g2947
g2955
ssg2944
(dp2960
g2947
g2956
ssg2947
(dp2961
ssbsg578
(lp2962
g2947
ag2941
ag2944
asg851
(lp2963
(iconstruction
TP_REL
p2964
(dp2965
g857
g2941
sg85
g732
sg583
I217
sg858
g2947
sg66
VIS_217
p2966
sba(iconstruction
TP_REL
p2967
(dp2968
g857
g2944
sg85
g690
sg583
I218
sg858
g2947
sg66
VEVT_ATTR_218
p2969
sbasg583
I211
sg66
g1670
sbsg1765
(iconstruction
TP_SYNFORM
p2970
(dp2971
g583
I212
sg1768
(lp2972
(iconstruction
TP_SLOT
p2973
(dp2974
g1772
(lp2975
VN
p2976
asg1775
I0
sg583
I219
sg66
g2930
sba(iconstruction
TP_PHON
p2977
(dp2978
g1778
I4
sg1775
I1
sg583
I220
sg1779
Vthat
p2979
sg66
VS2_220
p2980
sba(iconstruction
TP_PHON
p2981
(dp2982
g1778
I2
sg1775
I2
sg583
I221
sg1779
Vis
p2983
sg66
VS3_221
p2984
sba(iconstruction
TP_SLOT
p2985
(dp2986
g1772
(lp2987
VA
p2988
asg1775
I3
sg583
I222
sg66
g2932
sbasg66
g1670
sbsg1786
I1
sba(iconstruction
CXN
p2989
(dp2990
g1728
(iconstruction
TP_SYMLINKS
p2991
(dp2992
g1731
(dp2993
VAGT_228
p2994
VS1_235
p2995
sVCOLOR_230
p2996
VS3_237
p2997
ssg583
I225
sg66
g1670
sbsg1737
VN
p2998
sg1739
I2
sg66
VIN_COLOR
p2999
sg1740
(iconstruction
TP_SEMFRAME
p3000
(dp3001
g96
g0
(g97
g2
Ntp3002
Rp3003
(dp3004
g101
(dp3005
(iconstruction
TP_NODE
p3006
(dp3007
g1749
I00
sg85
g630
sg66
VACT_227
p3008
sg1750
I01
sg1751
I00
sg583
I227
sb(dp3009
g1750
I01
sg85
g630
ss(iconstruction
TP_NODE
p3010
(dp3011
g1749
I01
sg85
g750
sg66
g2994
sg1750
I01
sg1751
I00
sg583
I228
sb(dp3012
g1750
I01
sg85
g750
ss(iconstruction
TP_NODE
p3013
(dp3014
g1749
I00
sg85
g738
sg66
VEVT_226
p3015
sg1750
I01
sg1751
I00
sg583
I226
sb(dp3016
g1750
I01
sg85
g738
ss(iconstruction
TP_NODE
p3017
(dp3018
g1749
I00
sg85
g645
sg66
g2996
sg1750
I00
sg1751
I01
sg583
I230
sb(dp3019
g1750
I00
sg85
g645
ss(iconstruction
TP_NODE
p3020
(dp3021
g1749
I00
sg85
g780
sg66
VPT_229
p3022
sg1750
I01
sg1751
I00
sg583
I229
sb(dp3023
g1750
I01
sg85
g780
sssg284
g285
sg286
g285
sg287
(dp3024
g3006
(dp3025
g3020
(dp3026
g85
g705
ssg3010
(dp3027
g85
g711
sssg3010
(dp3028
sg3013
(dp3029
g3006
(dp3030
g85
g732
sssg3017
(dp3031
sg3020
(dp3032
g3017
(dp3033
g85
g690
ssssg481
g3024
sg96
(dp3034
sg483
g285
sg484
g3024
sg485
(dp3035
g3006
(dp3036
g3013
g3030
ssg3010
(dp3037
g3006
g3027
ssg3013
(dp3038
sg3017
(dp3039
g3020
g3033
ssg3020
(dp3040
g3006
g3026
sssbsg578
(lp3041
g3013
ag3006
ag3010
ag3020
ag3017
asg851
(lp3042
(iconstruction
TP_REL
p3043
(dp3044
g857
g3006
sg85
g732
sg583
I231
sg858
g3013
sg66
VIS_231
p3045
sba(iconstruction
TP_REL
p3046
(dp3047
g857
g3010
sg85
g711
sg583
I232
sg858
g3006
sg66
VACT_AGT_232
p3048
sba(iconstruction
TP_REL
p3049
(dp3050
g857
g3020
sg85
g705
sg583
I233
sg858
g3006
sg66
VACT_PT_233
p3051
sba(iconstruction
TP_REL
p3052
(dp3053
g857
g3017
sg85
g690
sg583
I234
sg858
g3020
sg66
VPT_COLOR_234
p3054
sbasg583
I223
sg66
g1670
sbsg1765
(iconstruction
TP_SYNFORM
p3055
(dp3056
g583
I224
sg1768
(lp3057
(iconstruction
TP_SLOT
p3058
(dp3059
g1772
(lp3060
VN
p3061
asg1775
I0
sg583
I235
sg66
g2995
sba(iconstruction
TP_PHON
p3062
(dp3063
g1778
I2
sg1775
I1
sg583
I236
sg1779
Vin
p3064
sg66
VS2_236
p3065
sba(iconstruction
TP_SLOT
p3066
(dp3067
g1772
(lp3068
VA
p3069
asg1775
I2
sg583
I237
sg66
g2997
sbasg66
g1670
sbsg1786
I1
sba(iconstruction
CXN
p3070
(dp3071
g1728
(iconstruction
TP_SYMLINKS
p3072
(dp3073
g1731
(dp3074
VN1_242
p3075
VS1_244
p3076
ssg583
I240
sg66
g1670
sbsg1737
VV
p3077
sg1739
I1
sg66
VHIT
p3078
sg1740
(iconstruction
TP_SEMFRAME
p3079
(dp3080
g96
g0
(g97
g2
Ntp3081
Rp3082
(dp3083
g101
(dp3084
(iconstruction
TP_NODE
p3085
(dp3086
g1749
I00
sg85
g606
sg66
g3075
sg1750
I00
sg1751
I00
sg583
I242
sb(dp3087
g1750
I00
sg85
g606
ss(iconstruction
TP_NODE
p3088
(dp3089
g1749
I01
sg85
g585
sg66
VACT_241
p3090
sg1750
I01
sg1751
I00
sg583
I241
sb(dp3091
g1750
I01
sg85
g585
sssg284
g285
sg286
g285
sg287
(dp3092
g3085
(dp3093
sg3088
(dp3094
g3085
(dp3095
g85
g732
ssssg481
g3092
sg96
(dp3096
sg483
g285
sg484
g3092
sg485
(dp3097
g3085
(dp3098
g3088
g3095
ssg3088
(dp3099
ssbsg578
(lp3100
g3088
ag3085
asg851
(lp3101
(iconstruction
TP_REL
p3102
(dp3103
g857
g3085
sg85
g732
sg583
I243
sg858
g3088
sg66
VIS_243
p3104
sbasg583
I238
sg66
g1670
sbsg1765
(iconstruction
TP_SYNFORM
p3105
(dp3106
g583
I239
sg1768
(lp3107
(iconstruction
TP_PHON
p3108
(dp3109
g1778
I3
sg1775
I0
sg583
I244
sg1779
Vhit
p3110
sg66
g3076
sbasg66
g1670
sbsg1786
I1
sba(iconstruction
CXN
p3111
(dp3112
g1728
(iconstruction
TP_SYMLINKS
p3113
(dp3114
g1731
(dp3115
VN1_249
p3116
VS1_251
p3117
ssg583
I247
sg66
g1670
sbsg1737
VV
p3118
sg1739
I1
sg66
VKICK
p3119
sg1740
(iconstruction
TP_SEMFRAME
p3120
(dp3121
g96
g0
(g97
g2
Ntp3122
Rp3123
(dp3124
g101
(dp3125
(iconstruction
TP_NODE
p3126
(dp3127
g1749
I01
sg85
g585
sg66
VACT_248
p3128
sg1750
I01
sg1751
I00
sg583
I248
sb(dp3129
g1750
I01
sg85
g585
ss(iconstruction
TP_NODE
p3130
(dp3131
g1749
I00
sg85
g627
sg66
g3116
sg1750
I00
sg1751
I00
sg583
I249
sb(dp3132
g1750
I00
sg85
g627
sssg284
g285
sg286
g285
sg287
(dp3133
g3126
(dp3134
g3130
(dp3135
g85
g732
sssg3130
(dp3136
ssg481
g3133
sg96
(dp3137
sg483
g285
sg484
g3133
sg485
(dp3138
g3126
(dp3139
sg3130
(dp3140
g3126
g3135
sssbsg578
(lp3141
g3126
ag3130
asg851
(lp3142
(iconstruction
TP_REL
p3143
(dp3144
g857
g3130
sg85
g732
sg583
I250
sg858
g3126
sg66
VIS_250
p3145
sbasg583
I245
sg66
g1670
sbsg1765
(iconstruction
TP_SYNFORM
p3146
(dp3147
g583
I246
sg1768
(lp3148
(iconstruction
TP_PHON
p3149
(dp3150
g1778
I4
sg1775
I0
sg583
I251
sg1779
Vkick
p3151
sg66
g3117
sbasg66
g1670
sbsg1786
I1
sba(iconstruction
CXN
p3152
(dp3153
g1728
(iconstruction
TP_SYMLINKS
p3154
(dp3155
g1731
(dp3156
VN1_256
p3157
VS1_258
p3158
ssg583
I254
sg66
g1670
sbsg1737
VV
p3159
sg1739
I1
sg66
VPUNCH
p3160
sg1740
(iconstruction
TP_SEMFRAME
p3161
(dp3162
g96
g0
(g97
g2
Ntp3163
Rp3164
(dp3165
g101
(dp3166
(iconstruction
TP_NODE
p3167
(dp3168
g1749
I00
sg85
g612
sg66
g3157
sg1750
I00
sg1751
I00
sg583
I256
sb(dp3169
g1750
I00
sg85
g612
ss(iconstruction
TP_NODE
p3170
(dp3171
g1749
I01
sg85
g585
sg66
VACT_255
p3172
sg1750
I01
sg1751
I00
sg583
I255
sb(dp3173
g1750
I01
sg85
g585
sssg284
g285
sg286
g285
sg287
(dp3174
g3167
(dp3175
sg3170
(dp3176
g3167
(dp3177
g85
g732
ssssg481
g3174
sg96
(dp3178
sg483
g285
sg484
g3174
sg485
(dp3179
g3167
(dp3180
g3170
g3177
ssg3170
(dp3181
ssbsg578
(lp3182
g3170
ag3167
asg851
(lp3183
(iconstruction
TP_REL
p3184
(dp3185
g857
g3167
sg85
g732
sg583
I257
sg858
g3170
sg66
VIS_257
p3186
sbasg583
I252
sg66
g1670
sbsg1765
(iconstruction
TP_SYNFORM
p3187
(dp3188
g583
I253
sg1768
(lp3189
(iconstruction
TP_PHON
p3190
(dp3191
g1778
I5
sg1775
I0
sg583
I258
sg1779
Vpunch
p3192
sg66
g3158
sbasg66
g1670
sbsg1786
I1
sba(iconstruction
CXN
p3193
(dp3194
g1728
(iconstruction
TP_SYMLINKS
p3195
(dp3196
g1731
(dp3197
VN1_263
p3198
VS1_265
p3199
ssg583
I261
sg66
g1670
sbsg1737
VV
p3200
sg1739
I1
sg66
VWEAR
p3201
sg1740
(iconstruction
TP_SEMFRAME
p3202
(dp3203
g96
g0
(g97
g2
Ntp3204
Rp3205
(dp3206
g101
(dp3207
(iconstruction
TP_NODE
p3208
(dp3209
g1749
I01
sg85
g585
sg66
VACT_262
p3210
sg1750
I01
sg1751
I00
sg583
I262
sb(dp3211
g1750
I01
sg85
g585
ss(iconstruction
TP_NODE
p3212
(dp3213
g1749
I00
sg85
g630
sg66
g3198
sg1750
I00
sg1751
I00
sg583
I263
sb(dp3214
g1750
I00
sg85
g630
sssg284
g285
sg286
g285
sg287
(dp3215
g3208
(dp3216
g3212
(dp3217
g85
g732
sssg3212
(dp3218
ssg481
g3215
sg96
(dp3219
sg483
g285
sg484
g3215
sg485
(dp3220
g3208
(dp3221
sg3212
(dp3222
g3208
g3217
sssbsg578
(lp3223
g3208
ag3212
asg851
(lp3224
(iconstruction
TP_REL
p3225
(dp3226
g857
g3212
sg85
g732
sg583
I264
sg858
g3208
sg66
VIS_264
p3227
sbasg583
I259
sg66
g1670
sbsg1765
(iconstruction
TP_SYNFORM
p3228
(dp3229
g583
I260
sg1768
(lp3230
(iconstruction
TP_PHON
p3231
(dp3232
g1778
I4
sg1775
I0
sg583
I265
sg1779
Vwear
p3233
sg66
g3199
sbasg66
g1670
sbsg1786
I1
sba(iconstruction
CXN
p3234
(dp3235
g1728
(iconstruction
TP_SYMLINKS
p3236
(dp3237
g1731
(dp3238
VN1_270
p3239
VS1_272
p3240
ssg583
I268
sg66
g1670
sbsg1737
VV
p3241
sg1739
I1
sg66
VLAUGH
p3242
sg1740
(iconstruction
TP_SEMFRAME
p3243
(dp3244
g96
g0
(g97
g2
Ntp3245
Rp3246
(dp3247
g101
(dp3248
(iconstruction
TP_NODE
p3249
(dp3250
g1749
I00
sg85
g600
sg66
g3239
sg1750
I00
sg1751
I00
sg583
I270
sb(dp3251
g1750
I00
sg85
g600
ss(iconstruction
TP_NODE
p3252
(dp3253
g1749
I01
sg85
g585
sg66
VACT_269
p3254
sg1750
I01
sg1751
I00
sg583
I269
sb(dp3255
g1750
I01
sg85
g585
sssg284
g285
sg286
g285
sg287
(dp3256
g3249
(dp3257
sg3252
(dp3258
g3249
(dp3259
g85
g732
ssssg481
g3256
sg96
(dp3260
sg483
g285
sg484
g3256
sg485
(dp3261
g3249
(dp3262
g3252
g3259
ssg3252
(dp3263
ssbsg578
(lp3264
g3252
ag3249
asg851
(lp3265
(iconstruction
TP_REL
p3266
(dp3267
g857
g3249
sg85
g732
sg583
I271
sg858
g3252
sg66
VIS_271
p3268
sbasg583
I266
sg66
g1670
sbsg1765
(iconstruction
TP_SYNFORM
p3269
(dp3270
g583
I267
sg1768
(lp3271
(iconstruction
TP_PHON
p3272
(dp3273
g1778
I5
sg1775
I0
sg583
I272
sg1779
Vlaugh
p3274
sg66
g3240
sbasg66
g1670
sbsg1786
I1
sba(iconstruction
CXN
p3275
(dp3276
g1728
(iconstruction
TP_SYMLINKS
p3277
(dp3278
g1731
(dp3279
VN1_277
p3280
VS1_279
p3281
ssg583
I275
sg66
g1670
sbsg1737
VV
p3282
sg1739
I1
sg66
VWATCH
p3283
sg1740
(iconstruction
TP_SEMFRAME
p3284
(dp3285
g96
g0
(g97
g2
Ntp3286
Rp3287
(dp3288
g101
(dp3289
(iconstruction
TP_NODE
p3290
(dp3291
g1749
I01
sg85
g585
sg66
VACT_276
p3292
sg1750
I01
sg1751
I00
sg583
I276
sb(dp3293
g1750
I01
sg85
g585
ss(iconstruction
TP_NODE
p3294
(dp3295
g1749
I00
sg85
g609
sg66
g3280
sg1750
I00
sg1751
I00
sg583
I277
sb(dp3296
g1750
I00
sg85
g609
sssg284
g285
sg286
g285
sg287
(dp3297
g3290
(dp3298
g3294
(dp3299
g85
g732
sssg3294
(dp3300
ssg481
g3297
sg96
(dp3301
sg483
g285
sg484
g3297
sg485
(dp3302
g3290
(dp3303
sg3294
(dp3304
g3290
g3299
sssbsg578
(lp3305
g3290
ag3294
asg851
(lp3306
(iconstruction
TP_REL
p3307
(dp3308
g857
g3294
sg85
g732
sg583
I278
sg858
g3290
sg66
VIS_278
p3309
sbasg583
I273
sg66
g1670
sbsg1765
(iconstruction
TP_SYNFORM
p3310
(dp3311
g583
I274
sg1768
(lp3312
(iconstruction
TP_PHON
p3313
(dp3314
g1778
I5
sg1775
I0
sg583
I279
sg1779
Vwatch
p3315
sg66
g3281
sbasg66
g1670
sbsg1786
I1
sba(iconstruction
CXN
p3316
(dp3317
g1728
(iconstruction
TP_SYMLINKS
p3318
(dp3319
g1731
(dp3320
VN1_284
p3321
VS1_286
p3322
ssg583
I282
sg66
g1670
sbsg1737
VV
p3323
sg1739
I1
sg66
VTALK
p3324
sg1740
(iconstruction
TP_SEMFRAME
p3325
(dp3326
g96
g0
(g97
g2
Ntp3327
Rp3328
(dp3329
g101
(dp3330
(iconstruction
TP_NODE
p3331
(dp3332
g1749
I01
sg85
g585
sg66
VACT_283
p3333
sg1750
I01
sg1751
I00
sg583
I283
sb(dp3334
g1750
I01
sg85
g585
ss(iconstruction
TP_NODE
p3335
(dp3336
g1749
I00
sg85
g618
sg66
g3321
sg1750
I00
sg1751
I00
sg583
I284
sb(dp3337
g1750
I00
sg85
g618
sssg284
g285
sg286
g285
sg287
(dp3338
g3331
(dp3339
g3335
(dp3340
g85
g732
sssg3335
(dp3341
ssg481
g3338
sg96
(dp3342
sg483
g285
sg484
g3338
sg485
(dp3343
g3331
(dp3344
sg3335
(dp3345
g3331
g3340
sssbsg578
(lp3346
g3331
ag3335
asg851
(lp3347
(iconstruction
TP_REL
p3348
(dp3349
g857
g3335
sg85
g732
sg583
I285
sg858
g3331
sg66
VIS_285
p3350
sbasg583
I280
sg66
g1670
sbsg1765
(iconstruction
TP_SYNFORM
p3351
(dp3352
g583
I281
sg1768
(lp3353
(iconstruction
TP_PHON
p3354
(dp3355
g1778
I4
sg1775
I0
sg583
I286
sg1779
Vtalk
p3356
sg66
g3322
sba(iconstruction
TP_PHON
p3357
(dp3358
g1778
I2
sg1775
I1
sg583
I287
sg1779
Vto
p3359
sg66
VS2_287
p3360
sbasg66
g1670
sbsg1786
I1
sba(iconstruction
CXN
p3361
(dp3362
g1728
(iconstruction
TP_SYMLINKS
p3363
(dp3364
g1731
(dp3365
VN1_292
p3366
VS1_294
p3367
ssg583
I290
sg66
g1670
sbsg1737
VV
p3368
sg1739
I1
sg66
VSQUIRT
p3369
sg1740
(iconstruction
TP_SEMFRAME
p3370
(dp3371
g96
g0
(g97
g2
Ntp3372
Rp3373
(dp3374
g101
(dp3375
(iconstruction
TP_NODE
p3376
(dp3377
g1749
I01
sg85
g585
sg66
VACT_291
p3378
sg1750
I01
sg1751
I00
sg583
I291
sb(dp3379
g1750
I01
sg85
g585
ss(iconstruction
TP_NODE
p3380
(dp3381
g1749
I00
sg85
g624
sg66
g3366
sg1750
I00
sg1751
I00
sg583
I292
sb(dp3382
g1750
I00
sg85
g624
sssg284
g285
sg286
g285
sg287
(dp3383
g3376
(dp3384
g3380
(dp3385
g85
g732
sssg3380
(dp3386
ssg481
g3383
sg96
(dp3387
sg483
g285
sg484
g3383
sg485
(dp3388
g3376
(dp3389
sg3380
(dp3390
g3376
g3385
sssbsg578
(lp3391
g3376
ag3380
asg851
(lp3392
(iconstruction
TP_REL
p3393
(dp3394
g857
g3380
sg85
g732
sg583
I293
sg858
g3376
sg66
VIS_293
p3395
sbasg583
I288
sg66
g1670
sbsg1765
(iconstruction
TP_SYNFORM
p3396
(dp3397
g583
I289
sg1768
(lp3398
(iconstruction
TP_PHON
p3399
(dp3400
g1778
I6
sg1775
I0
sg583
I294
sg1779
Vsquirt
p3401
sg66
g3367
sba(iconstruction
TP_PHON
p3402
(dp3403
g1778
I2
sg1775
I1
sg583
I295
sg1779
Vat
p3404
sg66
VS2_295
p3405
sbasg66
g1670
sbsg1786
I1
sba(iconstruction
CXN
p3406
(dp3407
g1728
(iconstruction
TP_SYMLINKS
p3408
(dp3409
g1731
(dp3410
VN1_300
p3411
VS1_302
p3412
ssg583
I298
sg66
g1670
sbsg1737
VV
p3413
sg1739
I1
sg66
VSPLASH
p3414
sg1740
(iconstruction
TP_SEMFRAME
p3415
(dp3416
g96
g0
(g97
g2
Ntp3417
Rp3418
(dp3419
g101
(dp3420
(iconstruction
TP_NODE
p3421
(dp3422
g1749
I01
sg85
g585
sg66
VACT_299
p3423
sg1750
I01
sg1751
I00
sg583
I299
sb(dp3424
g1750
I01
sg85
g585
ss(iconstruction
TP_NODE
p3425
(dp3426
g1749
I00
sg85
g615
sg66
g3411
sg1750
I00
sg1751
I00
sg583
I300
sb(dp3427
g1750
I00
sg85
g615
sssg284
g285
sg286
g285
sg287
(dp3428
g3421
(dp3429
g3425
(dp3430
g85
g732
sssg3425
(dp3431
ssg481
g3428
sg96
(dp3432
sg483
g285
sg484
g3428
sg485
(dp3433
g3421
(dp3434
sg3425
(dp3435
g3421
g3430
sssbsg578
(lp3436
g3421
ag3425
asg851
(lp3437
(iconstruction
TP_REL
p3438
(dp3439
g857
g3425
sg85
g732
sg583
I301
sg858
g3421
sg66
VIS_301
p3440
sbasg583
I296
sg66
g1670
sbsg1765
(iconstruction
TP_SYNFORM
p3441
(dp3442
g583
I297
sg1768
(lp3443
(iconstruction
TP_PHON
p3444
(dp3445
g1778
I6
sg1775
I0
sg583
I302
sg1779
Vsplash
p3446
sg66
g3412
sbasg66
g1670
sbsg1786
I1
sba(iconstruction
CXN
p3447
(dp3448
g1728
(iconstruction
TP_SYMLINKS
p3449
(dp3450
g1731
(dp3451
VN1_307
p3452
VS1_309
p3453
ssg583
I305
sg66
g1670
sbsg1737
VV
p3454
sg1739
I1
sg66
VGIVE
p3455
sg1740
(iconstruction
TP_SEMFRAME
p3456
(dp3457
g96
g0
(g97
g2
Ntp3458
Rp3459
(dp3460
g101
(dp3461
(iconstruction
TP_NODE
p3462
(dp3463
g1749
I00
sg85
g639
sg66
g3452
sg1750
I00
sg1751
I00
sg583
I307
sb(dp3464
g1750
I00
sg85
g639
ss(iconstruction
TP_NODE
p3465
(dp3466
g1749
I01
sg85
g585
sg66
VACT_306
p3467
sg1750
I01
sg1751
I00
sg583
I306
sb(dp3468
g1750
I01
sg85
g585
sssg284
g285
sg286
g285
sg287
(dp3469
g3462
(dp3470
sg3465
(dp3471
g3462
(dp3472
g85
g732
ssssg481
g3469
sg96
(dp3473
sg483
g285
sg484
g3469
sg485
(dp3474
g3462
(dp3475
g3465
g3472
ssg3465
(dp3476
ssbsg578
(lp3477
g3465
ag3462
asg851
(lp3478
(iconstruction
TP_REL
p3479
(dp3480
g857
g3462
sg85
g732
sg583
I308
sg858
g3465
sg66
VIS_308
p3481
sbasg583
I303
sg66
g1670
sbsg1765
(iconstruction
TP_SYNFORM
p3482
(dp3483
g583
I304
sg1768
(lp3484
(iconstruction
TP_PHON
p3485
(dp3486
g1778
I4
sg1775
I0
sg583
I309
sg1779
Vgive
p3487
sg66
g3453
sbasg66
g1670
sbsg1786
I1
sba(iconstruction
CXN
p3488
(dp3489
g1728
(iconstruction
TP_SYMLINKS
p3490
(dp3491
g1731
(dp3492
VN1_314
p3493
VS1_316
p3494
ssg583
I312
sg66
g1670
sbsg1737
VV
p3495
sg1739
I1
sg66
VSEND
p3496
sg1740
(iconstruction
TP_SEMFRAME
p3497
(dp3498
g96
g0
(g97
g2
Ntp3499
Rp3500
(dp3501
g101
(dp3502
(iconstruction
TP_NODE
p3503
(dp3504
g1749
I01
sg85
g585
sg66
VACT_313
p3505
sg1750
I01
sg1751
I00
sg583
I313
sb(dp3506
g1750
I01
sg85
g585
ss(iconstruction
TP_NODE
p3507
(dp3508
g1749
I00
sg85
g636
sg66
g3493
sg1750
I00
sg1751
I00
sg583
I314
sb(dp3509
g1750
I00
sg85
g636
sssg284
g285
sg286
g285
sg287
(dp3510
g3503
(dp3511
g3507
(dp3512
g85
g732
sssg3507
(dp3513
ssg481
g3510
sg96
(dp3514
sg483
g285
sg484
g3510
sg485
(dp3515
g3503
(dp3516
sg3507
(dp3517
g3503
g3512
sssbsg578
(lp3518
g3503
ag3507
asg851
(lp3519
(iconstruction
TP_REL
p3520
(dp3521
g857
g3507
sg85
g732
sg583
I315
sg858
g3503
sg66
VIS_315
p3522
sbasg583
I310
sg66
g1670
sbsg1765
(iconstruction
TP_SYNFORM
p3523
(dp3524
g583
I311
sg1768
(lp3525
(iconstruction
TP_PHON
p3526
(dp3527
g1778
I4
sg1775
I0
sg583
I316
sg1779
Vsend
p3528
sg66
g3494
sbasg66
g1670
sbsg1786
I1
sba(iconstruction
CXN
p3529
(dp3530
g1728
(iconstruction
TP_SYMLINKS
p3531
(dp3532
g1731
(dp3533
VN1_321
p3534
VS1_323
p3535
ssg583
I319
sg66
g1670
sbsg1737
VV
p3536
sg1739
I1
sg66
VMEET
p3537
sg1740
(iconstruction
TP_SEMFRAME
p3538
(dp3539
g96
g0
(g97
g2
Ntp3540
Rp3541
(dp3542
g101
(dp3543
(iconstruction
TP_NODE
p3544
(dp3545
g1749
I00
sg85
g591
sg66
g3534
sg1750
I00
sg1751
I00
sg583
I321
sb(dp3546
g1750
I00
sg85
g591
ss(iconstruction
TP_NODE
p3547
(dp3548
g1749
I01
sg85
g585
sg66
VACT_320
p3549
sg1750
I01
sg1751
I00
sg583
I320
sb(dp3550
g1750
I01
sg85
g585
sssg284
g285
sg286
g285
sg287
(dp3551
g3544
(dp3552
sg3547
(dp3553
g3544
(dp3554
g85
g732
ssssg481
g3551
sg96
(dp3555
sg483
g285
sg484
g3551
sg485
(dp3556
g3544
(dp3557
g3547
g3554
ssg3547
(dp3558
ssbsg578
(lp3559
g3547
ag3544
asg851
(lp3560
(iconstruction
TP_REL
p3561
(dp3562
g857
g3544
sg85
g732
sg583
I322
sg858
g3547
sg66
VIS_322
p3563
sbasg583
I317
sg66
g1670
sbsg1765
(iconstruction
TP_SYNFORM
p3564
(dp3565
g583
I318
sg1768
(lp3566
(iconstruction
TP_PHON
p3567
(dp3568
g1778
I4
sg1775
I0
sg583
I323
sg1779
Vmeet
p3569
sg66
g3535
sbasg66
g1670
sbsg1786
I1
sba(iconstruction
CXN
p3570
(dp3571
g1728
(iconstruction
TP_SYMLINKS
p3572
(dp3573
g1731
(dp3574
VN1_328
p3575
VS1_330
p3576
ssg583
I326
sg66
g1670
sbsg1737
VV
p3577
sg1739
I1
sg66
VKISS
p3578
sg1740
(iconstruction
TP_SEMFRAME
p3579
(dp3580
g96
g0
(g97
g2
Ntp3581
Rp3582
(dp3583
g101
(dp3584
(iconstruction
TP_NODE
p3585
(dp3586
g1749
I00
sg85
g621
sg66
g3575
sg1750
I00
sg1751
I00
sg583
I328
sb(dp3587
g1750
I00
sg85
g621
ss(iconstruction
TP_NODE
p3588
(dp3589
g1749
I01
sg85
g585
sg66
VACT_327
p3590
sg1750
I01
sg1751
I00
sg583
I327
sb(dp3591
g1750
I01
sg85
g585
sssg284
g285
sg286
g285
sg287
(dp3592
g3585
(dp3593
sg3588
(dp3594
g3585
(dp3595
g85
g732
ssssg481
g3592
sg96
(dp3596
sg483
g285
sg484
g3592
sg485
(dp3597
g3585
(dp3598
g3588
g3595
ssg3588
(dp3599
ssbsg578
(lp3600
g3588
ag3585
asg851
(lp3601
(iconstruction
TP_REL
p3602
(dp3603
g857
g3585
sg85
g732
sg583
I329
sg858
g3588
sg66
VIS_329
p3604
sbasg583
I324
sg66
g1670
sbsg1765
(iconstruction
TP_SYNFORM
p3605
(dp3606
g583
I325
sg1768
(lp3607
(iconstruction
TP_PHON
p3608
(dp3609
g1778
I4
sg1775
I0
sg583
I330
sg1779
Vkiss
p3610
sg66
g3576
sbasg66
g1670
sbsg1786
I1
sba(iconstruction
CXN
p3611
(dp3612
g1728
(iconstruction
TP_SYMLINKS
p3613
(dp3614
g1731
(dp3615
VN1_335
p3616
VS1_337
p3617
ssg583
I333
sg66
g1670
sbsg1737
VV
p3618
sg1739
I1
sg66
VSHAKE_HANDS
p3619
sg1740
(iconstruction
TP_SEMFRAME
p3620
(dp3621
g96
g0
(g97
g2
Ntp3622
Rp3623
(dp3624
g101
(dp3625
(iconstruction
TP_NODE
p3626
(dp3627
g1749
I01
sg85
g585
sg66
VACT_334
p3628
sg1750
I01
sg1751
I00
sg583
I334
sb(dp3629
g1750
I01
sg85
g585
ss(iconstruction
TP_NODE
p3630
(dp3631
g1749
I00
sg85
g594
sg66
g3616
sg1750
I00
sg1751
I00
sg583
I335
sb(dp3632
g1750
I00
sg85
g594
sssg284
g285
sg286
g285
sg287
(dp3633
g3626
(dp3634
g3630
(dp3635
g85
g732
sssg3630
(dp3636
ssg481
g3633
sg96
(dp3637
sg483
g285
sg484
g3633
sg485
(dp3638
g3626
(dp3639
sg3630
(dp3640
g3626
g3635
sssbsg578
(lp3641
g3626
ag3630
asg851
(lp3642
(iconstruction
TP_REL
p3643
(dp3644
g857
g3630
sg85
g732
sg583
I336
sg858
g3626
sg66
VIS_336
p3645
sbasg583
I331
sg66
g1670
sbsg1765
(iconstruction
TP_SYNFORM
p3646
(dp3647
g583
I332
sg1768
(lp3648
(iconstruction
TP_PHON
p3649
(dp3650
g1778
I10
sg1775
I0
sg583
I337
sg1779
Vshake hands
p3651
sg66
g3617
sbasg66
g1670
sbsg1786
I1
sba(iconstruction
CXN
p3652
(dp3653
g1728
(iconstruction
TP_SYMLINKS
p3654
(dp3655
g1731
(dp3656
VN1_341
p3657
VS1_342
p3658
ssg583
I340
sg66
g1670
sbsg1737
VA
p3659
sg1739
I1
sg66
VBLUE
p3660
sg1740
(iconstruction
TP_SEMFRAME
p3661
(dp3662
g96
g0
(g97
g2
Ntp3663
Rp3664
(dp3665
g101
(dp3666
(iconstruction
TP_NODE
p3667
(dp3668
g1749
I01
sg85
g648
sg66
g3657
sg1750
I00
sg1751
I00
sg583
I341
sb(dp3669
g1750
I00
sg85
g648
sssg284
g285
sg286
g285
sg287
(dp3670
g3667
(dp3671
ssg481
g3670
sg96
(dp3672
sg483
g285
sg484
g3670
sg485
(dp3673
g3667
(dp3674
ssbsg578
(lp3675
g3667
asg851
(lp3676
sg583
I338
sg66
g1670
sbsg1765
(iconstruction
TP_SYNFORM
p3677
(dp3678
g583
I339
sg1768
(lp3679
(iconstruction
TP_PHON
p3680
(dp3681
g1778
I4
sg1775
I0
sg583
I342
sg1779
Vblue
p3682
sg66
g3658
sbasg66
g1670
sbsg1786
I1
sba(iconstruction
CXN
p3683
(dp3684
g1728
(iconstruction
TP_SYMLINKS
p3685
(dp3686
g1731
(dp3687
VN1_346
p3688
VS1_347
p3689
ssg583
I345
sg66
g1670
sbsg1737
VA
p3690
sg1739
I1
sg66
VBLACK
p3691
sg1740
(iconstruction
TP_SEMFRAME
p3692
(dp3693
g96
g0
(g97
g2
Ntp3694
Rp3695
(dp3696
g101
(dp3697
(iconstruction
TP_NODE
p3698
(dp3699
g1749
I01
sg85
g657
sg66
g3688
sg1750
I00
sg1751
I00
sg583
I346
sb(dp3700
g1750
I00
sg85
g657
sssg284
g285
sg286
g285
sg287
(dp3701
g3698
(dp3702
ssg481
g3701
sg96
(dp3703
sg483
g285
sg484
g3701
sg485
(dp3704
g3698
(dp3705
ssbsg578
(lp3706
g3698
asg851
(lp3707
sg583
I343
sg66
g1670
sbsg1765
(iconstruction
TP_SYNFORM
p3708
(dp3709
g583
I344
sg1768
(lp3710
(iconstruction
TP_PHON
p3711
(dp3712
g1778
I5
sg1775
I0
sg583
I347
sg1779
Vblack
p3713
sg66
g3689
sbasg66
g1670
sbsg1786
I1
sba(iconstruction
CXN
p3714
(dp3715
g1728
(iconstruction
TP_SYMLINKS
p3716
(dp3717
g1731
(dp3718
VN1_351
p3719
VS1_352
p3720
ssg583
I350
sg66
g1670
sbsg1737
VA
p3721
sg1739
I1
sg66
VGREEN
p3722
sg1740
(iconstruction
TP_SEMFRAME
p3723
(dp3724
g96
g0
(g97
g2
Ntp3725
Rp3726
(dp3727
g101
(dp3728
(iconstruction
TP_NODE
p3729
(dp3730
g1749
I01
sg85
g651
sg66
g3719
sg1750
I00
sg1751
I00
sg583
I351
sb(dp3731
g1750
I00
sg85
g651
sssg284
g285
sg286
g285
sg287
(dp3732
g3729
(dp3733
ssg481
g3732
sg96
(dp3734
sg483
g285
sg484
g3732
sg485
(dp3735
g3729
(dp3736
ssbsg578
(lp3737
g3729
asg851
(lp3738
sg583
I348
sg66
g1670
sbsg1765
(iconstruction
TP_SYNFORM
p3739
(dp3740
g583
I349
sg1768
(lp3741
(iconstruction
TP_PHON
p3742
(dp3743
g1778
I5
sg1775
I0
sg583
I352
sg1779
Vgreen
p3744
sg66
g3720
sbasg66
g1670
sbsg1786
I1
sba(iconstruction
CXN
p3745
(dp3746
g1728
(iconstruction
TP_SYMLINKS
p3747
(dp3748
g1731
(dp3749
VN1_356
p3750
VS1_357
p3751
ssg583
I355
sg66
g1670
sbsg1737
VA
p3752
sg1739
I1
sg66
VSMALL
p3753
sg1740
(iconstruction
TP_SEMFRAME
p3754
(dp3755
g96
g0
(g97
g2
Ntp3756
Rp3757
(dp3758
g101
(dp3759
(iconstruction
TP_NODE
p3760
(dp3761
g1749
I01
sg85
g678
sg66
g3750
sg1750
I00
sg1751
I00
sg583
I356
sb(dp3762
g1750
I00
sg85
g678
sssg284
g285
sg286
g285
sg287
(dp3763
g3760
(dp3764
ssg481
g3763
sg96
(dp3765
sg483
g285
sg484
g3763
sg485
(dp3766
g3760
(dp3767
ssbsg578
(lp3768
g3760
asg851
(lp3769
sg583
I353
sg66
g1670
sbsg1765
(iconstruction
TP_SYNFORM
p3770
(dp3771
g583
I354
sg1768
(lp3772
(iconstruction
TP_PHON
p3773
(dp3774
g1778
I5
sg1775
I0
sg583
I357
sg1779
Vsmall
p3775
sg66
g3751
sbasg66
g1670
sbsg1786
I1
sba(iconstruction
CXN
p3776
(dp3777
g1728
(iconstruction
TP_SYMLINKS
p3778
(dp3779
g1731
(dp3780
VN1_361
p3781
VS1_362
p3782
ssg583
I360
sg66
g1670
sbsg1737
VA
p3783
sg1739
I1
sg66
VBIG
p3784
sg1740
(iconstruction
TP_SEMFRAME
p3785
(dp3786
g96
g0
(g97
g2
Ntp3787
Rp3788
(dp3789
g101
(dp3790
(iconstruction
TP_NODE
p3791
(dp3792
g1749
I01
sg85
g681
sg66
g3781
sg1750
I00
sg1751
I00
sg583
I361
sb(dp3793
g1750
I00
sg85
g681
sssg284
g285
sg286
g285
sg287
(dp3794
g3791
(dp3795
ssg481
g3794
sg96
(dp3796
sg483
g285
sg484
g3794
sg485
(dp3797
g3791
(dp3798
ssbsg578
(lp3799
g3791
asg851
(lp3800
sg583
I358
sg66
g1670
sbsg1765
(iconstruction
TP_SYNFORM
p3801
(dp3802
g583
I359
sg1768
(lp3803
(iconstruction
TP_PHON
p3804
(dp3805
g1778
I3
sg1775
I0
sg583
I362
sg1779
Vbig
p3806
sg66
g3782
sbasg66
g1670
sbsg1786
I1
sba(iconstruction
CXN
p3807
(dp3808
g1728
(iconstruction
TP_SYMLINKS
p3809
(dp3810
g1731
(dp3811
VN1_366
p3812
VS1_367
p3813
ssg583
I365
sg66
g1670
sbsg1737
VA
p3814
sg1739
I1
sg66
VHANDSOME
p3815
sg1740
(iconstruction
TP_SEMFRAME
p3816
(dp3817
g96
g0
(g97
g2
Ntp3818
Rp3819
(dp3820
g101
(dp3821
(iconstruction
TP_NODE
p3822
(dp3823
g1749
I01
sg85
g672
sg66
g3812
sg1750
I00
sg1751
I00
sg583
I366
sb(dp3824
g1750
I00
sg85
g672
sssg284
g285
sg286
g285
sg287
(dp3825
g3822
(dp3826
ssg481
g3825
sg96
(dp3827
sg483
g285
sg484
g3825
sg485
(dp3828
g3822
(dp3829
ssbsg578
(lp3830
g3822
asg851
(lp3831
sg583
I363
sg66
g1670
sbsg1765
(iconstruction
TP_SYNFORM
p3832
(dp3833
g583
I364
sg1768
(lp3834
(iconstruction
TP_PHON
p3835
(dp3836
g1778
I8
sg1775
I0
sg583
I367
sg1779
Vhandsome
p3837
sg66
g3813
sbasg66
g1670
sbsg1786
I1
sba(iconstruction
CXN
p3838
(dp3839
g1728
(iconstruction
TP_SYMLINKS
p3840
(dp3841
g1731
(dp3842
VN1_371
p3843
VS1_372
p3844
ssg583
I370
sg66
g1670
sbsg1737
VA
p3845
sg1739
I1
sg66
VPRETTY
p3846
sg1740
(iconstruction
TP_SEMFRAME
p3847
(dp3848
g96
g0
(g97
g2
Ntp3849
Rp3850
(dp3851
g101
(dp3852
(iconstruction
TP_NODE
p3853
(dp3854
g1749
I01
sg85
g669
sg66
g3843
sg1750
I00
sg1751
I00
sg583
I371
sb(dp3855
g1750
I00
sg85
g669
sssg284
g285
sg286
g285
sg287
(dp3856
g3853
(dp3857
ssg481
g3856
sg96
(dp3858
sg483
g285
sg484
g3856
sg485
(dp3859
g3853
(dp3860
ssbsg578
(lp3861
g3853
asg851
(lp3862
sg583
I368
sg66
g1670
sbsg1765
(iconstruction
TP_SYNFORM
p3863
(dp3864
g583
I369
sg1768
(lp3865
(iconstruction
TP_PHON
p3866
(dp3867
g1778
I6
sg1775
I0
sg583
I372
sg1779
Vpretty
p3868
sg66
g3844
sbasg66
g1670
sbsg1786
I1
sba(iconstruction
CXN
p3869
(dp3870
g1728
(iconstruction
TP_SYMLINKS
p3871
(dp3872
g1731
(dp3873
VN1_376
p3874
VS1_377
p3875
ssg583
I375
sg66
g1670
sbsg1737
VA
p3876
sg1739
I1
sg66
VYOUNG
p3877
sg1740
(iconstruction
TP_SEMFRAME
p3878
(dp3879
g96
g0
(g97
g2
Ntp3880
Rp3881
(dp3882
g101
(dp3883
(iconstruction
TP_NODE
p3884
(dp3885
g1749
I01
sg85
g666
sg66
g3874
sg1750
I00
sg1751
I00
sg583
I376
sb(dp3886
g1750
I00
sg85
g666
sssg284
g285
sg286
g285
sg287
(dp3887
g3884
(dp3888
ssg481
g3887
sg96
(dp3889
sg483
g285
sg484
g3887
sg485
(dp3890
g3884
(dp3891
ssbsg578
(lp3892
g3884
asg851
(lp3893
sg583
I373
sg66
g1670
sbsg1765
(iconstruction
TP_SYNFORM
p3894
(dp3895
g583
I374
sg1768
(lp3896
(iconstruction
TP_PHON
p3897
(dp3898
g1778
I5
sg1775
I0
sg583
I377
sg1779
Vyoung
p3899
sg66
g3875
sbasg66
g1670
sbsg1786
I1
sba(iconstruction
CXN
p3900
(dp3901
g1728
(iconstruction
TP_SYMLINKS
p3902
(dp3903
g1731
(dp3904
VN1_382
p3905
VS1_384
p3906
ssg583
I380
sg66
g1670
sbsg1737
VN
p3907
sg1739
I1
sg66
VWOMAN
p3908
sg1740
(iconstruction
TP_SEMFRAME
p3909
(dp3910
g96
g0
(g97
g2
Ntp3911
Rp3912
(dp3913
g101
(dp3914
(iconstruction
TP_NODE
p3915
(dp3916
g1749
I01
sg85
g741
sg66
VENT_381
p3917
sg1750
I01
sg1751
I00
sg583
I381
sb(dp3918
g1750
I01
sg85
g741
ss(iconstruction
TP_NODE
p3919
(dp3920
g1749
I00
sg85
g807
sg66
g3905
sg1750
I00
sg1751
I00
sg583
I382
sb(dp3921
g1750
I00
sg85
g807
sssg284
g285
sg286
g285
sg287
(dp3922
g3915
(dp3923
g3919
(dp3924
g85
g732
sssg3919
(dp3925
ssg481
g3922
sg96
(dp3926
sg483
g285
sg484
g3922
sg485
(dp3927
g3915
(dp3928
sg3919
(dp3929
g3915
g3924
sssbsg578
(lp3930
g3915
ag3919
asg851
(lp3931
(iconstruction
TP_REL
p3932
(dp3933
g857
g3919
sg85
g732
sg583
I383
sg858
g3915
sg66
VIS_383
p3934
sbasg583
I378
sg66
g1670
sbsg1765
(iconstruction
TP_SYNFORM
p3935
(dp3936
g583
I379
sg1768
(lp3937
(iconstruction
TP_PHON
p3938
(dp3939
g1778
I5
sg1775
I0
sg583
I384
sg1779
Vwoman
p3940
sg66
g3906
sbasg66
g1670
sbsg1786
I1
sba(iconstruction
CXN
p3941
(dp3942
g1728
(iconstruction
TP_SYMLINKS
p3943
(dp3944
g1731
(dp3945
VN1_389
p3946
VS1_391
p3947
ssg583
I387
sg66
g1670
sbsg1737
VN
p3948
sg1739
I1
sg66
VWOMAN2
p3949
sg1740
(iconstruction
TP_SEMFRAME
p3950
(dp3951
g96
g0
(g97
g2
Ntp3952
Rp3953
(dp3954
g101
(dp3955
(iconstruction
TP_NODE
p3956
(dp3957
g1749
I00
sg85
g807
sg66
g3946
sg1750
I00
sg1751
I00
sg583
I389
sb(dp3958
g1750
I00
sg85
g807
ss(iconstruction
TP_NODE
p3959
(dp3960
g1749
I01
sg85
g741
sg66
VENT_388
p3961
sg1750
I01
sg1751
I00
sg583
I388
sb(dp3962
g1750
I01
sg85
g741
sssg284
g285
sg286
g285
sg287
(dp3963
g3956
(dp3964
sg3959
(dp3965
g3956
(dp3966
g85
g732
ssssg481
g3963
sg96
(dp3967
sg483
g285
sg484
g3963
sg485
(dp3968
g3956
(dp3969
g3959
g3966
ssg3959
(dp3970
ssbsg578
(lp3971
g3959
ag3956
asg851
(lp3972
(iconstruction
TP_REL
p3973
(dp3974
g857
g3956
sg85
g732
sg583
I390
sg858
g3959
sg66
VIS_390
p3975
sbasg583
I385
sg66
g1670
sbsg1765
(iconstruction
TP_SYNFORM
p3976
(dp3977
g583
I386
sg1768
(lp3978
(iconstruction
TP_PHON
p3979
(dp3980
g1778
I4
sg1775
I0
sg583
I391
sg1779
Vlady
p3981
sg66
g3947
sbasg66
g1670
sbsg1786
I1
sba(iconstruction
CXN
p3982
(dp3983
g1728
(iconstruction
TP_SYMLINKS
p3984
(dp3985
g1731
(dp3986
VN1_396
p3987
VS1_398
p3988
ssg583
I394
sg66
g1670
sbsg1737
VN
p3989
sg1739
I1
sg66
VMAN
p3990
sg1740
(iconstruction
TP_SEMFRAME
p3991
(dp3992
g96
g0
(g97
g2
Ntp3993
Rp3994
(dp3995
g101
(dp3996
(iconstruction
TP_NODE
p3997
(dp3998
g1749
I01
sg85
g741
sg66
VENT_395
p3999
sg1750
I01
sg1751
I00
sg583
I395
sb(dp4000
g1750
I01
sg85
g741
ss(iconstruction
TP_NODE
p4001
(dp4002
g1749
I00
sg85
g834
sg66
g3987
sg1750
I00
sg1751
I00
sg583
I396
sb(dp4003
g1750
I00
sg85
g834
sssg284
g285
sg286
g285
sg287
(dp4004
g3997
(dp4005
g4001
(dp4006
g85
g732
sssg4001
(dp4007
ssg481
g4004
sg96
(dp4008
sg483
g285
sg484
g4004
sg485
(dp4009
g3997
(dp4010
sg4001
(dp4011
g3997
g4006
sssbsg578
(lp4012
g3997
ag4001
asg851
(lp4013
(iconstruction
TP_REL
p4014
(dp4015
g857
g4001
sg85
g732
sg583
I397
sg858
g3997
sg66
VIS_397
p4016
sbasg583
I392
sg66
g1670
sbsg1765
(iconstruction
TP_SYNFORM
p4017
(dp4018
g583
I393
sg1768
(lp4019
(iconstruction
TP_PHON
p4020
(dp4021
g1778
I3
sg1775
I0
sg583
I398
sg1779
Vman
p4022
sg66
g3988
sbasg66
g1670
sbsg1786
I1
sba(iconstruction
CXN
p4023
(dp4024
g1728
(iconstruction
TP_SYMLINKS
p4025
(dp4026
g1731
(dp4027
VN1_403
p4028
VS1_405
p4029
ssg583
I401
sg66
g1670
sbsg1737
VN
p4030
sg1739
I1
sg66
VGIRL
p4031
sg1740
(iconstruction
TP_SEMFRAME
p4032
(dp4033
g96
g0
(g97
g2
Ntp4034
Rp4035
(dp4036
g101
(dp4037
(iconstruction
TP_NODE
p4038
(dp4039
g1749
I01
sg85
g741
sg66
VENT_402
p4040
sg1750
I01
sg1751
I00
sg583
I402
sb(dp4041
g1750
I01
sg85
g741
ss(iconstruction
TP_NODE
p4042
(dp4043
g1749
I00
sg85
g825
sg66
g4028
sg1750
I00
sg1751
I00
sg583
I403
sb(dp4044
g1750
I00
sg85
g825
sssg284
g285
sg286
g285
sg287
(dp4045
g4038
(dp4046
g4042
(dp4047
g85
g732
sssg4042
(dp4048
ssg481
g4045
sg96
(dp4049
sg483
g285
sg484
g4045
sg485
(dp4050
g4038
(dp4051
sg4042
(dp4052
g4038
g4047
sssbsg578
(lp4053
g4038
ag4042
asg851
(lp4054
(iconstruction
TP_REL
p4055
(dp4056
g857
g4042
sg85
g732
sg583
I404
sg858
g4038
sg66
VIS_404
p4057
sbasg583
I399
sg66
g1670
sbsg1765
(iconstruction
TP_SYNFORM
p4058
(dp4059
g583
I400
sg1768
(lp4060
(iconstruction
TP_PHON
p4061
(dp4062
g1778
I4
sg1775
I0
sg583
I405
sg1779
Vgirl
p4063
sg66
g4029
sbasg66
g1670
sbsg1786
I1
sba(iconstruction
CXN
p4064
(dp4065
g1728
(iconstruction
TP_SYMLINKS
p4066
(dp4067
g1731
(dp4068
VN1_410
p4069
VS1_412
p4070
ssg583
I408
sg66
g1670
sbsg1737
VN
p4071
sg1739
I1
sg66
VBOY
p4072
sg1740
(iconstruction
TP_SEMFRAME
p4073
(dp4074
g96
g0
(g97
g2
Ntp4075
Rp4076
(dp4077
g101
(dp4078
(iconstruction
TP_NODE
p4079
(dp4080
g1749
I00
sg85
g804
sg66
g4069
sg1750
I00
sg1751
I00
sg583
I410
sb(dp4081
g1750
I00
sg85
g804
ss(iconstruction
TP_NODE
p4082
(dp4083
g1749
I01
sg85
g741
sg66
VENT_409
p4084
sg1750
I01
sg1751
I00
sg583
I409
sb(dp4085
g1750
I01
sg85
g741
sssg284
g285
sg286
g285
sg287
(dp4086
g4079
(dp4087
sg4082
(dp4088
g4079
(dp4089
g85
g732
ssssg481
g4086
sg96
(dp4090
sg483
g285
sg484
g4086
sg485
(dp4091
g4079
(dp4092
g4082
g4089
ssg4082
(dp4093
ssbsg578
(lp4094
g4082
ag4079
asg851
(lp4095
(iconstruction
TP_REL
p4096
(dp4097
g857
g4079
sg85
g732
sg583
I411
sg858
g4082
sg66
VIS_411
p4098
sbasg583
I406
sg66
g1670
sbsg1765
(iconstruction
TP_SYNFORM
p4099
(dp4100
g583
I407
sg1768
(lp4101
(iconstruction
TP_PHON
p4102
(dp4103
g1778
I3
sg1775
I0
sg583
I412
sg1779
Vboy
p4104
sg66
g4070
sbasg66
g1670
sbsg1786
I1
sba(iconstruction
CXN
p4105
(dp4106
g1728
(iconstruction
TP_SYMLINKS
p4107
(dp4108
g1731
(dp4109
VN1_417
p4110
VS1_419
p4111
ssg583
I415
sg66
g1670
sbsg1737
VN
p4112
sg1739
I1
sg66
VPEOPLE
p4113
sg1740
(iconstruction
TP_SEMFRAME
p4114
(dp4115
g96
g0
(g97
g2
Ntp4116
Rp4117
(dp4118
g101
(dp4119
(iconstruction
TP_NODE
p4120
(dp4121
g1749
I01
sg85
g741
sg66
VENT_416
p4122
sg1750
I01
sg1751
I00
sg583
I416
sb(dp4123
g1750
I01
sg85
g741
ss(iconstruction
TP_NODE
p4124
(dp4125
g1749
I00
sg85
g810
sg66
g4110
sg1750
I00
sg1751
I00
sg583
I417
sb(dp4126
g1750
I00
sg85
g810
sssg284
g285
sg286
g285
sg287
(dp4127
g4120
(dp4128
g4124
(dp4129
g85
g732
sssg4124
(dp4130
ssg481
g4127
sg96
(dp4131
sg483
g285
sg484
g4127
sg485
(dp4132
g4120
(dp4133
sg4124
(dp4134
g4120
g4129
sssbsg578
(lp4135
g4120
ag4124
asg851
(lp4136
(iconstruction
TP_REL
p4137
(dp4138
g857
g4124
sg85
g732
sg583
I418
sg858
g4120
sg66
VIS_418
p4139
sbasg583
I413
sg66
g1670
sbsg1765
(iconstruction
TP_SYNFORM
p4140
(dp4141
g583
I414
sg1768
(lp4142
(iconstruction
TP_PHON
p4143
(dp4144
g1778
I6
sg1775
I0
sg583
I419
sg1779
Vpeople
p4145
sg66
g4111
sbasg66
g1670
sbsg1786
I1
sba(iconstruction
CXN
p4146
(dp4147
g1728
(iconstruction
TP_SYMLINKS
p4148
(dp4149
g1731
(dp4150
VN1_424
p4151
VS1_426
p4152
ssg583
I422
sg66
g1670
sbsg1737
VN
p4153
sg1739
I1
sg66
VMOUSE
p4154
sg1740
(iconstruction
TP_SEMFRAME
p4155
(dp4156
g96
g0
(g97
g2
Ntp4157
Rp4158
(dp4159
g101
(dp4160
(iconstruction
TP_NODE
p4161
(dp4162
g1749
I00
sg85
g798
sg66
g4151
sg1750
I00
sg1751
I00
sg583
I424
sb(dp4163
g1750
I00
sg85
g798
ss(iconstruction
TP_NODE
p4164
(dp4165
g1749
I01
sg85
g741
sg66
VENT_423
p4166
sg1750
I01
sg1751
I00
sg583
I423
sb(dp4167
g1750
I01
sg85
g741
sssg284
g285
sg286
g285
sg287
(dp4168
g4161
(dp4169
sg4164
(dp4170
g4161
(dp4171
g85
g732
ssssg481
g4168
sg96
(dp4172
sg483
g285
sg484
g4168
sg485
(dp4173
g4161
(dp4174
g4164
g4171
ssg4164
(dp4175
ssbsg578
(lp4176
g4164
ag4161
asg851
(lp4177
(iconstruction
TP_REL
p4178
(dp4179
g857
g4161
sg85
g732
sg583
I425
sg858
g4164
sg66
VIS_425
p4180
sbasg583
I420
sg66
g1670
sbsg1765
(iconstruction
TP_SYNFORM
p4181
(dp4182
g583
I421
sg1768
(lp4183
(iconstruction
TP_PHON
p4184
(dp4185
g1778
I5
sg1775
I0
sg583
I426
sg1779
Vmouse
p4186
sg66
g4152
sbasg66
g1670
sbsg1786
I1
sba(iconstruction
CXN
p4187
(dp4188
g1728
(iconstruction
TP_SYMLINKS
p4189
(dp4190
g1731
(dp4191
VN1_431
p4192
VS1_433
p4193
ssg583
I429
sg66
g1670
sbsg1737
VN
p4194
sg1739
I1
sg66
VTURTLE
p4195
sg1740
(iconstruction
TP_SEMFRAME
p4196
(dp4197
g96
g0
(g97
g2
Ntp4198
Rp4199
(dp4200
g101
(dp4201
(iconstruction
TP_NODE
p4202
(dp4203
g1749
I01
sg85
g741
sg66
VENT_430
p4204
sg1750
I01
sg1751
I00
sg583
I430
sb(dp4205
g1750
I01
sg85
g741
ss(iconstruction
TP_NODE
p4206
(dp4207
g1749
I00
sg85
g795
sg66
g4192
sg1750
I00
sg1751
I00
sg583
I431
sb(dp4208
g1750
I00
sg85
g795
sssg284
g285
sg286
g285
sg287
(dp4209
g4202
(dp4210
g4206
(dp4211
g85
g732
sssg4206
(dp4212
ssg481
g4209
sg96
(dp4213
sg483
g285
sg484
g4209
sg485
(dp4214
g4202
(dp4215
sg4206
(dp4216
g4202
g4211
sssbsg578
(lp4217
g4202
ag4206
asg851
(lp4218
(iconstruction
TP_REL
p4219
(dp4220
g857
g4206
sg85
g732
sg583
I432
sg858
g4202
sg66
VIS_432
p4221
sbasg583
I427
sg66
g1670
sbsg1765
(iconstruction
TP_SYNFORM
p4222
(dp4223
g583
I428
sg1768
(lp4224
(iconstruction
TP_PHON
p4225
(dp4226
g1778
I6
sg1775
I0
sg583
I433
sg1779
Vturtle
p4227
sg66
g4193
sbasg66
g1670
sbsg1786
I1
sba(iconstruction
CXN
p4228
(dp4229
g1728
(iconstruction
TP_SYMLINKS
p4230
(dp4231
g1731
(dp4232
VN1_438
p4233
VS1_440
p4234
ssg583
I436
sg66
g1670
sbsg1737
VN
p4235
sg1739
I1
sg66
VDRESS
p4236
sg1740
(iconstruction
TP_SEMFRAME
p4237
(dp4238
g96
g0
(g97
g2
Ntp4239
Rp4240
(dp4241
g101
(dp4242
(iconstruction
TP_NODE
p4243
(dp4244
g1749
I01
sg85
g741
sg66
VENT_437
p4245
sg1750
I01
sg1751
I00
sg583
I437
sb(dp4246
g1750
I01
sg85
g741
ss(iconstruction
TP_NODE
p4247
(dp4248
g1749
I00
sg85
g786
sg66
g4233
sg1750
I00
sg1751
I00
sg583
I438
sb(dp4249
g1750
I00
sg85
g786
sssg284
g285
sg286
g285
sg287
(dp4250
g4243
(dp4251
g4247
(dp4252
g85
g732
sssg4247
(dp4253
ssg481
g4250
sg96
(dp4254
sg483
g285
sg484
g4250
sg485
(dp4255
g4243
(dp4256
sg4247
(dp4257
g4243
g4252
sssbsg578
(lp4258
g4243
ag4247
asg851
(lp4259
(iconstruction
TP_REL
p4260
(dp4261
g857
g4247
sg85
g732
sg583
I439
sg858
g4243
sg66
VIS_439
p4262
sbasg583
I434
sg66
g1670
sbsg1765
(iconstruction
TP_SYNFORM
p4263
(dp4264
g583
I435
sg1768
(lp4265
(iconstruction
TP_PHON
p4266
(dp4267
g1778
I5
sg1775
I0
sg583
I440
sg1779
Vdress
p4268
sg66
g4234
sbasg66
g1670
sbsg1786
I1
sba(iconstruction
CXN
p4269
(dp4270
g1728
(iconstruction
TP_SYMLINKS
p4271
(dp4272
g1731
(dp4273
VN1_445
p4274
VS1_447
p4275
ssg583
I443
sg66
g1670
sbsg1737
VN
p4276
sg1739
I1
sg66
VTSHIRT
p4277
sg1740
(iconstruction
TP_SEMFRAME
p4278
(dp4279
g96
g0
(g97
g2
Ntp4280
Rp4281
(dp4282
g101
(dp4283
(iconstruction
TP_NODE
p4284
(dp4285
g1749
I00
sg85
g783
sg66
g4274
sg1750
I00
sg1751
I00
sg583
I445
sb(dp4286
g1750
I00
sg85
g783
ss(iconstruction
TP_NODE
p4287
(dp4288
g1749
I01
sg85
g741
sg66
VENT_444
p4289
sg1750
I01
sg1751
I00
sg583
I444
sb(dp4290
g1750
I01
sg85
g741
sssg284
g285
sg286
g285
sg287
(dp4291
g4284
(dp4292
sg4287
(dp4293
g4284
(dp4294
g85
g732
ssssg481
g4291
sg96
(dp4295
sg483
g285
sg484
g4291
sg485
(dp4296
g4284
(dp4297
g4287
g4294
ssg4287
(dp4298
ssbsg578
(lp4299
g4287
ag4284
asg851
(lp4300
(iconstruction
TP_REL
p4301
(dp4302
g857
g4284
sg85
g732
sg583
I446
sg858
g4287
sg66
VIS_446
p4303
sbasg583
I441
sg66
g1670
sbsg1765
(iconstruction
TP_SYNFORM
p4304
(dp4305
g583
I442
sg1768
(lp4306
(iconstruction
TP_PHON
p4307
(dp4308
g1778
I6
sg1775
I0
sg583
I447
sg1779
Vt-shirt
p4309
sg66
g4275
sbasg66
g1670
sbsg1786
I1
sba(iconstruction
CXN
p4310
(dp4311
g1728
(iconstruction
TP_SYMLINKS
p4312
(dp4313
g1731
(dp4314
VN1_452
p4315
VS2_455
p4316
ssg583
I450
sg66
g1670
sbsg1737
VN
p4317
sg1739
I1
sg66
VBOXINGRING
p4318
sg1740
(iconstruction
TP_SEMFRAME
p4319
(dp4320
g96
g0
(g97
g2
Ntp4321
Rp4322
(dp4323
g101
(dp4324
(iconstruction
TP_NODE
p4325
(dp4326
g1749
I01
sg85
g741
sg66
VENT_451
p4327
sg1750
I01
sg1751
I00
sg583
I451
sb(dp4328
g1750
I01
sg85
g741
ss(iconstruction
TP_NODE
p4329
(dp4330
g1749
I00
sg85
g840
sg66
g4315
sg1750
I00
sg1751
I00
sg583
I452
sb(dp4331
g1750
I00
sg85
g840
sssg284
g285
sg286
g285
sg287
(dp4332
g4325
(dp4333
g4329
(dp4334
g85
g732
sssg4329
(dp4335
ssg481
g4332
sg96
(dp4336
sg483
g285
sg484
g4332
sg485
(dp4337
g4325
(dp4338
sg4329
(dp4339
g4325
g4334
sssbsg578
(lp4340
g4325
ag4329
asg851
(lp4341
(iconstruction
TP_REL
p4342
(dp4343
g857
g4329
sg85
g732
sg583
I453
sg858
g4325
sg66
VIS_453
p4344
sbasg583
I448
sg66
g1670
sbsg1765
(iconstruction
TP_SYNFORM
p4345
(dp4346
g583
I449
sg1768
(lp4347
(iconstruction
TP_PHON
p4348
(dp4349
g1778
I6
sg1775
I0
sg583
I454
sg1779
Vboxing
p4350
sg66
VS1_454
p4351
sba(iconstruction
TP_PHON
p4352
(dp4353
g1778
I4
sg1775
I1
sg583
I455
sg1779
Vring
p4354
sg66
g4316
sbasg66
g1670
sbsg1786
I1
sba(iconstruction
CXN
p4355
(dp4356
g1728
(iconstruction
TP_SYMLINKS
p4357
(dp4358
g1731
(dp4359
VN1_460
p4360
VS1_462
p4361
ssg583
I458
sg66
g1670
sbsg1737
VN
p4362
sg1739
I1
sg66
VPARK
p4363
sg1740
(iconstruction
TP_SEMFRAME
p4364
(dp4365
g96
g0
(g97
g2
Ntp4366
Rp4367
(dp4368
g101
(dp4369
(iconstruction
TP_NODE
p4370
(dp4371
g1749
I01
sg85
g741
sg66
VENT_459
p4372
sg1750
I01
sg1751
I00
sg583
I459
sb(dp4373
g1750
I01
sg85
g741
ss(iconstruction
TP_NODE
p4374
(dp4375
g1749
I00
sg85
g843
sg66
g4360
sg1750
I00
sg1751
I00
sg583
I460
sb(dp4376
g1750
I00
sg85
g843
sssg284
g285
sg286
g285
sg287
(dp4377
g4370
(dp4378
g4374
(dp4379
g85
g732
sssg4374
(dp4380
ssg481
g4377
sg96
(dp4381
sg483
g285
sg484
g4377
sg485
(dp4382
g4370
(dp4383
sg4374
(dp4384
g4370
g4379
sssbsg578
(lp4385
g4370
ag4374
asg851
(lp4386
(iconstruction
TP_REL
p4387
(dp4388
g857
g4374
sg85
g732
sg583
I461
sg858
g4370
sg66
VIS_461
p4389
sbasg583
I456
sg66
g1670
sbsg1765
(iconstruction
TP_SYNFORM
p4390
(dp4391
g583
I457
sg1768
(lp4392
(iconstruction
TP_PHON
p4393
(dp4394
g1778
I4
sg1775
I0
sg583
I462
sg1779
Vpark
p4395
sg66
g4361
sbasg66
g1670
sbsg1786
I1
sba(iconstruction
CXN
p4396
(dp4397
g1728
(iconstruction
TP_SYMLINKS
p4398
(dp4399
g1731
(dp4400
VN1_467
p4401
VS1_469
p4402
ssg583
I465
sg66
g1670
sbsg1737
VN
p4403
sg1739
I1
sg66
VSHIRT
p4404
sg1740
(iconstruction
TP_SEMFRAME
p4405
(dp4406
g96
g0
(g97
g2
Ntp4407
Rp4408
(dp4409
g101
(dp4410
(iconstruction
TP_NODE
p4411
(dp4412
g1749
I00
sg85
g789
sg66
g4401
sg1750
I00
sg1751
I00
sg583
I467
sb(dp4413
g1750
I00
sg85
g789
ss(iconstruction
TP_NODE
p4414
(dp4415
g1749
I01
sg85
g741
sg66
VENT_466
p4416
sg1750
I01
sg1751
I00
sg583
I466
sb(dp4417
g1750
I01
sg85
g741
sssg284
g285
sg286
g285
sg287
(dp4418
g4411
(dp4419
sg4414
(dp4420
g4411
(dp4421
g85
g732
ssssg481
g4418
sg96
(dp4422
sg483
g285
sg484
g4418
sg485
(dp4423
g4411
(dp4424
g4414
g4421
ssg4414
(dp4425
ssbsg578
(lp4426
g4414
ag4411
asg851
(lp4427
(iconstruction
TP_REL
p4428
(dp4429
g857
g4411
sg85
g732
sg583
I468
sg858
g4414
sg66
VIS_468
p4430
sbasg583
I463
sg66
g1670
sbsg1765
(iconstruction
TP_SYNFORM
p4431
(dp4432
g583
I464
sg1768
(lp4433
(iconstruction
TP_PHON
p4434
(dp4435
g1778
I5
sg1775
I0
sg583
I469
sg1779
Vshirt
p4436
sg66
g4402
sbasg66
g1670
sbsg1786
I1
sba(iconstruction
CXN
p4437
(dp4438
g1728
(iconstruction
TP_SYMLINKS
p4439
(dp4440
g1731
(dp4441
VN1_474
p4442
VS1_476
p4443
ssg583
I472
sg66
g1670
sbsg1737
VN
p4444
sg1739
I1
sg66
VSUIT
p4445
sg1740
(iconstruction
TP_SEMFRAME
p4446
(dp4447
g96
g0
(g97
g2
Ntp4448
Rp4449
(dp4450
g101
(dp4451
(iconstruction
TP_NODE
p4452
(dp4453
g1749
I01
sg85
g741
sg66
VENT_473
p4454
sg1750
I01
sg1751
I00
sg583
I473
sb(dp4455
g1750
I01
sg85
g741
ss(iconstruction
TP_NODE
p4456
(dp4457
g1749
I00
sg85
g792
sg66
g4442
sg1750
I00
sg1751
I00
sg583
I474
sb(dp4458
g1750
I00
sg85
g792
sssg284
g285
sg286
g285
sg287
(dp4459
g4452
(dp4460
g4456
(dp4461
g85
g732
sssg4456
(dp4462
ssg481
g4459
sg96
(dp4463
sg483
g285
sg484
g4459
sg485
(dp4464
g4452
(dp4465
sg4456
(dp4466
g4452
g4461
sssbsg578
(lp4467
g4452
ag4456
asg851
(lp4468
(iconstruction
TP_REL
p4469
(dp4470
g857
g4456
sg85
g732
sg583
I475
sg858
g4452
sg66
VIS_475
p4471
sbasg583
I470
sg66
g1670
sbsg1765
(iconstruction
TP_SYNFORM
p4472
(dp4473
g583
I471
sg1768
(lp4474
(iconstruction
TP_PHON
p4475
(dp4476
g1778
I4
sg1775
I0
sg583
I476
sg1779
Vsuit
p4477
sg66
g4443
sbasg66
g1670
sbsg1786
I1
sba(iconstruction
CXN
p4478
(dp4479
g1728
(iconstruction
TP_SYMLINKS
p4480
(dp4481
g1731
(dp4482
VN1_481
p4483
VS1_483
p4484
ssg583
I479
sg66
g1670
sbsg1737
VN
p4485
sg1739
I1
sg66
VCELLO
p4486
sg1740
(iconstruction
TP_SEMFRAME
p4487
(dp4488
g96
g0
(g97
g2
Ntp4489
Rp4490
(dp4491
g101
(dp4492
(iconstruction
TP_NODE
p4493
(dp4494
g1749
I01
sg85
g741
sg66
VENT_480
p4495
sg1750
I01
sg1751
I00
sg583
I480
sb(dp4496
g1750
I01
sg85
g741
ss(iconstruction
TP_NODE
p4497
(dp4498
g1749
I00
sg85
g774
sg66
g4483
sg1750
I00
sg1751
I00
sg583
I481
sb(dp4499
g1750
I00
sg85
g774
sssg284
g285
sg286
g285
sg287
(dp4500
g4493
(dp4501
g4497
(dp4502
g85
g732
sssg4497
(dp4503
ssg481
g4500
sg96
(dp4504
sg483
g285
sg484
g4500
sg485
(dp4505
g4493
(dp4506
sg4497
(dp4507
g4493
g4502
sssbsg578
(lp4508
g4493
ag4497
asg851
(lp4509
(iconstruction
TP_REL
p4510
(dp4511
g857
g4497
sg85
g732
sg583
I482
sg858
g4493
sg66
VIS_482
p4512
sbasg583
I477
sg66
g1670
sbsg1765
(iconstruction
TP_SYNFORM
p4513
(dp4514
g583
I478
sg1768
(lp4515
(iconstruction
TP_PHON
p4516
(dp4517
g1778
I5
sg1775
I0
sg583
I483
sg1779
VCELLO
p4518
sg66
g4484
sbasg66
g1670
sbsg1786
I1
sba(iconstruction
CXN
p4519
(dp4520
g1728
(iconstruction
TP_SYMLINKS
p4521
(dp4522
g1731
(dp4523
VN1_488
p4524
VS1_490
p4525
ssg583
I486
sg66
g1670
sbsg1737
VN
p4526
sg1739
I1
sg66
VBAG
p4527
sg1740
(iconstruction
TP_SEMFRAME
p4528
(dp4529
g96
g0
(g97
g2
Ntp4530
Rp4531
(dp4532
g101
(dp4533
(iconstruction
TP_NODE
p4534
(dp4535
g1749
I00
sg85
g765
sg66
g4524
sg1750
I00
sg1751
I00
sg583
I488
sb(dp4536
g1750
I00
sg85
g765
ss(iconstruction
TP_NODE
p4537
(dp4538
g1749
I01
sg85
g741
sg66
VENT_487
p4539
sg1750
I01
sg1751
I00
sg583
I487
sb(dp4540
g1750
I01
sg85
g741
sssg284
g285
sg286
g285
sg287
(dp4541
g4534
(dp4542
sg4537
(dp4543
g4534
(dp4544
g85
g732
ssssg481
g4541
sg96
(dp4545
sg483
g285
sg484
g4541
sg485
(dp4546
g4534
(dp4547
g4537
g4544
ssg4537
(dp4548
ssbsg578
(lp4549
g4537
ag4534
asg851
(lp4550
(iconstruction
TP_REL
p4551
(dp4552
g857
g4534
sg85
g732
sg583
I489
sg858
g4537
sg66
VIS_489
p4553
sbasg583
I484
sg66
g1670
sbsg1765
(iconstruction
TP_SYNFORM
p4554
(dp4555
g583
I485
sg1768
(lp4556
(iconstruction
TP_PHON
p4557
(dp4558
g1778
I3
sg1775
I0
sg583
I490
sg1779
Vbag
p4559
sg66
g4525
sbasg66
g1670
sbsg1786
I1
sba(iconstruction
CXN
p4560
(dp4561
g1728
(iconstruction
TP_SYMLINKS
p4562
(dp4563
g1731
(dp4564
VN1_495
p4565
VS2_498
p4566
ssg583
I493
sg66
g1670
sbsg1737
VN
p4567
sg1739
I1
sg66
VWATERING_CAN
p4568
sg1740
(iconstruction
TP_SEMFRAME
p4569
(dp4570
g96
g0
(g97
g2
Ntp4571
Rp4572
(dp4573
g101
(dp4574
(iconstruction
TP_NODE
p4575
(dp4576
g1749
I01
sg85
g741
sg66
VENT_494
p4577
sg1750
I01
sg1751
I00
sg583
I494
sb(dp4578
g1750
I01
sg85
g741
ss(iconstruction
TP_NODE
p4579
(dp4580
g1749
I00
sg85
g762
sg66
g4565
sg1750
I00
sg1751
I00
sg583
I495
sb(dp4581
g1750
I00
sg85
g762
sssg284
g285
sg286
g285
sg287
(dp4582
g4575
(dp4583
g4579
(dp4584
g85
g732
sssg4579
(dp4585
ssg481
g4582
sg96
(dp4586
sg483
g285
sg484
g4582
sg485
(dp4587
g4575
(dp4588
sg4579
(dp4589
g4575
g4584
sssbsg578
(lp4590
g4575
ag4579
asg851
(lp4591
(iconstruction
TP_REL
p4592
(dp4593
g857
g4579
sg85
g732
sg583
I496
sg858
g4575
sg66
VIS_496
p4594
sbasg583
I491
sg66
g1670
sbsg1765
(iconstruction
TP_SYNFORM
p4595
(dp4596
g583
I492
sg1768
(lp4597
(iconstruction
TP_PHON
p4598
(dp4599
g1778
I8
sg1775
I0
sg583
I497
sg1779
Vwatering
p4600
sg66
VS1_497
p4601
sba(iconstruction
TP_PHON
p4602
(dp4603
g1778
I3
sg1775
I1
sg583
I498
sg1779
Vcan
p4604
sg66
g4566
sbasg66
g1670
sbsg1786
I1
sba(iconstruction
CXN
p4605
(dp4606
g1728
(iconstruction
TP_SYMLINKS
p4607
(dp4608
g1731
(dp4609
VN1_503
p4610
VS1_505
p4611
ssg583
I501
sg66
g1670
sbsg1737
VN
p4612
sg1739
I1
sg66
VBALLERINA
p4613
sg1740
(iconstruction
TP_SEMFRAME
p4614
(dp4615
g96
g0
(g97
g2
Ntp4616
Rp4617
(dp4618
g101
(dp4619
(iconstruction
TP_NODE
p4620
(dp4621
g1749
I01
sg85
g741
sg66
VENT_502
p4622
sg1750
I01
sg1751
I00
sg583
I502
sb(dp4623
g1750
I01
sg85
g741
ss(iconstruction
TP_NODE
p4624
(dp4625
g1749
I00
sg85
g819
sg66
g4610
sg1750
I00
sg1751
I00
sg583
I503
sb(dp4626
g1750
I00
sg85
g819
sssg284
g285
sg286
g285
sg287
(dp4627
g4620
(dp4628
g4624
(dp4629
g85
g732
sssg4624
(dp4630
ssg481
g4627
sg96
(dp4631
sg483
g285
sg484
g4627
sg485
(dp4632
g4620
(dp4633
sg4624
(dp4634
g4620
g4629
sssbsg578
(lp4635
g4620
ag4624
asg851
(lp4636
(iconstruction
TP_REL
p4637
(dp4638
g857
g4624
sg85
g732
sg583
I504
sg858
g4620
sg66
VIS_504
p4639
sbasg583
I499
sg66
g1670
sbsg1765
(iconstruction
TP_SYNFORM
p4640
(dp4641
g583
I500
sg1768
(lp4642
(iconstruction
TP_PHON
p4643
(dp4644
g1778
I9
sg1775
I0
sg583
I505
sg1779
Vballerina
p4645
sg66
g4611
sbasg66
g1670
sbsg1786
I1
sba(iconstruction
CXN
p4646
(dp4647
g1728
(iconstruction
TP_SYMLINKS
p4648
(dp4649
g1731
(dp4650
VN1_510
p4651
VS1_512
p4652
ssg583
I508
sg66
g1670
sbsg1737
VN
p4653
sg1739
I1
sg66
VCELLIST
p4654
sg1740
(iconstruction
TP_SEMFRAME
p4655
(dp4656
g96
g0
(g97
g2
Ntp4657
Rp4658
(dp4659
g101
(dp4660
(iconstruction
TP_NODE
p4661
(dp4662
g1749
I00
sg85
g822
sg66
g4651
sg1750
I00
sg1751
I00
sg583
I510
sb(dp4663
g1750
I00
sg85
g822
ss(iconstruction
TP_NODE
p4664
(dp4665
g1749
I01
sg85
g741
sg66
VENT_509
p4666
sg1750
I01
sg1751
I00
sg583
I509
sb(dp4667
g1750
I01
sg85
g741
sssg284
g285
sg286
g285
sg287
(dp4668
g4661
(dp4669
sg4664
(dp4670
g4661
(dp4671
g85
g732
ssssg481
g4668
sg96
(dp4672
sg483
g285
sg484
g4668
sg485
(dp4673
g4661
(dp4674
g4664
g4671
ssg4664
(dp4675
ssbsg578
(lp4676
g4664
ag4661
asg851
(lp4677
(iconstruction
TP_REL
p4678
(dp4679
g857
g4661
sg85
g732
sg583
I511
sg858
g4664
sg66
VIS_511
p4680
sbasg583
I506
sg66
g1670
sbsg1765
(iconstruction
TP_SYNFORM
p4681
(dp4682
g583
I507
sg1768
(lp4683
(iconstruction
TP_PHON
p4684
(dp4685
g1778
I7
sg1775
I0
sg583
I512
sg1779
Vcellist
p4686
sg66
g4652
sbasg66
g1670
sbsg1786
I1
sba(iconstruction
CXN
p4687
(dp4688
g1728
(iconstruction
TP_SYMLINKS
p4689
(dp4690
g1731
(dp4691
VN1_517
p4692
VS1_519
p4693
ssg583
I515
sg66
g1670
sbsg1737
VN
p4694
sg1739
I1
sg66
VFENCER
p4695
sg1740
(iconstruction
TP_SEMFRAME
p4696
(dp4697
g96
g0
(g97
g2
Ntp4698
Rp4699
(dp4700
g101
(dp4701
(iconstruction
TP_NODE
p4702
(dp4703
g1749
I01
sg85
g741
sg66
VENT_516
p4704
sg1750
I01
sg1751
I00
sg583
I516
sb(dp4705
g1750
I01
sg85
g741
ss(iconstruction
TP_NODE
p4706
(dp4707
g1749
I00
sg85
g828
sg66
g4692
sg1750
I00
sg1751
I00
sg583
I517
sb(dp4708
g1750
I00
sg85
g828
sssg284
g285
sg286
g285
sg287
(dp4709
g4702
(dp4710
g4706
(dp4711
g85
g732
sssg4706
(dp4712
ssg481
g4709
sg96
(dp4713
sg483
g285
sg484
g4709
sg485
(dp4714
g4702
(dp4715
sg4706
(dp4716
g4702
g4711
sssbsg578
(lp4717
g4702
ag4706
asg851
(lp4718
(iconstruction
TP_REL
p4719
(dp4720
g857
g4706
sg85
g732
sg583
I518
sg858
g4702
sg66
VIS_518
p4721
sbasg583
I513
sg66
g1670
sbsg1765
(iconstruction
TP_SYNFORM
p4722
(dp4723
g583
I514
sg1768
(lp4724
(iconstruction
TP_PHON
p4725
(dp4726
g1778
I6
sg1775
I0
sg583
I519
sg1779
Vfencer
p4727
sg66
g4693
sbasg66
g1670
sbsg1786
I1
sba(iconstruction
CXN
p4728
(dp4729
g1728
(iconstruction
TP_SYMLINKS
p4730
(dp4731
g1731
(dp4732
VN1_524
p4733
VS1_526
p4734
ssg583
I522
sg66
g1670
sbsg1737
VN
p4735
sg1739
I1
sg66
VROBBER
p4736
sg1740
(iconstruction
TP_SEMFRAME
p4737
(dp4738
g96
g0
(g97
g2
Ntp4739
Rp4740
(dp4741
g101
(dp4742
(iconstruction
TP_NODE
p4743
(dp4744
g1749
I01
sg85
g741
sg66
VENT_523
p4745
sg1750
I01
sg1751
I00
sg583
I523
sb(dp4746
g1750
I01
sg85
g741
ss(iconstruction
TP_NODE
p4747
(dp4748
g1749
I00
sg85
g831
sg66
g4733
sg1750
I00
sg1751
I00
sg583
I524
sb(dp4749
g1750
I00
sg85
g831
sssg284
g285
sg286
g285
sg287
(dp4750
g4743
(dp4751
g4747
(dp4752
g85
g732
sssg4747
(dp4753
ssg481
g4750
sg96
(dp4754
sg483
g285
sg484
g4750
sg485
(dp4755
g4743
(dp4756
sg4747
(dp4757
g4743
g4752
sssbsg578
(lp4758
g4743
ag4747
asg851
(lp4759
(iconstruction
TP_REL
p4760
(dp4761
g857
g4747
sg85
g732
sg583
I525
sg858
g4743
sg66
VIS_525
p4762
sbasg583
I520
sg66
g1670
sbsg1765
(iconstruction
TP_SYNFORM
p4763
(dp4764
g583
I521
sg1768
(lp4765
(iconstruction
TP_PHON
p4766
(dp4767
g1778
I5
sg1775
I0
sg583
I526
sg1779
Vthief
p4768
sg66
g4734
sbasg66
g1670
sbsg1786
I1
sba(iconstruction
CXN
p4769
(dp4770
g1728
(iconstruction
TP_SYMLINKS
p4771
(dp4772
g1731
(dp4773
VN1_531
p4774
VS1_533
p4775
ssg583
I529
sg66
g1670
sbsg1737
VN
p4776
sg1739
I1
sg66
VPOLICEMAN
p4777
sg1740
(iconstruction
TP_SEMFRAME
p4778
(dp4779
g96
g0
(g97
g2
Ntp4780
Rp4781
(dp4782
g101
(dp4783
(iconstruction
TP_NODE
p4784
(dp4785
g1749
I00
sg85
g813
sg66
g4774
sg1750
I00
sg1751
I00
sg583
I531
sb(dp4786
g1750
I00
sg85
g813
ss(iconstruction
TP_NODE
p4787
(dp4788
g1749
I01
sg85
g741
sg66
VENT_530
p4789
sg1750
I01
sg1751
I00
sg583
I530
sb(dp4790
g1750
I01
sg85
g741
sssg284
g285
sg286
g285
sg287
(dp4791
g4784
(dp4792
sg4787
(dp4793
g4784
(dp4794
g85
g732
ssssg481
g4791
sg96
(dp4795
sg483
g285
sg484
g4791
sg485
(dp4796
g4784
(dp4797
g4787
g4794
ssg4787
(dp4798
ssbsg578
(lp4799
g4787
ag4784
asg851
(lp4800
(iconstruction
TP_REL
p4801
(dp4802
g857
g4784
sg85
g732
sg583
I532
sg858
g4787
sg66
VIS_532
p4803
sbasg583
I527
sg66
g1670
sbsg1765
(iconstruction
TP_SYNFORM
p4804
(dp4805
g583
I528
sg1768
(lp4806
(iconstruction
TP_PHON
p4807
(dp4808
g1778
I9
sg1775
I0
sg583
I533
sg1779
Vpoliceman
p4809
sg66
g4775
sbasg66
g1670
sbsg1786
I1
sba(iconstruction
CXN
p4810
(dp4811
g1728
(iconstruction
TP_SYMLINKS
p4812
(dp4813
g1731
(dp4814
VN1_538
p4815
VS1_540
p4816
ssg583
I536
sg66
g1670
sbsg1737
VN
p4817
sg1739
I1
sg66
VHUNTER
p4818
sg1740
(iconstruction
TP_SEMFRAME
p4819
(dp4820
g96
g0
(g97
g2
Ntp4821
Rp4822
(dp4823
g101
(dp4824
(iconstruction
TP_NODE
p4825
(dp4826
g1749
I01
sg85
g741
sg66
VENT_537
p4827
sg1750
I01
sg1751
I00
sg583
I537
sb(dp4828
g1750
I01
sg85
g741
ss(iconstruction
TP_NODE
p4829
(dp4830
g1749
I00
sg85
g816
sg66
g4815
sg1750
I00
sg1751
I00
sg583
I538
sb(dp4831
g1750
I00
sg85
g816
sssg284
g285
sg286
g285
sg287
(dp4832
g4825
(dp4833
g4829
(dp4834
g85
g732
sssg4829
(dp4835
ssg481
g4832
sg96
(dp4836
sg483
g285
sg484
g4832
sg485
(dp4837
g4825
(dp4838
sg4829
(dp4839
g4825
g4834
sssbsg578
(lp4840
g4825
ag4829
asg851
(lp4841
(iconstruction
TP_REL
p4842
(dp4843
g857
g4829
sg85
g732
sg583
I539
sg858
g4825
sg66
VIS_539
p4844
sbasg583
I534
sg66
g1670
sbsg1765
(iconstruction
TP_SYNFORM
p4845
(dp4846
g583
I535
sg1768
(lp4847
(iconstruction
TP_PHON
p4848
(dp4849
g1778
I6
sg1775
I0
sg583
I540
sg1779
Vhunter
p4850
sg66
g4816
sbasg66
g1670
sbsg1786
I1
sba(iconstruction
CXN
p4851
(dp4852
g1728
(iconstruction
TP_SYMLINKS
p4853
(dp4854
g1731
(dp4855
VN1_545
p4856
VS1_547
p4857
ssg583
I543
sg66
g1670
sbsg1737
VN
p4858
sg1739
I1
sg66
VDOG
p4859
sg1740
(iconstruction
TP_SEMFRAME
p4860
(dp4861
g96
g0
(g97
g2
Ntp4862
Rp4863
(dp4864
g101
(dp4865
(iconstruction
TP_NODE
p4866
(dp4867
g1749
I00
sg85
g801
sg66
g4856
sg1750
I00
sg1751
I00
sg583
I545
sb(dp4868
g1750
I00
sg85
g801
ss(iconstruction
TP_NODE
p4869
(dp4870
g1749
I01
sg85
g741
sg66
VENT_544
p4871
sg1750
I01
sg1751
I00
sg583
I544
sb(dp4872
g1750
I01
sg85
g741
sssg284
g285
sg286
g285
sg287
(dp4873
g4866
(dp4874
sg4869
(dp4875
g4866
(dp4876
g85
g732
ssssg481
g4873
sg96
(dp4877
sg483
g285
sg484
g4873
sg485
(dp4878
g4866
(dp4879
g4869
g4876
ssg4869
(dp4880
ssbsg578
(lp4881
g4869
ag4866
asg851
(lp4882
(iconstruction
TP_REL
p4883
(dp4884
g857
g4866
sg85
g732
sg583
I546
sg858
g4869
sg66
VIS_546
p4885
sbasg583
I541
sg66
g1670
sbsg1765
(iconstruction
TP_SYNFORM
p4886
(dp4887
g583
I542
sg1768
(lp4888
(iconstruction
TP_PHON
p4889
(dp4890
g1778
I3
sg1775
I0
sg583
I547
sg1779
Vdog
p4891
sg66
g4857
sbasg66
g1670
sbsg1786
I1
sba(iconstruction
CXN
p4892
(dp4893
g1728
(iconstruction
TP_SYMLINKS
p4894
(dp4895
g1731
(dp4896
VN1_552
p4897
VS1_554
p4898
ssg583
I550
sg66
g1670
sbsg1737
VN
p4899
sg1739
I1
sg66
VHOOK
p4900
sg1740
(iconstruction
TP_SEMFRAME
p4901
(dp4902
g96
g0
(g97
g2
Ntp4903
Rp4904
(dp4905
g101
(dp4906
(iconstruction
TP_NODE
p4907
(dp4908
g1749
I01
sg85
g741
sg66
VENT_551
p4909
sg1750
I01
sg1751
I00
sg583
I551
sb(dp4910
g1750
I01
sg85
g741
ss(iconstruction
TP_NODE
p4911
(dp4912
g1749
I00
sg85
g771
sg66
g4897
sg1750
I00
sg1751
I00
sg583
I552
sb(dp4913
g1750
I00
sg85
g771
sssg284
g285
sg286
g285
sg287
(dp4914
g4907
(dp4915
g4911
(dp4916
g85
g732
sssg4911
(dp4917
ssg481
g4914
sg96
(dp4918
sg483
g285
sg484
g4914
sg485
(dp4919
g4907
(dp4920
sg4911
(dp4921
g4907
g4916
sssbsg578
(lp4922
g4907
ag4911
asg851
(lp4923
(iconstruction
TP_REL
p4924
(dp4925
g857
g4911
sg85
g732
sg583
I553
sg858
g4907
sg66
VIS_553
p4926
sbasg583
I548
sg66
g1670
sbsg1765
(iconstruction
TP_SYNFORM
p4927
(dp4928
g583
I549
sg1768
(lp4929
(iconstruction
TP_PHON
p4930
(dp4931
g1778
I4
sg1775
I0
sg583
I554
sg1779
Vhook
p4932
sg66
g4898
sbasg66
g1670
sbsg1786
I1
sba(iconstruction
CXN
p4933
(dp4934
g1728
(iconstruction
TP_SYMLINKS
p4935
(dp4936
g1731
(dp4937
VN1_559
p4938
VS1_561
p4939
ssg583
I557
sg66
g1670
sbsg1737
VN
p4940
sg1739
I1
sg66
VBOOKSHELF
p4941
sg1740
(iconstruction
TP_SEMFRAME
p4942
(dp4943
g96
g0
(g97
g2
Ntp4944
Rp4945
(dp4946
g101
(dp4947
(iconstruction
TP_NODE
p4948
(dp4949
g1749
I01
sg85
g741
sg66
VENT_558
p4950
sg1750
I01
sg1751
I00
sg583
I558
sb(dp4951
g1750
I01
sg85
g741
ss(iconstruction
TP_NODE
p4952
(dp4953
g1749
I00
sg85
g777
sg66
g4938
sg1750
I00
sg1751
I00
sg583
I559
sb(dp4954
g1750
I00
sg85
g777
sssg284
g285
sg286
g285
sg287
(dp4955
g4948
(dp4956
g4952
(dp4957
g85
g732
sssg4952
(dp4958
ssg481
g4955
sg96
(dp4959
sg483
g285
sg484
g4955
sg485
(dp4960
g4948
(dp4961
sg4952
(dp4962
g4948
g4957
sssbsg578
(lp4963
g4948
ag4952
asg851
(lp4964
(iconstruction
TP_REL
p4965
(dp4966
g857
g4952
sg85
g732
sg583
I560
sg858
g4948
sg66
VIS_560
p4967
sbasg583
I555
sg66
g1670
sbsg1765
(iconstruction
TP_SYNFORM
p4968
(dp4969
g583
I556
sg1768
(lp4970
(iconstruction
TP_PHON
p4971
(dp4972
g1778
I9
sg1775
I0
sg583
I561
sg1779
Vbookshelf
p4973
sg66
g4939
sbasg66
g1670
sbsg1786
I1
sba(iconstruction
CXN
p4974
(dp4975
g1728
(iconstruction
TP_SYMLINKS
p4976
(dp4977
g1731
(dp4978
VN1_566
p4979
VS1_568
p4980
ssg583
I564
sg66
g1670
sbsg1737
VN
p4981
sg1739
I1
sg66
VWAGON
p4982
sg1740
(iconstruction
TP_SEMFRAME
p4983
(dp4984
g96
g0
(g97
g2
Ntp4985
Rp4986
(dp4987
g101
(dp4988
(iconstruction
TP_NODE
p4989
(dp4990
g1749
I00
sg85
g759
sg66
g4979
sg1750
I00
sg1751
I00
sg583
I566
sb(dp4991
g1750
I00
sg85
g759
ss(iconstruction
TP_NODE
p4992
(dp4993
g1749
I01
sg85
g741
sg66
VENT_565
p4994
sg1750
I01
sg1751
I00
sg583
I565
sb(dp4995
g1750
I01
sg85
g741
sssg284
g285
sg286
g285
sg287
(dp4996
g4989
(dp4997
sg4992
(dp4998
g4989
(dp4999
g85
g732
ssssg481
g4996
sg96
(dp5000
sg483
g285
sg484
g4996
sg485
(dp5001
g4989
(dp5002
g4992
g4999
ssg4992
(dp5003
ssbsg578
(lp5004
g4992
ag4989
asg851
(lp5005
(iconstruction
TP_REL
p5006
(dp5007
g857
g4989
sg85
g732
sg583
I567
sg858
g4992
sg66
VIS_567
p5008
sbasg583
I562
sg66
g1670
sbsg1765
(iconstruction
TP_SYNFORM
p5009
(dp5010
g583
I563
sg1768
(lp5011
(iconstruction
TP_PHON
p5012
(dp5013
g1778
I5
sg1775
I0
sg583
I568
sg1779
Vwagon
p5014
sg66
g4980
sbasg66
g1670
sbsg1786
I1
sba(iconstruction
CXN
p5015
(dp5016
g1728
(iconstruction
TP_SYMLINKS
p5017
(dp5018
g1731
(dp5019
VN1_573
p5020
VS1_575
p5021
ssg583
I571
sg66
g1670
sbsg1737
VN
p5022
sg1739
I1
sg66
VTREE
p5023
sg1740
(iconstruction
TP_SEMFRAME
p5024
(dp5025
g96
g0
(g97
g2
Ntp5026
Rp5027
(dp5028
g101
(dp5029
(iconstruction
TP_NODE
p5030
(dp5031
g1749
I01
sg85
g741
sg66
VENT_572
p5032
sg1750
I01
sg1751
I00
sg583
I572
sb(dp5033
g1750
I01
sg85
g741
ss(iconstruction
TP_NODE
p5034
(dp5035
g1749
I00
sg85
g768
sg66
g5020
sg1750
I00
sg1751
I00
sg583
I573
sb(dp5036
g1750
I00
sg85
g768
sssg284
g285
sg286
g285
sg287
(dp5037
g5030
(dp5038
g5034
(dp5039
g85
g732
sssg5034
(dp5040
ssg481
g5037
sg96
(dp5041
sg483
g285
sg484
g5037
sg485
(dp5042
g5030
(dp5043
sg5034
(dp5044
g5030
g5039
sssbsg578
(lp5045
g5030
ag5034
asg851
(lp5046
(iconstruction
TP_REL
p5047
(dp5048
g857
g5034
sg85
g732
sg583
I574
sg858
g5030
sg66
VIS_574
p5049
sbasg583
I569
sg66
g1670
sbsg1765
(iconstruction
TP_SYNFORM
p5050
(dp5051
g583
I570
sg1768
(lp5052
(iconstruction
TP_PHON
p5053
(dp5054
g1778
I4
sg1775
I0
sg583
I575
sg1779
Vtree
p5055
sg66
g5021
sbasg66
g1670
sbsg1786
I1
sbasbsg66
g1683
sg68
(lp5056
g0
(g70
g2
Ntp5057
Rp5058
(dp5059
g1572
Nsg66
g1578
sg75
Nsg76
Nsg1574
Nsg293
g1517
sg583
I20
sg1518
g1789
sbag0
(g70
g2
Ntp5060
Rp5061
(dp5062
g66
S'to_cxn_retrieval_C'
p5063
sg75
Nsg76
g1720
sg293
g1517
sg583
I21
sg1518
g1789
sbasg1523
(dp5064
g1578
Nsg5063
Nssg1525
(lp5065
sg1528
F1.0
sg1529
(lp5066
sg1531
(dp5067
g1156
F0.3
ssg1533
I0
sg1534
I0
sg1154
g1537
sg583
I4
sS'schemas'
p5068
g1720
sbsg1156
F0.3
sbag0
(g1721
g2
Ntp5069
Rp5070
(dp5071
g66
g1807
sg83
g1797
sg1154
Nsg583
I100
sg1155
g1789
sg1156
F0.3
sbag0
(g1721
g2
Ntp5072
Rp5073
(dp5074
g66
g1858
sg83
g1848
sg1154
Nsg583
I101
sg1155
g1789
sg1156
F0.3
sbag0
(g1721
g2
Ntp5075
Rp5076
(dp5077
g66
g1911
sg83
g1899
sg1154
Nsg583
I102
sg1155
g1789
sg1156
F0.3
sbag0
(g1721
g2
Ntp5078
Rp5079
(dp5080
g66
g1990
sg83
g1978
sg1154
Nsg583
I103
sg1155
g1789
sg1156
F0.3
sbag0
(g1721
g2
Ntp5081
Rp5082
(dp5083
g66
g2067
sg83
g2053
sg1154
Nsg583
I104
sg1155
g1789
sg1156
F0.3
sbag0
(g1721
g2
Ntp5084
Rp5085
(dp5086
g66
g2158
sg83
g2144
sg1154
Nsg583
I105
sg1155
g1789
sg1156
F0.3
sbag0
(g1721
g2
Ntp5087
Rp5088
(dp5089
g66
g2249
sg83
g2239
sg1154
Nsg583
I106
sg1155
g1789
sg1156
F0.3
sbag0
(g1721
g2
Ntp5090
Rp5091
(dp5092
g66
g2311
sg83
g2301
sg1154
Nsg583
I107
sg1155
g1789
sg1156
F0.3
sbag0
(g1721
g2
Ntp5093
Rp5094
(dp5095
g66
g2370
sg83
g2360
sg1154
Nsg583
I108
sg1155
g1789
sg1156
F0.3
sbag0
(g1721
g2
Ntp5096
Rp5097
(dp5098
g66
g2422
sg83
g2412
sg1154
Nsg583
I109
sg1155
g1789
sg1156
F0.3
sbag0
(g1721
g2
Ntp5099
Rp5100
(dp5101
g66
g2469
sg83
g2459
sg1154
Nsg583
I110
sg1155
g1789
sg1156
F0.3
sbag0
(g1721
g2
Ntp5102
Rp5103
(dp5104
g66
g2518
sg83
g2506
sg1154
Nsg583
I111
sg1155
g1789
sg1156
F0.3
sbag0
(g1721
g2
Ntp5105
Rp5106
(dp5107
g66
g2598
sg83
g2588
sg1154
Nsg583
I112
sg1155
g1789
sg1156
F0.3
sbag0
(g1721
g2
Ntp5108
Rp5109
(dp5110
g66
g2666
sg83
g2654
sg1154
Nsg583
I113
sg1155
g1789
sg1156
F0.3
sbag0
(g1721
g2
Ntp5111
Rp5112
(dp5113
g66
g2760
sg83
g2748
sg1154
Nsg583
I114
sg1155
g1789
sg1156
F0.3
sbag0
(g1721
g2
Ntp5114
Rp5115
(dp5116
g66
g2842
sg83
g2830
sg1154
Nsg583
I115
sg1155
g1789
sg1156
F0.3
sbag0
(g1721
g2
Ntp5117
Rp5118
(dp5119
g66
g2934
sg83
g2924
sg1154
Nsg583
I116
sg1155
g1789
sg1156
F0.3
sbag0
(g1721
g2
Ntp5120
Rp5121
(dp5122
g66
g2999
sg83
g2989
sg1154
Nsg583
I117
sg1155
g1789
sg1156
F0.3
sbag0
(g1721
g2
Ntp5123
Rp5124
(dp5125
g66
g3078
sg83
g3070
sg1154
Nsg583
I118
sg1155
g1789
sg1156
F0.3
sbag0
(g1721
g2
Ntp5126
Rp5127
(dp5128
g66
g3119
sg83
g3111
sg1154
Nsg583
I119
sg1155
g1789
sg1156
F0.3
sbag0
(g1721
g2
Ntp5129
Rp5130
(dp5131
g66
g3160
sg83
g3152
sg1154
Nsg583
I120
sg1155
g1789
sg1156
F0.3
sbag0
(g1721
g2
Ntp5132
Rp5133
(dp5134
g66
g3201
sg83
g3193
sg1154
Nsg583
I121
sg1155
g1789
sg1156
F0.3
sbag0
(g1721
g2
Ntp5135
Rp5136
(dp5137
g66
g3242
sg83
g3234
sg1154
Nsg583
I122
sg1155
g1789
sg1156
F0.3
sbag0
(g1721
g2
Ntp5138
Rp5139
(dp5140
g66
g3283
sg83
g3275
sg1154
Nsg583
I123
sg1155
g1789
sg1156
F0.3
sbag0
(g1721
g2
Ntp5141
Rp5142
(dp5143
g66
g3324
sg83
g3316
sg1154
Nsg583
I124
sg1155
g1789
sg1156
F0.3
sbag0
(g1721
g2
Ntp5144
Rp5145
(dp5146
g66
g3369
sg83
g3361
sg1154
Nsg583
I125
sg1155
g1789
sg1156
F0.3
sbag0
(g1721
g2
Ntp5147
Rp5148
(dp5149
g66
g3414
sg83
g3406
sg1154
Nsg583
I126
sg1155
g1789
sg1156
F0.3
sbag0
(g1721
g2
Ntp5150
Rp5151
(dp5152
g66
g3455
sg83
g3447
sg1154
Nsg583
I127
sg1155
g1789
sg1156
F0.3
sbag0
(g1721
g2
Ntp5153
Rp5154
(dp5155
g66
g3496
sg83
g3488
sg1154
Nsg583
I128
sg1155
g1789
sg1156
F0.3
sbag0
(g1721
g2
Ntp5156
Rp5157
(dp5158
g66
g3537
sg83
g3529
sg1154
Nsg583
I129
sg1155
g1789
sg1156
F0.3
sbag0
(g1721
g2
Ntp5159
Rp5160
(dp5161
g66
g3578
sg83
g3570
sg1154
Nsg583
I130
sg1155
g1789
sg1156
F0.3
sbag0
(g1721
g2
Ntp5162
Rp5163
(dp5164
g66
g3619
sg83
g3611
sg1154
Nsg583
I131
sg1155
g1789
sg1156
F0.3
sbag0
(g1721
g2
Ntp5165
Rp5166
(dp5167
g66
g3660
sg83
g3652
sg1154
Nsg583
I132
sg1155
g1789
sg1156
F0.3
sbag0
(g1721
g2
Ntp5168
Rp5169
(dp5170
g66
g3691
sg83
g3683
sg1154
Nsg583
I133
sg1155
g1789
sg1156
F0.3
sbag0
(g1721
g2
Ntp5171
Rp5172
(dp5173
g66
g3722
sg83
g3714
sg1154
Nsg583
I134
sg1155
g1789
sg1156
F0.3
sbag0
(g1721
g2
Ntp5174
Rp5175
(dp5176
g66
g3753
sg83
g3745
sg1154
Nsg583
I135
sg1155
g1789
sg1156
F0.3
sbag0
(g1721
g2
Ntp5177
Rp5178
(dp5179
g66
g3784
sg83
g3776
sg1154
Nsg583
I136
sg1155
g1789
sg1156
F0.3
sbag0
(g1721
g2
Ntp5180
Rp5181
(dp5182
g66
g3815
sg83
g3807
sg1154
Nsg583
I137
sg1155
g1789
sg1156
F0.3
sbag0
(g1721
g2
Ntp5183
Rp5184
(dp5185
g66
g3846
sg83
g3838
sg1154
Nsg583
I138
sg1155
g1789
sg1156
F0.3
sbag0
(g1721
g2
Ntp5186
Rp5187
(dp5188
g66
g3877
sg83
g3869
sg1154
Nsg583
I139
sg1155
g1789
sg1156
F0.3
sbag0
(g1721
g2
Ntp5189
Rp5190
(dp5191
g66
g3908
sg83
g3900
sg1154
Nsg583
I140
sg1155
g1789
sg1156
F0.3
sbag0
(g1721
g2
Ntp5192
Rp5193
(dp5194
g66
g3949
sg83
g3941
sg1154
Nsg583
I141
sg1155
g1789
sg1156
F0.3
sbag0
(g1721
g2
Ntp5195
Rp5196
(dp5197
g66
g3990
sg83
g3982
sg1154
Nsg583
I142
sg1155
g1789
sg1156
F0.3
sbag0
(g1721
g2
Ntp5198
Rp5199
(dp5200
g66
g4031
sg83
g4023
sg1154
Nsg583
I143
sg1155
g1789
sg1156
F0.3
sbag0
(g1721
g2
Ntp5201
Rp5202
(dp5203
g66
g4072
sg83
g4064
sg1154
Nsg583
I144
sg1155
g1789
sg1156
F0.3
sbag0
(g1721
g2
Ntp5204
Rp5205
(dp5206
g66
g4113
sg83
g4105
sg1154
Nsg583
I145
sg1155
g1789
sg1156
F0.3
sbag0
(g1721
g2
Ntp5207
Rp5208
(dp5209
g66
g4154
sg83
g4146
sg1154
Nsg583
I146
sg1155
g1789
sg1156
F0.3
sbag0
(g1721
g2
Ntp5210
Rp5211
(dp5212
g66
g4195
sg83
g4187
sg1154
Nsg583
I147
sg1155
g1789
sg1156
F0.3
sbag0
(g1721
g2
Ntp5213
Rp5214
(dp5215
g66
g4236
sg83
g4228
sg1154
Nsg583
I148
sg1155
g1789
sg1156
F0.3
sbag0
(g1721
g2
Ntp5216
Rp5217
(dp5218
g66
g4277
sg83
g4269
sg1154
Nsg583
I149
sg1155
g1789
sg1156
F0.3
sbag0
(g1721
g2
Ntp5219
Rp5220
(dp5221
g66
g4318
sg83
g4310
sg1154
Nsg583
I150
sg1155
g1789
sg1156
F0.3
sbag0
(g1721
g2
Ntp5222
Rp5223
(dp5224
g66
g4363
sg83
g4355
sg1154
Nsg583
I151
sg1155
g1789
sg1156
F0.3
sbag0
(g1721
g2
Ntp5225
Rp5226
(dp5227
g66
g4404
sg83
g4396
sg1154
Nsg583
I152
sg1155
g1789
sg1156
F0.3
sbag0
(g1721
g2
Ntp5228
Rp5229
(dp5230
g66
g4445
sg83
g4437
sg1154
Nsg583
I153
sg1155
g1789
sg1156
F0.3
sbag0
(g1721
g2
Ntp5231
Rp5232
(dp5233
g66
g4486
sg83
g4478
sg1154
Nsg583
I154
sg1155
g1789
sg1156
F0.3
sbag0
(g1721
g2
Ntp5234
Rp5235
(dp5236
g66
g4527
sg83
g4519
sg1154
Nsg583
I155
sg1155
g1789
sg1156
F0.3
sbag0
(g1721
g2
Ntp5237
Rp5238
(dp5239
g66
g4568
sg83
g4560
sg1154
Nsg583
I156
sg1155
g1789
sg1156
F0.3
sbag0
(g1721
g2
Ntp5240
Rp5241
(dp5242
g66
g4613
sg83
g4605
sg1154
Nsg583
I157
sg1155
g1789
sg1156
F0.3
sbag0
(g1721
g2
Ntp5243
Rp5244
(dp5245
g66
g4654
sg83
g4646
sg1154
Nsg583
I158
sg1155
g1789
sg1156
F0.3
sbag0
(g1721
g2
Ntp5246
Rp5247
(dp5248
g66
g4695
sg83
g4687
sg1154
Nsg583
I159
sg1155
g1789
sg1156
F0.3
sbag0
(g1721
g2
Ntp5249
Rp5250
(dp5251
g66
g4736
sg83
g4728
sg1154
Nsg583
I160
sg1155
g1789
sg1156
F0.3
sbag0
(g1721
g2
Ntp5252
Rp5253
(dp5254
g66
g4777
sg83
g4769
sg1154
Nsg583
I161
sg1155
g1789
sg1156
F0.3
sbag0
(g1721
g2
Ntp5255
Rp5256
(dp5257
g66
g4818
sg83
g4810
sg1154
Nsg583
I162
sg1155
g1789
sg1156
F0.3
sbag0
(g1721
g2
Ntp5258
Rp5259
(dp5260
g66
g4859
sg83
g4851
sg1154
Nsg583
I163
sg1155
g1789
sg1156
F0.3
sbag0
(g1721
g2
Ntp5261
Rp5262
(dp5263
g66
g4900
sg83
g4892
sg1154
Nsg583
I164
sg1155
g1789
sg1156
F0.3
sbag0
(g1721
g2
Ntp5264
Rp5265
(dp5266
g66
g4941
sg83
g4933
sg1154
Nsg583
I165
sg1155
g1789
sg1156
F0.3
sbag0
(g1721
g2
Ntp5267
Rp5268
(dp5269
g66
g4982
sg83
g4974
sg1154
Nsg583
I166
sg1155
g1789
sg1156
F0.3
sbag0
(g1721
g2
Ntp5270
Rp5271
(dp5272
g66
g5023
sg83
g5015
sg1154
Nsg583
I167
sg1155
g1789
sg1156
F0.3
sbasg1574
Nsg293
g1553
sg583
I22
sg1518
g1705
sbag1700
asg1531
(dp5273
sg1533
I0
sg1534
I0
sg1154
g1537
sg583
I5
sbsbsS'port_from'
p5274
g1576
sg1154
g1537
sg583
I1
sbag0
(g1692
g2
Ntp5275
Rp5276
(dp5277
g1696
I0
sg66
g1670
sg1697
I0
sg1698
g1718
sg5274
g5058
sg1154
g1537
sg583
I2
sbag0
(g1692
g2
Ntp5278
Rp5279
(dp5280
g1696
I0
sg66
g1670
sg1697
I0
sg1698
g0
(g70
g2
Ntp5281
Rp5282
(dp5283
g1572
Nsg66
S'from_cxn_retrieval_P'
p5284
sg75
Nsg76
Nsg1574
Nsg293
g1553
sg583
I14
sg1518
g0
(clanguage_schemas
GRAMMATICAL_WM_P
p5285
g2
Ntp5286
Rp5287
(dp5288
g64
(dp5289
g5284
NsS'from_phonological_WM_P'
p5290
Nsg1702
Nsg1561
Nssg1563
(lp5291
sg66
g1679
sg1566
(lp5292
sg68
(lp5293
g0
(g70
g2
Ntp5294
Rp5295
(dp5296
g1572
Nsg66
g1522
sg75
Nsg76
Nsg1574
Nsg293
g1517
sg583
I17
sg1518
g5287
sbag0
(g70
g2
Ntp5297
Rp5298
(dp5299
g1572
Nsg66
S'to_phonological_WM_P'
p5300
sg75
Nsg76
Nsg1574
Nsg293
g1517
sg583
I18
sg1518
g5287
sbag0
(g70
g2
Ntp5301
Rp5302
(dp5303
g66
g1590
sg75
Nsg76
Nsg293
g1517
sg583
I19
sg1518
g5287
sbasg1523
(dp5304
g1590
Nsg5300
Nsg1522
NssS'time_to_next_prod'
p5305
I8
sg1528
F1.0
sg1592
(lp5306
sg1529
(lp5307
g0
(g70
g2
Ntp5308
Rp5309
(dp5310
g1572
Nsg66
g1702
sg75
Nsg76
(dp5311
g578
(dp5312
sg851
(dp5313
ssg1574
Nsg293
g1553
sg583
I13
sg1518
g5287
sbag5282
ag0
(g70
g2
Ntp5314
Rp5315
(dp5316
g1572
Nsg66
g1561
sg75
Nsg76
(dp5317
S'params_style'
p5318
(dp5319
S'continuity'
p5320
F0.3
sS'form_length'
p5321
F0.0
sS'sem_length'
p5322
F0.0
sS'activation'
p5323
F0.7
ssS'pressure'
p5324
I0
sg1607
I00
ssg1574
Nsg293
g1553
sg583
I15
sg1518
g5287
sbag0
(g70
g2
Ntp5325
Rp5326
(dp5327
g1572
Nsg66
g5290
sg75
Nsg76
(lp5328
g4063
ag3151
ag4022
asg1574
Nsg293
g1553
sg583
I16
sg1518
g5287
sbasS'refractory_period'
p5329
I10
sg1608
(dp5330
g1610
(dp5331
sg1612
(dp5332
g1614
(lp5333
sg1616
(dp5334
g1618
(lp5335
sg1620
(lp5336
sg1622
(lp5337
ssg1624
(lp5338
sg1533
(lp5339
sg1627
(lp5340
sssg1531
(dp5341
g1630
(dp5342
g1636
F1.0
sg1637
F1.0
sS'sub_threshold_r'
p5343
F0.8
sg1639
F0.0
sS'deact_weight'
p5344
F0.0
sg1638
F0.3
sg1640
F0.01
sg5329
I10
sg1632
F1.0
sg1633
Nsg1634
F-10.0
sg1635
F1.0
ssg1641
(dp5345
g1643
I1000
sg1644
I10
sg1645
F0.001
sg1646
F0.0
sg1647
F1.0
sg1648
F1.0
sg1649
F1.0
ssS'style'
p5346
(dp5347
g5320
F0.3
sg5321
F0.0
sg5322
F0.0
sg5323
F0.7
sssg1533
I0
sg1534
I0
sg1154
g1537
sg583
I3
sbsbsg5274
g1711
sg1154
g1537
sg583
I3
sbag0
(g1692
g2
Ntp5348
Rp5349
(dp5350
g1696
I0
sg66
g1670
sg1697
I0
sg1698
g5309
sg5274
g1570
sg1154
g1537
sg583
I4
sbag0
(g1692
g2
Ntp5351
Rp5352
(dp5353
g1696
I0
sg66
g1670
sg1697
I0
sg1698
g1602
sg5274
g5295
sg1154
g1537
sg583
I5
sbag0
(g1692
g2
Ntp5354
Rp5355
(dp5356
g1696
I0
sg66
g1670
sg1697
I0
sg1698
g0
(g70
g2
Ntp5357
Rp5358
(dp5359
g1572
Nsg66
g1559
sg75
Nsg76
Nsg1574
Nsg293
g1553
sg583
I25
sg1518
g0
(clanguage_schemas
PHON_WM_P
p5360
g2
Ntp5361
Rp5362
(dp5363
g64
(dp5364
g1559
Nssg1563
(lp5365
sg66
g1675
sg1566
(lp5366
sg68
(lp5367
g0
(g70
g2
Ntp5368
Rp5369
(dp5370
g1572
Nsg66
S'to_utter'
p5371
sg75
Nsg76
Nsg1574
Nsg293
g1517
sg583
I26
sg1518
g5362
sbag0
(g70
g2
Ntp5372
Rp5373
(dp5374
g1572
Nsg66
g1573
sg75
Nsg76
Nsg1574
Nsg293
g1517
sg583
I27
sg1518
g5362
sbag0
(g70
g2
Ntp5375
Rp5376
(dp5377
g1572
Nsg66
g1582
sg75
Nsg76
Nsg1574
Nsg293
g1517
sg583
I28
sg1518
g5362
sbag0
(g70
g2
Ntp5378
Rp5379
(dp5380
g66
g1590
sg75
Nsg76
Nsg293
g1517
sg583
I29
sg1518
g5362
sbasg1523
(dp5381
g1590
Nsg1573
Nsg5371
Nsg1582
NssS'needs_filler'
p5382
I01
sg1528
F1.0
sg1592
(lp5383
sg1529
(lp5384
g5358
asS'filler'
p5385
S'....'
p5386
sg1608
(dp5387
g1610
(dp5388
sg1612
(dp5389
g1614
(lp5390
sg1616
(dp5391
g1618
(lp5392
sg1620
(lp5393
sg1622
(lp5394
ssg1624
(lp5395
sg1533
(lp5396
sg1627
(lp5397
sssg1531
(dp5398
g1630
(dp5399
g1632
F1.0
sg1633
Nsg1634
F0.0
sg1635
F1.0
sg1636
F1.0
sg1637
F0.0
sg1638
F0.0
sg1639
F0.0
sg1640
F0.01
ssg1641
(dp5400
g1643
F100.0
sg1644
F10.0
sg1645
F0.001
sg1646
F0.0
sg1647
F1.0
sg1648
F1.0
sg1649
F1.0
sssg1533
I0
sg1534
I0
sg1154
g1537
sS'phon_sequence'
p5401
(lp5402
sg583
I6
sbsbsg5274
g5298
sg1154
g1537
sg583
I6
sbag0
(g1692
g2
Ntp5403
Rp5404
(dp5405
g1696
I0
sg66
g1670
sg1697
I0
sg1698
g5326
sg5274
g5373
sg1154
g1537
sg583
I7
sbag0
(g1692
g2
Ntp5406
Rp5407
(dp5408
g1696
I0
sg66
g1670
sg1697
I0
sg1698
g0
(g70
g2
Ntp5409
Rp5410
(dp5411
g1572
Nsg66
g1702
sg75
Nsg76
I00
sg1574
Nsg293
g1553
sg583
I32
sg1518
g0
(clanguage_schemas
CONTROL
p5412
g2
Ntp5413
Rp5414
(dp5415
g64
(dp5416
g5290
Nsg1702
Nssg66
g1665
sg68
(lp5417
g0
(g70
g2
Ntp5418
Rp5419
(dp5420
g1572
Nsg66
g1522
sg75
Nsg76
Nsg1574
Nsg293
g1517
sg583
I34
sg1518
g5414
sbag0
(g70
g2
Ntp5421
Rp5422
(dp5423
g1572
Nsg66
g1573
sg75
Nsg76
Nsg1574
Nsg293
g1517
sg583
I35
sg1518
g5414
sbag0
(g70
g2
Ntp5424
Rp5425
(dp5426
g66
S'to_grammatical_WM_C'
p5427
sg75
Nsg76
I00
sg293
g1517
sg583
I36
sg1518
g5414
sbasg1523
(dp5428
g1573
Nsg5427
Nsg1522
Nssg1528
F1.0
sg1529
(lp5429
g5410
ag0
(g70
g2
Ntp5430
Rp5431
(dp5432
g1572
Nsg66
g5290
sg75
Nsg76
Nsg1574
Nsg293
g1553
sg583
I33
sg1518
g5414
sbasS'state'
p5433
(dp5434
g1607
I00
sS'unexpressed_sem'
p5435
I00
sS'mode'
p5436
g1607
sS'last_prod_time'
p5437
I0
ssg1531
(dp5438
g5346
(dp5439
g5320
F0.3
sg5321
F0.0
sg5323
F0.7
sg5322
F0.0
ssS'task'
p5440
(dp5441
S'time_pressure'
p5442
I500
sS'start_produce'
p5443
I10
sssg1533
I0
sg1534
I0
sg1154
g1537
sg583
I8
sbsbsg5274
g1580
sg1154
g1537
sg583
I8
sbag0
(g1692
g2
Ntp5444
Rp5445
(dp5446
g1696
I0
sg66
g1670
sg1697
I0
sg1698
g0
(g70
g2
Ntp5447
Rp5448
(dp5449
g1572
Nsg66
g5290
sg75
Nsg76
Nsg1574
Nsg293
g1553
sg583
I30
sg1518
g0
(clanguage_schemas
UTTER
p5450
g2
Ntp5451
Rp5452
(dp5453
g64
(dp5454
g5290
Nssg66
g1668
sg68
(lp5455
g0
(g70
g2
Ntp5456
Rp5457
(dp5458
g66
g1590
sg75
Nsg76
Nsg293
g1517
sg583
I31
sg1518
g5452
sbasg1523
(dp5459
g1590
NssS'utterance_stack'
p5460
(lp5461
sg1528
F1.0
sg1529
(lp5462
g5448
asg1531
(dp5463
S'speech_rate'
p5464
F1.0
ssg1533
I0
sg1534
I0
sg1154
g1537
sg583
I7
sbsbsg5274
g5369
sg1154
g1537
sg583
I9
sbag0
(g1692
g2
Ntp5465
Rp5466
(dp5467
g1696
I0
sg66
g1670
sg1697
I0
sg1698
g5431
sg5274
g5376
sg1154
g1537
sg583
I10
sbag0
(g1692
g2
Ntp5468
Rp5469
(dp5470
g1696
I0
sg66
g1670
sg1697
I0
sg1698
g5315
sg5274
g5422
sg1154
g1537
sg583
I11
sbag0
(g1692
g2
Ntp5471
Rp5472
(dp5473
g1696
I0
sg66
g1670
sg1697
I0
sg1698
g1605
sg5274
g5419
sg1154
g1537
sg583
I12
sbasg1531
(dp5474
g1665
g5438
sg1675
g5398
sg67
g1532
sg1683
g5067
sg1687
g5273
sg1565
g1629
sg1668
g5463
sg1679
g5341
ssg1533
F0.0
sS'set_up_time'
p5475
I10
sS'input'
p5476
NsS'default_params'
p5477
Nsg1528
F1.0
sS'output_ports'
p5478
(lp5479
g5457
ag5379
ag5302
ag1588
asg5068
(dp5480
g1665
g5414
sg1675
g5362
sg67
g62
sg1687
g1705
sg1679
g5287
sg1565
g1556
sg1668
g5452
sg1683
g1789
ssbsg583
I2
sg5068
g77
sbsbsb.