ccopy_reg
_reconstructor
p0
(clanguage_schemas
SEM_GENERATOR
p1
c__builtin__
object
p2
Ntp3
Rp4
(dp5
S'sem_inputs'
p6
(dp7
S'{}'
p8
(dp9
Vtiming
p10
(lp11
F0.0
aF100.0
aF200.0
aF300.0
aF400.0
aF500.0
aF600.0
aF700.0
aF800.0
asVsem_rate
p12
I1
sVpropositions
p13
(dp14
VEVT1_AREA
p15
(lp16
VEVENT(evt1,F)
p17
aVACTION(a1,F)
p18
aVIS(is3)
p19
aVis3(evt1,a1)
p20
asVWOMAN_AREA
p21
(lp22
VENTITY(e2,F)
p23
aVWOMAN(woman)
p24
aVIS(is2)
p25
aVis2(e2, woman)
p26
asVPUNCH_AREA
p27
(lp28
VACTION(a1,F)
p29
aVENTITY(e1,F)
p30
aVENTITY(e2,F)
p31
aVPUNCH(punch)
p32
aVIS(is4)
p33
aVis4(a1, punch)
p34
aVAGENT(agt1)
p35
aVPATIENT(pt1)
p36
aVagt1(a1, e2)
p37
aVpt1(a1, e1)
p38
asVWOMAN_MOD_AREA
p39
(lp40
VENTITY(e2,F)
p41
aVYOUNG(young)
p42
aVMODIFY(mod)
p43
aVmod(e2, young)
p44
asVEVT2_AREA
p45
(lp46
VEVENT(evt2,F)
p47
aVACTION(a2,F)
p48
aVIS(is6)
p49
aVis6(evt2,a2)
p50
asVMAN_AREA
p51
(lp52
VENTITY(e1,F)
p53
aVMAN(man)
p54
aVIS(is1)
p55
aVis1(e1, man)
p56
asVKICK_AREA
p57
(lp58
VACTION(a2,F)
p59
aVENTITY(e3,F)
p60
aVENTITY(e1,F)
p61
aVKICK(kick)
p62
aVIS(is7)
p63
aVis7(a2, kick)
p64
aVAGENT(agt2)
p65
aVPATIENT(pt2)
p66
aVagt2(a2, e1)
p67
aVpt2(a2, e3)
p68
asVCAN_AREA
p69
(lp70
VENTITY(e3,F)
p71
aVWATERING_CAN(can)
p72
aVIS(is5)
p73
aVis5(e3, can)
p74
asVMAN_MOD_AREA
p75
(lp76
VENTITY(e1,F)
p77
aVMODIFY(mod1)
p78
aVmod1(e1, evt2)
p79
assVcomments
p80
VActions + property modifier dynamic.
p81
sVsequence
p82
(lp83
VEVT1_AREA
p84
aVPUNCH_AREA
p85
aVWOMAN_AREA
p86
aVWOMAN_MOD_AREA
p87
aVMAN_AREA
p88
aVEVT2_AREA
p89
aVKICK_AREA
p90
aVCAN_AREA
p91
aVMAN_MOD_AREA
p92
asssS'is_macro'
p93
I01
sS'ground_truths'
p94
NsS'speed_param'
p95
I100
sS'interpreter'
p96
g0
(clanguage_schemas
ISRF_INTERPRETER
p97
g2
Ntp98
Rp99
(dp100
S'name_table'
p101
(dp102
sS'conceptLTM'
p103
g0
(clanguage_schemas
CONCEPT_LTM
p104
g2
Ntp105
Rp106
(dp107
S'inputs'
p108
(dp109
sS'name'
p110
S'Concept_LTM'
p111
sS'out_ports'
p112
(lp113
g0
(cschema_theory
PORT
p114
g2
Ntp115
Rp116
(dp117
g110
S'to_conceptualizer'
p118
sS'data'
p119
NsS'value'
p120
(lp121
g0
(clanguage_schemas
CPT_EVENT_SCHEMA
p122
g2
Ntp123
Rp124
(dp125
g110
S'?'
p126
sS'content'
p127
(dp128
S'concept'
p129
g0
(cconcept
CONCEPT
p130
g2
Ntp131
Rp132
(dp133
S'meaning'
p134
g126
sS'conceptual_knowledge'
p135
g0
(cconcept
CONCEPTUAL_KNOWLEDGE
p136
g2
Ntp137
Rp138
(dp139
S'graph'
p140
g0
(cnetworkx.classes.digraph
DiGraph
p141
g2
Ntp142
Rp143
(dp144
S'node'
p145
(dp146
I1
(dp147
g134
g126
ssI2
(dp148
g134
S'CONCEPT'
p149
ssI3
(dp150
g134
VACTION
p151
ssI4
(dp152
g134
VSYMMETRIC
p153
ssI5
(dp154
g134
VMEET
p155
ssI6
(dp156
g134
VSHAKE_HANDS
p157
ssI7
(dp158
g134
VINTRANSITIVE
p159
ssI8
(dp160
g134
VLAUGH
p161
ssI9
(dp162
g134
VTRANSITIVE
p163
ssI10
(dp164
g134
VHIT
p165
ssI11
(dp166
g134
VWATCH
p167
ssI12
(dp168
g134
VPUNCH
p169
ssI13
(dp170
g134
VSPLASH
p171
ssI14
(dp172
g134
VTALK
p173
ssI15
(dp174
g134
VKISS
p175
ssI16
(dp176
g134
VSQUIRT
p177
ssI17
(dp178
g134
VKICK
p179
ssI18
(dp180
g134
VWEAR
p181
ssI19
(dp182
g134
VDITRANSITIVE
p183
ssI20
(dp184
g134
VSEND
p185
ssI21
(dp186
g134
VGIVE
p187
ssI22
(dp188
g134
VPROPERTY
p189
ssI23
(dp190
g134
VCOLOR
p191
ssI24
(dp192
g134
VBLUE
p193
ssI25
(dp194
g134
VGREEN
p195
ssI26
(dp196
g134
VWHITE
p197
ssI27
(dp198
g134
VBLACK
p199
ssI28
(dp200
g134
VRED
p201
ssI29
(dp202
g134
VAPPEARANCE
p203
ssI30
(dp204
g134
VYOUNG
p205
ssI31
(dp206
g134
VPRETTY
p207
ssI32
(dp208
g134
VHANDSOME
p209
ssI33
(dp210
g134
VSIZE
p211
ssI34
(dp212
g134
VSMALL
p213
ssI35
(dp214
g134
VBIG
p215
ssI36
(dp216
g134
VRELATION
p217
ssI37
(dp218
g134
VACTION_FRAME
p219
ssI38
(dp220
g134
VMODIFY
p221
ssI39
(dp222
g134
VTHEME
p223
ssI40
(dp224
g134
VRECIPIENT
p225
ssI41
(dp226
g134
VATTR
p227
ssI42
(dp228
g134
VAGT_PT
p229
ssI43
(dp230
g134
VPATIENT
p231
ssI44
(dp232
g134
VAGT+PT
p233
ssI45
(dp234
g134
VAGENT
p235
ssI46
(dp236
g134
VEVENT_FRAME
p237
ssI47
(dp238
g134
VTEMPORAL
p239
ssI48
(dp240
g134
VCONCURRENT
p241
ssI49
(dp242
g134
VSUCCESSIVE
p243
ssI50
(dp244
g134
VSPATIAL
p245
ssI51
(dp246
g134
VIN
p247
ssI52
(dp248
g134
VIS
p249
ssI53
(dp250
g134
VOBJECT_FRAME
p251
ssI54
(dp252
g134
VEVENT
p253
ssI55
(dp254
g134
VENTITY
p255
ssI56
(dp256
g134
VANIMATE
p257
ssI57
(dp258
g134
VANIMAL
p259
ssI58
(dp260
g134
VHUMAN
p261
ssI59
(dp262
g134
VOBJECT
p263
ssI60
(dp264
g134
VITEM
p265
ssI61
(dp266
g134
VWAGON
p267
ssI62
(dp268
g134
VWATERING_CAN
p269
ssI63
(dp270
g134
VBAG
p271
ssI64
(dp272
g134
VTREE
p273
ssI65
(dp274
g134
VHOOK
p275
ssI66
(dp276
g134
VCELLO
p277
ssI67
(dp278
g134
VBOOKSHELF
p279
ssI68
(dp280
g134
VCLOTHING
p281
ssI69
(dp282
g134
VTSHIRT
p283
ssI70
(dp284
g134
VDRESS
p285
ssI71
(dp286
g134
VSHIRT
p287
ssI72
(dp288
g134
VSUIT
p289
ssI73
(dp290
g134
VTURTLE
p291
ssI74
(dp292
g134
VMOUSE
p293
ssI75
(dp294
g134
VDOG
p295
ssI76
(dp296
g134
VBOY
p297
ssI77
(dp298
g134
VWOMAN
p299
ssI78
(dp300
g134
VPEOPLE
p301
ssI79
(dp302
g134
VPOLICEMAN
p303
ssI80
(dp304
g134
VHUNTER
p305
ssI81
(dp306
g134
VBALLERINA
p307
ssI82
(dp308
g134
VCELLIST
p309
ssI83
(dp310
g134
VGIRL
p311
ssI84
(dp312
g134
VFENCER
p313
ssI85
(dp314
g134
VROBBER
p315
ssI86
(dp316
g134
VMAN
p317
ssI87
(dp318
g134
VPLACE
p319
ssI88
(dp320
g134
VBOXINGRING
p321
ssI89
(dp322
g134
VPARK
p323
ssI90
(dp324
g134
VMALE
p325
ssI91
(dp326
g134
VFEMALE
p327
sssS'node_dict_factory'
p328
c__builtin__
dict
p329
sS'edge_attr_dict_factory'
p330
g329
sS'succ'
p331
(dp332
I1
(dp333
sI2
(dp334
sI3
(dp335
I2
(dp336
S'type'
p337
S'is_a'
p338
sssI4
(dp339
I3
(dp340
g337
g338
sssI5
(dp341
I4
(dp342
g337
g338
sssI6
(dp343
I4
(dp344
g337
g338
sssI7
(dp345
I3
(dp346
g337
g338
sssI8
(dp347
I7
(dp348
g337
g338
sssI9
(dp349
I3
(dp350
g337
g338
sssI10
(dp351
I9
(dp352
g337
g338
sssI11
(dp353
I9
(dp354
g337
g338
sssI12
(dp355
I9
(dp356
g337
g338
sssI13
(dp357
I9
(dp358
g337
g338
sssI14
(dp359
I9
(dp360
g337
g338
sssI15
(dp361
I9
(dp362
g337
g338
sssI16
(dp363
I9
(dp364
g337
g338
sssI17
(dp365
I9
(dp366
g337
g338
sssI18
(dp367
I9
(dp368
g337
g338
sssI19
(dp369
I3
(dp370
g337
g338
sssI20
(dp371
I19
(dp372
g337
g338
sssI21
(dp373
I19
(dp374
g337
g338
sssI22
(dp375
I2
(dp376
g337
g338
sssI23
(dp377
I22
(dp378
g337
g338
sssI24
(dp379
I23
(dp380
g337
g338
sssI25
(dp381
I23
(dp382
g337
g338
sssI26
(dp383
I23
(dp384
g337
g338
sssI27
(dp385
I23
(dp386
g337
g338
sssI28
(dp387
I23
(dp388
g337
g338
sssI29
(dp389
I22
(dp390
g337
g338
sssI30
(dp391
I29
(dp392
g337
g338
sssI31
(dp393
I29
(dp394
g337
g338
sssI32
(dp395
I29
(dp396
g337
g338
sssI33
(dp397
I22
(dp398
g337
g338
sssI34
(dp399
I33
(dp400
g337
g338
sssI35
(dp401
I33
(dp402
g337
g338
sssI36
(dp403
I2
(dp404
g337
g338
sssI37
(dp405
I36
(dp406
g337
g338
sssI38
(dp407
I37
(dp408
g337
g338
ssI53
(dp409
g337
g338
sssI39
(dp410
I37
(dp411
g337
g338
sssI40
(dp412
I37
(dp413
g337
g338
sssI41
(dp414
I37
(dp415
g337
g338
ssI53
(dp416
g337
g338
sssI42
(dp417
I37
(dp418
g337
g338
sssI43
(dp419
I42
(dp420
g337
g338
sssI44
(dp421
I43
(dp422
g337
g338
ssI45
(dp423
g337
g338
sssI45
(dp424
I42
(dp425
g337
g338
sssI46
(dp426
I36
(dp427
g337
g338
sssI47
(dp428
I46
(dp429
g337
g338
sssI48
(dp430
I47
(dp431
g337
g338
sssI49
(dp432
I47
(dp433
g337
g338
sssI50
(dp434
I46
(dp435
g337
g338
sssI51
(dp436
I50
(dp437
g337
g338
sssI52
(dp438
I36
(dp439
g337
g338
sssI53
(dp440
I36
(dp441
g337
g338
sssI54
(dp442
I2
(dp443
g337
g338
sssI55
(dp444
I2
(dp445
g337
g338
sssI56
(dp446
I55
(dp447
g337
g338
sssI57
(dp448
I56
(dp449
g337
g338
ssI59
(dp450
g337
g338
sssI58
(dp451
I56
(dp452
g337
g338
ssI59
(dp453
g337
g338
sssI59
(dp454
I55
(dp455
g337
g338
sssI60
(dp456
I59
(dp457
g337
g338
sssI61
(dp458
I60
(dp459
g337
g338
sssI62
(dp460
I60
(dp461
g337
g338
sssI63
(dp462
I60
(dp463
g337
g338
sssI64
(dp464
I60
(dp465
g337
g338
sssI65
(dp466
I60
(dp467
g337
g338
sssI66
(dp468
I60
(dp469
g337
g338
sssI67
(dp470
I60
(dp471
g337
g338
sssI68
(dp472
I60
(dp473
g337
g338
sssI69
(dp474
I68
(dp475
g337
g338
sssI70
(dp476
I68
(dp477
g337
g338
sssI71
(dp478
I68
(dp479
g337
g338
sssI72
(dp480
I68
(dp481
g337
g338
sssI73
(dp482
I57
(dp483
g337
g338
sssI74
(dp484
I57
(dp485
g337
g338
sssI75
(dp486
I57
(dp487
g337
g338
sssI76
(dp488
I58
(dp489
g337
g338
ssI90
(dp490
g337
g338
sssI77
(dp491
I58
(dp492
g337
g338
ssI91
(dp493
g337
g338
sssI78
(dp494
I58
(dp495
g337
g338
sssI79
(dp496
I58
(dp497
g337
g338
sssI80
(dp498
I58
(dp499
g337
g338
sssI81
(dp500
I58
(dp501
g337
g338
ssI91
(dp502
g337
g338
sssI82
(dp503
I58
(dp504
g337
g338
sssI83
(dp505
I58
(dp506
g337
g338
ssI91
(dp507
g337
g338
sssI84
(dp508
I58
(dp509
g337
g338
sssI85
(dp510
I58
(dp511
g337
g338
sssI86
(dp512
I58
(dp513
g337
g338
ssI90
(dp514
g337
g338
sssI87
(dp515
I55
(dp516
g337
g338
sssI88
(dp517
I87
(dp518
g337
g338
sssI89
(dp519
I87
(dp520
g337
g338
sssI90
(dp521
I55
(dp522
g337
g338
sssI91
(dp523
I55
(dp524
g337
g338
ssssS'edge'
p525
g332
sg140
(dp526
sS'adjlist_dict_factory'
p527
g329
sS'adj'
p528
g332
sS'pred'
p529
(dp530
I1
(dp531
sI2
(dp532
I3
g336
sI36
g404
sI54
g443
sI22
g376
sI55
g445
ssI3
(dp533
I9
g350
sI19
g370
sI4
g340
sI7
g346
ssI4
(dp534
I5
g342
sI6
g344
ssI5
(dp535
sI6
(dp536
sI7
(dp537
I8
g348
ssI8
(dp538
sI9
(dp539
I10
g352
sI11
g354
sI12
g356
sI13
g358
sI14
g360
sI15
g362
sI16
g364
sI17
g366
sI18
g368
ssI10
(dp540
sI11
(dp541
sI12
(dp542
sI13
(dp543
sI14
(dp544
sI15
(dp545
sI16
(dp546
sI17
(dp547
sI18
(dp548
sI19
(dp549
I20
g372
sI21
g374
ssI20
(dp550
sI21
(dp551
sI22
(dp552
I33
g398
sI29
g390
sI23
g378
ssI23
(dp553
I24
g380
sI25
g382
sI26
g384
sI27
g386
sI28
g388
ssI24
(dp554
sI25
(dp555
sI26
(dp556
sI27
(dp557
sI28
(dp558
sI29
(dp559
I32
g396
sI30
g392
sI31
g394
ssI30
(dp560
sI31
(dp561
sI32
(dp562
sI33
(dp563
I34
g400
sI35
g402
ssI34
(dp564
sI35
(dp565
sI36
(dp566
I52
g439
sI37
g406
sI46
g427
sI53
g441
ssI37
(dp567
I40
g413
sI41
g415
sI42
g418
sI38
g408
sI39
g411
ssI38
(dp568
sI39
(dp569
sI40
(dp570
sI41
(dp571
sI42
(dp572
I43
g420
sI45
g425
ssI43
(dp573
I44
g422
ssI44
(dp574
sI45
(dp575
I44
g423
ssI46
(dp576
I50
g435
sI47
g429
ssI47
(dp577
I48
g431
sI49
g433
ssI48
(dp578
sI49
(dp579
sI50
(dp580
I51
g437
ssI51
(dp581
sI52
(dp582
sI53
(dp583
I41
g416
sI38
g409
ssI54
(dp584
sI55
(dp585
I56
g447
sI91
g524
sI90
g522
sI59
g455
sI87
g516
ssI56
(dp586
I57
g449
sI58
g452
ssI57
(dp587
I73
g483
sI74
g485
sI75
g487
ssI58
(dp588
I76
g489
sI77
g492
sI78
g495
sI79
g497
sI80
g499
sI81
g501
sI82
g504
sI83
g506
sI84
g509
sI85
g511
sI86
g513
ssI59
(dp589
I57
g450
sI58
g453
sI60
g457
ssI60
(dp590
I64
g465
sI65
g467
sI66
g469
sI67
g471
sI68
g473
sI61
g459
sI62
g461
sI63
g463
ssI61
(dp591
sI62
(dp592
sI63
(dp593
sI64
(dp594
sI65
(dp595
sI66
(dp596
sI67
(dp597
sI68
(dp598
I72
g481
sI69
g475
sI70
g477
sI71
g479
ssI69
(dp599
sI70
(dp600
sI71
(dp601
sI72
(dp602
sI73
(dp603
sI74
(dp604
sI75
(dp605
sI76
(dp606
sI77
(dp607
sI78
(dp608
sI79
(dp609
sI80
(dp610
sI81
(dp611
sI82
(dp612
sI83
(dp613
sI84
(dp614
sI85
(dp615
sI86
(dp616
sI87
(dp617
I88
g518
sI89
g520
ssI88
(dp618
sI89
(dp619
sI90
(dp620
I76
g490
sI86
g514
ssI91
(dp621
I81
g502
sI83
g507
sI77
g493
sssbsS'nodes'
p622
(lp623
g132
ag0
(g130
g2
Ntp624
Rp625
(dp626
g134
g149
sg135
g138
sS'id'
p627
I2
sg110
g149
sbag0
(g130
g2
Ntp628
Rp629
(dp630
g134
g151
sg135
g138
sg627
I3
sg110
g151
sbag0
(g130
g2
Ntp631
Rp632
(dp633
g134
g153
sg135
g138
sg627
I4
sg110
g153
sbag0
(g130
g2
Ntp634
Rp635
(dp636
g134
g155
sg135
g138
sg627
I5
sg110
g155
sbag0
(g130
g2
Ntp637
Rp638
(dp639
g134
g157
sg135
g138
sg627
I6
sg110
g157
sbag0
(g130
g2
Ntp640
Rp641
(dp642
g134
g159
sg135
g138
sg627
I7
sg110
g159
sbag0
(g130
g2
Ntp643
Rp644
(dp645
g134
g161
sg135
g138
sg627
I8
sg110
g161
sbag0
(g130
g2
Ntp646
Rp647
(dp648
g134
g163
sg135
g138
sg627
I9
sg110
g163
sbag0
(g130
g2
Ntp649
Rp650
(dp651
g134
g165
sg135
g138
sg627
I10
sg110
g165
sbag0
(g130
g2
Ntp652
Rp653
(dp654
g134
g167
sg135
g138
sg627
I11
sg110
g167
sbag0
(g130
g2
Ntp655
Rp656
(dp657
g134
g169
sg135
g138
sg627
I12
sg110
g169
sbag0
(g130
g2
Ntp658
Rp659
(dp660
g134
g171
sg135
g138
sg627
I13
sg110
g171
sbag0
(g130
g2
Ntp661
Rp662
(dp663
g134
g173
sg135
g138
sg627
I14
sg110
g173
sbag0
(g130
g2
Ntp664
Rp665
(dp666
g134
g175
sg135
g138
sg627
I15
sg110
g175
sbag0
(g130
g2
Ntp667
Rp668
(dp669
g134
g177
sg135
g138
sg627
I16
sg110
g177
sbag0
(g130
g2
Ntp670
Rp671
(dp672
g134
g179
sg135
g138
sg627
I17
sg110
g179
sbag0
(g130
g2
Ntp673
Rp674
(dp675
g134
g181
sg135
g138
sg627
I18
sg110
g181
sbag0
(g130
g2
Ntp676
Rp677
(dp678
g134
g183
sg135
g138
sg627
I19
sg110
g183
sbag0
(g130
g2
Ntp679
Rp680
(dp681
g134
g185
sg135
g138
sg627
I20
sg110
g185
sbag0
(g130
g2
Ntp682
Rp683
(dp684
g134
g187
sg135
g138
sg627
I21
sg110
g187
sbag0
(g130
g2
Ntp685
Rp686
(dp687
g134
g189
sg135
g138
sg627
I22
sg110
g189
sbag0
(g130
g2
Ntp688
Rp689
(dp690
g134
g191
sg135
g138
sg627
I23
sg110
g191
sbag0
(g130
g2
Ntp691
Rp692
(dp693
g134
g193
sg135
g138
sg627
I24
sg110
g193
sbag0
(g130
g2
Ntp694
Rp695
(dp696
g134
g195
sg135
g138
sg627
I25
sg110
g195
sbag0
(g130
g2
Ntp697
Rp698
(dp699
g134
g197
sg135
g138
sg627
I26
sg110
g197
sbag0
(g130
g2
Ntp700
Rp701
(dp702
g134
g199
sg135
g138
sg627
I27
sg110
g199
sbag0
(g130
g2
Ntp703
Rp704
(dp705
g134
g201
sg135
g138
sg627
I28
sg110
g201
sbag0
(g130
g2
Ntp706
Rp707
(dp708
g134
g203
sg135
g138
sg627
I29
sg110
g203
sbag0
(g130
g2
Ntp709
Rp710
(dp711
g134
g205
sg135
g138
sg627
I30
sg110
g205
sbag0
(g130
g2
Ntp712
Rp713
(dp714
g134
g207
sg135
g138
sg627
I31
sg110
g207
sbag0
(g130
g2
Ntp715
Rp716
(dp717
g134
g209
sg135
g138
sg627
I32
sg110
g209
sbag0
(g130
g2
Ntp718
Rp719
(dp720
g134
g211
sg135
g138
sg627
I33
sg110
g211
sbag0
(g130
g2
Ntp721
Rp722
(dp723
g134
g213
sg135
g138
sg627
I34
sg110
g213
sbag0
(g130
g2
Ntp724
Rp725
(dp726
g134
g215
sg135
g138
sg627
I35
sg110
g215
sbag0
(g130
g2
Ntp727
Rp728
(dp729
g134
g217
sg135
g138
sg627
I36
sg110
g217
sbag0
(g130
g2
Ntp730
Rp731
(dp732
g134
g219
sg135
g138
sg627
I37
sg110
g219
sbag0
(g130
g2
Ntp733
Rp734
(dp735
g134
g221
sg135
g138
sg627
I38
sg110
g221
sbag0
(g130
g2
Ntp736
Rp737
(dp738
g134
g223
sg135
g138
sg627
I39
sg110
g223
sbag0
(g130
g2
Ntp739
Rp740
(dp741
g134
g225
sg135
g138
sg627
I40
sg110
g225
sbag0
(g130
g2
Ntp742
Rp743
(dp744
g134
g227
sg135
g138
sg627
I41
sg110
g227
sbag0
(g130
g2
Ntp745
Rp746
(dp747
g134
g229
sg135
g138
sg627
I42
sg110
g229
sbag0
(g130
g2
Ntp748
Rp749
(dp750
g134
g231
sg135
g138
sg627
I43
sg110
g231
sbag0
(g130
g2
Ntp751
Rp752
(dp753
g134
g233
sg135
g138
sg627
I44
sg110
g233
sbag0
(g130
g2
Ntp754
Rp755
(dp756
g134
g235
sg135
g138
sg627
I45
sg110
g235
sbag0
(g130
g2
Ntp757
Rp758
(dp759
g134
g237
sg135
g138
sg627
I46
sg110
g237
sbag0
(g130
g2
Ntp760
Rp761
(dp762
g134
g239
sg135
g138
sg627
I47
sg110
g239
sbag0
(g130
g2
Ntp763
Rp764
(dp765
g134
g241
sg135
g138
sg627
I48
sg110
g241
sbag0
(g130
g2
Ntp766
Rp767
(dp768
g134
g243
sg135
g138
sg627
I49
sg110
g243
sbag0
(g130
g2
Ntp769
Rp770
(dp771
g134
g245
sg135
g138
sg627
I50
sg110
g245
sbag0
(g130
g2
Ntp772
Rp773
(dp774
g134
g247
sg135
g138
sg627
I51
sg110
g247
sbag0
(g130
g2
Ntp775
Rp776
(dp777
g134
g249
sg135
g138
sg627
I52
sg110
g249
sbag0
(g130
g2
Ntp778
Rp779
(dp780
g134
g251
sg135
g138
sg627
I53
sg110
g251
sbag0
(g130
g2
Ntp781
Rp782
(dp783
g134
g253
sg135
g138
sg627
I54
sg110
g253
sbag0
(g130
g2
Ntp784
Rp785
(dp786
g134
g255
sg135
g138
sg627
I55
sg110
g255
sbag0
(g130
g2
Ntp787
Rp788
(dp789
g134
g257
sg135
g138
sg627
I56
sg110
g257
sbag0
(g130
g2
Ntp790
Rp791
(dp792
g134
g259
sg135
g138
sg627
I57
sg110
g259
sbag0
(g130
g2
Ntp793
Rp794
(dp795
g134
g261
sg135
g138
sg627
I58
sg110
g261
sbag0
(g130
g2
Ntp796
Rp797
(dp798
g134
g263
sg135
g138
sg627
I59
sg110
g263
sbag0
(g130
g2
Ntp799
Rp800
(dp801
g134
g265
sg135
g138
sg627
I60
sg110
g265
sbag0
(g130
g2
Ntp802
Rp803
(dp804
g134
g267
sg135
g138
sg627
I61
sg110
g267
sbag0
(g130
g2
Ntp805
Rp806
(dp807
g134
g269
sg135
g138
sg627
I62
sg110
g269
sbag0
(g130
g2
Ntp808
Rp809
(dp810
g134
g271
sg135
g138
sg627
I63
sg110
g271
sbag0
(g130
g2
Ntp811
Rp812
(dp813
g134
g273
sg135
g138
sg627
I64
sg110
g273
sbag0
(g130
g2
Ntp814
Rp815
(dp816
g134
g275
sg135
g138
sg627
I65
sg110
g275
sbag0
(g130
g2
Ntp817
Rp818
(dp819
g134
g277
sg135
g138
sg627
I66
sg110
g277
sbag0
(g130
g2
Ntp820
Rp821
(dp822
g134
g279
sg135
g138
sg627
I67
sg110
g279
sbag0
(g130
g2
Ntp823
Rp824
(dp825
g134
g281
sg135
g138
sg627
I68
sg110
g281
sbag0
(g130
g2
Ntp826
Rp827
(dp828
g134
g283
sg135
g138
sg627
I69
sg110
g283
sbag0
(g130
g2
Ntp829
Rp830
(dp831
g134
g285
sg135
g138
sg627
I70
sg110
g285
sbag0
(g130
g2
Ntp832
Rp833
(dp834
g134
g287
sg135
g138
sg627
I71
sg110
g287
sbag0
(g130
g2
Ntp835
Rp836
(dp837
g134
g289
sg135
g138
sg627
I72
sg110
g289
sbag0
(g130
g2
Ntp838
Rp839
(dp840
g134
g291
sg135
g138
sg627
I73
sg110
g291
sbag0
(g130
g2
Ntp841
Rp842
(dp843
g134
g293
sg135
g138
sg627
I74
sg110
g293
sbag0
(g130
g2
Ntp844
Rp845
(dp846
g134
g295
sg135
g138
sg627
I75
sg110
g295
sbag0
(g130
g2
Ntp847
Rp848
(dp849
g134
g297
sg135
g138
sg627
I76
sg110
g297
sbag0
(g130
g2
Ntp850
Rp851
(dp852
g134
g299
sg135
g138
sg627
I77
sg110
g299
sbag0
(g130
g2
Ntp853
Rp854
(dp855
g134
g301
sg135
g138
sg627
I78
sg110
g301
sbag0
(g130
g2
Ntp856
Rp857
(dp858
g134
g303
sg135
g138
sg627
I79
sg110
g303
sbag0
(g130
g2
Ntp859
Rp860
(dp861
g134
g305
sg135
g138
sg627
I80
sg110
g305
sbag0
(g130
g2
Ntp862
Rp863
(dp864
g134
g307
sg135
g138
sg627
I81
sg110
g307
sbag0
(g130
g2
Ntp865
Rp866
(dp867
g134
g309
sg135
g138
sg627
I82
sg110
g309
sbag0
(g130
g2
Ntp868
Rp869
(dp870
g134
g311
sg135
g138
sg627
I83
sg110
g311
sbag0
(g130
g2
Ntp871
Rp872
(dp873
g134
g313
sg135
g138
sg627
I84
sg110
g313
sbag0
(g130
g2
Ntp874
Rp875
(dp876
g134
g315
sg135
g138
sg627
I85
sg110
g315
sbag0
(g130
g2
Ntp877
Rp878
(dp879
g134
g317
sg135
g138
sg627
I86
sg110
g317
sbag0
(g130
g2
Ntp880
Rp881
(dp882
g134
g319
sg135
g138
sg627
I87
sg110
g319
sbag0
(g130
g2
Ntp883
Rp884
(dp885
g134
g321
sg135
g138
sg627
I88
sg110
g321
sbag0
(g130
g2
Ntp886
Rp887
(dp888
g134
g323
sg135
g138
sg627
I89
sg110
g323
sbag0
(g130
g2
Ntp889
Rp890
(dp891
g134
g325
sg135
g138
sg627
I90
sg110
g325
sbag0
(g130
g2
Ntp892
Rp893
(dp894
g134
g327
sg135
g138
sg627
I91
sg110
g327
sbasS'edges'
p895
(lp896
g0
(cconcept
SEM_REL
p897
g2
Ntp898
Rp899
(dp900
S'pTo'
p901
g625
sg337
g338
sS'pFrom'
p902
g629
sbag0
(g897
g2
Ntp903
Rp904
(dp905
g901
g629
sg337
g338
sg902
g632
sbag0
(g897
g2
Ntp906
Rp907
(dp908
g901
g632
sg337
g338
sg902
g635
sbag0
(g897
g2
Ntp909
Rp910
(dp911
g901
g632
sg337
g338
sg902
g638
sbag0
(g897
g2
Ntp912
Rp913
(dp914
g901
g629
sg337
g338
sg902
g641
sbag0
(g897
g2
Ntp915
Rp916
(dp917
g901
g641
sg337
g338
sg902
g644
sbag0
(g897
g2
Ntp918
Rp919
(dp920
g901
g629
sg337
g338
sg902
g647
sbag0
(g897
g2
Ntp921
Rp922
(dp923
g901
g647
sg337
g338
sg902
g650
sbag0
(g897
g2
Ntp924
Rp925
(dp926
g901
g647
sg337
g338
sg902
g653
sbag0
(g897
g2
Ntp927
Rp928
(dp929
g901
g647
sg337
g338
sg902
g656
sbag0
(g897
g2
Ntp930
Rp931
(dp932
g901
g647
sg337
g338
sg902
g659
sbag0
(g897
g2
Ntp933
Rp934
(dp935
g901
g647
sg337
g338
sg902
g662
sbag0
(g897
g2
Ntp936
Rp937
(dp938
g901
g647
sg337
g338
sg902
g665
sbag0
(g897
g2
Ntp939
Rp940
(dp941
g901
g647
sg337
g338
sg902
g668
sbag0
(g897
g2
Ntp942
Rp943
(dp944
g901
g647
sg337
g338
sg902
g671
sbag0
(g897
g2
Ntp945
Rp946
(dp947
g901
g647
sg337
g338
sg902
g674
sbag0
(g897
g2
Ntp948
Rp949
(dp950
g901
g629
sg337
g338
sg902
g677
sbag0
(g897
g2
Ntp951
Rp952
(dp953
g901
g677
sg337
g338
sg902
g680
sbag0
(g897
g2
Ntp954
Rp955
(dp956
g901
g677
sg337
g338
sg902
g683
sbag0
(g897
g2
Ntp957
Rp958
(dp959
g901
g625
sg337
g338
sg902
g686
sbag0
(g897
g2
Ntp960
Rp961
(dp962
g901
g686
sg337
g338
sg902
g689
sbag0
(g897
g2
Ntp963
Rp964
(dp965
g901
g689
sg337
g338
sg902
g692
sbag0
(g897
g2
Ntp966
Rp967
(dp968
g901
g689
sg337
g338
sg902
g695
sbag0
(g897
g2
Ntp969
Rp970
(dp971
g901
g689
sg337
g338
sg902
g698
sbag0
(g897
g2
Ntp972
Rp973
(dp974
g901
g689
sg337
g338
sg902
g701
sbag0
(g897
g2
Ntp975
Rp976
(dp977
g901
g689
sg337
g338
sg902
g704
sbag0
(g897
g2
Ntp978
Rp979
(dp980
g901
g686
sg337
g338
sg902
g707
sbag0
(g897
g2
Ntp981
Rp982
(dp983
g901
g707
sg337
g338
sg902
g710
sbag0
(g897
g2
Ntp984
Rp985
(dp986
g901
g707
sg337
g338
sg902
g713
sbag0
(g897
g2
Ntp987
Rp988
(dp989
g901
g707
sg337
g338
sg902
g716
sbag0
(g897
g2
Ntp990
Rp991
(dp992
g901
g686
sg337
g338
sg902
g719
sbag0
(g897
g2
Ntp993
Rp994
(dp995
g901
g719
sg337
g338
sg902
g722
sbag0
(g897
g2
Ntp996
Rp997
(dp998
g901
g719
sg337
g338
sg902
g725
sbag0
(g897
g2
Ntp999
Rp1000
(dp1001
g901
g625
sg337
g338
sg902
g728
sbag0
(g897
g2
Ntp1002
Rp1003
(dp1004
g901
g728
sg337
g338
sg902
g731
sbag0
(g897
g2
Ntp1005
Rp1006
(dp1007
g901
g731
sg337
g338
sg902
g734
sbag0
(g897
g2
Ntp1008
Rp1009
(dp1010
g901
g731
sg337
g338
sg902
g737
sbag0
(g897
g2
Ntp1011
Rp1012
(dp1013
g901
g731
sg337
g338
sg902
g740
sbag0
(g897
g2
Ntp1014
Rp1015
(dp1016
g901
g731
sg337
g338
sg902
g743
sbag0
(g897
g2
Ntp1017
Rp1018
(dp1019
g901
g731
sg337
g338
sg902
g746
sbag0
(g897
g2
Ntp1020
Rp1021
(dp1022
g901
g746
sg337
g338
sg902
g749
sbag0
(g897
g2
Ntp1023
Rp1024
(dp1025
g901
g749
sg337
g338
sg902
g752
sbag0
(g897
g2
Ntp1026
Rp1027
(dp1028
g901
g746
sg337
g338
sg902
g755
sbag0
(g897
g2
Ntp1029
Rp1030
(dp1031
g901
g755
sg337
g338
sg902
g752
sbag0
(g897
g2
Ntp1032
Rp1033
(dp1034
g901
g728
sg337
g338
sg902
g758
sbag0
(g897
g2
Ntp1035
Rp1036
(dp1037
g901
g758
sg337
g338
sg902
g761
sbag0
(g897
g2
Ntp1038
Rp1039
(dp1040
g901
g761
sg337
g338
sg902
g764
sbag0
(g897
g2
Ntp1041
Rp1042
(dp1043
g901
g761
sg337
g338
sg902
g767
sbag0
(g897
g2
Ntp1044
Rp1045
(dp1046
g901
g758
sg337
g338
sg902
g770
sbag0
(g897
g2
Ntp1047
Rp1048
(dp1049
g901
g770
sg337
g338
sg902
g773
sbag0
(g897
g2
Ntp1050
Rp1051
(dp1052
g901
g728
sg337
g338
sg902
g776
sbag0
(g897
g2
Ntp1053
Rp1054
(dp1055
g901
g728
sg337
g338
sg902
g779
sbag0
(g897
g2
Ntp1056
Rp1057
(dp1058
g901
g779
sg337
g338
sg902
g734
sbag0
(g897
g2
Ntp1059
Rp1060
(dp1061
g901
g779
sg337
g338
sg902
g743
sbag0
(g897
g2
Ntp1062
Rp1063
(dp1064
g901
g625
sg337
g338
sg902
g782
sbag0
(g897
g2
Ntp1065
Rp1066
(dp1067
g901
g625
sg337
g338
sg902
g785
sbag0
(g897
g2
Ntp1068
Rp1069
(dp1070
g901
g785
sg337
g338
sg902
g788
sbag0
(g897
g2
Ntp1071
Rp1072
(dp1073
g901
g788
sg337
g338
sg902
g791
sbag0
(g897
g2
Ntp1074
Rp1075
(dp1076
g901
g788
sg337
g338
sg902
g794
sbag0
(g897
g2
Ntp1077
Rp1078
(dp1079
g901
g785
sg337
g338
sg902
g797
sbag0
(g897
g2
Ntp1080
Rp1081
(dp1082
g901
g797
sg337
g338
sg902
g800
sbag0
(g897
g2
Ntp1083
Rp1084
(dp1085
g901
g800
sg337
g338
sg902
g803
sbag0
(g897
g2
Ntp1086
Rp1087
(dp1088
g901
g800
sg337
g338
sg902
g806
sbag0
(g897
g2
Ntp1089
Rp1090
(dp1091
g901
g800
sg337
g338
sg902
g809
sbag0
(g897
g2
Ntp1092
Rp1093
(dp1094
g901
g800
sg337
g338
sg902
g812
sbag0
(g897
g2
Ntp1095
Rp1096
(dp1097
g901
g800
sg337
g338
sg902
g815
sbag0
(g897
g2
Ntp1098
Rp1099
(dp1100
g901
g800
sg337
g338
sg902
g818
sbag0
(g897
g2
Ntp1101
Rp1102
(dp1103
g901
g800
sg337
g338
sg902
g821
sbag0
(g897
g2
Ntp1104
Rp1105
(dp1106
g901
g800
sg337
g338
sg902
g824
sbag0
(g897
g2
Ntp1107
Rp1108
(dp1109
g901
g824
sg337
g338
sg902
g827
sbag0
(g897
g2
Ntp1110
Rp1111
(dp1112
g901
g824
sg337
g338
sg902
g830
sbag0
(g897
g2
Ntp1113
Rp1114
(dp1115
g901
g824
sg337
g338
sg902
g833
sbag0
(g897
g2
Ntp1116
Rp1117
(dp1118
g901
g824
sg337
g338
sg902
g836
sbag0
(g897
g2
Ntp1119
Rp1120
(dp1121
g901
g797
sg337
g338
sg902
g791
sbag0
(g897
g2
Ntp1122
Rp1123
(dp1124
g901
g791
sg337
g338
sg902
g839
sbag0
(g897
g2
Ntp1125
Rp1126
(dp1127
g901
g791
sg337
g338
sg902
g842
sbag0
(g897
g2
Ntp1128
Rp1129
(dp1130
g901
g791
sg337
g338
sg902
g845
sbag0
(g897
g2
Ntp1131
Rp1132
(dp1133
g901
g797
sg337
g338
sg902
g794
sbag0
(g897
g2
Ntp1134
Rp1135
(dp1136
g901
g794
sg337
g338
sg902
g848
sbag0
(g897
g2
Ntp1137
Rp1138
(dp1139
g901
g794
sg337
g338
sg902
g851
sbag0
(g897
g2
Ntp1140
Rp1141
(dp1142
g901
g794
sg337
g338
sg902
g854
sbag0
(g897
g2
Ntp1143
Rp1144
(dp1145
g901
g794
sg337
g338
sg902
g857
sbag0
(g897
g2
Ntp1146
Rp1147
(dp1148
g901
g794
sg337
g338
sg902
g860
sbag0
(g897
g2
Ntp1149
Rp1150
(dp1151
g901
g794
sg337
g338
sg902
g863
sbag0
(g897
g2
Ntp1152
Rp1153
(dp1154
g901
g794
sg337
g338
sg902
g866
sbag0
(g897
g2
Ntp1155
Rp1156
(dp1157
g901
g794
sg337
g338
sg902
g869
sbag0
(g897
g2
Ntp1158
Rp1159
(dp1160
g901
g794
sg337
g338
sg902
g872
sbag0
(g897
g2
Ntp1161
Rp1162
(dp1163
g901
g794
sg337
g338
sg902
g875
sbag0
(g897
g2
Ntp1164
Rp1165
(dp1166
g901
g794
sg337
g338
sg902
g878
sbag0
(g897
g2
Ntp1167
Rp1168
(dp1169
g901
g785
sg337
g338
sg902
g881
sbag0
(g897
g2
Ntp1170
Rp1171
(dp1172
g901
g881
sg337
g338
sg902
g884
sbag0
(g897
g2
Ntp1173
Rp1174
(dp1175
g901
g881
sg337
g338
sg902
g887
sbag0
(g897
g2
Ntp1176
Rp1177
(dp1178
g901
g785
sg337
g338
sg902
g890
sbag0
(g897
g2
Ntp1179
Rp1180
(dp1181
g901
g890
sg337
g338
sg902
g848
sbag0
(g897
g2
Ntp1182
Rp1183
(dp1184
g901
g890
sg337
g338
sg902
g878
sbag0
(g897
g2
Ntp1185
Rp1186
(dp1187
g901
g785
sg337
g338
sg902
g893
sbag0
(g897
g2
Ntp1188
Rp1189
(dp1190
g901
g893
sg337
g338
sg902
g863
sbag0
(g897
g2
Ntp1191
Rp1192
(dp1193
g901
g893
sg337
g338
sg902
g869
sbag0
(g897
g2
Ntp1194
Rp1195
(dp1196
g901
g893
sg337
g338
sg902
g851
sbasS'neutral'
p1197
g132
sbsg627
I1
sg110
g126
sbssS'model'
p1198
Nsg627
I9
sS'LTM'
p1199
g106
sS'init_act'
p1200
F1.0
sbag0
(clanguage_schemas
CPT_ACTION_SCHEMA
p1201
g2
Ntp1202
Rp1203
(dp1204
g110
g151
sg127
(dp1205
g129
g629
ssg1198
Nsg627
I10
sg1199
g106
sg1200
F1.0
sbag0
(g1201
g2
Ntp1206
Rp1207
(dp1208
g110
g153
sg127
(dp1209
g129
g632
ssg1198
Nsg627
I11
sg1199
g106
sg1200
F1.0
sbag0
(g1201
g2
Ntp1210
Rp1211
(dp1212
g110
g155
sg127
(dp1213
g129
g635
ssg1198
Nsg627
I12
sg1199
g106
sg1200
F1.0
sbag0
(g1201
g2
Ntp1214
Rp1215
(dp1216
g110
g157
sg127
(dp1217
g129
g638
ssg1198
Nsg627
I13
sg1199
g106
sg1200
F1.0
sbag0
(g1201
g2
Ntp1218
Rp1219
(dp1220
g110
g159
sg127
(dp1221
g129
g641
ssg1198
Nsg627
I14
sg1199
g106
sg1200
F1.0
sbag0
(g1201
g2
Ntp1222
Rp1223
(dp1224
g110
g161
sg127
(dp1225
g129
g644
ssg1198
Nsg627
I15
sg1199
g106
sg1200
F1.0
sbag0
(g1201
g2
Ntp1226
Rp1227
(dp1228
g110
g163
sg127
(dp1229
g129
g647
ssg1198
Nsg627
I16
sg1199
g106
sg1200
F1.0
sbag0
(g1201
g2
Ntp1230
Rp1231
(dp1232
g110
g165
sg127
(dp1233
g129
g650
ssg1198
Nsg627
I17
sg1199
g106
sg1200
F1.0
sbag0
(g1201
g2
Ntp1234
Rp1235
(dp1236
g110
g167
sg127
(dp1237
g129
g653
ssg1198
Nsg627
I18
sg1199
g106
sg1200
F1.0
sbag0
(g1201
g2
Ntp1238
Rp1239
(dp1240
g110
g169
sg127
(dp1241
g129
g656
ssg1198
Nsg627
I19
sg1199
g106
sg1200
F1.0
sbag0
(g1201
g2
Ntp1242
Rp1243
(dp1244
g110
g171
sg127
(dp1245
g129
g659
ssg1198
Nsg627
I20
sg1199
g106
sg1200
F1.0
sbag0
(g1201
g2
Ntp1246
Rp1247
(dp1248
g110
g173
sg127
(dp1249
g129
g662
ssg1198
Nsg627
I21
sg1199
g106
sg1200
F1.0
sbag0
(g1201
g2
Ntp1250
Rp1251
(dp1252
g110
g175
sg127
(dp1253
g129
g665
ssg1198
Nsg627
I22
sg1199
g106
sg1200
F1.0
sbag0
(g1201
g2
Ntp1254
Rp1255
(dp1256
g110
g177
sg127
(dp1257
g129
g668
ssg1198
Nsg627
I23
sg1199
g106
sg1200
F1.0
sbag0
(g1201
g2
Ntp1258
Rp1259
(dp1260
g110
g179
sg127
(dp1261
g129
g671
ssg1198
Nsg627
I24
sg1199
g106
sg1200
F1.0
sbag0
(g1201
g2
Ntp1262
Rp1263
(dp1264
g110
g181
sg127
(dp1265
g129
g674
ssg1198
Nsg627
I25
sg1199
g106
sg1200
F1.0
sbag0
(g1201
g2
Ntp1266
Rp1267
(dp1268
g110
g183
sg127
(dp1269
g129
g677
ssg1198
Nsg627
I26
sg1199
g106
sg1200
F1.0
sbag0
(g1201
g2
Ntp1270
Rp1271
(dp1272
g110
g185
sg127
(dp1273
g129
g680
ssg1198
Nsg627
I27
sg1199
g106
sg1200
F1.0
sbag0
(g1201
g2
Ntp1274
Rp1275
(dp1276
g110
g187
sg127
(dp1277
g129
g683
ssg1198
Nsg627
I28
sg1199
g106
sg1200
F1.0
sbag0
(clanguage_schemas
CPT_PROPERTY_SCHEMA
p1278
g2
Ntp1279
Rp1280
(dp1281
g110
g189
sg127
(dp1282
g129
g686
ssg1198
Nsg627
I29
sg1199
g106
sg1200
F1.0
sbag0
(g1278
g2
Ntp1283
Rp1284
(dp1285
g110
g191
sg127
(dp1286
g129
g689
ssg1198
Nsg627
I30
sg1199
g106
sg1200
F1.0
sbag0
(g1278
g2
Ntp1287
Rp1288
(dp1289
g110
g193
sg127
(dp1290
g129
g692
ssg1198
Nsg627
I31
sg1199
g106
sg1200
F1.0
sbag0
(g1278
g2
Ntp1291
Rp1292
(dp1293
g110
g195
sg127
(dp1294
g129
g695
ssg1198
Nsg627
I32
sg1199
g106
sg1200
F1.0
sbag0
(g1278
g2
Ntp1295
Rp1296
(dp1297
g110
g197
sg127
(dp1298
g129
g698
ssg1198
Nsg627
I33
sg1199
g106
sg1200
F1.0
sbag0
(g1278
g2
Ntp1299
Rp1300
(dp1301
g110
g199
sg127
(dp1302
g129
g701
ssg1198
Nsg627
I34
sg1199
g106
sg1200
F1.0
sbag0
(g1278
g2
Ntp1303
Rp1304
(dp1305
g110
g201
sg127
(dp1306
g129
g704
ssg1198
Nsg627
I35
sg1199
g106
sg1200
F1.0
sbag0
(g1278
g2
Ntp1307
Rp1308
(dp1309
g110
g203
sg127
(dp1310
g129
g707
ssg1198
Nsg627
I36
sg1199
g106
sg1200
F1.0
sbag0
(g1278
g2
Ntp1311
Rp1312
(dp1313
g110
g205
sg127
(dp1314
g129
g710
ssg1198
Nsg627
I37
sg1199
g106
sg1200
F1.0
sbag0
(g1278
g2
Ntp1315
Rp1316
(dp1317
g110
g207
sg127
(dp1318
g129
g713
ssg1198
Nsg627
I38
sg1199
g106
sg1200
F1.0
sbag0
(g1278
g2
Ntp1319
Rp1320
(dp1321
g110
g209
sg127
(dp1322
g129
g716
ssg1198
Nsg627
I39
sg1199
g106
sg1200
F1.0
sbag0
(g1278
g2
Ntp1323
Rp1324
(dp1325
g110
g211
sg127
(dp1326
g129
g719
ssg1198
Nsg627
I40
sg1199
g106
sg1200
F1.0
sbag0
(g1278
g2
Ntp1327
Rp1328
(dp1329
g110
g213
sg127
(dp1330
g129
g722
ssg1198
Nsg627
I41
sg1199
g106
sg1200
F1.0
sbag0
(g1278
g2
Ntp1331
Rp1332
(dp1333
g110
g215
sg127
(dp1334
g129
g725
ssg1198
Nsg627
I42
sg1199
g106
sg1200
F1.0
sbag0
(clanguage_schemas
CPT_RELATION_SCHEMA
p1335
g2
Ntp1336
Rp1337
(dp1338
g110
g217
sg127
(dp1339
g901
Nsg129
g728
sg902
Nssg1198
Nsg627
I43
sg1199
g106
sg1200
F1.0
sbag0
(g1335
g2
Ntp1340
Rp1341
(dp1342
g110
g219
sg127
(dp1343
g901
Nsg129
g731
sg902
Nssg1198
Nsg627
I44
sg1199
g106
sg1200
F1.0
sbag0
(g1335
g2
Ntp1344
Rp1345
(dp1346
g110
g221
sg127
(dp1347
g901
Nsg129
g734
sg902
Nssg1198
Nsg627
I45
sg1199
g106
sg1200
F1.0
sbag0
(g1335
g2
Ntp1348
Rp1349
(dp1350
g110
g223
sg127
(dp1351
g901
Nsg129
g737
sg902
Nssg1198
Nsg627
I46
sg1199
g106
sg1200
F1.0
sbag0
(g1335
g2
Ntp1352
Rp1353
(dp1354
g110
g225
sg127
(dp1355
g901
Nsg129
g740
sg902
Nssg1198
Nsg627
I47
sg1199
g106
sg1200
F1.0
sbag0
(g1335
g2
Ntp1356
Rp1357
(dp1358
g110
g227
sg127
(dp1359
g901
Nsg129
g743
sg902
Nssg1198
Nsg627
I48
sg1199
g106
sg1200
F1.0
sbag0
(g1335
g2
Ntp1360
Rp1361
(dp1362
g110
g229
sg127
(dp1363
g901
Nsg129
g746
sg902
Nssg1198
Nsg627
I49
sg1199
g106
sg1200
F1.0
sbag0
(g1335
g2
Ntp1364
Rp1365
(dp1366
g110
g231
sg127
(dp1367
g901
Nsg129
g749
sg902
Nssg1198
Nsg627
I50
sg1199
g106
sg1200
F1.0
sbag0
(g1335
g2
Ntp1368
Rp1369
(dp1370
g110
g233
sg127
(dp1371
g901
Nsg129
g752
sg902
Nssg1198
Nsg627
I51
sg1199
g106
sg1200
F1.0
sbag0
(g1335
g2
Ntp1372
Rp1373
(dp1374
g110
g235
sg127
(dp1375
g901
Nsg129
g755
sg902
Nssg1198
Nsg627
I52
sg1199
g106
sg1200
F1.0
sbag0
(g1335
g2
Ntp1376
Rp1377
(dp1378
g110
g237
sg127
(dp1379
g901
Nsg129
g758
sg902
Nssg1198
Nsg627
I53
sg1199
g106
sg1200
F1.0
sbag0
(g1335
g2
Ntp1380
Rp1381
(dp1382
g110
g239
sg127
(dp1383
g901
Nsg129
g761
sg902
Nssg1198
Nsg627
I54
sg1199
g106
sg1200
F1.0
sbag0
(g1335
g2
Ntp1384
Rp1385
(dp1386
g110
g241
sg127
(dp1387
g901
Nsg129
g764
sg902
Nssg1198
Nsg627
I55
sg1199
g106
sg1200
F1.0
sbag0
(g1335
g2
Ntp1388
Rp1389
(dp1390
g110
g243
sg127
(dp1391
g901
Nsg129
g767
sg902
Nssg1198
Nsg627
I56
sg1199
g106
sg1200
F1.0
sbag0
(g1335
g2
Ntp1392
Rp1393
(dp1394
g110
g245
sg127
(dp1395
g901
Nsg129
g770
sg902
Nssg1198
Nsg627
I57
sg1199
g106
sg1200
F1.0
sbag0
(g1335
g2
Ntp1396
Rp1397
(dp1398
g110
g247
sg127
(dp1399
g901
Nsg129
g773
sg902
Nssg1198
Nsg627
I58
sg1199
g106
sg1200
F1.0
sbag0
(g1335
g2
Ntp1400
Rp1401
(dp1402
g110
g249
sg127
(dp1403
g901
Nsg129
g776
sg902
Nssg1198
Nsg627
I59
sg1199
g106
sg1200
F1.0
sbag0
(g1335
g2
Ntp1404
Rp1405
(dp1406
g110
g251
sg127
(dp1407
g901
Nsg129
g779
sg902
Nssg1198
Nsg627
I60
sg1199
g106
sg1200
F1.0
sbag0
(g122
g2
Ntp1408
Rp1409
(dp1410
g110
g253
sg127
(dp1411
g129
g782
ssg1198
Nsg627
I61
sg1199
g106
sg1200
F1.0
sbag0
(clanguage_schemas
CPT_ENTITY_SCHEMA
p1412
g2
Ntp1413
Rp1414
(dp1415
g110
g255
sg127
(dp1416
g129
g785
ssg1198
Nsg627
I62
sg1199
g106
sg1200
F1.0
sbag0
(g1412
g2
Ntp1417
Rp1418
(dp1419
g110
g257
sg127
(dp1420
g129
g788
ssg1198
Nsg627
I63
sg1199
g106
sg1200
F1.0
sbag0
(g1412
g2
Ntp1421
Rp1422
(dp1423
g110
g259
sg127
(dp1424
g129
g791
ssg1198
Nsg627
I64
sg1199
g106
sg1200
F1.0
sbag0
(g1412
g2
Ntp1425
Rp1426
(dp1427
g110
g261
sg127
(dp1428
g129
g794
ssg1198
Nsg627
I65
sg1199
g106
sg1200
F1.0
sbag0
(g1412
g2
Ntp1429
Rp1430
(dp1431
g110
g263
sg127
(dp1432
g129
g797
ssg1198
Nsg627
I66
sg1199
g106
sg1200
F1.0
sbag0
(g1412
g2
Ntp1433
Rp1434
(dp1435
g110
g265
sg127
(dp1436
g129
g800
ssg1198
Nsg627
I67
sg1199
g106
sg1200
F1.0
sbag0
(g1412
g2
Ntp1437
Rp1438
(dp1439
g110
g267
sg127
(dp1440
g129
g803
ssg1198
Nsg627
I68
sg1199
g106
sg1200
F1.0
sbag0
(g1412
g2
Ntp1441
Rp1442
(dp1443
g110
g269
sg127
(dp1444
g129
g806
ssg1198
Nsg627
I69
sg1199
g106
sg1200
F1.0
sbag0
(g1412
g2
Ntp1445
Rp1446
(dp1447
g110
g271
sg127
(dp1448
g129
g809
ssg1198
Nsg627
I70
sg1199
g106
sg1200
F1.0
sbag0
(g1412
g2
Ntp1449
Rp1450
(dp1451
g110
g273
sg127
(dp1452
g129
g812
ssg1198
Nsg627
I71
sg1199
g106
sg1200
F1.0
sbag0
(g1412
g2
Ntp1453
Rp1454
(dp1455
g110
g275
sg127
(dp1456
g129
g815
ssg1198
Nsg627
I72
sg1199
g106
sg1200
F1.0
sbag0
(g1412
g2
Ntp1457
Rp1458
(dp1459
g110
g277
sg127
(dp1460
g129
g818
ssg1198
Nsg627
I73
sg1199
g106
sg1200
F1.0
sbag0
(g1412
g2
Ntp1461
Rp1462
(dp1463
g110
g279
sg127
(dp1464
g129
g821
ssg1198
Nsg627
I74
sg1199
g106
sg1200
F1.0
sbag0
(g1412
g2
Ntp1465
Rp1466
(dp1467
g110
g281
sg127
(dp1468
g129
g824
ssg1198
Nsg627
I75
sg1199
g106
sg1200
F1.0
sbag0
(g1412
g2
Ntp1469
Rp1470
(dp1471
g110
g283
sg127
(dp1472
g129
g827
ssg1198
Nsg627
I76
sg1199
g106
sg1200
F1.0
sbag0
(g1412
g2
Ntp1473
Rp1474
(dp1475
g110
g285
sg127
(dp1476
g129
g830
ssg1198
Nsg627
I77
sg1199
g106
sg1200
F1.0
sbag0
(g1412
g2
Ntp1477
Rp1478
(dp1479
g110
g287
sg127
(dp1480
g129
g833
ssg1198
Nsg627
I78
sg1199
g106
sg1200
F1.0
sbag0
(g1412
g2
Ntp1481
Rp1482
(dp1483
g110
g289
sg127
(dp1484
g129
g836
ssg1198
Nsg627
I79
sg1199
g106
sg1200
F1.0
sbag0
(g1412
g2
Ntp1485
Rp1486
(dp1487
g110
g291
sg127
(dp1488
g129
g839
ssg1198
Nsg627
I80
sg1199
g106
sg1200
F1.0
sbag0
(g1412
g2
Ntp1489
Rp1490
(dp1491
g110
g293
sg127
(dp1492
g129
g842
ssg1198
Nsg627
I81
sg1199
g106
sg1200
F1.0
sbag0
(g1412
g2
Ntp1493
Rp1494
(dp1495
g110
g295
sg127
(dp1496
g129
g845
ssg1198
Nsg627
I82
sg1199
g106
sg1200
F1.0
sbag0
(g1412
g2
Ntp1497
Rp1498
(dp1499
g110
g297
sg127
(dp1500
g129
g848
ssg1198
Nsg627
I83
sg1199
g106
sg1200
F1.0
sbag0
(g1412
g2
Ntp1501
Rp1502
(dp1503
g110
g299
sg127
(dp1504
g129
g851
ssg1198
Nsg627
I84
sg1199
g106
sg1200
F1.0
sbag0
(g1412
g2
Ntp1505
Rp1506
(dp1507
g110
g301
sg127
(dp1508
g129
g854
ssg1198
Nsg627
I85
sg1199
g106
sg1200
F1.0
sbag0
(g1412
g2
Ntp1509
Rp1510
(dp1511
g110
g303
sg127
(dp1512
g129
g857
ssg1198
Nsg627
I86
sg1199
g106
sg1200
F1.0
sbag0
(g1412
g2
Ntp1513
Rp1514
(dp1515
g110
g305
sg127
(dp1516
g129
g860
ssg1198
Nsg627
I87
sg1199
g106
sg1200
F1.0
sbag0
(g1412
g2
Ntp1517
Rp1518
(dp1519
g110
g307
sg127
(dp1520
g129
g863
ssg1198
Nsg627
I88
sg1199
g106
sg1200
F1.0
sbag0
(g1412
g2
Ntp1521
Rp1522
(dp1523
g110
g309
sg127
(dp1524
g129
g866
ssg1198
Nsg627
I89
sg1199
g106
sg1200
F1.0
sbag0
(g1412
g2
Ntp1525
Rp1526
(dp1527
g110
g311
sg127
(dp1528
g129
g869
ssg1198
Nsg627
I90
sg1199
g106
sg1200
F1.0
sbag0
(g1412
g2
Ntp1529
Rp1530
(dp1531
g110
g313
sg127
(dp1532
g129
g872
ssg1198
Nsg627
I91
sg1199
g106
sg1200
F1.0
sbag0
(g1412
g2
Ntp1533
Rp1534
(dp1535
g110
g315
sg127
(dp1536
g129
g875
ssg1198
Nsg627
I92
sg1199
g106
sg1200
F1.0
sbag0
(g1412
g2
Ntp1537
Rp1538
(dp1539
g110
g317
sg127
(dp1540
g129
g878
ssg1198
Nsg627
I93
sg1199
g106
sg1200
F1.0
sbag0
(g1412
g2
Ntp1541
Rp1542
(dp1543
g110
g319
sg127
(dp1544
g129
g881
ssg1198
Nsg627
I94
sg1199
g106
sg1200
F1.0
sbag0
(g1412
g2
Ntp1545
Rp1546
(dp1547
g110
g321
sg127
(dp1548
g129
g884
ssg1198
Nsg627
I95
sg1199
g106
sg1200
F1.0
sbag0
(g1412
g2
Ntp1549
Rp1550
(dp1551
g110
g323
sg127
(dp1552
g129
g887
ssg1198
Nsg627
I96
sg1199
g106
sg1200
F1.0
sbag0
(g1412
g2
Ntp1553
Rp1554
(dp1555
g110
g325
sg127
(dp1556
g129
g890
ssg1198
Nsg627
I97
sg1199
g106
sg1200
F1.0
sbag0
(g1412
g2
Ntp1557
Rp1558
(dp1559
g110
g327
sg127
(dp1560
g129
g893
ssg1198
Nsg627
I98
sg1199
g106
sg1200
F1.0
sbasg337
S'OUT'
p1561
sg627
I11
sS'schema'
p1562
g106
sbag0
(g114
g2
Ntp1563
Rp1564
(dp1565
g110
S'to_semantic_WM'
p1566
sg119
Nsg120
g121
sg337
g1561
sg627
I12
sg1562
g106
sbasS'outputs'
p1567
(dp1568
g118
Nsg1566
NssS'connections'
p1569
(lp1570
sS'cpt_knowledge'
p1571
g138
sS'dt'
p1572
F1.0
sS'in_ports'
p1573
(lp1574
sS'params'
p1575
(dp1576
g1200
F1.0
ssS't'
p1577
I0
sS'activity'
p1578
I0
sg1198
g0
(cschema_theory
MODEL
p1579
g2
Ntp1580
Rp1581
(dp1582
S'verbose'
p1583
I00
sg110
S'language_system_P'
p1584
sS'sim_data'
p1585
(dp1586
S'system_states'
p1587
(dp1588
sg1198
(dp1589
ssg1567
(dp1590
sS'input_ports'
p1591
(lp1592
g0
(g114
g2
Ntp1593
Rp1594
(dp1595
g110
S'from_conceptualizer'
p1596
sg119
Nsg120
Nsg337
S'IN'
p1597
sg627
I1
sg1562
g0
(clanguage_schemas
SEMANTIC_WM
p1598
g2
Ntp1599
Rp1600
(dp1601
g108
(dp1602
S'from_grammatical_WM_P'
p1603
NsS'from_concept_LTM'
p1604
NsS'from_control'
p1605
NsS'from_grammatical_WM_C'
p1606
Nsg1596
NssS'schema_insts'
p1607
(lp1608
sg110
S'Semantic_WM'
p1609
sS'comp_links'
p1610
(lp1611
sg112
(lp1612
g0
(g114
g2
Ntp1613
Rp1614
(dp1615
S'port_data'
p1616
Nsg110
S'to_grammatical_WM_P'
p1617
sg119
Nsg120
NsS'port_value'
p1618
Nsg337
g1561
sg627
I6
sg1562
g1600
sbag0
(g114
g2
Ntp1619
Rp1620
(dp1621
g1616
Nsg110
S'to_cxn_retrieval_P'
p1622
sg119
Nsg120
Nsg1618
Nsg337
g1561
sg627
I7
sg1562
g1600
sbag0
(g114
g2
Ntp1623
Rp1624
(dp1625
g1616
Nsg110
S'to_control'
p1626
sg119
Nsg120
Nsg1618
Nsg337
g1561
sg627
I8
sg1562
g1600
sbag0
(g114
g2
Ntp1627
Rp1628
(dp1629
g110
S'to_visual_WM'
p1630
sg119
Nsg120
Nsg337
g1561
sg627
I9
sg1562
g1600
sbag0
(g114
g2
Ntp1631
Rp1632
(dp1633
g110
S'to_output'
p1634
sg119
Nsg120
Nsg337
g1561
sg627
I10
sg1562
g1600
sbasg1567
(dp1635
g1634
Nsg1617
Nsg1630
Nsg1622
Nsg1626
Nssg1572
F1.0
sS'coop_links'
p1636
(lp1637
sg1573
(lp1638
g1594
ag0
(g114
g2
Ntp1639
Rp1640
(dp1641
g110
g1604
sg119
Nsg120
Nsg337
g1597
sg627
I2
sg1562
g1600
sbag0
(g114
g2
Ntp1642
Rp1643
(dp1644
g110
g1606
sg119
Nsg120
Nsg337
g1597
sg627
I3
sg1562
g1600
sbag0
(g114
g2
Ntp1645
Rp1646
(dp1647
g1616
Nsg110
g1603
sg119
Nsg120
Nsg1618
Nsg337
g1597
sg627
I4
sg1562
g1600
sbag0
(g114
g2
Ntp1648
Rp1649
(dp1650
g1616
Nsg110
g1605
sg119
Nsg120
S'produce'
p1651
sg1618
Nsg337
g1597
sg627
I5
sg1562
g1600
sbasS'save_state'
p1652
(dp1653
S'insts'
p1654
(dp1655
sS'WM_activity'
p1656
(dp1657
S'comp'
p1658
(lp1659
sS'c2_network'
p1660
(dp1661
S'num_insts'
p1662
(lp1663
sS'num_coop_links'
p1664
(lp1665
sS'num_comp_links'
p1666
(lp1667
ssS'coop'
p1668
(lp1669
sg1577
(lp1670
sS'act'
p1671
(lp1672
sssg1575
(dp1673
S'C2'
p1674
(dp1675
S'P_comp'
p1676
F1.0
sS'max_capacity'
p1677
NsS'comp_weight'
p1678
F0.0
sS'P_coop'
p1679
F1.0
sS'coop_asymmetry'
p1680
F1.0
sS'coop_weight'
p1681
F0.0
sS'confidence_threshold'
p1682
F0.0
sS'comp_asymmetry'
p1683
F0.0
sS'prune_threshold'
p1684
F0.01
ssS'dyn'
p1685
(dp1686
S'tau'
p1687
F10000.0
sS'k'
p1688
F10.0
sS'act_rest'
p1689
F0.001
sS'noise_mean'
p1690
F0.0
sS'noise_std'
p1691
F1.0
sS'ext_weight'
p1692
F1.0
sS'int_weight'
p1693
F1.0
sssg1577
I0
sg1578
I0
sg1198
g1581
sS'SemRep'
p1694
g0
(g141
g2
Ntp1695
Rp1696
(dp1697
g145
(dp1698
sg328
g329
sg330
g329
sg331
(dp1699
sg525
g1699
sg140
(dp1700
sg527
g329
sg528
g1699
sg529
(dp1701
sbsg627
I1
sbsbasS'brain_mapping'
p1702
g0
(cschema_theory
BRAIN_MAPPING
p1703
g2
Ntp1704
Rp1705
(dp1706
S'schema_mapping'
p1707
(dp1708
S'Control'
p1709
(lp1710
S'DLPFC'
p1711
asS'Utter'
p1712
(lp1713
S''
p1714
asg1609
(lp1715
S'left_SFG'
p1716
aS'LIP'
p1717
aS'Hippocampus'
p1718
asS'Phonological_WM_P'
p1719
(lp1720
S'left_BA6'
p1721
asg111
(lp1722
g1714
asS'Grammatical_WM_P'
p1723
(lp1724
S'left_BA45'
p1725
aS'leftBA44'
p1726
asS'Grammatical_LTM'
p1727
(lp1728
S'left_STG'
p1729
aS'left_MTG'
p1730
asS'Cxn_retrieval_P'
p1731
(lp1732
ssS'connect_mapping'
p1733
(dp1734
sbsg1569
(lp1735
g0
(cschema_theory
CONNECT
p1736
g2
Ntp1737
Rp1738
(dp1739
S'delay'
p1740
I0
sg110
g1714
sS'weight'
p1741
I0
sS'port_to'
p1742
g0
(g114
g2
Ntp1743
Rp1744
(dp1745
g1616
Nsg110
S'from_semantic_WM'
p1746
sg119
Nsg120
Nsg1618
Nsg337
g1597
sg627
I23
sg1562
g0
(clanguage_schemas
CXN_RETRIEVAL_P
p1747
g2
Ntp1748
Rp1749
(dp1750
g108
(dp1751
g1746
NsS'from_grammatical_LTM'
p1752
Nssg110
g1731
sg112
(lp1753
g0
(g114
g2
Ntp1754
Rp1755
(dp1756
g1616
Nsg110
g1617
sg119
Nsg120
Nsg1618
Nsg337
g1561
sg627
I24
sg1562
g1749
sbasg1567
(dp1757
g1617
NssS'cxn_instances'
p1758
(lp1759
sg1572
F1.0
sg1573
(lp1760
g0
(g114
g2
Ntp1761
Rp1762
(dp1763
g1616
Nsg110
g1752
sg119
Nsg120
(lp1764
g0
(clanguage_schemas
CXN_SCHEMA
p1765
g2
Ntp1766
Rp1767
(dp1768
g110
VCNJ_AND
p1769
sg127
(iconstruction
CXN
p1770
(dp1771
S'SymLinks'
p1772
(iconstruction
TP_SYMLINKS
p1773
(dp1774
S'SL'
p1775
(dp1776
VEVT1_4
p1777
VS1_6
p1778
sVEVT2_5
p1779
VS3_8
p1780
ssg627
I3
sg110
g1714
sbsS'clss'
p1781
VD
p1782
sS'group'
p1783
I3
sg110
g1769
sS'SemFrame'
p1784
(iconstruction
TP_SEMFRAME
p1785
(dp1786
g140
g0
(g141
g2
Ntp1787
Rp1788
(dp1789
g145
(dp1790
(iconstruction
TP_NODE
p1791
(dp1792
S'head'
p1793
I00
sg129
g782
sg110
g1779
sS'frame'
p1794
I00
sS'focus'
p1795
I00
sg627
I5
sb(dp1796
g1794
I00
sg129
g782
ss(iconstruction
TP_NODE
p1797
(dp1798
g1793
I00
sg129
g782
sg110
g1777
sg1794
I00
sg1795
I01
sg627
I4
sb(dp1799
g1794
I00
sg129
g782
sssg328
g329
sg330
g329
sg331
(dp1800
g1791
(dp1801
sg1797
(dp1802
ssg525
g1800
sg140
(dp1803
sg527
g329
sg528
g1800
sg529
(dp1804
g1791
(dp1805
sg1797
(dp1806
ssbsg622
(lp1807
g1797
ag1791
asg895
(lp1808
sg627
I1
sg110
g1714
sbsS'SynForm'
p1809
(iconstruction
TP_SYNFORM
p1810
(dp1811
g627
I2
sS'form'
p1812
(lp1813
(iconstruction
TP_SLOT
p1814
(dp1815
S'cxn_classes'
p1816
(lp1817
VS
p1818
asS'order'
p1819
I0
sg627
I6
sg110
g1778
sba(iconstruction
TP_PHON
p1820
(dp1821
S'num_syllables'
p1822
I3
sg1819
I1
sg627
I7
sS'cxn_phonetics'
p1823
Vand
p1824
sg110
VS2_7
p1825
sba(iconstruction
TP_SLOT
p1826
(dp1827
g1816
(lp1828
VS
p1829
asg1819
I2
sg627
I8
sg110
g1780
sbasg110
g1714
sbsS'preference'
p1830
I1
sbsg1198
Nsg627
I99
sg1199
g0
(clanguage_schemas
GRAMMATICAL_LTM
p1831
g2
Ntp1832
Rp1833
(dp1834
g108
(dp1835
sS'grammar'
p1836
(iconstruction
GRAMMAR
p1837
(dp1838
S'constructions'
p1839
(lp1840
g1770
a(iconstruction
CXN
p1841
(dp1842
g1772
(iconstruction
TP_SYMLINKS
p1843
(dp1844
g1775
(dp1845
VEVT2_13
p1846
VS3_17
p1847
sVEVT1_12
p1848
VS1_15
p1849
ssg627
I11
sg110
g1714
sbsg1781
VD
p1850
sg1783
I3
sg110
VCNJ_THEN
p1851
sg1784
(iconstruction
TP_SEMFRAME
p1852
(dp1853
g140
g0
(g141
g2
Ntp1854
Rp1855
(dp1856
g145
(dp1857
(iconstruction
TP_NODE
p1858
(dp1859
g1793
I00
sg129
g782
sg110
g1846
sg1794
I00
sg1795
I00
sg627
I13
sb(dp1860
g1794
I00
sg129
g782
ss(iconstruction
TP_NODE
p1861
(dp1862
g1793
I00
sg129
g782
sg110
g1848
sg1794
I00
sg1795
I00
sg627
I12
sb(dp1863
g1794
I00
sg129
g782
sssg328
g329
sg330
g329
sg331
(dp1864
g1858
(dp1865
sg1861
(dp1866
g1858
(dp1867
g129
g767
ssssg525
g1864
sg140
(dp1868
sg527
g329
sg528
g1864
sg529
(dp1869
g1858
(dp1870
g1861
g1867
ssg1861
(dp1871
ssbsg622
(lp1872
g1861
ag1858
asg895
(lp1873
(iconstruction
TP_REL
p1874
(dp1875
g901
g1858
sg129
g767
sg627
I14
sg902
g1861
sg110
VEVT1_EVT2_14
p1876
sbasg627
I9
sg110
g1714
sbsg1809
(iconstruction
TP_SYNFORM
p1877
(dp1878
g627
I10
sg1812
(lp1879
(iconstruction
TP_SLOT
p1880
(dp1881
g1816
(lp1882
VS
p1883
asg1819
I0
sg627
I15
sg110
g1849
sba(iconstruction
TP_PHON
p1884
(dp1885
g1822
I4
sg1819
I1
sg627
I16
sg1823
Vthen
p1886
sg110
VS2_16
p1887
sba(iconstruction
TP_SLOT
p1888
(dp1889
g1816
(lp1890
VS
p1891
asg1819
I2
sg627
I17
sg110
g1847
sbasg110
g1714
sbsg1830
I1
sba(iconstruction
CXN
p1892
(dp1893
g1772
(iconstruction
TP_SYMLINKS
p1894
(dp1895
g1775
(dp1896
VEVT2_22
p1897
VS3_26
p1898
sVEVT1_21
p1899
VS1_24
p1900
ssg627
I20
sg110
g1714
sbsg1781
VD
p1901
sg1783
I3
sg110
VCNJ_WHILE
p1902
sg1784
(iconstruction
TP_SEMFRAME
p1903
(dp1904
g140
g0
(g141
g2
Ntp1905
Rp1906
(dp1907
g145
(dp1908
(iconstruction
TP_NODE
p1909
(dp1910
g1793
I00
sg129
g782
sg110
g1899
sg1794
I00
sg1795
I01
sg627
I21
sb(dp1911
g1794
I00
sg129
g782
ss(iconstruction
TP_NODE
p1912
(dp1913
g1793
I00
sg129
g782
sg110
g1897
sg1794
I00
sg1795
I00
sg627
I22
sb(dp1914
g1794
I00
sg129
g782
sssg328
g329
sg330
g329
sg331
(dp1915
g1909
(dp1916
g1912
(dp1917
g129
g764
sssg1912
(dp1918
ssg525
g1915
sg140
(dp1919
sg527
g329
sg528
g1915
sg529
(dp1920
g1909
(dp1921
sg1912
(dp1922
g1909
g1917
sssbsg622
(lp1923
g1909
ag1912
asg895
(lp1924
(iconstruction
TP_REL
p1925
(dp1926
g901
g1912
sg129
g764
sg627
I23
sg902
g1909
sg110
VEVT1_EVT2_23
p1927
sbasg627
I18
sg110
g1714
sbsg1809
(iconstruction
TP_SYNFORM
p1928
(dp1929
g627
I19
sg1812
(lp1930
(iconstruction
TP_SLOT
p1931
(dp1932
g1816
(lp1933
VS
p1934
asg1819
I0
sg627
I24
sg110
g1900
sba(iconstruction
TP_PHON
p1935
(dp1936
g1822
I5
sg1819
I1
sg627
I25
sg1823
Vwhile
p1937
sg110
VS2_25
p1938
sba(iconstruction
TP_SLOT
p1939
(dp1940
g1816
(lp1941
VS
p1942
asg1819
I2
sg627
I26
sg110
g1898
sbasg110
g1714
sbsg1830
I1
sba(iconstruction
CXN
p1943
(dp1944
g1772
(iconstruction
TP_SYMLINKS
p1945
(dp1946
g1775
(dp1947
VACT_31
p1948
VS4_40
p1949
sVACTOR_1_32
p1950
VS1_37
p1951
sVACTOR_2_33
p1952
VS3_39
p1953
ssg627
I29
sg110
g1714
sbsg1781
VS
p1954
sg1783
Nsg110
VSYMMETRIC_TRANS
p1955
sg1784
(iconstruction
TP_SEMFRAME
p1956
(dp1957
g140
g0
(g141
g2
Ntp1958
Rp1959
(dp1960
g145
(dp1961
(iconstruction
TP_NODE
p1962
(dp1963
g1793
I00
sg129
g785
sg110
g1950
sg1794
I01
sg1795
I01
sg627
I32
sb(dp1964
g1794
I01
sg129
g785
ss(iconstruction
TP_NODE
p1965
(dp1966
g1793
I00
sg129
g629
sg110
g1948
sg1794
I01
sg1795
I00
sg627
I31
sb(dp1967
g1794
I01
sg129
g629
ss(iconstruction
TP_NODE
p1968
(dp1969
g1793
I01
sg129
g782
sg110
VEVT_30
p1970
sg1794
I01
sg1795
I00
sg627
I30
sb(dp1971
g1794
I01
sg129
g782
ss(iconstruction
TP_NODE
p1972
(dp1973
g1793
I00
sg129
g785
sg110
g1952
sg1794
I01
sg1795
I00
sg627
I33
sb(dp1974
g1794
I01
sg129
g785
sssg328
g329
sg330
g329
sg331
(dp1975
g1962
(dp1976
sg1965
(dp1977
g1962
(dp1978
g129
g752
ssg1972
(dp1979
g129
g752
sssg1968
(dp1980
g1965
(dp1981
g129
g776
sssg1972
(dp1982
ssg525
g1975
sg140
(dp1983
sg527
g329
sg528
g1975
sg529
(dp1984
g1962
(dp1985
g1965
g1978
ssg1965
(dp1986
g1968
g1981
ssg1968
(dp1987
sg1972
(dp1988
g1965
g1979
sssbsg622
(lp1989
g1968
ag1965
ag1962
ag1972
asg895
(lp1990
(iconstruction
TP_REL
p1991
(dp1992
g901
g1965
sg129
g776
sg627
I34
sg902
g1968
sg110
VIS_34
p1993
sba(iconstruction
TP_REL
p1994
(dp1995
g901
g1962
sg129
g752
sg627
I35
sg902
g1965
sg110
VAGT_PT_1_35
p1996
sba(iconstruction
TP_REL
p1997
(dp1998
g901
g1972
sg129
g752
sg627
I36
sg902
g1965
sg110
VAGT_PT_2_36
p1999
sbasg627
I27
sg110
g1714
sbsg1809
(iconstruction
TP_SYNFORM
p2000
(dp2001
g627
I28
sg1812
(lp2002
(iconstruction
TP_SLOT
p2003
(dp2004
g1816
(lp2005
VNP
p2006
aVN
p2007
asg1819
I0
sg627
I37
sg110
g1951
sba(iconstruction
TP_PHON
p2008
(dp2009
g1822
I3
sg1819
I1
sg627
I38
sg1823
Vand
p2010
sg110
VS2_38
p2011
sba(iconstruction
TP_SLOT
p2012
(dp2013
g1816
(lp2014
VNP
p2015
aVN
p2016
asg1819
I2
sg627
I39
sg110
g1953
sba(iconstruction
TP_SLOT
p2017
(dp2018
g1816
(lp2019
VVP
p2020
aVV
p2021
asg1819
I3
sg627
I40
sg110
g1949
sbasg110
g1714
sbsg1830
I1
sba(iconstruction
CXN
p2022
(dp2023
g1772
(iconstruction
TP_SYMLINKS
p2024
(dp2025
g1775
(dp2026
VAGT_46
p2027
VS1_51
p2028
sVACT_45
p2029
VS2_52
p2030
sVPT_47
p2031
VS3_53
p2032
ssg627
I43
sg110
g1714
sbsg1781
VS
p2033
sg1783
I2
sg110
VSVO
p2034
sg1784
(iconstruction
TP_SEMFRAME
p2035
(dp2036
g140
g0
(g141
g2
Ntp2037
Rp2038
(dp2039
g145
(dp2040
(iconstruction
TP_NODE
p2041
(dp2042
g1793
I01
sg129
g782
sg110
VEVT_44
p2043
sg1794
I01
sg1795
I00
sg627
I44
sb(dp2044
g1794
I01
sg129
g782
ss(iconstruction
TP_NODE
p2045
(dp2046
g1793
I00
sg129
g785
sg110
g2027
sg1794
I01
sg1795
I01
sg627
I46
sb(dp2047
g1794
I01
sg129
g785
ss(iconstruction
TP_NODE
p2048
(dp2049
g1793
I00
sg129
g629
sg110
g2029
sg1794
I01
sg1795
I00
sg627
I45
sb(dp2050
g1794
I01
sg129
g629
ss(iconstruction
TP_NODE
p2051
(dp2052
g1793
I00
sg129
g785
sg110
g2031
sg1794
I01
sg1795
I00
sg627
I47
sb(dp2053
g1794
I01
sg129
g785
sssg328
g329
sg330
g329
sg331
(dp2054
g2041
(dp2055
g2048
(dp2056
g129
g776
sssg2045
(dp2057
sg2048
(dp2058
g2045
(dp2059
g129
g755
ssg2051
(dp2060
g129
g749
sssg2051
(dp2061
ssg525
g2054
sg140
(dp2062
sg527
g329
sg528
g2054
sg529
(dp2063
g2041
(dp2064
sg2045
(dp2065
g2048
g2059
ssg2048
(dp2066
g2041
g2056
ssg2051
(dp2067
g2048
g2060
sssbsg622
(lp2068
g2041
ag2048
ag2045
ag2051
asg895
(lp2069
(iconstruction
TP_REL
p2070
(dp2071
g901
g2048
sg129
g776
sg627
I48
sg902
g2041
sg110
VIS_48
p2072
sba(iconstruction
TP_REL
p2073
(dp2074
g901
g2045
sg129
g755
sg627
I49
sg902
g2048
sg110
VACT_AGT_49
p2075
sba(iconstruction
TP_REL
p2076
(dp2077
g901
g2051
sg129
g749
sg627
I50
sg902
g2048
sg110
VACT_PT_50
p2078
sbasg627
I41
sg110
g1714
sbsg1809
(iconstruction
TP_SYNFORM
p2079
(dp2080
g627
I42
sg1812
(lp2081
(iconstruction
TP_SLOT
p2082
(dp2083
g1816
(lp2084
VNP
p2085
aVN
p2086
asg1819
I0
sg627
I51
sg110
g2028
sba(iconstruction
TP_SLOT
p2087
(dp2088
g1816
(lp2089
VVP
p2090
aVV
p2091
asg1819
I1
sg627
I52
sg110
g2030
sba(iconstruction
TP_SLOT
p2092
(dp2093
g1816
(lp2094
VNP
p2095
aVN
p2096
asg1819
I2
sg627
I53
sg110
g2032
sbasg110
g1714
sbsg1830
I1
sba(iconstruction
CXN
p2097
(dp2098
g1772
(iconstruction
TP_SYMLINKS
p2099
(dp2100
g1775
(dp2101
VPT_60
p2102
VS1_64
p2103
sVACT_58
p2104
VS3_66
p2105
sVAGT_59
p2106
VS6_69
p2107
ssg627
I56
sg110
g1714
sbsg1781
VS
p2108
sg1783
I2
sg110
VPAS_SVO
p2109
sg1784
(iconstruction
TP_SEMFRAME
p2110
(dp2111
g140
g0
(g141
g2
Ntp2112
Rp2113
(dp2114
g145
(dp2115
(iconstruction
TP_NODE
p2116
(dp2117
g1793
I00
sg129
g629
sg110
g2104
sg1794
I01
sg1795
I00
sg627
I58
sb(dp2118
g1794
I01
sg129
g629
ss(iconstruction
TP_NODE
p2119
(dp2120
g1793
I00
sg129
g785
sg110
g2106
sg1794
I01
sg1795
I00
sg627
I59
sb(dp2121
g1794
I01
sg129
g785
ss(iconstruction
TP_NODE
p2122
(dp2123
g1793
I00
sg129
g785
sg110
g2102
sg1794
I01
sg1795
I01
sg627
I60
sb(dp2124
g1794
I01
sg129
g785
ss(iconstruction
TP_NODE
p2125
(dp2126
g1793
I01
sg129
g782
sg110
VEVT_57
p2127
sg1794
I01
sg1795
I00
sg627
I57
sb(dp2128
g1794
I01
sg129
g782
sssg328
g329
sg330
g329
sg331
(dp2129
g2116
(dp2130
g2122
(dp2131
g129
g749
ssg2119
(dp2132
g129
g755
sssg2119
(dp2133
sg2122
(dp2134
sg2125
(dp2135
g2116
(dp2136
g129
g776
ssssg525
g2129
sg140
(dp2137
sg527
g329
sg528
g2129
sg529
(dp2138
g2116
(dp2139
g2125
g2136
ssg2119
(dp2140
g2116
g2132
ssg2122
(dp2141
g2116
g2131
ssg2125
(dp2142
ssbsg622
(lp2143
g2125
ag2116
ag2119
ag2122
asg895
(lp2144
(iconstruction
TP_REL
p2145
(dp2146
g901
g2116
sg129
g776
sg627
I61
sg902
g2125
sg110
VIS_61
p2147
sba(iconstruction
TP_REL
p2148
(dp2149
g901
g2119
sg129
g755
sg627
I62
sg902
g2116
sg110
VACT_AGT_62
p2150
sba(iconstruction
TP_REL
p2151
(dp2152
g901
g2122
sg129
g749
sg627
I63
sg902
g2116
sg110
VACT_PT_63
p2153
sbasg627
I54
sg110
g1714
sbsg1809
(iconstruction
TP_SYNFORM
p2154
(dp2155
g627
I55
sg1812
(lp2156
(iconstruction
TP_SLOT
p2157
(dp2158
g1816
(lp2159
VNP
p2160
aVN
p2161
asg1819
I0
sg627
I64
sg110
g2103
sba(iconstruction
TP_PHON
p2162
(dp2163
g1822
I2
sg1819
I1
sg627
I65
sg1823
Vis
p2164
sg110
VS2_65
p2165
sba(iconstruction
TP_SLOT
p2166
(dp2167
g1816
(lp2168
VVP
p2169
aVV
p2170
asg1819
I2
sg627
I66
sg110
g2105
sba(iconstruction
TP_PHON
p2171
(dp2172
g1822
I2
sg1819
I3
sg627
I67
sg1823
V-ed
p2173
sg110
VS4_67
p2174
sba(iconstruction
TP_PHON
p2175
(dp2176
g1822
I2
sg1819
I4
sg627
I68
sg1823
Vby
p2177
sg110
VS5_68
p2178
sba(iconstruction
TP_SLOT
p2179
(dp2180
g1816
(lp2181
VNP
p2182
aVN
p2183
asg1819
I5
sg627
I69
sg110
g2107
sbasg110
g1714
sbsg1830
I1
sba(iconstruction
CXN
p2184
(dp2185
g1772
(iconstruction
TP_SYMLINKS
p2186
(dp2187
g1775
(dp2188
VACT_74
p2189
VS2_83
p2190
sVRCPT_77
p2191
VS3_84
p2192
sVTHEME_76
p2193
VS4_85
p2194
sVAGT_75
p2195
VS1_82
p2196
ssg627
I72
sg110
g1714
sbsg1781
VS
p2197
sg1783
I2
sg110
VDOUBLE_OBJ
p2198
sg1784
(iconstruction
TP_SEMFRAME
p2199
(dp2200
g140
g0
(g141
g2
Ntp2201
Rp2202
(dp2203
g145
(dp2204
(iconstruction
TP_NODE
p2205
(dp2206
g1793
I00
sg129
g629
sg110
g2189
sg1794
I01
sg1795
I00
sg627
I74
sb(dp2207
g1794
I01
sg129
g629
ss(iconstruction
TP_NODE
p2208
(dp2209
g1793
I00
sg129
g785
sg110
g2195
sg1794
I01
sg1795
I01
sg627
I75
sb(dp2210
g1794
I01
sg129
g785
ss(iconstruction
TP_NODE
p2211
(dp2212
g1793
I00
sg129
g785
sg110
g2191
sg1794
I01
sg1795
I00
sg627
I77
sb(dp2213
g1794
I01
sg129
g785
ss(iconstruction
TP_NODE
p2214
(dp2215
g1793
I01
sg129
g782
sg110
VEVT_73
p2216
sg1794
I01
sg1795
I00
sg627
I73
sb(dp2217
g1794
I01
sg129
g782
ss(iconstruction
TP_NODE
p2218
(dp2219
g1793
I00
sg129
g785
sg110
g2193
sg1794
I01
sg1795
I00
sg627
I76
sb(dp2220
g1794
I01
sg129
g785
sssg328
g329
sg330
g329
sg331
(dp2221
g2205
(dp2222
g2218
(dp2223
g129
g737
ssg2211
(dp2224
g129
g740
ssg2208
(dp2225
g129
g755
sssg2208
(dp2226
sg2211
(dp2227
sg2214
(dp2228
g2205
(dp2229
g129
g776
sssg2218
(dp2230
ssg525
g2221
sg140
(dp2231
sg527
g329
sg528
g2221
sg529
(dp2232
g2205
(dp2233
g2214
g2229
ssg2208
(dp2234
g2205
g2225
ssg2211
(dp2235
g2205
g2224
ssg2214
(dp2236
sg2218
(dp2237
g2205
g2223
sssbsg622
(lp2238
g2214
ag2205
ag2208
ag2218
ag2211
asg895
(lp2239
(iconstruction
TP_REL
p2240
(dp2241
g901
g2205
sg129
g776
sg627
I78
sg902
g2214
sg110
VIS_78
p2242
sba(iconstruction
TP_REL
p2243
(dp2244
g901
g2208
sg129
g755
sg627
I79
sg902
g2205
sg110
VACT_AGT_79
p2245
sba(iconstruction
TP_REL
p2246
(dp2247
g901
g2218
sg129
g737
sg627
I80
sg902
g2205
sg110
VACT_THEME_80
p2248
sba(iconstruction
TP_REL
p2249
(dp2250
g901
g2211
sg129
g740
sg627
I81
sg902
g2205
sg110
VACT_RCPT_81
p2251
sbasg627
I70
sg110
g1714
sbsg1809
(iconstruction
TP_SYNFORM
p2252
(dp2253
g627
I71
sg1812
(lp2254
(iconstruction
TP_SLOT
p2255
(dp2256
g1816
(lp2257
VNP
p2258
aVN
p2259
asg1819
I0
sg627
I82
sg110
g2196
sba(iconstruction
TP_SLOT
p2260
(dp2261
g1816
(lp2262
VVP
p2263
aVV
p2264
asg1819
I1
sg627
I83
sg110
g2190
sba(iconstruction
TP_SLOT
p2265
(dp2266
g1816
(lp2267
VNP
p2268
aVN
p2269
asg1819
I2
sg627
I84
sg110
g2192
sba(iconstruction
TP_SLOT
p2270
(dp2271
g1816
(lp2272
VNP
p2273
aVN
p2274
asg1819
I3
sg627
I85
sg110
g2194
sbasg110
g1714
sbsg1830
I1
sba(iconstruction
CXN
p2275
(dp2276
g1772
(iconstruction
TP_SYMLINKS
p2277
(dp2278
g1775
(dp2279
VAGT_91
p2280
VS1_98
p2281
sVRCPT_93
p2282
VS5_102
p2283
sVACT_90
p2284
VS2_99
p2285
sVTHEME_92
p2286
VS3_100
p2287
ssg627
I88
sg110
g1714
sbsg1781
VS
p2288
sg1783
I2
sg110
VOBLIQUE_DATIVE
p2289
sg1784
(iconstruction
TP_SEMFRAME
p2290
(dp2291
g140
g0
(g141
g2
Ntp2292
Rp2293
(dp2294
g145
(dp2295
(iconstruction
TP_NODE
p2296
(dp2297
g1793
I01
sg129
g782
sg110
VEVT_89
p2298
sg1794
I01
sg1795
I00
sg627
I89
sb(dp2299
g1794
I01
sg129
g782
ss(iconstruction
TP_NODE
p2300
(dp2301
g1793
I00
sg129
g785
sg110
g2280
sg1794
I01
sg1795
I01
sg627
I91
sb(dp2302
g1794
I01
sg129
g785
ss(iconstruction
TP_NODE
p2303
(dp2304
g1793
I00
sg129
g785
sg110
g2282
sg1794
I01
sg1795
I00
sg627
I93
sb(dp2305
g1794
I01
sg129
g785
ss(iconstruction
TP_NODE
p2306
(dp2307
g1793
I00
sg129
g677
sg110
g2284
sg1794
I01
sg1795
I00
sg627
I90
sb(dp2308
g1794
I01
sg129
g677
ss(iconstruction
TP_NODE
p2309
(dp2310
g1793
I00
sg129
g785
sg110
g2286
sg1794
I01
sg1795
I00
sg627
I92
sb(dp2311
g1794
I01
sg129
g785
sssg328
g329
sg330
g329
sg331
(dp2312
g2296
(dp2313
g2306
(dp2314
g129
g776
sssg2300
(dp2315
sg2303
(dp2316
sg2306
(dp2317
g2300
(dp2318
g129
g755
ssg2303
(dp2319
g129
g740
ssg2309
(dp2320
g129
g737
sssg2309
(dp2321
ssg525
g2312
sg140
(dp2322
sg527
g329
sg528
g2312
sg529
(dp2323
g2296
(dp2324
sg2300
(dp2325
g2306
g2318
ssg2303
(dp2326
g2306
g2319
ssg2306
(dp2327
g2296
g2314
ssg2309
(dp2328
g2306
g2320
sssbsg622
(lp2329
g2296
ag2306
ag2300
ag2309
ag2303
asg895
(lp2330
(iconstruction
TP_REL
p2331
(dp2332
g901
g2306
sg129
g776
sg627
I94
sg902
g2296
sg110
VIS_94
p2333
sba(iconstruction
TP_REL
p2334
(dp2335
g901
g2300
sg129
g755
sg627
I95
sg902
g2306
sg110
VACT_AGT_95
p2336
sba(iconstruction
TP_REL
p2337
(dp2338
g901
g2309
sg129
g737
sg627
I96
sg902
g2306
sg110
VACT_THEME_96
p2339
sba(iconstruction
TP_REL
p2340
(dp2341
g901
g2303
sg129
g740
sg627
I97
sg902
g2306
sg110
VACT_RCPT_97
p2342
sbasg627
I86
sg110
g1714
sbsg1809
(iconstruction
TP_SYNFORM
p2343
(dp2344
g627
I87
sg1812
(lp2345
(iconstruction
TP_SLOT
p2346
(dp2347
g1816
(lp2348
VNP
p2349
aVN
p2350
asg1819
I0
sg627
I98
sg110
g2281
sba(iconstruction
TP_SLOT
p2351
(dp2352
g1816
(lp2353
VVP
p2354
aVV
p2355
asg1819
I1
sg627
I99
sg110
g2285
sba(iconstruction
TP_SLOT
p2356
(dp2357
g1816
(lp2358
VNP
p2359
aVN
p2360
asg1819
I2
sg627
I100
sg110
g2287
sba(iconstruction
TP_PHON
p2361
(dp2362
g1822
I2
sg1819
I3
sg627
I101
sg1823
Vto
p2363
sg110
VS4_101
p2364
sba(iconstruction
TP_SLOT
p2365
(dp2366
g1816
(lp2367
VNP
p2368
aVN
p2369
asg1819
I4
sg627
I102
sg110
g2283
sbasg110
g1714
sbsg1830
I1
sba(iconstruction
CXN
p2370
(dp2371
g1772
(iconstruction
TP_SYMLINKS
p2372
(dp2373
g1775
(dp2374
VATTR_108
p2375
VS3_113
p2376
sVENT_107
p2377
VS1_111
p2378
ssg627
I105
sg110
g1714
sbsg1781
VS
p2379
sg1783
I2
sg110
VSPA
p2380
sg1784
(iconstruction
TP_SEMFRAME
p2381
(dp2382
g140
g0
(g141
g2
Ntp2383
Rp2384
(dp2385
g145
(dp2386
(iconstruction
TP_NODE
p2387
(dp2388
g1793
I00
sg129
g785
sg110
g2377
sg1794
I01
sg1795
I01
sg627
I107
sb(dp2389
g1794
I01
sg129
g785
ss(iconstruction
TP_NODE
p2390
(dp2391
g1793
I00
sg129
g686
sg110
g2375
sg1794
I00
sg1795
I00
sg627
I108
sb(dp2392
g1794
I00
sg129
g686
ss(iconstruction
TP_NODE
p2393
(dp2394
g1793
I01
sg129
g782
sg110
VEVT_106
p2395
sg1794
I01
sg1795
I00
sg627
I106
sb(dp2396
g1794
I01
sg129
g782
sssg328
g329
sg330
g329
sg331
(dp2397
g2387
(dp2398
sg2390
(dp2399
sg2393
(dp2400
g2387
(dp2401
g129
g776
ssg2390
(dp2402
g129
g734
ssssg525
g2397
sg140
(dp2403
sg527
g329
sg528
g2397
sg529
(dp2404
g2387
(dp2405
g2393
g2401
ssg2390
(dp2406
g2393
g2402
ssg2393
(dp2407
ssbsg622
(lp2408
g2393
ag2387
ag2390
asg895
(lp2409
(iconstruction
TP_REL
p2410
(dp2411
g901
g2387
sg129
g776
sg627
I109
sg902
g2393
sg110
VIS_109
p2412
sba(iconstruction
TP_REL
p2413
(dp2414
g901
g2390
sg129
g734
sg627
I110
sg902
g2393
sg110
VEVT_ATTR_110
p2415
sbasg627
I103
sg110
g1714
sbsg1809
(iconstruction
TP_SYNFORM
p2416
(dp2417
g627
I104
sg1812
(lp2418
(iconstruction
TP_SLOT
p2419
(dp2420
g1816
(lp2421
VNP
p2422
aVN
p2423
asg1819
I0
sg627
I111
sg110
g2378
sba(iconstruction
TP_PHON
p2424
(dp2425
g1822
I2
sg1819
I1
sg627
I112
sg1823
Vis
p2426
sg110
VS2_112
p2427
sba(iconstruction
TP_SLOT
p2428
(dp2429
g1816
(lp2430
VA
p2431
asg1819
I2
sg627
I113
sg110
g2376
sbasg110
g1714
sbsg1830
I1
sba(iconstruction
CXN
p2432
(dp2433
g1772
(iconstruction
TP_SYMLINKS
p2434
(dp2435
g1775
(dp2436
VAGT_119
p2437
VS1_122
p2438
sVACT_118
p2439
VS2_123
p2440
ssg627
I116
sg110
g1714
sbsg1781
VS
p2441
sg1783
I2
sg110
VSV
p2442
sg1784
(iconstruction
TP_SEMFRAME
p2443
(dp2444
g140
g0
(g141
g2
Ntp2445
Rp2446
(dp2447
g145
(dp2448
(iconstruction
TP_NODE
p2449
(dp2450
g1793
I01
sg129
g782
sg110
VEVT_117
p2451
sg1794
I01
sg1795
I00
sg627
I117
sb(dp2452
g1794
I01
sg129
g782
ss(iconstruction
TP_NODE
p2453
(dp2454
g1793
I00
sg129
g785
sg110
g2437
sg1794
I01
sg1795
I01
sg627
I119
sb(dp2455
g1794
I01
sg129
g785
ss(iconstruction
TP_NODE
p2456
(dp2457
g1793
I00
sg129
g641
sg110
g2439
sg1794
I01
sg1795
I00
sg627
I118
sb(dp2458
g1794
I01
sg129
g641
sssg328
g329
sg330
g329
sg331
(dp2459
g2449
(dp2460
g2456
(dp2461
g129
g776
sssg2453
(dp2462
sg2456
(dp2463
g2453
(dp2464
g129
g755
ssssg525
g2459
sg140
(dp2465
sg527
g329
sg528
g2459
sg529
(dp2466
g2449
(dp2467
sg2453
(dp2468
g2456
g2464
ssg2456
(dp2469
g2449
g2461
sssbsg622
(lp2470
g2449
ag2456
ag2453
asg895
(lp2471
(iconstruction
TP_REL
p2472
(dp2473
g901
g2456
sg129
g776
sg627
I120
sg902
g2449
sg110
VIS_120
p2474
sba(iconstruction
TP_REL
p2475
(dp2476
g901
g2453
sg129
g755
sg627
I121
sg902
g2456
sg110
VACT_AGT_121
p2477
sbasg627
I114
sg110
g1714
sbsg1809
(iconstruction
TP_SYNFORM
p2478
(dp2479
g627
I115
sg1812
(lp2480
(iconstruction
TP_SLOT
p2481
(dp2482
g1816
(lp2483
VNP
p2484
aVN
p2485
asg1819
I0
sg627
I122
sg110
g2438
sba(iconstruction
TP_SLOT
p2486
(dp2487
g1816
(lp2488
VVP
p2489
aVV
p2490
asg1819
I1
sg627
I123
sg110
g2440
sbasg110
g1714
sbsg1830
I1
sba(iconstruction
CXN
p2491
(dp2492
g1772
(iconstruction
TP_SYMLINKS
p2493
(dp2494
g1775
(dp2495
VEVT_127
p2496
VS1_130
p2497
sVPLACE_128
p2498
VS3_132
p2499
ssg627
I126
sg110
g1714
sbsg1781
VS
p2500
sg1783
I2
sg110
VPP_IN
p2501
sg1784
(iconstruction
TP_SEMFRAME
p2502
(dp2503
g140
g0
(g141
g2
Ntp2504
Rp2505
(dp2506
g145
(dp2507
(iconstruction
TP_NODE
p2508
(dp2509
g1793
I01
sg129
g782
sg110
g2496
sg1794
I01
sg1795
I00
sg627
I127
sb(dp2510
g1794
I01
sg129
g782
ss(iconstruction
TP_NODE
p2511
(dp2512
g1793
I00
sg129
g785
sg110
g2498
sg1794
I01
sg1795
I00
sg627
I128
sb(dp2513
g1794
I01
sg129
g785
sssg328
g329
sg330
g329
sg331
(dp2514
g2508
(dp2515
g2511
(dp2516
g129
g773
sssg2511
(dp2517
ssg525
g2514
sg140
(dp2518
sg527
g329
sg528
g2514
sg529
(dp2519
g2508
(dp2520
sg2511
(dp2521
g2508
g2516
sssbsg622
(lp2522
g2508
ag2511
asg895
(lp2523
(iconstruction
TP_REL
p2524
(dp2525
g901
g2511
sg129
g773
sg627
I129
sg902
g2508
sg110
VEVT_PP_129
p2526
sbasg627
I124
sg110
g1714
sbsg1809
(iconstruction
TP_SYNFORM
p2527
(dp2528
g627
I125
sg1812
(lp2529
(iconstruction
TP_SLOT
p2530
(dp2531
g1816
(lp2532
VS
p2533
asg1819
I0
sg627
I130
sg110
g2497
sba(iconstruction
TP_PHON
p2534
(dp2535
g1822
I2
sg1819
I1
sg627
I131
sg1823
Vin
p2536
sg110
VS2_131
p2537
sba(iconstruction
TP_SLOT
p2538
(dp2539
g1816
(lp2540
VNP
p2541
aVN
p2542
asg1819
I2
sg627
I132
sg110
g2499
sbasg110
g1714
sbsg1830
I1
sba(iconstruction
CXN
p2543
(dp2544
g1772
(iconstruction
TP_SYMLINKS
p2545
(dp2546
g1775
(dp2547
VEVT2_137
p2548
VS2_140
p2549
sVEVT1_136
p2550
VS1_139
p2551
ssg627
I135
sg110
g1714
sbsg1781
VS
p2552
sg1783
I2
sg110
VS_PP
p2553
sg1784
(iconstruction
TP_SEMFRAME
p2554
(dp2555
g140
g0
(g141
g2
Ntp2556
Rp2557
(dp2558
g145
(dp2559
(iconstruction
TP_NODE
p2560
(dp2561
g1793
I01
sg129
g782
sg110
g2550
sg1794
I01
sg1795
I01
sg627
I136
sb(dp2562
g1794
I01
sg129
g782
ss(iconstruction
TP_NODE
p2563
(dp2564
g1793
I00
sg129
g782
sg110
g2548
sg1794
I01
sg1795
I00
sg627
I137
sb(dp2565
g1794
I01
sg129
g782
sssg328
g329
sg330
g329
sg331
(dp2566
g2560
(dp2567
g2563
(dp2568
g129
g734
sssg2563
(dp2569
ssg525
g2566
sg140
(dp2570
sg527
g329
sg528
g2566
sg529
(dp2571
g2560
(dp2572
sg2563
(dp2573
g2560
g2568
sssbsg622
(lp2574
g2560
ag2563
asg895
(lp2575
(iconstruction
TP_REL
p2576
(dp2577
g901
g2563
sg129
g734
sg627
I138
sg902
g2560
sg110
VMOD_138
p2578
sbasg627
I133
sg110
g1714
sbsg1809
(iconstruction
TP_SYNFORM
p2579
(dp2580
g627
I134
sg1812
(lp2581
(iconstruction
TP_SLOT
p2582
(dp2583
g1816
(lp2584
VS
p2585
asg1819
I0
sg627
I139
sg110
g2551
sba(iconstruction
TP_SLOT
p2586
(dp2587
g1816
(lp2588
VPP
p2589
asg1819
I1
sg627
I140
sg110
g2549
sbasg110
g1714
sbsg1830
I1
sba(iconstruction
CXN
p2590
(dp2591
g1772
(iconstruction
TP_SYMLINKS
p2592
(dp2593
g1775
(dp2594
VENT_144
p2595
VS2_148
p2596
sVATTR_145
p2597
VS1_147
p2598
ssg627
I143
sg110
g1714
sbsg1781
VN
p2599
sg1783
I2
sg110
VADJUNCT_N
p2600
sg1784
(iconstruction
TP_SEMFRAME
p2601
(dp2602
g140
g0
(g141
g2
Ntp2603
Rp2604
(dp2605
g145
(dp2606
(iconstruction
TP_NODE
p2607
(dp2608
g1793
I01
sg129
g785
sg110
g2595
sg1794
I01
sg1795
I00
sg627
I144
sb(dp2609
g1794
I01
sg129
g785
ss(iconstruction
TP_NODE
p2610
(dp2611
g1793
I00
sg129
g686
sg110
g2597
sg1794
I00
sg1795
I00
sg627
I145
sb(dp2612
g1794
I00
sg129
g686
sssg328
g329
sg330
g329
sg331
(dp2613
g2607
(dp2614
g2610
(dp2615
g129
g734
sssg2610
(dp2616
ssg525
g2613
sg140
(dp2617
sg527
g329
sg528
g2613
sg529
(dp2618
g2607
(dp2619
sg2610
(dp2620
g2607
g2615
sssbsg622
(lp2621
g2607
ag2610
asg895
(lp2622
(iconstruction
TP_REL
p2623
(dp2624
g901
g2610
sg129
g734
sg627
I146
sg902
g2607
sg110
VENT_ATTR_146
p2625
sbasg627
I141
sg110
g1714
sbsg1809
(iconstruction
TP_SYNFORM
p2626
(dp2627
g627
I142
sg1812
(lp2628
(iconstruction
TP_SLOT
p2629
(dp2630
g1816
(lp2631
VA
p2632
asg1819
I0
sg627
I147
sg110
g2598
sba(iconstruction
TP_SLOT
p2633
(dp2634
g1816
(lp2635
VN
p2636
asg1819
I1
sg627
I148
sg110
g2596
sbasg110
g1714
sbsg1830
I1
sba(iconstruction
CXN
p2637
(dp2638
g1772
(iconstruction
TP_SYMLINKS
p2639
(dp2640
g1775
(dp2641
VAGT_154
p2642
VS1_160
p2643
sVACT_153
p2644
VS3_162
p2645
sVPT_155
p2646
VS4_163
p2647
ssg627
I151
sg110
g1714
sbsg1781
VN
p2648
sg1783
I2
sg110
VSUBJ_REL_SVO
p2649
sg1784
(iconstruction
TP_SEMFRAME
p2650
(dp2651
g140
g0
(g141
g2
Ntp2652
Rp2653
(dp2654
g145
(dp2655
(iconstruction
TP_NODE
p2656
(dp2657
g1793
I00
sg129
g782
sg110
VEVT_152
p2658
sg1794
I01
sg1795
I00
sg627
I152
sb(dp2659
g1794
I01
sg129
g782
ss(iconstruction
TP_NODE
p2660
(dp2661
g1793
I01
sg129
g785
sg110
g2642
sg1794
I01
sg1795
I00
sg627
I154
sb(dp2662
g1794
I01
sg129
g785
ss(iconstruction
TP_NODE
p2663
(dp2664
g1793
I00
sg129
g785
sg110
g2646
sg1794
I01
sg1795
I00
sg627
I155
sb(dp2665
g1794
I01
sg129
g785
ss(iconstruction
TP_NODE
p2666
(dp2667
g1793
I00
sg129
g647
sg110
g2644
sg1794
I01
sg1795
I01
sg627
I153
sb(dp2668
g1794
I01
sg129
g647
sssg328
g329
sg330
g329
sg331
(dp2669
g2656
(dp2670
g2666
(dp2671
g129
g776
sssg2660
(dp2672
g2656
(dp2673
g129
g734
sssg2663
(dp2674
sg2666
(dp2675
g2660
(dp2676
g129
g755
ssg2663
(dp2677
g129
g749
ssssg525
g2669
sg140
(dp2678
sg527
g329
sg528
g2669
sg529
(dp2679
g2656
(dp2680
g2660
g2673
ssg2660
(dp2681
g2666
g2676
ssg2663
(dp2682
g2666
g2677
ssg2666
(dp2683
g2656
g2671
sssbsg622
(lp2684
g2656
ag2666
ag2660
ag2663
asg895
(lp2685
(iconstruction
TP_REL
p2686
(dp2687
g901
g2666
sg129
g776
sg627
I156
sg902
g2656
sg110
VIS_156
p2688
sba(iconstruction
TP_REL
p2689
(dp2690
g901
g2660
sg129
g755
sg627
I157
sg902
g2666
sg110
VACT_AGT_157
p2691
sba(iconstruction
TP_REL
p2692
(dp2693
g901
g2663
sg129
g749
sg627
I158
sg902
g2666
sg110
VACT_PT_158
p2694
sba(iconstruction
TP_REL
p2695
(dp2696
g901
g2656
sg129
g734
sg627
I159
sg902
g2660
sg110
VAGT_EVT_159
p2697
sbasg627
I149
sg110
g1714
sbsg1809
(iconstruction
TP_SYNFORM
p2698
(dp2699
g627
I150
sg1812
(lp2700
(iconstruction
TP_SLOT
p2701
(dp2702
g1816
(lp2703
VN
p2704
asg1819
I0
sg627
I160
sg110
g2643
sba(iconstruction
TP_PHON
p2705
(dp2706
g1822
I4
sg1819
I1
sg627
I161
sg1823
Vthat
p2707
sg110
VS2_161
p2708
sba(iconstruction
TP_SLOT
p2709
(dp2710
g1816
(lp2711
VVP
p2712
aVV
p2713
asg1819
I2
sg627
I162
sg110
g2645
sba(iconstruction
TP_SLOT
p2714
(dp2715
g1816
(lp2716
VNP
p2717
aVN
p2718
asg1819
I3
sg627
I163
sg110
g2647
sbasg110
g1714
sbsg1830
I1
sba(iconstruction
CXN
p2719
(dp2720
g1772
(iconstruction
TP_SYMLINKS
p2721
(dp2722
g1775
(dp2723
VAGT_169
p2724
VS1_173
p2725
sVACT_168
p2726
VS3_175
p2727
ssg627
I166
sg110
g1714
sbsg1781
VN
p2728
sg1783
I2
sg110
VSUBJ_REL_SV
p2729
sg1784
(iconstruction
TP_SEMFRAME
p2730
(dp2731
g140
g0
(g141
g2
Ntp2732
Rp2733
(dp2734
g145
(dp2735
(iconstruction
TP_NODE
p2736
(dp2737
g1793
I00
sg129
g629
sg110
g2726
sg1794
I01
sg1795
I01
sg627
I168
sb(dp2738
g1794
I01
sg129
g629
ss(iconstruction
TP_NODE
p2739
(dp2740
g1793
I01
sg129
g785
sg110
g2724
sg1794
I01
sg1795
I00
sg627
I169
sb(dp2741
g1794
I01
sg129
g785
ss(iconstruction
TP_NODE
p2742
(dp2743
g1793
I00
sg129
g782
sg110
VEVT_167
p2744
sg1794
I01
sg1795
I00
sg627
I167
sb(dp2745
g1794
I01
sg129
g782
sssg328
g329
sg330
g329
sg331
(dp2746
g2736
(dp2747
g2739
(dp2748
g129
g755
sssg2739
(dp2749
g2742
(dp2750
g129
g734
sssg2742
(dp2751
g2736
(dp2752
g129
g776
ssssg525
g2746
sg140
(dp2753
sg527
g329
sg528
g2746
sg529
(dp2754
g2736
(dp2755
g2742
g2752
ssg2739
(dp2756
g2736
g2748
ssg2742
(dp2757
g2739
g2750
sssbsg622
(lp2758
g2742
ag2736
ag2739
asg895
(lp2759
(iconstruction
TP_REL
p2760
(dp2761
g901
g2736
sg129
g776
sg627
I170
sg902
g2742
sg110
VIS_170
p2762
sba(iconstruction
TP_REL
p2763
(dp2764
g901
g2739
sg129
g755
sg627
I171
sg902
g2736
sg110
VACT_AGT_171
p2765
sba(iconstruction
TP_REL
p2766
(dp2767
g901
g2742
sg129
g734
sg627
I172
sg902
g2739
sg110
VAGT_EVT_172
p2768
sbasg627
I164
sg110
g1714
sbsg1809
(iconstruction
TP_SYNFORM
p2769
(dp2770
g627
I165
sg1812
(lp2771
(iconstruction
TP_SLOT
p2772
(dp2773
g1816
(lp2774
VN
p2775
asg1819
I0
sg627
I173
sg110
g2725
sba(iconstruction
TP_PHON
p2776
(dp2777
g1822
I4
sg1819
I1
sg627
I174
sg1823
Vthat
p2778
sg110
VS2_174
p2779
sba(iconstruction
TP_SLOT
p2780
(dp2781
g1816
(lp2782
VVP
p2783
aVV
p2784
asg1819
I2
sg627
I175
sg110
g2727
sbasg110
g1714
sbsg1830
I1
sba(iconstruction
CXN
p2785
(dp2786
g1772
(iconstruction
TP_SYMLINKS
p2787
(dp2788
g1775
(dp2789
VAGT_181
p2790
VS7_193
p2791
sVPT_182
p2792
VS1_187
p2793
sVACT_180
p2794
VS4_190
p2795
ssg627
I178
sg110
g1714
sbsg1781
VN
p2796
sg1783
I2
sg110
VSUBJ_REL_PAS_SVO
p2797
sg1784
(iconstruction
TP_SEMFRAME
p2798
(dp2799
g140
g0
(g141
g2
Ntp2800
Rp2801
(dp2802
g145
(dp2803
(iconstruction
TP_NODE
p2804
(dp2805
g1793
I00
sg129
g782
sg110
VEVT_179
p2806
sg1794
I01
sg1795
I00
sg627
I179
sb(dp2807
g1794
I01
sg129
g782
ss(iconstruction
TP_NODE
p2808
(dp2809
g1793
I00
sg129
g785
sg110
g2790
sg1794
I01
sg1795
I00
sg627
I181
sb(dp2810
g1794
I01
sg129
g785
ss(iconstruction
TP_NODE
p2811
(dp2812
g1793
I00
sg129
g629
sg110
g2794
sg1794
I01
sg1795
I01
sg627
I180
sb(dp2813
g1794
I01
sg129
g629
ss(iconstruction
TP_NODE
p2814
(dp2815
g1793
I01
sg129
g785
sg110
g2792
sg1794
I01
sg1795
I00
sg627
I182
sb(dp2816
g1794
I01
sg129
g785
sssg328
g329
sg330
g329
sg331
(dp2817
g2804
(dp2818
g2811
(dp2819
g129
g776
sssg2808
(dp2820
sg2811
(dp2821
g2808
(dp2822
g129
g755
ssg2814
(dp2823
g129
g749
sssg2814
(dp2824
g2804
(dp2825
g129
g734
ssssg525
g2817
sg140
(dp2826
sg527
g329
sg528
g2817
sg529
(dp2827
g2804
(dp2828
g2814
g2825
ssg2808
(dp2829
g2811
g2822
ssg2811
(dp2830
g2804
g2819
ssg2814
(dp2831
g2811
g2823
sssbsg622
(lp2832
g2804
ag2811
ag2808
ag2814
asg895
(lp2833
(iconstruction
TP_REL
p2834
(dp2835
g901
g2811
sg129
g776
sg627
I183
sg902
g2804
sg110
VIS_183
p2836
sba(iconstruction
TP_REL
p2837
(dp2838
g901
g2808
sg129
g755
sg627
I184
sg902
g2811
sg110
VACT_AGT_184
p2839
sba(iconstruction
TP_REL
p2840
(dp2841
g901
g2814
sg129
g749
sg627
I185
sg902
g2811
sg110
VACT_PT_185
p2842
sba(iconstruction
TP_REL
p2843
(dp2844
g901
g2804
sg129
g734
sg627
I186
sg902
g2814
sg110
VPT_EVT_186
p2845
sbasg627
I176
sg110
g1714
sbsg1809
(iconstruction
TP_SYNFORM
p2846
(dp2847
g627
I177
sg1812
(lp2848
(iconstruction
TP_SLOT
p2849
(dp2850
g1816
(lp2851
VN
p2852
asg1819
I0
sg627
I187
sg110
g2793
sba(iconstruction
TP_PHON
p2853
(dp2854
g1822
I4
sg1819
I1
sg627
I188
sg1823
Vthat
p2855
sg110
VS2_188
p2856
sba(iconstruction
TP_PHON
p2857
(dp2858
g1822
I2
sg1819
I2
sg627
I189
sg1823
Vis
p2859
sg110
VS3_189
p2860
sba(iconstruction
TP_SLOT
p2861
(dp2862
g1816
(lp2863
VVP
p2864
aVV
p2865
asg1819
I3
sg627
I190
sg110
g2795
sba(iconstruction
TP_PHON
p2866
(dp2867
g1822
I2
sg1819
I4
sg627
I191
sg1823
V-ed
p2868
sg110
VS5_191
p2869
sba(iconstruction
TP_PHON
p2870
(dp2871
g1822
I2
sg1819
I5
sg627
I192
sg1823
Vby
p2872
sg110
VS6_192
p2873
sba(iconstruction
TP_SLOT
p2874
(dp2875
g1816
(lp2876
VNP
p2877
aVN
p2878
asg1819
I6
sg627
I193
sg110
g2791
sbasg110
g1714
sbsg1830
I1
sba(iconstruction
CXN
p2879
(dp2880
g1772
(iconstruction
TP_SYMLINKS
p2881
(dp2882
g1775
(dp2883
VAGT_199
p2884
VS3_207
p2885
sVACT_198
p2886
VS4_208
p2887
sVPT_200
p2888
VS1_205
p2889
ssg627
I196
sg110
g1714
sbsg1781
VN
p2890
sg1783
I2
sg110
VOBJ_REL_SVO
p2891
sg1784
(iconstruction
TP_SEMFRAME
p2892
(dp2893
g140
g0
(g141
g2
Ntp2894
Rp2895
(dp2896
g145
(dp2897
(iconstruction
TP_NODE
p2898
(dp2899
g1793
I00
sg129
g782
sg110
VEVT_197
p2900
sg1794
I01
sg1795
I00
sg627
I197
sb(dp2901
g1794
I01
sg129
g782
ss(iconstruction
TP_NODE
p2902
(dp2903
g1793
I00
sg129
g785
sg110
g2884
sg1794
I01
sg1795
I00
sg627
I199
sb(dp2904
g1794
I01
sg129
g785
ss(iconstruction
TP_NODE
p2905
(dp2906
g1793
I01
sg129
g785
sg110
g2888
sg1794
I01
sg1795
I00
sg627
I200
sb(dp2907
g1794
I01
sg129
g785
ss(iconstruction
TP_NODE
p2908
(dp2909
g1793
I00
sg129
g629
sg110
g2886
sg1794
I01
sg1795
I01
sg627
I198
sb(dp2910
g1794
I01
sg129
g629
sssg328
g329
sg330
g329
sg331
(dp2911
g2898
(dp2912
g2908
(dp2913
g129
g776
sssg2902
(dp2914
sg2905
(dp2915
g2898
(dp2916
g129
g734
sssg2908
(dp2917
g2902
(dp2918
g129
g755
ssg2905
(dp2919
g129
g749
ssssg525
g2911
sg140
(dp2920
sg527
g329
sg528
g2911
sg529
(dp2921
g2898
(dp2922
g2905
g2916
ssg2902
(dp2923
g2908
g2918
ssg2905
(dp2924
g2908
g2919
ssg2908
(dp2925
g2898
g2913
sssbsg622
(lp2926
g2898
ag2908
ag2902
ag2905
asg895
(lp2927
(iconstruction
TP_REL
p2928
(dp2929
g901
g2908
sg129
g776
sg627
I201
sg902
g2898
sg110
VIS_201
p2930
sba(iconstruction
TP_REL
p2931
(dp2932
g901
g2902
sg129
g755
sg627
I202
sg902
g2908
sg110
VACT_AGT_202
p2933
sba(iconstruction
TP_REL
p2934
(dp2935
g901
g2905
sg129
g749
sg627
I203
sg902
g2908
sg110
VACT_PT_203
p2936
sba(iconstruction
TP_REL
p2937
(dp2938
g901
g2898
sg129
g734
sg627
I204
sg902
g2905
sg110
VPT_EVT_204
p2939
sbasg627
I194
sg110
g1714
sbsg1809
(iconstruction
TP_SYNFORM
p2940
(dp2941
g627
I195
sg1812
(lp2942
(iconstruction
TP_SLOT
p2943
(dp2944
g1816
(lp2945
VN
p2946
asg1819
I0
sg627
I205
sg110
g2889
sba(iconstruction
TP_PHON
p2947
(dp2948
g1822
I4
sg1819
I1
sg627
I206
sg1823
Vthat
p2949
sg110
VS2_206
p2950
sba(iconstruction
TP_SLOT
p2951
(dp2952
g1816
(lp2953
VNP
p2954
aVN
p2955
asg1819
I2
sg627
I207
sg110
g2885
sba(iconstruction
TP_SLOT
p2956
(dp2957
g1816
(lp2958
VVP
p2959
aVV
p2960
asg1819
I3
sg627
I208
sg110
g2887
sbasg110
g1714
sbsg1830
I1
sba(iconstruction
CXN
p2961
(dp2962
g1772
(iconstruction
TP_SYMLINKS
p2963
(dp2964
g1775
(dp2965
VPT_215
p2966
VS3_222
p2967
sVACT_213
p2968
VS5_224
p2969
sVAGT_214
p2970
VS1_220
p2971
ssg627
I211
sg110
g1714
sbsg1781
VN
p2972
sg1783
I2
sg110
VOBJ_REL_PAS_SVO
p2973
sg1784
(iconstruction
TP_SEMFRAME
p2974
(dp2975
g140
g0
(g141
g2
Ntp2976
Rp2977
(dp2978
g145
(dp2979
(iconstruction
TP_NODE
p2980
(dp2981
g1793
I00
sg129
g629
sg110
g2968
sg1794
I01
sg1795
I01
sg627
I213
sb(dp2982
g1794
I01
sg129
g629
ss(iconstruction
TP_NODE
p2983
(dp2984
g1793
I01
sg129
g785
sg110
g2970
sg1794
I01
sg1795
I00
sg627
I214
sb(dp2985
g1794
I01
sg129
g785
ss(iconstruction
TP_NODE
p2986
(dp2987
g1793
I00
sg129
g782
sg110
VEVT_212
p2988
sg1794
I01
sg1795
I00
sg627
I212
sb(dp2989
g1794
I01
sg129
g782
ss(iconstruction
TP_NODE
p2990
(dp2991
g1793
I00
sg129
g785
sg110
g2966
sg1794
I01
sg1795
I00
sg627
I215
sb(dp2992
g1794
I01
sg129
g785
sssg328
g329
sg330
g329
sg331
(dp2993
g2980
(dp2994
g2990
(dp2995
g129
g749
ssg2983
(dp2996
g129
g755
sssg2983
(dp2997
g2986
(dp2998
g129
g734
sssg2986
(dp2999
g2980
(dp3000
g129
g776
sssg2990
(dp3001
ssg525
g2993
sg140
(dp3002
sg527
g329
sg528
g2993
sg529
(dp3003
g2980
(dp3004
g2986
g3000
ssg2983
(dp3005
g2980
g2996
ssg2986
(dp3006
g2983
g2998
ssg2990
(dp3007
g2980
g2995
sssbsg622
(lp3008
g2986
ag2980
ag2983
ag2990
asg895
(lp3009
(iconstruction
TP_REL
p3010
(dp3011
g901
g2980
sg129
g776
sg627
I216
sg902
g2986
sg110
VIS_216
p3012
sba(iconstruction
TP_REL
p3013
(dp3014
g901
g2983
sg129
g755
sg627
I217
sg902
g2980
sg110
VACT_AGT_217
p3015
sba(iconstruction
TP_REL
p3016
(dp3017
g901
g2990
sg129
g749
sg627
I218
sg902
g2980
sg110
VACT_PT_218
p3018
sba(iconstruction
TP_REL
p3019
(dp3020
g901
g2986
sg129
g734
sg627
I219
sg902
g2983
sg110
VAGT_EVT_219
p3021
sbasg627
I209
sg110
g1714
sbsg1809
(iconstruction
TP_SYNFORM
p3022
(dp3023
g627
I210
sg1812
(lp3024
(iconstruction
TP_SLOT
p3025
(dp3026
g1816
(lp3027
VN
p3028
asg1819
I0
sg627
I220
sg110
g2971
sba(iconstruction
TP_PHON
p3029
(dp3030
g1822
I4
sg1819
I1
sg627
I221
sg1823
Vthat
p3031
sg110
VS2_221
p3032
sba(iconstruction
TP_SLOT
p3033
(dp3034
g1816
(lp3035
VNP
p3036
aVN
p3037
asg1819
I2
sg627
I222
sg110
g2967
sba(iconstruction
TP_PHON
p3038
(dp3039
g1822
I2
sg1819
I3
sg627
I223
sg1823
Vis
p3040
sg110
VS4_223
p3041
sba(iconstruction
TP_SLOT
p3042
(dp3043
g1816
(lp3044
VVP
p3045
aVV
p3046
asg1819
I4
sg627
I224
sg110
g2969
sba(iconstruction
TP_PHON
p3047
(dp3048
g1822
I2
sg1819
I5
sg627
I225
sg1823
V-ed
p3049
sg110
VS6_225
p3050
sba(iconstruction
TP_PHON
p3051
(dp3052
g1822
I2
sg1819
I6
sg627
I226
sg1823
Vby
p3053
sg110
VS7_226
p3054
sbasg110
g1714
sbsg1830
I1
sba(iconstruction
CXN
p3055
(dp3056
g1772
(iconstruction
TP_SYMLINKS
p3057
(dp3058
g1775
(dp3059
VATTR_232
p3060
VS4_238
p3061
sVENT_231
p3062
VS1_235
p3063
ssg627
I229
sg110
g1714
sbsg1781
VN
p3064
sg1783
I2
sg110
VREL_SPA
p3065
sg1784
(iconstruction
TP_SEMFRAME
p3066
(dp3067
g140
g0
(g141
g2
Ntp3068
Rp3069
(dp3070
g145
(dp3071
(iconstruction
TP_NODE
p3072
(dp3073
g1793
I00
sg129
g782
sg110
VEVT_230
p3074
sg1794
I01
sg1795
I00
sg627
I230
sb(dp3075
g1794
I01
sg129
g782
ss(iconstruction
TP_NODE
p3076
(dp3077
g1793
I00
sg129
g686
sg110
g3060
sg1794
I00
sg1795
I00
sg627
I232
sb(dp3078
g1794
I00
sg129
g686
ss(iconstruction
TP_NODE
p3079
(dp3080
g1793
I01
sg129
g785
sg110
g3062
sg1794
I01
sg1795
I01
sg627
I231
sb(dp3081
g1794
I01
sg129
g785
sssg328
g329
sg330
g329
sg331
(dp3082
g3072
(dp3083
g3076
(dp3084
g129
g734
ssg3079
(dp3085
g129
g776
sssg3076
(dp3086
sg3079
(dp3087
ssg525
g3082
sg140
(dp3088
sg527
g329
sg528
g3082
sg529
(dp3089
g3072
(dp3090
sg3076
(dp3091
g3072
g3084
ssg3079
(dp3092
g3072
g3085
sssbsg622
(lp3093
g3072
ag3079
ag3076
asg895
(lp3094
(iconstruction
TP_REL
p3095
(dp3096
g901
g3079
sg129
g776
sg627
I233
sg902
g3072
sg110
VIS_233
p3097
sba(iconstruction
TP_REL
p3098
(dp3099
g901
g3076
sg129
g734
sg627
I234
sg902
g3072
sg110
VEVT_ATTR_234
p3100
sbasg627
I227
sg110
g1714
sbsg1809
(iconstruction
TP_SYNFORM
p3101
(dp3102
g627
I228
sg1812
(lp3103
(iconstruction
TP_SLOT
p3104
(dp3105
g1816
(lp3106
VN
p3107
asg1819
I0
sg627
I235
sg110
g3063
sba(iconstruction
TP_PHON
p3108
(dp3109
g1822
I4
sg1819
I1
sg627
I236
sg1823
Vthat
p3110
sg110
VS2_236
p3111
sba(iconstruction
TP_PHON
p3112
(dp3113
g1822
I2
sg1819
I2
sg627
I237
sg1823
Vis
p3114
sg110
VS3_237
p3115
sba(iconstruction
TP_SLOT
p3116
(dp3117
g1816
(lp3118
VA
p3119
asg1819
I3
sg627
I238
sg110
g3061
sbasg110
g1714
sbsg1830
I1
sba(iconstruction
CXN
p3120
(dp3121
g1772
(iconstruction
TP_SYMLINKS
p3122
(dp3123
g1775
(dp3124
VAGT_244
p3125
VS1_251
p3126
sVCOLOR_246
p3127
VS3_253
p3128
ssg627
I241
sg110
g1714
sbsg1781
VN
p3129
sg1783
I2
sg110
VIN_COLOR
p3130
sg1784
(iconstruction
TP_SEMFRAME
p3131
(dp3132
g140
g0
(g141
g2
Ntp3133
Rp3134
(dp3135
g145
(dp3136
(iconstruction
TP_NODE
p3137
(dp3138
g1793
I00
sg129
g782
sg110
VEVT_242
p3139
sg1794
I01
sg1795
I00
sg627
I242
sb(dp3140
g1794
I01
sg129
g782
ss(iconstruction
TP_NODE
p3141
(dp3142
g1793
I01
sg129
g794
sg110
g3125
sg1794
I01
sg1795
I00
sg627
I244
sb(dp3143
g1794
I01
sg129
g794
ss(iconstruction
TP_NODE
p3144
(dp3145
g1793
I00
sg129
g824
sg110
VPT_245
p3146
sg1794
I01
sg1795
I00
sg627
I245
sb(dp3147
g1794
I01
sg129
g824
ss(iconstruction
TP_NODE
p3148
(dp3149
g1793
I00
sg129
g689
sg110
g3127
sg1794
I00
sg1795
I01
sg627
I246
sb(dp3150
g1794
I00
sg129
g689
ss(iconstruction
TP_NODE
p3151
(dp3152
g1793
I00
sg129
g674
sg110
VACT_243
p3153
sg1794
I01
sg1795
I00
sg627
I243
sb(dp3154
g1794
I01
sg129
g674
sssg328
g329
sg330
g329
sg331
(dp3155
g3137
(dp3156
g3151
(dp3157
g129
g776
sssg3141
(dp3158
sg3144
(dp3159
g3148
(dp3160
g129
g734
sssg3148
(dp3161
sg3151
(dp3162
g3141
(dp3163
g129
g755
ssg3144
(dp3164
g129
g749
ssssg525
g3155
sg140
(dp3165
sg527
g329
sg528
g3155
sg529
(dp3166
g3137
(dp3167
sg3141
(dp3168
g3151
g3163
ssg3144
(dp3169
g3151
g3164
ssg3148
(dp3170
g3144
g3160
ssg3151
(dp3171
g3137
g3157
sssbsg622
(lp3172
g3137
ag3151
ag3141
ag3144
ag3148
asg895
(lp3173
(iconstruction
TP_REL
p3174
(dp3175
g901
g3151
sg129
g776
sg627
I247
sg902
g3137
sg110
VIS_247
p3176
sba(iconstruction
TP_REL
p3177
(dp3178
g901
g3141
sg129
g755
sg627
I248
sg902
g3151
sg110
VACT_AGT_248
p3179
sba(iconstruction
TP_REL
p3180
(dp3181
g901
g3144
sg129
g749
sg627
I249
sg902
g3151
sg110
VACT_PT_249
p3182
sba(iconstruction
TP_REL
p3183
(dp3184
g901
g3148
sg129
g734
sg627
I250
sg902
g3144
sg110
VPT_COLOR_250
p3185
sbasg627
I239
sg110
g1714
sbsg1809
(iconstruction
TP_SYNFORM
p3186
(dp3187
g627
I240
sg1812
(lp3188
(iconstruction
TP_SLOT
p3189
(dp3190
g1816
(lp3191
VN
p3192
asg1819
I0
sg627
I251
sg110
g3126
sba(iconstruction
TP_PHON
p3193
(dp3194
g1822
I2
sg1819
I1
sg627
I252
sg1823
Vin
p3195
sg110
VS2_252
p3196
sba(iconstruction
TP_SLOT
p3197
(dp3198
g1816
(lp3199
VA
p3200
asg1819
I2
sg627
I253
sg110
g3128
sbasg110
g1714
sbsg1830
I1
sba(iconstruction
CXN
p3201
(dp3202
g1772
(iconstruction
TP_SYMLINKS
p3203
(dp3204
g1775
(dp3205
VN1_258
p3206
VS1_260
p3207
ssg627
I256
sg110
g1714
sbsg1781
VV
p3208
sg1783
I1
sg110
VHIT
p3209
sg1784
(iconstruction
TP_SEMFRAME
p3210
(dp3211
g140
g0
(g141
g2
Ntp3212
Rp3213
(dp3214
g145
(dp3215
(iconstruction
TP_NODE
p3216
(dp3217
g1793
I00
sg129
g650
sg110
g3206
sg1794
I00
sg1795
I00
sg627
I258
sb(dp3218
g1794
I00
sg129
g650
ss(iconstruction
TP_NODE
p3219
(dp3220
g1793
I01
sg129
g629
sg110
VACT_257
p3221
sg1794
I01
sg1795
I00
sg627
I257
sb(dp3222
g1794
I01
sg129
g629
sssg328
g329
sg330
g329
sg331
(dp3223
g3216
(dp3224
sg3219
(dp3225
g3216
(dp3226
g129
g776
ssssg525
g3223
sg140
(dp3227
sg527
g329
sg528
g3223
sg529
(dp3228
g3216
(dp3229
g3219
g3226
ssg3219
(dp3230
ssbsg622
(lp3231
g3219
ag3216
asg895
(lp3232
(iconstruction
TP_REL
p3233
(dp3234
g901
g3216
sg129
g776
sg627
I259
sg902
g3219
sg110
VIS_259
p3235
sbasg627
I254
sg110
g1714
sbsg1809
(iconstruction
TP_SYNFORM
p3236
(dp3237
g627
I255
sg1812
(lp3238
(iconstruction
TP_PHON
p3239
(dp3240
g1822
I3
sg1819
I0
sg627
I260
sg1823
Vhit
p3241
sg110
g3207
sbasg110
g1714
sbsg1830
I1
sba(iconstruction
CXN
p3242
(dp3243
g1772
(iconstruction
TP_SYMLINKS
p3244
(dp3245
g1775
(dp3246
VN1_265
p3247
VS1_267
p3248
ssg627
I263
sg110
g1714
sbsg1781
VV
p3249
sg1783
I1
sg110
VKICK
p3250
sg1784
(iconstruction
TP_SEMFRAME
p3251
(dp3252
g140
g0
(g141
g2
Ntp3253
Rp3254
(dp3255
g145
(dp3256
(iconstruction
TP_NODE
p3257
(dp3258
g1793
I01
sg129
g629
sg110
VACT_264
p3259
sg1794
I01
sg1795
I00
sg627
I264
sb(dp3260
g1794
I01
sg129
g629
ss(iconstruction
TP_NODE
p3261
(dp3262
g1793
I00
sg129
g671
sg110
g3247
sg1794
I00
sg1795
I00
sg627
I265
sb(dp3263
g1794
I00
sg129
g671
sssg328
g329
sg330
g329
sg331
(dp3264
g3257
(dp3265
g3261
(dp3266
g129
g776
sssg3261
(dp3267
ssg525
g3264
sg140
(dp3268
sg527
g329
sg528
g3264
sg529
(dp3269
g3257
(dp3270
sg3261
(dp3271
g3257
g3266
sssbsg622
(lp3272
g3257
ag3261
asg895
(lp3273
(iconstruction
TP_REL
p3274
(dp3275
g901
g3261
sg129
g776
sg627
I266
sg902
g3257
sg110
VIS_266
p3276
sbasg627
I261
sg110
g1714
sbsg1809
(iconstruction
TP_SYNFORM
p3277
(dp3278
g627
I262
sg1812
(lp3279
(iconstruction
TP_PHON
p3280
(dp3281
g1822
I4
sg1819
I0
sg627
I267
sg1823
Vkick
p3282
sg110
g3248
sbasg110
g1714
sbsg1830
I1
sba(iconstruction
CXN
p3283
(dp3284
g1772
(iconstruction
TP_SYMLINKS
p3285
(dp3286
g1775
(dp3287
VN1_272
p3288
VS1_274
p3289
ssg627
I270
sg110
g1714
sbsg1781
VV
p3290
sg1783
I1
sg110
VPUNCH
p3291
sg1784
(iconstruction
TP_SEMFRAME
p3292
(dp3293
g140
g0
(g141
g2
Ntp3294
Rp3295
(dp3296
g145
(dp3297
(iconstruction
TP_NODE
p3298
(dp3299
g1793
I00
sg129
g656
sg110
g3288
sg1794
I00
sg1795
I00
sg627
I272
sb(dp3300
g1794
I00
sg129
g656
ss(iconstruction
TP_NODE
p3301
(dp3302
g1793
I01
sg129
g629
sg110
VACT_271
p3303
sg1794
I01
sg1795
I00
sg627
I271
sb(dp3304
g1794
I01
sg129
g629
sssg328
g329
sg330
g329
sg331
(dp3305
g3298
(dp3306
sg3301
(dp3307
g3298
(dp3308
g129
g776
ssssg525
g3305
sg140
(dp3309
sg527
g329
sg528
g3305
sg529
(dp3310
g3298
(dp3311
g3301
g3308
ssg3301
(dp3312
ssbsg622
(lp3313
g3301
ag3298
asg895
(lp3314
(iconstruction
TP_REL
p3315
(dp3316
g901
g3298
sg129
g776
sg627
I273
sg902
g3301
sg110
VIS_273
p3317
sbasg627
I268
sg110
g1714
sbsg1809
(iconstruction
TP_SYNFORM
p3318
(dp3319
g627
I269
sg1812
(lp3320
(iconstruction
TP_PHON
p3321
(dp3322
g1822
I5
sg1819
I0
sg627
I274
sg1823
Vpunch
p3323
sg110
g3289
sbasg110
g1714
sbsg1830
I1
sba(iconstruction
CXN
p3324
(dp3325
g1772
(iconstruction
TP_SYMLINKS
p3326
(dp3327
g1775
(dp3328
VN1_279
p3329
VS1_281
p3330
ssg627
I277
sg110
g1714
sbsg1781
VV
p3331
sg1783
I1
sg110
VWEAR
p3332
sg1784
(iconstruction
TP_SEMFRAME
p3333
(dp3334
g140
g0
(g141
g2
Ntp3335
Rp3336
(dp3337
g145
(dp3338
(iconstruction
TP_NODE
p3339
(dp3340
g1793
I00
sg129
g674
sg110
g3329
sg1794
I00
sg1795
I00
sg627
I279
sb(dp3341
g1794
I00
sg129
g674
ss(iconstruction
TP_NODE
p3342
(dp3343
g1793
I01
sg129
g629
sg110
VACT_278
p3344
sg1794
I01
sg1795
I00
sg627
I278
sb(dp3345
g1794
I01
sg129
g629
sssg328
g329
sg330
g329
sg331
(dp3346
g3339
(dp3347
sg3342
(dp3348
g3339
(dp3349
g129
g776
ssssg525
g3346
sg140
(dp3350
sg527
g329
sg528
g3346
sg529
(dp3351
g3339
(dp3352
g3342
g3349
ssg3342
(dp3353
ssbsg622
(lp3354
g3342
ag3339
asg895
(lp3355
(iconstruction
TP_REL
p3356
(dp3357
g901
g3339
sg129
g776
sg627
I280
sg902
g3342
sg110
VIS_280
p3358
sbasg627
I275
sg110
g1714
sbsg1809
(iconstruction
TP_SYNFORM
p3359
(dp3360
g627
I276
sg1812
(lp3361
(iconstruction
TP_PHON
p3362
(dp3363
g1822
I4
sg1819
I0
sg627
I281
sg1823
Vwear
p3364
sg110
g3330
sbasg110
g1714
sbsg1830
I1
sba(iconstruction
CXN
p3365
(dp3366
g1772
(iconstruction
TP_SYMLINKS
p3367
(dp3368
g1775
(dp3369
VN1_286
p3370
VS1_288
p3371
ssg627
I284
sg110
g1714
sbsg1781
VV
p3372
sg1783
I1
sg110
VLAUGH
p3373
sg1784
(iconstruction
TP_SEMFRAME
p3374
(dp3375
g140
g0
(g141
g2
Ntp3376
Rp3377
(dp3378
g145
(dp3379
(iconstruction
TP_NODE
p3380
(dp3381
g1793
I01
sg129
g629
sg110
VACT_285
p3382
sg1794
I01
sg1795
I00
sg627
I285
sb(dp3383
g1794
I01
sg129
g629
ss(iconstruction
TP_NODE
p3384
(dp3385
g1793
I00
sg129
g644
sg110
g3370
sg1794
I00
sg1795
I00
sg627
I286
sb(dp3386
g1794
I00
sg129
g644
sssg328
g329
sg330
g329
sg331
(dp3387
g3380
(dp3388
g3384
(dp3389
g129
g776
sssg3384
(dp3390
ssg525
g3387
sg140
(dp3391
sg527
g329
sg528
g3387
sg529
(dp3392
g3380
(dp3393
sg3384
(dp3394
g3380
g3389
sssbsg622
(lp3395
g3380
ag3384
asg895
(lp3396
(iconstruction
TP_REL
p3397
(dp3398
g901
g3384
sg129
g776
sg627
I287
sg902
g3380
sg110
VIS_287
p3399
sbasg627
I282
sg110
g1714
sbsg1809
(iconstruction
TP_SYNFORM
p3400
(dp3401
g627
I283
sg1812
(lp3402
(iconstruction
TP_PHON
p3403
(dp3404
g1822
I5
sg1819
I0
sg627
I288
sg1823
Vlaugh
p3405
sg110
g3371
sbasg110
g1714
sbsg1830
I1
sba(iconstruction
CXN
p3406
(dp3407
g1772
(iconstruction
TP_SYMLINKS
p3408
(dp3409
g1775
(dp3410
VN1_293
p3411
VS1_295
p3412
ssg627
I291
sg110
g1714
sbsg1781
VV
p3413
sg1783
I1
sg110
VWATCH
p3414
sg1784
(iconstruction
TP_SEMFRAME
p3415
(dp3416
g140
g0
(g141
g2
Ntp3417
Rp3418
(dp3419
g145
(dp3420
(iconstruction
TP_NODE
p3421
(dp3422
g1793
I00
sg129
g653
sg110
g3411
sg1794
I00
sg1795
I00
sg627
I293
sb(dp3423
g1794
I00
sg129
g653
ss(iconstruction
TP_NODE
p3424
(dp3425
g1793
I01
sg129
g629
sg110
VACT_292
p3426
sg1794
I01
sg1795
I00
sg627
I292
sb(dp3427
g1794
I01
sg129
g629
sssg328
g329
sg330
g329
sg331
(dp3428
g3421
(dp3429
sg3424
(dp3430
g3421
(dp3431
g129
g776
ssssg525
g3428
sg140
(dp3432
sg527
g329
sg528
g3428
sg529
(dp3433
g3421
(dp3434
g3424
g3431
ssg3424
(dp3435
ssbsg622
(lp3436
g3424
ag3421
asg895
(lp3437
(iconstruction
TP_REL
p3438
(dp3439
g901
g3421
sg129
g776
sg627
I294
sg902
g3424
sg110
VIS_294
p3440
sbasg627
I289
sg110
g1714
sbsg1809
(iconstruction
TP_SYNFORM
p3441
(dp3442
g627
I290
sg1812
(lp3443
(iconstruction
TP_PHON
p3444
(dp3445
g1822
I5
sg1819
I0
sg627
I295
sg1823
Vwatch
p3446
sg110
g3412
sbasg110
g1714
sbsg1830
I1
sba(iconstruction
CXN
p3447
(dp3448
g1772
(iconstruction
TP_SYMLINKS
p3449
(dp3450
g1775
(dp3451
VN1_300
p3452
VS1_302
p3453
ssg627
I298
sg110
g1714
sbsg1781
VV
p3454
sg1783
I1
sg110
VTALK
p3455
sg1784
(iconstruction
TP_SEMFRAME
p3456
(dp3457
g140
g0
(g141
g2
Ntp3458
Rp3459
(dp3460
g145
(dp3461
(iconstruction
TP_NODE
p3462
(dp3463
g1793
I01
sg129
g629
sg110
VACT_299
p3464
sg1794
I01
sg1795
I00
sg627
I299
sb(dp3465
g1794
I01
sg129
g629
ss(iconstruction
TP_NODE
p3466
(dp3467
g1793
I00
sg129
g662
sg110
g3452
sg1794
I00
sg1795
I00
sg627
I300
sb(dp3468
g1794
I00
sg129
g662
sssg328
g329
sg330
g329
sg331
(dp3469
g3462
(dp3470
g3466
(dp3471
g129
g776
sssg3466
(dp3472
ssg525
g3469
sg140
(dp3473
sg527
g329
sg528
g3469
sg529
(dp3474
g3462
(dp3475
sg3466
(dp3476
g3462
g3471
sssbsg622
(lp3477
g3462
ag3466
asg895
(lp3478
(iconstruction
TP_REL
p3479
(dp3480
g901
g3466
sg129
g776
sg627
I301
sg902
g3462
sg110
VIS_301
p3481
sbasg627
I296
sg110
g1714
sbsg1809
(iconstruction
TP_SYNFORM
p3482
(dp3483
g627
I297
sg1812
(lp3484
(iconstruction
TP_PHON
p3485
(dp3486
g1822
I4
sg1819
I0
sg627
I302
sg1823
Vtalk
p3487
sg110
g3453
sba(iconstruction
TP_PHON
p3488
(dp3489
g1822
I2
sg1819
I1
sg627
I303
sg1823
Vto
p3490
sg110
VS2_303
p3491
sbasg110
g1714
sbsg1830
I1
sba(iconstruction
CXN
p3492
(dp3493
g1772
(iconstruction
TP_SYMLINKS
p3494
(dp3495
g1775
(dp3496
VN1_308
p3497
VS1_310
p3498
ssg627
I306
sg110
g1714
sbsg1781
VV
p3499
sg1783
I1
sg110
VSQUIRT
p3500
sg1784
(iconstruction
TP_SEMFRAME
p3501
(dp3502
g140
g0
(g141
g2
Ntp3503
Rp3504
(dp3505
g145
(dp3506
(iconstruction
TP_NODE
p3507
(dp3508
g1793
I01
sg129
g629
sg110
VACT_307
p3509
sg1794
I01
sg1795
I00
sg627
I307
sb(dp3510
g1794
I01
sg129
g629
ss(iconstruction
TP_NODE
p3511
(dp3512
g1793
I00
sg129
g668
sg110
g3497
sg1794
I00
sg1795
I00
sg627
I308
sb(dp3513
g1794
I00
sg129
g668
sssg328
g329
sg330
g329
sg331
(dp3514
g3507
(dp3515
g3511
(dp3516
g129
g776
sssg3511
(dp3517
ssg525
g3514
sg140
(dp3518
sg527
g329
sg528
g3514
sg529
(dp3519
g3507
(dp3520
sg3511
(dp3521
g3507
g3516
sssbsg622
(lp3522
g3507
ag3511
asg895
(lp3523
(iconstruction
TP_REL
p3524
(dp3525
g901
g3511
sg129
g776
sg627
I309
sg902
g3507
sg110
VIS_309
p3526
sbasg627
I304
sg110
g1714
sbsg1809
(iconstruction
TP_SYNFORM
p3527
(dp3528
g627
I305
sg1812
(lp3529
(iconstruction
TP_PHON
p3530
(dp3531
g1822
I6
sg1819
I0
sg627
I310
sg1823
Vsquirt
p3532
sg110
g3498
sba(iconstruction
TP_PHON
p3533
(dp3534
g1822
I2
sg1819
I1
sg627
I311
sg1823
Vat
p3535
sg110
VS2_311
p3536
sbasg110
g1714
sbsg1830
I1
sba(iconstruction
CXN
p3537
(dp3538
g1772
(iconstruction
TP_SYMLINKS
p3539
(dp3540
g1775
(dp3541
VN1_316
p3542
VS1_318
p3543
ssg627
I314
sg110
g1714
sbsg1781
VV
p3544
sg1783
I1
sg110
VSPLASH
p3545
sg1784
(iconstruction
TP_SEMFRAME
p3546
(dp3547
g140
g0
(g141
g2
Ntp3548
Rp3549
(dp3550
g145
(dp3551
(iconstruction
TP_NODE
p3552
(dp3553
g1793
I00
sg129
g659
sg110
g3542
sg1794
I00
sg1795
I00
sg627
I316
sb(dp3554
g1794
I00
sg129
g659
ss(iconstruction
TP_NODE
p3555
(dp3556
g1793
I01
sg129
g629
sg110
VACT_315
p3557
sg1794
I01
sg1795
I00
sg627
I315
sb(dp3558
g1794
I01
sg129
g629
sssg328
g329
sg330
g329
sg331
(dp3559
g3552
(dp3560
sg3555
(dp3561
g3552
(dp3562
g129
g776
ssssg525
g3559
sg140
(dp3563
sg527
g329
sg528
g3559
sg529
(dp3564
g3552
(dp3565
g3555
g3562
ssg3555
(dp3566
ssbsg622
(lp3567
g3555
ag3552
asg895
(lp3568
(iconstruction
TP_REL
p3569
(dp3570
g901
g3552
sg129
g776
sg627
I317
sg902
g3555
sg110
VIS_317
p3571
sbasg627
I312
sg110
g1714
sbsg1809
(iconstruction
TP_SYNFORM
p3572
(dp3573
g627
I313
sg1812
(lp3574
(iconstruction
TP_PHON
p3575
(dp3576
g1822
I6
sg1819
I0
sg627
I318
sg1823
Vsplash
p3577
sg110
g3543
sbasg110
g1714
sbsg1830
I1
sba(iconstruction
CXN
p3578
(dp3579
g1772
(iconstruction
TP_SYMLINKS
p3580
(dp3581
g1775
(dp3582
VN1_323
p3583
VS1_325
p3584
ssg627
I321
sg110
g1714
sbsg1781
VV
p3585
sg1783
I1
sg110
VGIVE
p3586
sg1784
(iconstruction
TP_SEMFRAME
p3587
(dp3588
g140
g0
(g141
g2
Ntp3589
Rp3590
(dp3591
g145
(dp3592
(iconstruction
TP_NODE
p3593
(dp3594
g1793
I01
sg129
g629
sg110
VACT_322
p3595
sg1794
I01
sg1795
I00
sg627
I322
sb(dp3596
g1794
I01
sg129
g629
ss(iconstruction
TP_NODE
p3597
(dp3598
g1793
I00
sg129
g683
sg110
g3583
sg1794
I00
sg1795
I00
sg627
I323
sb(dp3599
g1794
I00
sg129
g683
sssg328
g329
sg330
g329
sg331
(dp3600
g3593
(dp3601
g3597
(dp3602
g129
g776
sssg3597
(dp3603
ssg525
g3600
sg140
(dp3604
sg527
g329
sg528
g3600
sg529
(dp3605
g3593
(dp3606
sg3597
(dp3607
g3593
g3602
sssbsg622
(lp3608
g3593
ag3597
asg895
(lp3609
(iconstruction
TP_REL
p3610
(dp3611
g901
g3597
sg129
g776
sg627
I324
sg902
g3593
sg110
VIS_324
p3612
sbasg627
I319
sg110
g1714
sbsg1809
(iconstruction
TP_SYNFORM
p3613
(dp3614
g627
I320
sg1812
(lp3615
(iconstruction
TP_PHON
p3616
(dp3617
g1822
I4
sg1819
I0
sg627
I325
sg1823
Vgive
p3618
sg110
g3584
sbasg110
g1714
sbsg1830
I1
sba(iconstruction
CXN
p3619
(dp3620
g1772
(iconstruction
TP_SYMLINKS
p3621
(dp3622
g1775
(dp3623
VN1_330
p3624
VS1_332
p3625
ssg627
I328
sg110
g1714
sbsg1781
VV
p3626
sg1783
I1
sg110
VSEND
p3627
sg1784
(iconstruction
TP_SEMFRAME
p3628
(dp3629
g140
g0
(g141
g2
Ntp3630
Rp3631
(dp3632
g145
(dp3633
(iconstruction
TP_NODE
p3634
(dp3635
g1793
I00
sg129
g680
sg110
g3624
sg1794
I00
sg1795
I00
sg627
I330
sb(dp3636
g1794
I00
sg129
g680
ss(iconstruction
TP_NODE
p3637
(dp3638
g1793
I01
sg129
g629
sg110
VACT_329
p3639
sg1794
I01
sg1795
I00
sg627
I329
sb(dp3640
g1794
I01
sg129
g629
sssg328
g329
sg330
g329
sg331
(dp3641
g3634
(dp3642
sg3637
(dp3643
g3634
(dp3644
g129
g776
ssssg525
g3641
sg140
(dp3645
sg527
g329
sg528
g3641
sg529
(dp3646
g3634
(dp3647
g3637
g3644
ssg3637
(dp3648
ssbsg622
(lp3649
g3637
ag3634
asg895
(lp3650
(iconstruction
TP_REL
p3651
(dp3652
g901
g3634
sg129
g776
sg627
I331
sg902
g3637
sg110
VIS_331
p3653
sbasg627
I326
sg110
g1714
sbsg1809
(iconstruction
TP_SYNFORM
p3654
(dp3655
g627
I327
sg1812
(lp3656
(iconstruction
TP_PHON
p3657
(dp3658
g1822
I4
sg1819
I0
sg627
I332
sg1823
Vsend
p3659
sg110
g3625
sbasg110
g1714
sbsg1830
I1
sba(iconstruction
CXN
p3660
(dp3661
g1772
(iconstruction
TP_SYMLINKS
p3662
(dp3663
g1775
(dp3664
VN1_337
p3665
VS1_339
p3666
ssg627
I335
sg110
g1714
sbsg1781
VV
p3667
sg1783
I1
sg110
VMEET
p3668
sg1784
(iconstruction
TP_SEMFRAME
p3669
(dp3670
g140
g0
(g141
g2
Ntp3671
Rp3672
(dp3673
g145
(dp3674
(iconstruction
TP_NODE
p3675
(dp3676
g1793
I01
sg129
g629
sg110
VACT_336
p3677
sg1794
I01
sg1795
I00
sg627
I336
sb(dp3678
g1794
I01
sg129
g629
ss(iconstruction
TP_NODE
p3679
(dp3680
g1793
I00
sg129
g635
sg110
g3665
sg1794
I00
sg1795
I00
sg627
I337
sb(dp3681
g1794
I00
sg129
g635
sssg328
g329
sg330
g329
sg331
(dp3682
g3675
(dp3683
g3679
(dp3684
g129
g776
sssg3679
(dp3685
ssg525
g3682
sg140
(dp3686
sg527
g329
sg528
g3682
sg529
(dp3687
g3675
(dp3688
sg3679
(dp3689
g3675
g3684
sssbsg622
(lp3690
g3675
ag3679
asg895
(lp3691
(iconstruction
TP_REL
p3692
(dp3693
g901
g3679
sg129
g776
sg627
I338
sg902
g3675
sg110
VIS_338
p3694
sbasg627
I333
sg110
g1714
sbsg1809
(iconstruction
TP_SYNFORM
p3695
(dp3696
g627
I334
sg1812
(lp3697
(iconstruction
TP_PHON
p3698
(dp3699
g1822
I4
sg1819
I0
sg627
I339
sg1823
Vmeet
p3700
sg110
g3666
sbasg110
g1714
sbsg1830
I1
sba(iconstruction
CXN
p3701
(dp3702
g1772
(iconstruction
TP_SYMLINKS
p3703
(dp3704
g1775
(dp3705
VN1_344
p3706
VS1_346
p3707
ssg627
I342
sg110
g1714
sbsg1781
VV
p3708
sg1783
I1
sg110
VKISS
p3709
sg1784
(iconstruction
TP_SEMFRAME
p3710
(dp3711
g140
g0
(g141
g2
Ntp3712
Rp3713
(dp3714
g145
(dp3715
(iconstruction
TP_NODE
p3716
(dp3717
g1793
I00
sg129
g665
sg110
g3706
sg1794
I00
sg1795
I00
sg627
I344
sb(dp3718
g1794
I00
sg129
g665
ss(iconstruction
TP_NODE
p3719
(dp3720
g1793
I01
sg129
g629
sg110
VACT_343
p3721
sg1794
I01
sg1795
I00
sg627
I343
sb(dp3722
g1794
I01
sg129
g629
sssg328
g329
sg330
g329
sg331
(dp3723
g3716
(dp3724
sg3719
(dp3725
g3716
(dp3726
g129
g776
ssssg525
g3723
sg140
(dp3727
sg527
g329
sg528
g3723
sg529
(dp3728
g3716
(dp3729
g3719
g3726
ssg3719
(dp3730
ssbsg622
(lp3731
g3719
ag3716
asg895
(lp3732
(iconstruction
TP_REL
p3733
(dp3734
g901
g3716
sg129
g776
sg627
I345
sg902
g3719
sg110
VIS_345
p3735
sbasg627
I340
sg110
g1714
sbsg1809
(iconstruction
TP_SYNFORM
p3736
(dp3737
g627
I341
sg1812
(lp3738
(iconstruction
TP_PHON
p3739
(dp3740
g1822
I4
sg1819
I0
sg627
I346
sg1823
Vkiss
p3741
sg110
g3707
sbasg110
g1714
sbsg1830
I1
sba(iconstruction
CXN
p3742
(dp3743
g1772
(iconstruction
TP_SYMLINKS
p3744
(dp3745
g1775
(dp3746
VN1_351
p3747
VS1_353
p3748
ssg627
I349
sg110
g1714
sbsg1781
VV
p3749
sg1783
I1
sg110
VSHAKE_HANDS
p3750
sg1784
(iconstruction
TP_SEMFRAME
p3751
(dp3752
g140
g0
(g141
g2
Ntp3753
Rp3754
(dp3755
g145
(dp3756
(iconstruction
TP_NODE
p3757
(dp3758
g1793
I01
sg129
g629
sg110
VACT_350
p3759
sg1794
I01
sg1795
I00
sg627
I350
sb(dp3760
g1794
I01
sg129
g629
ss(iconstruction
TP_NODE
p3761
(dp3762
g1793
I00
sg129
g638
sg110
g3747
sg1794
I00
sg1795
I00
sg627
I351
sb(dp3763
g1794
I00
sg129
g638
sssg328
g329
sg330
g329
sg331
(dp3764
g3757
(dp3765
g3761
(dp3766
g129
g776
sssg3761
(dp3767
ssg525
g3764
sg140
(dp3768
sg527
g329
sg528
g3764
sg529
(dp3769
g3757
(dp3770
sg3761
(dp3771
g3757
g3766
sssbsg622
(lp3772
g3757
ag3761
asg895
(lp3773
(iconstruction
TP_REL
p3774
(dp3775
g901
g3761
sg129
g776
sg627
I352
sg902
g3757
sg110
VIS_352
p3776
sbasg627
I347
sg110
g1714
sbsg1809
(iconstruction
TP_SYNFORM
p3777
(dp3778
g627
I348
sg1812
(lp3779
(iconstruction
TP_PHON
p3780
(dp3781
g1822
I10
sg1819
I0
sg627
I353
sg1823
Vshake hands
p3782
sg110
g3748
sbasg110
g1714
sbsg1830
I1
sba(iconstruction
CXN
p3783
(dp3784
g1772
(iconstruction
TP_SYMLINKS
p3785
(dp3786
g1775
(dp3787
VN1_357
p3788
VS1_358
p3789
ssg627
I356
sg110
g1714
sbsg1781
VA
p3790
sg1783
I1
sg110
VBLUE
p3791
sg1784
(iconstruction
TP_SEMFRAME
p3792
(dp3793
g140
g0
(g141
g2
Ntp3794
Rp3795
(dp3796
g145
(dp3797
(iconstruction
TP_NODE
p3798
(dp3799
g1793
I01
sg129
g692
sg110
g3788
sg1794
I00
sg1795
I00
sg627
I357
sb(dp3800
g1794
I00
sg129
g692
sssg328
g329
sg330
g329
sg331
(dp3801
g3798
(dp3802
ssg525
g3801
sg140
(dp3803
sg527
g329
sg528
g3801
sg529
(dp3804
g3798
(dp3805
ssbsg622
(lp3806
g3798
asg895
(lp3807
sg627
I354
sg110
g1714
sbsg1809
(iconstruction
TP_SYNFORM
p3808
(dp3809
g627
I355
sg1812
(lp3810
(iconstruction
TP_PHON
p3811
(dp3812
g1822
I4
sg1819
I0
sg627
I358
sg1823
Vblue
p3813
sg110
g3789
sbasg110
g1714
sbsg1830
I1
sba(iconstruction
CXN
p3814
(dp3815
g1772
(iconstruction
TP_SYMLINKS
p3816
(dp3817
g1775
(dp3818
VN1_362
p3819
VS1_363
p3820
ssg627
I361
sg110
g1714
sbsg1781
VA
p3821
sg1783
I1
sg110
VBLACK
p3822
sg1784
(iconstruction
TP_SEMFRAME
p3823
(dp3824
g140
g0
(g141
g2
Ntp3825
Rp3826
(dp3827
g145
(dp3828
(iconstruction
TP_NODE
p3829
(dp3830
g1793
I01
sg129
g701
sg110
g3819
sg1794
I00
sg1795
I00
sg627
I362
sb(dp3831
g1794
I00
sg129
g701
sssg328
g329
sg330
g329
sg331
(dp3832
g3829
(dp3833
ssg525
g3832
sg140
(dp3834
sg527
g329
sg528
g3832
sg529
(dp3835
g3829
(dp3836
ssbsg622
(lp3837
g3829
asg895
(lp3838
sg627
I359
sg110
g1714
sbsg1809
(iconstruction
TP_SYNFORM
p3839
(dp3840
g627
I360
sg1812
(lp3841
(iconstruction
TP_PHON
p3842
(dp3843
g1822
I5
sg1819
I0
sg627
I363
sg1823
Vblack
p3844
sg110
g3820
sbasg110
g1714
sbsg1830
I1
sba(iconstruction
CXN
p3845
(dp3846
g1772
(iconstruction
TP_SYMLINKS
p3847
(dp3848
g1775
(dp3849
VN1_367
p3850
VS1_368
p3851
ssg627
I366
sg110
g1714
sbsg1781
VA
p3852
sg1783
I1
sg110
VGREEN
p3853
sg1784
(iconstruction
TP_SEMFRAME
p3854
(dp3855
g140
g0
(g141
g2
Ntp3856
Rp3857
(dp3858
g145
(dp3859
(iconstruction
TP_NODE
p3860
(dp3861
g1793
I01
sg129
g695
sg110
g3850
sg1794
I00
sg1795
I00
sg627
I367
sb(dp3862
g1794
I00
sg129
g695
sssg328
g329
sg330
g329
sg331
(dp3863
g3860
(dp3864
ssg525
g3863
sg140
(dp3865
sg527
g329
sg528
g3863
sg529
(dp3866
g3860
(dp3867
ssbsg622
(lp3868
g3860
asg895
(lp3869
sg627
I364
sg110
g1714
sbsg1809
(iconstruction
TP_SYNFORM
p3870
(dp3871
g627
I365
sg1812
(lp3872
(iconstruction
TP_PHON
p3873
(dp3874
g1822
I5
sg1819
I0
sg627
I368
sg1823
Vgreen
p3875
sg110
g3851
sbasg110
g1714
sbsg1830
I1
sba(iconstruction
CXN
p3876
(dp3877
g1772
(iconstruction
TP_SYMLINKS
p3878
(dp3879
g1775
(dp3880
VN1_372
p3881
VS1_373
p3882
ssg627
I371
sg110
g1714
sbsg1781
VA
p3883
sg1783
I1
sg110
VSMALL
p3884
sg1784
(iconstruction
TP_SEMFRAME
p3885
(dp3886
g140
g0
(g141
g2
Ntp3887
Rp3888
(dp3889
g145
(dp3890
(iconstruction
TP_NODE
p3891
(dp3892
g1793
I01
sg129
g722
sg110
g3881
sg1794
I00
sg1795
I00
sg627
I372
sb(dp3893
g1794
I00
sg129
g722
sssg328
g329
sg330
g329
sg331
(dp3894
g3891
(dp3895
ssg525
g3894
sg140
(dp3896
sg527
g329
sg528
g3894
sg529
(dp3897
g3891
(dp3898
ssbsg622
(lp3899
g3891
asg895
(lp3900
sg627
I369
sg110
g1714
sbsg1809
(iconstruction
TP_SYNFORM
p3901
(dp3902
g627
I370
sg1812
(lp3903
(iconstruction
TP_PHON
p3904
(dp3905
g1822
I5
sg1819
I0
sg627
I373
sg1823
Vsmall
p3906
sg110
g3882
sbasg110
g1714
sbsg1830
I1
sba(iconstruction
CXN
p3907
(dp3908
g1772
(iconstruction
TP_SYMLINKS
p3909
(dp3910
g1775
(dp3911
VN1_377
p3912
VS1_378
p3913
ssg627
I376
sg110
g1714
sbsg1781
VA
p3914
sg1783
I1
sg110
VBIG
p3915
sg1784
(iconstruction
TP_SEMFRAME
p3916
(dp3917
g140
g0
(g141
g2
Ntp3918
Rp3919
(dp3920
g145
(dp3921
(iconstruction
TP_NODE
p3922
(dp3923
g1793
I01
sg129
g725
sg110
g3912
sg1794
I00
sg1795
I00
sg627
I377
sb(dp3924
g1794
I00
sg129
g725
sssg328
g329
sg330
g329
sg331
(dp3925
g3922
(dp3926
ssg525
g3925
sg140
(dp3927
sg527
g329
sg528
g3925
sg529
(dp3928
g3922
(dp3929
ssbsg622
(lp3930
g3922
asg895
(lp3931
sg627
I374
sg110
g1714
sbsg1809
(iconstruction
TP_SYNFORM
p3932
(dp3933
g627
I375
sg1812
(lp3934
(iconstruction
TP_PHON
p3935
(dp3936
g1822
I3
sg1819
I0
sg627
I378
sg1823
Vbig
p3937
sg110
g3913
sbasg110
g1714
sbsg1830
I1
sba(iconstruction
CXN
p3938
(dp3939
g1772
(iconstruction
TP_SYMLINKS
p3940
(dp3941
g1775
(dp3942
VN1_382
p3943
VS1_383
p3944
ssg627
I381
sg110
g1714
sbsg1781
VA
p3945
sg1783
I1
sg110
VHANDSOME
p3946
sg1784
(iconstruction
TP_SEMFRAME
p3947
(dp3948
g140
g0
(g141
g2
Ntp3949
Rp3950
(dp3951
g145
(dp3952
(iconstruction
TP_NODE
p3953
(dp3954
g1793
I01
sg129
g716
sg110
g3943
sg1794
I00
sg1795
I00
sg627
I382
sb(dp3955
g1794
I00
sg129
g716
sssg328
g329
sg330
g329
sg331
(dp3956
g3953
(dp3957
ssg525
g3956
sg140
(dp3958
sg527
g329
sg528
g3956
sg529
(dp3959
g3953
(dp3960
ssbsg622
(lp3961
g3953
asg895
(lp3962
sg627
I379
sg110
g1714
sbsg1809
(iconstruction
TP_SYNFORM
p3963
(dp3964
g627
I380
sg1812
(lp3965
(iconstruction
TP_PHON
p3966
(dp3967
g1822
I8
sg1819
I0
sg627
I383
sg1823
Vhandsome
p3968
sg110
g3944
sbasg110
g1714
sbsg1830
I1
sba(iconstruction
CXN
p3969
(dp3970
g1772
(iconstruction
TP_SYMLINKS
p3971
(dp3972
g1775
(dp3973
VN1_387
p3974
VS1_388
p3975
ssg627
I386
sg110
g1714
sbsg1781
VA
p3976
sg1783
I1
sg110
VPRETTY
p3977
sg1784
(iconstruction
TP_SEMFRAME
p3978
(dp3979
g140
g0
(g141
g2
Ntp3980
Rp3981
(dp3982
g145
(dp3983
(iconstruction
TP_NODE
p3984
(dp3985
g1793
I01
sg129
g713
sg110
g3974
sg1794
I00
sg1795
I00
sg627
I387
sb(dp3986
g1794
I00
sg129
g713
sssg328
g329
sg330
g329
sg331
(dp3987
g3984
(dp3988
ssg525
g3987
sg140
(dp3989
sg527
g329
sg528
g3987
sg529
(dp3990
g3984
(dp3991
ssbsg622
(lp3992
g3984
asg895
(lp3993
sg627
I384
sg110
g1714
sbsg1809
(iconstruction
TP_SYNFORM
p3994
(dp3995
g627
I385
sg1812
(lp3996
(iconstruction
TP_PHON
p3997
(dp3998
g1822
I6
sg1819
I0
sg627
I388
sg1823
Vpretty
p3999
sg110
g3975
sbasg110
g1714
sbsg1830
I1
sba(iconstruction
CXN
p4000
(dp4001
g1772
(iconstruction
TP_SYMLINKS
p4002
(dp4003
g1775
(dp4004
VN1_392
p4005
VS1_393
p4006
ssg627
I391
sg110
g1714
sbsg1781
VA
p4007
sg1783
I1
sg110
VYOUNG
p4008
sg1784
(iconstruction
TP_SEMFRAME
p4009
(dp4010
g140
g0
(g141
g2
Ntp4011
Rp4012
(dp4013
g145
(dp4014
(iconstruction
TP_NODE
p4015
(dp4016
g1793
I01
sg129
g710
sg110
g4005
sg1794
I00
sg1795
I00
sg627
I392
sb(dp4017
g1794
I00
sg129
g710
sssg328
g329
sg330
g329
sg331
(dp4018
g4015
(dp4019
ssg525
g4018
sg140
(dp4020
sg527
g329
sg528
g4018
sg529
(dp4021
g4015
(dp4022
ssbsg622
(lp4023
g4015
asg895
(lp4024
sg627
I389
sg110
g1714
sbsg1809
(iconstruction
TP_SYNFORM
p4025
(dp4026
g627
I390
sg1812
(lp4027
(iconstruction
TP_PHON
p4028
(dp4029
g1822
I5
sg1819
I0
sg627
I393
sg1823
Vyoung
p4030
sg110
g4006
sbasg110
g1714
sbsg1830
I1
sba(iconstruction
CXN
p4031
(dp4032
g1772
(iconstruction
TP_SYMLINKS
p4033
(dp4034
g1775
(dp4035
VN1_398
p4036
VS1_400
p4037
ssg627
I396
sg110
g1714
sbsg1781
VN
p4038
sg1783
I1
sg110
VWOMAN
p4039
sg1784
(iconstruction
TP_SEMFRAME
p4040
(dp4041
g140
g0
(g141
g2
Ntp4042
Rp4043
(dp4044
g145
(dp4045
(iconstruction
TP_NODE
p4046
(dp4047
g1793
I00
sg129
g851
sg110
g4036
sg1794
I00
sg1795
I00
sg627
I398
sb(dp4048
g1794
I00
sg129
g851
ss(iconstruction
TP_NODE
p4049
(dp4050
g1793
I01
sg129
g785
sg110
VENT_397
p4051
sg1794
I01
sg1795
I00
sg627
I397
sb(dp4052
g1794
I01
sg129
g785
sssg328
g329
sg330
g329
sg331
(dp4053
g4046
(dp4054
sg4049
(dp4055
g4046
(dp4056
g129
g776
ssssg525
g4053
sg140
(dp4057
sg527
g329
sg528
g4053
sg529
(dp4058
g4046
(dp4059
g4049
g4056
ssg4049
(dp4060
ssbsg622
(lp4061
g4049
ag4046
asg895
(lp4062
(iconstruction
TP_REL
p4063
(dp4064
g901
g4046
sg129
g776
sg627
I399
sg902
g4049
sg110
VIS_399
p4065
sbasg627
I394
sg110
g1714
sbsg1809
(iconstruction
TP_SYNFORM
p4066
(dp4067
g627
I395
sg1812
(lp4068
(iconstruction
TP_PHON
p4069
(dp4070
g1822
I5
sg1819
I0
sg627
I400
sg1823
Vwoman
p4071
sg110
g4037
sbasg110
g1714
sbsg1830
I1
sba(iconstruction
CXN
p4072
(dp4073
g1772
(iconstruction
TP_SYMLINKS
p4074
(dp4075
g1775
(dp4076
VN1_405
p4077
VS1_407
p4078
ssg627
I403
sg110
g1714
sbsg1781
VN
p4079
sg1783
I1
sg110
VWOMAN2
p4080
sg1784
(iconstruction
TP_SEMFRAME
p4081
(dp4082
g140
g0
(g141
g2
Ntp4083
Rp4084
(dp4085
g145
(dp4086
(iconstruction
TP_NODE
p4087
(dp4088
g1793
I01
sg129
g785
sg110
VENT_404
p4089
sg1794
I01
sg1795
I00
sg627
I404
sb(dp4090
g1794
I01
sg129
g785
ss(iconstruction
TP_NODE
p4091
(dp4092
g1793
I00
sg129
g851
sg110
g4077
sg1794
I00
sg1795
I00
sg627
I405
sb(dp4093
g1794
I00
sg129
g851
sssg328
g329
sg330
g329
sg331
(dp4094
g4087
(dp4095
g4091
(dp4096
g129
g776
sssg4091
(dp4097
ssg525
g4094
sg140
(dp4098
sg527
g329
sg528
g4094
sg529
(dp4099
g4087
(dp4100
sg4091
(dp4101
g4087
g4096
sssbsg622
(lp4102
g4087
ag4091
asg895
(lp4103
(iconstruction
TP_REL
p4104
(dp4105
g901
g4091
sg129
g776
sg627
I406
sg902
g4087
sg110
VIS_406
p4106
sbasg627
I401
sg110
g1714
sbsg1809
(iconstruction
TP_SYNFORM
p4107
(dp4108
g627
I402
sg1812
(lp4109
(iconstruction
TP_PHON
p4110
(dp4111
g1822
I4
sg1819
I0
sg627
I407
sg1823
Vlady
p4112
sg110
g4078
sbasg110
g1714
sbsg1830
I1
sba(iconstruction
CXN
p4113
(dp4114
g1772
(iconstruction
TP_SYMLINKS
p4115
(dp4116
g1775
(dp4117
VN1_412
p4118
VS1_414
p4119
ssg627
I410
sg110
g1714
sbsg1781
VN
p4120
sg1783
I1
sg110
VMAN
p4121
sg1784
(iconstruction
TP_SEMFRAME
p4122
(dp4123
g140
g0
(g141
g2
Ntp4124
Rp4125
(dp4126
g145
(dp4127
(iconstruction
TP_NODE
p4128
(dp4129
g1793
I00
sg129
g878
sg110
g4118
sg1794
I00
sg1795
I00
sg627
I412
sb(dp4130
g1794
I00
sg129
g878
ss(iconstruction
TP_NODE
p4131
(dp4132
g1793
I01
sg129
g785
sg110
VENT_411
p4133
sg1794
I01
sg1795
I00
sg627
I411
sb(dp4134
g1794
I01
sg129
g785
sssg328
g329
sg330
g329
sg331
(dp4135
g4128
(dp4136
sg4131
(dp4137
g4128
(dp4138
g129
g776
ssssg525
g4135
sg140
(dp4139
sg527
g329
sg528
g4135
sg529
(dp4140
g4128
(dp4141
g4131
g4138
ssg4131
(dp4142
ssbsg622
(lp4143
g4131
ag4128
asg895
(lp4144
(iconstruction
TP_REL
p4145
(dp4146
g901
g4128
sg129
g776
sg627
I413
sg902
g4131
sg110
VIS_413
p4147
sbasg627
I408
sg110
g1714
sbsg1809
(iconstruction
TP_SYNFORM
p4148
(dp4149
g627
I409
sg1812
(lp4150
(iconstruction
TP_PHON
p4151
(dp4152
g1822
I3
sg1819
I0
sg627
I414
sg1823
Vman
p4153
sg110
g4119
sbasg110
g1714
sbsg1830
I1
sba(iconstruction
CXN
p4154
(dp4155
g1772
(iconstruction
TP_SYMLINKS
p4156
(dp4157
g1775
(dp4158
VN1_419
p4159
VS1_421
p4160
ssg627
I417
sg110
g1714
sbsg1781
VN
p4161
sg1783
I1
sg110
VGIRL
p4162
sg1784
(iconstruction
TP_SEMFRAME
p4163
(dp4164
g140
g0
(g141
g2
Ntp4165
Rp4166
(dp4167
g145
(dp4168
(iconstruction
TP_NODE
p4169
(dp4170
g1793
I01
sg129
g785
sg110
VENT_418
p4171
sg1794
I01
sg1795
I00
sg627
I418
sb(dp4172
g1794
I01
sg129
g785
ss(iconstruction
TP_NODE
p4173
(dp4174
g1793
I00
sg129
g869
sg110
g4159
sg1794
I00
sg1795
I00
sg627
I419
sb(dp4175
g1794
I00
sg129
g869
sssg328
g329
sg330
g329
sg331
(dp4176
g4169
(dp4177
g4173
(dp4178
g129
g776
sssg4173
(dp4179
ssg525
g4176
sg140
(dp4180
sg527
g329
sg528
g4176
sg529
(dp4181
g4169
(dp4182
sg4173
(dp4183
g4169
g4178
sssbsg622
(lp4184
g4169
ag4173
asg895
(lp4185
(iconstruction
TP_REL
p4186
(dp4187
g901
g4173
sg129
g776
sg627
I420
sg902
g4169
sg110
VIS_420
p4188
sbasg627
I415
sg110
g1714
sbsg1809
(iconstruction
TP_SYNFORM
p4189
(dp4190
g627
I416
sg1812
(lp4191
(iconstruction
TP_PHON
p4192
(dp4193
g1822
I4
sg1819
I0
sg627
I421
sg1823
Vgirl
p4194
sg110
g4160
sbasg110
g1714
sbsg1830
I1
sba(iconstruction
CXN
p4195
(dp4196
g1772
(iconstruction
TP_SYMLINKS
p4197
(dp4198
g1775
(dp4199
VN1_426
p4200
VS1_428
p4201
ssg627
I424
sg110
g1714
sbsg1781
VN
p4202
sg1783
I1
sg110
VBOY
p4203
sg1784
(iconstruction
TP_SEMFRAME
p4204
(dp4205
g140
g0
(g141
g2
Ntp4206
Rp4207
(dp4208
g145
(dp4209
(iconstruction
TP_NODE
p4210
(dp4211
g1793
I00
sg129
g848
sg110
g4200
sg1794
I00
sg1795
I00
sg627
I426
sb(dp4212
g1794
I00
sg129
g848
ss(iconstruction
TP_NODE
p4213
(dp4214
g1793
I01
sg129
g785
sg110
VENT_425
p4215
sg1794
I01
sg1795
I00
sg627
I425
sb(dp4216
g1794
I01
sg129
g785
sssg328
g329
sg330
g329
sg331
(dp4217
g4210
(dp4218
sg4213
(dp4219
g4210
(dp4220
g129
g776
ssssg525
g4217
sg140
(dp4221
sg527
g329
sg528
g4217
sg529
(dp4222
g4210
(dp4223
g4213
g4220
ssg4213
(dp4224
ssbsg622
(lp4225
g4213
ag4210
asg895
(lp4226
(iconstruction
TP_REL
p4227
(dp4228
g901
g4210
sg129
g776
sg627
I427
sg902
g4213
sg110
VIS_427
p4229
sbasg627
I422
sg110
g1714
sbsg1809
(iconstruction
TP_SYNFORM
p4230
(dp4231
g627
I423
sg1812
(lp4232
(iconstruction
TP_PHON
p4233
(dp4234
g1822
I3
sg1819
I0
sg627
I428
sg1823
Vboy
p4235
sg110
g4201
sbasg110
g1714
sbsg1830
I1
sba(iconstruction
CXN
p4236
(dp4237
g1772
(iconstruction
TP_SYMLINKS
p4238
(dp4239
g1775
(dp4240
VN1_433
p4241
VS1_435
p4242
ssg627
I431
sg110
g1714
sbsg1781
VN
p4243
sg1783
I1
sg110
VPEOPLE
p4244
sg1784
(iconstruction
TP_SEMFRAME
p4245
(dp4246
g140
g0
(g141
g2
Ntp4247
Rp4248
(dp4249
g145
(dp4250
(iconstruction
TP_NODE
p4251
(dp4252
g1793
I00
sg129
g854
sg110
g4241
sg1794
I00
sg1795
I00
sg627
I433
sb(dp4253
g1794
I00
sg129
g854
ss(iconstruction
TP_NODE
p4254
(dp4255
g1793
I01
sg129
g785
sg110
VENT_432
p4256
sg1794
I01
sg1795
I00
sg627
I432
sb(dp4257
g1794
I01
sg129
g785
sssg328
g329
sg330
g329
sg331
(dp4258
g4251
(dp4259
sg4254
(dp4260
g4251
(dp4261
g129
g776
ssssg525
g4258
sg140
(dp4262
sg527
g329
sg528
g4258
sg529
(dp4263
g4251
(dp4264
g4254
g4261
ssg4254
(dp4265
ssbsg622
(lp4266
g4254
ag4251
asg895
(lp4267
(iconstruction
TP_REL
p4268
(dp4269
g901
g4251
sg129
g776
sg627
I434
sg902
g4254
sg110
VIS_434
p4270
sbasg627
I429
sg110
g1714
sbsg1809
(iconstruction
TP_SYNFORM
p4271
(dp4272
g627
I430
sg1812
(lp4273
(iconstruction
TP_PHON
p4274
(dp4275
g1822
I6
sg1819
I0
sg627
I435
sg1823
Vpeople
p4276
sg110
g4242
sbasg110
g1714
sbsg1830
I1
sba(iconstruction
CXN
p4277
(dp4278
g1772
(iconstruction
TP_SYMLINKS
p4279
(dp4280
g1775
(dp4281
VN1_440
p4282
VS1_442
p4283
ssg627
I438
sg110
g1714
sbsg1781
VN
p4284
sg1783
I1
sg110
VMOUSE
p4285
sg1784
(iconstruction
TP_SEMFRAME
p4286
(dp4287
g140
g0
(g141
g2
Ntp4288
Rp4289
(dp4290
g145
(dp4291
(iconstruction
TP_NODE
p4292
(dp4293
g1793
I01
sg129
g785
sg110
VENT_439
p4294
sg1794
I01
sg1795
I00
sg627
I439
sb(dp4295
g1794
I01
sg129
g785
ss(iconstruction
TP_NODE
p4296
(dp4297
g1793
I00
sg129
g842
sg110
g4282
sg1794
I00
sg1795
I00
sg627
I440
sb(dp4298
g1794
I00
sg129
g842
sssg328
g329
sg330
g329
sg331
(dp4299
g4292
(dp4300
g4296
(dp4301
g129
g776
sssg4296
(dp4302
ssg525
g4299
sg140
(dp4303
sg527
g329
sg528
g4299
sg529
(dp4304
g4292
(dp4305
sg4296
(dp4306
g4292
g4301
sssbsg622
(lp4307
g4292
ag4296
asg895
(lp4308
(iconstruction
TP_REL
p4309
(dp4310
g901
g4296
sg129
g776
sg627
I441
sg902
g4292
sg110
VIS_441
p4311
sbasg627
I436
sg110
g1714
sbsg1809
(iconstruction
TP_SYNFORM
p4312
(dp4313
g627
I437
sg1812
(lp4314
(iconstruction
TP_PHON
p4315
(dp4316
g1822
I5
sg1819
I0
sg627
I442
sg1823
Vmouse
p4317
sg110
g4283
sbasg110
g1714
sbsg1830
I1
sba(iconstruction
CXN
p4318
(dp4319
g1772
(iconstruction
TP_SYMLINKS
p4320
(dp4321
g1775
(dp4322
VN1_447
p4323
VS1_449
p4324
ssg627
I445
sg110
g1714
sbsg1781
VN
p4325
sg1783
I1
sg110
VTURTLE
p4326
sg1784
(iconstruction
TP_SEMFRAME
p4327
(dp4328
g140
g0
(g141
g2
Ntp4329
Rp4330
(dp4331
g145
(dp4332
(iconstruction
TP_NODE
p4333
(dp4334
g1793
I00
sg129
g839
sg110
g4323
sg1794
I00
sg1795
I00
sg627
I447
sb(dp4335
g1794
I00
sg129
g839
ss(iconstruction
TP_NODE
p4336
(dp4337
g1793
I01
sg129
g785
sg110
VENT_446
p4338
sg1794
I01
sg1795
I00
sg627
I446
sb(dp4339
g1794
I01
sg129
g785
sssg328
g329
sg330
g329
sg331
(dp4340
g4333
(dp4341
sg4336
(dp4342
g4333
(dp4343
g129
g776
ssssg525
g4340
sg140
(dp4344
sg527
g329
sg528
g4340
sg529
(dp4345
g4333
(dp4346
g4336
g4343
ssg4336
(dp4347
ssbsg622
(lp4348
g4336
ag4333
asg895
(lp4349
(iconstruction
TP_REL
p4350
(dp4351
g901
g4333
sg129
g776
sg627
I448
sg902
g4336
sg110
VIS_448
p4352
sbasg627
I443
sg110
g1714
sbsg1809
(iconstruction
TP_SYNFORM
p4353
(dp4354
g627
I444
sg1812
(lp4355
(iconstruction
TP_PHON
p4356
(dp4357
g1822
I6
sg1819
I0
sg627
I449
sg1823
Vturtle
p4358
sg110
g4324
sbasg110
g1714
sbsg1830
I1
sba(iconstruction
CXN
p4359
(dp4360
g1772
(iconstruction
TP_SYMLINKS
p4361
(dp4362
g1775
(dp4363
VN1_454
p4364
VS1_456
p4365
ssg627
I452
sg110
g1714
sbsg1781
VN
p4366
sg1783
I1
sg110
VDRESS
p4367
sg1784
(iconstruction
TP_SEMFRAME
p4368
(dp4369
g140
g0
(g141
g2
Ntp4370
Rp4371
(dp4372
g145
(dp4373
(iconstruction
TP_NODE
p4374
(dp4375
g1793
I01
sg129
g785
sg110
VENT_453
p4376
sg1794
I01
sg1795
I00
sg627
I453
sb(dp4377
g1794
I01
sg129
g785
ss(iconstruction
TP_NODE
p4378
(dp4379
g1793
I00
sg129
g830
sg110
g4364
sg1794
I00
sg1795
I00
sg627
I454
sb(dp4380
g1794
I00
sg129
g830
sssg328
g329
sg330
g329
sg331
(dp4381
g4374
(dp4382
g4378
(dp4383
g129
g776
sssg4378
(dp4384
ssg525
g4381
sg140
(dp4385
sg527
g329
sg528
g4381
sg529
(dp4386
g4374
(dp4387
sg4378
(dp4388
g4374
g4383
sssbsg622
(lp4389
g4374
ag4378
asg895
(lp4390
(iconstruction
TP_REL
p4391
(dp4392
g901
g4378
sg129
g776
sg627
I455
sg902
g4374
sg110
VIS_455
p4393
sbasg627
I450
sg110
g1714
sbsg1809
(iconstruction
TP_SYNFORM
p4394
(dp4395
g627
I451
sg1812
(lp4396
(iconstruction
TP_PHON
p4397
(dp4398
g1822
I5
sg1819
I0
sg627
I456
sg1823
Vdress
p4399
sg110
g4365
sbasg110
g1714
sbsg1830
I1
sba(iconstruction
CXN
p4400
(dp4401
g1772
(iconstruction
TP_SYMLINKS
p4402
(dp4403
g1775
(dp4404
VN1_461
p4405
VS1_463
p4406
ssg627
I459
sg110
g1714
sbsg1781
VN
p4407
sg1783
I1
sg110
VTSHIRT
p4408
sg1784
(iconstruction
TP_SEMFRAME
p4409
(dp4410
g140
g0
(g141
g2
Ntp4411
Rp4412
(dp4413
g145
(dp4414
(iconstruction
TP_NODE
p4415
(dp4416
g1793
I00
sg129
g827
sg110
g4405
sg1794
I00
sg1795
I00
sg627
I461
sb(dp4417
g1794
I00
sg129
g827
ss(iconstruction
TP_NODE
p4418
(dp4419
g1793
I01
sg129
g785
sg110
VENT_460
p4420
sg1794
I01
sg1795
I00
sg627
I460
sb(dp4421
g1794
I01
sg129
g785
sssg328
g329
sg330
g329
sg331
(dp4422
g4415
(dp4423
sg4418
(dp4424
g4415
(dp4425
g129
g776
ssssg525
g4422
sg140
(dp4426
sg527
g329
sg528
g4422
sg529
(dp4427
g4415
(dp4428
g4418
g4425
ssg4418
(dp4429
ssbsg622
(lp4430
g4418
ag4415
asg895
(lp4431
(iconstruction
TP_REL
p4432
(dp4433
g901
g4415
sg129
g776
sg627
I462
sg902
g4418
sg110
VIS_462
p4434
sbasg627
I457
sg110
g1714
sbsg1809
(iconstruction
TP_SYNFORM
p4435
(dp4436
g627
I458
sg1812
(lp4437
(iconstruction
TP_PHON
p4438
(dp4439
g1822
I6
sg1819
I0
sg627
I463
sg1823
Vt-shirt
p4440
sg110
g4406
sbasg110
g1714
sbsg1830
I1
sba(iconstruction
CXN
p4441
(dp4442
g1772
(iconstruction
TP_SYMLINKS
p4443
(dp4444
g1775
(dp4445
VN1_468
p4446
VS2_471
p4447
ssg627
I466
sg110
g1714
sbsg1781
VN
p4448
sg1783
I1
sg110
VBOXINGRING
p4449
sg1784
(iconstruction
TP_SEMFRAME
p4450
(dp4451
g140
g0
(g141
g2
Ntp4452
Rp4453
(dp4454
g145
(dp4455
(iconstruction
TP_NODE
p4456
(dp4457
g1793
I00
sg129
g884
sg110
g4446
sg1794
I00
sg1795
I00
sg627
I468
sb(dp4458
g1794
I00
sg129
g884
ss(iconstruction
TP_NODE
p4459
(dp4460
g1793
I01
sg129
g785
sg110
VENT_467
p4461
sg1794
I01
sg1795
I00
sg627
I467
sb(dp4462
g1794
I01
sg129
g785
sssg328
g329
sg330
g329
sg331
(dp4463
g4456
(dp4464
sg4459
(dp4465
g4456
(dp4466
g129
g776
ssssg525
g4463
sg140
(dp4467
sg527
g329
sg528
g4463
sg529
(dp4468
g4456
(dp4469
g4459
g4466
ssg4459
(dp4470
ssbsg622
(lp4471
g4459
ag4456
asg895
(lp4472
(iconstruction
TP_REL
p4473
(dp4474
g901
g4456
sg129
g776
sg627
I469
sg902
g4459
sg110
VIS_469
p4475
sbasg627
I464
sg110
g1714
sbsg1809
(iconstruction
TP_SYNFORM
p4476
(dp4477
g627
I465
sg1812
(lp4478
(iconstruction
TP_PHON
p4479
(dp4480
g1822
I6
sg1819
I0
sg627
I470
sg1823
Vboxing
p4481
sg110
VS1_470
p4482
sba(iconstruction
TP_PHON
p4483
(dp4484
g1822
I4
sg1819
I1
sg627
I471
sg1823
Vring
p4485
sg110
g4447
sbasg110
g1714
sbsg1830
I1
sba(iconstruction
CXN
p4486
(dp4487
g1772
(iconstruction
TP_SYMLINKS
p4488
(dp4489
g1775
(dp4490
VN1_476
p4491
VS1_478
p4492
ssg627
I474
sg110
g1714
sbsg1781
VN
p4493
sg1783
I1
sg110
VPARK
p4494
sg1784
(iconstruction
TP_SEMFRAME
p4495
(dp4496
g140
g0
(g141
g2
Ntp4497
Rp4498
(dp4499
g145
(dp4500
(iconstruction
TP_NODE
p4501
(dp4502
g1793
I00
sg129
g887
sg110
g4491
sg1794
I00
sg1795
I00
sg627
I476
sb(dp4503
g1794
I00
sg129
g887
ss(iconstruction
TP_NODE
p4504
(dp4505
g1793
I01
sg129
g785
sg110
VENT_475
p4506
sg1794
I01
sg1795
I00
sg627
I475
sb(dp4507
g1794
I01
sg129
g785
sssg328
g329
sg330
g329
sg331
(dp4508
g4501
(dp4509
sg4504
(dp4510
g4501
(dp4511
g129
g776
ssssg525
g4508
sg140
(dp4512
sg527
g329
sg528
g4508
sg529
(dp4513
g4501
(dp4514
g4504
g4511
ssg4504
(dp4515
ssbsg622
(lp4516
g4504
ag4501
asg895
(lp4517
(iconstruction
TP_REL
p4518
(dp4519
g901
g4501
sg129
g776
sg627
I477
sg902
g4504
sg110
VIS_477
p4520
sbasg627
I472
sg110
g1714
sbsg1809
(iconstruction
TP_SYNFORM
p4521
(dp4522
g627
I473
sg1812
(lp4523
(iconstruction
TP_PHON
p4524
(dp4525
g1822
I4
sg1819
I0
sg627
I478
sg1823
Vpark
p4526
sg110
g4492
sbasg110
g1714
sbsg1830
I1
sba(iconstruction
CXN
p4527
(dp4528
g1772
(iconstruction
TP_SYMLINKS
p4529
(dp4530
g1775
(dp4531
VN1_483
p4532
VS1_485
p4533
ssg627
I481
sg110
g1714
sbsg1781
VN
p4534
sg1783
I1
sg110
VSHIRT
p4535
sg1784
(iconstruction
TP_SEMFRAME
p4536
(dp4537
g140
g0
(g141
g2
Ntp4538
Rp4539
(dp4540
g145
(dp4541
(iconstruction
TP_NODE
p4542
(dp4543
g1793
I01
sg129
g785
sg110
VENT_482
p4544
sg1794
I01
sg1795
I00
sg627
I482
sb(dp4545
g1794
I01
sg129
g785
ss(iconstruction
TP_NODE
p4546
(dp4547
g1793
I00
sg129
g833
sg110
g4532
sg1794
I00
sg1795
I00
sg627
I483
sb(dp4548
g1794
I00
sg129
g833
sssg328
g329
sg330
g329
sg331
(dp4549
g4542
(dp4550
g4546
(dp4551
g129
g776
sssg4546
(dp4552
ssg525
g4549
sg140
(dp4553
sg527
g329
sg528
g4549
sg529
(dp4554
g4542
(dp4555
sg4546
(dp4556
g4542
g4551
sssbsg622
(lp4557
g4542
ag4546
asg895
(lp4558
(iconstruction
TP_REL
p4559
(dp4560
g901
g4546
sg129
g776
sg627
I484
sg902
g4542
sg110
VIS_484
p4561
sbasg627
I479
sg110
g1714
sbsg1809
(iconstruction
TP_SYNFORM
p4562
(dp4563
g627
I480
sg1812
(lp4564
(iconstruction
TP_PHON
p4565
(dp4566
g1822
I5
sg1819
I0
sg627
I485
sg1823
Vshirt
p4567
sg110
g4533
sbasg110
g1714
sbsg1830
I1
sba(iconstruction
CXN
p4568
(dp4569
g1772
(iconstruction
TP_SYMLINKS
p4570
(dp4571
g1775
(dp4572
VN1_490
p4573
VS1_492
p4574
ssg627
I488
sg110
g1714
sbsg1781
VN
p4575
sg1783
I1
sg110
VSUIT
p4576
sg1784
(iconstruction
TP_SEMFRAME
p4577
(dp4578
g140
g0
(g141
g2
Ntp4579
Rp4580
(dp4581
g145
(dp4582
(iconstruction
TP_NODE
p4583
(dp4584
g1793
I00
sg129
g836
sg110
g4573
sg1794
I00
sg1795
I00
sg627
I490
sb(dp4585
g1794
I00
sg129
g836
ss(iconstruction
TP_NODE
p4586
(dp4587
g1793
I01
sg129
g785
sg110
VENT_489
p4588
sg1794
I01
sg1795
I00
sg627
I489
sb(dp4589
g1794
I01
sg129
g785
sssg328
g329
sg330
g329
sg331
(dp4590
g4583
(dp4591
sg4586
(dp4592
g4583
(dp4593
g129
g776
ssssg525
g4590
sg140
(dp4594
sg527
g329
sg528
g4590
sg529
(dp4595
g4583
(dp4596
g4586
g4593
ssg4586
(dp4597
ssbsg622
(lp4598
g4586
ag4583
asg895
(lp4599
(iconstruction
TP_REL
p4600
(dp4601
g901
g4583
sg129
g776
sg627
I491
sg902
g4586
sg110
VIS_491
p4602
sbasg627
I486
sg110
g1714
sbsg1809
(iconstruction
TP_SYNFORM
p4603
(dp4604
g627
I487
sg1812
(lp4605
(iconstruction
TP_PHON
p4606
(dp4607
g1822
I4
sg1819
I0
sg627
I492
sg1823
Vsuit
p4608
sg110
g4574
sbasg110
g1714
sbsg1830
I1
sba(iconstruction
CXN
p4609
(dp4610
g1772
(iconstruction
TP_SYMLINKS
p4611
(dp4612
g1775
(dp4613
VN1_497
p4614
VS1_499
p4615
ssg627
I495
sg110
g1714
sbsg1781
VN
p4616
sg1783
I1
sg110
VCELLO
p4617
sg1784
(iconstruction
TP_SEMFRAME
p4618
(dp4619
g140
g0
(g141
g2
Ntp4620
Rp4621
(dp4622
g145
(dp4623
(iconstruction
TP_NODE
p4624
(dp4625
g1793
I01
sg129
g785
sg110
VENT_496
p4626
sg1794
I01
sg1795
I00
sg627
I496
sb(dp4627
g1794
I01
sg129
g785
ss(iconstruction
TP_NODE
p4628
(dp4629
g1793
I00
sg129
g818
sg110
g4614
sg1794
I00
sg1795
I00
sg627
I497
sb(dp4630
g1794
I00
sg129
g818
sssg328
g329
sg330
g329
sg331
(dp4631
g4624
(dp4632
g4628
(dp4633
g129
g776
sssg4628
(dp4634
ssg525
g4631
sg140
(dp4635
sg527
g329
sg528
g4631
sg529
(dp4636
g4624
(dp4637
sg4628
(dp4638
g4624
g4633
sssbsg622
(lp4639
g4624
ag4628
asg895
(lp4640
(iconstruction
TP_REL
p4641
(dp4642
g901
g4628
sg129
g776
sg627
I498
sg902
g4624
sg110
VIS_498
p4643
sbasg627
I493
sg110
g1714
sbsg1809
(iconstruction
TP_SYNFORM
p4644
(dp4645
g627
I494
sg1812
(lp4646
(iconstruction
TP_PHON
p4647
(dp4648
g1822
I5
sg1819
I0
sg627
I499
sg1823
VCELLO
p4649
sg110
g4615
sbasg110
g1714
sbsg1830
I1
sba(iconstruction
CXN
p4650
(dp4651
g1772
(iconstruction
TP_SYMLINKS
p4652
(dp4653
g1775
(dp4654
VN1_504
p4655
VS1_506
p4656
ssg627
I502
sg110
g1714
sbsg1781
VN
p4657
sg1783
I1
sg110
VBAG
p4658
sg1784
(iconstruction
TP_SEMFRAME
p4659
(dp4660
g140
g0
(g141
g2
Ntp4661
Rp4662
(dp4663
g145
(dp4664
(iconstruction
TP_NODE
p4665
(dp4666
g1793
I00
sg129
g809
sg110
g4655
sg1794
I00
sg1795
I00
sg627
I504
sb(dp4667
g1794
I00
sg129
g809
ss(iconstruction
TP_NODE
p4668
(dp4669
g1793
I01
sg129
g785
sg110
VENT_503
p4670
sg1794
I01
sg1795
I00
sg627
I503
sb(dp4671
g1794
I01
sg129
g785
sssg328
g329
sg330
g329
sg331
(dp4672
g4665
(dp4673
sg4668
(dp4674
g4665
(dp4675
g129
g776
ssssg525
g4672
sg140
(dp4676
sg527
g329
sg528
g4672
sg529
(dp4677
g4665
(dp4678
g4668
g4675
ssg4668
(dp4679
ssbsg622
(lp4680
g4668
ag4665
asg895
(lp4681
(iconstruction
TP_REL
p4682
(dp4683
g901
g4665
sg129
g776
sg627
I505
sg902
g4668
sg110
VIS_505
p4684
sbasg627
I500
sg110
g1714
sbsg1809
(iconstruction
TP_SYNFORM
p4685
(dp4686
g627
I501
sg1812
(lp4687
(iconstruction
TP_PHON
p4688
(dp4689
g1822
I3
sg1819
I0
sg627
I506
sg1823
Vbag
p4690
sg110
g4656
sbasg110
g1714
sbsg1830
I1
sba(iconstruction
CXN
p4691
(dp4692
g1772
(iconstruction
TP_SYMLINKS
p4693
(dp4694
g1775
(dp4695
VN1_511
p4696
VS2_514
p4697
ssg627
I509
sg110
g1714
sbsg1781
VN
p4698
sg1783
I1
sg110
VWATERING_CAN
p4699
sg1784
(iconstruction
TP_SEMFRAME
p4700
(dp4701
g140
g0
(g141
g2
Ntp4702
Rp4703
(dp4704
g145
(dp4705
(iconstruction
TP_NODE
p4706
(dp4707
g1793
I00
sg129
g806
sg110
g4696
sg1794
I00
sg1795
I00
sg627
I511
sb(dp4708
g1794
I00
sg129
g806
ss(iconstruction
TP_NODE
p4709
(dp4710
g1793
I01
sg129
g785
sg110
VENT_510
p4711
sg1794
I01
sg1795
I00
sg627
I510
sb(dp4712
g1794
I01
sg129
g785
sssg328
g329
sg330
g329
sg331
(dp4713
g4706
(dp4714
sg4709
(dp4715
g4706
(dp4716
g129
g776
ssssg525
g4713
sg140
(dp4717
sg527
g329
sg528
g4713
sg529
(dp4718
g4706
(dp4719
g4709
g4716
ssg4709
(dp4720
ssbsg622
(lp4721
g4709
ag4706
asg895
(lp4722
(iconstruction
TP_REL
p4723
(dp4724
g901
g4706
sg129
g776
sg627
I512
sg902
g4709
sg110
VIS_512
p4725
sbasg627
I507
sg110
g1714
sbsg1809
(iconstruction
TP_SYNFORM
p4726
(dp4727
g627
I508
sg1812
(lp4728
(iconstruction
TP_PHON
p4729
(dp4730
g1822
I8
sg1819
I0
sg627
I513
sg1823
Vwatering
p4731
sg110
VS1_513
p4732
sba(iconstruction
TP_PHON
p4733
(dp4734
g1822
I3
sg1819
I1
sg627
I514
sg1823
Vcan
p4735
sg110
g4697
sbasg110
g1714
sbsg1830
I1
sba(iconstruction
CXN
p4736
(dp4737
g1772
(iconstruction
TP_SYMLINKS
p4738
(dp4739
g1775
(dp4740
VN1_519
p4741
VS1_521
p4742
ssg627
I517
sg110
g1714
sbsg1781
VN
p4743
sg1783
I1
sg110
VBALLERINA
p4744
sg1784
(iconstruction
TP_SEMFRAME
p4745
(dp4746
g140
g0
(g141
g2
Ntp4747
Rp4748
(dp4749
g145
(dp4750
(iconstruction
TP_NODE
p4751
(dp4752
g1793
I00
sg129
g863
sg110
g4741
sg1794
I00
sg1795
I00
sg627
I519
sb(dp4753
g1794
I00
sg129
g863
ss(iconstruction
TP_NODE
p4754
(dp4755
g1793
I01
sg129
g785
sg110
VENT_518
p4756
sg1794
I01
sg1795
I00
sg627
I518
sb(dp4757
g1794
I01
sg129
g785
sssg328
g329
sg330
g329
sg331
(dp4758
g4751
(dp4759
sg4754
(dp4760
g4751
(dp4761
g129
g776
ssssg525
g4758
sg140
(dp4762
sg527
g329
sg528
g4758
sg529
(dp4763
g4751
(dp4764
g4754
g4761
ssg4754
(dp4765
ssbsg622
(lp4766
g4754
ag4751
asg895
(lp4767
(iconstruction
TP_REL
p4768
(dp4769
g901
g4751
sg129
g776
sg627
I520
sg902
g4754
sg110
VIS_520
p4770
sbasg627
I515
sg110
g1714
sbsg1809
(iconstruction
TP_SYNFORM
p4771
(dp4772
g627
I516
sg1812
(lp4773
(iconstruction
TP_PHON
p4774
(dp4775
g1822
I9
sg1819
I0
sg627
I521
sg1823
Vballerina
p4776
sg110
g4742
sbasg110
g1714
sbsg1830
I1
sba(iconstruction
CXN
p4777
(dp4778
g1772
(iconstruction
TP_SYMLINKS
p4779
(dp4780
g1775
(dp4781
VN1_526
p4782
VS1_528
p4783
ssg627
I524
sg110
g1714
sbsg1781
VN
p4784
sg1783
I1
sg110
VCELLIST
p4785
sg1784
(iconstruction
TP_SEMFRAME
p4786
(dp4787
g140
g0
(g141
g2
Ntp4788
Rp4789
(dp4790
g145
(dp4791
(iconstruction
TP_NODE
p4792
(dp4793
g1793
I01
sg129
g785
sg110
VENT_525
p4794
sg1794
I01
sg1795
I00
sg627
I525
sb(dp4795
g1794
I01
sg129
g785
ss(iconstruction
TP_NODE
p4796
(dp4797
g1793
I00
sg129
g866
sg110
g4782
sg1794
I00
sg1795
I00
sg627
I526
sb(dp4798
g1794
I00
sg129
g866
sssg328
g329
sg330
g329
sg331
(dp4799
g4792
(dp4800
g4796
(dp4801
g129
g776
sssg4796
(dp4802
ssg525
g4799
sg140
(dp4803
sg527
g329
sg528
g4799
sg529
(dp4804
g4792
(dp4805
sg4796
(dp4806
g4792
g4801
sssbsg622
(lp4807
g4792
ag4796
asg895
(lp4808
(iconstruction
TP_REL
p4809
(dp4810
g901
g4796
sg129
g776
sg627
I527
sg902
g4792
sg110
VIS_527
p4811
sbasg627
I522
sg110
g1714
sbsg1809
(iconstruction
TP_SYNFORM
p4812
(dp4813
g627
I523
sg1812
(lp4814
(iconstruction
TP_PHON
p4815
(dp4816
g1822
I7
sg1819
I0
sg627
I528
sg1823
Vcellist
p4817
sg110
g4783
sbasg110
g1714
sbsg1830
I1
sba(iconstruction
CXN
p4818
(dp4819
g1772
(iconstruction
TP_SYMLINKS
p4820
(dp4821
g1775
(dp4822
VN1_533
p4823
VS1_535
p4824
ssg627
I531
sg110
g1714
sbsg1781
VN
p4825
sg1783
I1
sg110
VFENCER
p4826
sg1784
(iconstruction
TP_SEMFRAME
p4827
(dp4828
g140
g0
(g141
g2
Ntp4829
Rp4830
(dp4831
g145
(dp4832
(iconstruction
TP_NODE
p4833
(dp4834
g1793
I00
sg129
g872
sg110
g4823
sg1794
I00
sg1795
I00
sg627
I533
sb(dp4835
g1794
I00
sg129
g872
ss(iconstruction
TP_NODE
p4836
(dp4837
g1793
I01
sg129
g785
sg110
VENT_532
p4838
sg1794
I01
sg1795
I00
sg627
I532
sb(dp4839
g1794
I01
sg129
g785
sssg328
g329
sg330
g329
sg331
(dp4840
g4833
(dp4841
sg4836
(dp4842
g4833
(dp4843
g129
g776
ssssg525
g4840
sg140
(dp4844
sg527
g329
sg528
g4840
sg529
(dp4845
g4833
(dp4846
g4836
g4843
ssg4836
(dp4847
ssbsg622
(lp4848
g4836
ag4833
asg895
(lp4849
(iconstruction
TP_REL
p4850
(dp4851
g901
g4833
sg129
g776
sg627
I534
sg902
g4836
sg110
VIS_534
p4852
sbasg627
I529
sg110
g1714
sbsg1809
(iconstruction
TP_SYNFORM
p4853
(dp4854
g627
I530
sg1812
(lp4855
(iconstruction
TP_PHON
p4856
(dp4857
g1822
I6
sg1819
I0
sg627
I535
sg1823
Vfencer
p4858
sg110
g4824
sbasg110
g1714
sbsg1830
I1
sba(iconstruction
CXN
p4859
(dp4860
g1772
(iconstruction
TP_SYMLINKS
p4861
(dp4862
g1775
(dp4863
VN1_540
p4864
VS1_542
p4865
ssg627
I538
sg110
g1714
sbsg1781
VN
p4866
sg1783
I1
sg110
VROBBER
p4867
sg1784
(iconstruction
TP_SEMFRAME
p4868
(dp4869
g140
g0
(g141
g2
Ntp4870
Rp4871
(dp4872
g145
(dp4873
(iconstruction
TP_NODE
p4874
(dp4875
g1793
I01
sg129
g785
sg110
VENT_539
p4876
sg1794
I01
sg1795
I00
sg627
I539
sb(dp4877
g1794
I01
sg129
g785
ss(iconstruction
TP_NODE
p4878
(dp4879
g1793
I00
sg129
g875
sg110
g4864
sg1794
I00
sg1795
I00
sg627
I540
sb(dp4880
g1794
I00
sg129
g875
sssg328
g329
sg330
g329
sg331
(dp4881
g4874
(dp4882
g4878
(dp4883
g129
g776
sssg4878
(dp4884
ssg525
g4881
sg140
(dp4885
sg527
g329
sg528
g4881
sg529
(dp4886
g4874
(dp4887
sg4878
(dp4888
g4874
g4883
sssbsg622
(lp4889
g4874
ag4878
asg895
(lp4890
(iconstruction
TP_REL
p4891
(dp4892
g901
g4878
sg129
g776
sg627
I541
sg902
g4874
sg110
VIS_541
p4893
sbasg627
I536
sg110
g1714
sbsg1809
(iconstruction
TP_SYNFORM
p4894
(dp4895
g627
I537
sg1812
(lp4896
(iconstruction
TP_PHON
p4897
(dp4898
g1822
I5
sg1819
I0
sg627
I542
sg1823
Vthief
p4899
sg110
g4865
sbasg110
g1714
sbsg1830
I1
sba(iconstruction
CXN
p4900
(dp4901
g1772
(iconstruction
TP_SYMLINKS
p4902
(dp4903
g1775
(dp4904
VN1_547
p4905
VS1_549
p4906
ssg627
I545
sg110
g1714
sbsg1781
VN
p4907
sg1783
I1
sg110
VPOLICEMAN
p4908
sg1784
(iconstruction
TP_SEMFRAME
p4909
(dp4910
g140
g0
(g141
g2
Ntp4911
Rp4912
(dp4913
g145
(dp4914
(iconstruction
TP_NODE
p4915
(dp4916
g1793
I00
sg129
g857
sg110
g4905
sg1794
I00
sg1795
I00
sg627
I547
sb(dp4917
g1794
I00
sg129
g857
ss(iconstruction
TP_NODE
p4918
(dp4919
g1793
I01
sg129
g785
sg110
VENT_546
p4920
sg1794
I01
sg1795
I00
sg627
I546
sb(dp4921
g1794
I01
sg129
g785
sssg328
g329
sg330
g329
sg331
(dp4922
g4915
(dp4923
sg4918
(dp4924
g4915
(dp4925
g129
g776
ssssg525
g4922
sg140
(dp4926
sg527
g329
sg528
g4922
sg529
(dp4927
g4915
(dp4928
g4918
g4925
ssg4918
(dp4929
ssbsg622
(lp4930
g4918
ag4915
asg895
(lp4931
(iconstruction
TP_REL
p4932
(dp4933
g901
g4915
sg129
g776
sg627
I548
sg902
g4918
sg110
VIS_548
p4934
sbasg627
I543
sg110
g1714
sbsg1809
(iconstruction
TP_SYNFORM
p4935
(dp4936
g627
I544
sg1812
(lp4937
(iconstruction
TP_PHON
p4938
(dp4939
g1822
I9
sg1819
I0
sg627
I549
sg1823
Vpoliceman
p4940
sg110
g4906
sbasg110
g1714
sbsg1830
I1
sba(iconstruction
CXN
p4941
(dp4942
g1772
(iconstruction
TP_SYMLINKS
p4943
(dp4944
g1775
(dp4945
VN1_554
p4946
VS1_556
p4947
ssg627
I552
sg110
g1714
sbsg1781
VN
p4948
sg1783
I1
sg110
VHUNTER
p4949
sg1784
(iconstruction
TP_SEMFRAME
p4950
(dp4951
g140
g0
(g141
g2
Ntp4952
Rp4953
(dp4954
g145
(dp4955
(iconstruction
TP_NODE
p4956
(dp4957
g1793
I00
sg129
g860
sg110
g4946
sg1794
I00
sg1795
I00
sg627
I554
sb(dp4958
g1794
I00
sg129
g860
ss(iconstruction
TP_NODE
p4959
(dp4960
g1793
I01
sg129
g785
sg110
VENT_553
p4961
sg1794
I01
sg1795
I00
sg627
I553
sb(dp4962
g1794
I01
sg129
g785
sssg328
g329
sg330
g329
sg331
(dp4963
g4956
(dp4964
sg4959
(dp4965
g4956
(dp4966
g129
g776
ssssg525
g4963
sg140
(dp4967
sg527
g329
sg528
g4963
sg529
(dp4968
g4956
(dp4969
g4959
g4966
ssg4959
(dp4970
ssbsg622
(lp4971
g4959
ag4956
asg895
(lp4972
(iconstruction
TP_REL
p4973
(dp4974
g901
g4956
sg129
g776
sg627
I555
sg902
g4959
sg110
VIS_555
p4975
sbasg627
I550
sg110
g1714
sbsg1809
(iconstruction
TP_SYNFORM
p4976
(dp4977
g627
I551
sg1812
(lp4978
(iconstruction
TP_PHON
p4979
(dp4980
g1822
I6
sg1819
I0
sg627
I556
sg1823
Vhunter
p4981
sg110
g4947
sbasg110
g1714
sbsg1830
I1
sba(iconstruction
CXN
p4982
(dp4983
g1772
(iconstruction
TP_SYMLINKS
p4984
(dp4985
g1775
(dp4986
VN1_561
p4987
VS1_563
p4988
ssg627
I559
sg110
g1714
sbsg1781
VN
p4989
sg1783
I1
sg110
VDOG
p4990
sg1784
(iconstruction
TP_SEMFRAME
p4991
(dp4992
g140
g0
(g141
g2
Ntp4993
Rp4994
(dp4995
g145
(dp4996
(iconstruction
TP_NODE
p4997
(dp4998
g1793
I01
sg129
g785
sg110
VENT_560
p4999
sg1794
I01
sg1795
I00
sg627
I560
sb(dp5000
g1794
I01
sg129
g785
ss(iconstruction
TP_NODE
p5001
(dp5002
g1793
I00
sg129
g845
sg110
g4987
sg1794
I00
sg1795
I00
sg627
I561
sb(dp5003
g1794
I00
sg129
g845
sssg328
g329
sg330
g329
sg331
(dp5004
g4997
(dp5005
g5001
(dp5006
g129
g776
sssg5001
(dp5007
ssg525
g5004
sg140
(dp5008
sg527
g329
sg528
g5004
sg529
(dp5009
g4997
(dp5010
sg5001
(dp5011
g4997
g5006
sssbsg622
(lp5012
g4997
ag5001
asg895
(lp5013
(iconstruction
TP_REL
p5014
(dp5015
g901
g5001
sg129
g776
sg627
I562
sg902
g4997
sg110
VIS_562
p5016
sbasg627
I557
sg110
g1714
sbsg1809
(iconstruction
TP_SYNFORM
p5017
(dp5018
g627
I558
sg1812
(lp5019
(iconstruction
TP_PHON
p5020
(dp5021
g1822
I3
sg1819
I0
sg627
I563
sg1823
Vdog
p5022
sg110
g4988
sbasg110
g1714
sbsg1830
I1
sba(iconstruction
CXN
p5023
(dp5024
g1772
(iconstruction
TP_SYMLINKS
p5025
(dp5026
g1775
(dp5027
VN1_568
p5028
VS1_570
p5029
ssg627
I566
sg110
g1714
sbsg1781
VN
p5030
sg1783
I1
sg110
VHOOK
p5031
sg1784
(iconstruction
TP_SEMFRAME
p5032
(dp5033
g140
g0
(g141
g2
Ntp5034
Rp5035
(dp5036
g145
(dp5037
(iconstruction
TP_NODE
p5038
(dp5039
g1793
I00
sg129
g815
sg110
g5028
sg1794
I00
sg1795
I00
sg627
I568
sb(dp5040
g1794
I00
sg129
g815
ss(iconstruction
TP_NODE
p5041
(dp5042
g1793
I01
sg129
g785
sg110
VENT_567
p5043
sg1794
I01
sg1795
I00
sg627
I567
sb(dp5044
g1794
I01
sg129
g785
sssg328
g329
sg330
g329
sg331
(dp5045
g5038
(dp5046
sg5041
(dp5047
g5038
(dp5048
g129
g776
ssssg525
g5045
sg140
(dp5049
sg527
g329
sg528
g5045
sg529
(dp5050
g5038
(dp5051
g5041
g5048
ssg5041
(dp5052
ssbsg622
(lp5053
g5041
ag5038
asg895
(lp5054
(iconstruction
TP_REL
p5055
(dp5056
g901
g5038
sg129
g776
sg627
I569
sg902
g5041
sg110
VIS_569
p5057
sbasg627
I564
sg110
g1714
sbsg1809
(iconstruction
TP_SYNFORM
p5058
(dp5059
g627
I565
sg1812
(lp5060
(iconstruction
TP_PHON
p5061
(dp5062
g1822
I4
sg1819
I0
sg627
I570
sg1823
Vhook
p5063
sg110
g5029
sbasg110
g1714
sbsg1830
I1
sba(iconstruction
CXN
p5064
(dp5065
g1772
(iconstruction
TP_SYMLINKS
p5066
(dp5067
g1775
(dp5068
VN1_575
p5069
VS1_577
p5070
ssg627
I573
sg110
g1714
sbsg1781
VN
p5071
sg1783
I1
sg110
VBOOKSHELF
p5072
sg1784
(iconstruction
TP_SEMFRAME
p5073
(dp5074
g140
g0
(g141
g2
Ntp5075
Rp5076
(dp5077
g145
(dp5078
(iconstruction
TP_NODE
p5079
(dp5080
g1793
I01
sg129
g785
sg110
VENT_574
p5081
sg1794
I01
sg1795
I00
sg627
I574
sb(dp5082
g1794
I01
sg129
g785
ss(iconstruction
TP_NODE
p5083
(dp5084
g1793
I00
sg129
g821
sg110
g5069
sg1794
I00
sg1795
I00
sg627
I575
sb(dp5085
g1794
I00
sg129
g821
sssg328
g329
sg330
g329
sg331
(dp5086
g5079
(dp5087
g5083
(dp5088
g129
g776
sssg5083
(dp5089
ssg525
g5086
sg140
(dp5090
sg527
g329
sg528
g5086
sg529
(dp5091
g5079
(dp5092
sg5083
(dp5093
g5079
g5088
sssbsg622
(lp5094
g5079
ag5083
asg895
(lp5095
(iconstruction
TP_REL
p5096
(dp5097
g901
g5083
sg129
g776
sg627
I576
sg902
g5079
sg110
VIS_576
p5098
sbasg627
I571
sg110
g1714
sbsg1809
(iconstruction
TP_SYNFORM
p5099
(dp5100
g627
I572
sg1812
(lp5101
(iconstruction
TP_PHON
p5102
(dp5103
g1822
I9
sg1819
I0
sg627
I577
sg1823
Vbookshelf
p5104
sg110
g5070
sbasg110
g1714
sbsg1830
I1
sba(iconstruction
CXN
p5105
(dp5106
g1772
(iconstruction
TP_SYMLINKS
p5107
(dp5108
g1775
(dp5109
VN1_582
p5110
VS1_584
p5111
ssg627
I580
sg110
g1714
sbsg1781
VN
p5112
sg1783
I1
sg110
VWAGON
p5113
sg1784
(iconstruction
TP_SEMFRAME
p5114
(dp5115
g140
g0
(g141
g2
Ntp5116
Rp5117
(dp5118
g145
(dp5119
(iconstruction
TP_NODE
p5120
(dp5121
g1793
I00
sg129
g803
sg110
g5110
sg1794
I00
sg1795
I00
sg627
I582
sb(dp5122
g1794
I00
sg129
g803
ss(iconstruction
TP_NODE
p5123
(dp5124
g1793
I01
sg129
g785
sg110
VENT_581
p5125
sg1794
I01
sg1795
I00
sg627
I581
sb(dp5126
g1794
I01
sg129
g785
sssg328
g329
sg330
g329
sg331
(dp5127
g5120
(dp5128
sg5123
(dp5129
g5120
(dp5130
g129
g776
ssssg525
g5127
sg140
(dp5131
sg527
g329
sg528
g5127
sg529
(dp5132
g5120
(dp5133
g5123
g5130
ssg5123
(dp5134
ssbsg622
(lp5135
g5123
ag5120
asg895
(lp5136
(iconstruction
TP_REL
p5137
(dp5138
g901
g5120
sg129
g776
sg627
I583
sg902
g5123
sg110
VIS_583
p5139
sbasg627
I578
sg110
g1714
sbsg1809
(iconstruction
TP_SYNFORM
p5140
(dp5141
g627
I579
sg1812
(lp5142
(iconstruction
TP_PHON
p5143
(dp5144
g1822
I5
sg1819
I0
sg627
I584
sg1823
Vwagon
p5145
sg110
g5111
sbasg110
g1714
sbsg1830
I1
sba(iconstruction
CXN
p5146
(dp5147
g1772
(iconstruction
TP_SYMLINKS
p5148
(dp5149
g1775
(dp5150
VN1_589
p5151
VS1_591
p5152
ssg627
I587
sg110
g1714
sbsg1781
VN
p5153
sg1783
I1
sg110
VTREE
p5154
sg1784
(iconstruction
TP_SEMFRAME
p5155
(dp5156
g140
g0
(g141
g2
Ntp5157
Rp5158
(dp5159
g145
(dp5160
(iconstruction
TP_NODE
p5161
(dp5162
g1793
I00
sg129
g812
sg110
g5151
sg1794
I00
sg1795
I00
sg627
I589
sb(dp5163
g1794
I00
sg129
g812
ss(iconstruction
TP_NODE
p5164
(dp5165
g1793
I01
sg129
g785
sg110
VENT_588
p5166
sg1794
I01
sg1795
I00
sg627
I588
sb(dp5167
g1794
I01
sg129
g785
sssg328
g329
sg330
g329
sg331
(dp5168
g5161
(dp5169
sg5164
(dp5170
g5161
(dp5171
g129
g776
ssssg525
g5168
sg140
(dp5172
sg527
g329
sg528
g5168
sg529
(dp5173
g5161
(dp5174
g5164
g5171
ssg5164
(dp5175
ssbsg622
(lp5176
g5164
ag5161
asg895
(lp5177
(iconstruction
TP_REL
p5178
(dp5179
g901
g5161
sg129
g776
sg627
I590
sg902
g5164
sg110
VIS_590
p5180
sbasg627
I585
sg110
g1714
sbsg1809
(iconstruction
TP_SYNFORM
p5181
(dp5182
g627
I586
sg1812
(lp5183
(iconstruction
TP_PHON
p5184
(dp5185
g1822
I4
sg1819
I0
sg627
I591
sg1823
Vtree
p5186
sg110
g5152
sbasg110
g1714
sbsg1830
I1
sbasbsg110
g1727
sg112
(lp5187
g0
(g114
g2
Ntp5188
Rp5189
(dp5190
g1616
Nsg110
g1622
sg119
Nsg120
Nsg1618
Nsg337
g1561
sg627
I20
sg1562
g1833
sbag0
(g114
g2
Ntp5191
Rp5192
(dp5193
g110
S'to_cxn_retrieval_C'
p5194
sg119
Nsg120
g1764
sg337
g1561
sg627
I21
sg1562
g1833
sbasg1567
(dp5195
g1622
Nsg5194
Nssg1569
(lp5196
sg1572
F1.0
sg1573
(lp5197
sg1575
(dp5198
g1200
F0.3
ssg1577
I0
sg1578
I0
sg1198
g1581
sg627
I4
sS'schemas'
p5199
g1764
sbsg1200
F0.3
sbag0
(g1765
g2
Ntp5200
Rp5201
(dp5202
g110
g1851
sg127
g1841
sg1198
Nsg627
I100
sg1199
g1833
sg1200
F0.3
sbag0
(g1765
g2
Ntp5203
Rp5204
(dp5205
g110
g1902
sg127
g1892
sg1198
Nsg627
I101
sg1199
g1833
sg1200
F0.3
sbag0
(g1765
g2
Ntp5206
Rp5207
(dp5208
g110
g1955
sg127
g1943
sg1198
Nsg627
I102
sg1199
g1833
sg1200
F0.3
sbag0
(g1765
g2
Ntp5209
Rp5210
(dp5211
g110
g2034
sg127
g2022
sg1198
Nsg627
I103
sg1199
g1833
sg1200
F0.3
sbag0
(g1765
g2
Ntp5212
Rp5213
(dp5214
g110
g2109
sg127
g2097
sg1198
Nsg627
I104
sg1199
g1833
sg1200
F0.3
sbag0
(g1765
g2
Ntp5215
Rp5216
(dp5217
g110
g2198
sg127
g2184
sg1198
Nsg627
I105
sg1199
g1833
sg1200
F0.3
sbag0
(g1765
g2
Ntp5218
Rp5219
(dp5220
g110
g2289
sg127
g2275
sg1198
Nsg627
I106
sg1199
g1833
sg1200
F0.3
sbag0
(g1765
g2
Ntp5221
Rp5222
(dp5223
g110
g2380
sg127
g2370
sg1198
Nsg627
I107
sg1199
g1833
sg1200
F0.3
sbag0
(g1765
g2
Ntp5224
Rp5225
(dp5226
g110
g2442
sg127
g2432
sg1198
Nsg627
I108
sg1199
g1833
sg1200
F0.3
sbag0
(g1765
g2
Ntp5227
Rp5228
(dp5229
g110
g2501
sg127
g2491
sg1198
Nsg627
I109
sg1199
g1833
sg1200
F0.3
sbag0
(g1765
g2
Ntp5230
Rp5231
(dp5232
g110
g2553
sg127
g2543
sg1198
Nsg627
I110
sg1199
g1833
sg1200
F0.3
sbag0
(g1765
g2
Ntp5233
Rp5234
(dp5235
g110
g2600
sg127
g2590
sg1198
Nsg627
I111
sg1199
g1833
sg1200
F0.3
sbag0
(g1765
g2
Ntp5236
Rp5237
(dp5238
g110
g2649
sg127
g2637
sg1198
Nsg627
I112
sg1199
g1833
sg1200
F0.3
sbag0
(g1765
g2
Ntp5239
Rp5240
(dp5241
g110
g2729
sg127
g2719
sg1198
Nsg627
I113
sg1199
g1833
sg1200
F0.3
sbag0
(g1765
g2
Ntp5242
Rp5243
(dp5244
g110
g2797
sg127
g2785
sg1198
Nsg627
I114
sg1199
g1833
sg1200
F0.3
sbag0
(g1765
g2
Ntp5245
Rp5246
(dp5247
g110
g2891
sg127
g2879
sg1198
Nsg627
I115
sg1199
g1833
sg1200
F0.3
sbag0
(g1765
g2
Ntp5248
Rp5249
(dp5250
g110
g2973
sg127
g2961
sg1198
Nsg627
I116
sg1199
g1833
sg1200
F0.3
sbag0
(g1765
g2
Ntp5251
Rp5252
(dp5253
g110
g3065
sg127
g3055
sg1198
Nsg627
I117
sg1199
g1833
sg1200
F0.3
sbag0
(g1765
g2
Ntp5254
Rp5255
(dp5256
g110
g3130
sg127
g3120
sg1198
Nsg627
I118
sg1199
g1833
sg1200
F0.3
sbag0
(g1765
g2
Ntp5257
Rp5258
(dp5259
g110
g3209
sg127
g3201
sg1198
Nsg627
I119
sg1199
g1833
sg1200
F0.3
sbag0
(g1765
g2
Ntp5260
Rp5261
(dp5262
g110
g3250
sg127
g3242
sg1198
Nsg627
I120
sg1199
g1833
sg1200
F0.3
sbag0
(g1765
g2
Ntp5263
Rp5264
(dp5265
g110
g3291
sg127
g3283
sg1198
Nsg627
I121
sg1199
g1833
sg1200
F0.3
sbag0
(g1765
g2
Ntp5266
Rp5267
(dp5268
g110
g3332
sg127
g3324
sg1198
Nsg627
I122
sg1199
g1833
sg1200
F0.3
sbag0
(g1765
g2
Ntp5269
Rp5270
(dp5271
g110
g3373
sg127
g3365
sg1198
Nsg627
I123
sg1199
g1833
sg1200
F0.3
sbag0
(g1765
g2
Ntp5272
Rp5273
(dp5274
g110
g3414
sg127
g3406
sg1198
Nsg627
I124
sg1199
g1833
sg1200
F0.3
sbag0
(g1765
g2
Ntp5275
Rp5276
(dp5277
g110
g3455
sg127
g3447
sg1198
Nsg627
I125
sg1199
g1833
sg1200
F0.3
sbag0
(g1765
g2
Ntp5278
Rp5279
(dp5280
g110
g3500
sg127
g3492
sg1198
Nsg627
I126
sg1199
g1833
sg1200
F0.3
sbag0
(g1765
g2
Ntp5281
Rp5282
(dp5283
g110
g3545
sg127
g3537
sg1198
Nsg627
I127
sg1199
g1833
sg1200
F0.3
sbag0
(g1765
g2
Ntp5284
Rp5285
(dp5286
g110
g3586
sg127
g3578
sg1198
Nsg627
I128
sg1199
g1833
sg1200
F0.3
sbag0
(g1765
g2
Ntp5287
Rp5288
(dp5289
g110
g3627
sg127
g3619
sg1198
Nsg627
I129
sg1199
g1833
sg1200
F0.3
sbag0
(g1765
g2
Ntp5290
Rp5291
(dp5292
g110
g3668
sg127
g3660
sg1198
Nsg627
I130
sg1199
g1833
sg1200
F0.3
sbag0
(g1765
g2
Ntp5293
Rp5294
(dp5295
g110
g3709
sg127
g3701
sg1198
Nsg627
I131
sg1199
g1833
sg1200
F0.3
sbag0
(g1765
g2
Ntp5296
Rp5297
(dp5298
g110
g3750
sg127
g3742
sg1198
Nsg627
I132
sg1199
g1833
sg1200
F0.3
sbag0
(g1765
g2
Ntp5299
Rp5300
(dp5301
g110
g3791
sg127
g3783
sg1198
Nsg627
I133
sg1199
g1833
sg1200
F0.3
sbag0
(g1765
g2
Ntp5302
Rp5303
(dp5304
g110
g3822
sg127
g3814
sg1198
Nsg627
I134
sg1199
g1833
sg1200
F0.3
sbag0
(g1765
g2
Ntp5305
Rp5306
(dp5307
g110
g3853
sg127
g3845
sg1198
Nsg627
I135
sg1199
g1833
sg1200
F0.3
sbag0
(g1765
g2
Ntp5308
Rp5309
(dp5310
g110
g3884
sg127
g3876
sg1198
Nsg627
I136
sg1199
g1833
sg1200
F0.3
sbag0
(g1765
g2
Ntp5311
Rp5312
(dp5313
g110
g3915
sg127
g3907
sg1198
Nsg627
I137
sg1199
g1833
sg1200
F0.3
sbag0
(g1765
g2
Ntp5314
Rp5315
(dp5316
g110
g3946
sg127
g3938
sg1198
Nsg627
I138
sg1199
g1833
sg1200
F0.3
sbag0
(g1765
g2
Ntp5317
Rp5318
(dp5319
g110
g3977
sg127
g3969
sg1198
Nsg627
I139
sg1199
g1833
sg1200
F0.3
sbag0
(g1765
g2
Ntp5320
Rp5321
(dp5322
g110
g4008
sg127
g4000
sg1198
Nsg627
I140
sg1199
g1833
sg1200
F0.3
sbag0
(g1765
g2
Ntp5323
Rp5324
(dp5325
g110
g4039
sg127
g4031
sg1198
Nsg627
I141
sg1199
g1833
sg1200
F0.3
sbag0
(g1765
g2
Ntp5326
Rp5327
(dp5328
g110
g4080
sg127
g4072
sg1198
Nsg627
I142
sg1199
g1833
sg1200
F0.3
sbag0
(g1765
g2
Ntp5329
Rp5330
(dp5331
g110
g4121
sg127
g4113
sg1198
Nsg627
I143
sg1199
g1833
sg1200
F0.3
sbag0
(g1765
g2
Ntp5332
Rp5333
(dp5334
g110
g4162
sg127
g4154
sg1198
Nsg627
I144
sg1199
g1833
sg1200
F0.3
sbag0
(g1765
g2
Ntp5335
Rp5336
(dp5337
g110
g4203
sg127
g4195
sg1198
Nsg627
I145
sg1199
g1833
sg1200
F0.3
sbag0
(g1765
g2
Ntp5338
Rp5339
(dp5340
g110
g4244
sg127
g4236
sg1198
Nsg627
I146
sg1199
g1833
sg1200
F0.3
sbag0
(g1765
g2
Ntp5341
Rp5342
(dp5343
g110
g4285
sg127
g4277
sg1198
Nsg627
I147
sg1199
g1833
sg1200
F0.3
sbag0
(g1765
g2
Ntp5344
Rp5345
(dp5346
g110
g4326
sg127
g4318
sg1198
Nsg627
I148
sg1199
g1833
sg1200
F0.3
sbag0
(g1765
g2
Ntp5347
Rp5348
(dp5349
g110
g4367
sg127
g4359
sg1198
Nsg627
I149
sg1199
g1833
sg1200
F0.3
sbag0
(g1765
g2
Ntp5350
Rp5351
(dp5352
g110
g4408
sg127
g4400
sg1198
Nsg627
I150
sg1199
g1833
sg1200
F0.3
sbag0
(g1765
g2
Ntp5353
Rp5354
(dp5355
g110
g4449
sg127
g4441
sg1198
Nsg627
I151
sg1199
g1833
sg1200
F0.3
sbag0
(g1765
g2
Ntp5356
Rp5357
(dp5358
g110
g4494
sg127
g4486
sg1198
Nsg627
I152
sg1199
g1833
sg1200
F0.3
sbag0
(g1765
g2
Ntp5359
Rp5360
(dp5361
g110
g4535
sg127
g4527
sg1198
Nsg627
I153
sg1199
g1833
sg1200
F0.3
sbag0
(g1765
g2
Ntp5362
Rp5363
(dp5364
g110
g4576
sg127
g4568
sg1198
Nsg627
I154
sg1199
g1833
sg1200
F0.3
sbag0
(g1765
g2
Ntp5365
Rp5366
(dp5367
g110
g4617
sg127
g4609
sg1198
Nsg627
I155
sg1199
g1833
sg1200
F0.3
sbag0
(g1765
g2
Ntp5368
Rp5369
(dp5370
g110
g4658
sg127
g4650
sg1198
Nsg627
I156
sg1199
g1833
sg1200
F0.3
sbag0
(g1765
g2
Ntp5371
Rp5372
(dp5373
g110
g4699
sg127
g4691
sg1198
Nsg627
I157
sg1199
g1833
sg1200
F0.3
sbag0
(g1765
g2
Ntp5374
Rp5375
(dp5376
g110
g4744
sg127
g4736
sg1198
Nsg627
I158
sg1199
g1833
sg1200
F0.3
sbag0
(g1765
g2
Ntp5377
Rp5378
(dp5379
g110
g4785
sg127
g4777
sg1198
Nsg627
I159
sg1199
g1833
sg1200
F0.3
sbag0
(g1765
g2
Ntp5380
Rp5381
(dp5382
g110
g4826
sg127
g4818
sg1198
Nsg627
I160
sg1199
g1833
sg1200
F0.3
sbag0
(g1765
g2
Ntp5383
Rp5384
(dp5385
g110
g4867
sg127
g4859
sg1198
Nsg627
I161
sg1199
g1833
sg1200
F0.3
sbag0
(g1765
g2
Ntp5386
Rp5387
(dp5388
g110
g4908
sg127
g4900
sg1198
Nsg627
I162
sg1199
g1833
sg1200
F0.3
sbag0
(g1765
g2
Ntp5389
Rp5390
(dp5391
g110
g4949
sg127
g4941
sg1198
Nsg627
I163
sg1199
g1833
sg1200
F0.3
sbag0
(g1765
g2
Ntp5392
Rp5393
(dp5394
g110
g4990
sg127
g4982
sg1198
Nsg627
I164
sg1199
g1833
sg1200
F0.3
sbag0
(g1765
g2
Ntp5395
Rp5396
(dp5397
g110
g5031
sg127
g5023
sg1198
Nsg627
I165
sg1199
g1833
sg1200
F0.3
sbag0
(g1765
g2
Ntp5398
Rp5399
(dp5400
g110
g5072
sg127
g5064
sg1198
Nsg627
I166
sg1199
g1833
sg1200
F0.3
sbag0
(g1765
g2
Ntp5401
Rp5402
(dp5403
g110
g5113
sg127
g5105
sg1198
Nsg627
I167
sg1199
g1833
sg1200
F0.3
sbag0
(g1765
g2
Ntp5404
Rp5405
(dp5406
g110
g5154
sg127
g5146
sg1198
Nsg627
I168
sg1199
g1833
sg1200
F0.3
sbasg1618
Nsg337
g1597
sg627
I22
sg1562
g1749
sbag1744
asg1575
(dp5407
sg1577
I0
sg1578
I0
sg1198
g1581
sg627
I5
sbsbsS'port_from'
p5408
g1620
sg1198
g1581
sg627
I1
sbag0
(g1736
g2
Ntp5409
Rp5410
(dp5411
g1740
I0
sg110
g1714
sg1741
I0
sg1742
g1762
sg5408
g5189
sg1198
g1581
sg627
I2
sbag0
(g1736
g2
Ntp5412
Rp5413
(dp5414
g1740
I0
sg110
g1714
sg1741
I0
sg1742
g0
(g114
g2
Ntp5415
Rp5416
(dp5417
g1616
Nsg110
S'from_cxn_retrieval_P'
p5418
sg119
Nsg120
Nsg1618
Nsg337
g1597
sg627
I14
sg1562
g0
(clanguage_schemas
GRAMMATICAL_WM_P
p5419
g2
Ntp5420
Rp5421
(dp5422
g108
(dp5423
g5418
NsS'from_phonological_WM_P'
p5424
Nsg1746
Nsg1605
Nssg1607
(lp5425
sg110
g1723
sg1610
(lp5426
sg112
(lp5427
g0
(g114
g2
Ntp5428
Rp5429
(dp5430
g1616
Nsg110
g1566
sg119
Nsg120
Nsg1618
Nsg337
g1561
sg627
I17
sg1562
g5421
sbag0
(g114
g2
Ntp5431
Rp5432
(dp5433
g1616
Nsg110
S'to_phonological_WM_P'
p5434
sg119
Nsg120
Nsg1618
Nsg337
g1561
sg627
I18
sg1562
g5421
sbag0
(g114
g2
Ntp5435
Rp5436
(dp5437
g110
g1634
sg119
Nsg120
Nsg337
g1561
sg627
I19
sg1562
g5421
sbasg1567
(dp5438
g1634
Nsg5434
Nsg1566
NssS'time_to_next_prod'
p5439
I8
sg1572
F1.0
sg1636
(lp5440
sg1573
(lp5441
g0
(g114
g2
Ntp5442
Rp5443
(dp5444
g1616
Nsg110
g1746
sg119
Nsg120
(dp5445
g622
(dp5446
sg895
(dp5447
ssg1618
Nsg337
g1597
sg627
I13
sg1562
g5421
sbag5416
ag0
(g114
g2
Ntp5448
Rp5449
(dp5450
g1616
Nsg110
g1605
sg119
Nsg120
(dp5451
S'params_style'
p5452
(dp5453
S'continuity'
p5454
F0.3
sS'form_length'
p5455
F0.0
sS'sem_length'
p5456
F0.0
sS'activation'
p5457
F0.7
ssS'pressure'
p5458
I0
sg1651
I00
ssg1618
Nsg337
g1597
sg627
I15
sg1562
g5421
sbag0
(g114
g2
Ntp5459
Rp5460
(dp5461
g1616
Nsg110
g5424
sg119
Nsg120
(lp5462
g4153
ag2164
ag3282
ag2173
ag2177
ag4030
ag4071
asg1618
Nsg337
g1597
sg627
I16
sg1562
g5421
sbasS'refractory_period'
p5463
I10
sg1652
(dp5464
g1654
(dp5465
sg1656
(dp5466
g1658
(lp5467
sg1660
(dp5468
g1662
(lp5469
sg1664
(lp5470
sg1666
(lp5471
ssg1668
(lp5472
sg1577
(lp5473
sg1671
(lp5474
sssg1575
(dp5475
g1674
(dp5476
g1680
F1.0
sg1681
F1.0
sS'sub_threshold_r'
p5477
F0.8
sg1683
F0.0
sS'deact_weight'
p5478
F0.0
sg1682
F0.3
sg1684
F0.01
sg5463
I10
sg1676
F1.0
sg1677
Nsg1678
F-10.0
sg1679
F1.0
ssg1685
(dp5479
g1687
I100
sg1688
I10
sg1689
F0.001
sg1690
F0.0
sg1691
F1.0
sg1692
F1.0
sg1693
F1.0
ssS'style'
p5480
(dp5481
g5454
F0.3
sg5455
F0.0
sg5456
F0.0
sg5457
F0.7
sssg1577
I0
sg1578
I0
sg1198
g1581
sg627
I3
sbsbsg5408
g1755
sg1198
g1581
sg627
I3
sbag0
(g1736
g2
Ntp5482
Rp5483
(dp5484
g1740
I0
sg110
g1714
sg1741
I0
sg1742
g5443
sg5408
g1614
sg1198
g1581
sg627
I4
sbag0
(g1736
g2
Ntp5485
Rp5486
(dp5487
g1740
I0
sg110
g1714
sg1741
I0
sg1742
g1646
sg5408
g5429
sg1198
g1581
sg627
I5
sbag0
(g1736
g2
Ntp5488
Rp5489
(dp5490
g1740
I0
sg110
g1714
sg1741
I0
sg1742
g0
(g114
g2
Ntp5491
Rp5492
(dp5493
g1616
Nsg110
g1603
sg119
Nsg120
Nsg1618
Nsg337
g1597
sg627
I25
sg1562
g0
(clanguage_schemas
PHON_WM_P
p5494
g2
Ntp5495
Rp5496
(dp5497
g108
(dp5498
g1603
Nssg1607
(lp5499
sg110
g1719
sg1610
(lp5500
sg112
(lp5501
g0
(g114
g2
Ntp5502
Rp5503
(dp5504
g1616
Nsg110
S'to_utter'
p5505
sg119
Nsg120
Nsg1618
Nsg337
g1561
sg627
I26
sg1562
g5496
sbag0
(g114
g2
Ntp5506
Rp5507
(dp5508
g1616
Nsg110
g1617
sg119
Nsg120
Nsg1618
Nsg337
g1561
sg627
I27
sg1562
g5496
sbag0
(g114
g2
Ntp5509
Rp5510
(dp5511
g1616
Nsg110
g1626
sg119
Nsg120
Nsg1618
Nsg337
g1561
sg627
I28
sg1562
g5496
sbag0
(g114
g2
Ntp5512
Rp5513
(dp5514
g110
g1634
sg119
Nsg120
Nsg337
g1561
sg627
I29
sg1562
g5496
sbasg1567
(dp5515
g1634
Nsg1617
Nsg5505
Nsg1626
NssS'needs_filler'
p5516
I01
sg1572
F1.0
sg1636
(lp5517
sg1573
(lp5518
g5492
asS'filler'
p5519
S'....'
p5520
sg1652
(dp5521
g1654
(dp5522
sg1656
(dp5523
g1658
(lp5524
sg1660
(dp5525
g1662
(lp5526
sg1664
(lp5527
sg1666
(lp5528
ssg1668
(lp5529
sg1577
(lp5530
sg1671
(lp5531
sssg1575
(dp5532
g1674
(dp5533
g1676
F1.0
sg1677
Nsg1678
F0.0
sg1679
F1.0
sg1680
F1.0
sg1681
F0.0
sg1682
F0.0
sg1683
F0.0
sg1684
F0.01
ssg1685
(dp5534
g1687
F100.0
sg1688
F10.0
sg1689
F0.001
sg1690
F0.0
sg1691
F1.0
sg1692
F1.0
sg1693
F1.0
sssg1577
I0
sg1578
I0
sg1198
g1581
sS'phon_sequence'
p5535
(lp5536
sg627
I6
sbsbsg5408
g5432
sg1198
g1581
sg627
I6
sbag0
(g1736
g2
Ntp5537
Rp5538
(dp5539
g1740
I0
sg110
g1714
sg1741
I0
sg1742
g5460
sg5408
g5507
sg1198
g1581
sg627
I7
sbag0
(g1736
g2
Ntp5540
Rp5541
(dp5542
g1740
I0
sg110
g1714
sg1741
I0
sg1742
g0
(g114
g2
Ntp5543
Rp5544
(dp5545
g1616
Nsg110
g1746
sg119
Nsg120
I00
sg1618
Nsg337
g1597
sg627
I32
sg1562
g0
(clanguage_schemas
CONTROL
p5546
g2
Ntp5547
Rp5548
(dp5549
g108
(dp5550
g5424
Nsg1746
Nssg110
g1709
sg112
(lp5551
g0
(g114
g2
Ntp5552
Rp5553
(dp5554
g1616
Nsg110
g1566
sg119
Nsg120
Nsg1618
Nsg337
g1561
sg627
I34
sg1562
g5548
sbag0
(g114
g2
Ntp5555
Rp5556
(dp5557
g1616
Nsg110
g1617
sg119
Nsg120
Nsg1618
Nsg337
g1561
sg627
I35
sg1562
g5548
sbag0
(g114
g2
Ntp5558
Rp5559
(dp5560
g110
S'to_grammatical_WM_C'
p5561
sg119
Nsg120
I00
sg337
g1561
sg627
I36
sg1562
g5548
sbasg1567
(dp5562
g1617
Nsg5561
Nsg1566
Nssg1572
F1.0
sg1573
(lp5563
g5544
ag0
(g114
g2
Ntp5564
Rp5565
(dp5566
g1616
Nsg110
g5424
sg119
Nsg120
Nsg1618
Nsg337
g1597
sg627
I33
sg1562
g5548
sbasS'state'
p5567
(dp5568
g1651
I00
sS'unexpressed_sem'
p5569
I00
sS'mode'
p5570
g1651
sS'last_prod_time'
p5571
I0
ssg1575
(dp5572
g5480
(dp5573
g5454
F0.3
sg5455
F0.0
sg5457
F0.7
sg5456
F0.0
ssS'task'
p5574
(dp5575
S'time_pressure'
p5576
cnumpy.core.multiarray
scalar
p5577
(cnumpy
dtype
p5578
(S'f8'
p5579
I0
I1
tp5580
Rp5581
(I3
S'<'
p5582
NNNI-1
I-1
I0
tp5583
bS'\x00\x00\x00\x00\x00@\x8f@'
p5584
tp5585
Rp5586
sS'start_produce'
p5587
I1
sssg1577
I0
sg1578
I0
sg1198
g1581
sg627
I8
sbsbsg5408
g1624
sg1198
g1581
sg627
I8
sbag0
(g1736
g2
Ntp5588
Rp5589
(dp5590
g1740
I0
sg110
g1714
sg1741
I0
sg1742
g0
(g114
g2
Ntp5591
Rp5592
(dp5593
g1616
Nsg110
g5424
sg119
Nsg120
Nsg1618
Nsg337
g1597
sg627
I30
sg1562
g0
(clanguage_schemas
UTTER
p5594
g2
Ntp5595
Rp5596
(dp5597
g108
(dp5598
g5424
Nssg110
g1712
sg112
(lp5599
g0
(g114
g2
Ntp5600
Rp5601
(dp5602
g110
g1634
sg119
Nsg120
Nsg337
g1561
sg627
I31
sg1562
g5596
sbasg1567
(dp5603
g1634
NssS'utterance_stack'
p5604
(lp5605
sg1572
F1.0
sg1573
(lp5606
g5592
asg1575
(dp5607
S'speech_rate'
p5608
F1.0
ssg1577
I0
sg1578
I0
sg1198
g1581
sg627
I7
sbsbsg5408
g5503
sg1198
g1581
sg627
I9
sbag0
(g1736
g2
Ntp5609
Rp5610
(dp5611
g1740
I0
sg110
g1714
sg1741
I0
sg1742
g5565
sg5408
g5510
sg1198
g1581
sg627
I10
sbag0
(g1736
g2
Ntp5612
Rp5613
(dp5614
g1740
I0
sg110
g1714
sg1741
I0
sg1742
g5449
sg5408
g5556
sg1198
g1581
sg627
I11
sbag0
(g1736
g2
Ntp5615
Rp5616
(dp5617
g1740
I0
sg110
g1714
sg1741
I0
sg1742
g1649
sg5408
g5553
sg1198
g1581
sg627
I12
sbasg1575
(dp5618
g1709
g5572
sg1719
g5532
sg111
g1576
sg1727
g5198
sg1731
g5407
sg1609
g1673
sg1712
g5607
sg1723
g5475
ssg1577
F0.0
sS'set_up_time'
p5619
I10
sS'input'
p5620
NsS'default_params'
p5621
Nsg1572
F1.0
sS'output_ports'
p5622
(lp5623
g5601
ag5513
ag5436
ag1632
asg5199
(dp5624
g1709
g5548
sg1719
g5496
sg111
g106
sg1731
g1749
sg1723
g5421
sg1609
g1600
sg1712
g5596
sg1727
g1833
ssbsg627
I2
sg5199
g121
sbsbsb.