ccopy_reg
_reconstructor
p0
(cschema_theory
MODEL
p1
c__builtin__
object
p2
Ntp3
Rp4
(dp5
S'verbose'
p6
I00
sS'name'
p7
S'language_system_P'
p8
sS'sim_data'
p9
(dp10
S'system_states'
p11
(dp12
sS'model'
p13
(dp14
ssS'outputs'
p15
(dp16
sS'input_ports'
p17
(lp18
g0
(cschema_theory
PORT
p19
g2
Ntp20
Rp21
(dp22
g7
S'from_conceptualizer'
p23
sS'data'
p24
NsS'value'
p25
NsS'type'
p26
S'IN'
p27
sS'id'
p28
I1
sS'schema'
p29
g0
(clanguage_schemas
SEMANTIC_WM
p30
g2
Ntp31
Rp32
(dp33
S'inputs'
p34
(dp35
S'from_grammatical_WM_P'
p36
NsS'from_concept_LTM'
p37
NsS'from_control'
p38
NsS'from_grammatical_WM_C'
p39
Nsg23
NssS'schema_insts'
p40
(lp41
sg7
S'Semantic_WM'
p42
sS'comp_links'
p43
(lp44
sS'out_ports'
p45
(lp46
g0
(g19
g2
Ntp47
Rp48
(dp49
g7
S'to_grammatical_WM_P'
p50
sg24
Nsg25
Nsg26
S'OUT'
p51
sg28
I6
sg29
g32
sbag0
(g19
g2
Ntp52
Rp53
(dp54
g7
S'to_cxn_retrieval_P'
p55
sg24
Nsg25
Nsg26
g51
sg28
I7
sg29
g32
sbag0
(g19
g2
Ntp56
Rp57
(dp58
g7
S'to_control'
p59
sg24
Nsg25
Nsg26
g51
sg28
I8
sg29
g32
sbag0
(g19
g2
Ntp60
Rp61
(dp62
g7
S'to_visual_WM'
p63
sg24
Nsg25
Nsg26
g51
sg28
I9
sg29
g32
sbag0
(g19
g2
Ntp64
Rp65
(dp66
g7
S'to_output'
p67
sg24
Nsg25
Nsg26
g51
sg28
I10
sg29
g32
sbasg15
(dp68
g67
Nsg50
Nsg63
Nsg55
Nsg59
NssS'dt'
p69
F1.0
sS'coop_links'
p70
(lp71
sS'in_ports'
p72
(lp73
g21
ag0
(g19
g2
Ntp74
Rp75
(dp76
g7
g37
sg24
Nsg25
Nsg26
g27
sg28
I2
sg29
g32
sbag0
(g19
g2
Ntp77
Rp78
(dp79
g7
g39
sg24
Nsg25
Nsg26
g27
sg28
I3
sg29
g32
sbag0
(g19
g2
Ntp80
Rp81
(dp82
g7
g36
sg24
Nsg25
Nsg26
g27
sg28
I4
sg29
g32
sbag0
(g19
g2
Ntp83
Rp84
(dp85
g7
g38
sg24
Nsg25
Nsg26
g27
sg28
I5
sg29
g32
sbasS'save_state'
p86
(dp87
S'insts'
p88
(dp89
sS'WM_activity'
p90
(dp91
S'comp'
p92
(lp93
sS'c2_network'
p94
(dp95
S'num_insts'
p96
(lp97
sS'num_coop_links'
p98
(lp99
sS'num_comp_links'
p100
(lp101
ssS'coop'
p102
(lp103
sS't'
p104
(lp105
sS'act'
p106
(lp107
sssS'params'
p108
(dp109
S'C2'
p110
(dp111
S'P_comp'
p112
F1.0
sS'max_capacity'
p113
NsS'comp_weight'
p114
F0.0
sS'P_coop'
p115
F1.0
sS'coop_asymmetry'
p116
F1.0
sS'coop_weight'
p117
F0.0
sS'confidence_threshold'
p118
F0.0
sS'comp_asymmetry'
p119
F0.0
sS'prune_threshold'
p120
F0.01
ssS'dyn'
p121
(dp122
S'tau'
p123
F10000.0
sS'k'
p124
F10.0
sS'act_rest'
p125
F0.001
sS'noise_mean'
p126
F0.0
sS'noise_std'
p127
F1.0
sS'ext_weight'
p128
F1.0
sS'int_weight'
p129
F1.0
sssg104
F0.0
sS'activity'
p130
F0.0
sg13
g4
sS'SemRep'
p131
g0
(cnetworkx.classes.digraph
DiGraph
p132
g2
Ntp133
Rp134
(dp135
S'node'
p136
(dp137
sS'node_dict_factory'
p138
c__builtin__
dict
p139
sS'edge_attr_dict_factory'
p140
g139
sS'succ'
p141
(dp142
sS'edge'
p143
g142
sS'graph'
p144
(dp145
sS'adjlist_dict_factory'
p146
g139
sS'adj'
p147
g142
sS'pred'
p148
(dp149
sbsg28
I1
sbsbasS'brain_mapping'
p150
g0
(cschema_theory
BRAIN_MAPPING
p151
g2
Ntp152
Rp153
(dp154
S'schema_mapping'
p155
(dp156
S'Control'
p157
(lp158
S'DLPFC'
p159
asS'Utter'
p160
(lp161
S''
p162
asg42
(lp163
S'left_SFG'
p164
aS'LIP'
p165
aS'Hippocampus'
p166
asS'Phonological_WM_P'
p167
(lp168
S'left_BA6'
p169
asS'Concept_LTM'
p170
(lp171
g162
asS'Grammatical_WM_P'
p172
(lp173
S'left_BA45'
p174
aS'leftBA44'
p175
asS'Grammatical_LTM'
p176
(lp177
S'left_STG'
p178
aS'left_MTG'
p179
asS'Cxn_retrieval_P'
p180
(lp181
ssS'connect_mapping'
p182
(dp183
sbsS'connections'
p184
(lp185
g0
(cschema_theory
CONNECT
p186
g2
Ntp187
Rp188
(dp189
S'delay'
p190
I0
sg7
g162
sS'weight'
p191
I0
sS'port_to'
p192
g0
(g19
g2
Ntp193
Rp194
(dp195
g7
S'from_semantic_WM'
p196
sg24
Nsg25
Nsg26
g27
sg28
I23
sg29
g0
(clanguage_schemas
CXN_RETRIEVAL_P
p197
g2
Ntp198
Rp199
(dp200
g34
(dp201
g196
NsS'from_grammatical_LTM'
p202
Nssg7
g180
sg45
(lp203
g0
(g19
g2
Ntp204
Rp205
(dp206
g7
g50
sg24
Nsg25
Nsg26
g51
sg28
I24
sg29
g199
sbasg15
(dp207
g50
NssS'cxn_instances'
p208
(lp209
sg69
F1.0
sg72
(lp210
g0
(g19
g2
Ntp211
Rp212
(dp213
g7
g202
sg24
Nsg25
Nsg26
g27
sg28
I22
sg29
g199
sbag194
asg108
(dp214
sg104
F0.0
sg130
F0.0
sg13
g4
sg28
I5
sbsbsS'port_from'
p215
g53
sg13
g4
sg28
I1
sbag0
(g186
g2
Ntp216
Rp217
(dp218
g190
I0
sg7
g162
sg191
I0
sg192
g212
sg215
g0
(g19
g2
Ntp219
Rp220
(dp221
g7
g55
sg24
Nsg25
Nsg26
g51
sg28
I20
sg29
g0
(clanguage_schemas
GRAMMATICAL_LTM
p222
g2
Ntp223
Rp224
(dp225
g34
(dp226
sS'grammar'
p227
(iconstruction
GRAMMAR
p228
(dp229
S'constructions'
p230
(lp231
(iconstruction
CXN
p232
(dp233
S'SymLinks'
p234
(iconstruction
TP_SYMLINKS
p235
(dp236
S'SL'
p237
(dp238
VEVT1_4
p239
VS1_6
p240
sVEVT2_5
p241
VS3_8
p242
ssg28
I3
sg7
g162
sbsS'clss'
p243
VD
p244
sS'group'
p245
I3
sg7
VCNJ_AND
p246
sS'SemFrame'
p247
(iconstruction
TP_SEMFRAME
p248
(dp249
g144
g0
(g132
g2
Ntp250
Rp251
(dp252
g136
(dp253
(iconstruction
TP_NODE
p254
(dp255
S'head'
p256
I00
sS'concept'
p257
g0
(cconcept
CONCEPT
p258
g2
Ntp259
Rp260
(dp261
S'meaning'
p262
VEVENT
p263
sS'conceptual_knowledge'
p264
g0
(cconcept
CONCEPTUAL_KNOWLEDGE
p265
g2
Ntp266
Rp267
(dp268
g144
g0
(g132
g2
Ntp269
Rp270
(dp271
g136
(dp272
I1
(dp273
g262
S'?'
p274
ssI2
(dp275
g262
S'CONCEPT'
p276
ssI3
(dp277
g262
VACTION
p278
ssI4
(dp279
g262
VSYMMETRIC
p280
ssI5
(dp281
g262
VMEET
p282
ssI6
(dp283
g262
VSHAKE_HANDS
p284
ssI7
(dp285
g262
VINTRANSITIVE
p286
ssI8
(dp287
g262
VLAUGH
p288
ssI9
(dp289
g262
VTRANSITIVE
p290
ssI10
(dp291
g262
VHIT
p292
ssI11
(dp293
g262
VWATCH
p294
ssI12
(dp295
g262
VPUNCH
p296
ssI13
(dp297
g262
VSPLASH
p298
ssI14
(dp299
g262
VTALK
p300
ssI15
(dp301
g262
VKISS
p302
ssI16
(dp303
g262
VSQUIRT
p304
ssI17
(dp305
g262
VKICK
p306
ssI18
(dp307
g262
VWEAR
p308
ssI19
(dp309
g262
VDITRANSITIVE
p310
ssI20
(dp311
g262
VSEND
p312
ssI21
(dp313
g262
VGIVE
p314
ssI22
(dp315
g262
VPROPERTY
p316
ssI23
(dp317
g262
VCOLOR
p318
ssI24
(dp319
g262
VBLUE
p320
ssI25
(dp321
g262
VGREEN
p322
ssI26
(dp323
g262
VWHITE
p324
ssI27
(dp325
g262
VBLACK
p326
ssI28
(dp327
g262
VRED
p328
ssI29
(dp329
g262
VAPPEARANCE
p330
ssI30
(dp331
g262
VYOUNG
p332
ssI31
(dp333
g262
VPRETTY
p334
ssI32
(dp335
g262
VHANDSOME
p336
ssI33
(dp337
g262
VSIZE
p338
ssI34
(dp339
g262
VSMALL
p340
ssI35
(dp341
g262
VBIG
p342
ssI36
(dp343
g262
VRELATION
p344
ssI37
(dp345
g262
VACTION_FRAME
p346
ssI38
(dp347
g262
VMODIFY
p348
ssI39
(dp349
g262
VTHEME
p350
ssI40
(dp351
g262
VRECIPIENT
p352
ssI41
(dp353
g262
VATTR
p354
ssI42
(dp355
g262
VAGT_PT
p356
ssI43
(dp357
g262
VPATIENT
p358
ssI44
(dp359
g262
VAGT+PT
p360
ssI45
(dp361
g262
VAGENT
p362
ssI46
(dp363
g262
VEVENT_FRAME
p364
ssI47
(dp365
g262
VTEMPORAL
p366
ssI48
(dp367
g262
VCONCURRENT
p368
ssI49
(dp369
g262
VSUCCESSIVE
p370
ssI50
(dp371
g262
VSPATIAL
p372
ssI51
(dp373
g262
VIN
p374
ssI52
(dp375
g262
VIS
p376
ssI53
(dp377
g262
VOBJECT_FRAME
p378
ssI54
(dp379
g262
g263
ssI55
(dp380
g262
VENTITY
p381
ssI56
(dp382
g262
VANIMATE
p383
ssI57
(dp384
g262
VANIMAL
p385
ssI58
(dp386
g262
VHUMAN
p387
ssI59
(dp388
g262
VOBJECT
p389
ssI60
(dp390
g262
VITEM
p391
ssI61
(dp392
g262
VWAGON
p393
ssI62
(dp394
g262
VWATERING_CAN
p395
ssI63
(dp396
g262
VBAG
p397
ssI64
(dp398
g262
VTREE
p399
ssI65
(dp400
g262
VHOOK
p401
ssI66
(dp402
g262
VCELLO
p403
ssI67
(dp404
g262
VBOOKSHELF
p405
ssI68
(dp406
g262
VCLOTHING
p407
ssI69
(dp408
g262
VTSHIRT
p409
ssI70
(dp410
g262
VDRESS
p411
ssI71
(dp412
g262
VSHIRT
p413
ssI72
(dp414
g262
VSUIT
p415
ssI73
(dp416
g262
VTURTLE
p417
ssI74
(dp418
g262
VMOUSE
p419
ssI75
(dp420
g262
VDOG
p421
ssI76
(dp422
g262
VBOY
p423
ssI77
(dp424
g262
VWOMAN
p425
ssI78
(dp426
g262
VPEOPLE
p427
ssI79
(dp428
g262
VPOLICEMAN
p429
ssI80
(dp430
g262
VHUNTER
p431
ssI81
(dp432
g262
VBALLERINA
p433
ssI82
(dp434
g262
VCELLIST
p435
ssI83
(dp436
g262
VGIRL
p437
ssI84
(dp438
g262
VFENCER
p439
ssI85
(dp440
g262
VROBBER
p441
ssI86
(dp442
g262
VMAN
p443
ssI87
(dp444
g262
VPLACE
p445
ssI88
(dp446
g262
VBOXINGRING
p447
ssI89
(dp448
g262
VPARK
p449
ssI90
(dp450
g262
VMALE
p451
ssI91
(dp452
g262
VFEMALE
p453
sssg138
g139
sg140
g139
sg141
(dp454
I1
(dp455
sI2
(dp456
sI3
(dp457
I2
(dp458
g26
S'is_a'
p459
sssI4
(dp460
I3
(dp461
g26
g459
sssI5
(dp462
I4
(dp463
g26
g459
sssI6
(dp464
I4
(dp465
g26
g459
sssI7
(dp466
I3
(dp467
g26
g459
sssI8
(dp468
I7
(dp469
g26
g459
sssI9
(dp470
I3
(dp471
g26
g459
sssI10
(dp472
I9
(dp473
g26
g459
sssI11
(dp474
I9
(dp475
g26
g459
sssI12
(dp476
I9
(dp477
g26
g459
sssI13
(dp478
I9
(dp479
g26
g459
sssI14
(dp480
I9
(dp481
g26
g459
sssI15
(dp482
I9
(dp483
g26
g459
sssI16
(dp484
I9
(dp485
g26
g459
sssI17
(dp486
I9
(dp487
g26
g459
sssI18
(dp488
I9
(dp489
g26
g459
sssI19
(dp490
I3
(dp491
g26
g459
sssI20
(dp492
I19
(dp493
g26
g459
sssI21
(dp494
I19
(dp495
g26
g459
sssI22
(dp496
I2
(dp497
g26
g459
sssI23
(dp498
I22
(dp499
g26
g459
sssI24
(dp500
I23
(dp501
g26
g459
sssI25
(dp502
I23
(dp503
g26
g459
sssI26
(dp504
I23
(dp505
g26
g459
sssI27
(dp506
I23
(dp507
g26
g459
sssI28
(dp508
I23
(dp509
g26
g459
sssI29
(dp510
I22
(dp511
g26
g459
sssI30
(dp512
I29
(dp513
g26
g459
sssI31
(dp514
I29
(dp515
g26
g459
sssI32
(dp516
I29
(dp517
g26
g459
sssI33
(dp518
I22
(dp519
g26
g459
sssI34
(dp520
I33
(dp521
g26
g459
sssI35
(dp522
I33
(dp523
g26
g459
sssI36
(dp524
I2
(dp525
g26
g459
sssI37
(dp526
I36
(dp527
g26
g459
sssI38
(dp528
I37
(dp529
g26
g459
ssI53
(dp530
g26
g459
sssI39
(dp531
I37
(dp532
g26
g459
sssI40
(dp533
I37
(dp534
g26
g459
sssI41
(dp535
I37
(dp536
g26
g459
ssI53
(dp537
g26
g459
sssI42
(dp538
I37
(dp539
g26
g459
sssI43
(dp540
I42
(dp541
g26
g459
sssI44
(dp542
I43
(dp543
g26
g459
ssI45
(dp544
g26
g459
sssI45
(dp545
I42
(dp546
g26
g459
sssI46
(dp547
I36
(dp548
g26
g459
sssI47
(dp549
I46
(dp550
g26
g459
sssI48
(dp551
I47
(dp552
g26
g459
sssI49
(dp553
I47
(dp554
g26
g459
sssI50
(dp555
I46
(dp556
g26
g459
sssI51
(dp557
I50
(dp558
g26
g459
sssI52
(dp559
I36
(dp560
g26
g459
sssI53
(dp561
I36
(dp562
g26
g459
sssI54
(dp563
I2
(dp564
g26
g459
sssI55
(dp565
I2
(dp566
g26
g459
sssI56
(dp567
I55
(dp568
g26
g459
sssI57
(dp569
I56
(dp570
g26
g459
ssI59
(dp571
g26
g459
sssI58
(dp572
I56
(dp573
g26
g459
ssI59
(dp574
g26
g459
sssI59
(dp575
I55
(dp576
g26
g459
sssI60
(dp577
I59
(dp578
g26
g459
sssI61
(dp579
I60
(dp580
g26
g459
sssI62
(dp581
I60
(dp582
g26
g459
sssI63
(dp583
I60
(dp584
g26
g459
sssI64
(dp585
I60
(dp586
g26
g459
sssI65
(dp587
I60
(dp588
g26
g459
sssI66
(dp589
I60
(dp590
g26
g459
sssI67
(dp591
I60
(dp592
g26
g459
sssI68
(dp593
I60
(dp594
g26
g459
sssI69
(dp595
I68
(dp596
g26
g459
sssI70
(dp597
I68
(dp598
g26
g459
sssI71
(dp599
I68
(dp600
g26
g459
sssI72
(dp601
I68
(dp602
g26
g459
sssI73
(dp603
I57
(dp604
g26
g459
sssI74
(dp605
I57
(dp606
g26
g459
sssI75
(dp607
I57
(dp608
g26
g459
sssI76
(dp609
I58
(dp610
g26
g459
ssI90
(dp611
g26
g459
sssI77
(dp612
I58
(dp613
g26
g459
ssI91
(dp614
g26
g459
sssI78
(dp615
I58
(dp616
g26
g459
sssI79
(dp617
I58
(dp618
g26
g459
sssI80
(dp619
I58
(dp620
g26
g459
sssI81
(dp621
I58
(dp622
g26
g459
ssI91
(dp623
g26
g459
sssI82
(dp624
I58
(dp625
g26
g459
sssI83
(dp626
I58
(dp627
g26
g459
ssI91
(dp628
g26
g459
sssI84
(dp629
I58
(dp630
g26
g459
sssI85
(dp631
I58
(dp632
g26
g459
sssI86
(dp633
I58
(dp634
g26
g459
ssI90
(dp635
g26
g459
sssI87
(dp636
I55
(dp637
g26
g459
sssI88
(dp638
I87
(dp639
g26
g459
sssI89
(dp640
I87
(dp641
g26
g459
sssI90
(dp642
I55
(dp643
g26
g459
sssI91
(dp644
I55
(dp645
g26
g459
ssssg143
g454
sg144
(dp646
sg146
g139
sg147
g454
sg148
(dp647
I1
(dp648
sI2
(dp649
I3
g458
sI36
g525
sI54
g564
sI22
g497
sI55
g566
ssI3
(dp650
I9
g471
sI19
g491
sI4
g461
sI7
g467
ssI4
(dp651
I5
g463
sI6
g465
ssI5
(dp652
sI6
(dp653
sI7
(dp654
I8
g469
ssI8
(dp655
sI9
(dp656
I10
g473
sI11
g475
sI12
g477
sI13
g479
sI14
g481
sI15
g483
sI16
g485
sI17
g487
sI18
g489
ssI10
(dp657
sI11
(dp658
sI12
(dp659
sI13
(dp660
sI14
(dp661
sI15
(dp662
sI16
(dp663
sI17
(dp664
sI18
(dp665
sI19
(dp666
I20
g493
sI21
g495
ssI20
(dp667
sI21
(dp668
sI22
(dp669
I33
g519
sI29
g511
sI23
g499
ssI23
(dp670
I24
g501
sI25
g503
sI26
g505
sI27
g507
sI28
g509
ssI24
(dp671
sI25
(dp672
sI26
(dp673
sI27
(dp674
sI28
(dp675
sI29
(dp676
I32
g517
sI30
g513
sI31
g515
ssI30
(dp677
sI31
(dp678
sI32
(dp679
sI33
(dp680
I34
g521
sI35
g523
ssI34
(dp681
sI35
(dp682
sI36
(dp683
I52
g560
sI37
g527
sI46
g548
sI53
g562
ssI37
(dp684
I40
g534
sI41
g536
sI42
g539
sI38
g529
sI39
g532
ssI38
(dp685
sI39
(dp686
sI40
(dp687
sI41
(dp688
sI42
(dp689
I43
g541
sI45
g546
ssI43
(dp690
I44
g543
ssI44
(dp691
sI45
(dp692
I44
g544
ssI46
(dp693
I50
g556
sI47
g550
ssI47
(dp694
I48
g552
sI49
g554
ssI48
(dp695
sI49
(dp696
sI50
(dp697
I51
g558
ssI51
(dp698
sI52
(dp699
sI53
(dp700
I41
g537
sI38
g530
ssI54
(dp701
sI55
(dp702
I56
g568
sI91
g645
sI90
g643
sI59
g576
sI87
g637
ssI56
(dp703
I57
g570
sI58
g573
ssI57
(dp704
I73
g604
sI74
g606
sI75
g608
ssI58
(dp705
I76
g610
sI77
g613
sI78
g616
sI79
g618
sI80
g620
sI81
g622
sI82
g625
sI83
g627
sI84
g630
sI85
g632
sI86
g634
ssI59
(dp706
I57
g571
sI58
g574
sI60
g578
ssI60
(dp707
I64
g586
sI65
g588
sI66
g590
sI67
g592
sI68
g594
sI61
g580
sI62
g582
sI63
g584
ssI61
(dp708
sI62
(dp709
sI63
(dp710
sI64
(dp711
sI65
(dp712
sI66
(dp713
sI67
(dp714
sI68
(dp715
I72
g602
sI69
g596
sI70
g598
sI71
g600
ssI69
(dp716
sI70
(dp717
sI71
(dp718
sI72
(dp719
sI73
(dp720
sI74
(dp721
sI75
(dp722
sI76
(dp723
sI77
(dp724
sI78
(dp725
sI79
(dp726
sI80
(dp727
sI81
(dp728
sI82
(dp729
sI83
(dp730
sI84
(dp731
sI85
(dp732
sI86
(dp733
sI87
(dp734
I88
g639
sI89
g641
ssI88
(dp735
sI89
(dp736
sI90
(dp737
I76
g611
sI86
g635
ssI91
(dp738
I81
g623
sI83
g628
sI77
g614
sssbsS'nodes'
p739
(lp740
g0
(g258
g2
Ntp741
Rp742
(dp743
g262
g274
sg264
g267
sg28
I1
sg7
g274
sbag0
(g258
g2
Ntp744
Rp745
(dp746
g262
g276
sg264
g267
sg28
I2
sg7
g276
sbag0
(g258
g2
Ntp747
Rp748
(dp749
g262
g278
sg264
g267
sg28
I3
sg7
g278
sbag0
(g258
g2
Ntp750
Rp751
(dp752
g262
g280
sg264
g267
sg28
I4
sg7
g280
sbag0
(g258
g2
Ntp753
Rp754
(dp755
g262
g282
sg264
g267
sg28
I5
sg7
g282
sbag0
(g258
g2
Ntp756
Rp757
(dp758
g262
g284
sg264
g267
sg28
I6
sg7
g284
sbag0
(g258
g2
Ntp759
Rp760
(dp761
g262
g286
sg264
g267
sg28
I7
sg7
g286
sbag0
(g258
g2
Ntp762
Rp763
(dp764
g262
g288
sg264
g267
sg28
I8
sg7
g288
sbag0
(g258
g2
Ntp765
Rp766
(dp767
g262
g290
sg264
g267
sg28
I9
sg7
g290
sbag0
(g258
g2
Ntp768
Rp769
(dp770
g262
g292
sg264
g267
sg28
I10
sg7
g292
sbag0
(g258
g2
Ntp771
Rp772
(dp773
g262
g294
sg264
g267
sg28
I11
sg7
g294
sbag0
(g258
g2
Ntp774
Rp775
(dp776
g262
g296
sg264
g267
sg28
I12
sg7
g296
sbag0
(g258
g2
Ntp777
Rp778
(dp779
g262
g298
sg264
g267
sg28
I13
sg7
g298
sbag0
(g258
g2
Ntp780
Rp781
(dp782
g262
g300
sg264
g267
sg28
I14
sg7
g300
sbag0
(g258
g2
Ntp783
Rp784
(dp785
g262
g302
sg264
g267
sg28
I15
sg7
g302
sbag0
(g258
g2
Ntp786
Rp787
(dp788
g262
g304
sg264
g267
sg28
I16
sg7
g304
sbag0
(g258
g2
Ntp789
Rp790
(dp791
g262
g306
sg264
g267
sg28
I17
sg7
g306
sbag0
(g258
g2
Ntp792
Rp793
(dp794
g262
g308
sg264
g267
sg28
I18
sg7
g308
sbag0
(g258
g2
Ntp795
Rp796
(dp797
g262
g310
sg264
g267
sg28
I19
sg7
g310
sbag0
(g258
g2
Ntp798
Rp799
(dp800
g262
g312
sg264
g267
sg28
I20
sg7
g312
sbag0
(g258
g2
Ntp801
Rp802
(dp803
g262
g314
sg264
g267
sg28
I21
sg7
g314
sbag0
(g258
g2
Ntp804
Rp805
(dp806
g262
g316
sg264
g267
sg28
I22
sg7
g316
sbag0
(g258
g2
Ntp807
Rp808
(dp809
g262
g318
sg264
g267
sg28
I23
sg7
g318
sbag0
(g258
g2
Ntp810
Rp811
(dp812
g262
g320
sg264
g267
sg28
I24
sg7
g320
sbag0
(g258
g2
Ntp813
Rp814
(dp815
g262
g322
sg264
g267
sg28
I25
sg7
g322
sbag0
(g258
g2
Ntp816
Rp817
(dp818
g262
g324
sg264
g267
sg28
I26
sg7
g324
sbag0
(g258
g2
Ntp819
Rp820
(dp821
g262
g326
sg264
g267
sg28
I27
sg7
g326
sbag0
(g258
g2
Ntp822
Rp823
(dp824
g262
g328
sg264
g267
sg28
I28
sg7
g328
sbag0
(g258
g2
Ntp825
Rp826
(dp827
g262
g330
sg264
g267
sg28
I29
sg7
g330
sbag0
(g258
g2
Ntp828
Rp829
(dp830
g262
g332
sg264
g267
sg28
I30
sg7
g332
sbag0
(g258
g2
Ntp831
Rp832
(dp833
g262
g334
sg264
g267
sg28
I31
sg7
g334
sbag0
(g258
g2
Ntp834
Rp835
(dp836
g262
g336
sg264
g267
sg28
I32
sg7
g336
sbag0
(g258
g2
Ntp837
Rp838
(dp839
g262
g338
sg264
g267
sg28
I33
sg7
g338
sbag0
(g258
g2
Ntp840
Rp841
(dp842
g262
g340
sg264
g267
sg28
I34
sg7
g340
sbag0
(g258
g2
Ntp843
Rp844
(dp845
g262
g342
sg264
g267
sg28
I35
sg7
g342
sbag0
(g258
g2
Ntp846
Rp847
(dp848
g262
g344
sg264
g267
sg28
I36
sg7
g344
sbag0
(g258
g2
Ntp849
Rp850
(dp851
g262
g346
sg264
g267
sg28
I37
sg7
g346
sbag0
(g258
g2
Ntp852
Rp853
(dp854
g262
g348
sg264
g267
sg28
I38
sg7
g348
sbag0
(g258
g2
Ntp855
Rp856
(dp857
g262
g350
sg264
g267
sg28
I39
sg7
g350
sbag0
(g258
g2
Ntp858
Rp859
(dp860
g262
g352
sg264
g267
sg28
I40
sg7
g352
sbag0
(g258
g2
Ntp861
Rp862
(dp863
g262
g354
sg264
g267
sg28
I41
sg7
g354
sbag0
(g258
g2
Ntp864
Rp865
(dp866
g262
g356
sg264
g267
sg28
I42
sg7
g356
sbag0
(g258
g2
Ntp867
Rp868
(dp869
g262
g358
sg264
g267
sg28
I43
sg7
g358
sbag0
(g258
g2
Ntp870
Rp871
(dp872
g262
g360
sg264
g267
sg28
I44
sg7
g360
sbag0
(g258
g2
Ntp873
Rp874
(dp875
g262
g362
sg264
g267
sg28
I45
sg7
g362
sbag0
(g258
g2
Ntp876
Rp877
(dp878
g262
g364
sg264
g267
sg28
I46
sg7
g364
sbag0
(g258
g2
Ntp879
Rp880
(dp881
g262
g366
sg264
g267
sg28
I47
sg7
g366
sbag0
(g258
g2
Ntp882
Rp883
(dp884
g262
g368
sg264
g267
sg28
I48
sg7
g368
sbag0
(g258
g2
Ntp885
Rp886
(dp887
g262
g370
sg264
g267
sg28
I49
sg7
g370
sbag0
(g258
g2
Ntp888
Rp889
(dp890
g262
g372
sg264
g267
sg28
I50
sg7
g372
sbag0
(g258
g2
Ntp891
Rp892
(dp893
g262
g374
sg264
g267
sg28
I51
sg7
g374
sbag0
(g258
g2
Ntp894
Rp895
(dp896
g262
g376
sg264
g267
sg28
I52
sg7
g376
sbag0
(g258
g2
Ntp897
Rp898
(dp899
g262
g378
sg264
g267
sg28
I53
sg7
g378
sbag260
ag0
(g258
g2
Ntp900
Rp901
(dp902
g262
g381
sg264
g267
sg28
I55
sg7
g381
sbag0
(g258
g2
Ntp903
Rp904
(dp905
g262
g383
sg264
g267
sg28
I56
sg7
g383
sbag0
(g258
g2
Ntp906
Rp907
(dp908
g262
g385
sg264
g267
sg28
I57
sg7
g385
sbag0
(g258
g2
Ntp909
Rp910
(dp911
g262
g387
sg264
g267
sg28
I58
sg7
g387
sbag0
(g258
g2
Ntp912
Rp913
(dp914
g262
g389
sg264
g267
sg28
I59
sg7
g389
sbag0
(g258
g2
Ntp915
Rp916
(dp917
g262
g391
sg264
g267
sg28
I60
sg7
g391
sbag0
(g258
g2
Ntp918
Rp919
(dp920
g262
g393
sg264
g267
sg28
I61
sg7
g393
sbag0
(g258
g2
Ntp921
Rp922
(dp923
g262
g395
sg264
g267
sg28
I62
sg7
g395
sbag0
(g258
g2
Ntp924
Rp925
(dp926
g262
g397
sg264
g267
sg28
I63
sg7
g397
sbag0
(g258
g2
Ntp927
Rp928
(dp929
g262
g399
sg264
g267
sg28
I64
sg7
g399
sbag0
(g258
g2
Ntp930
Rp931
(dp932
g262
g401
sg264
g267
sg28
I65
sg7
g401
sbag0
(g258
g2
Ntp933
Rp934
(dp935
g262
g403
sg264
g267
sg28
I66
sg7
g403
sbag0
(g258
g2
Ntp936
Rp937
(dp938
g262
g405
sg264
g267
sg28
I67
sg7
g405
sbag0
(g258
g2
Ntp939
Rp940
(dp941
g262
g407
sg264
g267
sg28
I68
sg7
g407
sbag0
(g258
g2
Ntp942
Rp943
(dp944
g262
g409
sg264
g267
sg28
I69
sg7
g409
sbag0
(g258
g2
Ntp945
Rp946
(dp947
g262
g411
sg264
g267
sg28
I70
sg7
g411
sbag0
(g258
g2
Ntp948
Rp949
(dp950
g262
g413
sg264
g267
sg28
I71
sg7
g413
sbag0
(g258
g2
Ntp951
Rp952
(dp953
g262
g415
sg264
g267
sg28
I72
sg7
g415
sbag0
(g258
g2
Ntp954
Rp955
(dp956
g262
g417
sg264
g267
sg28
I73
sg7
g417
sbag0
(g258
g2
Ntp957
Rp958
(dp959
g262
g419
sg264
g267
sg28
I74
sg7
g419
sbag0
(g258
g2
Ntp960
Rp961
(dp962
g262
g421
sg264
g267
sg28
I75
sg7
g421
sbag0
(g258
g2
Ntp963
Rp964
(dp965
g262
g423
sg264
g267
sg28
I76
sg7
g423
sbag0
(g258
g2
Ntp966
Rp967
(dp968
g262
g425
sg264
g267
sg28
I77
sg7
g425
sbag0
(g258
g2
Ntp969
Rp970
(dp971
g262
g427
sg264
g267
sg28
I78
sg7
g427
sbag0
(g258
g2
Ntp972
Rp973
(dp974
g262
g429
sg264
g267
sg28
I79
sg7
g429
sbag0
(g258
g2
Ntp975
Rp976
(dp977
g262
g431
sg264
g267
sg28
I80
sg7
g431
sbag0
(g258
g2
Ntp978
Rp979
(dp980
g262
g433
sg264
g267
sg28
I81
sg7
g433
sbag0
(g258
g2
Ntp981
Rp982
(dp983
g262
g435
sg264
g267
sg28
I82
sg7
g435
sbag0
(g258
g2
Ntp984
Rp985
(dp986
g262
g437
sg264
g267
sg28
I83
sg7
g437
sbag0
(g258
g2
Ntp987
Rp988
(dp989
g262
g439
sg264
g267
sg28
I84
sg7
g439
sbag0
(g258
g2
Ntp990
Rp991
(dp992
g262
g441
sg264
g267
sg28
I85
sg7
g441
sbag0
(g258
g2
Ntp993
Rp994
(dp995
g262
g443
sg264
g267
sg28
I86
sg7
g443
sbag0
(g258
g2
Ntp996
Rp997
(dp998
g262
g445
sg264
g267
sg28
I87
sg7
g445
sbag0
(g258
g2
Ntp999
Rp1000
(dp1001
g262
g447
sg264
g267
sg28
I88
sg7
g447
sbag0
(g258
g2
Ntp1002
Rp1003
(dp1004
g262
g449
sg264
g267
sg28
I89
sg7
g449
sbag0
(g258
g2
Ntp1005
Rp1006
(dp1007
g262
g451
sg264
g267
sg28
I90
sg7
g451
sbag0
(g258
g2
Ntp1008
Rp1009
(dp1010
g262
g453
sg264
g267
sg28
I91
sg7
g453
sbasS'edges'
p1011
(lp1012
g0
(cconcept
SEM_REL
p1013
g2
Ntp1014
Rp1015
(dp1016
S'pTo'
p1017
g745
sg26
g459
sS'pFrom'
p1018
g748
sbag0
(g1013
g2
Ntp1019
Rp1020
(dp1021
g1017
g748
sg26
g459
sg1018
g751
sbag0
(g1013
g2
Ntp1022
Rp1023
(dp1024
g1017
g751
sg26
g459
sg1018
g754
sbag0
(g1013
g2
Ntp1025
Rp1026
(dp1027
g1017
g751
sg26
g459
sg1018
g757
sbag0
(g1013
g2
Ntp1028
Rp1029
(dp1030
g1017
g748
sg26
g459
sg1018
g760
sbag0
(g1013
g2
Ntp1031
Rp1032
(dp1033
g1017
g760
sg26
g459
sg1018
g763
sbag0
(g1013
g2
Ntp1034
Rp1035
(dp1036
g1017
g748
sg26
g459
sg1018
g766
sbag0
(g1013
g2
Ntp1037
Rp1038
(dp1039
g1017
g766
sg26
g459
sg1018
g769
sbag0
(g1013
g2
Ntp1040
Rp1041
(dp1042
g1017
g766
sg26
g459
sg1018
g772
sbag0
(g1013
g2
Ntp1043
Rp1044
(dp1045
g1017
g766
sg26
g459
sg1018
g775
sbag0
(g1013
g2
Ntp1046
Rp1047
(dp1048
g1017
g766
sg26
g459
sg1018
g778
sbag0
(g1013
g2
Ntp1049
Rp1050
(dp1051
g1017
g766
sg26
g459
sg1018
g781
sbag0
(g1013
g2
Ntp1052
Rp1053
(dp1054
g1017
g766
sg26
g459
sg1018
g784
sbag0
(g1013
g2
Ntp1055
Rp1056
(dp1057
g1017
g766
sg26
g459
sg1018
g787
sbag0
(g1013
g2
Ntp1058
Rp1059
(dp1060
g1017
g766
sg26
g459
sg1018
g790
sbag0
(g1013
g2
Ntp1061
Rp1062
(dp1063
g1017
g766
sg26
g459
sg1018
g793
sbag0
(g1013
g2
Ntp1064
Rp1065
(dp1066
g1017
g748
sg26
g459
sg1018
g796
sbag0
(g1013
g2
Ntp1067
Rp1068
(dp1069
g1017
g796
sg26
g459
sg1018
g799
sbag0
(g1013
g2
Ntp1070
Rp1071
(dp1072
g1017
g796
sg26
g459
sg1018
g802
sbag0
(g1013
g2
Ntp1073
Rp1074
(dp1075
g1017
g745
sg26
g459
sg1018
g805
sbag0
(g1013
g2
Ntp1076
Rp1077
(dp1078
g1017
g805
sg26
g459
sg1018
g808
sbag0
(g1013
g2
Ntp1079
Rp1080
(dp1081
g1017
g808
sg26
g459
sg1018
g811
sbag0
(g1013
g2
Ntp1082
Rp1083
(dp1084
g1017
g808
sg26
g459
sg1018
g814
sbag0
(g1013
g2
Ntp1085
Rp1086
(dp1087
g1017
g808
sg26
g459
sg1018
g817
sbag0
(g1013
g2
Ntp1088
Rp1089
(dp1090
g1017
g808
sg26
g459
sg1018
g820
sbag0
(g1013
g2
Ntp1091
Rp1092
(dp1093
g1017
g808
sg26
g459
sg1018
g823
sbag0
(g1013
g2
Ntp1094
Rp1095
(dp1096
g1017
g805
sg26
g459
sg1018
g826
sbag0
(g1013
g2
Ntp1097
Rp1098
(dp1099
g1017
g826
sg26
g459
sg1018
g829
sbag0
(g1013
g2
Ntp1100
Rp1101
(dp1102
g1017
g826
sg26
g459
sg1018
g832
sbag0
(g1013
g2
Ntp1103
Rp1104
(dp1105
g1017
g826
sg26
g459
sg1018
g835
sbag0
(g1013
g2
Ntp1106
Rp1107
(dp1108
g1017
g805
sg26
g459
sg1018
g838
sbag0
(g1013
g2
Ntp1109
Rp1110
(dp1111
g1017
g838
sg26
g459
sg1018
g841
sbag0
(g1013
g2
Ntp1112
Rp1113
(dp1114
g1017
g838
sg26
g459
sg1018
g844
sbag0
(g1013
g2
Ntp1115
Rp1116
(dp1117
g1017
g745
sg26
g459
sg1018
g847
sbag0
(g1013
g2
Ntp1118
Rp1119
(dp1120
g1017
g847
sg26
g459
sg1018
g850
sbag0
(g1013
g2
Ntp1121
Rp1122
(dp1123
g1017
g850
sg26
g459
sg1018
g853
sbag0
(g1013
g2
Ntp1124
Rp1125
(dp1126
g1017
g850
sg26
g459
sg1018
g856
sbag0
(g1013
g2
Ntp1127
Rp1128
(dp1129
g1017
g850
sg26
g459
sg1018
g859
sbag0
(g1013
g2
Ntp1130
Rp1131
(dp1132
g1017
g850
sg26
g459
sg1018
g862
sbag0
(g1013
g2
Ntp1133
Rp1134
(dp1135
g1017
g850
sg26
g459
sg1018
g865
sbag0
(g1013
g2
Ntp1136
Rp1137
(dp1138
g1017
g865
sg26
g459
sg1018
g868
sbag0
(g1013
g2
Ntp1139
Rp1140
(dp1141
g1017
g868
sg26
g459
sg1018
g871
sbag0
(g1013
g2
Ntp1142
Rp1143
(dp1144
g1017
g865
sg26
g459
sg1018
g874
sbag0
(g1013
g2
Ntp1145
Rp1146
(dp1147
g1017
g874
sg26
g459
sg1018
g871
sbag0
(g1013
g2
Ntp1148
Rp1149
(dp1150
g1017
g847
sg26
g459
sg1018
g877
sbag0
(g1013
g2
Ntp1151
Rp1152
(dp1153
g1017
g877
sg26
g459
sg1018
g880
sbag0
(g1013
g2
Ntp1154
Rp1155
(dp1156
g1017
g880
sg26
g459
sg1018
g883
sbag0
(g1013
g2
Ntp1157
Rp1158
(dp1159
g1017
g880
sg26
g459
sg1018
g886
sbag0
(g1013
g2
Ntp1160
Rp1161
(dp1162
g1017
g877
sg26
g459
sg1018
g889
sbag0
(g1013
g2
Ntp1163
Rp1164
(dp1165
g1017
g889
sg26
g459
sg1018
g892
sbag0
(g1013
g2
Ntp1166
Rp1167
(dp1168
g1017
g847
sg26
g459
sg1018
g895
sbag0
(g1013
g2
Ntp1169
Rp1170
(dp1171
g1017
g847
sg26
g459
sg1018
g898
sbag0
(g1013
g2
Ntp1172
Rp1173
(dp1174
g1017
g898
sg26
g459
sg1018
g853
sbag0
(g1013
g2
Ntp1175
Rp1176
(dp1177
g1017
g898
sg26
g459
sg1018
g862
sbag0
(g1013
g2
Ntp1178
Rp1179
(dp1180
g1017
g745
sg26
g459
sg1018
g260
sbag0
(g1013
g2
Ntp1181
Rp1182
(dp1183
g1017
g745
sg26
g459
sg1018
g901
sbag0
(g1013
g2
Ntp1184
Rp1185
(dp1186
g1017
g901
sg26
g459
sg1018
g904
sbag0
(g1013
g2
Ntp1187
Rp1188
(dp1189
g1017
g904
sg26
g459
sg1018
g907
sbag0
(g1013
g2
Ntp1190
Rp1191
(dp1192
g1017
g904
sg26
g459
sg1018
g910
sbag0
(g1013
g2
Ntp1193
Rp1194
(dp1195
g1017
g901
sg26
g459
sg1018
g913
sbag0
(g1013
g2
Ntp1196
Rp1197
(dp1198
g1017
g913
sg26
g459
sg1018
g916
sbag0
(g1013
g2
Ntp1199
Rp1200
(dp1201
g1017
g916
sg26
g459
sg1018
g919
sbag0
(g1013
g2
Ntp1202
Rp1203
(dp1204
g1017
g916
sg26
g459
sg1018
g922
sbag0
(g1013
g2
Ntp1205
Rp1206
(dp1207
g1017
g916
sg26
g459
sg1018
g925
sbag0
(g1013
g2
Ntp1208
Rp1209
(dp1210
g1017
g916
sg26
g459
sg1018
g928
sbag0
(g1013
g2
Ntp1211
Rp1212
(dp1213
g1017
g916
sg26
g459
sg1018
g931
sbag0
(g1013
g2
Ntp1214
Rp1215
(dp1216
g1017
g916
sg26
g459
sg1018
g934
sbag0
(g1013
g2
Ntp1217
Rp1218
(dp1219
g1017
g916
sg26
g459
sg1018
g937
sbag0
(g1013
g2
Ntp1220
Rp1221
(dp1222
g1017
g916
sg26
g459
sg1018
g940
sbag0
(g1013
g2
Ntp1223
Rp1224
(dp1225
g1017
g940
sg26
g459
sg1018
g943
sbag0
(g1013
g2
Ntp1226
Rp1227
(dp1228
g1017
g940
sg26
g459
sg1018
g946
sbag0
(g1013
g2
Ntp1229
Rp1230
(dp1231
g1017
g940
sg26
g459
sg1018
g949
sbag0
(g1013
g2
Ntp1232
Rp1233
(dp1234
g1017
g940
sg26
g459
sg1018
g952
sbag0
(g1013
g2
Ntp1235
Rp1236
(dp1237
g1017
g913
sg26
g459
sg1018
g907
sbag0
(g1013
g2
Ntp1238
Rp1239
(dp1240
g1017
g907
sg26
g459
sg1018
g955
sbag0
(g1013
g2
Ntp1241
Rp1242
(dp1243
g1017
g907
sg26
g459
sg1018
g958
sbag0
(g1013
g2
Ntp1244
Rp1245
(dp1246
g1017
g907
sg26
g459
sg1018
g961
sbag0
(g1013
g2
Ntp1247
Rp1248
(dp1249
g1017
g913
sg26
g459
sg1018
g910
sbag0
(g1013
g2
Ntp1250
Rp1251
(dp1252
g1017
g910
sg26
g459
sg1018
g964
sbag0
(g1013
g2
Ntp1253
Rp1254
(dp1255
g1017
g910
sg26
g459
sg1018
g967
sbag0
(g1013
g2
Ntp1256
Rp1257
(dp1258
g1017
g910
sg26
g459
sg1018
g970
sbag0
(g1013
g2
Ntp1259
Rp1260
(dp1261
g1017
g910
sg26
g459
sg1018
g973
sbag0
(g1013
g2
Ntp1262
Rp1263
(dp1264
g1017
g910
sg26
g459
sg1018
g976
sbag0
(g1013
g2
Ntp1265
Rp1266
(dp1267
g1017
g910
sg26
g459
sg1018
g979
sbag0
(g1013
g2
Ntp1268
Rp1269
(dp1270
g1017
g910
sg26
g459
sg1018
g982
sbag0
(g1013
g2
Ntp1271
Rp1272
(dp1273
g1017
g910
sg26
g459
sg1018
g985
sbag0
(g1013
g2
Ntp1274
Rp1275
(dp1276
g1017
g910
sg26
g459
sg1018
g988
sbag0
(g1013
g2
Ntp1277
Rp1278
(dp1279
g1017
g910
sg26
g459
sg1018
g991
sbag0
(g1013
g2
Ntp1280
Rp1281
(dp1282
g1017
g910
sg26
g459
sg1018
g994
sbag0
(g1013
g2
Ntp1283
Rp1284
(dp1285
g1017
g901
sg26
g459
sg1018
g997
sbag0
(g1013
g2
Ntp1286
Rp1287
(dp1288
g1017
g997
sg26
g459
sg1018
g1000
sbag0
(g1013
g2
Ntp1289
Rp1290
(dp1291
g1017
g997
sg26
g459
sg1018
g1003
sbag0
(g1013
g2
Ntp1292
Rp1293
(dp1294
g1017
g901
sg26
g459
sg1018
g1006
sbag0
(g1013
g2
Ntp1295
Rp1296
(dp1297
g1017
g1006
sg26
g459
sg1018
g964
sbag0
(g1013
g2
Ntp1298
Rp1299
(dp1300
g1017
g1006
sg26
g459
sg1018
g994
sbag0
(g1013
g2
Ntp1301
Rp1302
(dp1303
g1017
g901
sg26
g459
sg1018
g1009
sbag0
(g1013
g2
Ntp1304
Rp1305
(dp1306
g1017
g1009
sg26
g459
sg1018
g979
sbag0
(g1013
g2
Ntp1307
Rp1308
(dp1309
g1017
g1009
sg26
g459
sg1018
g985
sbag0
(g1013
g2
Ntp1310
Rp1311
(dp1312
g1017
g1009
sg26
g459
sg1018
g967
sbasS'neutral'
p1313
g742
sbsg28
I54
sg7
g263
sbsg7
g241
sS'frame'
p1314
I00
sS'focus'
p1315
I00
sg28
I5
sb(dp1316
g1314
I00
sg257
g260
ss(iconstruction
TP_NODE
p1317
(dp1318
g256
I00
sg257
g260
sg7
g239
sg1314
I00
sg1315
I01
sg28
I4
sb(dp1319
g1314
I00
sg257
g260
sssg138
g139
sg140
g139
sg141
(dp1320
g254
(dp1321
sg1317
(dp1322
ssg143
g1320
sg144
(dp1323
sg146
g139
sg147
g1320
sg148
(dp1324
g254
(dp1325
sg1317
(dp1326
ssbsg739
(lp1327
g1317
ag254
asg1011
(lp1328
sg28
I1
sg7
g162
sbsS'SynForm'
p1329
(iconstruction
TP_SYNFORM
p1330
(dp1331
g28
I2
sS'form'
p1332
(lp1333
(iconstruction
TP_SLOT
p1334
(dp1335
S'cxn_classes'
p1336
(lp1337
VS
p1338
asS'order'
p1339
I0
sg28
I6
sg7
g240
sba(iconstruction
TP_PHON
p1340
(dp1341
S'num_syllables'
p1342
I3
sg1339
I1
sg28
I7
sS'cxn_phonetics'
p1343
Vand
p1344
sg7
VS2_7
p1345
sba(iconstruction
TP_SLOT
p1346
(dp1347
g1336
(lp1348
VS
p1349
asg1339
I2
sg28
I8
sg7
g242
sbasg7
g162
sbsS'preference'
p1350
I1
sba(iconstruction
CXN
p1351
(dp1352
g234
(iconstruction
TP_SYMLINKS
p1353
(dp1354
g237
(dp1355
VEVT2_13
p1356
VS3_17
p1357
sVEVT1_12
p1358
VS1_15
p1359
ssg28
I11
sg7
g162
sbsg243
VD
p1360
sg245
I3
sg7
VCNJ_THEN
p1361
sg247
(iconstruction
TP_SEMFRAME
p1362
(dp1363
g144
g0
(g132
g2
Ntp1364
Rp1365
(dp1366
g136
(dp1367
(iconstruction
TP_NODE
p1368
(dp1369
g256
I00
sg257
g260
sg7
g1356
sg1314
I00
sg1315
I00
sg28
I13
sb(dp1370
g1314
I00
sg257
g260
ss(iconstruction
TP_NODE
p1371
(dp1372
g256
I00
sg257
g260
sg7
g1358
sg1314
I00
sg1315
I00
sg28
I12
sb(dp1373
g1314
I00
sg257
g260
sssg138
g139
sg140
g139
sg141
(dp1374
g1368
(dp1375
sg1371
(dp1376
g1368
(dp1377
g257
g886
ssssg143
g1374
sg144
(dp1378
sg146
g139
sg147
g1374
sg148
(dp1379
g1368
(dp1380
g1371
g1377
ssg1371
(dp1381
ssbsg739
(lp1382
g1371
ag1368
asg1011
(lp1383
(iconstruction
TP_REL
p1384
(dp1385
g1017
g1368
sg257
g886
sg28
I14
sg1018
g1371
sg7
VEVT1_EVT2_14
p1386
sbasg28
I9
sg7
g162
sbsg1329
(iconstruction
TP_SYNFORM
p1387
(dp1388
g28
I10
sg1332
(lp1389
(iconstruction
TP_SLOT
p1390
(dp1391
g1336
(lp1392
VS
p1393
asg1339
I0
sg28
I15
sg7
g1359
sba(iconstruction
TP_PHON
p1394
(dp1395
g1342
I4
sg1339
I1
sg28
I16
sg1343
Vthen
p1396
sg7
VS2_16
p1397
sba(iconstruction
TP_SLOT
p1398
(dp1399
g1336
(lp1400
VS
p1401
asg1339
I2
sg28
I17
sg7
g1357
sbasg7
g162
sbsg1350
I1
sba(iconstruction
CXN
p1402
(dp1403
g234
(iconstruction
TP_SYMLINKS
p1404
(dp1405
g237
(dp1406
VEVT2_22
p1407
VS3_26
p1408
sVEVT1_21
p1409
VS1_24
p1410
ssg28
I20
sg7
g162
sbsg243
VD
p1411
sg245
I3
sg7
VCNJ_WHILE
p1412
sg247
(iconstruction
TP_SEMFRAME
p1413
(dp1414
g144
g0
(g132
g2
Ntp1415
Rp1416
(dp1417
g136
(dp1418
(iconstruction
TP_NODE
p1419
(dp1420
g256
I00
sg257
g260
sg7
g1409
sg1314
I00
sg1315
I01
sg28
I21
sb(dp1421
g1314
I00
sg257
g260
ss(iconstruction
TP_NODE
p1422
(dp1423
g256
I00
sg257
g260
sg7
g1407
sg1314
I00
sg1315
I00
sg28
I22
sb(dp1424
g1314
I00
sg257
g260
sssg138
g139
sg140
g139
sg141
(dp1425
g1419
(dp1426
g1422
(dp1427
g257
g883
sssg1422
(dp1428
ssg143
g1425
sg144
(dp1429
sg146
g139
sg147
g1425
sg148
(dp1430
g1419
(dp1431
sg1422
(dp1432
g1419
g1427
sssbsg739
(lp1433
g1419
ag1422
asg1011
(lp1434
(iconstruction
TP_REL
p1435
(dp1436
g1017
g1422
sg257
g883
sg28
I23
sg1018
g1419
sg7
VEVT1_EVT2_23
p1437
sbasg28
I18
sg7
g162
sbsg1329
(iconstruction
TP_SYNFORM
p1438
(dp1439
g28
I19
sg1332
(lp1440
(iconstruction
TP_SLOT
p1441
(dp1442
g1336
(lp1443
VS
p1444
asg1339
I0
sg28
I24
sg7
g1410
sba(iconstruction
TP_PHON
p1445
(dp1446
g1342
I5
sg1339
I1
sg28
I25
sg1343
Vwhile
p1447
sg7
VS2_25
p1448
sba(iconstruction
TP_SLOT
p1449
(dp1450
g1336
(lp1451
VS
p1452
asg1339
I2
sg28
I26
sg7
g1408
sbasg7
g162
sbsg1350
I1
sba(iconstruction
CXN
p1453
(dp1454
g234
(iconstruction
TP_SYMLINKS
p1455
(dp1456
g237
(dp1457
VACT_31
p1458
VS4_40
p1459
sVACTOR_1_32
p1460
VS1_37
p1461
sVACTOR_2_33
p1462
VS3_39
p1463
ssg28
I29
sg7
g162
sbsg243
VS
p1464
sg245
Nsg7
VSYMMETRIC_TRANS
p1465
sg247
(iconstruction
TP_SEMFRAME
p1466
(dp1467
g144
g0
(g132
g2
Ntp1468
Rp1469
(dp1470
g136
(dp1471
(iconstruction
TP_NODE
p1472
(dp1473
g256
I00
sg257
g901
sg7
g1460
sg1314
I01
sg1315
I01
sg28
I32
sb(dp1474
g1314
I01
sg257
g901
ss(iconstruction
TP_NODE
p1475
(dp1476
g256
I00
sg257
g748
sg7
g1458
sg1314
I01
sg1315
I00
sg28
I31
sb(dp1477
g1314
I01
sg257
g748
ss(iconstruction
TP_NODE
p1478
(dp1479
g256
I01
sg257
g260
sg7
VEVT_30
p1480
sg1314
I01
sg1315
I00
sg28
I30
sb(dp1481
g1314
I01
sg257
g260
ss(iconstruction
TP_NODE
p1482
(dp1483
g256
I00
sg257
g901
sg7
g1462
sg1314
I01
sg1315
I00
sg28
I33
sb(dp1484
g1314
I01
sg257
g901
sssg138
g139
sg140
g139
sg141
(dp1485
g1472
(dp1486
sg1475
(dp1487
g1472
(dp1488
g257
g871
ssg1482
(dp1489
g257
g871
sssg1478
(dp1490
g1475
(dp1491
g257
g895
sssg1482
(dp1492
ssg143
g1485
sg144
(dp1493
sg146
g139
sg147
g1485
sg148
(dp1494
g1472
(dp1495
g1475
g1488
ssg1475
(dp1496
g1478
g1491
ssg1478
(dp1497
sg1482
(dp1498
g1475
g1489
sssbsg739
(lp1499
g1478
ag1475
ag1472
ag1482
asg1011
(lp1500
(iconstruction
TP_REL
p1501
(dp1502
g1017
g1475
sg257
g895
sg28
I34
sg1018
g1478
sg7
VIS_34
p1503
sba(iconstruction
TP_REL
p1504
(dp1505
g1017
g1472
sg257
g871
sg28
I35
sg1018
g1475
sg7
VAGT_PT_1_35
p1506
sba(iconstruction
TP_REL
p1507
(dp1508
g1017
g1482
sg257
g871
sg28
I36
sg1018
g1475
sg7
VAGT_PT_2_36
p1509
sbasg28
I27
sg7
g162
sbsg1329
(iconstruction
TP_SYNFORM
p1510
(dp1511
g28
I28
sg1332
(lp1512
(iconstruction
TP_SLOT
p1513
(dp1514
g1336
(lp1515
VNP
p1516
aVN
p1517
asg1339
I0
sg28
I37
sg7
g1461
sba(iconstruction
TP_PHON
p1518
(dp1519
g1342
I3
sg1339
I1
sg28
I38
sg1343
Vand
p1520
sg7
VS2_38
p1521
sba(iconstruction
TP_SLOT
p1522
(dp1523
g1336
(lp1524
VNP
p1525
aVN
p1526
asg1339
I2
sg28
I39
sg7
g1463
sba(iconstruction
TP_SLOT
p1527
(dp1528
g1336
(lp1529
VVP
p1530
aVV
p1531
asg1339
I3
sg28
I40
sg7
g1459
sbasg7
g162
sbsg1350
I1
sba(iconstruction
CXN
p1532
(dp1533
g234
(iconstruction
TP_SYMLINKS
p1534
(dp1535
g237
(dp1536
VAGT_46
p1537
VS1_51
p1538
sVACT_45
p1539
VS2_52
p1540
sVPT_47
p1541
VS3_53
p1542
ssg28
I43
sg7
g162
sbsg243
VS
p1543
sg245
I2
sg7
VSVO
p1544
sg247
(iconstruction
TP_SEMFRAME
p1545
(dp1546
g144
g0
(g132
g2
Ntp1547
Rp1548
(dp1549
g136
(dp1550
(iconstruction
TP_NODE
p1551
(dp1552
g256
I01
sg257
g260
sg7
VEVT_44
p1553
sg1314
I01
sg1315
I00
sg28
I44
sb(dp1554
g1314
I01
sg257
g260
ss(iconstruction
TP_NODE
p1555
(dp1556
g256
I00
sg257
g901
sg7
g1537
sg1314
I01
sg1315
I01
sg28
I46
sb(dp1557
g1314
I01
sg257
g901
ss(iconstruction
TP_NODE
p1558
(dp1559
g256
I00
sg257
g748
sg7
g1539
sg1314
I01
sg1315
I00
sg28
I45
sb(dp1560
g1314
I01
sg257
g748
ss(iconstruction
TP_NODE
p1561
(dp1562
g256
I00
sg257
g901
sg7
g1541
sg1314
I01
sg1315
I00
sg28
I47
sb(dp1563
g1314
I01
sg257
g901
sssg138
g139
sg140
g139
sg141
(dp1564
g1551
(dp1565
g1558
(dp1566
g257
g895
sssg1555
(dp1567
sg1558
(dp1568
g1555
(dp1569
g257
g874
ssg1561
(dp1570
g257
g868
sssg1561
(dp1571
ssg143
g1564
sg144
(dp1572
sg146
g139
sg147
g1564
sg148
(dp1573
g1551
(dp1574
sg1555
(dp1575
g1558
g1569
ssg1558
(dp1576
g1551
g1566
ssg1561
(dp1577
g1558
g1570
sssbsg739
(lp1578
g1551
ag1558
ag1555
ag1561
asg1011
(lp1579
(iconstruction
TP_REL
p1580
(dp1581
g1017
g1558
sg257
g895
sg28
I48
sg1018
g1551
sg7
VIS_48
p1582
sba(iconstruction
TP_REL
p1583
(dp1584
g1017
g1555
sg257
g874
sg28
I49
sg1018
g1558
sg7
VACT_AGT_49
p1585
sba(iconstruction
TP_REL
p1586
(dp1587
g1017
g1561
sg257
g868
sg28
I50
sg1018
g1558
sg7
VACT_PT_50
p1588
sbasg28
I41
sg7
g162
sbsg1329
(iconstruction
TP_SYNFORM
p1589
(dp1590
g28
I42
sg1332
(lp1591
(iconstruction
TP_SLOT
p1592
(dp1593
g1336
(lp1594
VNP
p1595
aVN
p1596
asg1339
I0
sg28
I51
sg7
g1538
sba(iconstruction
TP_SLOT
p1597
(dp1598
g1336
(lp1599
VVP
p1600
aVV
p1601
asg1339
I1
sg28
I52
sg7
g1540
sba(iconstruction
TP_SLOT
p1602
(dp1603
g1336
(lp1604
VNP
p1605
aVN
p1606
asg1339
I2
sg28
I53
sg7
g1542
sbasg7
g162
sbsg1350
I1
sba(iconstruction
CXN
p1607
(dp1608
g234
(iconstruction
TP_SYMLINKS
p1609
(dp1610
g237
(dp1611
VPT_60
p1612
VS1_64
p1613
sVACT_58
p1614
VS3_66
p1615
sVAGT_59
p1616
VS6_69
p1617
ssg28
I56
sg7
g162
sbsg243
VS
p1618
sg245
I2
sg7
VPAS_SVO
p1619
sg247
(iconstruction
TP_SEMFRAME
p1620
(dp1621
g144
g0
(g132
g2
Ntp1622
Rp1623
(dp1624
g136
(dp1625
(iconstruction
TP_NODE
p1626
(dp1627
g256
I00
sg257
g748
sg7
g1614
sg1314
I01
sg1315
I00
sg28
I58
sb(dp1628
g1314
I01
sg257
g748
ss(iconstruction
TP_NODE
p1629
(dp1630
g256
I00
sg257
g901
sg7
g1616
sg1314
I01
sg1315
I00
sg28
I59
sb(dp1631
g1314
I01
sg257
g901
ss(iconstruction
TP_NODE
p1632
(dp1633
g256
I00
sg257
g901
sg7
g1612
sg1314
I01
sg1315
I01
sg28
I60
sb(dp1634
g1314
I01
sg257
g901
ss(iconstruction
TP_NODE
p1635
(dp1636
g256
I01
sg257
g260
sg7
VEVT_57
p1637
sg1314
I01
sg1315
I00
sg28
I57
sb(dp1638
g1314
I01
sg257
g260
sssg138
g139
sg140
g139
sg141
(dp1639
g1626
(dp1640
g1632
(dp1641
g257
g868
ssg1629
(dp1642
g257
g874
sssg1629
(dp1643
sg1632
(dp1644
sg1635
(dp1645
g1626
(dp1646
g257
g895
ssssg143
g1639
sg144
(dp1647
sg146
g139
sg147
g1639
sg148
(dp1648
g1626
(dp1649
g1635
g1646
ssg1629
(dp1650
g1626
g1642
ssg1632
(dp1651
g1626
g1641
ssg1635
(dp1652
ssbsg739
(lp1653
g1635
ag1626
ag1629
ag1632
asg1011
(lp1654
(iconstruction
TP_REL
p1655
(dp1656
g1017
g1626
sg257
g895
sg28
I61
sg1018
g1635
sg7
VIS_61
p1657
sba(iconstruction
TP_REL
p1658
(dp1659
g1017
g1629
sg257
g874
sg28
I62
sg1018
g1626
sg7
VACT_AGT_62
p1660
sba(iconstruction
TP_REL
p1661
(dp1662
g1017
g1632
sg257
g868
sg28
I63
sg1018
g1626
sg7
VACT_PT_63
p1663
sbasg28
I54
sg7
g162
sbsg1329
(iconstruction
TP_SYNFORM
p1664
(dp1665
g28
I55
sg1332
(lp1666
(iconstruction
TP_SLOT
p1667
(dp1668
g1336
(lp1669
VNP
p1670
aVN
p1671
asg1339
I0
sg28
I64
sg7
g1613
sba(iconstruction
TP_PHON
p1672
(dp1673
g1342
I2
sg1339
I1
sg28
I65
sg1343
Vis
p1674
sg7
VS2_65
p1675
sba(iconstruction
TP_SLOT
p1676
(dp1677
g1336
(lp1678
VVP
p1679
aVV
p1680
asg1339
I2
sg28
I66
sg7
g1615
sba(iconstruction
TP_PHON
p1681
(dp1682
g1342
I2
sg1339
I3
sg28
I67
sg1343
V-ed
p1683
sg7
VS4_67
p1684
sba(iconstruction
TP_PHON
p1685
(dp1686
g1342
I2
sg1339
I4
sg28
I68
sg1343
Vby
p1687
sg7
VS5_68
p1688
sba(iconstruction
TP_SLOT
p1689
(dp1690
g1336
(lp1691
VNP
p1692
aVN
p1693
asg1339
I5
sg28
I69
sg7
g1617
sbasg7
g162
sbsg1350
I1
sba(iconstruction
CXN
p1694
(dp1695
g234
(iconstruction
TP_SYMLINKS
p1696
(dp1697
g237
(dp1698
VACT_74
p1699
VS2_83
p1700
sVRCPT_77
p1701
VS3_84
p1702
sVTHEME_76
p1703
VS4_85
p1704
sVAGT_75
p1705
VS1_82
p1706
ssg28
I72
sg7
g162
sbsg243
VS
p1707
sg245
I2
sg7
VDOUBLE_OBJ
p1708
sg247
(iconstruction
TP_SEMFRAME
p1709
(dp1710
g144
g0
(g132
g2
Ntp1711
Rp1712
(dp1713
g136
(dp1714
(iconstruction
TP_NODE
p1715
(dp1716
g256
I00
sg257
g748
sg7
g1699
sg1314
I01
sg1315
I00
sg28
I74
sb(dp1717
g1314
I01
sg257
g748
ss(iconstruction
TP_NODE
p1718
(dp1719
g256
I00
sg257
g901
sg7
g1705
sg1314
I01
sg1315
I01
sg28
I75
sb(dp1720
g1314
I01
sg257
g901
ss(iconstruction
TP_NODE
p1721
(dp1722
g256
I00
sg257
g901
sg7
g1701
sg1314
I01
sg1315
I00
sg28
I77
sb(dp1723
g1314
I01
sg257
g901
ss(iconstruction
TP_NODE
p1724
(dp1725
g256
I01
sg257
g260
sg7
VEVT_73
p1726
sg1314
I01
sg1315
I00
sg28
I73
sb(dp1727
g1314
I01
sg257
g260
ss(iconstruction
TP_NODE
p1728
(dp1729
g256
I00
sg257
g901
sg7
g1703
sg1314
I01
sg1315
I00
sg28
I76
sb(dp1730
g1314
I01
sg257
g901
sssg138
g139
sg140
g139
sg141
(dp1731
g1715
(dp1732
g1728
(dp1733
g257
g856
ssg1721
(dp1734
g257
g859
ssg1718
(dp1735
g257
g874
sssg1718
(dp1736
sg1721
(dp1737
sg1724
(dp1738
g1715
(dp1739
g257
g895
sssg1728
(dp1740
ssg143
g1731
sg144
(dp1741
sg146
g139
sg147
g1731
sg148
(dp1742
g1715
(dp1743
g1724
g1739
ssg1718
(dp1744
g1715
g1735
ssg1721
(dp1745
g1715
g1734
ssg1724
(dp1746
sg1728
(dp1747
g1715
g1733
sssbsg739
(lp1748
g1724
ag1715
ag1718
ag1728
ag1721
asg1011
(lp1749
(iconstruction
TP_REL
p1750
(dp1751
g1017
g1715
sg257
g895
sg28
I78
sg1018
g1724
sg7
VIS_78
p1752
sba(iconstruction
TP_REL
p1753
(dp1754
g1017
g1718
sg257
g874
sg28
I79
sg1018
g1715
sg7
VACT_AGT_79
p1755
sba(iconstruction
TP_REL
p1756
(dp1757
g1017
g1728
sg257
g856
sg28
I80
sg1018
g1715
sg7
VACT_THEME_80
p1758
sba(iconstruction
TP_REL
p1759
(dp1760
g1017
g1721
sg257
g859
sg28
I81
sg1018
g1715
sg7
VACT_RCPT_81
p1761
sbasg28
I70
sg7
g162
sbsg1329
(iconstruction
TP_SYNFORM
p1762
(dp1763
g28
I71
sg1332
(lp1764
(iconstruction
TP_SLOT
p1765
(dp1766
g1336
(lp1767
VNP
p1768
aVN
p1769
asg1339
I0
sg28
I82
sg7
g1706
sba(iconstruction
TP_SLOT
p1770
(dp1771
g1336
(lp1772
VVP
p1773
aVV
p1774
asg1339
I1
sg28
I83
sg7
g1700
sba(iconstruction
TP_SLOT
p1775
(dp1776
g1336
(lp1777
VNP
p1778
aVN
p1779
asg1339
I2
sg28
I84
sg7
g1702
sba(iconstruction
TP_SLOT
p1780
(dp1781
g1336
(lp1782
VNP
p1783
aVN
p1784
asg1339
I3
sg28
I85
sg7
g1704
sbasg7
g162
sbsg1350
I1
sba(iconstruction
CXN
p1785
(dp1786
g234
(iconstruction
TP_SYMLINKS
p1787
(dp1788
g237
(dp1789
VAGT_91
p1790
VS1_98
p1791
sVRCPT_93
p1792
VS5_102
p1793
sVACT_90
p1794
VS2_99
p1795
sVTHEME_92
p1796
VS3_100
p1797
ssg28
I88
sg7
g162
sbsg243
VS
p1798
sg245
I2
sg7
VOBLIQUE_DATIVE
p1799
sg247
(iconstruction
TP_SEMFRAME
p1800
(dp1801
g144
g0
(g132
g2
Ntp1802
Rp1803
(dp1804
g136
(dp1805
(iconstruction
TP_NODE
p1806
(dp1807
g256
I01
sg257
g260
sg7
VEVT_89
p1808
sg1314
I01
sg1315
I00
sg28
I89
sb(dp1809
g1314
I01
sg257
g260
ss(iconstruction
TP_NODE
p1810
(dp1811
g256
I00
sg257
g901
sg7
g1790
sg1314
I01
sg1315
I01
sg28
I91
sb(dp1812
g1314
I01
sg257
g901
ss(iconstruction
TP_NODE
p1813
(dp1814
g256
I00
sg257
g901
sg7
g1792
sg1314
I01
sg1315
I00
sg28
I93
sb(dp1815
g1314
I01
sg257
g901
ss(iconstruction
TP_NODE
p1816
(dp1817
g256
I00
sg257
g796
sg7
g1794
sg1314
I01
sg1315
I00
sg28
I90
sb(dp1818
g1314
I01
sg257
g796
ss(iconstruction
TP_NODE
p1819
(dp1820
g256
I00
sg257
g901
sg7
g1796
sg1314
I01
sg1315
I00
sg28
I92
sb(dp1821
g1314
I01
sg257
g901
sssg138
g139
sg140
g139
sg141
(dp1822
g1806
(dp1823
g1816
(dp1824
g257
g895
sssg1810
(dp1825
sg1813
(dp1826
sg1816
(dp1827
g1810
(dp1828
g257
g874
ssg1813
(dp1829
g257
g859
ssg1819
(dp1830
g257
g856
sssg1819
(dp1831
ssg143
g1822
sg144
(dp1832
sg146
g139
sg147
g1822
sg148
(dp1833
g1806
(dp1834
sg1810
(dp1835
g1816
g1828
ssg1813
(dp1836
g1816
g1829
ssg1816
(dp1837
g1806
g1824
ssg1819
(dp1838
g1816
g1830
sssbsg739
(lp1839
g1806
ag1816
ag1810
ag1819
ag1813
asg1011
(lp1840
(iconstruction
TP_REL
p1841
(dp1842
g1017
g1816
sg257
g895
sg28
I94
sg1018
g1806
sg7
VIS_94
p1843
sba(iconstruction
TP_REL
p1844
(dp1845
g1017
g1810
sg257
g874
sg28
I95
sg1018
g1816
sg7
VACT_AGT_95
p1846
sba(iconstruction
TP_REL
p1847
(dp1848
g1017
g1819
sg257
g856
sg28
I96
sg1018
g1816
sg7
VACT_THEME_96
p1849
sba(iconstruction
TP_REL
p1850
(dp1851
g1017
g1813
sg257
g859
sg28
I97
sg1018
g1816
sg7
VACT_RCPT_97
p1852
sbasg28
I86
sg7
g162
sbsg1329
(iconstruction
TP_SYNFORM
p1853
(dp1854
g28
I87
sg1332
(lp1855
(iconstruction
TP_SLOT
p1856
(dp1857
g1336
(lp1858
VNP
p1859
aVN
p1860
asg1339
I0
sg28
I98
sg7
g1791
sba(iconstruction
TP_SLOT
p1861
(dp1862
g1336
(lp1863
VVP
p1864
aVV
p1865
asg1339
I1
sg28
I99
sg7
g1795
sba(iconstruction
TP_SLOT
p1866
(dp1867
g1336
(lp1868
VNP
p1869
aVN
p1870
asg1339
I2
sg28
I100
sg7
g1797
sba(iconstruction
TP_PHON
p1871
(dp1872
g1342
I2
sg1339
I3
sg28
I101
sg1343
Vto
p1873
sg7
VS4_101
p1874
sba(iconstruction
TP_SLOT
p1875
(dp1876
g1336
(lp1877
VNP
p1878
aVN
p1879
asg1339
I4
sg28
I102
sg7
g1793
sbasg7
g162
sbsg1350
I1
sba(iconstruction
CXN
p1880
(dp1881
g234
(iconstruction
TP_SYMLINKS
p1882
(dp1883
g237
(dp1884
VATTR_108
p1885
VS3_113
p1886
sVENT_107
p1887
VS1_111
p1888
ssg28
I105
sg7
g162
sbsg243
VS
p1889
sg245
I2
sg7
VSPA
p1890
sg247
(iconstruction
TP_SEMFRAME
p1891
(dp1892
g144
g0
(g132
g2
Ntp1893
Rp1894
(dp1895
g136
(dp1896
(iconstruction
TP_NODE
p1897
(dp1898
g256
I00
sg257
g901
sg7
g1887
sg1314
I01
sg1315
I01
sg28
I107
sb(dp1899
g1314
I01
sg257
g901
ss(iconstruction
TP_NODE
p1900
(dp1901
g256
I00
sg257
g805
sg7
g1885
sg1314
I00
sg1315
I00
sg28
I108
sb(dp1902
g1314
I00
sg257
g805
ss(iconstruction
TP_NODE
p1903
(dp1904
g256
I01
sg257
g260
sg7
VEVT_106
p1905
sg1314
I01
sg1315
I00
sg28
I106
sb(dp1906
g1314
I01
sg257
g260
sssg138
g139
sg140
g139
sg141
(dp1907
g1897
(dp1908
sg1900
(dp1909
sg1903
(dp1910
g1897
(dp1911
g257
g895
ssg1900
(dp1912
g257
g853
ssssg143
g1907
sg144
(dp1913
sg146
g139
sg147
g1907
sg148
(dp1914
g1897
(dp1915
g1903
g1911
ssg1900
(dp1916
g1903
g1912
ssg1903
(dp1917
ssbsg739
(lp1918
g1903
ag1897
ag1900
asg1011
(lp1919
(iconstruction
TP_REL
p1920
(dp1921
g1017
g1897
sg257
g895
sg28
I109
sg1018
g1903
sg7
VIS_109
p1922
sba(iconstruction
TP_REL
p1923
(dp1924
g1017
g1900
sg257
g853
sg28
I110
sg1018
g1903
sg7
VEVT_ATTR_110
p1925
sbasg28
I103
sg7
g162
sbsg1329
(iconstruction
TP_SYNFORM
p1926
(dp1927
g28
I104
sg1332
(lp1928
(iconstruction
TP_SLOT
p1929
(dp1930
g1336
(lp1931
VNP
p1932
aVN
p1933
asg1339
I0
sg28
I111
sg7
g1888
sba(iconstruction
TP_PHON
p1934
(dp1935
g1342
I2
sg1339
I1
sg28
I112
sg1343
Vis
p1936
sg7
VS2_112
p1937
sba(iconstruction
TP_SLOT
p1938
(dp1939
g1336
(lp1940
VA
p1941
asg1339
I2
sg28
I113
sg7
g1886
sbasg7
g162
sbsg1350
I1
sba(iconstruction
CXN
p1942
(dp1943
g234
(iconstruction
TP_SYMLINKS
p1944
(dp1945
g237
(dp1946
VAGT_119
p1947
VS1_122
p1948
sVACT_118
p1949
VS2_123
p1950
ssg28
I116
sg7
g162
sbsg243
VS
p1951
sg245
I2
sg7
VSV
p1952
sg247
(iconstruction
TP_SEMFRAME
p1953
(dp1954
g144
g0
(g132
g2
Ntp1955
Rp1956
(dp1957
g136
(dp1958
(iconstruction
TP_NODE
p1959
(dp1960
g256
I01
sg257
g260
sg7
VEVT_117
p1961
sg1314
I01
sg1315
I00
sg28
I117
sb(dp1962
g1314
I01
sg257
g260
ss(iconstruction
TP_NODE
p1963
(dp1964
g256
I00
sg257
g901
sg7
g1947
sg1314
I01
sg1315
I01
sg28
I119
sb(dp1965
g1314
I01
sg257
g901
ss(iconstruction
TP_NODE
p1966
(dp1967
g256
I00
sg257
g760
sg7
g1949
sg1314
I01
sg1315
I00
sg28
I118
sb(dp1968
g1314
I01
sg257
g760
sssg138
g139
sg140
g139
sg141
(dp1969
g1959
(dp1970
g1966
(dp1971
g257
g895
sssg1963
(dp1972
sg1966
(dp1973
g1963
(dp1974
g257
g874
ssssg143
g1969
sg144
(dp1975
sg146
g139
sg147
g1969
sg148
(dp1976
g1959
(dp1977
sg1963
(dp1978
g1966
g1974
ssg1966
(dp1979
g1959
g1971
sssbsg739
(lp1980
g1959
ag1966
ag1963
asg1011
(lp1981
(iconstruction
TP_REL
p1982
(dp1983
g1017
g1966
sg257
g895
sg28
I120
sg1018
g1959
sg7
VIS_120
p1984
sba(iconstruction
TP_REL
p1985
(dp1986
g1017
g1963
sg257
g874
sg28
I121
sg1018
g1966
sg7
VACT_AGT_121
p1987
sbasg28
I114
sg7
g162
sbsg1329
(iconstruction
TP_SYNFORM
p1988
(dp1989
g28
I115
sg1332
(lp1990
(iconstruction
TP_SLOT
p1991
(dp1992
g1336
(lp1993
VNP
p1994
aVN
p1995
asg1339
I0
sg28
I122
sg7
g1948
sba(iconstruction
TP_SLOT
p1996
(dp1997
g1336
(lp1998
VVP
p1999
aVV
p2000
asg1339
I1
sg28
I123
sg7
g1950
sbasg7
g162
sbsg1350
I1
sba(iconstruction
CXN
p2001
(dp2002
g234
(iconstruction
TP_SYMLINKS
p2003
(dp2004
g237
(dp2005
VEVT_127
p2006
VS1_130
p2007
sVPLACE_128
p2008
VS3_132
p2009
ssg28
I126
sg7
g162
sbsg243
VS
p2010
sg245
I2
sg7
VPP_IN
p2011
sg247
(iconstruction
TP_SEMFRAME
p2012
(dp2013
g144
g0
(g132
g2
Ntp2014
Rp2015
(dp2016
g136
(dp2017
(iconstruction
TP_NODE
p2018
(dp2019
g256
I01
sg257
g260
sg7
g2006
sg1314
I01
sg1315
I00
sg28
I127
sb(dp2020
g1314
I01
sg257
g260
ss(iconstruction
TP_NODE
p2021
(dp2022
g256
I00
sg257
g901
sg7
g2008
sg1314
I01
sg1315
I00
sg28
I128
sb(dp2023
g1314
I01
sg257
g901
sssg138
g139
sg140
g139
sg141
(dp2024
g2018
(dp2025
g2021
(dp2026
g257
g892
sssg2021
(dp2027
ssg143
g2024
sg144
(dp2028
sg146
g139
sg147
g2024
sg148
(dp2029
g2018
(dp2030
sg2021
(dp2031
g2018
g2026
sssbsg739
(lp2032
g2018
ag2021
asg1011
(lp2033
(iconstruction
TP_REL
p2034
(dp2035
g1017
g2021
sg257
g892
sg28
I129
sg1018
g2018
sg7
VEVT_PP_129
p2036
sbasg28
I124
sg7
g162
sbsg1329
(iconstruction
TP_SYNFORM
p2037
(dp2038
g28
I125
sg1332
(lp2039
(iconstruction
TP_SLOT
p2040
(dp2041
g1336
(lp2042
VS
p2043
asg1339
I0
sg28
I130
sg7
g2007
sba(iconstruction
TP_PHON
p2044
(dp2045
g1342
I2
sg1339
I1
sg28
I131
sg1343
Vin
p2046
sg7
VS2_131
p2047
sba(iconstruction
TP_SLOT
p2048
(dp2049
g1336
(lp2050
VNP
p2051
aVN
p2052
asg1339
I2
sg28
I132
sg7
g2009
sbasg7
g162
sbsg1350
I1
sba(iconstruction
CXN
p2053
(dp2054
g234
(iconstruction
TP_SYMLINKS
p2055
(dp2056
g237
(dp2057
VEVT2_137
p2058
VS2_140
p2059
sVEVT1_136
p2060
VS1_139
p2061
ssg28
I135
sg7
g162
sbsg243
VS
p2062
sg245
I2
sg7
VS_PP
p2063
sg247
(iconstruction
TP_SEMFRAME
p2064
(dp2065
g144
g0
(g132
g2
Ntp2066
Rp2067
(dp2068
g136
(dp2069
(iconstruction
TP_NODE
p2070
(dp2071
g256
I01
sg257
g260
sg7
g2060
sg1314
I01
sg1315
I01
sg28
I136
sb(dp2072
g1314
I01
sg257
g260
ss(iconstruction
TP_NODE
p2073
(dp2074
g256
I00
sg257
g260
sg7
g2058
sg1314
I01
sg1315
I00
sg28
I137
sb(dp2075
g1314
I01
sg257
g260
sssg138
g139
sg140
g139
sg141
(dp2076
g2070
(dp2077
g2073
(dp2078
g257
g853
sssg2073
(dp2079
ssg143
g2076
sg144
(dp2080
sg146
g139
sg147
g2076
sg148
(dp2081
g2070
(dp2082
sg2073
(dp2083
g2070
g2078
sssbsg739
(lp2084
g2070
ag2073
asg1011
(lp2085
(iconstruction
TP_REL
p2086
(dp2087
g1017
g2073
sg257
g853
sg28
I138
sg1018
g2070
sg7
VMOD_138
p2088
sbasg28
I133
sg7
g162
sbsg1329
(iconstruction
TP_SYNFORM
p2089
(dp2090
g28
I134
sg1332
(lp2091
(iconstruction
TP_SLOT
p2092
(dp2093
g1336
(lp2094
VS
p2095
asg1339
I0
sg28
I139
sg7
g2061
sba(iconstruction
TP_SLOT
p2096
(dp2097
g1336
(lp2098
VPP
p2099
asg1339
I1
sg28
I140
sg7
g2059
sbasg7
g162
sbsg1350
I1
sba(iconstruction
CXN
p2100
(dp2101
g234
(iconstruction
TP_SYMLINKS
p2102
(dp2103
g237
(dp2104
VENT_144
p2105
VS2_148
p2106
sVATTR_145
p2107
VS1_147
p2108
ssg28
I143
sg7
g162
sbsg243
VN
p2109
sg245
I2
sg7
VADJUNCT_N
p2110
sg247
(iconstruction
TP_SEMFRAME
p2111
(dp2112
g144
g0
(g132
g2
Ntp2113
Rp2114
(dp2115
g136
(dp2116
(iconstruction
TP_NODE
p2117
(dp2118
g256
I01
sg257
g901
sg7
g2105
sg1314
I01
sg1315
I00
sg28
I144
sb(dp2119
g1314
I01
sg257
g901
ss(iconstruction
TP_NODE
p2120
(dp2121
g256
I00
sg257
g805
sg7
g2107
sg1314
I00
sg1315
I00
sg28
I145
sb(dp2122
g1314
I00
sg257
g805
sssg138
g139
sg140
g139
sg141
(dp2123
g2117
(dp2124
g2120
(dp2125
g257
g853
sssg2120
(dp2126
ssg143
g2123
sg144
(dp2127
sg146
g139
sg147
g2123
sg148
(dp2128
g2117
(dp2129
sg2120
(dp2130
g2117
g2125
sssbsg739
(lp2131
g2117
ag2120
asg1011
(lp2132
(iconstruction
TP_REL
p2133
(dp2134
g1017
g2120
sg257
g853
sg28
I146
sg1018
g2117
sg7
VENT_ATTR_146
p2135
sbasg28
I141
sg7
g162
sbsg1329
(iconstruction
TP_SYNFORM
p2136
(dp2137
g28
I142
sg1332
(lp2138
(iconstruction
TP_SLOT
p2139
(dp2140
g1336
(lp2141
VA
p2142
asg1339
I0
sg28
I147
sg7
g2108
sba(iconstruction
TP_SLOT
p2143
(dp2144
g1336
(lp2145
VN
p2146
asg1339
I1
sg28
I148
sg7
g2106
sbasg7
g162
sbsg1350
I1
sba(iconstruction
CXN
p2147
(dp2148
g234
(iconstruction
TP_SYMLINKS
p2149
(dp2150
g237
(dp2151
VAGT_154
p2152
VS1_160
p2153
sVACT_153
p2154
VS3_162
p2155
sVPT_155
p2156
VS4_163
p2157
ssg28
I151
sg7
g162
sbsg243
VN
p2158
sg245
I2
sg7
VSUBJ_REL_SVO
p2159
sg247
(iconstruction
TP_SEMFRAME
p2160
(dp2161
g144
g0
(g132
g2
Ntp2162
Rp2163
(dp2164
g136
(dp2165
(iconstruction
TP_NODE
p2166
(dp2167
g256
I00
sg257
g260
sg7
VEVT_152
p2168
sg1314
I01
sg1315
I00
sg28
I152
sb(dp2169
g1314
I01
sg257
g260
ss(iconstruction
TP_NODE
p2170
(dp2171
g256
I01
sg257
g901
sg7
g2152
sg1314
I01
sg1315
I00
sg28
I154
sb(dp2172
g1314
I01
sg257
g901
ss(iconstruction
TP_NODE
p2173
(dp2174
g256
I00
sg257
g901
sg7
g2156
sg1314
I01
sg1315
I00
sg28
I155
sb(dp2175
g1314
I01
sg257
g901
ss(iconstruction
TP_NODE
p2176
(dp2177
g256
I00
sg257
g766
sg7
g2154
sg1314
I01
sg1315
I01
sg28
I153
sb(dp2178
g1314
I01
sg257
g766
sssg138
g139
sg140
g139
sg141
(dp2179
g2166
(dp2180
g2176
(dp2181
g257
g895
sssg2170
(dp2182
g2166
(dp2183
g257
g853
sssg2173
(dp2184
sg2176
(dp2185
g2170
(dp2186
g257
g874
ssg2173
(dp2187
g257
g868
ssssg143
g2179
sg144
(dp2188
sg146
g139
sg147
g2179
sg148
(dp2189
g2166
(dp2190
g2170
g2183
ssg2170
(dp2191
g2176
g2186
ssg2173
(dp2192
g2176
g2187
ssg2176
(dp2193
g2166
g2181
sssbsg739
(lp2194
g2166
ag2176
ag2170
ag2173
asg1011
(lp2195
(iconstruction
TP_REL
p2196
(dp2197
g1017
g2176
sg257
g895
sg28
I156
sg1018
g2166
sg7
VIS_156
p2198
sba(iconstruction
TP_REL
p2199
(dp2200
g1017
g2170
sg257
g874
sg28
I157
sg1018
g2176
sg7
VACT_AGT_157
p2201
sba(iconstruction
TP_REL
p2202
(dp2203
g1017
g2173
sg257
g868
sg28
I158
sg1018
g2176
sg7
VACT_PT_158
p2204
sba(iconstruction
TP_REL
p2205
(dp2206
g1017
g2166
sg257
g853
sg28
I159
sg1018
g2170
sg7
VAGT_EVT_159
p2207
sbasg28
I149
sg7
g162
sbsg1329
(iconstruction
TP_SYNFORM
p2208
(dp2209
g28
I150
sg1332
(lp2210
(iconstruction
TP_SLOT
p2211
(dp2212
g1336
(lp2213
VN
p2214
asg1339
I0
sg28
I160
sg7
g2153
sba(iconstruction
TP_PHON
p2215
(dp2216
g1342
I4
sg1339
I1
sg28
I161
sg1343
Vthat
p2217
sg7
VS2_161
p2218
sba(iconstruction
TP_SLOT
p2219
(dp2220
g1336
(lp2221
VVP
p2222
aVV
p2223
asg1339
I2
sg28
I162
sg7
g2155
sba(iconstruction
TP_SLOT
p2224
(dp2225
g1336
(lp2226
VNP
p2227
aVN
p2228
asg1339
I3
sg28
I163
sg7
g2157
sbasg7
g162
sbsg1350
I1
sba(iconstruction
CXN
p2229
(dp2230
g234
(iconstruction
TP_SYMLINKS
p2231
(dp2232
g237
(dp2233
VAGT_169
p2234
VS1_173
p2235
sVACT_168
p2236
VS3_175
p2237
ssg28
I166
sg7
g162
sbsg243
VN
p2238
sg245
I2
sg7
VSUBJ_REL_SV
p2239
sg247
(iconstruction
TP_SEMFRAME
p2240
(dp2241
g144
g0
(g132
g2
Ntp2242
Rp2243
(dp2244
g136
(dp2245
(iconstruction
TP_NODE
p2246
(dp2247
g256
I00
sg257
g748
sg7
g2236
sg1314
I01
sg1315
I01
sg28
I168
sb(dp2248
g1314
I01
sg257
g748
ss(iconstruction
TP_NODE
p2249
(dp2250
g256
I01
sg257
g901
sg7
g2234
sg1314
I01
sg1315
I00
sg28
I169
sb(dp2251
g1314
I01
sg257
g901
ss(iconstruction
TP_NODE
p2252
(dp2253
g256
I00
sg257
g260
sg7
VEVT_167
p2254
sg1314
I01
sg1315
I00
sg28
I167
sb(dp2255
g1314
I01
sg257
g260
sssg138
g139
sg140
g139
sg141
(dp2256
g2246
(dp2257
g2249
(dp2258
g257
g874
sssg2249
(dp2259
g2252
(dp2260
g257
g853
sssg2252
(dp2261
g2246
(dp2262
g257
g895
ssssg143
g2256
sg144
(dp2263
sg146
g139
sg147
g2256
sg148
(dp2264
g2246
(dp2265
g2252
g2262
ssg2249
(dp2266
g2246
g2258
ssg2252
(dp2267
g2249
g2260
sssbsg739
(lp2268
g2252
ag2246
ag2249
asg1011
(lp2269
(iconstruction
TP_REL
p2270
(dp2271
g1017
g2246
sg257
g895
sg28
I170
sg1018
g2252
sg7
VIS_170
p2272
sba(iconstruction
TP_REL
p2273
(dp2274
g1017
g2249
sg257
g874
sg28
I171
sg1018
g2246
sg7
VACT_AGT_171
p2275
sba(iconstruction
TP_REL
p2276
(dp2277
g1017
g2252
sg257
g853
sg28
I172
sg1018
g2249
sg7
VAGT_EVT_172
p2278
sbasg28
I164
sg7
g162
sbsg1329
(iconstruction
TP_SYNFORM
p2279
(dp2280
g28
I165
sg1332
(lp2281
(iconstruction
TP_SLOT
p2282
(dp2283
g1336
(lp2284
VN
p2285
asg1339
I0
sg28
I173
sg7
g2235
sba(iconstruction
TP_PHON
p2286
(dp2287
g1342
I4
sg1339
I1
sg28
I174
sg1343
Vthat
p2288
sg7
VS2_174
p2289
sba(iconstruction
TP_SLOT
p2290
(dp2291
g1336
(lp2292
VVP
p2293
aVV
p2294
asg1339
I2
sg28
I175
sg7
g2237
sbasg7
g162
sbsg1350
I1
sba(iconstruction
CXN
p2295
(dp2296
g234
(iconstruction
TP_SYMLINKS
p2297
(dp2298
g237
(dp2299
VAGT_181
p2300
VS7_193
p2301
sVPT_182
p2302
VS1_187
p2303
sVACT_180
p2304
VS4_190
p2305
ssg28
I178
sg7
g162
sbsg243
VN
p2306
sg245
I2
sg7
VSUBJ_REL_PAS_SVO
p2307
sg247
(iconstruction
TP_SEMFRAME
p2308
(dp2309
g144
g0
(g132
g2
Ntp2310
Rp2311
(dp2312
g136
(dp2313
(iconstruction
TP_NODE
p2314
(dp2315
g256
I00
sg257
g260
sg7
VEVT_179
p2316
sg1314
I01
sg1315
I00
sg28
I179
sb(dp2317
g1314
I01
sg257
g260
ss(iconstruction
TP_NODE
p2318
(dp2319
g256
I00
sg257
g901
sg7
g2300
sg1314
I01
sg1315
I00
sg28
I181
sb(dp2320
g1314
I01
sg257
g901
ss(iconstruction
TP_NODE
p2321
(dp2322
g256
I00
sg257
g748
sg7
g2304
sg1314
I01
sg1315
I01
sg28
I180
sb(dp2323
g1314
I01
sg257
g748
ss(iconstruction
TP_NODE
p2324
(dp2325
g256
I01
sg257
g901
sg7
g2302
sg1314
I01
sg1315
I00
sg28
I182
sb(dp2326
g1314
I01
sg257
g901
sssg138
g139
sg140
g139
sg141
(dp2327
g2314
(dp2328
g2321
(dp2329
g257
g895
sssg2318
(dp2330
sg2321
(dp2331
g2318
(dp2332
g257
g874
ssg2324
(dp2333
g257
g868
sssg2324
(dp2334
g2314
(dp2335
g257
g853
ssssg143
g2327
sg144
(dp2336
sg146
g139
sg147
g2327
sg148
(dp2337
g2314
(dp2338
g2324
g2335
ssg2318
(dp2339
g2321
g2332
ssg2321
(dp2340
g2314
g2329
ssg2324
(dp2341
g2321
g2333
sssbsg739
(lp2342
g2314
ag2321
ag2318
ag2324
asg1011
(lp2343
(iconstruction
TP_REL
p2344
(dp2345
g1017
g2321
sg257
g895
sg28
I183
sg1018
g2314
sg7
VIS_183
p2346
sba(iconstruction
TP_REL
p2347
(dp2348
g1017
g2318
sg257
g874
sg28
I184
sg1018
g2321
sg7
VACT_AGT_184
p2349
sba(iconstruction
TP_REL
p2350
(dp2351
g1017
g2324
sg257
g868
sg28
I185
sg1018
g2321
sg7
VACT_PT_185
p2352
sba(iconstruction
TP_REL
p2353
(dp2354
g1017
g2314
sg257
g853
sg28
I186
sg1018
g2324
sg7
VPT_EVT_186
p2355
sbasg28
I176
sg7
g162
sbsg1329
(iconstruction
TP_SYNFORM
p2356
(dp2357
g28
I177
sg1332
(lp2358
(iconstruction
TP_SLOT
p2359
(dp2360
g1336
(lp2361
VN
p2362
asg1339
I0
sg28
I187
sg7
g2303
sba(iconstruction
TP_PHON
p2363
(dp2364
g1342
I4
sg1339
I1
sg28
I188
sg1343
Vthat
p2365
sg7
VS2_188
p2366
sba(iconstruction
TP_PHON
p2367
(dp2368
g1342
I2
sg1339
I2
sg28
I189
sg1343
Vis
p2369
sg7
VS3_189
p2370
sba(iconstruction
TP_SLOT
p2371
(dp2372
g1336
(lp2373
VVP
p2374
aVV
p2375
asg1339
I3
sg28
I190
sg7
g2305
sba(iconstruction
TP_PHON
p2376
(dp2377
g1342
I2
sg1339
I4
sg28
I191
sg1343
V-ed
p2378
sg7
VS5_191
p2379
sba(iconstruction
TP_PHON
p2380
(dp2381
g1342
I2
sg1339
I5
sg28
I192
sg1343
Vby
p2382
sg7
VS6_192
p2383
sba(iconstruction
TP_SLOT
p2384
(dp2385
g1336
(lp2386
VNP
p2387
aVN
p2388
asg1339
I6
sg28
I193
sg7
g2301
sbasg7
g162
sbsg1350
I1
sba(iconstruction
CXN
p2389
(dp2390
g234
(iconstruction
TP_SYMLINKS
p2391
(dp2392
g237
(dp2393
VAGT_199
p2394
VS3_207
p2395
sVACT_198
p2396
VS4_208
p2397
sVPT_200
p2398
VS1_205
p2399
ssg28
I196
sg7
g162
sbsg243
VN
p2400
sg245
I2
sg7
VOBJ_REL_SVO
p2401
sg247
(iconstruction
TP_SEMFRAME
p2402
(dp2403
g144
g0
(g132
g2
Ntp2404
Rp2405
(dp2406
g136
(dp2407
(iconstruction
TP_NODE
p2408
(dp2409
g256
I00
sg257
g260
sg7
VEVT_197
p2410
sg1314
I01
sg1315
I00
sg28
I197
sb(dp2411
g1314
I01
sg257
g260
ss(iconstruction
TP_NODE
p2412
(dp2413
g256
I00
sg257
g901
sg7
g2394
sg1314
I01
sg1315
I00
sg28
I199
sb(dp2414
g1314
I01
sg257
g901
ss(iconstruction
TP_NODE
p2415
(dp2416
g256
I01
sg257
g901
sg7
g2398
sg1314
I01
sg1315
I00
sg28
I200
sb(dp2417
g1314
I01
sg257
g901
ss(iconstruction
TP_NODE
p2418
(dp2419
g256
I00
sg257
g748
sg7
g2396
sg1314
I01
sg1315
I01
sg28
I198
sb(dp2420
g1314
I01
sg257
g748
sssg138
g139
sg140
g139
sg141
(dp2421
g2408
(dp2422
g2418
(dp2423
g257
g895
sssg2412
(dp2424
sg2415
(dp2425
g2408
(dp2426
g257
g853
sssg2418
(dp2427
g2412
(dp2428
g257
g874
ssg2415
(dp2429
g257
g868
ssssg143
g2421
sg144
(dp2430
sg146
g139
sg147
g2421
sg148
(dp2431
g2408
(dp2432
g2415
g2426
ssg2412
(dp2433
g2418
g2428
ssg2415
(dp2434
g2418
g2429
ssg2418
(dp2435
g2408
g2423
sssbsg739
(lp2436
g2408
ag2418
ag2412
ag2415
asg1011
(lp2437
(iconstruction
TP_REL
p2438
(dp2439
g1017
g2418
sg257
g895
sg28
I201
sg1018
g2408
sg7
VIS_201
p2440
sba(iconstruction
TP_REL
p2441
(dp2442
g1017
g2412
sg257
g874
sg28
I202
sg1018
g2418
sg7
VACT_AGT_202
p2443
sba(iconstruction
TP_REL
p2444
(dp2445
g1017
g2415
sg257
g868
sg28
I203
sg1018
g2418
sg7
VACT_PT_203
p2446
sba(iconstruction
TP_REL
p2447
(dp2448
g1017
g2408
sg257
g853
sg28
I204
sg1018
g2415
sg7
VPT_EVT_204
p2449
sbasg28
I194
sg7
g162
sbsg1329
(iconstruction
TP_SYNFORM
p2450
(dp2451
g28
I195
sg1332
(lp2452
(iconstruction
TP_SLOT
p2453
(dp2454
g1336
(lp2455
VN
p2456
asg1339
I0
sg28
I205
sg7
g2399
sba(iconstruction
TP_PHON
p2457
(dp2458
g1342
I4
sg1339
I1
sg28
I206
sg1343
Vthat
p2459
sg7
VS2_206
p2460
sba(iconstruction
TP_SLOT
p2461
(dp2462
g1336
(lp2463
VNP
p2464
aVN
p2465
asg1339
I2
sg28
I207
sg7
g2395
sba(iconstruction
TP_SLOT
p2466
(dp2467
g1336
(lp2468
VVP
p2469
aVV
p2470
asg1339
I3
sg28
I208
sg7
g2397
sbasg7
g162
sbsg1350
I1
sba(iconstruction
CXN
p2471
(dp2472
g234
(iconstruction
TP_SYMLINKS
p2473
(dp2474
g237
(dp2475
VPT_215
p2476
VS3_222
p2477
sVACT_213
p2478
VS5_224
p2479
sVAGT_214
p2480
VS1_220
p2481
ssg28
I211
sg7
g162
sbsg243
VN
p2482
sg245
I2
sg7
VOBJ_REL_PAS_SVO
p2483
sg247
(iconstruction
TP_SEMFRAME
p2484
(dp2485
g144
g0
(g132
g2
Ntp2486
Rp2487
(dp2488
g136
(dp2489
(iconstruction
TP_NODE
p2490
(dp2491
g256
I00
sg257
g748
sg7
g2478
sg1314
I01
sg1315
I01
sg28
I213
sb(dp2492
g1314
I01
sg257
g748
ss(iconstruction
TP_NODE
p2493
(dp2494
g256
I01
sg257
g901
sg7
g2480
sg1314
I01
sg1315
I00
sg28
I214
sb(dp2495
g1314
I01
sg257
g901
ss(iconstruction
TP_NODE
p2496
(dp2497
g256
I00
sg257
g260
sg7
VEVT_212
p2498
sg1314
I01
sg1315
I00
sg28
I212
sb(dp2499
g1314
I01
sg257
g260
ss(iconstruction
TP_NODE
p2500
(dp2501
g256
I00
sg257
g901
sg7
g2476
sg1314
I01
sg1315
I00
sg28
I215
sb(dp2502
g1314
I01
sg257
g901
sssg138
g139
sg140
g139
sg141
(dp2503
g2490
(dp2504
g2500
(dp2505
g257
g868
ssg2493
(dp2506
g257
g874
sssg2493
(dp2507
g2496
(dp2508
g257
g853
sssg2496
(dp2509
g2490
(dp2510
g257
g895
sssg2500
(dp2511
ssg143
g2503
sg144
(dp2512
sg146
g139
sg147
g2503
sg148
(dp2513
g2490
(dp2514
g2496
g2510
ssg2493
(dp2515
g2490
g2506
ssg2496
(dp2516
g2493
g2508
ssg2500
(dp2517
g2490
g2505
sssbsg739
(lp2518
g2496
ag2490
ag2493
ag2500
asg1011
(lp2519
(iconstruction
TP_REL
p2520
(dp2521
g1017
g2490
sg257
g895
sg28
I216
sg1018
g2496
sg7
VIS_216
p2522
sba(iconstruction
TP_REL
p2523
(dp2524
g1017
g2493
sg257
g874
sg28
I217
sg1018
g2490
sg7
VACT_AGT_217
p2525
sba(iconstruction
TP_REL
p2526
(dp2527
g1017
g2500
sg257
g868
sg28
I218
sg1018
g2490
sg7
VACT_PT_218
p2528
sba(iconstruction
TP_REL
p2529
(dp2530
g1017
g2496
sg257
g853
sg28
I219
sg1018
g2493
sg7
VAGT_EVT_219
p2531
sbasg28
I209
sg7
g162
sbsg1329
(iconstruction
TP_SYNFORM
p2532
(dp2533
g28
I210
sg1332
(lp2534
(iconstruction
TP_SLOT
p2535
(dp2536
g1336
(lp2537
VN
p2538
asg1339
I0
sg28
I220
sg7
g2481
sba(iconstruction
TP_PHON
p2539
(dp2540
g1342
I4
sg1339
I1
sg28
I221
sg1343
Vthat
p2541
sg7
VS2_221
p2542
sba(iconstruction
TP_SLOT
p2543
(dp2544
g1336
(lp2545
VNP
p2546
aVN
p2547
asg1339
I2
sg28
I222
sg7
g2477
sba(iconstruction
TP_PHON
p2548
(dp2549
g1342
I2
sg1339
I3
sg28
I223
sg1343
Vis
p2550
sg7
VS4_223
p2551
sba(iconstruction
TP_SLOT
p2552
(dp2553
g1336
(lp2554
VVP
p2555
aVV
p2556
asg1339
I4
sg28
I224
sg7
g2479
sba(iconstruction
TP_PHON
p2557
(dp2558
g1342
I2
sg1339
I5
sg28
I225
sg1343
V-ed
p2559
sg7
VS6_225
p2560
sba(iconstruction
TP_PHON
p2561
(dp2562
g1342
I2
sg1339
I6
sg28
I226
sg1343
Vby
p2563
sg7
VS7_226
p2564
sbasg7
g162
sbsg1350
I1
sba(iconstruction
CXN
p2565
(dp2566
g234
(iconstruction
TP_SYMLINKS
p2567
(dp2568
g237
(dp2569
VATTR_232
p2570
VS4_238
p2571
sVENT_231
p2572
VS1_235
p2573
ssg28
I229
sg7
g162
sbsg243
VN
p2574
sg245
I2
sg7
VREL_SPA
p2575
sg247
(iconstruction
TP_SEMFRAME
p2576
(dp2577
g144
g0
(g132
g2
Ntp2578
Rp2579
(dp2580
g136
(dp2581
(iconstruction
TP_NODE
p2582
(dp2583
g256
I00
sg257
g260
sg7
VEVT_230
p2584
sg1314
I01
sg1315
I00
sg28
I230
sb(dp2585
g1314
I01
sg257
g260
ss(iconstruction
TP_NODE
p2586
(dp2587
g256
I00
sg257
g805
sg7
g2570
sg1314
I00
sg1315
I00
sg28
I232
sb(dp2588
g1314
I00
sg257
g805
ss(iconstruction
TP_NODE
p2589
(dp2590
g256
I01
sg257
g901
sg7
g2572
sg1314
I01
sg1315
I01
sg28
I231
sb(dp2591
g1314
I01
sg257
g901
sssg138
g139
sg140
g139
sg141
(dp2592
g2582
(dp2593
g2586
(dp2594
g257
g853
ssg2589
(dp2595
g257
g895
sssg2586
(dp2596
sg2589
(dp2597
ssg143
g2592
sg144
(dp2598
sg146
g139
sg147
g2592
sg148
(dp2599
g2582
(dp2600
sg2586
(dp2601
g2582
g2594
ssg2589
(dp2602
g2582
g2595
sssbsg739
(lp2603
g2582
ag2589
ag2586
asg1011
(lp2604
(iconstruction
TP_REL
p2605
(dp2606
g1017
g2589
sg257
g895
sg28
I233
sg1018
g2582
sg7
VIS_233
p2607
sba(iconstruction
TP_REL
p2608
(dp2609
g1017
g2586
sg257
g853
sg28
I234
sg1018
g2582
sg7
VEVT_ATTR_234
p2610
sbasg28
I227
sg7
g162
sbsg1329
(iconstruction
TP_SYNFORM
p2611
(dp2612
g28
I228
sg1332
(lp2613
(iconstruction
TP_SLOT
p2614
(dp2615
g1336
(lp2616
VN
p2617
asg1339
I0
sg28
I235
sg7
g2573
sba(iconstruction
TP_PHON
p2618
(dp2619
g1342
I4
sg1339
I1
sg28
I236
sg1343
Vthat
p2620
sg7
VS2_236
p2621
sba(iconstruction
TP_PHON
p2622
(dp2623
g1342
I2
sg1339
I2
sg28
I237
sg1343
Vis
p2624
sg7
VS3_237
p2625
sba(iconstruction
TP_SLOT
p2626
(dp2627
g1336
(lp2628
VA
p2629
asg1339
I3
sg28
I238
sg7
g2571
sbasg7
g162
sbsg1350
I1
sba(iconstruction
CXN
p2630
(dp2631
g234
(iconstruction
TP_SYMLINKS
p2632
(dp2633
g237
(dp2634
VAGT_244
p2635
VS1_251
p2636
sVCOLOR_246
p2637
VS3_253
p2638
ssg28
I241
sg7
g162
sbsg243
VN
p2639
sg245
I2
sg7
VIN_COLOR
p2640
sg247
(iconstruction
TP_SEMFRAME
p2641
(dp2642
g144
g0
(g132
g2
Ntp2643
Rp2644
(dp2645
g136
(dp2646
(iconstruction
TP_NODE
p2647
(dp2648
g256
I00
sg257
g260
sg7
VEVT_242
p2649
sg1314
I01
sg1315
I00
sg28
I242
sb(dp2650
g1314
I01
sg257
g260
ss(iconstruction
TP_NODE
p2651
(dp2652
g256
I01
sg257
g910
sg7
g2635
sg1314
I01
sg1315
I00
sg28
I244
sb(dp2653
g1314
I01
sg257
g910
ss(iconstruction
TP_NODE
p2654
(dp2655
g256
I00
sg257
g940
sg7
VPT_245
p2656
sg1314
I01
sg1315
I00
sg28
I245
sb(dp2657
g1314
I01
sg257
g940
ss(iconstruction
TP_NODE
p2658
(dp2659
g256
I00
sg257
g808
sg7
g2637
sg1314
I00
sg1315
I01
sg28
I246
sb(dp2660
g1314
I00
sg257
g808
ss(iconstruction
TP_NODE
p2661
(dp2662
g256
I00
sg257
g793
sg7
VACT_243
p2663
sg1314
I01
sg1315
I00
sg28
I243
sb(dp2664
g1314
I01
sg257
g793
sssg138
g139
sg140
g139
sg141
(dp2665
g2647
(dp2666
g2661
(dp2667
g257
g895
sssg2651
(dp2668
sg2654
(dp2669
g2658
(dp2670
g257
g853
sssg2658
(dp2671
sg2661
(dp2672
g2651
(dp2673
g257
g874
ssg2654
(dp2674
g257
g868
ssssg143
g2665
sg144
(dp2675
sg146
g139
sg147
g2665
sg148
(dp2676
g2647
(dp2677
sg2651
(dp2678
g2661
g2673
ssg2654
(dp2679
g2661
g2674
ssg2658
(dp2680
g2654
g2670
ssg2661
(dp2681
g2647
g2667
sssbsg739
(lp2682
g2647
ag2661
ag2651
ag2654
ag2658
asg1011
(lp2683
(iconstruction
TP_REL
p2684
(dp2685
g1017
g2661
sg257
g895
sg28
I247
sg1018
g2647
sg7
VIS_247
p2686
sba(iconstruction
TP_REL
p2687
(dp2688
g1017
g2651
sg257
g874
sg28
I248
sg1018
g2661
sg7
VACT_AGT_248
p2689
sba(iconstruction
TP_REL
p2690
(dp2691
g1017
g2654
sg257
g868
sg28
I249
sg1018
g2661
sg7
VACT_PT_249
p2692
sba(iconstruction
TP_REL
p2693
(dp2694
g1017
g2658
sg257
g853
sg28
I250
sg1018
g2654
sg7
VPT_COLOR_250
p2695
sbasg28
I239
sg7
g162
sbsg1329
(iconstruction
TP_SYNFORM
p2696
(dp2697
g28
I240
sg1332
(lp2698
(iconstruction
TP_SLOT
p2699
(dp2700
g1336
(lp2701
VN
p2702
asg1339
I0
sg28
I251
sg7
g2636
sba(iconstruction
TP_PHON
p2703
(dp2704
g1342
I2
sg1339
I1
sg28
I252
sg1343
Vin
p2705
sg7
VS2_252
p2706
sba(iconstruction
TP_SLOT
p2707
(dp2708
g1336
(lp2709
VA
p2710
asg1339
I2
sg28
I253
sg7
g2638
sbasg7
g162
sbsg1350
I1
sba(iconstruction
CXN
p2711
(dp2712
g234
(iconstruction
TP_SYMLINKS
p2713
(dp2714
g237
(dp2715
VN1_258
p2716
VS1_260
p2717
ssg28
I256
sg7
g162
sbsg243
VV
p2718
sg245
I1
sg7
VHIT
p2719
sg247
(iconstruction
TP_SEMFRAME
p2720
(dp2721
g144
g0
(g132
g2
Ntp2722
Rp2723
(dp2724
g136
(dp2725
(iconstruction
TP_NODE
p2726
(dp2727
g256
I00
sg257
g769
sg7
g2716
sg1314
I00
sg1315
I00
sg28
I258
sb(dp2728
g1314
I00
sg257
g769
ss(iconstruction
TP_NODE
p2729
(dp2730
g256
I01
sg257
g748
sg7
VACT_257
p2731
sg1314
I01
sg1315
I00
sg28
I257
sb(dp2732
g1314
I01
sg257
g748
sssg138
g139
sg140
g139
sg141
(dp2733
g2726
(dp2734
sg2729
(dp2735
g2726
(dp2736
g257
g895
ssssg143
g2733
sg144
(dp2737
sg146
g139
sg147
g2733
sg148
(dp2738
g2726
(dp2739
g2729
g2736
ssg2729
(dp2740
ssbsg739
(lp2741
g2729
ag2726
asg1011
(lp2742
(iconstruction
TP_REL
p2743
(dp2744
g1017
g2726
sg257
g895
sg28
I259
sg1018
g2729
sg7
VIS_259
p2745
sbasg28
I254
sg7
g162
sbsg1329
(iconstruction
TP_SYNFORM
p2746
(dp2747
g28
I255
sg1332
(lp2748
(iconstruction
TP_PHON
p2749
(dp2750
g1342
I3
sg1339
I0
sg28
I260
sg1343
Vhit
p2751
sg7
g2717
sbasg7
g162
sbsg1350
I1
sba(iconstruction
CXN
p2752
(dp2753
g234
(iconstruction
TP_SYMLINKS
p2754
(dp2755
g237
(dp2756
VN1_265
p2757
VS1_267
p2758
ssg28
I263
sg7
g162
sbsg243
VV
p2759
sg245
I1
sg7
VKICK
p2760
sg247
(iconstruction
TP_SEMFRAME
p2761
(dp2762
g144
g0
(g132
g2
Ntp2763
Rp2764
(dp2765
g136
(dp2766
(iconstruction
TP_NODE
p2767
(dp2768
g256
I01
sg257
g748
sg7
VACT_264
p2769
sg1314
I01
sg1315
I00
sg28
I264
sb(dp2770
g1314
I01
sg257
g748
ss(iconstruction
TP_NODE
p2771
(dp2772
g256
I00
sg257
g790
sg7
g2757
sg1314
I00
sg1315
I00
sg28
I265
sb(dp2773
g1314
I00
sg257
g790
sssg138
g139
sg140
g139
sg141
(dp2774
g2767
(dp2775
g2771
(dp2776
g257
g895
sssg2771
(dp2777
ssg143
g2774
sg144
(dp2778
sg146
g139
sg147
g2774
sg148
(dp2779
g2767
(dp2780
sg2771
(dp2781
g2767
g2776
sssbsg739
(lp2782
g2767
ag2771
asg1011
(lp2783
(iconstruction
TP_REL
p2784
(dp2785
g1017
g2771
sg257
g895
sg28
I266
sg1018
g2767
sg7
VIS_266
p2786
sbasg28
I261
sg7
g162
sbsg1329
(iconstruction
TP_SYNFORM
p2787
(dp2788
g28
I262
sg1332
(lp2789
(iconstruction
TP_PHON
p2790
(dp2791
g1342
I4
sg1339
I0
sg28
I267
sg1343
Vkick
p2792
sg7
g2758
sbasg7
g162
sbsg1350
I1
sba(iconstruction
CXN
p2793
(dp2794
g234
(iconstruction
TP_SYMLINKS
p2795
(dp2796
g237
(dp2797
VN1_272
p2798
VS1_274
p2799
ssg28
I270
sg7
g162
sbsg243
VV
p2800
sg245
I1
sg7
VPUNCH
p2801
sg247
(iconstruction
TP_SEMFRAME
p2802
(dp2803
g144
g0
(g132
g2
Ntp2804
Rp2805
(dp2806
g136
(dp2807
(iconstruction
TP_NODE
p2808
(dp2809
g256
I00
sg257
g775
sg7
g2798
sg1314
I00
sg1315
I00
sg28
I272
sb(dp2810
g1314
I00
sg257
g775
ss(iconstruction
TP_NODE
p2811
(dp2812
g256
I01
sg257
g748
sg7
VACT_271
p2813
sg1314
I01
sg1315
I00
sg28
I271
sb(dp2814
g1314
I01
sg257
g748
sssg138
g139
sg140
g139
sg141
(dp2815
g2808
(dp2816
sg2811
(dp2817
g2808
(dp2818
g257
g895
ssssg143
g2815
sg144
(dp2819
sg146
g139
sg147
g2815
sg148
(dp2820
g2808
(dp2821
g2811
g2818
ssg2811
(dp2822
ssbsg739
(lp2823
g2811
ag2808
asg1011
(lp2824
(iconstruction
TP_REL
p2825
(dp2826
g1017
g2808
sg257
g895
sg28
I273
sg1018
g2811
sg7
VIS_273
p2827
sbasg28
I268
sg7
g162
sbsg1329
(iconstruction
TP_SYNFORM
p2828
(dp2829
g28
I269
sg1332
(lp2830
(iconstruction
TP_PHON
p2831
(dp2832
g1342
I5
sg1339
I0
sg28
I274
sg1343
Vpunch
p2833
sg7
g2799
sbasg7
g162
sbsg1350
I1
sba(iconstruction
CXN
p2834
(dp2835
g234
(iconstruction
TP_SYMLINKS
p2836
(dp2837
g237
(dp2838
VN1_279
p2839
VS1_281
p2840
ssg28
I277
sg7
g162
sbsg243
VV
p2841
sg245
I1
sg7
VWEAR
p2842
sg247
(iconstruction
TP_SEMFRAME
p2843
(dp2844
g144
g0
(g132
g2
Ntp2845
Rp2846
(dp2847
g136
(dp2848
(iconstruction
TP_NODE
p2849
(dp2850
g256
I00
sg257
g793
sg7
g2839
sg1314
I00
sg1315
I00
sg28
I279
sb(dp2851
g1314
I00
sg257
g793
ss(iconstruction
TP_NODE
p2852
(dp2853
g256
I01
sg257
g748
sg7
VACT_278
p2854
sg1314
I01
sg1315
I00
sg28
I278
sb(dp2855
g1314
I01
sg257
g748
sssg138
g139
sg140
g139
sg141
(dp2856
g2849
(dp2857
sg2852
(dp2858
g2849
(dp2859
g257
g895
ssssg143
g2856
sg144
(dp2860
sg146
g139
sg147
g2856
sg148
(dp2861
g2849
(dp2862
g2852
g2859
ssg2852
(dp2863
ssbsg739
(lp2864
g2852
ag2849
asg1011
(lp2865
(iconstruction
TP_REL
p2866
(dp2867
g1017
g2849
sg257
g895
sg28
I280
sg1018
g2852
sg7
VIS_280
p2868
sbasg28
I275
sg7
g162
sbsg1329
(iconstruction
TP_SYNFORM
p2869
(dp2870
g28
I276
sg1332
(lp2871
(iconstruction
TP_PHON
p2872
(dp2873
g1342
I4
sg1339
I0
sg28
I281
sg1343
Vwear
p2874
sg7
g2840
sbasg7
g162
sbsg1350
I1
sba(iconstruction
CXN
p2875
(dp2876
g234
(iconstruction
TP_SYMLINKS
p2877
(dp2878
g237
(dp2879
VN1_286
p2880
VS1_288
p2881
ssg28
I284
sg7
g162
sbsg243
VV
p2882
sg245
I1
sg7
VLAUGH
p2883
sg247
(iconstruction
TP_SEMFRAME
p2884
(dp2885
g144
g0
(g132
g2
Ntp2886
Rp2887
(dp2888
g136
(dp2889
(iconstruction
TP_NODE
p2890
(dp2891
g256
I01
sg257
g748
sg7
VACT_285
p2892
sg1314
I01
sg1315
I00
sg28
I285
sb(dp2893
g1314
I01
sg257
g748
ss(iconstruction
TP_NODE
p2894
(dp2895
g256
I00
sg257
g763
sg7
g2880
sg1314
I00
sg1315
I00
sg28
I286
sb(dp2896
g1314
I00
sg257
g763
sssg138
g139
sg140
g139
sg141
(dp2897
g2890
(dp2898
g2894
(dp2899
g257
g895
sssg2894
(dp2900
ssg143
g2897
sg144
(dp2901
sg146
g139
sg147
g2897
sg148
(dp2902
g2890
(dp2903
sg2894
(dp2904
g2890
g2899
sssbsg739
(lp2905
g2890
ag2894
asg1011
(lp2906
(iconstruction
TP_REL
p2907
(dp2908
g1017
g2894
sg257
g895
sg28
I287
sg1018
g2890
sg7
VIS_287
p2909
sbasg28
I282
sg7
g162
sbsg1329
(iconstruction
TP_SYNFORM
p2910
(dp2911
g28
I283
sg1332
(lp2912
(iconstruction
TP_PHON
p2913
(dp2914
g1342
I5
sg1339
I0
sg28
I288
sg1343
Vlaugh
p2915
sg7
g2881
sbasg7
g162
sbsg1350
I1
sba(iconstruction
CXN
p2916
(dp2917
g234
(iconstruction
TP_SYMLINKS
p2918
(dp2919
g237
(dp2920
VN1_293
p2921
VS1_295
p2922
ssg28
I291
sg7
g162
sbsg243
VV
p2923
sg245
I1
sg7
VWATCH
p2924
sg247
(iconstruction
TP_SEMFRAME
p2925
(dp2926
g144
g0
(g132
g2
Ntp2927
Rp2928
(dp2929
g136
(dp2930
(iconstruction
TP_NODE
p2931
(dp2932
g256
I00
sg257
g772
sg7
g2921
sg1314
I00
sg1315
I00
sg28
I293
sb(dp2933
g1314
I00
sg257
g772
ss(iconstruction
TP_NODE
p2934
(dp2935
g256
I01
sg257
g748
sg7
VACT_292
p2936
sg1314
I01
sg1315
I00
sg28
I292
sb(dp2937
g1314
I01
sg257
g748
sssg138
g139
sg140
g139
sg141
(dp2938
g2931
(dp2939
sg2934
(dp2940
g2931
(dp2941
g257
g895
ssssg143
g2938
sg144
(dp2942
sg146
g139
sg147
g2938
sg148
(dp2943
g2931
(dp2944
g2934
g2941
ssg2934
(dp2945
ssbsg739
(lp2946
g2934
ag2931
asg1011
(lp2947
(iconstruction
TP_REL
p2948
(dp2949
g1017
g2931
sg257
g895
sg28
I294
sg1018
g2934
sg7
VIS_294
p2950
sbasg28
I289
sg7
g162
sbsg1329
(iconstruction
TP_SYNFORM
p2951
(dp2952
g28
I290
sg1332
(lp2953
(iconstruction
TP_PHON
p2954
(dp2955
g1342
I5
sg1339
I0
sg28
I295
sg1343
Vwatch
p2956
sg7
g2922
sbasg7
g162
sbsg1350
I1
sba(iconstruction
CXN
p2957
(dp2958
g234
(iconstruction
TP_SYMLINKS
p2959
(dp2960
g237
(dp2961
VN1_300
p2962
VS1_302
p2963
ssg28
I298
sg7
g162
sbsg243
VV
p2964
sg245
I1
sg7
VTALK
p2965
sg247
(iconstruction
TP_SEMFRAME
p2966
(dp2967
g144
g0
(g132
g2
Ntp2968
Rp2969
(dp2970
g136
(dp2971
(iconstruction
TP_NODE
p2972
(dp2973
g256
I01
sg257
g748
sg7
VACT_299
p2974
sg1314
I01
sg1315
I00
sg28
I299
sb(dp2975
g1314
I01
sg257
g748
ss(iconstruction
TP_NODE
p2976
(dp2977
g256
I00
sg257
g781
sg7
g2962
sg1314
I00
sg1315
I00
sg28
I300
sb(dp2978
g1314
I00
sg257
g781
sssg138
g139
sg140
g139
sg141
(dp2979
g2972
(dp2980
g2976
(dp2981
g257
g895
sssg2976
(dp2982
ssg143
g2979
sg144
(dp2983
sg146
g139
sg147
g2979
sg148
(dp2984
g2972
(dp2985
sg2976
(dp2986
g2972
g2981
sssbsg739
(lp2987
g2972
ag2976
asg1011
(lp2988
(iconstruction
TP_REL
p2989
(dp2990
g1017
g2976
sg257
g895
sg28
I301
sg1018
g2972
sg7
VIS_301
p2991
sbasg28
I296
sg7
g162
sbsg1329
(iconstruction
TP_SYNFORM
p2992
(dp2993
g28
I297
sg1332
(lp2994
(iconstruction
TP_PHON
p2995
(dp2996
g1342
I4
sg1339
I0
sg28
I302
sg1343
Vtalk
p2997
sg7
g2963
sba(iconstruction
TP_PHON
p2998
(dp2999
g1342
I2
sg1339
I1
sg28
I303
sg1343
Vto
p3000
sg7
VS2_303
p3001
sbasg7
g162
sbsg1350
I1
sba(iconstruction
CXN
p3002
(dp3003
g234
(iconstruction
TP_SYMLINKS
p3004
(dp3005
g237
(dp3006
VN1_308
p3007
VS1_310
p3008
ssg28
I306
sg7
g162
sbsg243
VV
p3009
sg245
I1
sg7
VSQUIRT
p3010
sg247
(iconstruction
TP_SEMFRAME
p3011
(dp3012
g144
g0
(g132
g2
Ntp3013
Rp3014
(dp3015
g136
(dp3016
(iconstruction
TP_NODE
p3017
(dp3018
g256
I01
sg257
g748
sg7
VACT_307
p3019
sg1314
I01
sg1315
I00
sg28
I307
sb(dp3020
g1314
I01
sg257
g748
ss(iconstruction
TP_NODE
p3021
(dp3022
g256
I00
sg257
g787
sg7
g3007
sg1314
I00
sg1315
I00
sg28
I308
sb(dp3023
g1314
I00
sg257
g787
sssg138
g139
sg140
g139
sg141
(dp3024
g3017
(dp3025
g3021
(dp3026
g257
g895
sssg3021
(dp3027
ssg143
g3024
sg144
(dp3028
sg146
g139
sg147
g3024
sg148
(dp3029
g3017
(dp3030
sg3021
(dp3031
g3017
g3026
sssbsg739
(lp3032
g3017
ag3021
asg1011
(lp3033
(iconstruction
TP_REL
p3034
(dp3035
g1017
g3021
sg257
g895
sg28
I309
sg1018
g3017
sg7
VIS_309
p3036
sbasg28
I304
sg7
g162
sbsg1329
(iconstruction
TP_SYNFORM
p3037
(dp3038
g28
I305
sg1332
(lp3039
(iconstruction
TP_PHON
p3040
(dp3041
g1342
I6
sg1339
I0
sg28
I310
sg1343
Vsquirt
p3042
sg7
g3008
sba(iconstruction
TP_PHON
p3043
(dp3044
g1342
I2
sg1339
I1
sg28
I311
sg1343
Vat
p3045
sg7
VS2_311
p3046
sbasg7
g162
sbsg1350
I1
sba(iconstruction
CXN
p3047
(dp3048
g234
(iconstruction
TP_SYMLINKS
p3049
(dp3050
g237
(dp3051
VN1_316
p3052
VS1_318
p3053
ssg28
I314
sg7
g162
sbsg243
VV
p3054
sg245
I1
sg7
VSPLASH
p3055
sg247
(iconstruction
TP_SEMFRAME
p3056
(dp3057
g144
g0
(g132
g2
Ntp3058
Rp3059
(dp3060
g136
(dp3061
(iconstruction
TP_NODE
p3062
(dp3063
g256
I00
sg257
g778
sg7
g3052
sg1314
I00
sg1315
I00
sg28
I316
sb(dp3064
g1314
I00
sg257
g778
ss(iconstruction
TP_NODE
p3065
(dp3066
g256
I01
sg257
g748
sg7
VACT_315
p3067
sg1314
I01
sg1315
I00
sg28
I315
sb(dp3068
g1314
I01
sg257
g748
sssg138
g139
sg140
g139
sg141
(dp3069
g3062
(dp3070
sg3065
(dp3071
g3062
(dp3072
g257
g895
ssssg143
g3069
sg144
(dp3073
sg146
g139
sg147
g3069
sg148
(dp3074
g3062
(dp3075
g3065
g3072
ssg3065
(dp3076
ssbsg739
(lp3077
g3065
ag3062
asg1011
(lp3078
(iconstruction
TP_REL
p3079
(dp3080
g1017
g3062
sg257
g895
sg28
I317
sg1018
g3065
sg7
VIS_317
p3081
sbasg28
I312
sg7
g162
sbsg1329
(iconstruction
TP_SYNFORM
p3082
(dp3083
g28
I313
sg1332
(lp3084
(iconstruction
TP_PHON
p3085
(dp3086
g1342
I6
sg1339
I0
sg28
I318
sg1343
Vsplash
p3087
sg7
g3053
sbasg7
g162
sbsg1350
I1
sba(iconstruction
CXN
p3088
(dp3089
g234
(iconstruction
TP_SYMLINKS
p3090
(dp3091
g237
(dp3092
VN1_323
p3093
VS1_325
p3094
ssg28
I321
sg7
g162
sbsg243
VV
p3095
sg245
I1
sg7
VGIVE
p3096
sg247
(iconstruction
TP_SEMFRAME
p3097
(dp3098
g144
g0
(g132
g2
Ntp3099
Rp3100
(dp3101
g136
(dp3102
(iconstruction
TP_NODE
p3103
(dp3104
g256
I01
sg257
g748
sg7
VACT_322
p3105
sg1314
I01
sg1315
I00
sg28
I322
sb(dp3106
g1314
I01
sg257
g748
ss(iconstruction
TP_NODE
p3107
(dp3108
g256
I00
sg257
g802
sg7
g3093
sg1314
I00
sg1315
I00
sg28
I323
sb(dp3109
g1314
I00
sg257
g802
sssg138
g139
sg140
g139
sg141
(dp3110
g3103
(dp3111
g3107
(dp3112
g257
g895
sssg3107
(dp3113
ssg143
g3110
sg144
(dp3114
sg146
g139
sg147
g3110
sg148
(dp3115
g3103
(dp3116
sg3107
(dp3117
g3103
g3112
sssbsg739
(lp3118
g3103
ag3107
asg1011
(lp3119
(iconstruction
TP_REL
p3120
(dp3121
g1017
g3107
sg257
g895
sg28
I324
sg1018
g3103
sg7
VIS_324
p3122
sbasg28
I319
sg7
g162
sbsg1329
(iconstruction
TP_SYNFORM
p3123
(dp3124
g28
I320
sg1332
(lp3125
(iconstruction
TP_PHON
p3126
(dp3127
g1342
I4
sg1339
I0
sg28
I325
sg1343
Vgive
p3128
sg7
g3094
sbasg7
g162
sbsg1350
I1
sba(iconstruction
CXN
p3129
(dp3130
g234
(iconstruction
TP_SYMLINKS
p3131
(dp3132
g237
(dp3133
VN1_330
p3134
VS1_332
p3135
ssg28
I328
sg7
g162
sbsg243
VV
p3136
sg245
I1
sg7
VSEND
p3137
sg247
(iconstruction
TP_SEMFRAME
p3138
(dp3139
g144
g0
(g132
g2
Ntp3140
Rp3141
(dp3142
g136
(dp3143
(iconstruction
TP_NODE
p3144
(dp3145
g256
I00
sg257
g799
sg7
g3134
sg1314
I00
sg1315
I00
sg28
I330
sb(dp3146
g1314
I00
sg257
g799
ss(iconstruction
TP_NODE
p3147
(dp3148
g256
I01
sg257
g748
sg7
VACT_329
p3149
sg1314
I01
sg1315
I00
sg28
I329
sb(dp3150
g1314
I01
sg257
g748
sssg138
g139
sg140
g139
sg141
(dp3151
g3144
(dp3152
sg3147
(dp3153
g3144
(dp3154
g257
g895
ssssg143
g3151
sg144
(dp3155
sg146
g139
sg147
g3151
sg148
(dp3156
g3144
(dp3157
g3147
g3154
ssg3147
(dp3158
ssbsg739
(lp3159
g3147
ag3144
asg1011
(lp3160
(iconstruction
TP_REL
p3161
(dp3162
g1017
g3144
sg257
g895
sg28
I331
sg1018
g3147
sg7
VIS_331
p3163
sbasg28
I326
sg7
g162
sbsg1329
(iconstruction
TP_SYNFORM
p3164
(dp3165
g28
I327
sg1332
(lp3166
(iconstruction
TP_PHON
p3167
(dp3168
g1342
I4
sg1339
I0
sg28
I332
sg1343
Vsend
p3169
sg7
g3135
sbasg7
g162
sbsg1350
I1
sba(iconstruction
CXN
p3170
(dp3171
g234
(iconstruction
TP_SYMLINKS
p3172
(dp3173
g237
(dp3174
VN1_337
p3175
VS1_339
p3176
ssg28
I335
sg7
g162
sbsg243
VV
p3177
sg245
I1
sg7
VMEET
p3178
sg247
(iconstruction
TP_SEMFRAME
p3179
(dp3180
g144
g0
(g132
g2
Ntp3181
Rp3182
(dp3183
g136
(dp3184
(iconstruction
TP_NODE
p3185
(dp3186
g256
I01
sg257
g748
sg7
VACT_336
p3187
sg1314
I01
sg1315
I00
sg28
I336
sb(dp3188
g1314
I01
sg257
g748
ss(iconstruction
TP_NODE
p3189
(dp3190
g256
I00
sg257
g754
sg7
g3175
sg1314
I00
sg1315
I00
sg28
I337
sb(dp3191
g1314
I00
sg257
g754
sssg138
g139
sg140
g139
sg141
(dp3192
g3185
(dp3193
g3189
(dp3194
g257
g895
sssg3189
(dp3195
ssg143
g3192
sg144
(dp3196
sg146
g139
sg147
g3192
sg148
(dp3197
g3185
(dp3198
sg3189
(dp3199
g3185
g3194
sssbsg739
(lp3200
g3185
ag3189
asg1011
(lp3201
(iconstruction
TP_REL
p3202
(dp3203
g1017
g3189
sg257
g895
sg28
I338
sg1018
g3185
sg7
VIS_338
p3204
sbasg28
I333
sg7
g162
sbsg1329
(iconstruction
TP_SYNFORM
p3205
(dp3206
g28
I334
sg1332
(lp3207
(iconstruction
TP_PHON
p3208
(dp3209
g1342
I4
sg1339
I0
sg28
I339
sg1343
Vmeet
p3210
sg7
g3176
sbasg7
g162
sbsg1350
I1
sba(iconstruction
CXN
p3211
(dp3212
g234
(iconstruction
TP_SYMLINKS
p3213
(dp3214
g237
(dp3215
VN1_344
p3216
VS1_346
p3217
ssg28
I342
sg7
g162
sbsg243
VV
p3218
sg245
I1
sg7
VKISS
p3219
sg247
(iconstruction
TP_SEMFRAME
p3220
(dp3221
g144
g0
(g132
g2
Ntp3222
Rp3223
(dp3224
g136
(dp3225
(iconstruction
TP_NODE
p3226
(dp3227
g256
I00
sg257
g784
sg7
g3216
sg1314
I00
sg1315
I00
sg28
I344
sb(dp3228
g1314
I00
sg257
g784
ss(iconstruction
TP_NODE
p3229
(dp3230
g256
I01
sg257
g748
sg7
VACT_343
p3231
sg1314
I01
sg1315
I00
sg28
I343
sb(dp3232
g1314
I01
sg257
g748
sssg138
g139
sg140
g139
sg141
(dp3233
g3226
(dp3234
sg3229
(dp3235
g3226
(dp3236
g257
g895
ssssg143
g3233
sg144
(dp3237
sg146
g139
sg147
g3233
sg148
(dp3238
g3226
(dp3239
g3229
g3236
ssg3229
(dp3240
ssbsg739
(lp3241
g3229
ag3226
asg1011
(lp3242
(iconstruction
TP_REL
p3243
(dp3244
g1017
g3226
sg257
g895
sg28
I345
sg1018
g3229
sg7
VIS_345
p3245
sbasg28
I340
sg7
g162
sbsg1329
(iconstruction
TP_SYNFORM
p3246
(dp3247
g28
I341
sg1332
(lp3248
(iconstruction
TP_PHON
p3249
(dp3250
g1342
I4
sg1339
I0
sg28
I346
sg1343
Vkiss
p3251
sg7
g3217
sbasg7
g162
sbsg1350
I1
sba(iconstruction
CXN
p3252
(dp3253
g234
(iconstruction
TP_SYMLINKS
p3254
(dp3255
g237
(dp3256
VN1_351
p3257
VS1_353
p3258
ssg28
I349
sg7
g162
sbsg243
VV
p3259
sg245
I1
sg7
VSHAKE_HANDS
p3260
sg247
(iconstruction
TP_SEMFRAME
p3261
(dp3262
g144
g0
(g132
g2
Ntp3263
Rp3264
(dp3265
g136
(dp3266
(iconstruction
TP_NODE
p3267
(dp3268
g256
I01
sg257
g748
sg7
VACT_350
p3269
sg1314
I01
sg1315
I00
sg28
I350
sb(dp3270
g1314
I01
sg257
g748
ss(iconstruction
TP_NODE
p3271
(dp3272
g256
I00
sg257
g757
sg7
g3257
sg1314
I00
sg1315
I00
sg28
I351
sb(dp3273
g1314
I00
sg257
g757
sssg138
g139
sg140
g139
sg141
(dp3274
g3267
(dp3275
g3271
(dp3276
g257
g895
sssg3271
(dp3277
ssg143
g3274
sg144
(dp3278
sg146
g139
sg147
g3274
sg148
(dp3279
g3267
(dp3280
sg3271
(dp3281
g3267
g3276
sssbsg739
(lp3282
g3267
ag3271
asg1011
(lp3283
(iconstruction
TP_REL
p3284
(dp3285
g1017
g3271
sg257
g895
sg28
I352
sg1018
g3267
sg7
VIS_352
p3286
sbasg28
I347
sg7
g162
sbsg1329
(iconstruction
TP_SYNFORM
p3287
(dp3288
g28
I348
sg1332
(lp3289
(iconstruction
TP_PHON
p3290
(dp3291
g1342
I10
sg1339
I0
sg28
I353
sg1343
Vshake hands
p3292
sg7
g3258
sbasg7
g162
sbsg1350
I1
sba(iconstruction
CXN
p3293
(dp3294
g234
(iconstruction
TP_SYMLINKS
p3295
(dp3296
g237
(dp3297
VN1_357
p3298
VS1_358
p3299
ssg28
I356
sg7
g162
sbsg243
VA
p3300
sg245
I1
sg7
VBLUE
p3301
sg247
(iconstruction
TP_SEMFRAME
p3302
(dp3303
g144
g0
(g132
g2
Ntp3304
Rp3305
(dp3306
g136
(dp3307
(iconstruction
TP_NODE
p3308
(dp3309
g256
I01
sg257
g811
sg7
g3298
sg1314
I00
sg1315
I00
sg28
I357
sb(dp3310
g1314
I00
sg257
g811
sssg138
g139
sg140
g139
sg141
(dp3311
g3308
(dp3312
ssg143
g3311
sg144
(dp3313
sg146
g139
sg147
g3311
sg148
(dp3314
g3308
(dp3315
ssbsg739
(lp3316
g3308
asg1011
(lp3317
sg28
I354
sg7
g162
sbsg1329
(iconstruction
TP_SYNFORM
p3318
(dp3319
g28
I355
sg1332
(lp3320
(iconstruction
TP_PHON
p3321
(dp3322
g1342
I4
sg1339
I0
sg28
I358
sg1343
Vblue
p3323
sg7
g3299
sbasg7
g162
sbsg1350
I1
sba(iconstruction
CXN
p3324
(dp3325
g234
(iconstruction
TP_SYMLINKS
p3326
(dp3327
g237
(dp3328
VN1_362
p3329
VS1_363
p3330
ssg28
I361
sg7
g162
sbsg243
VA
p3331
sg245
I1
sg7
VBLACK
p3332
sg247
(iconstruction
TP_SEMFRAME
p3333
(dp3334
g144
g0
(g132
g2
Ntp3335
Rp3336
(dp3337
g136
(dp3338
(iconstruction
TP_NODE
p3339
(dp3340
g256
I01
sg257
g820
sg7
g3329
sg1314
I00
sg1315
I00
sg28
I362
sb(dp3341
g1314
I00
sg257
g820
sssg138
g139
sg140
g139
sg141
(dp3342
g3339
(dp3343
ssg143
g3342
sg144
(dp3344
sg146
g139
sg147
g3342
sg148
(dp3345
g3339
(dp3346
ssbsg739
(lp3347
g3339
asg1011
(lp3348
sg28
I359
sg7
g162
sbsg1329
(iconstruction
TP_SYNFORM
p3349
(dp3350
g28
I360
sg1332
(lp3351
(iconstruction
TP_PHON
p3352
(dp3353
g1342
I5
sg1339
I0
sg28
I363
sg1343
Vblack
p3354
sg7
g3330
sbasg7
g162
sbsg1350
I1
sba(iconstruction
CXN
p3355
(dp3356
g234
(iconstruction
TP_SYMLINKS
p3357
(dp3358
g237
(dp3359
VN1_367
p3360
VS1_368
p3361
ssg28
I366
sg7
g162
sbsg243
VA
p3362
sg245
I1
sg7
VGREEN
p3363
sg247
(iconstruction
TP_SEMFRAME
p3364
(dp3365
g144
g0
(g132
g2
Ntp3366
Rp3367
(dp3368
g136
(dp3369
(iconstruction
TP_NODE
p3370
(dp3371
g256
I01
sg257
g814
sg7
g3360
sg1314
I00
sg1315
I00
sg28
I367
sb(dp3372
g1314
I00
sg257
g814
sssg138
g139
sg140
g139
sg141
(dp3373
g3370
(dp3374
ssg143
g3373
sg144
(dp3375
sg146
g139
sg147
g3373
sg148
(dp3376
g3370
(dp3377
ssbsg739
(lp3378
g3370
asg1011
(lp3379
sg28
I364
sg7
g162
sbsg1329
(iconstruction
TP_SYNFORM
p3380
(dp3381
g28
I365
sg1332
(lp3382
(iconstruction
TP_PHON
p3383
(dp3384
g1342
I5
sg1339
I0
sg28
I368
sg1343
Vgreen
p3385
sg7
g3361
sbasg7
g162
sbsg1350
I1
sba(iconstruction
CXN
p3386
(dp3387
g234
(iconstruction
TP_SYMLINKS
p3388
(dp3389
g237
(dp3390
VN1_372
p3391
VS1_373
p3392
ssg28
I371
sg7
g162
sbsg243
VA
p3393
sg245
I1
sg7
VSMALL
p3394
sg247
(iconstruction
TP_SEMFRAME
p3395
(dp3396
g144
g0
(g132
g2
Ntp3397
Rp3398
(dp3399
g136
(dp3400
(iconstruction
TP_NODE
p3401
(dp3402
g256
I01
sg257
g841
sg7
g3391
sg1314
I00
sg1315
I00
sg28
I372
sb(dp3403
g1314
I00
sg257
g841
sssg138
g139
sg140
g139
sg141
(dp3404
g3401
(dp3405
ssg143
g3404
sg144
(dp3406
sg146
g139
sg147
g3404
sg148
(dp3407
g3401
(dp3408
ssbsg739
(lp3409
g3401
asg1011
(lp3410
sg28
I369
sg7
g162
sbsg1329
(iconstruction
TP_SYNFORM
p3411
(dp3412
g28
I370
sg1332
(lp3413
(iconstruction
TP_PHON
p3414
(dp3415
g1342
I5
sg1339
I0
sg28
I373
sg1343
Vsmall
p3416
sg7
g3392
sbasg7
g162
sbsg1350
I1
sba(iconstruction
CXN
p3417
(dp3418
g234
(iconstruction
TP_SYMLINKS
p3419
(dp3420
g237
(dp3421
VN1_377
p3422
VS1_378
p3423
ssg28
I376
sg7
g162
sbsg243
VA
p3424
sg245
I1
sg7
VBIG
p3425
sg247
(iconstruction
TP_SEMFRAME
p3426
(dp3427
g144
g0
(g132
g2
Ntp3428
Rp3429
(dp3430
g136
(dp3431
(iconstruction
TP_NODE
p3432
(dp3433
g256
I01
sg257
g844
sg7
g3422
sg1314
I00
sg1315
I00
sg28
I377
sb(dp3434
g1314
I00
sg257
g844
sssg138
g139
sg140
g139
sg141
(dp3435
g3432
(dp3436
ssg143
g3435
sg144
(dp3437
sg146
g139
sg147
g3435
sg148
(dp3438
g3432
(dp3439
ssbsg739
(lp3440
g3432
asg1011
(lp3441
sg28
I374
sg7
g162
sbsg1329
(iconstruction
TP_SYNFORM
p3442
(dp3443
g28
I375
sg1332
(lp3444
(iconstruction
TP_PHON
p3445
(dp3446
g1342
I3
sg1339
I0
sg28
I378
sg1343
Vbig
p3447
sg7
g3423
sbasg7
g162
sbsg1350
I1
sba(iconstruction
CXN
p3448
(dp3449
g234
(iconstruction
TP_SYMLINKS
p3450
(dp3451
g237
(dp3452
VN1_382
p3453
VS1_383
p3454
ssg28
I381
sg7
g162
sbsg243
VA
p3455
sg245
I1
sg7
VHANDSOME
p3456
sg247
(iconstruction
TP_SEMFRAME
p3457
(dp3458
g144
g0
(g132
g2
Ntp3459
Rp3460
(dp3461
g136
(dp3462
(iconstruction
TP_NODE
p3463
(dp3464
g256
I01
sg257
g835
sg7
g3453
sg1314
I00
sg1315
I00
sg28
I382
sb(dp3465
g1314
I00
sg257
g835
sssg138
g139
sg140
g139
sg141
(dp3466
g3463
(dp3467
ssg143
g3466
sg144
(dp3468
sg146
g139
sg147
g3466
sg148
(dp3469
g3463
(dp3470
ssbsg739
(lp3471
g3463
asg1011
(lp3472
sg28
I379
sg7
g162
sbsg1329
(iconstruction
TP_SYNFORM
p3473
(dp3474
g28
I380
sg1332
(lp3475
(iconstruction
TP_PHON
p3476
(dp3477
g1342
I8
sg1339
I0
sg28
I383
sg1343
Vhandsome
p3478
sg7
g3454
sbasg7
g162
sbsg1350
I1
sba(iconstruction
CXN
p3479
(dp3480
g234
(iconstruction
TP_SYMLINKS
p3481
(dp3482
g237
(dp3483
VN1_387
p3484
VS1_388
p3485
ssg28
I386
sg7
g162
sbsg243
VA
p3486
sg245
I1
sg7
VPRETTY
p3487
sg247
(iconstruction
TP_SEMFRAME
p3488
(dp3489
g144
g0
(g132
g2
Ntp3490
Rp3491
(dp3492
g136
(dp3493
(iconstruction
TP_NODE
p3494
(dp3495
g256
I01
sg257
g832
sg7
g3484
sg1314
I00
sg1315
I00
sg28
I387
sb(dp3496
g1314
I00
sg257
g832
sssg138
g139
sg140
g139
sg141
(dp3497
g3494
(dp3498
ssg143
g3497
sg144
(dp3499
sg146
g139
sg147
g3497
sg148
(dp3500
g3494
(dp3501
ssbsg739
(lp3502
g3494
asg1011
(lp3503
sg28
I384
sg7
g162
sbsg1329
(iconstruction
TP_SYNFORM
p3504
(dp3505
g28
I385
sg1332
(lp3506
(iconstruction
TP_PHON
p3507
(dp3508
g1342
I6
sg1339
I0
sg28
I388
sg1343
Vpretty
p3509
sg7
g3485
sbasg7
g162
sbsg1350
I1
sba(iconstruction
CXN
p3510
(dp3511
g234
(iconstruction
TP_SYMLINKS
p3512
(dp3513
g237
(dp3514
VN1_392
p3515
VS1_393
p3516
ssg28
I391
sg7
g162
sbsg243
VA
p3517
sg245
I1
sg7
VYOUNG
p3518
sg247
(iconstruction
TP_SEMFRAME
p3519
(dp3520
g144
g0
(g132
g2
Ntp3521
Rp3522
(dp3523
g136
(dp3524
(iconstruction
TP_NODE
p3525
(dp3526
g256
I01
sg257
g829
sg7
g3515
sg1314
I00
sg1315
I00
sg28
I392
sb(dp3527
g1314
I00
sg257
g829
sssg138
g139
sg140
g139
sg141
(dp3528
g3525
(dp3529
ssg143
g3528
sg144
(dp3530
sg146
g139
sg147
g3528
sg148
(dp3531
g3525
(dp3532
ssbsg739
(lp3533
g3525
asg1011
(lp3534
sg28
I389
sg7
g162
sbsg1329
(iconstruction
TP_SYNFORM
p3535
(dp3536
g28
I390
sg1332
(lp3537
(iconstruction
TP_PHON
p3538
(dp3539
g1342
I5
sg1339
I0
sg28
I393
sg1343
Vyoung
p3540
sg7
g3516
sbasg7
g162
sbsg1350
I1
sba(iconstruction
CXN
p3541
(dp3542
g234
(iconstruction
TP_SYMLINKS
p3543
(dp3544
g237
(dp3545
VN1_398
p3546
VS1_400
p3547
ssg28
I396
sg7
g162
sbsg243
VN
p3548
sg245
I1
sg7
VWOMAN
p3549
sg247
(iconstruction
TP_SEMFRAME
p3550
(dp3551
g144
g0
(g132
g2
Ntp3552
Rp3553
(dp3554
g136
(dp3555
(iconstruction
TP_NODE
p3556
(dp3557
g256
I00
sg257
g967
sg7
g3546
sg1314
I00
sg1315
I00
sg28
I398
sb(dp3558
g1314
I00
sg257
g967
ss(iconstruction
TP_NODE
p3559
(dp3560
g256
I01
sg257
g901
sg7
VENT_397
p3561
sg1314
I01
sg1315
I00
sg28
I397
sb(dp3562
g1314
I01
sg257
g901
sssg138
g139
sg140
g139
sg141
(dp3563
g3556
(dp3564
sg3559
(dp3565
g3556
(dp3566
g257
g895
ssssg143
g3563
sg144
(dp3567
sg146
g139
sg147
g3563
sg148
(dp3568
g3556
(dp3569
g3559
g3566
ssg3559
(dp3570
ssbsg739
(lp3571
g3559
ag3556
asg1011
(lp3572
(iconstruction
TP_REL
p3573
(dp3574
g1017
g3556
sg257
g895
sg28
I399
sg1018
g3559
sg7
VIS_399
p3575
sbasg28
I394
sg7
g162
sbsg1329
(iconstruction
TP_SYNFORM
p3576
(dp3577
g28
I395
sg1332
(lp3578
(iconstruction
TP_PHON
p3579
(dp3580
g1342
I5
sg1339
I0
sg28
I400
sg1343
Vwoman
p3581
sg7
g3547
sbasg7
g162
sbsg1350
I1
sba(iconstruction
CXN
p3582
(dp3583
g234
(iconstruction
TP_SYMLINKS
p3584
(dp3585
g237
(dp3586
VN1_405
p3587
VS1_407
p3588
ssg28
I403
sg7
g162
sbsg243
VN
p3589
sg245
I1
sg7
VWOMAN2
p3590
sg247
(iconstruction
TP_SEMFRAME
p3591
(dp3592
g144
g0
(g132
g2
Ntp3593
Rp3594
(dp3595
g136
(dp3596
(iconstruction
TP_NODE
p3597
(dp3598
g256
I01
sg257
g901
sg7
VENT_404
p3599
sg1314
I01
sg1315
I00
sg28
I404
sb(dp3600
g1314
I01
sg257
g901
ss(iconstruction
TP_NODE
p3601
(dp3602
g256
I00
sg257
g967
sg7
g3587
sg1314
I00
sg1315
I00
sg28
I405
sb(dp3603
g1314
I00
sg257
g967
sssg138
g139
sg140
g139
sg141
(dp3604
g3597
(dp3605
g3601
(dp3606
g257
g895
sssg3601
(dp3607
ssg143
g3604
sg144
(dp3608
sg146
g139
sg147
g3604
sg148
(dp3609
g3597
(dp3610
sg3601
(dp3611
g3597
g3606
sssbsg739
(lp3612
g3597
ag3601
asg1011
(lp3613
(iconstruction
TP_REL
p3614
(dp3615
g1017
g3601
sg257
g895
sg28
I406
sg1018
g3597
sg7
VIS_406
p3616
sbasg28
I401
sg7
g162
sbsg1329
(iconstruction
TP_SYNFORM
p3617
(dp3618
g28
I402
sg1332
(lp3619
(iconstruction
TP_PHON
p3620
(dp3621
g1342
I4
sg1339
I0
sg28
I407
sg1343
Vlady
p3622
sg7
g3588
sbasg7
g162
sbsg1350
I1
sba(iconstruction
CXN
p3623
(dp3624
g234
(iconstruction
TP_SYMLINKS
p3625
(dp3626
g237
(dp3627
VN1_412
p3628
VS1_414
p3629
ssg28
I410
sg7
g162
sbsg243
VN
p3630
sg245
I1
sg7
VMAN
p3631
sg247
(iconstruction
TP_SEMFRAME
p3632
(dp3633
g144
g0
(g132
g2
Ntp3634
Rp3635
(dp3636
g136
(dp3637
(iconstruction
TP_NODE
p3638
(dp3639
g256
I00
sg257
g994
sg7
g3628
sg1314
I00
sg1315
I00
sg28
I412
sb(dp3640
g1314
I00
sg257
g994
ss(iconstruction
TP_NODE
p3641
(dp3642
g256
I01
sg257
g901
sg7
VENT_411
p3643
sg1314
I01
sg1315
I00
sg28
I411
sb(dp3644
g1314
I01
sg257
g901
sssg138
g139
sg140
g139
sg141
(dp3645
g3638
(dp3646
sg3641
(dp3647
g3638
(dp3648
g257
g895
ssssg143
g3645
sg144
(dp3649
sg146
g139
sg147
g3645
sg148
(dp3650
g3638
(dp3651
g3641
g3648
ssg3641
(dp3652
ssbsg739
(lp3653
g3641
ag3638
asg1011
(lp3654
(iconstruction
TP_REL
p3655
(dp3656
g1017
g3638
sg257
g895
sg28
I413
sg1018
g3641
sg7
VIS_413
p3657
sbasg28
I408
sg7
g162
sbsg1329
(iconstruction
TP_SYNFORM
p3658
(dp3659
g28
I409
sg1332
(lp3660
(iconstruction
TP_PHON
p3661
(dp3662
g1342
I3
sg1339
I0
sg28
I414
sg1343
Vman
p3663
sg7
g3629
sbasg7
g162
sbsg1350
I1
sba(iconstruction
CXN
p3664
(dp3665
g234
(iconstruction
TP_SYMLINKS
p3666
(dp3667
g237
(dp3668
VN1_419
p3669
VS1_421
p3670
ssg28
I417
sg7
g162
sbsg243
VN
p3671
sg245
I1
sg7
VGIRL
p3672
sg247
(iconstruction
TP_SEMFRAME
p3673
(dp3674
g144
g0
(g132
g2
Ntp3675
Rp3676
(dp3677
g136
(dp3678
(iconstruction
TP_NODE
p3679
(dp3680
g256
I01
sg257
g901
sg7
VENT_418
p3681
sg1314
I01
sg1315
I00
sg28
I418
sb(dp3682
g1314
I01
sg257
g901
ss(iconstruction
TP_NODE
p3683
(dp3684
g256
I00
sg257
g985
sg7
g3669
sg1314
I00
sg1315
I00
sg28
I419
sb(dp3685
g1314
I00
sg257
g985
sssg138
g139
sg140
g139
sg141
(dp3686
g3679
(dp3687
g3683
(dp3688
g257
g895
sssg3683
(dp3689
ssg143
g3686
sg144
(dp3690
sg146
g139
sg147
g3686
sg148
(dp3691
g3679
(dp3692
sg3683
(dp3693
g3679
g3688
sssbsg739
(lp3694
g3679
ag3683
asg1011
(lp3695
(iconstruction
TP_REL
p3696
(dp3697
g1017
g3683
sg257
g895
sg28
I420
sg1018
g3679
sg7
VIS_420
p3698
sbasg28
I415
sg7
g162
sbsg1329
(iconstruction
TP_SYNFORM
p3699
(dp3700
g28
I416
sg1332
(lp3701
(iconstruction
TP_PHON
p3702
(dp3703
g1342
I4
sg1339
I0
sg28
I421
sg1343
Vgirl
p3704
sg7
g3670
sbasg7
g162
sbsg1350
I1
sba(iconstruction
CXN
p3705
(dp3706
g234
(iconstruction
TP_SYMLINKS
p3707
(dp3708
g237
(dp3709
VN1_426
p3710
VS1_428
p3711
ssg28
I424
sg7
g162
sbsg243
VN
p3712
sg245
I1
sg7
VBOY
p3713
sg247
(iconstruction
TP_SEMFRAME
p3714
(dp3715
g144
g0
(g132
g2
Ntp3716
Rp3717
(dp3718
g136
(dp3719
(iconstruction
TP_NODE
p3720
(dp3721
g256
I00
sg257
g964
sg7
g3710
sg1314
I00
sg1315
I00
sg28
I426
sb(dp3722
g1314
I00
sg257
g964
ss(iconstruction
TP_NODE
p3723
(dp3724
g256
I01
sg257
g901
sg7
VENT_425
p3725
sg1314
I01
sg1315
I00
sg28
I425
sb(dp3726
g1314
I01
sg257
g901
sssg138
g139
sg140
g139
sg141
(dp3727
g3720
(dp3728
sg3723
(dp3729
g3720
(dp3730
g257
g895
ssssg143
g3727
sg144
(dp3731
sg146
g139
sg147
g3727
sg148
(dp3732
g3720
(dp3733
g3723
g3730
ssg3723
(dp3734
ssbsg739
(lp3735
g3723
ag3720
asg1011
(lp3736
(iconstruction
TP_REL
p3737
(dp3738
g1017
g3720
sg257
g895
sg28
I427
sg1018
g3723
sg7
VIS_427
p3739
sbasg28
I422
sg7
g162
sbsg1329
(iconstruction
TP_SYNFORM
p3740
(dp3741
g28
I423
sg1332
(lp3742
(iconstruction
TP_PHON
p3743
(dp3744
g1342
I3
sg1339
I0
sg28
I428
sg1343
Vboy
p3745
sg7
g3711
sbasg7
g162
sbsg1350
I1
sba(iconstruction
CXN
p3746
(dp3747
g234
(iconstruction
TP_SYMLINKS
p3748
(dp3749
g237
(dp3750
VN1_433
p3751
VS1_435
p3752
ssg28
I431
sg7
g162
sbsg243
VN
p3753
sg245
I1
sg7
VPEOPLE
p3754
sg247
(iconstruction
TP_SEMFRAME
p3755
(dp3756
g144
g0
(g132
g2
Ntp3757
Rp3758
(dp3759
g136
(dp3760
(iconstruction
TP_NODE
p3761
(dp3762
g256
I00
sg257
g970
sg7
g3751
sg1314
I00
sg1315
I00
sg28
I433
sb(dp3763
g1314
I00
sg257
g970
ss(iconstruction
TP_NODE
p3764
(dp3765
g256
I01
sg257
g901
sg7
VENT_432
p3766
sg1314
I01
sg1315
I00
sg28
I432
sb(dp3767
g1314
I01
sg257
g901
sssg138
g139
sg140
g139
sg141
(dp3768
g3761
(dp3769
sg3764
(dp3770
g3761
(dp3771
g257
g895
ssssg143
g3768
sg144
(dp3772
sg146
g139
sg147
g3768
sg148
(dp3773
g3761
(dp3774
g3764
g3771
ssg3764
(dp3775
ssbsg739
(lp3776
g3764
ag3761
asg1011
(lp3777
(iconstruction
TP_REL
p3778
(dp3779
g1017
g3761
sg257
g895
sg28
I434
sg1018
g3764
sg7
VIS_434
p3780
sbasg28
I429
sg7
g162
sbsg1329
(iconstruction
TP_SYNFORM
p3781
(dp3782
g28
I430
sg1332
(lp3783
(iconstruction
TP_PHON
p3784
(dp3785
g1342
I6
sg1339
I0
sg28
I435
sg1343
Vpeople
p3786
sg7
g3752
sbasg7
g162
sbsg1350
I1
sba(iconstruction
CXN
p3787
(dp3788
g234
(iconstruction
TP_SYMLINKS
p3789
(dp3790
g237
(dp3791
VN1_440
p3792
VS1_442
p3793
ssg28
I438
sg7
g162
sbsg243
VN
p3794
sg245
I1
sg7
VMOUSE
p3795
sg247
(iconstruction
TP_SEMFRAME
p3796
(dp3797
g144
g0
(g132
g2
Ntp3798
Rp3799
(dp3800
g136
(dp3801
(iconstruction
TP_NODE
p3802
(dp3803
g256
I01
sg257
g901
sg7
VENT_439
p3804
sg1314
I01
sg1315
I00
sg28
I439
sb(dp3805
g1314
I01
sg257
g901
ss(iconstruction
TP_NODE
p3806
(dp3807
g256
I00
sg257
g958
sg7
g3792
sg1314
I00
sg1315
I00
sg28
I440
sb(dp3808
g1314
I00
sg257
g958
sssg138
g139
sg140
g139
sg141
(dp3809
g3802
(dp3810
g3806
(dp3811
g257
g895
sssg3806
(dp3812
ssg143
g3809
sg144
(dp3813
sg146
g139
sg147
g3809
sg148
(dp3814
g3802
(dp3815
sg3806
(dp3816
g3802
g3811
sssbsg739
(lp3817
g3802
ag3806
asg1011
(lp3818
(iconstruction
TP_REL
p3819
(dp3820
g1017
g3806
sg257
g895
sg28
I441
sg1018
g3802
sg7
VIS_441
p3821
sbasg28
I436
sg7
g162
sbsg1329
(iconstruction
TP_SYNFORM
p3822
(dp3823
g28
I437
sg1332
(lp3824
(iconstruction
TP_PHON
p3825
(dp3826
g1342
I5
sg1339
I0
sg28
I442
sg1343
Vmouse
p3827
sg7
g3793
sbasg7
g162
sbsg1350
I1
sba(iconstruction
CXN
p3828
(dp3829
g234
(iconstruction
TP_SYMLINKS
p3830
(dp3831
g237
(dp3832
VN1_447
p3833
VS1_449
p3834
ssg28
I445
sg7
g162
sbsg243
VN
p3835
sg245
I1
sg7
VTURTLE
p3836
sg247
(iconstruction
TP_SEMFRAME
p3837
(dp3838
g144
g0
(g132
g2
Ntp3839
Rp3840
(dp3841
g136
(dp3842
(iconstruction
TP_NODE
p3843
(dp3844
g256
I00
sg257
g955
sg7
g3833
sg1314
I00
sg1315
I00
sg28
I447
sb(dp3845
g1314
I00
sg257
g955
ss(iconstruction
TP_NODE
p3846
(dp3847
g256
I01
sg257
g901
sg7
VENT_446
p3848
sg1314
I01
sg1315
I00
sg28
I446
sb(dp3849
g1314
I01
sg257
g901
sssg138
g139
sg140
g139
sg141
(dp3850
g3843
(dp3851
sg3846
(dp3852
g3843
(dp3853
g257
g895
ssssg143
g3850
sg144
(dp3854
sg146
g139
sg147
g3850
sg148
(dp3855
g3843
(dp3856
g3846
g3853
ssg3846
(dp3857
ssbsg739
(lp3858
g3846
ag3843
asg1011
(lp3859
(iconstruction
TP_REL
p3860
(dp3861
g1017
g3843
sg257
g895
sg28
I448
sg1018
g3846
sg7
VIS_448
p3862
sbasg28
I443
sg7
g162
sbsg1329
(iconstruction
TP_SYNFORM
p3863
(dp3864
g28
I444
sg1332
(lp3865
(iconstruction
TP_PHON
p3866
(dp3867
g1342
I6
sg1339
I0
sg28
I449
sg1343
Vturtle
p3868
sg7
g3834
sbasg7
g162
sbsg1350
I1
sba(iconstruction
CXN
p3869
(dp3870
g234
(iconstruction
TP_SYMLINKS
p3871
(dp3872
g237
(dp3873
VN1_454
p3874
VS1_456
p3875
ssg28
I452
sg7
g162
sbsg243
VN
p3876
sg245
I1
sg7
VDRESS
p3877
sg247
(iconstruction
TP_SEMFRAME
p3878
(dp3879
g144
g0
(g132
g2
Ntp3880
Rp3881
(dp3882
g136
(dp3883
(iconstruction
TP_NODE
p3884
(dp3885
g256
I01
sg257
g901
sg7
VENT_453
p3886
sg1314
I01
sg1315
I00
sg28
I453
sb(dp3887
g1314
I01
sg257
g901
ss(iconstruction
TP_NODE
p3888
(dp3889
g256
I00
sg257
g946
sg7
g3874
sg1314
I00
sg1315
I00
sg28
I454
sb(dp3890
g1314
I00
sg257
g946
sssg138
g139
sg140
g139
sg141
(dp3891
g3884
(dp3892
g3888
(dp3893
g257
g895
sssg3888
(dp3894
ssg143
g3891
sg144
(dp3895
sg146
g139
sg147
g3891
sg148
(dp3896
g3884
(dp3897
sg3888
(dp3898
g3884
g3893
sssbsg739
(lp3899
g3884
ag3888
asg1011
(lp3900
(iconstruction
TP_REL
p3901
(dp3902
g1017
g3888
sg257
g895
sg28
I455
sg1018
g3884
sg7
VIS_455
p3903
sbasg28
I450
sg7
g162
sbsg1329
(iconstruction
TP_SYNFORM
p3904
(dp3905
g28
I451
sg1332
(lp3906
(iconstruction
TP_PHON
p3907
(dp3908
g1342
I5
sg1339
I0
sg28
I456
sg1343
Vdress
p3909
sg7
g3875
sbasg7
g162
sbsg1350
I1
sba(iconstruction
CXN
p3910
(dp3911
g234
(iconstruction
TP_SYMLINKS
p3912
(dp3913
g237
(dp3914
VN1_461
p3915
VS1_463
p3916
ssg28
I459
sg7
g162
sbsg243
VN
p3917
sg245
I1
sg7
VTSHIRT
p3918
sg247
(iconstruction
TP_SEMFRAME
p3919
(dp3920
g144
g0
(g132
g2
Ntp3921
Rp3922
(dp3923
g136
(dp3924
(iconstruction
TP_NODE
p3925
(dp3926
g256
I00
sg257
g943
sg7
g3915
sg1314
I00
sg1315
I00
sg28
I461
sb(dp3927
g1314
I00
sg257
g943
ss(iconstruction
TP_NODE
p3928
(dp3929
g256
I01
sg257
g901
sg7
VENT_460
p3930
sg1314
I01
sg1315
I00
sg28
I460
sb(dp3931
g1314
I01
sg257
g901
sssg138
g139
sg140
g139
sg141
(dp3932
g3925
(dp3933
sg3928
(dp3934
g3925
(dp3935
g257
g895
ssssg143
g3932
sg144
(dp3936
sg146
g139
sg147
g3932
sg148
(dp3937
g3925
(dp3938
g3928
g3935
ssg3928
(dp3939
ssbsg739
(lp3940
g3928
ag3925
asg1011
(lp3941
(iconstruction
TP_REL
p3942
(dp3943
g1017
g3925
sg257
g895
sg28
I462
sg1018
g3928
sg7
VIS_462
p3944
sbasg28
I457
sg7
g162
sbsg1329
(iconstruction
TP_SYNFORM
p3945
(dp3946
g28
I458
sg1332
(lp3947
(iconstruction
TP_PHON
p3948
(dp3949
g1342
I6
sg1339
I0
sg28
I463
sg1343
Vt-shirt
p3950
sg7
g3916
sbasg7
g162
sbsg1350
I1
sba(iconstruction
CXN
p3951
(dp3952
g234
(iconstruction
TP_SYMLINKS
p3953
(dp3954
g237
(dp3955
VN1_468
p3956
VS2_471
p3957
ssg28
I466
sg7
g162
sbsg243
VN
p3958
sg245
I1
sg7
VBOXINGRING
p3959
sg247
(iconstruction
TP_SEMFRAME
p3960
(dp3961
g144
g0
(g132
g2
Ntp3962
Rp3963
(dp3964
g136
(dp3965
(iconstruction
TP_NODE
p3966
(dp3967
g256
I00
sg257
g1000
sg7
g3956
sg1314
I00
sg1315
I00
sg28
I468
sb(dp3968
g1314
I00
sg257
g1000
ss(iconstruction
TP_NODE
p3969
(dp3970
g256
I01
sg257
g901
sg7
VENT_467
p3971
sg1314
I01
sg1315
I00
sg28
I467
sb(dp3972
g1314
I01
sg257
g901
sssg138
g139
sg140
g139
sg141
(dp3973
g3966
(dp3974
sg3969
(dp3975
g3966
(dp3976
g257
g895
ssssg143
g3973
sg144
(dp3977
sg146
g139
sg147
g3973
sg148
(dp3978
g3966
(dp3979
g3969
g3976
ssg3969
(dp3980
ssbsg739
(lp3981
g3969
ag3966
asg1011
(lp3982
(iconstruction
TP_REL
p3983
(dp3984
g1017
g3966
sg257
g895
sg28
I469
sg1018
g3969
sg7
VIS_469
p3985
sbasg28
I464
sg7
g162
sbsg1329
(iconstruction
TP_SYNFORM
p3986
(dp3987
g28
I465
sg1332
(lp3988
(iconstruction
TP_PHON
p3989
(dp3990
g1342
I6
sg1339
I0
sg28
I470
sg1343
Vboxing
p3991
sg7
VS1_470
p3992
sba(iconstruction
TP_PHON
p3993
(dp3994
g1342
I4
sg1339
I1
sg28
I471
sg1343
Vring
p3995
sg7
g3957
sbasg7
g162
sbsg1350
I1
sba(iconstruction
CXN
p3996
(dp3997
g234
(iconstruction
TP_SYMLINKS
p3998
(dp3999
g237
(dp4000
VN1_476
p4001
VS1_478
p4002
ssg28
I474
sg7
g162
sbsg243
VN
p4003
sg245
I1
sg7
VPARK
p4004
sg247
(iconstruction
TP_SEMFRAME
p4005
(dp4006
g144
g0
(g132
g2
Ntp4007
Rp4008
(dp4009
g136
(dp4010
(iconstruction
TP_NODE
p4011
(dp4012
g256
I00
sg257
g1003
sg7
g4001
sg1314
I00
sg1315
I00
sg28
I476
sb(dp4013
g1314
I00
sg257
g1003
ss(iconstruction
TP_NODE
p4014
(dp4015
g256
I01
sg257
g901
sg7
VENT_475
p4016
sg1314
I01
sg1315
I00
sg28
I475
sb(dp4017
g1314
I01
sg257
g901
sssg138
g139
sg140
g139
sg141
(dp4018
g4011
(dp4019
sg4014
(dp4020
g4011
(dp4021
g257
g895
ssssg143
g4018
sg144
(dp4022
sg146
g139
sg147
g4018
sg148
(dp4023
g4011
(dp4024
g4014
g4021
ssg4014
(dp4025
ssbsg739
(lp4026
g4014
ag4011
asg1011
(lp4027
(iconstruction
TP_REL
p4028
(dp4029
g1017
g4011
sg257
g895
sg28
I477
sg1018
g4014
sg7
VIS_477
p4030
sbasg28
I472
sg7
g162
sbsg1329
(iconstruction
TP_SYNFORM
p4031
(dp4032
g28
I473
sg1332
(lp4033
(iconstruction
TP_PHON
p4034
(dp4035
g1342
I4
sg1339
I0
sg28
I478
sg1343
Vpark
p4036
sg7
g4002
sbasg7
g162
sbsg1350
I1
sba(iconstruction
CXN
p4037
(dp4038
g234
(iconstruction
TP_SYMLINKS
p4039
(dp4040
g237
(dp4041
VN1_483
p4042
VS1_485
p4043
ssg28
I481
sg7
g162
sbsg243
VN
p4044
sg245
I1
sg7
VSHIRT
p4045
sg247
(iconstruction
TP_SEMFRAME
p4046
(dp4047
g144
g0
(g132
g2
Ntp4048
Rp4049
(dp4050
g136
(dp4051
(iconstruction
TP_NODE
p4052
(dp4053
g256
I01
sg257
g901
sg7
VENT_482
p4054
sg1314
I01
sg1315
I00
sg28
I482
sb(dp4055
g1314
I01
sg257
g901
ss(iconstruction
TP_NODE
p4056
(dp4057
g256
I00
sg257
g949
sg7
g4042
sg1314
I00
sg1315
I00
sg28
I483
sb(dp4058
g1314
I00
sg257
g949
sssg138
g139
sg140
g139
sg141
(dp4059
g4052
(dp4060
g4056
(dp4061
g257
g895
sssg4056
(dp4062
ssg143
g4059
sg144
(dp4063
sg146
g139
sg147
g4059
sg148
(dp4064
g4052
(dp4065
sg4056
(dp4066
g4052
g4061
sssbsg739
(lp4067
g4052
ag4056
asg1011
(lp4068
(iconstruction
TP_REL
p4069
(dp4070
g1017
g4056
sg257
g895
sg28
I484
sg1018
g4052
sg7
VIS_484
p4071
sbasg28
I479
sg7
g162
sbsg1329
(iconstruction
TP_SYNFORM
p4072
(dp4073
g28
I480
sg1332
(lp4074
(iconstruction
TP_PHON
p4075
(dp4076
g1342
I5
sg1339
I0
sg28
I485
sg1343
Vshirt
p4077
sg7
g4043
sbasg7
g162
sbsg1350
I1
sba(iconstruction
CXN
p4078
(dp4079
g234
(iconstruction
TP_SYMLINKS
p4080
(dp4081
g237
(dp4082
VN1_490
p4083
VS1_492
p4084
ssg28
I488
sg7
g162
sbsg243
VN
p4085
sg245
I1
sg7
VSUIT
p4086
sg247
(iconstruction
TP_SEMFRAME
p4087
(dp4088
g144
g0
(g132
g2
Ntp4089
Rp4090
(dp4091
g136
(dp4092
(iconstruction
TP_NODE
p4093
(dp4094
g256
I00
sg257
g952
sg7
g4083
sg1314
I00
sg1315
I00
sg28
I490
sb(dp4095
g1314
I00
sg257
g952
ss(iconstruction
TP_NODE
p4096
(dp4097
g256
I01
sg257
g901
sg7
VENT_489
p4098
sg1314
I01
sg1315
I00
sg28
I489
sb(dp4099
g1314
I01
sg257
g901
sssg138
g139
sg140
g139
sg141
(dp4100
g4093
(dp4101
sg4096
(dp4102
g4093
(dp4103
g257
g895
ssssg143
g4100
sg144
(dp4104
sg146
g139
sg147
g4100
sg148
(dp4105
g4093
(dp4106
g4096
g4103
ssg4096
(dp4107
ssbsg739
(lp4108
g4096
ag4093
asg1011
(lp4109
(iconstruction
TP_REL
p4110
(dp4111
g1017
g4093
sg257
g895
sg28
I491
sg1018
g4096
sg7
VIS_491
p4112
sbasg28
I486
sg7
g162
sbsg1329
(iconstruction
TP_SYNFORM
p4113
(dp4114
g28
I487
sg1332
(lp4115
(iconstruction
TP_PHON
p4116
(dp4117
g1342
I4
sg1339
I0
sg28
I492
sg1343
Vsuit
p4118
sg7
g4084
sbasg7
g162
sbsg1350
I1
sba(iconstruction
CXN
p4119
(dp4120
g234
(iconstruction
TP_SYMLINKS
p4121
(dp4122
g237
(dp4123
VN1_497
p4124
VS1_499
p4125
ssg28
I495
sg7
g162
sbsg243
VN
p4126
sg245
I1
sg7
VCELLO
p4127
sg247
(iconstruction
TP_SEMFRAME
p4128
(dp4129
g144
g0
(g132
g2
Ntp4130
Rp4131
(dp4132
g136
(dp4133
(iconstruction
TP_NODE
p4134
(dp4135
g256
I01
sg257
g901
sg7
VENT_496
p4136
sg1314
I01
sg1315
I00
sg28
I496
sb(dp4137
g1314
I01
sg257
g901
ss(iconstruction
TP_NODE
p4138
(dp4139
g256
I00
sg257
g934
sg7
g4124
sg1314
I00
sg1315
I00
sg28
I497
sb(dp4140
g1314
I00
sg257
g934
sssg138
g139
sg140
g139
sg141
(dp4141
g4134
(dp4142
g4138
(dp4143
g257
g895
sssg4138
(dp4144
ssg143
g4141
sg144
(dp4145
sg146
g139
sg147
g4141
sg148
(dp4146
g4134
(dp4147
sg4138
(dp4148
g4134
g4143
sssbsg739
(lp4149
g4134
ag4138
asg1011
(lp4150
(iconstruction
TP_REL
p4151
(dp4152
g1017
g4138
sg257
g895
sg28
I498
sg1018
g4134
sg7
VIS_498
p4153
sbasg28
I493
sg7
g162
sbsg1329
(iconstruction
TP_SYNFORM
p4154
(dp4155
g28
I494
sg1332
(lp4156
(iconstruction
TP_PHON
p4157
(dp4158
g1342
I5
sg1339
I0
sg28
I499
sg1343
VCELLO
p4159
sg7
g4125
sbasg7
g162
sbsg1350
I1
sba(iconstruction
CXN
p4160
(dp4161
g234
(iconstruction
TP_SYMLINKS
p4162
(dp4163
g237
(dp4164
VN1_504
p4165
VS1_506
p4166
ssg28
I502
sg7
g162
sbsg243
VN
p4167
sg245
I1
sg7
VBAG
p4168
sg247
(iconstruction
TP_SEMFRAME
p4169
(dp4170
g144
g0
(g132
g2
Ntp4171
Rp4172
(dp4173
g136
(dp4174
(iconstruction
TP_NODE
p4175
(dp4176
g256
I00
sg257
g925
sg7
g4165
sg1314
I00
sg1315
I00
sg28
I504
sb(dp4177
g1314
I00
sg257
g925
ss(iconstruction
TP_NODE
p4178
(dp4179
g256
I01
sg257
g901
sg7
VENT_503
p4180
sg1314
I01
sg1315
I00
sg28
I503
sb(dp4181
g1314
I01
sg257
g901
sssg138
g139
sg140
g139
sg141
(dp4182
g4175
(dp4183
sg4178
(dp4184
g4175
(dp4185
g257
g895
ssssg143
g4182
sg144
(dp4186
sg146
g139
sg147
g4182
sg148
(dp4187
g4175
(dp4188
g4178
g4185
ssg4178
(dp4189
ssbsg739
(lp4190
g4178
ag4175
asg1011
(lp4191
(iconstruction
TP_REL
p4192
(dp4193
g1017
g4175
sg257
g895
sg28
I505
sg1018
g4178
sg7
VIS_505
p4194
sbasg28
I500
sg7
g162
sbsg1329
(iconstruction
TP_SYNFORM
p4195
(dp4196
g28
I501
sg1332
(lp4197
(iconstruction
TP_PHON
p4198
(dp4199
g1342
I3
sg1339
I0
sg28
I506
sg1343
Vbag
p4200
sg7
g4166
sbasg7
g162
sbsg1350
I1
sba(iconstruction
CXN
p4201
(dp4202
g234
(iconstruction
TP_SYMLINKS
p4203
(dp4204
g237
(dp4205
VN1_511
p4206
VS2_514
p4207
ssg28
I509
sg7
g162
sbsg243
VN
p4208
sg245
I1
sg7
VWATERING_CAN
p4209
sg247
(iconstruction
TP_SEMFRAME
p4210
(dp4211
g144
g0
(g132
g2
Ntp4212
Rp4213
(dp4214
g136
(dp4215
(iconstruction
TP_NODE
p4216
(dp4217
g256
I00
sg257
g922
sg7
g4206
sg1314
I00
sg1315
I00
sg28
I511
sb(dp4218
g1314
I00
sg257
g922
ss(iconstruction
TP_NODE
p4219
(dp4220
g256
I01
sg257
g901
sg7
VENT_510
p4221
sg1314
I01
sg1315
I00
sg28
I510
sb(dp4222
g1314
I01
sg257
g901
sssg138
g139
sg140
g139
sg141
(dp4223
g4216
(dp4224
sg4219
(dp4225
g4216
(dp4226
g257
g895
ssssg143
g4223
sg144
(dp4227
sg146
g139
sg147
g4223
sg148
(dp4228
g4216
(dp4229
g4219
g4226
ssg4219
(dp4230
ssbsg739
(lp4231
g4219
ag4216
asg1011
(lp4232
(iconstruction
TP_REL
p4233
(dp4234
g1017
g4216
sg257
g895
sg28
I512
sg1018
g4219
sg7
VIS_512
p4235
sbasg28
I507
sg7
g162
sbsg1329
(iconstruction
TP_SYNFORM
p4236
(dp4237
g28
I508
sg1332
(lp4238
(iconstruction
TP_PHON
p4239
(dp4240
g1342
I8
sg1339
I0
sg28
I513
sg1343
Vwatering
p4241
sg7
VS1_513
p4242
sba(iconstruction
TP_PHON
p4243
(dp4244
g1342
I3
sg1339
I1
sg28
I514
sg1343
Vcan
p4245
sg7
g4207
sbasg7
g162
sbsg1350
I1
sba(iconstruction
CXN
p4246
(dp4247
g234
(iconstruction
TP_SYMLINKS
p4248
(dp4249
g237
(dp4250
VN1_519
p4251
VS1_521
p4252
ssg28
I517
sg7
g162
sbsg243
VN
p4253
sg245
I1
sg7
VBALLERINA
p4254
sg247
(iconstruction
TP_SEMFRAME
p4255
(dp4256
g144
g0
(g132
g2
Ntp4257
Rp4258
(dp4259
g136
(dp4260
(iconstruction
TP_NODE
p4261
(dp4262
g256
I00
sg257
g979
sg7
g4251
sg1314
I00
sg1315
I00
sg28
I519
sb(dp4263
g1314
I00
sg257
g979
ss(iconstruction
TP_NODE
p4264
(dp4265
g256
I01
sg257
g901
sg7
VENT_518
p4266
sg1314
I01
sg1315
I00
sg28
I518
sb(dp4267
g1314
I01
sg257
g901
sssg138
g139
sg140
g139
sg141
(dp4268
g4261
(dp4269
sg4264
(dp4270
g4261
(dp4271
g257
g895
ssssg143
g4268
sg144
(dp4272
sg146
g139
sg147
g4268
sg148
(dp4273
g4261
(dp4274
g4264
g4271
ssg4264
(dp4275
ssbsg739
(lp4276
g4264
ag4261
asg1011
(lp4277
(iconstruction
TP_REL
p4278
(dp4279
g1017
g4261
sg257
g895
sg28
I520
sg1018
g4264
sg7
VIS_520
p4280
sbasg28
I515
sg7
g162
sbsg1329
(iconstruction
TP_SYNFORM
p4281
(dp4282
g28
I516
sg1332
(lp4283
(iconstruction
TP_PHON
p4284
(dp4285
g1342
I9
sg1339
I0
sg28
I521
sg1343
Vballerina
p4286
sg7
g4252
sbasg7
g162
sbsg1350
I1
sba(iconstruction
CXN
p4287
(dp4288
g234
(iconstruction
TP_SYMLINKS
p4289
(dp4290
g237
(dp4291
VN1_526
p4292
VS1_528
p4293
ssg28
I524
sg7
g162
sbsg243
VN
p4294
sg245
I1
sg7
VCELLIST
p4295
sg247
(iconstruction
TP_SEMFRAME
p4296
(dp4297
g144
g0
(g132
g2
Ntp4298
Rp4299
(dp4300
g136
(dp4301
(iconstruction
TP_NODE
p4302
(dp4303
g256
I01
sg257
g901
sg7
VENT_525
p4304
sg1314
I01
sg1315
I00
sg28
I525
sb(dp4305
g1314
I01
sg257
g901
ss(iconstruction
TP_NODE
p4306
(dp4307
g256
I00
sg257
g982
sg7
g4292
sg1314
I00
sg1315
I00
sg28
I526
sb(dp4308
g1314
I00
sg257
g982
sssg138
g139
sg140
g139
sg141
(dp4309
g4302
(dp4310
g4306
(dp4311
g257
g895
sssg4306
(dp4312
ssg143
g4309
sg144
(dp4313
sg146
g139
sg147
g4309
sg148
(dp4314
g4302
(dp4315
sg4306
(dp4316
g4302
g4311
sssbsg739
(lp4317
g4302
ag4306
asg1011
(lp4318
(iconstruction
TP_REL
p4319
(dp4320
g1017
g4306
sg257
g895
sg28
I527
sg1018
g4302
sg7
VIS_527
p4321
sbasg28
I522
sg7
g162
sbsg1329
(iconstruction
TP_SYNFORM
p4322
(dp4323
g28
I523
sg1332
(lp4324
(iconstruction
TP_PHON
p4325
(dp4326
g1342
I7
sg1339
I0
sg28
I528
sg1343
Vcellist
p4327
sg7
g4293
sbasg7
g162
sbsg1350
I1
sba(iconstruction
CXN
p4328
(dp4329
g234
(iconstruction
TP_SYMLINKS
p4330
(dp4331
g237
(dp4332
VN1_533
p4333
VS1_535
p4334
ssg28
I531
sg7
g162
sbsg243
VN
p4335
sg245
I1
sg7
VFENCER
p4336
sg247
(iconstruction
TP_SEMFRAME
p4337
(dp4338
g144
g0
(g132
g2
Ntp4339
Rp4340
(dp4341
g136
(dp4342
(iconstruction
TP_NODE
p4343
(dp4344
g256
I00
sg257
g988
sg7
g4333
sg1314
I00
sg1315
I00
sg28
I533
sb(dp4345
g1314
I00
sg257
g988
ss(iconstruction
TP_NODE
p4346
(dp4347
g256
I01
sg257
g901
sg7
VENT_532
p4348
sg1314
I01
sg1315
I00
sg28
I532
sb(dp4349
g1314
I01
sg257
g901
sssg138
g139
sg140
g139
sg141
(dp4350
g4343
(dp4351
sg4346
(dp4352
g4343
(dp4353
g257
g895
ssssg143
g4350
sg144
(dp4354
sg146
g139
sg147
g4350
sg148
(dp4355
g4343
(dp4356
g4346
g4353
ssg4346
(dp4357
ssbsg739
(lp4358
g4346
ag4343
asg1011
(lp4359
(iconstruction
TP_REL
p4360
(dp4361
g1017
g4343
sg257
g895
sg28
I534
sg1018
g4346
sg7
VIS_534
p4362
sbasg28
I529
sg7
g162
sbsg1329
(iconstruction
TP_SYNFORM
p4363
(dp4364
g28
I530
sg1332
(lp4365
(iconstruction
TP_PHON
p4366
(dp4367
g1342
I6
sg1339
I0
sg28
I535
sg1343
Vfencer
p4368
sg7
g4334
sbasg7
g162
sbsg1350
I1
sba(iconstruction
CXN
p4369
(dp4370
g234
(iconstruction
TP_SYMLINKS
p4371
(dp4372
g237
(dp4373
VN1_540
p4374
VS1_542
p4375
ssg28
I538
sg7
g162
sbsg243
VN
p4376
sg245
I1
sg7
VROBBER
p4377
sg247
(iconstruction
TP_SEMFRAME
p4378
(dp4379
g144
g0
(g132
g2
Ntp4380
Rp4381
(dp4382
g136
(dp4383
(iconstruction
TP_NODE
p4384
(dp4385
g256
I01
sg257
g901
sg7
VENT_539
p4386
sg1314
I01
sg1315
I00
sg28
I539
sb(dp4387
g1314
I01
sg257
g901
ss(iconstruction
TP_NODE
p4388
(dp4389
g256
I00
sg257
g991
sg7
g4374
sg1314
I00
sg1315
I00
sg28
I540
sb(dp4390
g1314
I00
sg257
g991
sssg138
g139
sg140
g139
sg141
(dp4391
g4384
(dp4392
g4388
(dp4393
g257
g895
sssg4388
(dp4394
ssg143
g4391
sg144
(dp4395
sg146
g139
sg147
g4391
sg148
(dp4396
g4384
(dp4397
sg4388
(dp4398
g4384
g4393
sssbsg739
(lp4399
g4384
ag4388
asg1011
(lp4400
(iconstruction
TP_REL
p4401
(dp4402
g1017
g4388
sg257
g895
sg28
I541
sg1018
g4384
sg7
VIS_541
p4403
sbasg28
I536
sg7
g162
sbsg1329
(iconstruction
TP_SYNFORM
p4404
(dp4405
g28
I537
sg1332
(lp4406
(iconstruction
TP_PHON
p4407
(dp4408
g1342
I5
sg1339
I0
sg28
I542
sg1343
Vthief
p4409
sg7
g4375
sbasg7
g162
sbsg1350
I1
sba(iconstruction
CXN
p4410
(dp4411
g234
(iconstruction
TP_SYMLINKS
p4412
(dp4413
g237
(dp4414
VN1_547
p4415
VS1_549
p4416
ssg28
I545
sg7
g162
sbsg243
VN
p4417
sg245
I1
sg7
VPOLICEMAN
p4418
sg247
(iconstruction
TP_SEMFRAME
p4419
(dp4420
g144
g0
(g132
g2
Ntp4421
Rp4422
(dp4423
g136
(dp4424
(iconstruction
TP_NODE
p4425
(dp4426
g256
I00
sg257
g973
sg7
g4415
sg1314
I00
sg1315
I00
sg28
I547
sb(dp4427
g1314
I00
sg257
g973
ss(iconstruction
TP_NODE
p4428
(dp4429
g256
I01
sg257
g901
sg7
VENT_546
p4430
sg1314
I01
sg1315
I00
sg28
I546
sb(dp4431
g1314
I01
sg257
g901
sssg138
g139
sg140
g139
sg141
(dp4432
g4425
(dp4433
sg4428
(dp4434
g4425
(dp4435
g257
g895
ssssg143
g4432
sg144
(dp4436
sg146
g139
sg147
g4432
sg148
(dp4437
g4425
(dp4438
g4428
g4435
ssg4428
(dp4439
ssbsg739
(lp4440
g4428
ag4425
asg1011
(lp4441
(iconstruction
TP_REL
p4442
(dp4443
g1017
g4425
sg257
g895
sg28
I548
sg1018
g4428
sg7
VIS_548
p4444
sbasg28
I543
sg7
g162
sbsg1329
(iconstruction
TP_SYNFORM
p4445
(dp4446
g28
I544
sg1332
(lp4447
(iconstruction
TP_PHON
p4448
(dp4449
g1342
I9
sg1339
I0
sg28
I549
sg1343
Vpoliceman
p4450
sg7
g4416
sbasg7
g162
sbsg1350
I1
sba(iconstruction
CXN
p4451
(dp4452
g234
(iconstruction
TP_SYMLINKS
p4453
(dp4454
g237
(dp4455
VN1_554
p4456
VS1_556
p4457
ssg28
I552
sg7
g162
sbsg243
VN
p4458
sg245
I1
sg7
VHUNTER
p4459
sg247
(iconstruction
TP_SEMFRAME
p4460
(dp4461
g144
g0
(g132
g2
Ntp4462
Rp4463
(dp4464
g136
(dp4465
(iconstruction
TP_NODE
p4466
(dp4467
g256
I00
sg257
g976
sg7
g4456
sg1314
I00
sg1315
I00
sg28
I554
sb(dp4468
g1314
I00
sg257
g976
ss(iconstruction
TP_NODE
p4469
(dp4470
g256
I01
sg257
g901
sg7
VENT_553
p4471
sg1314
I01
sg1315
I00
sg28
I553
sb(dp4472
g1314
I01
sg257
g901
sssg138
g139
sg140
g139
sg141
(dp4473
g4466
(dp4474
sg4469
(dp4475
g4466
(dp4476
g257
g895
ssssg143
g4473
sg144
(dp4477
sg146
g139
sg147
g4473
sg148
(dp4478
g4466
(dp4479
g4469
g4476
ssg4469
(dp4480
ssbsg739
(lp4481
g4469
ag4466
asg1011
(lp4482
(iconstruction
TP_REL
p4483
(dp4484
g1017
g4466
sg257
g895
sg28
I555
sg1018
g4469
sg7
VIS_555
p4485
sbasg28
I550
sg7
g162
sbsg1329
(iconstruction
TP_SYNFORM
p4486
(dp4487
g28
I551
sg1332
(lp4488
(iconstruction
TP_PHON
p4489
(dp4490
g1342
I6
sg1339
I0
sg28
I556
sg1343
Vhunter
p4491
sg7
g4457
sbasg7
g162
sbsg1350
I1
sba(iconstruction
CXN
p4492
(dp4493
g234
(iconstruction
TP_SYMLINKS
p4494
(dp4495
g237
(dp4496
VN1_561
p4497
VS1_563
p4498
ssg28
I559
sg7
g162
sbsg243
VN
p4499
sg245
I1
sg7
VDOG
p4500
sg247
(iconstruction
TP_SEMFRAME
p4501
(dp4502
g144
g0
(g132
g2
Ntp4503
Rp4504
(dp4505
g136
(dp4506
(iconstruction
TP_NODE
p4507
(dp4508
g256
I01
sg257
g901
sg7
VENT_560
p4509
sg1314
I01
sg1315
I00
sg28
I560
sb(dp4510
g1314
I01
sg257
g901
ss(iconstruction
TP_NODE
p4511
(dp4512
g256
I00
sg257
g961
sg7
g4497
sg1314
I00
sg1315
I00
sg28
I561
sb(dp4513
g1314
I00
sg257
g961
sssg138
g139
sg140
g139
sg141
(dp4514
g4507
(dp4515
g4511
(dp4516
g257
g895
sssg4511
(dp4517
ssg143
g4514
sg144
(dp4518
sg146
g139
sg147
g4514
sg148
(dp4519
g4507
(dp4520
sg4511
(dp4521
g4507
g4516
sssbsg739
(lp4522
g4507
ag4511
asg1011
(lp4523
(iconstruction
TP_REL
p4524
(dp4525
g1017
g4511
sg257
g895
sg28
I562
sg1018
g4507
sg7
VIS_562
p4526
sbasg28
I557
sg7
g162
sbsg1329
(iconstruction
TP_SYNFORM
p4527
(dp4528
g28
I558
sg1332
(lp4529
(iconstruction
TP_PHON
p4530
(dp4531
g1342
I3
sg1339
I0
sg28
I563
sg1343
Vdog
p4532
sg7
g4498
sbasg7
g162
sbsg1350
I1
sba(iconstruction
CXN
p4533
(dp4534
g234
(iconstruction
TP_SYMLINKS
p4535
(dp4536
g237
(dp4537
VN1_568
p4538
VS1_570
p4539
ssg28
I566
sg7
g162
sbsg243
VN
p4540
sg245
I1
sg7
VHOOK
p4541
sg247
(iconstruction
TP_SEMFRAME
p4542
(dp4543
g144
g0
(g132
g2
Ntp4544
Rp4545
(dp4546
g136
(dp4547
(iconstruction
TP_NODE
p4548
(dp4549
g256
I00
sg257
g931
sg7
g4538
sg1314
I00
sg1315
I00
sg28
I568
sb(dp4550
g1314
I00
sg257
g931
ss(iconstruction
TP_NODE
p4551
(dp4552
g256
I01
sg257
g901
sg7
VENT_567
p4553
sg1314
I01
sg1315
I00
sg28
I567
sb(dp4554
g1314
I01
sg257
g901
sssg138
g139
sg140
g139
sg141
(dp4555
g4548
(dp4556
sg4551
(dp4557
g4548
(dp4558
g257
g895
ssssg143
g4555
sg144
(dp4559
sg146
g139
sg147
g4555
sg148
(dp4560
g4548
(dp4561
g4551
g4558
ssg4551
(dp4562
ssbsg739
(lp4563
g4551
ag4548
asg1011
(lp4564
(iconstruction
TP_REL
p4565
(dp4566
g1017
g4548
sg257
g895
sg28
I569
sg1018
g4551
sg7
VIS_569
p4567
sbasg28
I564
sg7
g162
sbsg1329
(iconstruction
TP_SYNFORM
p4568
(dp4569
g28
I565
sg1332
(lp4570
(iconstruction
TP_PHON
p4571
(dp4572
g1342
I4
sg1339
I0
sg28
I570
sg1343
Vhook
p4573
sg7
g4539
sbasg7
g162
sbsg1350
I1
sba(iconstruction
CXN
p4574
(dp4575
g234
(iconstruction
TP_SYMLINKS
p4576
(dp4577
g237
(dp4578
VN1_575
p4579
VS1_577
p4580
ssg28
I573
sg7
g162
sbsg243
VN
p4581
sg245
I1
sg7
VBOOKSHELF
p4582
sg247
(iconstruction
TP_SEMFRAME
p4583
(dp4584
g144
g0
(g132
g2
Ntp4585
Rp4586
(dp4587
g136
(dp4588
(iconstruction
TP_NODE
p4589
(dp4590
g256
I01
sg257
g901
sg7
VENT_574
p4591
sg1314
I01
sg1315
I00
sg28
I574
sb(dp4592
g1314
I01
sg257
g901
ss(iconstruction
TP_NODE
p4593
(dp4594
g256
I00
sg257
g937
sg7
g4579
sg1314
I00
sg1315
I00
sg28
I575
sb(dp4595
g1314
I00
sg257
g937
sssg138
g139
sg140
g139
sg141
(dp4596
g4589
(dp4597
g4593
(dp4598
g257
g895
sssg4593
(dp4599
ssg143
g4596
sg144
(dp4600
sg146
g139
sg147
g4596
sg148
(dp4601
g4589
(dp4602
sg4593
(dp4603
g4589
g4598
sssbsg739
(lp4604
g4589
ag4593
asg1011
(lp4605
(iconstruction
TP_REL
p4606
(dp4607
g1017
g4593
sg257
g895
sg28
I576
sg1018
g4589
sg7
VIS_576
p4608
sbasg28
I571
sg7
g162
sbsg1329
(iconstruction
TP_SYNFORM
p4609
(dp4610
g28
I572
sg1332
(lp4611
(iconstruction
TP_PHON
p4612
(dp4613
g1342
I9
sg1339
I0
sg28
I577
sg1343
Vbookshelf
p4614
sg7
g4580
sbasg7
g162
sbsg1350
I1
sba(iconstruction
CXN
p4615
(dp4616
g234
(iconstruction
TP_SYMLINKS
p4617
(dp4618
g237
(dp4619
VN1_582
p4620
VS1_584
p4621
ssg28
I580
sg7
g162
sbsg243
VN
p4622
sg245
I1
sg7
VWAGON
p4623
sg247
(iconstruction
TP_SEMFRAME
p4624
(dp4625
g144
g0
(g132
g2
Ntp4626
Rp4627
(dp4628
g136
(dp4629
(iconstruction
TP_NODE
p4630
(dp4631
g256
I00
sg257
g919
sg7
g4620
sg1314
I00
sg1315
I00
sg28
I582
sb(dp4632
g1314
I00
sg257
g919
ss(iconstruction
TP_NODE
p4633
(dp4634
g256
I01
sg257
g901
sg7
VENT_581
p4635
sg1314
I01
sg1315
I00
sg28
I581
sb(dp4636
g1314
I01
sg257
g901
sssg138
g139
sg140
g139
sg141
(dp4637
g4630
(dp4638
sg4633
(dp4639
g4630
(dp4640
g257
g895
ssssg143
g4637
sg144
(dp4641
sg146
g139
sg147
g4637
sg148
(dp4642
g4630
(dp4643
g4633
g4640
ssg4633
(dp4644
ssbsg739
(lp4645
g4633
ag4630
asg1011
(lp4646
(iconstruction
TP_REL
p4647
(dp4648
g1017
g4630
sg257
g895
sg28
I583
sg1018
g4633
sg7
VIS_583
p4649
sbasg28
I578
sg7
g162
sbsg1329
(iconstruction
TP_SYNFORM
p4650
(dp4651
g28
I579
sg1332
(lp4652
(iconstruction
TP_PHON
p4653
(dp4654
g1342
I5
sg1339
I0
sg28
I584
sg1343
Vwagon
p4655
sg7
g4621
sbasg7
g162
sbsg1350
I1
sba(iconstruction
CXN
p4656
(dp4657
g234
(iconstruction
TP_SYMLINKS
p4658
(dp4659
g237
(dp4660
VN1_589
p4661
VS1_591
p4662
ssg28
I587
sg7
g162
sbsg243
VN
p4663
sg245
I1
sg7
VTREE
p4664
sg247
(iconstruction
TP_SEMFRAME
p4665
(dp4666
g144
g0
(g132
g2
Ntp4667
Rp4668
(dp4669
g136
(dp4670
(iconstruction
TP_NODE
p4671
(dp4672
g256
I00
sg257
g928
sg7
g4661
sg1314
I00
sg1315
I00
sg28
I589
sb(dp4673
g1314
I00
sg257
g928
ss(iconstruction
TP_NODE
p4674
(dp4675
g256
I01
sg257
g901
sg7
VENT_588
p4676
sg1314
I01
sg1315
I00
sg28
I588
sb(dp4677
g1314
I01
sg257
g901
sssg138
g139
sg140
g139
sg141
(dp4678
g4671
(dp4679
sg4674
(dp4680
g4671
(dp4681
g257
g895
ssssg143
g4678
sg144
(dp4682
sg146
g139
sg147
g4678
sg148
(dp4683
g4671
(dp4684
g4674
g4681
ssg4674
(dp4685
ssbsg739
(lp4686
g4674
ag4671
asg1011
(lp4687
(iconstruction
TP_REL
p4688
(dp4689
g1017
g4671
sg257
g895
sg28
I590
sg1018
g4674
sg7
VIS_590
p4690
sbasg28
I585
sg7
g162
sbsg1329
(iconstruction
TP_SYNFORM
p4691
(dp4692
g28
I586
sg1332
(lp4693
(iconstruction
TP_PHON
p4694
(dp4695
g1342
I4
sg1339
I0
sg28
I591
sg1343
Vtree
p4696
sg7
g4662
sbasg7
g162
sbsg1350
I1
sbasbsg7
g176
sg45
(lp4697
g220
ag0
(g19
g2
Ntp4698
Rp4699
(dp4700
g7
S'to_cxn_retrieval_C'
p4701
sg24
Nsg25
Nsg26
g51
sg28
I21
sg29
g224
sbasg15
(dp4702
g55
Nsg4701
Nssg184
(lp4703
sg69
F1.0
sg72
(lp4704
sg108
(dp4705
S'init_act'
p4706
F0.3
ssg104
F0.0
sg130
F0.0
sg13
g4
sg28
I4
sS'schemas'
p4707
(lp4708
g0
(clanguage_schemas
CXN_SCHEMA
p4709
g2
Ntp4710
Rp4711
(dp4712
g7
g246
sS'content'
p4713
g232
sg13
Nsg28
I99
sS'LTM'
p4714
g224
sg4706
F0.3
sbag0
(g4709
g2
Ntp4715
Rp4716
(dp4717
g7
g1361
sg4713
g1351
sg13
Nsg28
I100
sg4714
g224
sg4706
F0.3
sbag0
(g4709
g2
Ntp4718
Rp4719
(dp4720
g7
g1412
sg4713
g1402
sg13
Nsg28
I101
sg4714
g224
sg4706
F0.3
sbag0
(g4709
g2
Ntp4721
Rp4722
(dp4723
g7
g1465
sg4713
g1453
sg13
Nsg28
I102
sg4714
g224
sg4706
F0.3
sbag0
(g4709
g2
Ntp4724
Rp4725
(dp4726
g7
g1544
sg4713
g1532
sg13
Nsg28
I103
sg4714
g224
sg4706
F0.3
sbag0
(g4709
g2
Ntp4727
Rp4728
(dp4729
g7
g1619
sg4713
g1607
sg13
Nsg28
I104
sg4714
g224
sg4706
F0.3
sbag0
(g4709
g2
Ntp4730
Rp4731
(dp4732
g7
g1708
sg4713
g1694
sg13
Nsg28
I105
sg4714
g224
sg4706
F0.3
sbag0
(g4709
g2
Ntp4733
Rp4734
(dp4735
g7
g1799
sg4713
g1785
sg13
Nsg28
I106
sg4714
g224
sg4706
F0.3
sbag0
(g4709
g2
Ntp4736
Rp4737
(dp4738
g7
g1890
sg4713
g1880
sg13
Nsg28
I107
sg4714
g224
sg4706
F0.3
sbag0
(g4709
g2
Ntp4739
Rp4740
(dp4741
g7
g1952
sg4713
g1942
sg13
Nsg28
I108
sg4714
g224
sg4706
F0.3
sbag0
(g4709
g2
Ntp4742
Rp4743
(dp4744
g7
g2011
sg4713
g2001
sg13
Nsg28
I109
sg4714
g224
sg4706
F0.3
sbag0
(g4709
g2
Ntp4745
Rp4746
(dp4747
g7
g2063
sg4713
g2053
sg13
Nsg28
I110
sg4714
g224
sg4706
F0.3
sbag0
(g4709
g2
Ntp4748
Rp4749
(dp4750
g7
g2110
sg4713
g2100
sg13
Nsg28
I111
sg4714
g224
sg4706
F0.3
sbag0
(g4709
g2
Ntp4751
Rp4752
(dp4753
g7
g2159
sg4713
g2147
sg13
Nsg28
I112
sg4714
g224
sg4706
F0.3
sbag0
(g4709
g2
Ntp4754
Rp4755
(dp4756
g7
g2239
sg4713
g2229
sg13
Nsg28
I113
sg4714
g224
sg4706
F0.3
sbag0
(g4709
g2
Ntp4757
Rp4758
(dp4759
g7
g2307
sg4713
g2295
sg13
Nsg28
I114
sg4714
g224
sg4706
F0.3
sbag0
(g4709
g2
Ntp4760
Rp4761
(dp4762
g7
g2401
sg4713
g2389
sg13
Nsg28
I115
sg4714
g224
sg4706
F0.3
sbag0
(g4709
g2
Ntp4763
Rp4764
(dp4765
g7
g2483
sg4713
g2471
sg13
Nsg28
I116
sg4714
g224
sg4706
F0.3
sbag0
(g4709
g2
Ntp4766
Rp4767
(dp4768
g7
g2575
sg4713
g2565
sg13
Nsg28
I117
sg4714
g224
sg4706
F0.3
sbag0
(g4709
g2
Ntp4769
Rp4770
(dp4771
g7
g2640
sg4713
g2630
sg13
Nsg28
I118
sg4714
g224
sg4706
F0.3
sbag0
(g4709
g2
Ntp4772
Rp4773
(dp4774
g7
g2719
sg4713
g2711
sg13
Nsg28
I119
sg4714
g224
sg4706
F0.3
sbag0
(g4709
g2
Ntp4775
Rp4776
(dp4777
g7
g2760
sg4713
g2752
sg13
Nsg28
I120
sg4714
g224
sg4706
F0.3
sbag0
(g4709
g2
Ntp4778
Rp4779
(dp4780
g7
g2801
sg4713
g2793
sg13
Nsg28
I121
sg4714
g224
sg4706
F0.3
sbag0
(g4709
g2
Ntp4781
Rp4782
(dp4783
g7
g2842
sg4713
g2834
sg13
Nsg28
I122
sg4714
g224
sg4706
F0.3
sbag0
(g4709
g2
Ntp4784
Rp4785
(dp4786
g7
g2883
sg4713
g2875
sg13
Nsg28
I123
sg4714
g224
sg4706
F0.3
sbag0
(g4709
g2
Ntp4787
Rp4788
(dp4789
g7
g2924
sg4713
g2916
sg13
Nsg28
I124
sg4714
g224
sg4706
F0.3
sbag0
(g4709
g2
Ntp4790
Rp4791
(dp4792
g7
g2965
sg4713
g2957
sg13
Nsg28
I125
sg4714
g224
sg4706
F0.3
sbag0
(g4709
g2
Ntp4793
Rp4794
(dp4795
g7
g3010
sg4713
g3002
sg13
Nsg28
I126
sg4714
g224
sg4706
F0.3
sbag0
(g4709
g2
Ntp4796
Rp4797
(dp4798
g7
g3055
sg4713
g3047
sg13
Nsg28
I127
sg4714
g224
sg4706
F0.3
sbag0
(g4709
g2
Ntp4799
Rp4800
(dp4801
g7
g3096
sg4713
g3088
sg13
Nsg28
I128
sg4714
g224
sg4706
F0.3
sbag0
(g4709
g2
Ntp4802
Rp4803
(dp4804
g7
g3137
sg4713
g3129
sg13
Nsg28
I129
sg4714
g224
sg4706
F0.3
sbag0
(g4709
g2
Ntp4805
Rp4806
(dp4807
g7
g3178
sg4713
g3170
sg13
Nsg28
I130
sg4714
g224
sg4706
F0.3
sbag0
(g4709
g2
Ntp4808
Rp4809
(dp4810
g7
g3219
sg4713
g3211
sg13
Nsg28
I131
sg4714
g224
sg4706
F0.3
sbag0
(g4709
g2
Ntp4811
Rp4812
(dp4813
g7
g3260
sg4713
g3252
sg13
Nsg28
I132
sg4714
g224
sg4706
F0.3
sbag0
(g4709
g2
Ntp4814
Rp4815
(dp4816
g7
g3301
sg4713
g3293
sg13
Nsg28
I133
sg4714
g224
sg4706
F0.3
sbag0
(g4709
g2
Ntp4817
Rp4818
(dp4819
g7
g3332
sg4713
g3324
sg13
Nsg28
I134
sg4714
g224
sg4706
F0.3
sbag0
(g4709
g2
Ntp4820
Rp4821
(dp4822
g7
g3363
sg4713
g3355
sg13
Nsg28
I135
sg4714
g224
sg4706
F0.3
sbag0
(g4709
g2
Ntp4823
Rp4824
(dp4825
g7
g3394
sg4713
g3386
sg13
Nsg28
I136
sg4714
g224
sg4706
F0.3
sbag0
(g4709
g2
Ntp4826
Rp4827
(dp4828
g7
g3425
sg4713
g3417
sg13
Nsg28
I137
sg4714
g224
sg4706
F0.3
sbag0
(g4709
g2
Ntp4829
Rp4830
(dp4831
g7
g3456
sg4713
g3448
sg13
Nsg28
I138
sg4714
g224
sg4706
F0.3
sbag0
(g4709
g2
Ntp4832
Rp4833
(dp4834
g7
g3487
sg4713
g3479
sg13
Nsg28
I139
sg4714
g224
sg4706
F0.3
sbag0
(g4709
g2
Ntp4835
Rp4836
(dp4837
g7
g3518
sg4713
g3510
sg13
Nsg28
I140
sg4714
g224
sg4706
F0.3
sbag0
(g4709
g2
Ntp4838
Rp4839
(dp4840
g7
g3549
sg4713
g3541
sg13
Nsg28
I141
sg4714
g224
sg4706
F0.3
sbag0
(g4709
g2
Ntp4841
Rp4842
(dp4843
g7
g3590
sg4713
g3582
sg13
Nsg28
I142
sg4714
g224
sg4706
F0.3
sbag0
(g4709
g2
Ntp4844
Rp4845
(dp4846
g7
g3631
sg4713
g3623
sg13
Nsg28
I143
sg4714
g224
sg4706
F0.3
sbag0
(g4709
g2
Ntp4847
Rp4848
(dp4849
g7
g3672
sg4713
g3664
sg13
Nsg28
I144
sg4714
g224
sg4706
F0.3
sbag0
(g4709
g2
Ntp4850
Rp4851
(dp4852
g7
g3713
sg4713
g3705
sg13
Nsg28
I145
sg4714
g224
sg4706
F0.3
sbag0
(g4709
g2
Ntp4853
Rp4854
(dp4855
g7
g3754
sg4713
g3746
sg13
Nsg28
I146
sg4714
g224
sg4706
F0.3
sbag0
(g4709
g2
Ntp4856
Rp4857
(dp4858
g7
g3795
sg4713
g3787
sg13
Nsg28
I147
sg4714
g224
sg4706
F0.3
sbag0
(g4709
g2
Ntp4859
Rp4860
(dp4861
g7
g3836
sg4713
g3828
sg13
Nsg28
I148
sg4714
g224
sg4706
F0.3
sbag0
(g4709
g2
Ntp4862
Rp4863
(dp4864
g7
g3877
sg4713
g3869
sg13
Nsg28
I149
sg4714
g224
sg4706
F0.3
sbag0
(g4709
g2
Ntp4865
Rp4866
(dp4867
g7
g3918
sg4713
g3910
sg13
Nsg28
I150
sg4714
g224
sg4706
F0.3
sbag0
(g4709
g2
Ntp4868
Rp4869
(dp4870
g7
g3959
sg4713
g3951
sg13
Nsg28
I151
sg4714
g224
sg4706
F0.3
sbag0
(g4709
g2
Ntp4871
Rp4872
(dp4873
g7
g4004
sg4713
g3996
sg13
Nsg28
I152
sg4714
g224
sg4706
F0.3
sbag0
(g4709
g2
Ntp4874
Rp4875
(dp4876
g7
g4045
sg4713
g4037
sg13
Nsg28
I153
sg4714
g224
sg4706
F0.3
sbag0
(g4709
g2
Ntp4877
Rp4878
(dp4879
g7
g4086
sg4713
g4078
sg13
Nsg28
I154
sg4714
g224
sg4706
F0.3
sbag0
(g4709
g2
Ntp4880
Rp4881
(dp4882
g7
g4127
sg4713
g4119
sg13
Nsg28
I155
sg4714
g224
sg4706
F0.3
sbag0
(g4709
g2
Ntp4883
Rp4884
(dp4885
g7
g4168
sg4713
g4160
sg13
Nsg28
I156
sg4714
g224
sg4706
F0.3
sbag0
(g4709
g2
Ntp4886
Rp4887
(dp4888
g7
g4209
sg4713
g4201
sg13
Nsg28
I157
sg4714
g224
sg4706
F0.3
sbag0
(g4709
g2
Ntp4889
Rp4890
(dp4891
g7
g4254
sg4713
g4246
sg13
Nsg28
I158
sg4714
g224
sg4706
F0.3
sbag0
(g4709
g2
Ntp4892
Rp4893
(dp4894
g7
g4295
sg4713
g4287
sg13
Nsg28
I159
sg4714
g224
sg4706
F0.3
sbag0
(g4709
g2
Ntp4895
Rp4896
(dp4897
g7
g4336
sg4713
g4328
sg13
Nsg28
I160
sg4714
g224
sg4706
F0.3
sbag0
(g4709
g2
Ntp4898
Rp4899
(dp4900
g7
g4377
sg4713
g4369
sg13
Nsg28
I161
sg4714
g224
sg4706
F0.3
sbag0
(g4709
g2
Ntp4901
Rp4902
(dp4903
g7
g4418
sg4713
g4410
sg13
Nsg28
I162
sg4714
g224
sg4706
F0.3
sbag0
(g4709
g2
Ntp4904
Rp4905
(dp4906
g7
g4459
sg4713
g4451
sg13
Nsg28
I163
sg4714
g224
sg4706
F0.3
sbag0
(g4709
g2
Ntp4907
Rp4908
(dp4909
g7
g4500
sg4713
g4492
sg13
Nsg28
I164
sg4714
g224
sg4706
F0.3
sbag0
(g4709
g2
Ntp4910
Rp4911
(dp4912
g7
g4541
sg4713
g4533
sg13
Nsg28
I165
sg4714
g224
sg4706
F0.3
sbag0
(g4709
g2
Ntp4913
Rp4914
(dp4915
g7
g4582
sg4713
g4574
sg13
Nsg28
I166
sg4714
g224
sg4706
F0.3
sbag0
(g4709
g2
Ntp4916
Rp4917
(dp4918
g7
g4623
sg4713
g4615
sg13
Nsg28
I167
sg4714
g224
sg4706
F0.3
sbag0
(g4709
g2
Ntp4919
Rp4920
(dp4921
g7
g4664
sg4713
g4656
sg13
Nsg28
I168
sg4714
g224
sg4706
F0.3
sbasbsbsg13
g4
sg28
I2
sbag0
(g186
g2
Ntp4922
Rp4923
(dp4924
g190
I0
sg7
g162
sg191
I0
sg192
g0
(g19
g2
Ntp4925
Rp4926
(dp4927
g7
S'from_cxn_retrieval_P'
p4928
sg24
Nsg25
Nsg26
g27
sg28
I14
sg29
g0
(clanguage_schemas
GRAMMATICAL_WM_P
p4929
g2
Ntp4930
Rp4931
(dp4932
g34
(dp4933
g4928
NsS'from_phonological_WM_P'
p4934
Nsg196
Nsg38
Nssg40
(lp4935
sg7
g172
sg43
(lp4936
sg45
(lp4937
g0
(g19
g2
Ntp4938
Rp4939
(dp4940
g7
S'to_semantic_WM'
p4941
sg24
Nsg25
Nsg26
g51
sg28
I17
sg29
g4931
sbag0
(g19
g2
Ntp4942
Rp4943
(dp4944
g7
S'to_phonological_WM_P'
p4945
sg24
Nsg25
Nsg26
g51
sg28
I18
sg29
g4931
sbag0
(g19
g2
Ntp4946
Rp4947
(dp4948
g7
g67
sg24
Nsg25
Nsg26
g51
sg28
I19
sg29
g4931
sbasg15
(dp4949
g67
Nsg4945
Nsg4941
NssS'time_to_next_prod'
p4950
I0
sg69
F1.0
sg70
(lp4951
sg72
(lp4952
g0
(g19
g2
Ntp4953
Rp4954
(dp4955
g7
g196
sg24
Nsg25
Nsg26
g27
sg28
I13
sg29
g4931
sbag4926
ag0
(g19
g2
Ntp4956
Rp4957
(dp4958
g7
g38
sg24
Nsg25
Nsg26
g27
sg28
I15
sg29
g4931
sbag0
(g19
g2
Ntp4959
Rp4960
(dp4961
g7
g4934
sg24
Nsg25
Nsg26
g27
sg28
I16
sg29
g4931
sbasS'refractory_period'
p4962
I10
sg86
(dp4963
g88
(dp4964
sg90
(dp4965
g92
(lp4966
sg94
(dp4967
g96
(lp4968
sg98
(lp4969
sg100
(lp4970
ssg102
(lp4971
sg104
(lp4972
sg106
(lp4973
sssg108
(dp4974
g110
(dp4975
g116
F1.0
sg117
F1.0
sS'sub_threshold_r'
p4976
F0.8
sg119
F0.0
sS'deact_weight'
p4977
F0.0
sg118
F0.3
sg120
F0.01
sg4962
I10
sg112
F1.0
sg113
Nsg114
F-10.0
sg115
F1.0
ssg121
(dp4978
g123
F100.0
sg124
F10.0
sg125
F0.001
sg126
F0.0
sg127
F0.1
sg128
F1.0
sg129
F1.0
ssS'style'
p4979
(dp4980
S'continuity'
p4981
I0
sS'form_length'
p4982
I0
sS'activation'
p4983
F1.0
sS'sem_length'
p4984
I0
sssg104
F0.0
sg130
F0.0
sg13
g4
sg28
I3
sbsbsg215
g205
sg13
g4
sg28
I3
sbag0
(g186
g2
Ntp4985
Rp4986
(dp4987
g190
I0
sg7
g162
sg191
I0
sg192
g4954
sg215
g48
sg13
g4
sg28
I4
sbag0
(g186
g2
Ntp4988
Rp4989
(dp4990
g190
I0
sg7
g162
sg191
I0
sg192
g81
sg215
g4939
sg13
g4
sg28
I5
sbag0
(g186
g2
Ntp4991
Rp4992
(dp4993
g190
I0
sg7
g162
sg191
I0
sg192
g0
(g19
g2
Ntp4994
Rp4995
(dp4996
g7
g36
sg24
Nsg25
Nsg26
g27
sg28
I25
sg29
g0
(clanguage_schemas
PHON_WM_P
p4997
g2
Ntp4998
Rp4999
(dp5000
g34
(dp5001
g36
Nssg40
(lp5002
sg7
g167
sg43
(lp5003
sg45
(lp5004
g0
(g19
g2
Ntp5005
Rp5006
(dp5007
g7
S'to_utter'
p5008
sg24
Nsg25
Nsg26
g51
sg28
I26
sg29
g4999
sbag0
(g19
g2
Ntp5009
Rp5010
(dp5011
g7
g50
sg24
Nsg25
Nsg26
g51
sg28
I27
sg29
g4999
sbag0
(g19
g2
Ntp5012
Rp5013
(dp5014
g7
g59
sg24
Nsg25
Nsg26
g51
sg28
I28
sg29
g4999
sbag0
(g19
g2
Ntp5015
Rp5016
(dp5017
g7
g67
sg24
Nsg25
Nsg26
g51
sg28
I29
sg29
g4999
sbasg15
(dp5018
g67
Nsg50
Nsg5008
Nsg59
NssS'needs_filler'
p5019
I00
sg69
F1.0
sg70
(lp5020
sg72
(lp5021
g4995
asS'filler'
p5022
S'....'
p5023
sg86
(dp5024
g88
(dp5025
sg90
(dp5026
g92
(lp5027
sg94
(dp5028
g96
(lp5029
sg98
(lp5030
sg100
(lp5031
ssg102
(lp5032
sg104
(lp5033
sg106
(lp5034
sssg108
(dp5035
g110
(dp5036
g112
F1.0
sg113
Nsg114
F0.0
sg115
F1.0
sg116
F1.0
sg117
F0.0
sg118
F0.0
sg119
F0.0
sg120
F0.01
ssg121
(dp5037
g123
F100.0
sg124
F10.0
sg125
F0.001
sg126
F0.0
sg127
F1.0
sg128
F1.0
sg129
F1.0
sssg104
F0.0
sg130
F0.0
sg13
g4
sS'phon_sequence'
p5038
(lp5039
sg28
I6
sbsbsg215
g4943
sg13
g4
sg28
I6
sbag0
(g186
g2
Ntp5040
Rp5041
(dp5042
g190
I0
sg7
g162
sg191
I0
sg192
g4960
sg215
g5010
sg13
g4
sg28
I7
sbag0
(g186
g2
Ntp5043
Rp5044
(dp5045
g190
I0
sg7
g162
sg191
I0
sg192
g0
(g19
g2
Ntp5046
Rp5047
(dp5048
g7
g196
sg24
Nsg25
Nsg26
g27
sg28
I32
sg29
g0
(clanguage_schemas
CONTROL
p5049
g2
Ntp5050
Rp5051
(dp5052
g34
(dp5053
g4934
Nsg196
Nssg7
g157
sg45
(lp5054
g0
(g19
g2
Ntp5055
Rp5056
(dp5057
g7
g4941
sg24
Nsg25
Nsg26
g51
sg28
I34
sg29
g5051
sbag0
(g19
g2
Ntp5058
Rp5059
(dp5060
g7
g50
sg24
Nsg25
Nsg26
g51
sg28
I35
sg29
g5051
sbag0
(g19
g2
Ntp5061
Rp5062
(dp5063
g7
S'to_grammatical_WM_C'
p5064
sg24
Nsg25
Nsg26
g51
sg28
I36
sg29
g5051
sbasg15
(dp5065
g50
Nsg5064
Nsg4941
Nssg69
F1.0
sg72
(lp5066
g5047
ag0
(g19
g2
Ntp5067
Rp5068
(dp5069
g7
g4934
sg24
Nsg25
Nsg26
g27
sg28
I33
sg29
g5051
sbasS'state'
p5070
(dp5071
S'produce'
p5072
I00
sS'unexpressed_sem'
p5073
I00
sS'mode'
p5074
g5072
sS'last_prod_time'
p5075
I0
ssg108
(dp5076
g4979
(dp5077
g4981
F0.3
sg4982
F0.0
sg4983
F0.7
sg4984
F0.0
ssS'task'
p5078
(dp5079
S'time_pressure'
p5080
F10.0
sS'start_produce'
p5081
F1.0
sssg104
F0.0
sg130
F0.0
sg13
g4
sg28
I8
sbsbsg215
g57
sg13
g4
sg28
I8
sbag0
(g186
g2
Ntp5082
Rp5083
(dp5084
g190
I0
sg7
g162
sg191
I0
sg192
g0
(g19
g2
Ntp5085
Rp5086
(dp5087
g7
g4934
sg24
Nsg25
Nsg26
g27
sg28
I30
sg29
g0
(clanguage_schemas
UTTER
p5088
g2
Ntp5089
Rp5090
(dp5091
g34
(dp5092
g4934
Nssg7
g160
sg45
(lp5093
g0
(g19
g2
Ntp5094
Rp5095
(dp5096
g7
g67
sg24
Nsg25
Nsg26
g51
sg28
I31
sg29
g5090
sbasg15
(dp5097
g67
NssS'utterance_stack'
p5098
(lp5099
sg69
F1.0
sg72
(lp5100
g5086
asg108
(dp5101
S'speech_rate'
p5102
F1.0
ssg104
F0.0
sg130
F0.0
sg13
g4
sg28
I7
sbsbsg215
g5006
sg13
g4
sg28
I9
sbag0
(g186
g2
Ntp5103
Rp5104
(dp5105
g190
I0
sg7
g162
sg191
I0
sg192
g5068
sg215
g5013
sg13
g4
sg28
I10
sbag0
(g186
g2
Ntp5106
Rp5107
(dp5108
g190
I0
sg7
g162
sg191
I0
sg192
g4957
sg215
g5059
sg13
g4
sg28
I11
sbag0
(g186
g2
Ntp5109
Rp5110
(dp5111
g190
I0
sg7
g162
sg191
I0
sg192
g84
sg215
g5056
sg13
g4
sg28
I12
sbasg108
(dp5112
g157
g5076
sg167
g5035
sg170
(dp5113
g4706
F1.0
ssg176
g4705
sg180
g214
sg42
g109
sg160
g5101
sg172
g4974
ssg104
F0.0
sS'set_up_time'
p5114
I10
sS'input'
p5115
NsS'default_params'
p5116
Nsg69
F1.0
sS'output_ports'
p5117
(lp5118
g5095
ag5016
ag4947
ag65
asg4707
(dp5119
g157
g5051
sg167
g4999
sg170
g0
(clanguage_schemas
CONCEPT_LTM
p5120
g2
Ntp5121
Rp5122
(dp5123
g34
(dp5124
sg7
g170
sg45
(lp5125
g0
(g19
g2
Ntp5126
Rp5127
(dp5128
g7
S'to_conceptualizer'
p5129
sg24
Nsg25
Nsg26
g51
sg28
I11
sg29
g5122
sbag0
(g19
g2
Ntp5130
Rp5131
(dp5132
g7
g4941
sg24
Nsg25
Nsg26
g51
sg28
I12
sg29
g5122
sbasg15
(dp5133
g5129
Nsg4941
Nssg184
(lp5134
sS'cpt_knowledge'
p5135
g267
sg69
F1.0
sg72
(lp5136
sg108
g5113
sg104
F0.0
sg130
F0.0
sg13
g4
sg28
I2
sg4707
(lp5137
g0
(clanguage_schemas
CPT_EVENT_SCHEMA
p5138
g2
Ntp5139
Rp5140
(dp5141
g7
g274
sg4713
(dp5142
g257
g742
ssg13
Nsg28
I9
sg4714
g5122
sg4706
F1.0
sbag0
(clanguage_schemas
CPT_ACTION_SCHEMA
p5143
g2
Ntp5144
Rp5145
(dp5146
g7
g278
sg4713
(dp5147
g257
g748
ssg13
Nsg28
I10
sg4714
g5122
sg4706
F1.0
sbag0
(g5143
g2
Ntp5148
Rp5149
(dp5150
g7
g280
sg4713
(dp5151
g257
g751
ssg13
Nsg28
I11
sg4714
g5122
sg4706
F1.0
sbag0
(g5143
g2
Ntp5152
Rp5153
(dp5154
g7
g282
sg4713
(dp5155
g257
g754
ssg13
Nsg28
I12
sg4714
g5122
sg4706
F1.0
sbag0
(g5143
g2
Ntp5156
Rp5157
(dp5158
g7
g284
sg4713
(dp5159
g257
g757
ssg13
Nsg28
I13
sg4714
g5122
sg4706
F1.0
sbag0
(g5143
g2
Ntp5160
Rp5161
(dp5162
g7
g286
sg4713
(dp5163
g257
g760
ssg13
Nsg28
I14
sg4714
g5122
sg4706
F1.0
sbag0
(g5143
g2
Ntp5164
Rp5165
(dp5166
g7
g288
sg4713
(dp5167
g257
g763
ssg13
Nsg28
I15
sg4714
g5122
sg4706
F1.0
sbag0
(g5143
g2
Ntp5168
Rp5169
(dp5170
g7
g290
sg4713
(dp5171
g257
g766
ssg13
Nsg28
I16
sg4714
g5122
sg4706
F1.0
sbag0
(g5143
g2
Ntp5172
Rp5173
(dp5174
g7
g292
sg4713
(dp5175
g257
g769
ssg13
Nsg28
I17
sg4714
g5122
sg4706
F1.0
sbag0
(g5143
g2
Ntp5176
Rp5177
(dp5178
g7
g294
sg4713
(dp5179
g257
g772
ssg13
Nsg28
I18
sg4714
g5122
sg4706
F1.0
sbag0
(g5143
g2
Ntp5180
Rp5181
(dp5182
g7
g296
sg4713
(dp5183
g257
g775
ssg13
Nsg28
I19
sg4714
g5122
sg4706
F1.0
sbag0
(g5143
g2
Ntp5184
Rp5185
(dp5186
g7
g298
sg4713
(dp5187
g257
g778
ssg13
Nsg28
I20
sg4714
g5122
sg4706
F1.0
sbag0
(g5143
g2
Ntp5188
Rp5189
(dp5190
g7
g300
sg4713
(dp5191
g257
g781
ssg13
Nsg28
I21
sg4714
g5122
sg4706
F1.0
sbag0
(g5143
g2
Ntp5192
Rp5193
(dp5194
g7
g302
sg4713
(dp5195
g257
g784
ssg13
Nsg28
I22
sg4714
g5122
sg4706
F1.0
sbag0
(g5143
g2
Ntp5196
Rp5197
(dp5198
g7
g304
sg4713
(dp5199
g257
g787
ssg13
Nsg28
I23
sg4714
g5122
sg4706
F1.0
sbag0
(g5143
g2
Ntp5200
Rp5201
(dp5202
g7
g306
sg4713
(dp5203
g257
g790
ssg13
Nsg28
I24
sg4714
g5122
sg4706
F1.0
sbag0
(g5143
g2
Ntp5204
Rp5205
(dp5206
g7
g308
sg4713
(dp5207
g257
g793
ssg13
Nsg28
I25
sg4714
g5122
sg4706
F1.0
sbag0
(g5143
g2
Ntp5208
Rp5209
(dp5210
g7
g310
sg4713
(dp5211
g257
g796
ssg13
Nsg28
I26
sg4714
g5122
sg4706
F1.0
sbag0
(g5143
g2
Ntp5212
Rp5213
(dp5214
g7
g312
sg4713
(dp5215
g257
g799
ssg13
Nsg28
I27
sg4714
g5122
sg4706
F1.0
sbag0
(g5143
g2
Ntp5216
Rp5217
(dp5218
g7
g314
sg4713
(dp5219
g257
g802
ssg13
Nsg28
I28
sg4714
g5122
sg4706
F1.0
sbag0
(clanguage_schemas
CPT_PROPERTY_SCHEMA
p5220
g2
Ntp5221
Rp5222
(dp5223
g7
g316
sg4713
(dp5224
g257
g805
ssg13
Nsg28
I29
sg4714
g5122
sg4706
F1.0
sbag0
(g5220
g2
Ntp5225
Rp5226
(dp5227
g7
g318
sg4713
(dp5228
g257
g808
ssg13
Nsg28
I30
sg4714
g5122
sg4706
F1.0
sbag0
(g5220
g2
Ntp5229
Rp5230
(dp5231
g7
g320
sg4713
(dp5232
g257
g811
ssg13
Nsg28
I31
sg4714
g5122
sg4706
F1.0
sbag0
(g5220
g2
Ntp5233
Rp5234
(dp5235
g7
g322
sg4713
(dp5236
g257
g814
ssg13
Nsg28
I32
sg4714
g5122
sg4706
F1.0
sbag0
(g5220
g2
Ntp5237
Rp5238
(dp5239
g7
g324
sg4713
(dp5240
g257
g817
ssg13
Nsg28
I33
sg4714
g5122
sg4706
F1.0
sbag0
(g5220
g2
Ntp5241
Rp5242
(dp5243
g7
g326
sg4713
(dp5244
g257
g820
ssg13
Nsg28
I34
sg4714
g5122
sg4706
F1.0
sbag0
(g5220
g2
Ntp5245
Rp5246
(dp5247
g7
g328
sg4713
(dp5248
g257
g823
ssg13
Nsg28
I35
sg4714
g5122
sg4706
F1.0
sbag0
(g5220
g2
Ntp5249
Rp5250
(dp5251
g7
g330
sg4713
(dp5252
g257
g826
ssg13
Nsg28
I36
sg4714
g5122
sg4706
F1.0
sbag0
(g5220
g2
Ntp5253
Rp5254
(dp5255
g7
g332
sg4713
(dp5256
g257
g829
ssg13
Nsg28
I37
sg4714
g5122
sg4706
F1.0
sbag0
(g5220
g2
Ntp5257
Rp5258
(dp5259
g7
g334
sg4713
(dp5260
g257
g832
ssg13
Nsg28
I38
sg4714
g5122
sg4706
F1.0
sbag0
(g5220
g2
Ntp5261
Rp5262
(dp5263
g7
g336
sg4713
(dp5264
g257
g835
ssg13
Nsg28
I39
sg4714
g5122
sg4706
F1.0
sbag0
(g5220
g2
Ntp5265
Rp5266
(dp5267
g7
g338
sg4713
(dp5268
g257
g838
ssg13
Nsg28
I40
sg4714
g5122
sg4706
F1.0
sbag0
(g5220
g2
Ntp5269
Rp5270
(dp5271
g7
g340
sg4713
(dp5272
g257
g841
ssg13
Nsg28
I41
sg4714
g5122
sg4706
F1.0
sbag0
(g5220
g2
Ntp5273
Rp5274
(dp5275
g7
g342
sg4713
(dp5276
g257
g844
ssg13
Nsg28
I42
sg4714
g5122
sg4706
F1.0
sbag0
(clanguage_schemas
CPT_RELATION_SCHEMA
p5277
g2
Ntp5278
Rp5279
(dp5280
g7
g344
sg4713
(dp5281
g1017
Nsg257
g847
sg1018
Nssg13
Nsg28
I43
sg4714
g5122
sg4706
F1.0
sbag0
(g5277
g2
Ntp5282
Rp5283
(dp5284
g7
g346
sg4713
(dp5285
g1017
Nsg257
g850
sg1018
Nssg13
Nsg28
I44
sg4714
g5122
sg4706
F1.0
sbag0
(g5277
g2
Ntp5286
Rp5287
(dp5288
g7
g348
sg4713
(dp5289
g1017
Nsg257
g853
sg1018
Nssg13
Nsg28
I45
sg4714
g5122
sg4706
F1.0
sbag0
(g5277
g2
Ntp5290
Rp5291
(dp5292
g7
g350
sg4713
(dp5293
g1017
Nsg257
g856
sg1018
Nssg13
Nsg28
I46
sg4714
g5122
sg4706
F1.0
sbag0
(g5277
g2
Ntp5294
Rp5295
(dp5296
g7
g352
sg4713
(dp5297
g1017
Nsg257
g859
sg1018
Nssg13
Nsg28
I47
sg4714
g5122
sg4706
F1.0
sbag0
(g5277
g2
Ntp5298
Rp5299
(dp5300
g7
g354
sg4713
(dp5301
g1017
Nsg257
g862
sg1018
Nssg13
Nsg28
I48
sg4714
g5122
sg4706
F1.0
sbag0
(g5277
g2
Ntp5302
Rp5303
(dp5304
g7
g356
sg4713
(dp5305
g1017
Nsg257
g865
sg1018
Nssg13
Nsg28
I49
sg4714
g5122
sg4706
F1.0
sbag0
(g5277
g2
Ntp5306
Rp5307
(dp5308
g7
g358
sg4713
(dp5309
g1017
Nsg257
g868
sg1018
Nssg13
Nsg28
I50
sg4714
g5122
sg4706
F1.0
sbag0
(g5277
g2
Ntp5310
Rp5311
(dp5312
g7
g360
sg4713
(dp5313
g1017
Nsg257
g871
sg1018
Nssg13
Nsg28
I51
sg4714
g5122
sg4706
F1.0
sbag0
(g5277
g2
Ntp5314
Rp5315
(dp5316
g7
g362
sg4713
(dp5317
g1017
Nsg257
g874
sg1018
Nssg13
Nsg28
I52
sg4714
g5122
sg4706
F1.0
sbag0
(g5277
g2
Ntp5318
Rp5319
(dp5320
g7
g364
sg4713
(dp5321
g1017
Nsg257
g877
sg1018
Nssg13
Nsg28
I53
sg4714
g5122
sg4706
F1.0
sbag0
(g5277
g2
Ntp5322
Rp5323
(dp5324
g7
g366
sg4713
(dp5325
g1017
Nsg257
g880
sg1018
Nssg13
Nsg28
I54
sg4714
g5122
sg4706
F1.0
sbag0
(g5277
g2
Ntp5326
Rp5327
(dp5328
g7
g368
sg4713
(dp5329
g1017
Nsg257
g883
sg1018
Nssg13
Nsg28
I55
sg4714
g5122
sg4706
F1.0
sbag0
(g5277
g2
Ntp5330
Rp5331
(dp5332
g7
g370
sg4713
(dp5333
g1017
Nsg257
g886
sg1018
Nssg13
Nsg28
I56
sg4714
g5122
sg4706
F1.0
sbag0
(g5277
g2
Ntp5334
Rp5335
(dp5336
g7
g372
sg4713
(dp5337
g1017
Nsg257
g889
sg1018
Nssg13
Nsg28
I57
sg4714
g5122
sg4706
F1.0
sbag0
(g5277
g2
Ntp5338
Rp5339
(dp5340
g7
g374
sg4713
(dp5341
g1017
Nsg257
g892
sg1018
Nssg13
Nsg28
I58
sg4714
g5122
sg4706
F1.0
sbag0
(g5277
g2
Ntp5342
Rp5343
(dp5344
g7
g376
sg4713
(dp5345
g1017
Nsg257
g895
sg1018
Nssg13
Nsg28
I59
sg4714
g5122
sg4706
F1.0
sbag0
(g5277
g2
Ntp5346
Rp5347
(dp5348
g7
g378
sg4713
(dp5349
g1017
Nsg257
g898
sg1018
Nssg13
Nsg28
I60
sg4714
g5122
sg4706
F1.0
sbag0
(g5138
g2
Ntp5350
Rp5351
(dp5352
g7
g263
sg4713
(dp5353
g257
g260
ssg13
Nsg28
I61
sg4714
g5122
sg4706
F1.0
sbag0
(clanguage_schemas
CPT_ENTITY_SCHEMA
p5354
g2
Ntp5355
Rp5356
(dp5357
g7
g381
sg4713
(dp5358
g257
g901
ssg13
Nsg28
I62
sg4714
g5122
sg4706
F1.0
sbag0
(g5354
g2
Ntp5359
Rp5360
(dp5361
g7
g383
sg4713
(dp5362
g257
g904
ssg13
Nsg28
I63
sg4714
g5122
sg4706
F1.0
sbag0
(g5354
g2
Ntp5363
Rp5364
(dp5365
g7
g385
sg4713
(dp5366
g257
g907
ssg13
Nsg28
I64
sg4714
g5122
sg4706
F1.0
sbag0
(g5354
g2
Ntp5367
Rp5368
(dp5369
g7
g387
sg4713
(dp5370
g257
g910
ssg13
Nsg28
I65
sg4714
g5122
sg4706
F1.0
sbag0
(g5354
g2
Ntp5371
Rp5372
(dp5373
g7
g389
sg4713
(dp5374
g257
g913
ssg13
Nsg28
I66
sg4714
g5122
sg4706
F1.0
sbag0
(g5354
g2
Ntp5375
Rp5376
(dp5377
g7
g391
sg4713
(dp5378
g257
g916
ssg13
Nsg28
I67
sg4714
g5122
sg4706
F1.0
sbag0
(g5354
g2
Ntp5379
Rp5380
(dp5381
g7
g393
sg4713
(dp5382
g257
g919
ssg13
Nsg28
I68
sg4714
g5122
sg4706
F1.0
sbag0
(g5354
g2
Ntp5383
Rp5384
(dp5385
g7
g395
sg4713
(dp5386
g257
g922
ssg13
Nsg28
I69
sg4714
g5122
sg4706
F1.0
sbag0
(g5354
g2
Ntp5387
Rp5388
(dp5389
g7
g397
sg4713
(dp5390
g257
g925
ssg13
Nsg28
I70
sg4714
g5122
sg4706
F1.0
sbag0
(g5354
g2
Ntp5391
Rp5392
(dp5393
g7
g399
sg4713
(dp5394
g257
g928
ssg13
Nsg28
I71
sg4714
g5122
sg4706
F1.0
sbag0
(g5354
g2
Ntp5395
Rp5396
(dp5397
g7
g401
sg4713
(dp5398
g257
g931
ssg13
Nsg28
I72
sg4714
g5122
sg4706
F1.0
sbag0
(g5354
g2
Ntp5399
Rp5400
(dp5401
g7
g403
sg4713
(dp5402
g257
g934
ssg13
Nsg28
I73
sg4714
g5122
sg4706
F1.0
sbag0
(g5354
g2
Ntp5403
Rp5404
(dp5405
g7
g405
sg4713
(dp5406
g257
g937
ssg13
Nsg28
I74
sg4714
g5122
sg4706
F1.0
sbag0
(g5354
g2
Ntp5407
Rp5408
(dp5409
g7
g407
sg4713
(dp5410
g257
g940
ssg13
Nsg28
I75
sg4714
g5122
sg4706
F1.0
sbag0
(g5354
g2
Ntp5411
Rp5412
(dp5413
g7
g409
sg4713
(dp5414
g257
g943
ssg13
Nsg28
I76
sg4714
g5122
sg4706
F1.0
sbag0
(g5354
g2
Ntp5415
Rp5416
(dp5417
g7
g411
sg4713
(dp5418
g257
g946
ssg13
Nsg28
I77
sg4714
g5122
sg4706
F1.0
sbag0
(g5354
g2
Ntp5419
Rp5420
(dp5421
g7
g413
sg4713
(dp5422
g257
g949
ssg13
Nsg28
I78
sg4714
g5122
sg4706
F1.0
sbag0
(g5354
g2
Ntp5423
Rp5424
(dp5425
g7
g415
sg4713
(dp5426
g257
g952
ssg13
Nsg28
I79
sg4714
g5122
sg4706
F1.0
sbag0
(g5354
g2
Ntp5427
Rp5428
(dp5429
g7
g417
sg4713
(dp5430
g257
g955
ssg13
Nsg28
I80
sg4714
g5122
sg4706
F1.0
sbag0
(g5354
g2
Ntp5431
Rp5432
(dp5433
g7
g419
sg4713
(dp5434
g257
g958
ssg13
Nsg28
I81
sg4714
g5122
sg4706
F1.0
sbag0
(g5354
g2
Ntp5435
Rp5436
(dp5437
g7
g421
sg4713
(dp5438
g257
g961
ssg13
Nsg28
I82
sg4714
g5122
sg4706
F1.0
sbag0
(g5354
g2
Ntp5439
Rp5440
(dp5441
g7
g423
sg4713
(dp5442
g257
g964
ssg13
Nsg28
I83
sg4714
g5122
sg4706
F1.0
sbag0
(g5354
g2
Ntp5443
Rp5444
(dp5445
g7
g425
sg4713
(dp5446
g257
g967
ssg13
Nsg28
I84
sg4714
g5122
sg4706
F1.0
sbag0
(g5354
g2
Ntp5447
Rp5448
(dp5449
g7
g427
sg4713
(dp5450
g257
g970
ssg13
Nsg28
I85
sg4714
g5122
sg4706
F1.0
sbag0
(g5354
g2
Ntp5451
Rp5452
(dp5453
g7
g429
sg4713
(dp5454
g257
g973
ssg13
Nsg28
I86
sg4714
g5122
sg4706
F1.0
sbag0
(g5354
g2
Ntp5455
Rp5456
(dp5457
g7
g431
sg4713
(dp5458
g257
g976
ssg13
Nsg28
I87
sg4714
g5122
sg4706
F1.0
sbag0
(g5354
g2
Ntp5459
Rp5460
(dp5461
g7
g433
sg4713
(dp5462
g257
g979
ssg13
Nsg28
I88
sg4714
g5122
sg4706
F1.0
sbag0
(g5354
g2
Ntp5463
Rp5464
(dp5465
g7
g435
sg4713
(dp5466
g257
g982
ssg13
Nsg28
I89
sg4714
g5122
sg4706
F1.0
sbag0
(g5354
g2
Ntp5467
Rp5468
(dp5469
g7
g437
sg4713
(dp5470
g257
g985
ssg13
Nsg28
I90
sg4714
g5122
sg4706
F1.0
sbag0
(g5354
g2
Ntp5471
Rp5472
(dp5473
g7
g439
sg4713
(dp5474
g257
g988
ssg13
Nsg28
I91
sg4714
g5122
sg4706
F1.0
sbag0
(g5354
g2
Ntp5475
Rp5476
(dp5477
g7
g441
sg4713
(dp5478
g257
g991
ssg13
Nsg28
I92
sg4714
g5122
sg4706
F1.0
sbag0
(g5354
g2
Ntp5479
Rp5480
(dp5481
g7
g443
sg4713
(dp5482
g257
g994
ssg13
Nsg28
I93
sg4714
g5122
sg4706
F1.0
sbag0
(g5354
g2
Ntp5483
Rp5484
(dp5485
g7
g445
sg4713
(dp5486
g257
g997
ssg13
Nsg28
I94
sg4714
g5122
sg4706
F1.0
sbag0
(g5354
g2
Ntp5487
Rp5488
(dp5489
g7
g447
sg4713
(dp5490
g257
g1000
ssg13
Nsg28
I95
sg4714
g5122
sg4706
F1.0
sbag0
(g5354
g2
Ntp5491
Rp5492
(dp5493
g7
g449
sg4713
(dp5494
g257
g1003
ssg13
Nsg28
I96
sg4714
g5122
sg4706
F1.0
sbag0
(g5354
g2
Ntp5495
Rp5496
(dp5497
g7
g451
sg4713
(dp5498
g257
g1006
ssg13
Nsg28
I97
sg4714
g5122
sg4706
F1.0
sbag0
(g5354
g2
Ntp5499
Rp5500
(dp5501
g7
g453
sg4713
(dp5502
g257
g1009
ssg13
Nsg28
I98
sg4714
g5122
sg4706
F1.0
sbasbsg180
g199
sg172
g4931
sg42
g32
sg160
g5090
sg176
g224
ssb.