ccopy_reg
_reconstructor
p0
(clanguage_schemas
SEM_GENERATOR
p1
c__builtin__
object
p2
Ntp3
Rp4
(dp5
S'sem_inputs'
p6
(dp7
S'{}'
p8
(dp9
Vtiming
p10
(lp11
F0.0
aF100.0
aF200.0
aF300.0
aF400.0
asVsem_rate
p12
I1
sVpropositions
p13
(dp14
VMAN_AREA
p15
(lp16
VENTITY(e1,F)
p17
aVMAN(man)
p18
aVIS(is1)
p19
aVis1(e1, man)
p20
asVKICK_AREA
p21
(lp22
VKICK(kick)
p23
aVIS(is4)
p24
aVis4(a1, kick)
p25
aVENTITY(e2,F)
p26
aVENTITY(e1,F)
p27
aVAGENT(agt)
p28
aVPATIENT(pt)
p29
aVagt(a1, e2)
p30
aVpt(a1, e1)
p31
asVWOMAN_AREA
p32
(lp33
VENTITY(e2,F)
p34
aVWOMAN(woman)
p35
aVIS(is2)
p36
aVis2(e2, woman)
p37
asVACTION_AREA
p38
(lp39
VEVENT(evt1,F)
p40
aVACTION(a1,F)
p41
aVIS(is3)
p42
aVis3(evt1,a1)
p43
asVWOMAN_FACE_AREA
p44
(lp45
VYOUNG(young)
p46
aVMODIFY(mod)
p47
aVmod(e2, young)
p48
assVcomments
p49
VEasy action, hard objects + modifier
p50
sVsequence
p51
(lp52
VACTION_AREA
p53
aVKICK_AREA
p54
aVWOMAN_AREA
p55
aVMAN_AREA
p56
aVWOMAN_FACE_AREA
p57
asssS'is_macro'
p58
I01
sS'ground_truths'
p59
NsS'speed_param'
p60
I100
sS'interpreter'
p61
g0
(clanguage_schemas
ISRF_INTERPRETER
p62
g2
Ntp63
Rp64
(dp65
S'name_table'
p66
(dp67
sS'conceptLTM'
p68
g0
(clanguage_schemas
CONCEPT_LTM
p69
g2
Ntp70
Rp71
(dp72
S'inputs'
p73
(dp74
sS'name'
p75
S'Concept_LTM'
p76
sS'out_ports'
p77
(lp78
g0
(cschema_theory
PORT
p79
g2
Ntp80
Rp81
(dp82
g75
S'to_conceptualizer'
p83
sS'data'
p84
NsS'value'
p85
NsS'type'
p86
S'OUT'
p87
sS'id'
p88
I11
sS'schema'
p89
g71
sbag0
(g79
g2
Ntp90
Rp91
(dp92
g75
S'to_semantic_WM'
p93
sg84
Nsg85
Nsg86
g87
sg88
I12
sg89
g71
sbasS'outputs'
p94
(dp95
g83
Nsg93
NssS'connections'
p96
(lp97
sS'cpt_knowledge'
p98
g0
(cconcept
CONCEPTUAL_KNOWLEDGE
p99
g2
Ntp100
Rp101
(dp102
S'graph'
p103
g0
(cnetworkx.classes.digraph
DiGraph
p104
g2
Ntp105
Rp106
(dp107
S'node'
p108
(dp109
I1
(dp110
S'meaning'
p111
S'?'
p112
ssI2
(dp113
g111
S'CONCEPT'
p114
ssI3
(dp115
g111
VACTION
p116
ssI4
(dp117
g111
VSYMMETRIC
p118
ssI5
(dp119
g111
VMEET
p120
ssI6
(dp121
g111
VSHAKE_HANDS
p122
ssI7
(dp123
g111
VINTRANSITIVE
p124
ssI8
(dp125
g111
VLAUGH
p126
ssI9
(dp127
g111
VTRANSITIVE
p128
ssI10
(dp129
g111
VHIT
p130
ssI11
(dp131
g111
VWATCH
p132
ssI12
(dp133
g111
VPUNCH
p134
ssI13
(dp135
g111
VSPLASH
p136
ssI14
(dp137
g111
VTALK
p138
ssI15
(dp139
g111
VKISS
p140
ssI16
(dp141
g111
VSQUIRT
p142
ssI17
(dp143
g111
VKICK
p144
ssI18
(dp145
g111
VWEAR
p146
ssI19
(dp147
g111
VDITRANSITIVE
p148
ssI20
(dp149
g111
VSEND
p150
ssI21
(dp151
g111
VGIVE
p152
ssI22
(dp153
g111
VPROPERTY
p154
ssI23
(dp155
g111
VCOLOR
p156
ssI24
(dp157
g111
VBLUE
p158
ssI25
(dp159
g111
VGREEN
p160
ssI26
(dp161
g111
VWHITE
p162
ssI27
(dp163
g111
VBLACK
p164
ssI28
(dp165
g111
VRED
p166
ssI29
(dp167
g111
VAPPEARANCE
p168
ssI30
(dp169
g111
VYOUNG
p170
ssI31
(dp171
g111
VPRETTY
p172
ssI32
(dp173
g111
VHANDSOME
p174
ssI33
(dp175
g111
VSIZE
p176
ssI34
(dp177
g111
VSMALL
p178
ssI35
(dp179
g111
VBIG
p180
ssI36
(dp181
g111
VRELATION
p182
ssI37
(dp183
g111
VACTION_FRAME
p184
ssI38
(dp185
g111
VMODIFY
p186
ssI39
(dp187
g111
VTHEME
p188
ssI40
(dp189
g111
VRECIPIENT
p190
ssI41
(dp191
g111
VATTR
p192
ssI42
(dp193
g111
VAGT_PT
p194
ssI43
(dp195
g111
VPATIENT
p196
ssI44
(dp197
g111
VAGT+PT
p198
ssI45
(dp199
g111
VAGENT
p200
ssI46
(dp201
g111
VEVENT_FRAME
p202
ssI47
(dp203
g111
VTEMPORAL
p204
ssI48
(dp205
g111
VCONCURRENT
p206
ssI49
(dp207
g111
VSUCCESSIVE
p208
ssI50
(dp209
g111
VSPATIAL
p210
ssI51
(dp211
g111
VIN
p212
ssI52
(dp213
g111
VIS
p214
ssI53
(dp215
g111
VOBJECT_FRAME
p216
ssI54
(dp217
g111
VEVENT
p218
ssI55
(dp219
g111
VENTITY
p220
ssI56
(dp221
g111
VANIMATE
p222
ssI57
(dp223
g111
VANIMAL
p224
ssI58
(dp225
g111
VHUMAN
p226
ssI59
(dp227
g111
VOBJECT
p228
ssI60
(dp229
g111
VITEM
p230
ssI61
(dp231
g111
VWAGON
p232
ssI62
(dp233
g111
VWATERING_CAN
p234
ssI63
(dp235
g111
VBAG
p236
ssI64
(dp237
g111
VTREE
p238
ssI65
(dp239
g111
VHOOK
p240
ssI66
(dp241
g111
VCELLO
p242
ssI67
(dp243
g111
VBOOKSHELF
p244
ssI68
(dp245
g111
VCLOTHING
p246
ssI69
(dp247
g111
VTSHIRT
p248
ssI70
(dp249
g111
VDRESS
p250
ssI71
(dp251
g111
VSHIRT
p252
ssI72
(dp253
g111
VSUIT
p254
ssI73
(dp255
g111
VTURTLE
p256
ssI74
(dp257
g111
VMOUSE
p258
ssI75
(dp259
g111
VDOG
p260
ssI76
(dp261
g111
VBOY
p262
ssI77
(dp263
g111
VWOMAN
p264
ssI78
(dp265
g111
VPEOPLE
p266
ssI79
(dp267
g111
VPOLICEMAN
p268
ssI80
(dp269
g111
VHUNTER
p270
ssI81
(dp271
g111
VBALLERINA
p272
ssI82
(dp273
g111
VCELLIST
p274
ssI83
(dp275
g111
VGIRL
p276
ssI84
(dp277
g111
VFENCER
p278
ssI85
(dp279
g111
VROBBER
p280
ssI86
(dp281
g111
VMAN
p282
ssI87
(dp283
g111
VPLACE
p284
ssI88
(dp285
g111
VBOXINGRING
p286
ssI89
(dp287
g111
VPARK
p288
ssI90
(dp289
g111
VMALE
p290
ssI91
(dp291
g111
VFEMALE
p292
sssS'node_dict_factory'
p293
c__builtin__
dict
p294
sS'edge_attr_dict_factory'
p295
g294
sS'succ'
p296
(dp297
I1
(dp298
sI2
(dp299
sI3
(dp300
I2
(dp301
g86
S'is_a'
p302
sssI4
(dp303
I3
(dp304
g86
g302
sssI5
(dp305
I4
(dp306
g86
g302
sssI6
(dp307
I4
(dp308
g86
g302
sssI7
(dp309
I3
(dp310
g86
g302
sssI8
(dp311
I7
(dp312
g86
g302
sssI9
(dp313
I3
(dp314
g86
g302
sssI10
(dp315
I9
(dp316
g86
g302
sssI11
(dp317
I9
(dp318
g86
g302
sssI12
(dp319
I9
(dp320
g86
g302
sssI13
(dp321
I9
(dp322
g86
g302
sssI14
(dp323
I9
(dp324
g86
g302
sssI15
(dp325
I9
(dp326
g86
g302
sssI16
(dp327
I9
(dp328
g86
g302
sssI17
(dp329
I9
(dp330
g86
g302
sssI18
(dp331
I9
(dp332
g86
g302
sssI19
(dp333
I3
(dp334
g86
g302
sssI20
(dp335
I19
(dp336
g86
g302
sssI21
(dp337
I19
(dp338
g86
g302
sssI22
(dp339
I2
(dp340
g86
g302
sssI23
(dp341
I22
(dp342
g86
g302
sssI24
(dp343
I23
(dp344
g86
g302
sssI25
(dp345
I23
(dp346
g86
g302
sssI26
(dp347
I23
(dp348
g86
g302
sssI27
(dp349
I23
(dp350
g86
g302
sssI28
(dp351
I23
(dp352
g86
g302
sssI29
(dp353
I22
(dp354
g86
g302
sssI30
(dp355
I29
(dp356
g86
g302
sssI31
(dp357
I29
(dp358
g86
g302
sssI32
(dp359
I29
(dp360
g86
g302
sssI33
(dp361
I22
(dp362
g86
g302
sssI34
(dp363
I33
(dp364
g86
g302
sssI35
(dp365
I33
(dp366
g86
g302
sssI36
(dp367
I2
(dp368
g86
g302
sssI37
(dp369
I36
(dp370
g86
g302
sssI38
(dp371
I37
(dp372
g86
g302
ssI53
(dp373
g86
g302
sssI39
(dp374
I37
(dp375
g86
g302
sssI40
(dp376
I37
(dp377
g86
g302
sssI41
(dp378
I37
(dp379
g86
g302
ssI53
(dp380
g86
g302
sssI42
(dp381
I37
(dp382
g86
g302
sssI43
(dp383
I42
(dp384
g86
g302
sssI44
(dp385
I43
(dp386
g86
g302
ssI45
(dp387
g86
g302
sssI45
(dp388
I42
(dp389
g86
g302
sssI46
(dp390
I36
(dp391
g86
g302
sssI47
(dp392
I46
(dp393
g86
g302
sssI48
(dp394
I47
(dp395
g86
g302
sssI49
(dp396
I47
(dp397
g86
g302
sssI50
(dp398
I46
(dp399
g86
g302
sssI51
(dp400
I50
(dp401
g86
g302
sssI52
(dp402
I36
(dp403
g86
g302
sssI53
(dp404
I36
(dp405
g86
g302
sssI54
(dp406
I2
(dp407
g86
g302
sssI55
(dp408
I2
(dp409
g86
g302
sssI56
(dp410
I55
(dp411
g86
g302
sssI57
(dp412
I56
(dp413
g86
g302
ssI59
(dp414
g86
g302
sssI58
(dp415
I56
(dp416
g86
g302
ssI59
(dp417
g86
g302
sssI59
(dp418
I55
(dp419
g86
g302
sssI60
(dp420
I59
(dp421
g86
g302
sssI61
(dp422
I60
(dp423
g86
g302
sssI62
(dp424
I60
(dp425
g86
g302
sssI63
(dp426
I60
(dp427
g86
g302
sssI64
(dp428
I60
(dp429
g86
g302
sssI65
(dp430
I60
(dp431
g86
g302
sssI66
(dp432
I60
(dp433
g86
g302
sssI67
(dp434
I60
(dp435
g86
g302
sssI68
(dp436
I60
(dp437
g86
g302
sssI69
(dp438
I68
(dp439
g86
g302
sssI70
(dp440
I68
(dp441
g86
g302
sssI71
(dp442
I68
(dp443
g86
g302
sssI72
(dp444
I68
(dp445
g86
g302
sssI73
(dp446
I57
(dp447
g86
g302
sssI74
(dp448
I57
(dp449
g86
g302
sssI75
(dp450
I57
(dp451
g86
g302
sssI76
(dp452
I58
(dp453
g86
g302
ssI90
(dp454
g86
g302
sssI77
(dp455
I58
(dp456
g86
g302
ssI91
(dp457
g86
g302
sssI78
(dp458
I58
(dp459
g86
g302
sssI79
(dp460
I58
(dp461
g86
g302
sssI80
(dp462
I58
(dp463
g86
g302
sssI81
(dp464
I58
(dp465
g86
g302
ssI91
(dp466
g86
g302
sssI82
(dp467
I58
(dp468
g86
g302
sssI83
(dp469
I58
(dp470
g86
g302
ssI91
(dp471
g86
g302
sssI84
(dp472
I58
(dp473
g86
g302
sssI85
(dp474
I58
(dp475
g86
g302
sssI86
(dp476
I58
(dp477
g86
g302
ssI90
(dp478
g86
g302
sssI87
(dp479
I55
(dp480
g86
g302
sssI88
(dp481
I87
(dp482
g86
g302
sssI89
(dp483
I87
(dp484
g86
g302
sssI90
(dp485
I55
(dp486
g86
g302
sssI91
(dp487
I55
(dp488
g86
g302
ssssS'edge'
p489
g297
sg103
(dp490
sS'adjlist_dict_factory'
p491
g294
sS'adj'
p492
g297
sS'pred'
p493
(dp494
I1
(dp495
sI2
(dp496
I3
g301
sI36
g368
sI54
g407
sI22
g340
sI55
g409
ssI3
(dp497
I9
g314
sI19
g334
sI4
g304
sI7
g310
ssI4
(dp498
I5
g306
sI6
g308
ssI5
(dp499
sI6
(dp500
sI7
(dp501
I8
g312
ssI8
(dp502
sI9
(dp503
I10
g316
sI11
g318
sI12
g320
sI13
g322
sI14
g324
sI15
g326
sI16
g328
sI17
g330
sI18
g332
ssI10
(dp504
sI11
(dp505
sI12
(dp506
sI13
(dp507
sI14
(dp508
sI15
(dp509
sI16
(dp510
sI17
(dp511
sI18
(dp512
sI19
(dp513
I20
g336
sI21
g338
ssI20
(dp514
sI21
(dp515
sI22
(dp516
I33
g362
sI29
g354
sI23
g342
ssI23
(dp517
I24
g344
sI25
g346
sI26
g348
sI27
g350
sI28
g352
ssI24
(dp518
sI25
(dp519
sI26
(dp520
sI27
(dp521
sI28
(dp522
sI29
(dp523
I32
g360
sI30
g356
sI31
g358
ssI30
(dp524
sI31
(dp525
sI32
(dp526
sI33
(dp527
I34
g364
sI35
g366
ssI34
(dp528
sI35
(dp529
sI36
(dp530
I52
g403
sI37
g370
sI46
g391
sI53
g405
ssI37
(dp531
I40
g377
sI41
g379
sI42
g382
sI38
g372
sI39
g375
ssI38
(dp532
sI39
(dp533
sI40
(dp534
sI41
(dp535
sI42
(dp536
I43
g384
sI45
g389
ssI43
(dp537
I44
g386
ssI44
(dp538
sI45
(dp539
I44
g387
ssI46
(dp540
I50
g399
sI47
g393
ssI47
(dp541
I48
g395
sI49
g397
ssI48
(dp542
sI49
(dp543
sI50
(dp544
I51
g401
ssI51
(dp545
sI52
(dp546
sI53
(dp547
I41
g380
sI38
g373
ssI54
(dp548
sI55
(dp549
I56
g411
sI91
g488
sI90
g486
sI59
g419
sI87
g480
ssI56
(dp550
I57
g413
sI58
g416
ssI57
(dp551
I73
g447
sI74
g449
sI75
g451
ssI58
(dp552
I76
g453
sI77
g456
sI78
g459
sI79
g461
sI80
g463
sI81
g465
sI82
g468
sI83
g470
sI84
g473
sI85
g475
sI86
g477
ssI59
(dp553
I57
g414
sI58
g417
sI60
g421
ssI60
(dp554
I64
g429
sI65
g431
sI66
g433
sI67
g435
sI68
g437
sI61
g423
sI62
g425
sI63
g427
ssI61
(dp555
sI62
(dp556
sI63
(dp557
sI64
(dp558
sI65
(dp559
sI66
(dp560
sI67
(dp561
sI68
(dp562
I72
g445
sI69
g439
sI70
g441
sI71
g443
ssI69
(dp563
sI70
(dp564
sI71
(dp565
sI72
(dp566
sI73
(dp567
sI74
(dp568
sI75
(dp569
sI76
(dp570
sI77
(dp571
sI78
(dp572
sI79
(dp573
sI80
(dp574
sI81
(dp575
sI82
(dp576
sI83
(dp577
sI84
(dp578
sI85
(dp579
sI86
(dp580
sI87
(dp581
I88
g482
sI89
g484
ssI88
(dp582
sI89
(dp583
sI90
(dp584
I76
g454
sI86
g478
ssI91
(dp585
I81
g466
sI83
g471
sI77
g457
sssbsS'nodes'
p586
(lp587
g0
(cconcept
CONCEPT
p588
g2
Ntp589
Rp590
(dp591
g111
g112
sS'conceptual_knowledge'
p592
g101
sg88
I1
sg75
g112
sbag0
(g588
g2
Ntp593
Rp594
(dp595
g111
g114
sg592
g101
sg88
I2
sg75
g114
sbag0
(g588
g2
Ntp596
Rp597
(dp598
g111
g116
sg592
g101
sg88
I3
sg75
g116
sbag0
(g588
g2
Ntp599
Rp600
(dp601
g111
g118
sg592
g101
sg88
I4
sg75
g118
sbag0
(g588
g2
Ntp602
Rp603
(dp604
g111
g120
sg592
g101
sg88
I5
sg75
g120
sbag0
(g588
g2
Ntp605
Rp606
(dp607
g111
g122
sg592
g101
sg88
I6
sg75
g122
sbag0
(g588
g2
Ntp608
Rp609
(dp610
g111
g124
sg592
g101
sg88
I7
sg75
g124
sbag0
(g588
g2
Ntp611
Rp612
(dp613
g111
g126
sg592
g101
sg88
I8
sg75
g126
sbag0
(g588
g2
Ntp614
Rp615
(dp616
g111
g128
sg592
g101
sg88
I9
sg75
g128
sbag0
(g588
g2
Ntp617
Rp618
(dp619
g111
g130
sg592
g101
sg88
I10
sg75
g130
sbag0
(g588
g2
Ntp620
Rp621
(dp622
g111
g132
sg592
g101
sg88
I11
sg75
g132
sbag0
(g588
g2
Ntp623
Rp624
(dp625
g111
g134
sg592
g101
sg88
I12
sg75
g134
sbag0
(g588
g2
Ntp626
Rp627
(dp628
g111
g136
sg592
g101
sg88
I13
sg75
g136
sbag0
(g588
g2
Ntp629
Rp630
(dp631
g111
g138
sg592
g101
sg88
I14
sg75
g138
sbag0
(g588
g2
Ntp632
Rp633
(dp634
g111
g140
sg592
g101
sg88
I15
sg75
g140
sbag0
(g588
g2
Ntp635
Rp636
(dp637
g111
g142
sg592
g101
sg88
I16
sg75
g142
sbag0
(g588
g2
Ntp638
Rp639
(dp640
g111
g144
sg592
g101
sg88
I17
sg75
g144
sbag0
(g588
g2
Ntp641
Rp642
(dp643
g111
g146
sg592
g101
sg88
I18
sg75
g146
sbag0
(g588
g2
Ntp644
Rp645
(dp646
g111
g148
sg592
g101
sg88
I19
sg75
g148
sbag0
(g588
g2
Ntp647
Rp648
(dp649
g111
g150
sg592
g101
sg88
I20
sg75
g150
sbag0
(g588
g2
Ntp650
Rp651
(dp652
g111
g152
sg592
g101
sg88
I21
sg75
g152
sbag0
(g588
g2
Ntp653
Rp654
(dp655
g111
g154
sg592
g101
sg88
I22
sg75
g154
sbag0
(g588
g2
Ntp656
Rp657
(dp658
g111
g156
sg592
g101
sg88
I23
sg75
g156
sbag0
(g588
g2
Ntp659
Rp660
(dp661
g111
g158
sg592
g101
sg88
I24
sg75
g158
sbag0
(g588
g2
Ntp662
Rp663
(dp664
g111
g160
sg592
g101
sg88
I25
sg75
g160
sbag0
(g588
g2
Ntp665
Rp666
(dp667
g111
g162
sg592
g101
sg88
I26
sg75
g162
sbag0
(g588
g2
Ntp668
Rp669
(dp670
g111
g164
sg592
g101
sg88
I27
sg75
g164
sbag0
(g588
g2
Ntp671
Rp672
(dp673
g111
g166
sg592
g101
sg88
I28
sg75
g166
sbag0
(g588
g2
Ntp674
Rp675
(dp676
g111
g168
sg592
g101
sg88
I29
sg75
g168
sbag0
(g588
g2
Ntp677
Rp678
(dp679
g111
g170
sg592
g101
sg88
I30
sg75
g170
sbag0
(g588
g2
Ntp680
Rp681
(dp682
g111
g172
sg592
g101
sg88
I31
sg75
g172
sbag0
(g588
g2
Ntp683
Rp684
(dp685
g111
g174
sg592
g101
sg88
I32
sg75
g174
sbag0
(g588
g2
Ntp686
Rp687
(dp688
g111
g176
sg592
g101
sg88
I33
sg75
g176
sbag0
(g588
g2
Ntp689
Rp690
(dp691
g111
g178
sg592
g101
sg88
I34
sg75
g178
sbag0
(g588
g2
Ntp692
Rp693
(dp694
g111
g180
sg592
g101
sg88
I35
sg75
g180
sbag0
(g588
g2
Ntp695
Rp696
(dp697
g111
g182
sg592
g101
sg88
I36
sg75
g182
sbag0
(g588
g2
Ntp698
Rp699
(dp700
g111
g184
sg592
g101
sg88
I37
sg75
g184
sbag0
(g588
g2
Ntp701
Rp702
(dp703
g111
g186
sg592
g101
sg88
I38
sg75
g186
sbag0
(g588
g2
Ntp704
Rp705
(dp706
g111
g188
sg592
g101
sg88
I39
sg75
g188
sbag0
(g588
g2
Ntp707
Rp708
(dp709
g111
g190
sg592
g101
sg88
I40
sg75
g190
sbag0
(g588
g2
Ntp710
Rp711
(dp712
g111
g192
sg592
g101
sg88
I41
sg75
g192
sbag0
(g588
g2
Ntp713
Rp714
(dp715
g111
g194
sg592
g101
sg88
I42
sg75
g194
sbag0
(g588
g2
Ntp716
Rp717
(dp718
g111
g196
sg592
g101
sg88
I43
sg75
g196
sbag0
(g588
g2
Ntp719
Rp720
(dp721
g111
g198
sg592
g101
sg88
I44
sg75
g198
sbag0
(g588
g2
Ntp722
Rp723
(dp724
g111
g200
sg592
g101
sg88
I45
sg75
g200
sbag0
(g588
g2
Ntp725
Rp726
(dp727
g111
g202
sg592
g101
sg88
I46
sg75
g202
sbag0
(g588
g2
Ntp728
Rp729
(dp730
g111
g204
sg592
g101
sg88
I47
sg75
g204
sbag0
(g588
g2
Ntp731
Rp732
(dp733
g111
g206
sg592
g101
sg88
I48
sg75
g206
sbag0
(g588
g2
Ntp734
Rp735
(dp736
g111
g208
sg592
g101
sg88
I49
sg75
g208
sbag0
(g588
g2
Ntp737
Rp738
(dp739
g111
g210
sg592
g101
sg88
I50
sg75
g210
sbag0
(g588
g2
Ntp740
Rp741
(dp742
g111
g212
sg592
g101
sg88
I51
sg75
g212
sbag0
(g588
g2
Ntp743
Rp744
(dp745
g111
g214
sg592
g101
sg88
I52
sg75
g214
sbag0
(g588
g2
Ntp746
Rp747
(dp748
g111
g216
sg592
g101
sg88
I53
sg75
g216
sbag0
(g588
g2
Ntp749
Rp750
(dp751
g111
g218
sg592
g101
sg88
I54
sg75
g218
sbag0
(g588
g2
Ntp752
Rp753
(dp754
g111
g220
sg592
g101
sg88
I55
sg75
g220
sbag0
(g588
g2
Ntp755
Rp756
(dp757
g111
g222
sg592
g101
sg88
I56
sg75
g222
sbag0
(g588
g2
Ntp758
Rp759
(dp760
g111
g224
sg592
g101
sg88
I57
sg75
g224
sbag0
(g588
g2
Ntp761
Rp762
(dp763
g111
g226
sg592
g101
sg88
I58
sg75
g226
sbag0
(g588
g2
Ntp764
Rp765
(dp766
g111
g228
sg592
g101
sg88
I59
sg75
g228
sbag0
(g588
g2
Ntp767
Rp768
(dp769
g111
g230
sg592
g101
sg88
I60
sg75
g230
sbag0
(g588
g2
Ntp770
Rp771
(dp772
g111
g232
sg592
g101
sg88
I61
sg75
g232
sbag0
(g588
g2
Ntp773
Rp774
(dp775
g111
g234
sg592
g101
sg88
I62
sg75
g234
sbag0
(g588
g2
Ntp776
Rp777
(dp778
g111
g236
sg592
g101
sg88
I63
sg75
g236
sbag0
(g588
g2
Ntp779
Rp780
(dp781
g111
g238
sg592
g101
sg88
I64
sg75
g238
sbag0
(g588
g2
Ntp782
Rp783
(dp784
g111
g240
sg592
g101
sg88
I65
sg75
g240
sbag0
(g588
g2
Ntp785
Rp786
(dp787
g111
g242
sg592
g101
sg88
I66
sg75
g242
sbag0
(g588
g2
Ntp788
Rp789
(dp790
g111
g244
sg592
g101
sg88
I67
sg75
g244
sbag0
(g588
g2
Ntp791
Rp792
(dp793
g111
g246
sg592
g101
sg88
I68
sg75
g246
sbag0
(g588
g2
Ntp794
Rp795
(dp796
g111
g248
sg592
g101
sg88
I69
sg75
g248
sbag0
(g588
g2
Ntp797
Rp798
(dp799
g111
g250
sg592
g101
sg88
I70
sg75
g250
sbag0
(g588
g2
Ntp800
Rp801
(dp802
g111
g252
sg592
g101
sg88
I71
sg75
g252
sbag0
(g588
g2
Ntp803
Rp804
(dp805
g111
g254
sg592
g101
sg88
I72
sg75
g254
sbag0
(g588
g2
Ntp806
Rp807
(dp808
g111
g256
sg592
g101
sg88
I73
sg75
g256
sbag0
(g588
g2
Ntp809
Rp810
(dp811
g111
g258
sg592
g101
sg88
I74
sg75
g258
sbag0
(g588
g2
Ntp812
Rp813
(dp814
g111
g260
sg592
g101
sg88
I75
sg75
g260
sbag0
(g588
g2
Ntp815
Rp816
(dp817
g111
g262
sg592
g101
sg88
I76
sg75
g262
sbag0
(g588
g2
Ntp818
Rp819
(dp820
g111
g264
sg592
g101
sg88
I77
sg75
g264
sbag0
(g588
g2
Ntp821
Rp822
(dp823
g111
g266
sg592
g101
sg88
I78
sg75
g266
sbag0
(g588
g2
Ntp824
Rp825
(dp826
g111
g268
sg592
g101
sg88
I79
sg75
g268
sbag0
(g588
g2
Ntp827
Rp828
(dp829
g111
g270
sg592
g101
sg88
I80
sg75
g270
sbag0
(g588
g2
Ntp830
Rp831
(dp832
g111
g272
sg592
g101
sg88
I81
sg75
g272
sbag0
(g588
g2
Ntp833
Rp834
(dp835
g111
g274
sg592
g101
sg88
I82
sg75
g274
sbag0
(g588
g2
Ntp836
Rp837
(dp838
g111
g276
sg592
g101
sg88
I83
sg75
g276
sbag0
(g588
g2
Ntp839
Rp840
(dp841
g111
g278
sg592
g101
sg88
I84
sg75
g278
sbag0
(g588
g2
Ntp842
Rp843
(dp844
g111
g280
sg592
g101
sg88
I85
sg75
g280
sbag0
(g588
g2
Ntp845
Rp846
(dp847
g111
g282
sg592
g101
sg88
I86
sg75
g282
sbag0
(g588
g2
Ntp848
Rp849
(dp850
g111
g284
sg592
g101
sg88
I87
sg75
g284
sbag0
(g588
g2
Ntp851
Rp852
(dp853
g111
g286
sg592
g101
sg88
I88
sg75
g286
sbag0
(g588
g2
Ntp854
Rp855
(dp856
g111
g288
sg592
g101
sg88
I89
sg75
g288
sbag0
(g588
g2
Ntp857
Rp858
(dp859
g111
g290
sg592
g101
sg88
I90
sg75
g290
sbag0
(g588
g2
Ntp860
Rp861
(dp862
g111
g292
sg592
g101
sg88
I91
sg75
g292
sbasS'edges'
p863
(lp864
g0
(cconcept
SEM_REL
p865
g2
Ntp866
Rp867
(dp868
S'pTo'
p869
g594
sg86
g302
sS'pFrom'
p870
g597
sbag0
(g865
g2
Ntp871
Rp872
(dp873
g869
g597
sg86
g302
sg870
g600
sbag0
(g865
g2
Ntp874
Rp875
(dp876
g869
g600
sg86
g302
sg870
g603
sbag0
(g865
g2
Ntp877
Rp878
(dp879
g869
g600
sg86
g302
sg870
g606
sbag0
(g865
g2
Ntp880
Rp881
(dp882
g869
g597
sg86
g302
sg870
g609
sbag0
(g865
g2
Ntp883
Rp884
(dp885
g869
g609
sg86
g302
sg870
g612
sbag0
(g865
g2
Ntp886
Rp887
(dp888
g869
g597
sg86
g302
sg870
g615
sbag0
(g865
g2
Ntp889
Rp890
(dp891
g869
g615
sg86
g302
sg870
g618
sbag0
(g865
g2
Ntp892
Rp893
(dp894
g869
g615
sg86
g302
sg870
g621
sbag0
(g865
g2
Ntp895
Rp896
(dp897
g869
g615
sg86
g302
sg870
g624
sbag0
(g865
g2
Ntp898
Rp899
(dp900
g869
g615
sg86
g302
sg870
g627
sbag0
(g865
g2
Ntp901
Rp902
(dp903
g869
g615
sg86
g302
sg870
g630
sbag0
(g865
g2
Ntp904
Rp905
(dp906
g869
g615
sg86
g302
sg870
g633
sbag0
(g865
g2
Ntp907
Rp908
(dp909
g869
g615
sg86
g302
sg870
g636
sbag0
(g865
g2
Ntp910
Rp911
(dp912
g869
g615
sg86
g302
sg870
g639
sbag0
(g865
g2
Ntp913
Rp914
(dp915
g869
g615
sg86
g302
sg870
g642
sbag0
(g865
g2
Ntp916
Rp917
(dp918
g869
g597
sg86
g302
sg870
g645
sbag0
(g865
g2
Ntp919
Rp920
(dp921
g869
g645
sg86
g302
sg870
g648
sbag0
(g865
g2
Ntp922
Rp923
(dp924
g869
g645
sg86
g302
sg870
g651
sbag0
(g865
g2
Ntp925
Rp926
(dp927
g869
g594
sg86
g302
sg870
g654
sbag0
(g865
g2
Ntp928
Rp929
(dp930
g869
g654
sg86
g302
sg870
g657
sbag0
(g865
g2
Ntp931
Rp932
(dp933
g869
g657
sg86
g302
sg870
g660
sbag0
(g865
g2
Ntp934
Rp935
(dp936
g869
g657
sg86
g302
sg870
g663
sbag0
(g865
g2
Ntp937
Rp938
(dp939
g869
g657
sg86
g302
sg870
g666
sbag0
(g865
g2
Ntp940
Rp941
(dp942
g869
g657
sg86
g302
sg870
g669
sbag0
(g865
g2
Ntp943
Rp944
(dp945
g869
g657
sg86
g302
sg870
g672
sbag0
(g865
g2
Ntp946
Rp947
(dp948
g869
g654
sg86
g302
sg870
g675
sbag0
(g865
g2
Ntp949
Rp950
(dp951
g869
g675
sg86
g302
sg870
g678
sbag0
(g865
g2
Ntp952
Rp953
(dp954
g869
g675
sg86
g302
sg870
g681
sbag0
(g865
g2
Ntp955
Rp956
(dp957
g869
g675
sg86
g302
sg870
g684
sbag0
(g865
g2
Ntp958
Rp959
(dp960
g869
g654
sg86
g302
sg870
g687
sbag0
(g865
g2
Ntp961
Rp962
(dp963
g869
g687
sg86
g302
sg870
g690
sbag0
(g865
g2
Ntp964
Rp965
(dp966
g869
g687
sg86
g302
sg870
g693
sbag0
(g865
g2
Ntp967
Rp968
(dp969
g869
g594
sg86
g302
sg870
g696
sbag0
(g865
g2
Ntp970
Rp971
(dp972
g869
g696
sg86
g302
sg870
g699
sbag0
(g865
g2
Ntp973
Rp974
(dp975
g869
g699
sg86
g302
sg870
g702
sbag0
(g865
g2
Ntp976
Rp977
(dp978
g869
g699
sg86
g302
sg870
g705
sbag0
(g865
g2
Ntp979
Rp980
(dp981
g869
g699
sg86
g302
sg870
g708
sbag0
(g865
g2
Ntp982
Rp983
(dp984
g869
g699
sg86
g302
sg870
g711
sbag0
(g865
g2
Ntp985
Rp986
(dp987
g869
g699
sg86
g302
sg870
g714
sbag0
(g865
g2
Ntp988
Rp989
(dp990
g869
g714
sg86
g302
sg870
g717
sbag0
(g865
g2
Ntp991
Rp992
(dp993
g869
g717
sg86
g302
sg870
g720
sbag0
(g865
g2
Ntp994
Rp995
(dp996
g869
g714
sg86
g302
sg870
g723
sbag0
(g865
g2
Ntp997
Rp998
(dp999
g869
g723
sg86
g302
sg870
g720
sbag0
(g865
g2
Ntp1000
Rp1001
(dp1002
g869
g696
sg86
g302
sg870
g726
sbag0
(g865
g2
Ntp1003
Rp1004
(dp1005
g869
g726
sg86
g302
sg870
g729
sbag0
(g865
g2
Ntp1006
Rp1007
(dp1008
g869
g729
sg86
g302
sg870
g732
sbag0
(g865
g2
Ntp1009
Rp1010
(dp1011
g869
g729
sg86
g302
sg870
g735
sbag0
(g865
g2
Ntp1012
Rp1013
(dp1014
g869
g726
sg86
g302
sg870
g738
sbag0
(g865
g2
Ntp1015
Rp1016
(dp1017
g869
g738
sg86
g302
sg870
g741
sbag0
(g865
g2
Ntp1018
Rp1019
(dp1020
g869
g696
sg86
g302
sg870
g744
sbag0
(g865
g2
Ntp1021
Rp1022
(dp1023
g869
g696
sg86
g302
sg870
g747
sbag0
(g865
g2
Ntp1024
Rp1025
(dp1026
g869
g747
sg86
g302
sg870
g702
sbag0
(g865
g2
Ntp1027
Rp1028
(dp1029
g869
g747
sg86
g302
sg870
g711
sbag0
(g865
g2
Ntp1030
Rp1031
(dp1032
g869
g594
sg86
g302
sg870
g750
sbag0
(g865
g2
Ntp1033
Rp1034
(dp1035
g869
g594
sg86
g302
sg870
g753
sbag0
(g865
g2
Ntp1036
Rp1037
(dp1038
g869
g753
sg86
g302
sg870
g756
sbag0
(g865
g2
Ntp1039
Rp1040
(dp1041
g869
g756
sg86
g302
sg870
g759
sbag0
(g865
g2
Ntp1042
Rp1043
(dp1044
g869
g756
sg86
g302
sg870
g762
sbag0
(g865
g2
Ntp1045
Rp1046
(dp1047
g869
g753
sg86
g302
sg870
g765
sbag0
(g865
g2
Ntp1048
Rp1049
(dp1050
g869
g765
sg86
g302
sg870
g768
sbag0
(g865
g2
Ntp1051
Rp1052
(dp1053
g869
g768
sg86
g302
sg870
g771
sbag0
(g865
g2
Ntp1054
Rp1055
(dp1056
g869
g768
sg86
g302
sg870
g774
sbag0
(g865
g2
Ntp1057
Rp1058
(dp1059
g869
g768
sg86
g302
sg870
g777
sbag0
(g865
g2
Ntp1060
Rp1061
(dp1062
g869
g768
sg86
g302
sg870
g780
sbag0
(g865
g2
Ntp1063
Rp1064
(dp1065
g869
g768
sg86
g302
sg870
g783
sbag0
(g865
g2
Ntp1066
Rp1067
(dp1068
g869
g768
sg86
g302
sg870
g786
sbag0
(g865
g2
Ntp1069
Rp1070
(dp1071
g869
g768
sg86
g302
sg870
g789
sbag0
(g865
g2
Ntp1072
Rp1073
(dp1074
g869
g768
sg86
g302
sg870
g792
sbag0
(g865
g2
Ntp1075
Rp1076
(dp1077
g869
g792
sg86
g302
sg870
g795
sbag0
(g865
g2
Ntp1078
Rp1079
(dp1080
g869
g792
sg86
g302
sg870
g798
sbag0
(g865
g2
Ntp1081
Rp1082
(dp1083
g869
g792
sg86
g302
sg870
g801
sbag0
(g865
g2
Ntp1084
Rp1085
(dp1086
g869
g792
sg86
g302
sg870
g804
sbag0
(g865
g2
Ntp1087
Rp1088
(dp1089
g869
g765
sg86
g302
sg870
g759
sbag0
(g865
g2
Ntp1090
Rp1091
(dp1092
g869
g759
sg86
g302
sg870
g807
sbag0
(g865
g2
Ntp1093
Rp1094
(dp1095
g869
g759
sg86
g302
sg870
g810
sbag0
(g865
g2
Ntp1096
Rp1097
(dp1098
g869
g759
sg86
g302
sg870
g813
sbag0
(g865
g2
Ntp1099
Rp1100
(dp1101
g869
g765
sg86
g302
sg870
g762
sbag0
(g865
g2
Ntp1102
Rp1103
(dp1104
g869
g762
sg86
g302
sg870
g816
sbag0
(g865
g2
Ntp1105
Rp1106
(dp1107
g869
g762
sg86
g302
sg870
g819
sbag0
(g865
g2
Ntp1108
Rp1109
(dp1110
g869
g762
sg86
g302
sg870
g822
sbag0
(g865
g2
Ntp1111
Rp1112
(dp1113
g869
g762
sg86
g302
sg870
g825
sbag0
(g865
g2
Ntp1114
Rp1115
(dp1116
g869
g762
sg86
g302
sg870
g828
sbag0
(g865
g2
Ntp1117
Rp1118
(dp1119
g869
g762
sg86
g302
sg870
g831
sbag0
(g865
g2
Ntp1120
Rp1121
(dp1122
g869
g762
sg86
g302
sg870
g834
sbag0
(g865
g2
Ntp1123
Rp1124
(dp1125
g869
g762
sg86
g302
sg870
g837
sbag0
(g865
g2
Ntp1126
Rp1127
(dp1128
g869
g762
sg86
g302
sg870
g840
sbag0
(g865
g2
Ntp1129
Rp1130
(dp1131
g869
g762
sg86
g302
sg870
g843
sbag0
(g865
g2
Ntp1132
Rp1133
(dp1134
g869
g762
sg86
g302
sg870
g846
sbag0
(g865
g2
Ntp1135
Rp1136
(dp1137
g869
g753
sg86
g302
sg870
g849
sbag0
(g865
g2
Ntp1138
Rp1139
(dp1140
g869
g849
sg86
g302
sg870
g852
sbag0
(g865
g2
Ntp1141
Rp1142
(dp1143
g869
g849
sg86
g302
sg870
g855
sbag0
(g865
g2
Ntp1144
Rp1145
(dp1146
g869
g753
sg86
g302
sg870
g858
sbag0
(g865
g2
Ntp1147
Rp1148
(dp1149
g869
g858
sg86
g302
sg870
g816
sbag0
(g865
g2
Ntp1150
Rp1151
(dp1152
g869
g858
sg86
g302
sg870
g846
sbag0
(g865
g2
Ntp1153
Rp1154
(dp1155
g869
g753
sg86
g302
sg870
g861
sbag0
(g865
g2
Ntp1156
Rp1157
(dp1158
g869
g861
sg86
g302
sg870
g831
sbag0
(g865
g2
Ntp1159
Rp1160
(dp1161
g869
g861
sg86
g302
sg870
g837
sbag0
(g865
g2
Ntp1162
Rp1163
(dp1164
g869
g861
sg86
g302
sg870
g819
sbasS'neutral'
p1165
g590
sbsS'dt'
p1166
F1.0
sS'in_ports'
p1167
(lp1168
sS'params'
p1169
(dp1170
S'init_act'
p1171
F1.0
ssS't'
p1172
F0.0
sS'activity'
p1173
F0.0
sS'model'
p1174
g0
(cschema_theory
MODEL
p1175
g2
Ntp1176
Rp1177
(dp1178
S'verbose'
p1179
I00
sg75
S'language_system_P'
p1180
sS'sim_data'
p1181
(dp1182
S'system_states'
p1183
(dp1184
sg1174
(dp1185
ssg94
(dp1186
sS'input_ports'
p1187
(lp1188
g0
(g79
g2
Ntp1189
Rp1190
(dp1191
g75
S'from_conceptualizer'
p1192
sg84
Nsg85
Nsg86
S'IN'
p1193
sg88
I1
sg89
g0
(clanguage_schemas
SEMANTIC_WM
p1194
g2
Ntp1195
Rp1196
(dp1197
g73
(dp1198
S'from_grammatical_WM_P'
p1199
NsS'from_concept_LTM'
p1200
NsS'from_control'
p1201
NsS'from_grammatical_WM_C'
p1202
Nsg1192
NssS'schema_insts'
p1203
(lp1204
sg75
S'Semantic_WM'
p1205
sS'comp_links'
p1206
(lp1207
sg77
(lp1208
g0
(g79
g2
Ntp1209
Rp1210
(dp1211
g75
S'to_grammatical_WM_P'
p1212
sg84
Nsg85
Nsg86
g87
sg88
I6
sg89
g1196
sbag0
(g79
g2
Ntp1213
Rp1214
(dp1215
g75
S'to_cxn_retrieval_P'
p1216
sg84
Nsg85
Nsg86
g87
sg88
I7
sg89
g1196
sbag0
(g79
g2
Ntp1217
Rp1218
(dp1219
g75
S'to_control'
p1220
sg84
Nsg85
Nsg86
g87
sg88
I8
sg89
g1196
sbag0
(g79
g2
Ntp1221
Rp1222
(dp1223
g75
S'to_visual_WM'
p1224
sg84
Nsg85
Nsg86
g87
sg88
I9
sg89
g1196
sbag0
(g79
g2
Ntp1225
Rp1226
(dp1227
g75
S'to_output'
p1228
sg84
Nsg85
Nsg86
g87
sg88
I10
sg89
g1196
sbasg94
(dp1229
g1228
Nsg1212
Nsg1224
Nsg1216
Nsg1220
Nssg1166
F1.0
sS'coop_links'
p1230
(lp1231
sg1167
(lp1232
g1190
ag0
(g79
g2
Ntp1233
Rp1234
(dp1235
g75
g1200
sg84
Nsg85
Nsg86
g1193
sg88
I2
sg89
g1196
sbag0
(g79
g2
Ntp1236
Rp1237
(dp1238
g75
g1202
sg84
Nsg85
Nsg86
g1193
sg88
I3
sg89
g1196
sbag0
(g79
g2
Ntp1239
Rp1240
(dp1241
g75
g1199
sg84
Nsg85
Nsg86
g1193
sg88
I4
sg89
g1196
sbag0
(g79
g2
Ntp1242
Rp1243
(dp1244
g75
g1201
sg84
Nsg85
Nsg86
g1193
sg88
I5
sg89
g1196
sbasS'save_state'
p1245
(dp1246
S'insts'
p1247
(dp1248
sS'WM_activity'
p1249
(dp1250
S'comp'
p1251
(lp1252
sS'c2_network'
p1253
(dp1254
S'num_insts'
p1255
(lp1256
sS'num_coop_links'
p1257
(lp1258
sS'num_comp_links'
p1259
(lp1260
ssS'coop'
p1261
(lp1262
sg1172
(lp1263
sS'act'
p1264
(lp1265
sssg1169
(dp1266
S'C2'
p1267
(dp1268
S'P_comp'
p1269
F1.0
sS'max_capacity'
p1270
NsS'comp_weight'
p1271
F0.0
sS'P_coop'
p1272
F1.0
sS'coop_asymmetry'
p1273
F1.0
sS'coop_weight'
p1274
F0.0
sS'confidence_threshold'
p1275
F0.0
sS'comp_asymmetry'
p1276
F0.0
sS'prune_threshold'
p1277
F0.01
ssS'dyn'
p1278
(dp1279
S'tau'
p1280
F10000.0
sS'k'
p1281
F10.0
sS'act_rest'
p1282
F0.001
sS'noise_mean'
p1283
F0.0
sS'noise_std'
p1284
F1.0
sS'ext_weight'
p1285
F1.0
sS'int_weight'
p1286
F1.0
sssg1172
F0.0
sg1173
F0.0
sg1174
g1177
sS'SemRep'
p1287
g0
(g104
g2
Ntp1288
Rp1289
(dp1290
g108
(dp1291
sg293
g294
sg295
g294
sg296
(dp1292
sg489
g1292
sg103
(dp1293
sg491
g294
sg492
g1292
sg493
(dp1294
sbsg88
I1
sbsbasS'brain_mapping'
p1295
g0
(cschema_theory
BRAIN_MAPPING
p1296
g2
Ntp1297
Rp1298
(dp1299
S'schema_mapping'
p1300
(dp1301
S'Control'
p1302
(lp1303
S'DLPFC'
p1304
asS'Utter'
p1305
(lp1306
S''
p1307
asg1205
(lp1308
S'left_SFG'
p1309
aS'LIP'
p1310
aS'Hippocampus'
p1311
asS'Phonological_WM_P'
p1312
(lp1313
S'left_BA6'
p1314
asg76
(lp1315
g1307
asS'Grammatical_WM_P'
p1316
(lp1317
S'left_BA45'
p1318
aS'leftBA44'
p1319
asS'Grammatical_LTM'
p1320
(lp1321
S'left_STG'
p1322
aS'left_MTG'
p1323
asS'Cxn_retrieval_P'
p1324
(lp1325
ssS'connect_mapping'
p1326
(dp1327
sbsg96
(lp1328
g0
(cschema_theory
CONNECT
p1329
g2
Ntp1330
Rp1331
(dp1332
S'delay'
p1333
I0
sg75
g1307
sS'weight'
p1334
I0
sS'port_to'
p1335
g0
(g79
g2
Ntp1336
Rp1337
(dp1338
g75
S'from_semantic_WM'
p1339
sg84
Nsg85
Nsg86
g1193
sg88
I23
sg89
g0
(clanguage_schemas
CXN_RETRIEVAL_P
p1340
g2
Ntp1341
Rp1342
(dp1343
g73
(dp1344
g1339
NsS'from_grammatical_LTM'
p1345
Nssg75
g1324
sg77
(lp1346
g0
(g79
g2
Ntp1347
Rp1348
(dp1349
g75
g1212
sg84
Nsg85
Nsg86
g87
sg88
I24
sg89
g1342
sbasg94
(dp1350
g1212
NssS'cxn_instances'
p1351
(lp1352
sg1166
F1.0
sg1167
(lp1353
g0
(g79
g2
Ntp1354
Rp1355
(dp1356
g75
g1345
sg84
Nsg85
Nsg86
g1193
sg88
I22
sg89
g1342
sbag1337
asg1169
(dp1357
sg1172
F0.0
sg1173
F0.0
sg1174
g1177
sg88
I5
sbsbsS'port_from'
p1358
g1214
sg1174
g1177
sg88
I1
sbag0
(g1329
g2
Ntp1359
Rp1360
(dp1361
g1333
I0
sg75
g1307
sg1334
I0
sg1335
g1355
sg1358
g0
(g79
g2
Ntp1362
Rp1363
(dp1364
g75
g1216
sg84
Nsg85
Nsg86
g87
sg88
I20
sg89
g0
(clanguage_schemas
GRAMMATICAL_LTM
p1365
g2
Ntp1366
Rp1367
(dp1368
g73
(dp1369
sS'grammar'
p1370
(iconstruction
GRAMMAR
p1371
(dp1372
S'constructions'
p1373
(lp1374
(iconstruction
CXN
p1375
(dp1376
S'SymLinks'
p1377
(iconstruction
TP_SYMLINKS
p1378
(dp1379
S'SL'
p1380
(dp1381
VEVT1_4
p1382
VS1_6
p1383
sVEVT2_5
p1384
VS3_8
p1385
ssg88
I3
sg75
g1307
sbsS'clss'
p1386
VD
p1387
sS'group'
p1388
I3
sg75
VCNJ_AND
p1389
sS'SemFrame'
p1390
(iconstruction
TP_SEMFRAME
p1391
(dp1392
g103
g0
(g104
g2
Ntp1393
Rp1394
(dp1395
g108
(dp1396
(iconstruction
TP_NODE
p1397
(dp1398
S'head'
p1399
I00
sS'concept'
p1400
g750
sg75
g1384
sS'frame'
p1401
I00
sS'focus'
p1402
I00
sg88
I5
sb(dp1403
g1401
I00
sg1400
g750
ss(iconstruction
TP_NODE
p1404
(dp1405
g1399
I00
sg1400
g750
sg75
g1382
sg1401
I00
sg1402
I01
sg88
I4
sb(dp1406
g1401
I00
sg1400
g750
sssg293
g294
sg295
g294
sg296
(dp1407
g1397
(dp1408
sg1404
(dp1409
ssg489
g1407
sg103
(dp1410
sg491
g294
sg492
g1407
sg493
(dp1411
g1397
(dp1412
sg1404
(dp1413
ssbsg586
(lp1414
g1404
ag1397
asg863
(lp1415
sg88
I1
sg75
g1307
sbsS'SynForm'
p1416
(iconstruction
TP_SYNFORM
p1417
(dp1418
g88
I2
sS'form'
p1419
(lp1420
(iconstruction
TP_SLOT
p1421
(dp1422
S'cxn_classes'
p1423
(lp1424
VS
p1425
asS'order'
p1426
I0
sg88
I6
sg75
g1383
sba(iconstruction
TP_PHON
p1427
(dp1428
S'num_syllables'
p1429
I3
sg1426
I1
sg88
I7
sS'cxn_phonetics'
p1430
Vand
p1431
sg75
VS2_7
p1432
sba(iconstruction
TP_SLOT
p1433
(dp1434
g1423
(lp1435
VS
p1436
asg1426
I2
sg88
I8
sg75
g1385
sbasg75
g1307
sbsS'preference'
p1437
I1
sba(iconstruction
CXN
p1438
(dp1439
g1377
(iconstruction
TP_SYMLINKS
p1440
(dp1441
g1380
(dp1442
VEVT2_13
p1443
VS3_17
p1444
sVEVT1_12
p1445
VS1_15
p1446
ssg88
I11
sg75
g1307
sbsg1386
VD
p1447
sg1388
I3
sg75
VCNJ_THEN
p1448
sg1390
(iconstruction
TP_SEMFRAME
p1449
(dp1450
g103
g0
(g104
g2
Ntp1451
Rp1452
(dp1453
g108
(dp1454
(iconstruction
TP_NODE
p1455
(dp1456
g1399
I00
sg1400
g750
sg75
g1443
sg1401
I00
sg1402
I00
sg88
I13
sb(dp1457
g1401
I00
sg1400
g750
ss(iconstruction
TP_NODE
p1458
(dp1459
g1399
I00
sg1400
g750
sg75
g1445
sg1401
I00
sg1402
I00
sg88
I12
sb(dp1460
g1401
I00
sg1400
g750
sssg293
g294
sg295
g294
sg296
(dp1461
g1455
(dp1462
sg1458
(dp1463
g1455
(dp1464
g1400
g735
ssssg489
g1461
sg103
(dp1465
sg491
g294
sg492
g1461
sg493
(dp1466
g1455
(dp1467
g1458
g1464
ssg1458
(dp1468
ssbsg586
(lp1469
g1458
ag1455
asg863
(lp1470
(iconstruction
TP_REL
p1471
(dp1472
g869
g1455
sg1400
g735
sg88
I14
sg870
g1458
sg75
VEVT1_EVT2_14
p1473
sbasg88
I9
sg75
g1307
sbsg1416
(iconstruction
TP_SYNFORM
p1474
(dp1475
g88
I10
sg1419
(lp1476
(iconstruction
TP_SLOT
p1477
(dp1478
g1423
(lp1479
VS
p1480
asg1426
I0
sg88
I15
sg75
g1446
sba(iconstruction
TP_PHON
p1481
(dp1482
g1429
I4
sg1426
I1
sg88
I16
sg1430
Vthen
p1483
sg75
VS2_16
p1484
sba(iconstruction
TP_SLOT
p1485
(dp1486
g1423
(lp1487
VS
p1488
asg1426
I2
sg88
I17
sg75
g1444
sbasg75
g1307
sbsg1437
I1
sba(iconstruction
CXN
p1489
(dp1490
g1377
(iconstruction
TP_SYMLINKS
p1491
(dp1492
g1380
(dp1493
VEVT2_22
p1494
VS3_26
p1495
sVEVT1_21
p1496
VS1_24
p1497
ssg88
I20
sg75
g1307
sbsg1386
VD
p1498
sg1388
I3
sg75
VCNJ_WHILE
p1499
sg1390
(iconstruction
TP_SEMFRAME
p1500
(dp1501
g103
g0
(g104
g2
Ntp1502
Rp1503
(dp1504
g108
(dp1505
(iconstruction
TP_NODE
p1506
(dp1507
g1399
I00
sg1400
g750
sg75
g1496
sg1401
I00
sg1402
I01
sg88
I21
sb(dp1508
g1401
I00
sg1400
g750
ss(iconstruction
TP_NODE
p1509
(dp1510
g1399
I00
sg1400
g750
sg75
g1494
sg1401
I00
sg1402
I00
sg88
I22
sb(dp1511
g1401
I00
sg1400
g750
sssg293
g294
sg295
g294
sg296
(dp1512
g1506
(dp1513
g1509
(dp1514
g1400
g732
sssg1509
(dp1515
ssg489
g1512
sg103
(dp1516
sg491
g294
sg492
g1512
sg493
(dp1517
g1506
(dp1518
sg1509
(dp1519
g1506
g1514
sssbsg586
(lp1520
g1506
ag1509
asg863
(lp1521
(iconstruction
TP_REL
p1522
(dp1523
g869
g1509
sg1400
g732
sg88
I23
sg870
g1506
sg75
VEVT1_EVT2_23
p1524
sbasg88
I18
sg75
g1307
sbsg1416
(iconstruction
TP_SYNFORM
p1525
(dp1526
g88
I19
sg1419
(lp1527
(iconstruction
TP_SLOT
p1528
(dp1529
g1423
(lp1530
VS
p1531
asg1426
I0
sg88
I24
sg75
g1497
sba(iconstruction
TP_PHON
p1532
(dp1533
g1429
I5
sg1426
I1
sg88
I25
sg1430
Vwhile
p1534
sg75
VS2_25
p1535
sba(iconstruction
TP_SLOT
p1536
(dp1537
g1423
(lp1538
VS
p1539
asg1426
I2
sg88
I26
sg75
g1495
sbasg75
g1307
sbsg1437
I1
sba(iconstruction
CXN
p1540
(dp1541
g1377
(iconstruction
TP_SYMLINKS
p1542
(dp1543
g1380
(dp1544
VACT_31
p1545
VS4_40
p1546
sVACTOR_1_32
p1547
VS1_37
p1548
sVACTOR_2_33
p1549
VS3_39
p1550
ssg88
I29
sg75
g1307
sbsg1386
VS
p1551
sg1388
Nsg75
VSYMMETRIC_TRANS
p1552
sg1390
(iconstruction
TP_SEMFRAME
p1553
(dp1554
g103
g0
(g104
g2
Ntp1555
Rp1556
(dp1557
g108
(dp1558
(iconstruction
TP_NODE
p1559
(dp1560
g1399
I00
sg1400
g753
sg75
g1547
sg1401
I01
sg1402
I01
sg88
I32
sb(dp1561
g1401
I01
sg1400
g753
ss(iconstruction
TP_NODE
p1562
(dp1563
g1399
I00
sg1400
g597
sg75
g1545
sg1401
I01
sg1402
I00
sg88
I31
sb(dp1564
g1401
I01
sg1400
g597
ss(iconstruction
TP_NODE
p1565
(dp1566
g1399
I01
sg1400
g750
sg75
VEVT_30
p1567
sg1401
I01
sg1402
I00
sg88
I30
sb(dp1568
g1401
I01
sg1400
g750
ss(iconstruction
TP_NODE
p1569
(dp1570
g1399
I00
sg1400
g753
sg75
g1549
sg1401
I01
sg1402
I00
sg88
I33
sb(dp1571
g1401
I01
sg1400
g753
sssg293
g294
sg295
g294
sg296
(dp1572
g1559
(dp1573
sg1562
(dp1574
g1559
(dp1575
g1400
g720
ssg1569
(dp1576
g1400
g720
sssg1565
(dp1577
g1562
(dp1578
g1400
g744
sssg1569
(dp1579
ssg489
g1572
sg103
(dp1580
sg491
g294
sg492
g1572
sg493
(dp1581
g1559
(dp1582
g1562
g1575
ssg1562
(dp1583
g1565
g1578
ssg1565
(dp1584
sg1569
(dp1585
g1562
g1576
sssbsg586
(lp1586
g1565
ag1562
ag1559
ag1569
asg863
(lp1587
(iconstruction
TP_REL
p1588
(dp1589
g869
g1562
sg1400
g744
sg88
I34
sg870
g1565
sg75
VIS_34
p1590
sba(iconstruction
TP_REL
p1591
(dp1592
g869
g1559
sg1400
g720
sg88
I35
sg870
g1562
sg75
VAGT_PT_1_35
p1593
sba(iconstruction
TP_REL
p1594
(dp1595
g869
g1569
sg1400
g720
sg88
I36
sg870
g1562
sg75
VAGT_PT_2_36
p1596
sbasg88
I27
sg75
g1307
sbsg1416
(iconstruction
TP_SYNFORM
p1597
(dp1598
g88
I28
sg1419
(lp1599
(iconstruction
TP_SLOT
p1600
(dp1601
g1423
(lp1602
VNP
p1603
aVN
p1604
asg1426
I0
sg88
I37
sg75
g1548
sba(iconstruction
TP_PHON
p1605
(dp1606
g1429
I3
sg1426
I1
sg88
I38
sg1430
Vand
p1607
sg75
VS2_38
p1608
sba(iconstruction
TP_SLOT
p1609
(dp1610
g1423
(lp1611
VNP
p1612
aVN
p1613
asg1426
I2
sg88
I39
sg75
g1550
sba(iconstruction
TP_SLOT
p1614
(dp1615
g1423
(lp1616
VVP
p1617
aVV
p1618
asg1426
I3
sg88
I40
sg75
g1546
sbasg75
g1307
sbsg1437
I1
sba(iconstruction
CXN
p1619
(dp1620
g1377
(iconstruction
TP_SYMLINKS
p1621
(dp1622
g1380
(dp1623
VAGT_46
p1624
VS1_51
p1625
sVACT_45
p1626
VS2_52
p1627
sVPT_47
p1628
VS3_53
p1629
ssg88
I43
sg75
g1307
sbsg1386
VS
p1630
sg1388
I2
sg75
VSVO
p1631
sg1390
(iconstruction
TP_SEMFRAME
p1632
(dp1633
g103
g0
(g104
g2
Ntp1634
Rp1635
(dp1636
g108
(dp1637
(iconstruction
TP_NODE
p1638
(dp1639
g1399
I01
sg1400
g750
sg75
VEVT_44
p1640
sg1401
I01
sg1402
I00
sg88
I44
sb(dp1641
g1401
I01
sg1400
g750
ss(iconstruction
TP_NODE
p1642
(dp1643
g1399
I00
sg1400
g753
sg75
g1624
sg1401
I01
sg1402
I01
sg88
I46
sb(dp1644
g1401
I01
sg1400
g753
ss(iconstruction
TP_NODE
p1645
(dp1646
g1399
I00
sg1400
g597
sg75
g1626
sg1401
I01
sg1402
I00
sg88
I45
sb(dp1647
g1401
I01
sg1400
g597
ss(iconstruction
TP_NODE
p1648
(dp1649
g1399
I00
sg1400
g753
sg75
g1628
sg1401
I01
sg1402
I00
sg88
I47
sb(dp1650
g1401
I01
sg1400
g753
sssg293
g294
sg295
g294
sg296
(dp1651
g1638
(dp1652
g1645
(dp1653
g1400
g744
sssg1642
(dp1654
sg1645
(dp1655
g1642
(dp1656
g1400
g723
ssg1648
(dp1657
g1400
g717
sssg1648
(dp1658
ssg489
g1651
sg103
(dp1659
sg491
g294
sg492
g1651
sg493
(dp1660
g1638
(dp1661
sg1642
(dp1662
g1645
g1656
ssg1645
(dp1663
g1638
g1653
ssg1648
(dp1664
g1645
g1657
sssbsg586
(lp1665
g1638
ag1645
ag1642
ag1648
asg863
(lp1666
(iconstruction
TP_REL
p1667
(dp1668
g869
g1645
sg1400
g744
sg88
I48
sg870
g1638
sg75
VIS_48
p1669
sba(iconstruction
TP_REL
p1670
(dp1671
g869
g1642
sg1400
g723
sg88
I49
sg870
g1645
sg75
VACT_AGT_49
p1672
sba(iconstruction
TP_REL
p1673
(dp1674
g869
g1648
sg1400
g717
sg88
I50
sg870
g1645
sg75
VACT_PT_50
p1675
sbasg88
I41
sg75
g1307
sbsg1416
(iconstruction
TP_SYNFORM
p1676
(dp1677
g88
I42
sg1419
(lp1678
(iconstruction
TP_SLOT
p1679
(dp1680
g1423
(lp1681
VNP
p1682
aVN
p1683
asg1426
I0
sg88
I51
sg75
g1625
sba(iconstruction
TP_SLOT
p1684
(dp1685
g1423
(lp1686
VVP
p1687
aVV
p1688
asg1426
I1
sg88
I52
sg75
g1627
sba(iconstruction
TP_SLOT
p1689
(dp1690
g1423
(lp1691
VNP
p1692
aVN
p1693
asg1426
I2
sg88
I53
sg75
g1629
sbasg75
g1307
sbsg1437
I1
sba(iconstruction
CXN
p1694
(dp1695
g1377
(iconstruction
TP_SYMLINKS
p1696
(dp1697
g1380
(dp1698
VPT_60
p1699
VS1_64
p1700
sVACT_58
p1701
VS3_66
p1702
sVAGT_59
p1703
VS6_69
p1704
ssg88
I56
sg75
g1307
sbsg1386
VS
p1705
sg1388
I2
sg75
VPAS_SVO
p1706
sg1390
(iconstruction
TP_SEMFRAME
p1707
(dp1708
g103
g0
(g104
g2
Ntp1709
Rp1710
(dp1711
g108
(dp1712
(iconstruction
TP_NODE
p1713
(dp1714
g1399
I00
sg1400
g597
sg75
g1701
sg1401
I01
sg1402
I00
sg88
I58
sb(dp1715
g1401
I01
sg1400
g597
ss(iconstruction
TP_NODE
p1716
(dp1717
g1399
I00
sg1400
g753
sg75
g1703
sg1401
I01
sg1402
I00
sg88
I59
sb(dp1718
g1401
I01
sg1400
g753
ss(iconstruction
TP_NODE
p1719
(dp1720
g1399
I00
sg1400
g753
sg75
g1699
sg1401
I01
sg1402
I01
sg88
I60
sb(dp1721
g1401
I01
sg1400
g753
ss(iconstruction
TP_NODE
p1722
(dp1723
g1399
I01
sg1400
g750
sg75
VEVT_57
p1724
sg1401
I01
sg1402
I00
sg88
I57
sb(dp1725
g1401
I01
sg1400
g750
sssg293
g294
sg295
g294
sg296
(dp1726
g1713
(dp1727
g1719
(dp1728
g1400
g717
ssg1716
(dp1729
g1400
g723
sssg1716
(dp1730
sg1719
(dp1731
sg1722
(dp1732
g1713
(dp1733
g1400
g744
ssssg489
g1726
sg103
(dp1734
sg491
g294
sg492
g1726
sg493
(dp1735
g1713
(dp1736
g1722
g1733
ssg1716
(dp1737
g1713
g1729
ssg1719
(dp1738
g1713
g1728
ssg1722
(dp1739
ssbsg586
(lp1740
g1722
ag1713
ag1716
ag1719
asg863
(lp1741
(iconstruction
TP_REL
p1742
(dp1743
g869
g1713
sg1400
g744
sg88
I61
sg870
g1722
sg75
VIS_61
p1744
sba(iconstruction
TP_REL
p1745
(dp1746
g869
g1716
sg1400
g723
sg88
I62
sg870
g1713
sg75
VACT_AGT_62
p1747
sba(iconstruction
TP_REL
p1748
(dp1749
g869
g1719
sg1400
g717
sg88
I63
sg870
g1713
sg75
VACT_PT_63
p1750
sbasg88
I54
sg75
g1307
sbsg1416
(iconstruction
TP_SYNFORM
p1751
(dp1752
g88
I55
sg1419
(lp1753
(iconstruction
TP_SLOT
p1754
(dp1755
g1423
(lp1756
VNP
p1757
aVN
p1758
asg1426
I0
sg88
I64
sg75
g1700
sba(iconstruction
TP_PHON
p1759
(dp1760
g1429
I2
sg1426
I1
sg88
I65
sg1430
Vis
p1761
sg75
VS2_65
p1762
sba(iconstruction
TP_SLOT
p1763
(dp1764
g1423
(lp1765
VVP
p1766
aVV
p1767
asg1426
I2
sg88
I66
sg75
g1702
sba(iconstruction
TP_PHON
p1768
(dp1769
g1429
I2
sg1426
I3
sg88
I67
sg1430
V-ed
p1770
sg75
VS4_67
p1771
sba(iconstruction
TP_PHON
p1772
(dp1773
g1429
I2
sg1426
I4
sg88
I68
sg1430
Vby
p1774
sg75
VS5_68
p1775
sba(iconstruction
TP_SLOT
p1776
(dp1777
g1423
(lp1778
VNP
p1779
aVN
p1780
asg1426
I5
sg88
I69
sg75
g1704
sbasg75
g1307
sbsg1437
I1
sba(iconstruction
CXN
p1781
(dp1782
g1377
(iconstruction
TP_SYMLINKS
p1783
(dp1784
g1380
(dp1785
VACT_74
p1786
VS2_83
p1787
sVRCPT_77
p1788
VS3_84
p1789
sVTHEME_76
p1790
VS4_85
p1791
sVAGT_75
p1792
VS1_82
p1793
ssg88
I72
sg75
g1307
sbsg1386
VS
p1794
sg1388
I2
sg75
VDOUBLE_OBJ
p1795
sg1390
(iconstruction
TP_SEMFRAME
p1796
(dp1797
g103
g0
(g104
g2
Ntp1798
Rp1799
(dp1800
g108
(dp1801
(iconstruction
TP_NODE
p1802
(dp1803
g1399
I00
sg1400
g597
sg75
g1786
sg1401
I01
sg1402
I00
sg88
I74
sb(dp1804
g1401
I01
sg1400
g597
ss(iconstruction
TP_NODE
p1805
(dp1806
g1399
I00
sg1400
g753
sg75
g1792
sg1401
I01
sg1402
I01
sg88
I75
sb(dp1807
g1401
I01
sg1400
g753
ss(iconstruction
TP_NODE
p1808
(dp1809
g1399
I00
sg1400
g753
sg75
g1788
sg1401
I01
sg1402
I00
sg88
I77
sb(dp1810
g1401
I01
sg1400
g753
ss(iconstruction
TP_NODE
p1811
(dp1812
g1399
I01
sg1400
g750
sg75
VEVT_73
p1813
sg1401
I01
sg1402
I00
sg88
I73
sb(dp1814
g1401
I01
sg1400
g750
ss(iconstruction
TP_NODE
p1815
(dp1816
g1399
I00
sg1400
g753
sg75
g1790
sg1401
I01
sg1402
I00
sg88
I76
sb(dp1817
g1401
I01
sg1400
g753
sssg293
g294
sg295
g294
sg296
(dp1818
g1802
(dp1819
g1815
(dp1820
g1400
g705
ssg1808
(dp1821
g1400
g708
ssg1805
(dp1822
g1400
g723
sssg1805
(dp1823
sg1808
(dp1824
sg1811
(dp1825
g1802
(dp1826
g1400
g744
sssg1815
(dp1827
ssg489
g1818
sg103
(dp1828
sg491
g294
sg492
g1818
sg493
(dp1829
g1802
(dp1830
g1811
g1826
ssg1805
(dp1831
g1802
g1822
ssg1808
(dp1832
g1802
g1821
ssg1811
(dp1833
sg1815
(dp1834
g1802
g1820
sssbsg586
(lp1835
g1811
ag1802
ag1805
ag1815
ag1808
asg863
(lp1836
(iconstruction
TP_REL
p1837
(dp1838
g869
g1802
sg1400
g744
sg88
I78
sg870
g1811
sg75
VIS_78
p1839
sba(iconstruction
TP_REL
p1840
(dp1841
g869
g1805
sg1400
g723
sg88
I79
sg870
g1802
sg75
VACT_AGT_79
p1842
sba(iconstruction
TP_REL
p1843
(dp1844
g869
g1815
sg1400
g705
sg88
I80
sg870
g1802
sg75
VACT_THEME_80
p1845
sba(iconstruction
TP_REL
p1846
(dp1847
g869
g1808
sg1400
g708
sg88
I81
sg870
g1802
sg75
VACT_RCPT_81
p1848
sbasg88
I70
sg75
g1307
sbsg1416
(iconstruction
TP_SYNFORM
p1849
(dp1850
g88
I71
sg1419
(lp1851
(iconstruction
TP_SLOT
p1852
(dp1853
g1423
(lp1854
VNP
p1855
aVN
p1856
asg1426
I0
sg88
I82
sg75
g1793
sba(iconstruction
TP_SLOT
p1857
(dp1858
g1423
(lp1859
VVP
p1860
aVV
p1861
asg1426
I1
sg88
I83
sg75
g1787
sba(iconstruction
TP_SLOT
p1862
(dp1863
g1423
(lp1864
VNP
p1865
aVN
p1866
asg1426
I2
sg88
I84
sg75
g1789
sba(iconstruction
TP_SLOT
p1867
(dp1868
g1423
(lp1869
VNP
p1870
aVN
p1871
asg1426
I3
sg88
I85
sg75
g1791
sbasg75
g1307
sbsg1437
I1
sba(iconstruction
CXN
p1872
(dp1873
g1377
(iconstruction
TP_SYMLINKS
p1874
(dp1875
g1380
(dp1876
VAGT_91
p1877
VS1_98
p1878
sVRCPT_93
p1879
VS5_102
p1880
sVACT_90
p1881
VS2_99
p1882
sVTHEME_92
p1883
VS3_100
p1884
ssg88
I88
sg75
g1307
sbsg1386
VS
p1885
sg1388
I2
sg75
VOBLIQUE_DATIVE
p1886
sg1390
(iconstruction
TP_SEMFRAME
p1887
(dp1888
g103
g0
(g104
g2
Ntp1889
Rp1890
(dp1891
g108
(dp1892
(iconstruction
TP_NODE
p1893
(dp1894
g1399
I01
sg1400
g750
sg75
VEVT_89
p1895
sg1401
I01
sg1402
I00
sg88
I89
sb(dp1896
g1401
I01
sg1400
g750
ss(iconstruction
TP_NODE
p1897
(dp1898
g1399
I00
sg1400
g753
sg75
g1877
sg1401
I01
sg1402
I01
sg88
I91
sb(dp1899
g1401
I01
sg1400
g753
ss(iconstruction
TP_NODE
p1900
(dp1901
g1399
I00
sg1400
g753
sg75
g1879
sg1401
I01
sg1402
I00
sg88
I93
sb(dp1902
g1401
I01
sg1400
g753
ss(iconstruction
TP_NODE
p1903
(dp1904
g1399
I00
sg1400
g645
sg75
g1881
sg1401
I01
sg1402
I00
sg88
I90
sb(dp1905
g1401
I01
sg1400
g645
ss(iconstruction
TP_NODE
p1906
(dp1907
g1399
I00
sg1400
g753
sg75
g1883
sg1401
I01
sg1402
I00
sg88
I92
sb(dp1908
g1401
I01
sg1400
g753
sssg293
g294
sg295
g294
sg296
(dp1909
g1893
(dp1910
g1903
(dp1911
g1400
g744
sssg1897
(dp1912
sg1900
(dp1913
sg1903
(dp1914
g1897
(dp1915
g1400
g723
ssg1900
(dp1916
g1400
g708
ssg1906
(dp1917
g1400
g705
sssg1906
(dp1918
ssg489
g1909
sg103
(dp1919
sg491
g294
sg492
g1909
sg493
(dp1920
g1893
(dp1921
sg1897
(dp1922
g1903
g1915
ssg1900
(dp1923
g1903
g1916
ssg1903
(dp1924
g1893
g1911
ssg1906
(dp1925
g1903
g1917
sssbsg586
(lp1926
g1893
ag1903
ag1897
ag1906
ag1900
asg863
(lp1927
(iconstruction
TP_REL
p1928
(dp1929
g869
g1903
sg1400
g744
sg88
I94
sg870
g1893
sg75
VIS_94
p1930
sba(iconstruction
TP_REL
p1931
(dp1932
g869
g1897
sg1400
g723
sg88
I95
sg870
g1903
sg75
VACT_AGT_95
p1933
sba(iconstruction
TP_REL
p1934
(dp1935
g869
g1906
sg1400
g705
sg88
I96
sg870
g1903
sg75
VACT_THEME_96
p1936
sba(iconstruction
TP_REL
p1937
(dp1938
g869
g1900
sg1400
g708
sg88
I97
sg870
g1903
sg75
VACT_RCPT_97
p1939
sbasg88
I86
sg75
g1307
sbsg1416
(iconstruction
TP_SYNFORM
p1940
(dp1941
g88
I87
sg1419
(lp1942
(iconstruction
TP_SLOT
p1943
(dp1944
g1423
(lp1945
VNP
p1946
aVN
p1947
asg1426
I0
sg88
I98
sg75
g1878
sba(iconstruction
TP_SLOT
p1948
(dp1949
g1423
(lp1950
VVP
p1951
aVV
p1952
asg1426
I1
sg88
I99
sg75
g1882
sba(iconstruction
TP_SLOT
p1953
(dp1954
g1423
(lp1955
VNP
p1956
aVN
p1957
asg1426
I2
sg88
I100
sg75
g1884
sba(iconstruction
TP_PHON
p1958
(dp1959
g1429
I2
sg1426
I3
sg88
I101
sg1430
Vto
p1960
sg75
VS4_101
p1961
sba(iconstruction
TP_SLOT
p1962
(dp1963
g1423
(lp1964
VNP
p1965
aVN
p1966
asg1426
I4
sg88
I102
sg75
g1880
sbasg75
g1307
sbsg1437
I1
sba(iconstruction
CXN
p1967
(dp1968
g1377
(iconstruction
TP_SYMLINKS
p1969
(dp1970
g1380
(dp1971
VATTR_108
p1972
VS3_113
p1973
sVENT_107
p1974
VS1_111
p1975
ssg88
I105
sg75
g1307
sbsg1386
VS
p1976
sg1388
I2
sg75
VSPA
p1977
sg1390
(iconstruction
TP_SEMFRAME
p1978
(dp1979
g103
g0
(g104
g2
Ntp1980
Rp1981
(dp1982
g108
(dp1983
(iconstruction
TP_NODE
p1984
(dp1985
g1399
I00
sg1400
g753
sg75
g1974
sg1401
I01
sg1402
I01
sg88
I107
sb(dp1986
g1401
I01
sg1400
g753
ss(iconstruction
TP_NODE
p1987
(dp1988
g1399
I00
sg1400
g654
sg75
g1972
sg1401
I00
sg1402
I00
sg88
I108
sb(dp1989
g1401
I00
sg1400
g654
ss(iconstruction
TP_NODE
p1990
(dp1991
g1399
I01
sg1400
g750
sg75
VEVT_106
p1992
sg1401
I01
sg1402
I00
sg88
I106
sb(dp1993
g1401
I01
sg1400
g750
sssg293
g294
sg295
g294
sg296
(dp1994
g1984
(dp1995
sg1987
(dp1996
sg1990
(dp1997
g1984
(dp1998
g1400
g744
ssg1987
(dp1999
g1400
g702
ssssg489
g1994
sg103
(dp2000
sg491
g294
sg492
g1994
sg493
(dp2001
g1984
(dp2002
g1990
g1998
ssg1987
(dp2003
g1990
g1999
ssg1990
(dp2004
ssbsg586
(lp2005
g1990
ag1984
ag1987
asg863
(lp2006
(iconstruction
TP_REL
p2007
(dp2008
g869
g1984
sg1400
g744
sg88
I109
sg870
g1990
sg75
VIS_109
p2009
sba(iconstruction
TP_REL
p2010
(dp2011
g869
g1987
sg1400
g702
sg88
I110
sg870
g1990
sg75
VEVT_ATTR_110
p2012
sbasg88
I103
sg75
g1307
sbsg1416
(iconstruction
TP_SYNFORM
p2013
(dp2014
g88
I104
sg1419
(lp2015
(iconstruction
TP_SLOT
p2016
(dp2017
g1423
(lp2018
VNP
p2019
aVN
p2020
asg1426
I0
sg88
I111
sg75
g1975
sba(iconstruction
TP_PHON
p2021
(dp2022
g1429
I2
sg1426
I1
sg88
I112
sg1430
Vis
p2023
sg75
VS2_112
p2024
sba(iconstruction
TP_SLOT
p2025
(dp2026
g1423
(lp2027
VA
p2028
asg1426
I2
sg88
I113
sg75
g1973
sbasg75
g1307
sbsg1437
I1
sba(iconstruction
CXN
p2029
(dp2030
g1377
(iconstruction
TP_SYMLINKS
p2031
(dp2032
g1380
(dp2033
VAGT_119
p2034
VS1_122
p2035
sVACT_118
p2036
VS2_123
p2037
ssg88
I116
sg75
g1307
sbsg1386
VS
p2038
sg1388
I2
sg75
VSV
p2039
sg1390
(iconstruction
TP_SEMFRAME
p2040
(dp2041
g103
g0
(g104
g2
Ntp2042
Rp2043
(dp2044
g108
(dp2045
(iconstruction
TP_NODE
p2046
(dp2047
g1399
I01
sg1400
g750
sg75
VEVT_117
p2048
sg1401
I01
sg1402
I00
sg88
I117
sb(dp2049
g1401
I01
sg1400
g750
ss(iconstruction
TP_NODE
p2050
(dp2051
g1399
I00
sg1400
g753
sg75
g2034
sg1401
I01
sg1402
I01
sg88
I119
sb(dp2052
g1401
I01
sg1400
g753
ss(iconstruction
TP_NODE
p2053
(dp2054
g1399
I00
sg1400
g609
sg75
g2036
sg1401
I01
sg1402
I00
sg88
I118
sb(dp2055
g1401
I01
sg1400
g609
sssg293
g294
sg295
g294
sg296
(dp2056
g2046
(dp2057
g2053
(dp2058
g1400
g744
sssg2050
(dp2059
sg2053
(dp2060
g2050
(dp2061
g1400
g723
ssssg489
g2056
sg103
(dp2062
sg491
g294
sg492
g2056
sg493
(dp2063
g2046
(dp2064
sg2050
(dp2065
g2053
g2061
ssg2053
(dp2066
g2046
g2058
sssbsg586
(lp2067
g2046
ag2053
ag2050
asg863
(lp2068
(iconstruction
TP_REL
p2069
(dp2070
g869
g2053
sg1400
g744
sg88
I120
sg870
g2046
sg75
VIS_120
p2071
sba(iconstruction
TP_REL
p2072
(dp2073
g869
g2050
sg1400
g723
sg88
I121
sg870
g2053
sg75
VACT_AGT_121
p2074
sbasg88
I114
sg75
g1307
sbsg1416
(iconstruction
TP_SYNFORM
p2075
(dp2076
g88
I115
sg1419
(lp2077
(iconstruction
TP_SLOT
p2078
(dp2079
g1423
(lp2080
VNP
p2081
aVN
p2082
asg1426
I0
sg88
I122
sg75
g2035
sba(iconstruction
TP_SLOT
p2083
(dp2084
g1423
(lp2085
VVP
p2086
aVV
p2087
asg1426
I1
sg88
I123
sg75
g2037
sbasg75
g1307
sbsg1437
I1
sba(iconstruction
CXN
p2088
(dp2089
g1377
(iconstruction
TP_SYMLINKS
p2090
(dp2091
g1380
(dp2092
VEVT_127
p2093
VS1_130
p2094
sVPLACE_128
p2095
VS3_132
p2096
ssg88
I126
sg75
g1307
sbsg1386
VS
p2097
sg1388
I2
sg75
VPP_IN
p2098
sg1390
(iconstruction
TP_SEMFRAME
p2099
(dp2100
g103
g0
(g104
g2
Ntp2101
Rp2102
(dp2103
g108
(dp2104
(iconstruction
TP_NODE
p2105
(dp2106
g1399
I01
sg1400
g750
sg75
g2093
sg1401
I01
sg1402
I00
sg88
I127
sb(dp2107
g1401
I01
sg1400
g750
ss(iconstruction
TP_NODE
p2108
(dp2109
g1399
I00
sg1400
g753
sg75
g2095
sg1401
I01
sg1402
I00
sg88
I128
sb(dp2110
g1401
I01
sg1400
g753
sssg293
g294
sg295
g294
sg296
(dp2111
g2105
(dp2112
g2108
(dp2113
g1400
g741
sssg2108
(dp2114
ssg489
g2111
sg103
(dp2115
sg491
g294
sg492
g2111
sg493
(dp2116
g2105
(dp2117
sg2108
(dp2118
g2105
g2113
sssbsg586
(lp2119
g2105
ag2108
asg863
(lp2120
(iconstruction
TP_REL
p2121
(dp2122
g869
g2108
sg1400
g741
sg88
I129
sg870
g2105
sg75
VEVT_PP_129
p2123
sbasg88
I124
sg75
g1307
sbsg1416
(iconstruction
TP_SYNFORM
p2124
(dp2125
g88
I125
sg1419
(lp2126
(iconstruction
TP_SLOT
p2127
(dp2128
g1423
(lp2129
VS
p2130
asg1426
I0
sg88
I130
sg75
g2094
sba(iconstruction
TP_PHON
p2131
(dp2132
g1429
I2
sg1426
I1
sg88
I131
sg1430
Vin
p2133
sg75
VS2_131
p2134
sba(iconstruction
TP_SLOT
p2135
(dp2136
g1423
(lp2137
VNP
p2138
aVN
p2139
asg1426
I2
sg88
I132
sg75
g2096
sbasg75
g1307
sbsg1437
I1
sba(iconstruction
CXN
p2140
(dp2141
g1377
(iconstruction
TP_SYMLINKS
p2142
(dp2143
g1380
(dp2144
VEVT2_137
p2145
VS2_140
p2146
sVEVT1_136
p2147
VS1_139
p2148
ssg88
I135
sg75
g1307
sbsg1386
VS
p2149
sg1388
I2
sg75
VS_PP
p2150
sg1390
(iconstruction
TP_SEMFRAME
p2151
(dp2152
g103
g0
(g104
g2
Ntp2153
Rp2154
(dp2155
g108
(dp2156
(iconstruction
TP_NODE
p2157
(dp2158
g1399
I01
sg1400
g750
sg75
g2147
sg1401
I01
sg1402
I01
sg88
I136
sb(dp2159
g1401
I01
sg1400
g750
ss(iconstruction
TP_NODE
p2160
(dp2161
g1399
I00
sg1400
g750
sg75
g2145
sg1401
I01
sg1402
I00
sg88
I137
sb(dp2162
g1401
I01
sg1400
g750
sssg293
g294
sg295
g294
sg296
(dp2163
g2157
(dp2164
g2160
(dp2165
g1400
g702
sssg2160
(dp2166
ssg489
g2163
sg103
(dp2167
sg491
g294
sg492
g2163
sg493
(dp2168
g2157
(dp2169
sg2160
(dp2170
g2157
g2165
sssbsg586
(lp2171
g2157
ag2160
asg863
(lp2172
(iconstruction
TP_REL
p2173
(dp2174
g869
g2160
sg1400
g702
sg88
I138
sg870
g2157
sg75
VMOD_138
p2175
sbasg88
I133
sg75
g1307
sbsg1416
(iconstruction
TP_SYNFORM
p2176
(dp2177
g88
I134
sg1419
(lp2178
(iconstruction
TP_SLOT
p2179
(dp2180
g1423
(lp2181
VS
p2182
asg1426
I0
sg88
I139
sg75
g2148
sba(iconstruction
TP_SLOT
p2183
(dp2184
g1423
(lp2185
VPP
p2186
asg1426
I1
sg88
I140
sg75
g2146
sbasg75
g1307
sbsg1437
I1
sba(iconstruction
CXN
p2187
(dp2188
g1377
(iconstruction
TP_SYMLINKS
p2189
(dp2190
g1380
(dp2191
VENT_144
p2192
VS2_148
p2193
sVATTR_145
p2194
VS1_147
p2195
ssg88
I143
sg75
g1307
sbsg1386
VN
p2196
sg1388
I2
sg75
VADJUNCT_N
p2197
sg1390
(iconstruction
TP_SEMFRAME
p2198
(dp2199
g103
g0
(g104
g2
Ntp2200
Rp2201
(dp2202
g108
(dp2203
(iconstruction
TP_NODE
p2204
(dp2205
g1399
I01
sg1400
g753
sg75
g2192
sg1401
I01
sg1402
I00
sg88
I144
sb(dp2206
g1401
I01
sg1400
g753
ss(iconstruction
TP_NODE
p2207
(dp2208
g1399
I00
sg1400
g654
sg75
g2194
sg1401
I00
sg1402
I00
sg88
I145
sb(dp2209
g1401
I00
sg1400
g654
sssg293
g294
sg295
g294
sg296
(dp2210
g2204
(dp2211
g2207
(dp2212
g1400
g702
sssg2207
(dp2213
ssg489
g2210
sg103
(dp2214
sg491
g294
sg492
g2210
sg493
(dp2215
g2204
(dp2216
sg2207
(dp2217
g2204
g2212
sssbsg586
(lp2218
g2204
ag2207
asg863
(lp2219
(iconstruction
TP_REL
p2220
(dp2221
g869
g2207
sg1400
g702
sg88
I146
sg870
g2204
sg75
VENT_ATTR_146
p2222
sbasg88
I141
sg75
g1307
sbsg1416
(iconstruction
TP_SYNFORM
p2223
(dp2224
g88
I142
sg1419
(lp2225
(iconstruction
TP_SLOT
p2226
(dp2227
g1423
(lp2228
VA
p2229
asg1426
I0
sg88
I147
sg75
g2195
sba(iconstruction
TP_SLOT
p2230
(dp2231
g1423
(lp2232
VN
p2233
asg1426
I1
sg88
I148
sg75
g2193
sbasg75
g1307
sbsg1437
I1
sba(iconstruction
CXN
p2234
(dp2235
g1377
(iconstruction
TP_SYMLINKS
p2236
(dp2237
g1380
(dp2238
VAGT_154
p2239
VS1_160
p2240
sVACT_153
p2241
VS3_162
p2242
sVPT_155
p2243
VS4_163
p2244
ssg88
I151
sg75
g1307
sbsg1386
VN
p2245
sg1388
I2
sg75
VSUBJ_REL_SVO
p2246
sg1390
(iconstruction
TP_SEMFRAME
p2247
(dp2248
g103
g0
(g104
g2
Ntp2249
Rp2250
(dp2251
g108
(dp2252
(iconstruction
TP_NODE
p2253
(dp2254
g1399
I00
sg1400
g750
sg75
VEVT_152
p2255
sg1401
I01
sg1402
I00
sg88
I152
sb(dp2256
g1401
I01
sg1400
g750
ss(iconstruction
TP_NODE
p2257
(dp2258
g1399
I01
sg1400
g753
sg75
g2239
sg1401
I01
sg1402
I00
sg88
I154
sb(dp2259
g1401
I01
sg1400
g753
ss(iconstruction
TP_NODE
p2260
(dp2261
g1399
I00
sg1400
g753
sg75
g2243
sg1401
I01
sg1402
I00
sg88
I155
sb(dp2262
g1401
I01
sg1400
g753
ss(iconstruction
TP_NODE
p2263
(dp2264
g1399
I00
sg1400
g615
sg75
g2241
sg1401
I01
sg1402
I01
sg88
I153
sb(dp2265
g1401
I01
sg1400
g615
sssg293
g294
sg295
g294
sg296
(dp2266
g2253
(dp2267
g2263
(dp2268
g1400
g744
sssg2257
(dp2269
g2253
(dp2270
g1400
g702
sssg2260
(dp2271
sg2263
(dp2272
g2257
(dp2273
g1400
g723
ssg2260
(dp2274
g1400
g717
ssssg489
g2266
sg103
(dp2275
sg491
g294
sg492
g2266
sg493
(dp2276
g2253
(dp2277
g2257
g2270
ssg2257
(dp2278
g2263
g2273
ssg2260
(dp2279
g2263
g2274
ssg2263
(dp2280
g2253
g2268
sssbsg586
(lp2281
g2253
ag2263
ag2257
ag2260
asg863
(lp2282
(iconstruction
TP_REL
p2283
(dp2284
g869
g2263
sg1400
g744
sg88
I156
sg870
g2253
sg75
VIS_156
p2285
sba(iconstruction
TP_REL
p2286
(dp2287
g869
g2257
sg1400
g723
sg88
I157
sg870
g2263
sg75
VACT_AGT_157
p2288
sba(iconstruction
TP_REL
p2289
(dp2290
g869
g2260
sg1400
g717
sg88
I158
sg870
g2263
sg75
VACT_PT_158
p2291
sba(iconstruction
TP_REL
p2292
(dp2293
g869
g2253
sg1400
g702
sg88
I159
sg870
g2257
sg75
VAGT_EVT_159
p2294
sbasg88
I149
sg75
g1307
sbsg1416
(iconstruction
TP_SYNFORM
p2295
(dp2296
g88
I150
sg1419
(lp2297
(iconstruction
TP_SLOT
p2298
(dp2299
g1423
(lp2300
VN
p2301
asg1426
I0
sg88
I160
sg75
g2240
sba(iconstruction
TP_PHON
p2302
(dp2303
g1429
I4
sg1426
I1
sg88
I161
sg1430
Vthat
p2304
sg75
VS2_161
p2305
sba(iconstruction
TP_SLOT
p2306
(dp2307
g1423
(lp2308
VVP
p2309
aVV
p2310
asg1426
I2
sg88
I162
sg75
g2242
sba(iconstruction
TP_SLOT
p2311
(dp2312
g1423
(lp2313
VNP
p2314
aVN
p2315
asg1426
I3
sg88
I163
sg75
g2244
sbasg75
g1307
sbsg1437
I1
sba(iconstruction
CXN
p2316
(dp2317
g1377
(iconstruction
TP_SYMLINKS
p2318
(dp2319
g1380
(dp2320
VAGT_169
p2321
VS1_173
p2322
sVACT_168
p2323
VS3_175
p2324
ssg88
I166
sg75
g1307
sbsg1386
VN
p2325
sg1388
I2
sg75
VSUBJ_REL_SV
p2326
sg1390
(iconstruction
TP_SEMFRAME
p2327
(dp2328
g103
g0
(g104
g2
Ntp2329
Rp2330
(dp2331
g108
(dp2332
(iconstruction
TP_NODE
p2333
(dp2334
g1399
I00
sg1400
g597
sg75
g2323
sg1401
I01
sg1402
I01
sg88
I168
sb(dp2335
g1401
I01
sg1400
g597
ss(iconstruction
TP_NODE
p2336
(dp2337
g1399
I01
sg1400
g753
sg75
g2321
sg1401
I01
sg1402
I00
sg88
I169
sb(dp2338
g1401
I01
sg1400
g753
ss(iconstruction
TP_NODE
p2339
(dp2340
g1399
I00
sg1400
g750
sg75
VEVT_167
p2341
sg1401
I01
sg1402
I00
sg88
I167
sb(dp2342
g1401
I01
sg1400
g750
sssg293
g294
sg295
g294
sg296
(dp2343
g2333
(dp2344
g2336
(dp2345
g1400
g723
sssg2336
(dp2346
g2339
(dp2347
g1400
g702
sssg2339
(dp2348
g2333
(dp2349
g1400
g744
ssssg489
g2343
sg103
(dp2350
sg491
g294
sg492
g2343
sg493
(dp2351
g2333
(dp2352
g2339
g2349
ssg2336
(dp2353
g2333
g2345
ssg2339
(dp2354
g2336
g2347
sssbsg586
(lp2355
g2339
ag2333
ag2336
asg863
(lp2356
(iconstruction
TP_REL
p2357
(dp2358
g869
g2333
sg1400
g744
sg88
I170
sg870
g2339
sg75
VIS_170
p2359
sba(iconstruction
TP_REL
p2360
(dp2361
g869
g2336
sg1400
g723
sg88
I171
sg870
g2333
sg75
VACT_AGT_171
p2362
sba(iconstruction
TP_REL
p2363
(dp2364
g869
g2339
sg1400
g702
sg88
I172
sg870
g2336
sg75
VAGT_EVT_172
p2365
sbasg88
I164
sg75
g1307
sbsg1416
(iconstruction
TP_SYNFORM
p2366
(dp2367
g88
I165
sg1419
(lp2368
(iconstruction
TP_SLOT
p2369
(dp2370
g1423
(lp2371
VN
p2372
asg1426
I0
sg88
I173
sg75
g2322
sba(iconstruction
TP_PHON
p2373
(dp2374
g1429
I4
sg1426
I1
sg88
I174
sg1430
Vthat
p2375
sg75
VS2_174
p2376
sba(iconstruction
TP_SLOT
p2377
(dp2378
g1423
(lp2379
VVP
p2380
aVV
p2381
asg1426
I2
sg88
I175
sg75
g2324
sbasg75
g1307
sbsg1437
I1
sba(iconstruction
CXN
p2382
(dp2383
g1377
(iconstruction
TP_SYMLINKS
p2384
(dp2385
g1380
(dp2386
VAGT_181
p2387
VS7_193
p2388
sVPT_182
p2389
VS1_187
p2390
sVACT_180
p2391
VS4_190
p2392
ssg88
I178
sg75
g1307
sbsg1386
VN
p2393
sg1388
I2
sg75
VSUBJ_REL_PAS_SVO
p2394
sg1390
(iconstruction
TP_SEMFRAME
p2395
(dp2396
g103
g0
(g104
g2
Ntp2397
Rp2398
(dp2399
g108
(dp2400
(iconstruction
TP_NODE
p2401
(dp2402
g1399
I00
sg1400
g750
sg75
VEVT_179
p2403
sg1401
I01
sg1402
I00
sg88
I179
sb(dp2404
g1401
I01
sg1400
g750
ss(iconstruction
TP_NODE
p2405
(dp2406
g1399
I00
sg1400
g753
sg75
g2387
sg1401
I01
sg1402
I00
sg88
I181
sb(dp2407
g1401
I01
sg1400
g753
ss(iconstruction
TP_NODE
p2408
(dp2409
g1399
I00
sg1400
g597
sg75
g2391
sg1401
I01
sg1402
I01
sg88
I180
sb(dp2410
g1401
I01
sg1400
g597
ss(iconstruction
TP_NODE
p2411
(dp2412
g1399
I01
sg1400
g753
sg75
g2389
sg1401
I01
sg1402
I00
sg88
I182
sb(dp2413
g1401
I01
sg1400
g753
sssg293
g294
sg295
g294
sg296
(dp2414
g2401
(dp2415
g2408
(dp2416
g1400
g744
sssg2405
(dp2417
sg2408
(dp2418
g2405
(dp2419
g1400
g723
ssg2411
(dp2420
g1400
g717
sssg2411
(dp2421
g2401
(dp2422
g1400
g702
ssssg489
g2414
sg103
(dp2423
sg491
g294
sg492
g2414
sg493
(dp2424
g2401
(dp2425
g2411
g2422
ssg2405
(dp2426
g2408
g2419
ssg2408
(dp2427
g2401
g2416
ssg2411
(dp2428
g2408
g2420
sssbsg586
(lp2429
g2401
ag2408
ag2405
ag2411
asg863
(lp2430
(iconstruction
TP_REL
p2431
(dp2432
g869
g2408
sg1400
g744
sg88
I183
sg870
g2401
sg75
VIS_183
p2433
sba(iconstruction
TP_REL
p2434
(dp2435
g869
g2405
sg1400
g723
sg88
I184
sg870
g2408
sg75
VACT_AGT_184
p2436
sba(iconstruction
TP_REL
p2437
(dp2438
g869
g2411
sg1400
g717
sg88
I185
sg870
g2408
sg75
VACT_PT_185
p2439
sba(iconstruction
TP_REL
p2440
(dp2441
g869
g2401
sg1400
g702
sg88
I186
sg870
g2411
sg75
VPT_EVT_186
p2442
sbasg88
I176
sg75
g1307
sbsg1416
(iconstruction
TP_SYNFORM
p2443
(dp2444
g88
I177
sg1419
(lp2445
(iconstruction
TP_SLOT
p2446
(dp2447
g1423
(lp2448
VN
p2449
asg1426
I0
sg88
I187
sg75
g2390
sba(iconstruction
TP_PHON
p2450
(dp2451
g1429
I4
sg1426
I1
sg88
I188
sg1430
Vthat
p2452
sg75
VS2_188
p2453
sba(iconstruction
TP_PHON
p2454
(dp2455
g1429
I2
sg1426
I2
sg88
I189
sg1430
Vis
p2456
sg75
VS3_189
p2457
sba(iconstruction
TP_SLOT
p2458
(dp2459
g1423
(lp2460
VVP
p2461
aVV
p2462
asg1426
I3
sg88
I190
sg75
g2392
sba(iconstruction
TP_PHON
p2463
(dp2464
g1429
I2
sg1426
I4
sg88
I191
sg1430
V-ed
p2465
sg75
VS5_191
p2466
sba(iconstruction
TP_PHON
p2467
(dp2468
g1429
I2
sg1426
I5
sg88
I192
sg1430
Vby
p2469
sg75
VS6_192
p2470
sba(iconstruction
TP_SLOT
p2471
(dp2472
g1423
(lp2473
VNP
p2474
aVN
p2475
asg1426
I6
sg88
I193
sg75
g2388
sbasg75
g1307
sbsg1437
I1
sba(iconstruction
CXN
p2476
(dp2477
g1377
(iconstruction
TP_SYMLINKS
p2478
(dp2479
g1380
(dp2480
VAGT_199
p2481
VS3_207
p2482
sVACT_198
p2483
VS4_208
p2484
sVPT_200
p2485
VS1_205
p2486
ssg88
I196
sg75
g1307
sbsg1386
VN
p2487
sg1388
I2
sg75
VOBJ_REL_SVO
p2488
sg1390
(iconstruction
TP_SEMFRAME
p2489
(dp2490
g103
g0
(g104
g2
Ntp2491
Rp2492
(dp2493
g108
(dp2494
(iconstruction
TP_NODE
p2495
(dp2496
g1399
I00
sg1400
g750
sg75
VEVT_197
p2497
sg1401
I01
sg1402
I00
sg88
I197
sb(dp2498
g1401
I01
sg1400
g750
ss(iconstruction
TP_NODE
p2499
(dp2500
g1399
I00
sg1400
g753
sg75
g2481
sg1401
I01
sg1402
I00
sg88
I199
sb(dp2501
g1401
I01
sg1400
g753
ss(iconstruction
TP_NODE
p2502
(dp2503
g1399
I01
sg1400
g753
sg75
g2485
sg1401
I01
sg1402
I00
sg88
I200
sb(dp2504
g1401
I01
sg1400
g753
ss(iconstruction
TP_NODE
p2505
(dp2506
g1399
I00
sg1400
g597
sg75
g2483
sg1401
I01
sg1402
I01
sg88
I198
sb(dp2507
g1401
I01
sg1400
g597
sssg293
g294
sg295
g294
sg296
(dp2508
g2495
(dp2509
g2505
(dp2510
g1400
g744
sssg2499
(dp2511
sg2502
(dp2512
g2495
(dp2513
g1400
g702
sssg2505
(dp2514
g2499
(dp2515
g1400
g723
ssg2502
(dp2516
g1400
g717
ssssg489
g2508
sg103
(dp2517
sg491
g294
sg492
g2508
sg493
(dp2518
g2495
(dp2519
g2502
g2513
ssg2499
(dp2520
g2505
g2515
ssg2502
(dp2521
g2505
g2516
ssg2505
(dp2522
g2495
g2510
sssbsg586
(lp2523
g2495
ag2505
ag2499
ag2502
asg863
(lp2524
(iconstruction
TP_REL
p2525
(dp2526
g869
g2505
sg1400
g744
sg88
I201
sg870
g2495
sg75
VIS_201
p2527
sba(iconstruction
TP_REL
p2528
(dp2529
g869
g2499
sg1400
g723
sg88
I202
sg870
g2505
sg75
VACT_AGT_202
p2530
sba(iconstruction
TP_REL
p2531
(dp2532
g869
g2502
sg1400
g717
sg88
I203
sg870
g2505
sg75
VACT_PT_203
p2533
sba(iconstruction
TP_REL
p2534
(dp2535
g869
g2495
sg1400
g702
sg88
I204
sg870
g2502
sg75
VPT_EVT_204
p2536
sbasg88
I194
sg75
g1307
sbsg1416
(iconstruction
TP_SYNFORM
p2537
(dp2538
g88
I195
sg1419
(lp2539
(iconstruction
TP_SLOT
p2540
(dp2541
g1423
(lp2542
VN
p2543
asg1426
I0
sg88
I205
sg75
g2486
sba(iconstruction
TP_PHON
p2544
(dp2545
g1429
I4
sg1426
I1
sg88
I206
sg1430
Vthat
p2546
sg75
VS2_206
p2547
sba(iconstruction
TP_SLOT
p2548
(dp2549
g1423
(lp2550
VNP
p2551
aVN
p2552
asg1426
I2
sg88
I207
sg75
g2482
sba(iconstruction
TP_SLOT
p2553
(dp2554
g1423
(lp2555
VVP
p2556
aVV
p2557
asg1426
I3
sg88
I208
sg75
g2484
sbasg75
g1307
sbsg1437
I1
sba(iconstruction
CXN
p2558
(dp2559
g1377
(iconstruction
TP_SYMLINKS
p2560
(dp2561
g1380
(dp2562
VPT_215
p2563
VS3_222
p2564
sVACT_213
p2565
VS5_224
p2566
sVAGT_214
p2567
VS1_220
p2568
ssg88
I211
sg75
g1307
sbsg1386
VN
p2569
sg1388
I2
sg75
VOBJ_REL_PAS_SVO
p2570
sg1390
(iconstruction
TP_SEMFRAME
p2571
(dp2572
g103
g0
(g104
g2
Ntp2573
Rp2574
(dp2575
g108
(dp2576
(iconstruction
TP_NODE
p2577
(dp2578
g1399
I00
sg1400
g597
sg75
g2565
sg1401
I01
sg1402
I01
sg88
I213
sb(dp2579
g1401
I01
sg1400
g597
ss(iconstruction
TP_NODE
p2580
(dp2581
g1399
I01
sg1400
g753
sg75
g2567
sg1401
I01
sg1402
I00
sg88
I214
sb(dp2582
g1401
I01
sg1400
g753
ss(iconstruction
TP_NODE
p2583
(dp2584
g1399
I00
sg1400
g750
sg75
VEVT_212
p2585
sg1401
I01
sg1402
I00
sg88
I212
sb(dp2586
g1401
I01
sg1400
g750
ss(iconstruction
TP_NODE
p2587
(dp2588
g1399
I00
sg1400
g753
sg75
g2563
sg1401
I01
sg1402
I00
sg88
I215
sb(dp2589
g1401
I01
sg1400
g753
sssg293
g294
sg295
g294
sg296
(dp2590
g2577
(dp2591
g2587
(dp2592
g1400
g717
ssg2580
(dp2593
g1400
g723
sssg2580
(dp2594
g2583
(dp2595
g1400
g702
sssg2583
(dp2596
g2577
(dp2597
g1400
g744
sssg2587
(dp2598
ssg489
g2590
sg103
(dp2599
sg491
g294
sg492
g2590
sg493
(dp2600
g2577
(dp2601
g2583
g2597
ssg2580
(dp2602
g2577
g2593
ssg2583
(dp2603
g2580
g2595
ssg2587
(dp2604
g2577
g2592
sssbsg586
(lp2605
g2583
ag2577
ag2580
ag2587
asg863
(lp2606
(iconstruction
TP_REL
p2607
(dp2608
g869
g2577
sg1400
g744
sg88
I216
sg870
g2583
sg75
VIS_216
p2609
sba(iconstruction
TP_REL
p2610
(dp2611
g869
g2580
sg1400
g723
sg88
I217
sg870
g2577
sg75
VACT_AGT_217
p2612
sba(iconstruction
TP_REL
p2613
(dp2614
g869
g2587
sg1400
g717
sg88
I218
sg870
g2577
sg75
VACT_PT_218
p2615
sba(iconstruction
TP_REL
p2616
(dp2617
g869
g2583
sg1400
g702
sg88
I219
sg870
g2580
sg75
VAGT_EVT_219
p2618
sbasg88
I209
sg75
g1307
sbsg1416
(iconstruction
TP_SYNFORM
p2619
(dp2620
g88
I210
sg1419
(lp2621
(iconstruction
TP_SLOT
p2622
(dp2623
g1423
(lp2624
VN
p2625
asg1426
I0
sg88
I220
sg75
g2568
sba(iconstruction
TP_PHON
p2626
(dp2627
g1429
I4
sg1426
I1
sg88
I221
sg1430
Vthat
p2628
sg75
VS2_221
p2629
sba(iconstruction
TP_SLOT
p2630
(dp2631
g1423
(lp2632
VNP
p2633
aVN
p2634
asg1426
I2
sg88
I222
sg75
g2564
sba(iconstruction
TP_PHON
p2635
(dp2636
g1429
I2
sg1426
I3
sg88
I223
sg1430
Vis
p2637
sg75
VS4_223
p2638
sba(iconstruction
TP_SLOT
p2639
(dp2640
g1423
(lp2641
VVP
p2642
aVV
p2643
asg1426
I4
sg88
I224
sg75
g2566
sba(iconstruction
TP_PHON
p2644
(dp2645
g1429
I2
sg1426
I5
sg88
I225
sg1430
V-ed
p2646
sg75
VS6_225
p2647
sba(iconstruction
TP_PHON
p2648
(dp2649
g1429
I2
sg1426
I6
sg88
I226
sg1430
Vby
p2650
sg75
VS7_226
p2651
sbasg75
g1307
sbsg1437
I1
sba(iconstruction
CXN
p2652
(dp2653
g1377
(iconstruction
TP_SYMLINKS
p2654
(dp2655
g1380
(dp2656
VATTR_232
p2657
VS4_238
p2658
sVENT_231
p2659
VS1_235
p2660
ssg88
I229
sg75
g1307
sbsg1386
VN
p2661
sg1388
I2
sg75
VREL_SPA
p2662
sg1390
(iconstruction
TP_SEMFRAME
p2663
(dp2664
g103
g0
(g104
g2
Ntp2665
Rp2666
(dp2667
g108
(dp2668
(iconstruction
TP_NODE
p2669
(dp2670
g1399
I00
sg1400
g750
sg75
VEVT_230
p2671
sg1401
I01
sg1402
I00
sg88
I230
sb(dp2672
g1401
I01
sg1400
g750
ss(iconstruction
TP_NODE
p2673
(dp2674
g1399
I00
sg1400
g654
sg75
g2657
sg1401
I00
sg1402
I00
sg88
I232
sb(dp2675
g1401
I00
sg1400
g654
ss(iconstruction
TP_NODE
p2676
(dp2677
g1399
I01
sg1400
g753
sg75
g2659
sg1401
I01
sg1402
I01
sg88
I231
sb(dp2678
g1401
I01
sg1400
g753
sssg293
g294
sg295
g294
sg296
(dp2679
g2669
(dp2680
g2673
(dp2681
g1400
g702
ssg2676
(dp2682
g1400
g744
sssg2673
(dp2683
sg2676
(dp2684
ssg489
g2679
sg103
(dp2685
sg491
g294
sg492
g2679
sg493
(dp2686
g2669
(dp2687
sg2673
(dp2688
g2669
g2681
ssg2676
(dp2689
g2669
g2682
sssbsg586
(lp2690
g2669
ag2676
ag2673
asg863
(lp2691
(iconstruction
TP_REL
p2692
(dp2693
g869
g2676
sg1400
g744
sg88
I233
sg870
g2669
sg75
VIS_233
p2694
sba(iconstruction
TP_REL
p2695
(dp2696
g869
g2673
sg1400
g702
sg88
I234
sg870
g2669
sg75
VEVT_ATTR_234
p2697
sbasg88
I227
sg75
g1307
sbsg1416
(iconstruction
TP_SYNFORM
p2698
(dp2699
g88
I228
sg1419
(lp2700
(iconstruction
TP_SLOT
p2701
(dp2702
g1423
(lp2703
VN
p2704
asg1426
I0
sg88
I235
sg75
g2660
sba(iconstruction
TP_PHON
p2705
(dp2706
g1429
I4
sg1426
I1
sg88
I236
sg1430
Vthat
p2707
sg75
VS2_236
p2708
sba(iconstruction
TP_PHON
p2709
(dp2710
g1429
I2
sg1426
I2
sg88
I237
sg1430
Vis
p2711
sg75
VS3_237
p2712
sba(iconstruction
TP_SLOT
p2713
(dp2714
g1423
(lp2715
VA
p2716
asg1426
I3
sg88
I238
sg75
g2658
sbasg75
g1307
sbsg1437
I1
sba(iconstruction
CXN
p2717
(dp2718
g1377
(iconstruction
TP_SYMLINKS
p2719
(dp2720
g1380
(dp2721
VAGT_244
p2722
VS1_251
p2723
sVCOLOR_246
p2724
VS3_253
p2725
ssg88
I241
sg75
g1307
sbsg1386
VN
p2726
sg1388
I2
sg75
VIN_COLOR
p2727
sg1390
(iconstruction
TP_SEMFRAME
p2728
(dp2729
g103
g0
(g104
g2
Ntp2730
Rp2731
(dp2732
g108
(dp2733
(iconstruction
TP_NODE
p2734
(dp2735
g1399
I00
sg1400
g750
sg75
VEVT_242
p2736
sg1401
I01
sg1402
I00
sg88
I242
sb(dp2737
g1401
I01
sg1400
g750
ss(iconstruction
TP_NODE
p2738
(dp2739
g1399
I01
sg1400
g762
sg75
g2722
sg1401
I01
sg1402
I00
sg88
I244
sb(dp2740
g1401
I01
sg1400
g762
ss(iconstruction
TP_NODE
p2741
(dp2742
g1399
I00
sg1400
g792
sg75
VPT_245
p2743
sg1401
I01
sg1402
I00
sg88
I245
sb(dp2744
g1401
I01
sg1400
g792
ss(iconstruction
TP_NODE
p2745
(dp2746
g1399
I00
sg1400
g657
sg75
g2724
sg1401
I00
sg1402
I01
sg88
I246
sb(dp2747
g1401
I00
sg1400
g657
ss(iconstruction
TP_NODE
p2748
(dp2749
g1399
I00
sg1400
g642
sg75
VACT_243
p2750
sg1401
I01
sg1402
I00
sg88
I243
sb(dp2751
g1401
I01
sg1400
g642
sssg293
g294
sg295
g294
sg296
(dp2752
g2734
(dp2753
g2748
(dp2754
g1400
g744
sssg2738
(dp2755
sg2741
(dp2756
g2745
(dp2757
g1400
g702
sssg2745
(dp2758
sg2748
(dp2759
g2738
(dp2760
g1400
g723
ssg2741
(dp2761
g1400
g717
ssssg489
g2752
sg103
(dp2762
sg491
g294
sg492
g2752
sg493
(dp2763
g2734
(dp2764
sg2738
(dp2765
g2748
g2760
ssg2741
(dp2766
g2748
g2761
ssg2745
(dp2767
g2741
g2757
ssg2748
(dp2768
g2734
g2754
sssbsg586
(lp2769
g2734
ag2748
ag2738
ag2741
ag2745
asg863
(lp2770
(iconstruction
TP_REL
p2771
(dp2772
g869
g2748
sg1400
g744
sg88
I247
sg870
g2734
sg75
VIS_247
p2773
sba(iconstruction
TP_REL
p2774
(dp2775
g869
g2738
sg1400
g723
sg88
I248
sg870
g2748
sg75
VACT_AGT_248
p2776
sba(iconstruction
TP_REL
p2777
(dp2778
g869
g2741
sg1400
g717
sg88
I249
sg870
g2748
sg75
VACT_PT_249
p2779
sba(iconstruction
TP_REL
p2780
(dp2781
g869
g2745
sg1400
g702
sg88
I250
sg870
g2741
sg75
VPT_COLOR_250
p2782
sbasg88
I239
sg75
g1307
sbsg1416
(iconstruction
TP_SYNFORM
p2783
(dp2784
g88
I240
sg1419
(lp2785
(iconstruction
TP_SLOT
p2786
(dp2787
g1423
(lp2788
VN
p2789
asg1426
I0
sg88
I251
sg75
g2723
sba(iconstruction
TP_PHON
p2790
(dp2791
g1429
I2
sg1426
I1
sg88
I252
sg1430
Vin
p2792
sg75
VS2_252
p2793
sba(iconstruction
TP_SLOT
p2794
(dp2795
g1423
(lp2796
VA
p2797
asg1426
I2
sg88
I253
sg75
g2725
sbasg75
g1307
sbsg1437
I1
sba(iconstruction
CXN
p2798
(dp2799
g1377
(iconstruction
TP_SYMLINKS
p2800
(dp2801
g1380
(dp2802
VN1_258
p2803
VS1_260
p2804
ssg88
I256
sg75
g1307
sbsg1386
VV
p2805
sg1388
I1
sg75
VHIT
p2806
sg1390
(iconstruction
TP_SEMFRAME
p2807
(dp2808
g103
g0
(g104
g2
Ntp2809
Rp2810
(dp2811
g108
(dp2812
(iconstruction
TP_NODE
p2813
(dp2814
g1399
I00
sg1400
g618
sg75
g2803
sg1401
I00
sg1402
I00
sg88
I258
sb(dp2815
g1401
I00
sg1400
g618
ss(iconstruction
TP_NODE
p2816
(dp2817
g1399
I01
sg1400
g597
sg75
VACT_257
p2818
sg1401
I01
sg1402
I00
sg88
I257
sb(dp2819
g1401
I01
sg1400
g597
sssg293
g294
sg295
g294
sg296
(dp2820
g2813
(dp2821
sg2816
(dp2822
g2813
(dp2823
g1400
g744
ssssg489
g2820
sg103
(dp2824
sg491
g294
sg492
g2820
sg493
(dp2825
g2813
(dp2826
g2816
g2823
ssg2816
(dp2827
ssbsg586
(lp2828
g2816
ag2813
asg863
(lp2829
(iconstruction
TP_REL
p2830
(dp2831
g869
g2813
sg1400
g744
sg88
I259
sg870
g2816
sg75
VIS_259
p2832
sbasg88
I254
sg75
g1307
sbsg1416
(iconstruction
TP_SYNFORM
p2833
(dp2834
g88
I255
sg1419
(lp2835
(iconstruction
TP_PHON
p2836
(dp2837
g1429
I3
sg1426
I0
sg88
I260
sg1430
Vhit
p2838
sg75
g2804
sbasg75
g1307
sbsg1437
I1
sba(iconstruction
CXN
p2839
(dp2840
g1377
(iconstruction
TP_SYMLINKS
p2841
(dp2842
g1380
(dp2843
VN1_265
p2844
VS1_267
p2845
ssg88
I263
sg75
g1307
sbsg1386
VV
p2846
sg1388
I1
sg75
VKICK
p2847
sg1390
(iconstruction
TP_SEMFRAME
p2848
(dp2849
g103
g0
(g104
g2
Ntp2850
Rp2851
(dp2852
g108
(dp2853
(iconstruction
TP_NODE
p2854
(dp2855
g1399
I01
sg1400
g597
sg75
VACT_264
p2856
sg1401
I01
sg1402
I00
sg88
I264
sb(dp2857
g1401
I01
sg1400
g597
ss(iconstruction
TP_NODE
p2858
(dp2859
g1399
I00
sg1400
g639
sg75
g2844
sg1401
I00
sg1402
I00
sg88
I265
sb(dp2860
g1401
I00
sg1400
g639
sssg293
g294
sg295
g294
sg296
(dp2861
g2854
(dp2862
g2858
(dp2863
g1400
g744
sssg2858
(dp2864
ssg489
g2861
sg103
(dp2865
sg491
g294
sg492
g2861
sg493
(dp2866
g2854
(dp2867
sg2858
(dp2868
g2854
g2863
sssbsg586
(lp2869
g2854
ag2858
asg863
(lp2870
(iconstruction
TP_REL
p2871
(dp2872
g869
g2858
sg1400
g744
sg88
I266
sg870
g2854
sg75
VIS_266
p2873
sbasg88
I261
sg75
g1307
sbsg1416
(iconstruction
TP_SYNFORM
p2874
(dp2875
g88
I262
sg1419
(lp2876
(iconstruction
TP_PHON
p2877
(dp2878
g1429
I4
sg1426
I0
sg88
I267
sg1430
Vkick
p2879
sg75
g2845
sbasg75
g1307
sbsg1437
I1
sba(iconstruction
CXN
p2880
(dp2881
g1377
(iconstruction
TP_SYMLINKS
p2882
(dp2883
g1380
(dp2884
VN1_272
p2885
VS1_274
p2886
ssg88
I270
sg75
g1307
sbsg1386
VV
p2887
sg1388
I1
sg75
VPUNCH
p2888
sg1390
(iconstruction
TP_SEMFRAME
p2889
(dp2890
g103
g0
(g104
g2
Ntp2891
Rp2892
(dp2893
g108
(dp2894
(iconstruction
TP_NODE
p2895
(dp2896
g1399
I00
sg1400
g624
sg75
g2885
sg1401
I00
sg1402
I00
sg88
I272
sb(dp2897
g1401
I00
sg1400
g624
ss(iconstruction
TP_NODE
p2898
(dp2899
g1399
I01
sg1400
g597
sg75
VACT_271
p2900
sg1401
I01
sg1402
I00
sg88
I271
sb(dp2901
g1401
I01
sg1400
g597
sssg293
g294
sg295
g294
sg296
(dp2902
g2895
(dp2903
sg2898
(dp2904
g2895
(dp2905
g1400
g744
ssssg489
g2902
sg103
(dp2906
sg491
g294
sg492
g2902
sg493
(dp2907
g2895
(dp2908
g2898
g2905
ssg2898
(dp2909
ssbsg586
(lp2910
g2898
ag2895
asg863
(lp2911
(iconstruction
TP_REL
p2912
(dp2913
g869
g2895
sg1400
g744
sg88
I273
sg870
g2898
sg75
VIS_273
p2914
sbasg88
I268
sg75
g1307
sbsg1416
(iconstruction
TP_SYNFORM
p2915
(dp2916
g88
I269
sg1419
(lp2917
(iconstruction
TP_PHON
p2918
(dp2919
g1429
I5
sg1426
I0
sg88
I274
sg1430
Vpunch
p2920
sg75
g2886
sbasg75
g1307
sbsg1437
I1
sba(iconstruction
CXN
p2921
(dp2922
g1377
(iconstruction
TP_SYMLINKS
p2923
(dp2924
g1380
(dp2925
VN1_279
p2926
VS1_281
p2927
ssg88
I277
sg75
g1307
sbsg1386
VV
p2928
sg1388
I1
sg75
VWEAR
p2929
sg1390
(iconstruction
TP_SEMFRAME
p2930
(dp2931
g103
g0
(g104
g2
Ntp2932
Rp2933
(dp2934
g108
(dp2935
(iconstruction
TP_NODE
p2936
(dp2937
g1399
I00
sg1400
g642
sg75
g2926
sg1401
I00
sg1402
I00
sg88
I279
sb(dp2938
g1401
I00
sg1400
g642
ss(iconstruction
TP_NODE
p2939
(dp2940
g1399
I01
sg1400
g597
sg75
VACT_278
p2941
sg1401
I01
sg1402
I00
sg88
I278
sb(dp2942
g1401
I01
sg1400
g597
sssg293
g294
sg295
g294
sg296
(dp2943
g2936
(dp2944
sg2939
(dp2945
g2936
(dp2946
g1400
g744
ssssg489
g2943
sg103
(dp2947
sg491
g294
sg492
g2943
sg493
(dp2948
g2936
(dp2949
g2939
g2946
ssg2939
(dp2950
ssbsg586
(lp2951
g2939
ag2936
asg863
(lp2952
(iconstruction
TP_REL
p2953
(dp2954
g869
g2936
sg1400
g744
sg88
I280
sg870
g2939
sg75
VIS_280
p2955
sbasg88
I275
sg75
g1307
sbsg1416
(iconstruction
TP_SYNFORM
p2956
(dp2957
g88
I276
sg1419
(lp2958
(iconstruction
TP_PHON
p2959
(dp2960
g1429
I4
sg1426
I0
sg88
I281
sg1430
Vwear
p2961
sg75
g2927
sbasg75
g1307
sbsg1437
I1
sba(iconstruction
CXN
p2962
(dp2963
g1377
(iconstruction
TP_SYMLINKS
p2964
(dp2965
g1380
(dp2966
VN1_286
p2967
VS1_288
p2968
ssg88
I284
sg75
g1307
sbsg1386
VV
p2969
sg1388
I1
sg75
VLAUGH
p2970
sg1390
(iconstruction
TP_SEMFRAME
p2971
(dp2972
g103
g0
(g104
g2
Ntp2973
Rp2974
(dp2975
g108
(dp2976
(iconstruction
TP_NODE
p2977
(dp2978
g1399
I01
sg1400
g597
sg75
VACT_285
p2979
sg1401
I01
sg1402
I00
sg88
I285
sb(dp2980
g1401
I01
sg1400
g597
ss(iconstruction
TP_NODE
p2981
(dp2982
g1399
I00
sg1400
g612
sg75
g2967
sg1401
I00
sg1402
I00
sg88
I286
sb(dp2983
g1401
I00
sg1400
g612
sssg293
g294
sg295
g294
sg296
(dp2984
g2977
(dp2985
g2981
(dp2986
g1400
g744
sssg2981
(dp2987
ssg489
g2984
sg103
(dp2988
sg491
g294
sg492
g2984
sg493
(dp2989
g2977
(dp2990
sg2981
(dp2991
g2977
g2986
sssbsg586
(lp2992
g2977
ag2981
asg863
(lp2993
(iconstruction
TP_REL
p2994
(dp2995
g869
g2981
sg1400
g744
sg88
I287
sg870
g2977
sg75
VIS_287
p2996
sbasg88
I282
sg75
g1307
sbsg1416
(iconstruction
TP_SYNFORM
p2997
(dp2998
g88
I283
sg1419
(lp2999
(iconstruction
TP_PHON
p3000
(dp3001
g1429
I5
sg1426
I0
sg88
I288
sg1430
Vlaugh
p3002
sg75
g2968
sbasg75
g1307
sbsg1437
I1
sba(iconstruction
CXN
p3003
(dp3004
g1377
(iconstruction
TP_SYMLINKS
p3005
(dp3006
g1380
(dp3007
VN1_293
p3008
VS1_295
p3009
ssg88
I291
sg75
g1307
sbsg1386
VV
p3010
sg1388
I1
sg75
VWATCH
p3011
sg1390
(iconstruction
TP_SEMFRAME
p3012
(dp3013
g103
g0
(g104
g2
Ntp3014
Rp3015
(dp3016
g108
(dp3017
(iconstruction
TP_NODE
p3018
(dp3019
g1399
I00
sg1400
g621
sg75
g3008
sg1401
I00
sg1402
I00
sg88
I293
sb(dp3020
g1401
I00
sg1400
g621
ss(iconstruction
TP_NODE
p3021
(dp3022
g1399
I01
sg1400
g597
sg75
VACT_292
p3023
sg1401
I01
sg1402
I00
sg88
I292
sb(dp3024
g1401
I01
sg1400
g597
sssg293
g294
sg295
g294
sg296
(dp3025
g3018
(dp3026
sg3021
(dp3027
g3018
(dp3028
g1400
g744
ssssg489
g3025
sg103
(dp3029
sg491
g294
sg492
g3025
sg493
(dp3030
g3018
(dp3031
g3021
g3028
ssg3021
(dp3032
ssbsg586
(lp3033
g3021
ag3018
asg863
(lp3034
(iconstruction
TP_REL
p3035
(dp3036
g869
g3018
sg1400
g744
sg88
I294
sg870
g3021
sg75
VIS_294
p3037
sbasg88
I289
sg75
g1307
sbsg1416
(iconstruction
TP_SYNFORM
p3038
(dp3039
g88
I290
sg1419
(lp3040
(iconstruction
TP_PHON
p3041
(dp3042
g1429
I5
sg1426
I0
sg88
I295
sg1430
Vwatch
p3043
sg75
g3009
sbasg75
g1307
sbsg1437
I1
sba(iconstruction
CXN
p3044
(dp3045
g1377
(iconstruction
TP_SYMLINKS
p3046
(dp3047
g1380
(dp3048
VN1_300
p3049
VS1_302
p3050
ssg88
I298
sg75
g1307
sbsg1386
VV
p3051
sg1388
I1
sg75
VTALK
p3052
sg1390
(iconstruction
TP_SEMFRAME
p3053
(dp3054
g103
g0
(g104
g2
Ntp3055
Rp3056
(dp3057
g108
(dp3058
(iconstruction
TP_NODE
p3059
(dp3060
g1399
I01
sg1400
g597
sg75
VACT_299
p3061
sg1401
I01
sg1402
I00
sg88
I299
sb(dp3062
g1401
I01
sg1400
g597
ss(iconstruction
TP_NODE
p3063
(dp3064
g1399
I00
sg1400
g630
sg75
g3049
sg1401
I00
sg1402
I00
sg88
I300
sb(dp3065
g1401
I00
sg1400
g630
sssg293
g294
sg295
g294
sg296
(dp3066
g3059
(dp3067
g3063
(dp3068
g1400
g744
sssg3063
(dp3069
ssg489
g3066
sg103
(dp3070
sg491
g294
sg492
g3066
sg493
(dp3071
g3059
(dp3072
sg3063
(dp3073
g3059
g3068
sssbsg586
(lp3074
g3059
ag3063
asg863
(lp3075
(iconstruction
TP_REL
p3076
(dp3077
g869
g3063
sg1400
g744
sg88
I301
sg870
g3059
sg75
VIS_301
p3078
sbasg88
I296
sg75
g1307
sbsg1416
(iconstruction
TP_SYNFORM
p3079
(dp3080
g88
I297
sg1419
(lp3081
(iconstruction
TP_PHON
p3082
(dp3083
g1429
I4
sg1426
I0
sg88
I302
sg1430
Vtalk
p3084
sg75
g3050
sba(iconstruction
TP_PHON
p3085
(dp3086
g1429
I2
sg1426
I1
sg88
I303
sg1430
Vto
p3087
sg75
VS2_303
p3088
sbasg75
g1307
sbsg1437
I1
sba(iconstruction
CXN
p3089
(dp3090
g1377
(iconstruction
TP_SYMLINKS
p3091
(dp3092
g1380
(dp3093
VN1_308
p3094
VS1_310
p3095
ssg88
I306
sg75
g1307
sbsg1386
VV
p3096
sg1388
I1
sg75
VSQUIRT
p3097
sg1390
(iconstruction
TP_SEMFRAME
p3098
(dp3099
g103
g0
(g104
g2
Ntp3100
Rp3101
(dp3102
g108
(dp3103
(iconstruction
TP_NODE
p3104
(dp3105
g1399
I01
sg1400
g597
sg75
VACT_307
p3106
sg1401
I01
sg1402
I00
sg88
I307
sb(dp3107
g1401
I01
sg1400
g597
ss(iconstruction
TP_NODE
p3108
(dp3109
g1399
I00
sg1400
g636
sg75
g3094
sg1401
I00
sg1402
I00
sg88
I308
sb(dp3110
g1401
I00
sg1400
g636
sssg293
g294
sg295
g294
sg296
(dp3111
g3104
(dp3112
g3108
(dp3113
g1400
g744
sssg3108
(dp3114
ssg489
g3111
sg103
(dp3115
sg491
g294
sg492
g3111
sg493
(dp3116
g3104
(dp3117
sg3108
(dp3118
g3104
g3113
sssbsg586
(lp3119
g3104
ag3108
asg863
(lp3120
(iconstruction
TP_REL
p3121
(dp3122
g869
g3108
sg1400
g744
sg88
I309
sg870
g3104
sg75
VIS_309
p3123
sbasg88
I304
sg75
g1307
sbsg1416
(iconstruction
TP_SYNFORM
p3124
(dp3125
g88
I305
sg1419
(lp3126
(iconstruction
TP_PHON
p3127
(dp3128
g1429
I6
sg1426
I0
sg88
I310
sg1430
Vsquirt
p3129
sg75
g3095
sba(iconstruction
TP_PHON
p3130
(dp3131
g1429
I2
sg1426
I1
sg88
I311
sg1430
Vat
p3132
sg75
VS2_311
p3133
sbasg75
g1307
sbsg1437
I1
sba(iconstruction
CXN
p3134
(dp3135
g1377
(iconstruction
TP_SYMLINKS
p3136
(dp3137
g1380
(dp3138
VN1_316
p3139
VS1_318
p3140
ssg88
I314
sg75
g1307
sbsg1386
VV
p3141
sg1388
I1
sg75
VSPLASH
p3142
sg1390
(iconstruction
TP_SEMFRAME
p3143
(dp3144
g103
g0
(g104
g2
Ntp3145
Rp3146
(dp3147
g108
(dp3148
(iconstruction
TP_NODE
p3149
(dp3150
g1399
I00
sg1400
g627
sg75
g3139
sg1401
I00
sg1402
I00
sg88
I316
sb(dp3151
g1401
I00
sg1400
g627
ss(iconstruction
TP_NODE
p3152
(dp3153
g1399
I01
sg1400
g597
sg75
VACT_315
p3154
sg1401
I01
sg1402
I00
sg88
I315
sb(dp3155
g1401
I01
sg1400
g597
sssg293
g294
sg295
g294
sg296
(dp3156
g3149
(dp3157
sg3152
(dp3158
g3149
(dp3159
g1400
g744
ssssg489
g3156
sg103
(dp3160
sg491
g294
sg492
g3156
sg493
(dp3161
g3149
(dp3162
g3152
g3159
ssg3152
(dp3163
ssbsg586
(lp3164
g3152
ag3149
asg863
(lp3165
(iconstruction
TP_REL
p3166
(dp3167
g869
g3149
sg1400
g744
sg88
I317
sg870
g3152
sg75
VIS_317
p3168
sbasg88
I312
sg75
g1307
sbsg1416
(iconstruction
TP_SYNFORM
p3169
(dp3170
g88
I313
sg1419
(lp3171
(iconstruction
TP_PHON
p3172
(dp3173
g1429
I6
sg1426
I0
sg88
I318
sg1430
Vsplash
p3174
sg75
g3140
sbasg75
g1307
sbsg1437
I1
sba(iconstruction
CXN
p3175
(dp3176
g1377
(iconstruction
TP_SYMLINKS
p3177
(dp3178
g1380
(dp3179
VN1_323
p3180
VS1_325
p3181
ssg88
I321
sg75
g1307
sbsg1386
VV
p3182
sg1388
I1
sg75
VGIVE
p3183
sg1390
(iconstruction
TP_SEMFRAME
p3184
(dp3185
g103
g0
(g104
g2
Ntp3186
Rp3187
(dp3188
g108
(dp3189
(iconstruction
TP_NODE
p3190
(dp3191
g1399
I01
sg1400
g597
sg75
VACT_322
p3192
sg1401
I01
sg1402
I00
sg88
I322
sb(dp3193
g1401
I01
sg1400
g597
ss(iconstruction
TP_NODE
p3194
(dp3195
g1399
I00
sg1400
g651
sg75
g3180
sg1401
I00
sg1402
I00
sg88
I323
sb(dp3196
g1401
I00
sg1400
g651
sssg293
g294
sg295
g294
sg296
(dp3197
g3190
(dp3198
g3194
(dp3199
g1400
g744
sssg3194
(dp3200
ssg489
g3197
sg103
(dp3201
sg491
g294
sg492
g3197
sg493
(dp3202
g3190
(dp3203
sg3194
(dp3204
g3190
g3199
sssbsg586
(lp3205
g3190
ag3194
asg863
(lp3206
(iconstruction
TP_REL
p3207
(dp3208
g869
g3194
sg1400
g744
sg88
I324
sg870
g3190
sg75
VIS_324
p3209
sbasg88
I319
sg75
g1307
sbsg1416
(iconstruction
TP_SYNFORM
p3210
(dp3211
g88
I320
sg1419
(lp3212
(iconstruction
TP_PHON
p3213
(dp3214
g1429
I4
sg1426
I0
sg88
I325
sg1430
Vgive
p3215
sg75
g3181
sbasg75
g1307
sbsg1437
I1
sba(iconstruction
CXN
p3216
(dp3217
g1377
(iconstruction
TP_SYMLINKS
p3218
(dp3219
g1380
(dp3220
VN1_330
p3221
VS1_332
p3222
ssg88
I328
sg75
g1307
sbsg1386
VV
p3223
sg1388
I1
sg75
VSEND
p3224
sg1390
(iconstruction
TP_SEMFRAME
p3225
(dp3226
g103
g0
(g104
g2
Ntp3227
Rp3228
(dp3229
g108
(dp3230
(iconstruction
TP_NODE
p3231
(dp3232
g1399
I00
sg1400
g648
sg75
g3221
sg1401
I00
sg1402
I00
sg88
I330
sb(dp3233
g1401
I00
sg1400
g648
ss(iconstruction
TP_NODE
p3234
(dp3235
g1399
I01
sg1400
g597
sg75
VACT_329
p3236
sg1401
I01
sg1402
I00
sg88
I329
sb(dp3237
g1401
I01
sg1400
g597
sssg293
g294
sg295
g294
sg296
(dp3238
g3231
(dp3239
sg3234
(dp3240
g3231
(dp3241
g1400
g744
ssssg489
g3238
sg103
(dp3242
sg491
g294
sg492
g3238
sg493
(dp3243
g3231
(dp3244
g3234
g3241
ssg3234
(dp3245
ssbsg586
(lp3246
g3234
ag3231
asg863
(lp3247
(iconstruction
TP_REL
p3248
(dp3249
g869
g3231
sg1400
g744
sg88
I331
sg870
g3234
sg75
VIS_331
p3250
sbasg88
I326
sg75
g1307
sbsg1416
(iconstruction
TP_SYNFORM
p3251
(dp3252
g88
I327
sg1419
(lp3253
(iconstruction
TP_PHON
p3254
(dp3255
g1429
I4
sg1426
I0
sg88
I332
sg1430
Vsend
p3256
sg75
g3222
sbasg75
g1307
sbsg1437
I1
sba(iconstruction
CXN
p3257
(dp3258
g1377
(iconstruction
TP_SYMLINKS
p3259
(dp3260
g1380
(dp3261
VN1_337
p3262
VS1_339
p3263
ssg88
I335
sg75
g1307
sbsg1386
VV
p3264
sg1388
I1
sg75
VMEET
p3265
sg1390
(iconstruction
TP_SEMFRAME
p3266
(dp3267
g103
g0
(g104
g2
Ntp3268
Rp3269
(dp3270
g108
(dp3271
(iconstruction
TP_NODE
p3272
(dp3273
g1399
I01
sg1400
g597
sg75
VACT_336
p3274
sg1401
I01
sg1402
I00
sg88
I336
sb(dp3275
g1401
I01
sg1400
g597
ss(iconstruction
TP_NODE
p3276
(dp3277
g1399
I00
sg1400
g603
sg75
g3262
sg1401
I00
sg1402
I00
sg88
I337
sb(dp3278
g1401
I00
sg1400
g603
sssg293
g294
sg295
g294
sg296
(dp3279
g3272
(dp3280
g3276
(dp3281
g1400
g744
sssg3276
(dp3282
ssg489
g3279
sg103
(dp3283
sg491
g294
sg492
g3279
sg493
(dp3284
g3272
(dp3285
sg3276
(dp3286
g3272
g3281
sssbsg586
(lp3287
g3272
ag3276
asg863
(lp3288
(iconstruction
TP_REL
p3289
(dp3290
g869
g3276
sg1400
g744
sg88
I338
sg870
g3272
sg75
VIS_338
p3291
sbasg88
I333
sg75
g1307
sbsg1416
(iconstruction
TP_SYNFORM
p3292
(dp3293
g88
I334
sg1419
(lp3294
(iconstruction
TP_PHON
p3295
(dp3296
g1429
I4
sg1426
I0
sg88
I339
sg1430
Vmeet
p3297
sg75
g3263
sbasg75
g1307
sbsg1437
I1
sba(iconstruction
CXN
p3298
(dp3299
g1377
(iconstruction
TP_SYMLINKS
p3300
(dp3301
g1380
(dp3302
VN1_344
p3303
VS1_346
p3304
ssg88
I342
sg75
g1307
sbsg1386
VV
p3305
sg1388
I1
sg75
VKISS
p3306
sg1390
(iconstruction
TP_SEMFRAME
p3307
(dp3308
g103
g0
(g104
g2
Ntp3309
Rp3310
(dp3311
g108
(dp3312
(iconstruction
TP_NODE
p3313
(dp3314
g1399
I00
sg1400
g633
sg75
g3303
sg1401
I00
sg1402
I00
sg88
I344
sb(dp3315
g1401
I00
sg1400
g633
ss(iconstruction
TP_NODE
p3316
(dp3317
g1399
I01
sg1400
g597
sg75
VACT_343
p3318
sg1401
I01
sg1402
I00
sg88
I343
sb(dp3319
g1401
I01
sg1400
g597
sssg293
g294
sg295
g294
sg296
(dp3320
g3313
(dp3321
sg3316
(dp3322
g3313
(dp3323
g1400
g744
ssssg489
g3320
sg103
(dp3324
sg491
g294
sg492
g3320
sg493
(dp3325
g3313
(dp3326
g3316
g3323
ssg3316
(dp3327
ssbsg586
(lp3328
g3316
ag3313
asg863
(lp3329
(iconstruction
TP_REL
p3330
(dp3331
g869
g3313
sg1400
g744
sg88
I345
sg870
g3316
sg75
VIS_345
p3332
sbasg88
I340
sg75
g1307
sbsg1416
(iconstruction
TP_SYNFORM
p3333
(dp3334
g88
I341
sg1419
(lp3335
(iconstruction
TP_PHON
p3336
(dp3337
g1429
I4
sg1426
I0
sg88
I346
sg1430
Vkiss
p3338
sg75
g3304
sbasg75
g1307
sbsg1437
I1
sba(iconstruction
CXN
p3339
(dp3340
g1377
(iconstruction
TP_SYMLINKS
p3341
(dp3342
g1380
(dp3343
VN1_351
p3344
VS1_353
p3345
ssg88
I349
sg75
g1307
sbsg1386
VV
p3346
sg1388
I1
sg75
VSHAKE_HANDS
p3347
sg1390
(iconstruction
TP_SEMFRAME
p3348
(dp3349
g103
g0
(g104
g2
Ntp3350
Rp3351
(dp3352
g108
(dp3353
(iconstruction
TP_NODE
p3354
(dp3355
g1399
I01
sg1400
g597
sg75
VACT_350
p3356
sg1401
I01
sg1402
I00
sg88
I350
sb(dp3357
g1401
I01
sg1400
g597
ss(iconstruction
TP_NODE
p3358
(dp3359
g1399
I00
sg1400
g606
sg75
g3344
sg1401
I00
sg1402
I00
sg88
I351
sb(dp3360
g1401
I00
sg1400
g606
sssg293
g294
sg295
g294
sg296
(dp3361
g3354
(dp3362
g3358
(dp3363
g1400
g744
sssg3358
(dp3364
ssg489
g3361
sg103
(dp3365
sg491
g294
sg492
g3361
sg493
(dp3366
g3354
(dp3367
sg3358
(dp3368
g3354
g3363
sssbsg586
(lp3369
g3354
ag3358
asg863
(lp3370
(iconstruction
TP_REL
p3371
(dp3372
g869
g3358
sg1400
g744
sg88
I352
sg870
g3354
sg75
VIS_352
p3373
sbasg88
I347
sg75
g1307
sbsg1416
(iconstruction
TP_SYNFORM
p3374
(dp3375
g88
I348
sg1419
(lp3376
(iconstruction
TP_PHON
p3377
(dp3378
g1429
I10
sg1426
I0
sg88
I353
sg1430
Vshake hands
p3379
sg75
g3345
sbasg75
g1307
sbsg1437
I1
sba(iconstruction
CXN
p3380
(dp3381
g1377
(iconstruction
TP_SYMLINKS
p3382
(dp3383
g1380
(dp3384
VN1_357
p3385
VS1_358
p3386
ssg88
I356
sg75
g1307
sbsg1386
VA
p3387
sg1388
I1
sg75
VBLUE
p3388
sg1390
(iconstruction
TP_SEMFRAME
p3389
(dp3390
g103
g0
(g104
g2
Ntp3391
Rp3392
(dp3393
g108
(dp3394
(iconstruction
TP_NODE
p3395
(dp3396
g1399
I01
sg1400
g660
sg75
g3385
sg1401
I00
sg1402
I00
sg88
I357
sb(dp3397
g1401
I00
sg1400
g660
sssg293
g294
sg295
g294
sg296
(dp3398
g3395
(dp3399
ssg489
g3398
sg103
(dp3400
sg491
g294
sg492
g3398
sg493
(dp3401
g3395
(dp3402
ssbsg586
(lp3403
g3395
asg863
(lp3404
sg88
I354
sg75
g1307
sbsg1416
(iconstruction
TP_SYNFORM
p3405
(dp3406
g88
I355
sg1419
(lp3407
(iconstruction
TP_PHON
p3408
(dp3409
g1429
I4
sg1426
I0
sg88
I358
sg1430
Vblue
p3410
sg75
g3386
sbasg75
g1307
sbsg1437
I1
sba(iconstruction
CXN
p3411
(dp3412
g1377
(iconstruction
TP_SYMLINKS
p3413
(dp3414
g1380
(dp3415
VN1_362
p3416
VS1_363
p3417
ssg88
I361
sg75
g1307
sbsg1386
VA
p3418
sg1388
I1
sg75
VBLACK
p3419
sg1390
(iconstruction
TP_SEMFRAME
p3420
(dp3421
g103
g0
(g104
g2
Ntp3422
Rp3423
(dp3424
g108
(dp3425
(iconstruction
TP_NODE
p3426
(dp3427
g1399
I01
sg1400
g669
sg75
g3416
sg1401
I00
sg1402
I00
sg88
I362
sb(dp3428
g1401
I00
sg1400
g669
sssg293
g294
sg295
g294
sg296
(dp3429
g3426
(dp3430
ssg489
g3429
sg103
(dp3431
sg491
g294
sg492
g3429
sg493
(dp3432
g3426
(dp3433
ssbsg586
(lp3434
g3426
asg863
(lp3435
sg88
I359
sg75
g1307
sbsg1416
(iconstruction
TP_SYNFORM
p3436
(dp3437
g88
I360
sg1419
(lp3438
(iconstruction
TP_PHON
p3439
(dp3440
g1429
I5
sg1426
I0
sg88
I363
sg1430
Vblack
p3441
sg75
g3417
sbasg75
g1307
sbsg1437
I1
sba(iconstruction
CXN
p3442
(dp3443
g1377
(iconstruction
TP_SYMLINKS
p3444
(dp3445
g1380
(dp3446
VN1_367
p3447
VS1_368
p3448
ssg88
I366
sg75
g1307
sbsg1386
VA
p3449
sg1388
I1
sg75
VGREEN
p3450
sg1390
(iconstruction
TP_SEMFRAME
p3451
(dp3452
g103
g0
(g104
g2
Ntp3453
Rp3454
(dp3455
g108
(dp3456
(iconstruction
TP_NODE
p3457
(dp3458
g1399
I01
sg1400
g663
sg75
g3447
sg1401
I00
sg1402
I00
sg88
I367
sb(dp3459
g1401
I00
sg1400
g663
sssg293
g294
sg295
g294
sg296
(dp3460
g3457
(dp3461
ssg489
g3460
sg103
(dp3462
sg491
g294
sg492
g3460
sg493
(dp3463
g3457
(dp3464
ssbsg586
(lp3465
g3457
asg863
(lp3466
sg88
I364
sg75
g1307
sbsg1416
(iconstruction
TP_SYNFORM
p3467
(dp3468
g88
I365
sg1419
(lp3469
(iconstruction
TP_PHON
p3470
(dp3471
g1429
I5
sg1426
I0
sg88
I368
sg1430
Vgreen
p3472
sg75
g3448
sbasg75
g1307
sbsg1437
I1
sba(iconstruction
CXN
p3473
(dp3474
g1377
(iconstruction
TP_SYMLINKS
p3475
(dp3476
g1380
(dp3477
VN1_372
p3478
VS1_373
p3479
ssg88
I371
sg75
g1307
sbsg1386
VA
p3480
sg1388
I1
sg75
VSMALL
p3481
sg1390
(iconstruction
TP_SEMFRAME
p3482
(dp3483
g103
g0
(g104
g2
Ntp3484
Rp3485
(dp3486
g108
(dp3487
(iconstruction
TP_NODE
p3488
(dp3489
g1399
I01
sg1400
g690
sg75
g3478
sg1401
I00
sg1402
I00
sg88
I372
sb(dp3490
g1401
I00
sg1400
g690
sssg293
g294
sg295
g294
sg296
(dp3491
g3488
(dp3492
ssg489
g3491
sg103
(dp3493
sg491
g294
sg492
g3491
sg493
(dp3494
g3488
(dp3495
ssbsg586
(lp3496
g3488
asg863
(lp3497
sg88
I369
sg75
g1307
sbsg1416
(iconstruction
TP_SYNFORM
p3498
(dp3499
g88
I370
sg1419
(lp3500
(iconstruction
TP_PHON
p3501
(dp3502
g1429
I5
sg1426
I0
sg88
I373
sg1430
Vsmall
p3503
sg75
g3479
sbasg75
g1307
sbsg1437
I1
sba(iconstruction
CXN
p3504
(dp3505
g1377
(iconstruction
TP_SYMLINKS
p3506
(dp3507
g1380
(dp3508
VN1_377
p3509
VS1_378
p3510
ssg88
I376
sg75
g1307
sbsg1386
VA
p3511
sg1388
I1
sg75
VBIG
p3512
sg1390
(iconstruction
TP_SEMFRAME
p3513
(dp3514
g103
g0
(g104
g2
Ntp3515
Rp3516
(dp3517
g108
(dp3518
(iconstruction
TP_NODE
p3519
(dp3520
g1399
I01
sg1400
g693
sg75
g3509
sg1401
I00
sg1402
I00
sg88
I377
sb(dp3521
g1401
I00
sg1400
g693
sssg293
g294
sg295
g294
sg296
(dp3522
g3519
(dp3523
ssg489
g3522
sg103
(dp3524
sg491
g294
sg492
g3522
sg493
(dp3525
g3519
(dp3526
ssbsg586
(lp3527
g3519
asg863
(lp3528
sg88
I374
sg75
g1307
sbsg1416
(iconstruction
TP_SYNFORM
p3529
(dp3530
g88
I375
sg1419
(lp3531
(iconstruction
TP_PHON
p3532
(dp3533
g1429
I3
sg1426
I0
sg88
I378
sg1430
Vbig
p3534
sg75
g3510
sbasg75
g1307
sbsg1437
I1
sba(iconstruction
CXN
p3535
(dp3536
g1377
(iconstruction
TP_SYMLINKS
p3537
(dp3538
g1380
(dp3539
VN1_382
p3540
VS1_383
p3541
ssg88
I381
sg75
g1307
sbsg1386
VA
p3542
sg1388
I1
sg75
VHANDSOME
p3543
sg1390
(iconstruction
TP_SEMFRAME
p3544
(dp3545
g103
g0
(g104
g2
Ntp3546
Rp3547
(dp3548
g108
(dp3549
(iconstruction
TP_NODE
p3550
(dp3551
g1399
I01
sg1400
g684
sg75
g3540
sg1401
I00
sg1402
I00
sg88
I382
sb(dp3552
g1401
I00
sg1400
g684
sssg293
g294
sg295
g294
sg296
(dp3553
g3550
(dp3554
ssg489
g3553
sg103
(dp3555
sg491
g294
sg492
g3553
sg493
(dp3556
g3550
(dp3557
ssbsg586
(lp3558
g3550
asg863
(lp3559
sg88
I379
sg75
g1307
sbsg1416
(iconstruction
TP_SYNFORM
p3560
(dp3561
g88
I380
sg1419
(lp3562
(iconstruction
TP_PHON
p3563
(dp3564
g1429
I8
sg1426
I0
sg88
I383
sg1430
Vhandsome
p3565
sg75
g3541
sbasg75
g1307
sbsg1437
I1
sba(iconstruction
CXN
p3566
(dp3567
g1377
(iconstruction
TP_SYMLINKS
p3568
(dp3569
g1380
(dp3570
VN1_387
p3571
VS1_388
p3572
ssg88
I386
sg75
g1307
sbsg1386
VA
p3573
sg1388
I1
sg75
VPRETTY
p3574
sg1390
(iconstruction
TP_SEMFRAME
p3575
(dp3576
g103
g0
(g104
g2
Ntp3577
Rp3578
(dp3579
g108
(dp3580
(iconstruction
TP_NODE
p3581
(dp3582
g1399
I01
sg1400
g681
sg75
g3571
sg1401
I00
sg1402
I00
sg88
I387
sb(dp3583
g1401
I00
sg1400
g681
sssg293
g294
sg295
g294
sg296
(dp3584
g3581
(dp3585
ssg489
g3584
sg103
(dp3586
sg491
g294
sg492
g3584
sg493
(dp3587
g3581
(dp3588
ssbsg586
(lp3589
g3581
asg863
(lp3590
sg88
I384
sg75
g1307
sbsg1416
(iconstruction
TP_SYNFORM
p3591
(dp3592
g88
I385
sg1419
(lp3593
(iconstruction
TP_PHON
p3594
(dp3595
g1429
I6
sg1426
I0
sg88
I388
sg1430
Vpretty
p3596
sg75
g3572
sbasg75
g1307
sbsg1437
I1
sba(iconstruction
CXN
p3597
(dp3598
g1377
(iconstruction
TP_SYMLINKS
p3599
(dp3600
g1380
(dp3601
VN1_392
p3602
VS1_393
p3603
ssg88
I391
sg75
g1307
sbsg1386
VA
p3604
sg1388
I1
sg75
VYOUNG
p3605
sg1390
(iconstruction
TP_SEMFRAME
p3606
(dp3607
g103
g0
(g104
g2
Ntp3608
Rp3609
(dp3610
g108
(dp3611
(iconstruction
TP_NODE
p3612
(dp3613
g1399
I01
sg1400
g678
sg75
g3602
sg1401
I00
sg1402
I00
sg88
I392
sb(dp3614
g1401
I00
sg1400
g678
sssg293
g294
sg295
g294
sg296
(dp3615
g3612
(dp3616
ssg489
g3615
sg103
(dp3617
sg491
g294
sg492
g3615
sg493
(dp3618
g3612
(dp3619
ssbsg586
(lp3620
g3612
asg863
(lp3621
sg88
I389
sg75
g1307
sbsg1416
(iconstruction
TP_SYNFORM
p3622
(dp3623
g88
I390
sg1419
(lp3624
(iconstruction
TP_PHON
p3625
(dp3626
g1429
I5
sg1426
I0
sg88
I393
sg1430
Vyoung
p3627
sg75
g3603
sbasg75
g1307
sbsg1437
I1
sba(iconstruction
CXN
p3628
(dp3629
g1377
(iconstruction
TP_SYMLINKS
p3630
(dp3631
g1380
(dp3632
VN1_398
p3633
VS1_400
p3634
ssg88
I396
sg75
g1307
sbsg1386
VN
p3635
sg1388
I1
sg75
VWOMAN
p3636
sg1390
(iconstruction
TP_SEMFRAME
p3637
(dp3638
g103
g0
(g104
g2
Ntp3639
Rp3640
(dp3641
g108
(dp3642
(iconstruction
TP_NODE
p3643
(dp3644
g1399
I00
sg1400
g819
sg75
g3633
sg1401
I00
sg1402
I00
sg88
I398
sb(dp3645
g1401
I00
sg1400
g819
ss(iconstruction
TP_NODE
p3646
(dp3647
g1399
I01
sg1400
g753
sg75
VENT_397
p3648
sg1401
I01
sg1402
I00
sg88
I397
sb(dp3649
g1401
I01
sg1400
g753
sssg293
g294
sg295
g294
sg296
(dp3650
g3643
(dp3651
sg3646
(dp3652
g3643
(dp3653
g1400
g744
ssssg489
g3650
sg103
(dp3654
sg491
g294
sg492
g3650
sg493
(dp3655
g3643
(dp3656
g3646
g3653
ssg3646
(dp3657
ssbsg586
(lp3658
g3646
ag3643
asg863
(lp3659
(iconstruction
TP_REL
p3660
(dp3661
g869
g3643
sg1400
g744
sg88
I399
sg870
g3646
sg75
VIS_399
p3662
sbasg88
I394
sg75
g1307
sbsg1416
(iconstruction
TP_SYNFORM
p3663
(dp3664
g88
I395
sg1419
(lp3665
(iconstruction
TP_PHON
p3666
(dp3667
g1429
I5
sg1426
I0
sg88
I400
sg1430
Vwoman
p3668
sg75
g3634
sbasg75
g1307
sbsg1437
I1
sba(iconstruction
CXN
p3669
(dp3670
g1377
(iconstruction
TP_SYMLINKS
p3671
(dp3672
g1380
(dp3673
VN1_405
p3674
VS1_407
p3675
ssg88
I403
sg75
g1307
sbsg1386
VN
p3676
sg1388
I1
sg75
VWOMAN2
p3677
sg1390
(iconstruction
TP_SEMFRAME
p3678
(dp3679
g103
g0
(g104
g2
Ntp3680
Rp3681
(dp3682
g108
(dp3683
(iconstruction
TP_NODE
p3684
(dp3685
g1399
I01
sg1400
g753
sg75
VENT_404
p3686
sg1401
I01
sg1402
I00
sg88
I404
sb(dp3687
g1401
I01
sg1400
g753
ss(iconstruction
TP_NODE
p3688
(dp3689
g1399
I00
sg1400
g819
sg75
g3674
sg1401
I00
sg1402
I00
sg88
I405
sb(dp3690
g1401
I00
sg1400
g819
sssg293
g294
sg295
g294
sg296
(dp3691
g3684
(dp3692
g3688
(dp3693
g1400
g744
sssg3688
(dp3694
ssg489
g3691
sg103
(dp3695
sg491
g294
sg492
g3691
sg493
(dp3696
g3684
(dp3697
sg3688
(dp3698
g3684
g3693
sssbsg586
(lp3699
g3684
ag3688
asg863
(lp3700
(iconstruction
TP_REL
p3701
(dp3702
g869
g3688
sg1400
g744
sg88
I406
sg870
g3684
sg75
VIS_406
p3703
sbasg88
I401
sg75
g1307
sbsg1416
(iconstruction
TP_SYNFORM
p3704
(dp3705
g88
I402
sg1419
(lp3706
(iconstruction
TP_PHON
p3707
(dp3708
g1429
I4
sg1426
I0
sg88
I407
sg1430
Vlady
p3709
sg75
g3675
sbasg75
g1307
sbsg1437
I1
sba(iconstruction
CXN
p3710
(dp3711
g1377
(iconstruction
TP_SYMLINKS
p3712
(dp3713
g1380
(dp3714
VN1_412
p3715
VS1_414
p3716
ssg88
I410
sg75
g1307
sbsg1386
VN
p3717
sg1388
I1
sg75
VMAN
p3718
sg1390
(iconstruction
TP_SEMFRAME
p3719
(dp3720
g103
g0
(g104
g2
Ntp3721
Rp3722
(dp3723
g108
(dp3724
(iconstruction
TP_NODE
p3725
(dp3726
g1399
I00
sg1400
g846
sg75
g3715
sg1401
I00
sg1402
I00
sg88
I412
sb(dp3727
g1401
I00
sg1400
g846
ss(iconstruction
TP_NODE
p3728
(dp3729
g1399
I01
sg1400
g753
sg75
VENT_411
p3730
sg1401
I01
sg1402
I00
sg88
I411
sb(dp3731
g1401
I01
sg1400
g753
sssg293
g294
sg295
g294
sg296
(dp3732
g3725
(dp3733
sg3728
(dp3734
g3725
(dp3735
g1400
g744
ssssg489
g3732
sg103
(dp3736
sg491
g294
sg492
g3732
sg493
(dp3737
g3725
(dp3738
g3728
g3735
ssg3728
(dp3739
ssbsg586
(lp3740
g3728
ag3725
asg863
(lp3741
(iconstruction
TP_REL
p3742
(dp3743
g869
g3725
sg1400
g744
sg88
I413
sg870
g3728
sg75
VIS_413
p3744
sbasg88
I408
sg75
g1307
sbsg1416
(iconstruction
TP_SYNFORM
p3745
(dp3746
g88
I409
sg1419
(lp3747
(iconstruction
TP_PHON
p3748
(dp3749
g1429
I3
sg1426
I0
sg88
I414
sg1430
Vman
p3750
sg75
g3716
sbasg75
g1307
sbsg1437
I1
sba(iconstruction
CXN
p3751
(dp3752
g1377
(iconstruction
TP_SYMLINKS
p3753
(dp3754
g1380
(dp3755
VN1_419
p3756
VS1_421
p3757
ssg88
I417
sg75
g1307
sbsg1386
VN
p3758
sg1388
I1
sg75
VGIRL
p3759
sg1390
(iconstruction
TP_SEMFRAME
p3760
(dp3761
g103
g0
(g104
g2
Ntp3762
Rp3763
(dp3764
g108
(dp3765
(iconstruction
TP_NODE
p3766
(dp3767
g1399
I01
sg1400
g753
sg75
VENT_418
p3768
sg1401
I01
sg1402
I00
sg88
I418
sb(dp3769
g1401
I01
sg1400
g753
ss(iconstruction
TP_NODE
p3770
(dp3771
g1399
I00
sg1400
g837
sg75
g3756
sg1401
I00
sg1402
I00
sg88
I419
sb(dp3772
g1401
I00
sg1400
g837
sssg293
g294
sg295
g294
sg296
(dp3773
g3766
(dp3774
g3770
(dp3775
g1400
g744
sssg3770
(dp3776
ssg489
g3773
sg103
(dp3777
sg491
g294
sg492
g3773
sg493
(dp3778
g3766
(dp3779
sg3770
(dp3780
g3766
g3775
sssbsg586
(lp3781
g3766
ag3770
asg863
(lp3782
(iconstruction
TP_REL
p3783
(dp3784
g869
g3770
sg1400
g744
sg88
I420
sg870
g3766
sg75
VIS_420
p3785
sbasg88
I415
sg75
g1307
sbsg1416
(iconstruction
TP_SYNFORM
p3786
(dp3787
g88
I416
sg1419
(lp3788
(iconstruction
TP_PHON
p3789
(dp3790
g1429
I4
sg1426
I0
sg88
I421
sg1430
Vgirl
p3791
sg75
g3757
sbasg75
g1307
sbsg1437
I1
sba(iconstruction
CXN
p3792
(dp3793
g1377
(iconstruction
TP_SYMLINKS
p3794
(dp3795
g1380
(dp3796
VN1_426
p3797
VS1_428
p3798
ssg88
I424
sg75
g1307
sbsg1386
VN
p3799
sg1388
I1
sg75
VBOY
p3800
sg1390
(iconstruction
TP_SEMFRAME
p3801
(dp3802
g103
g0
(g104
g2
Ntp3803
Rp3804
(dp3805
g108
(dp3806
(iconstruction
TP_NODE
p3807
(dp3808
g1399
I00
sg1400
g816
sg75
g3797
sg1401
I00
sg1402
I00
sg88
I426
sb(dp3809
g1401
I00
sg1400
g816
ss(iconstruction
TP_NODE
p3810
(dp3811
g1399
I01
sg1400
g753
sg75
VENT_425
p3812
sg1401
I01
sg1402
I00
sg88
I425
sb(dp3813
g1401
I01
sg1400
g753
sssg293
g294
sg295
g294
sg296
(dp3814
g3807
(dp3815
sg3810
(dp3816
g3807
(dp3817
g1400
g744
ssssg489
g3814
sg103
(dp3818
sg491
g294
sg492
g3814
sg493
(dp3819
g3807
(dp3820
g3810
g3817
ssg3810
(dp3821
ssbsg586
(lp3822
g3810
ag3807
asg863
(lp3823
(iconstruction
TP_REL
p3824
(dp3825
g869
g3807
sg1400
g744
sg88
I427
sg870
g3810
sg75
VIS_427
p3826
sbasg88
I422
sg75
g1307
sbsg1416
(iconstruction
TP_SYNFORM
p3827
(dp3828
g88
I423
sg1419
(lp3829
(iconstruction
TP_PHON
p3830
(dp3831
g1429
I3
sg1426
I0
sg88
I428
sg1430
Vboy
p3832
sg75
g3798
sbasg75
g1307
sbsg1437
I1
sba(iconstruction
CXN
p3833
(dp3834
g1377
(iconstruction
TP_SYMLINKS
p3835
(dp3836
g1380
(dp3837
VN1_433
p3838
VS1_435
p3839
ssg88
I431
sg75
g1307
sbsg1386
VN
p3840
sg1388
I1
sg75
VPEOPLE
p3841
sg1390
(iconstruction
TP_SEMFRAME
p3842
(dp3843
g103
g0
(g104
g2
Ntp3844
Rp3845
(dp3846
g108
(dp3847
(iconstruction
TP_NODE
p3848
(dp3849
g1399
I00
sg1400
g822
sg75
g3838
sg1401
I00
sg1402
I00
sg88
I433
sb(dp3850
g1401
I00
sg1400
g822
ss(iconstruction
TP_NODE
p3851
(dp3852
g1399
I01
sg1400
g753
sg75
VENT_432
p3853
sg1401
I01
sg1402
I00
sg88
I432
sb(dp3854
g1401
I01
sg1400
g753
sssg293
g294
sg295
g294
sg296
(dp3855
g3848
(dp3856
sg3851
(dp3857
g3848
(dp3858
g1400
g744
ssssg489
g3855
sg103
(dp3859
sg491
g294
sg492
g3855
sg493
(dp3860
g3848
(dp3861
g3851
g3858
ssg3851
(dp3862
ssbsg586
(lp3863
g3851
ag3848
asg863
(lp3864
(iconstruction
TP_REL
p3865
(dp3866
g869
g3848
sg1400
g744
sg88
I434
sg870
g3851
sg75
VIS_434
p3867
sbasg88
I429
sg75
g1307
sbsg1416
(iconstruction
TP_SYNFORM
p3868
(dp3869
g88
I430
sg1419
(lp3870
(iconstruction
TP_PHON
p3871
(dp3872
g1429
I6
sg1426
I0
sg88
I435
sg1430
Vpeople
p3873
sg75
g3839
sbasg75
g1307
sbsg1437
I1
sba(iconstruction
CXN
p3874
(dp3875
g1377
(iconstruction
TP_SYMLINKS
p3876
(dp3877
g1380
(dp3878
VN1_440
p3879
VS1_442
p3880
ssg88
I438
sg75
g1307
sbsg1386
VN
p3881
sg1388
I1
sg75
VMOUSE
p3882
sg1390
(iconstruction
TP_SEMFRAME
p3883
(dp3884
g103
g0
(g104
g2
Ntp3885
Rp3886
(dp3887
g108
(dp3888
(iconstruction
TP_NODE
p3889
(dp3890
g1399
I01
sg1400
g753
sg75
VENT_439
p3891
sg1401
I01
sg1402
I00
sg88
I439
sb(dp3892
g1401
I01
sg1400
g753
ss(iconstruction
TP_NODE
p3893
(dp3894
g1399
I00
sg1400
g810
sg75
g3879
sg1401
I00
sg1402
I00
sg88
I440
sb(dp3895
g1401
I00
sg1400
g810
sssg293
g294
sg295
g294
sg296
(dp3896
g3889
(dp3897
g3893
(dp3898
g1400
g744
sssg3893
(dp3899
ssg489
g3896
sg103
(dp3900
sg491
g294
sg492
g3896
sg493
(dp3901
g3889
(dp3902
sg3893
(dp3903
g3889
g3898
sssbsg586
(lp3904
g3889
ag3893
asg863
(lp3905
(iconstruction
TP_REL
p3906
(dp3907
g869
g3893
sg1400
g744
sg88
I441
sg870
g3889
sg75
VIS_441
p3908
sbasg88
I436
sg75
g1307
sbsg1416
(iconstruction
TP_SYNFORM
p3909
(dp3910
g88
I437
sg1419
(lp3911
(iconstruction
TP_PHON
p3912
(dp3913
g1429
I5
sg1426
I0
sg88
I442
sg1430
Vmouse
p3914
sg75
g3880
sbasg75
g1307
sbsg1437
I1
sba(iconstruction
CXN
p3915
(dp3916
g1377
(iconstruction
TP_SYMLINKS
p3917
(dp3918
g1380
(dp3919
VN1_447
p3920
VS1_449
p3921
ssg88
I445
sg75
g1307
sbsg1386
VN
p3922
sg1388
I1
sg75
VTURTLE
p3923
sg1390
(iconstruction
TP_SEMFRAME
p3924
(dp3925
g103
g0
(g104
g2
Ntp3926
Rp3927
(dp3928
g108
(dp3929
(iconstruction
TP_NODE
p3930
(dp3931
g1399
I00
sg1400
g807
sg75
g3920
sg1401
I00
sg1402
I00
sg88
I447
sb(dp3932
g1401
I00
sg1400
g807
ss(iconstruction
TP_NODE
p3933
(dp3934
g1399
I01
sg1400
g753
sg75
VENT_446
p3935
sg1401
I01
sg1402
I00
sg88
I446
sb(dp3936
g1401
I01
sg1400
g753
sssg293
g294
sg295
g294
sg296
(dp3937
g3930
(dp3938
sg3933
(dp3939
g3930
(dp3940
g1400
g744
ssssg489
g3937
sg103
(dp3941
sg491
g294
sg492
g3937
sg493
(dp3942
g3930
(dp3943
g3933
g3940
ssg3933
(dp3944
ssbsg586
(lp3945
g3933
ag3930
asg863
(lp3946
(iconstruction
TP_REL
p3947
(dp3948
g869
g3930
sg1400
g744
sg88
I448
sg870
g3933
sg75
VIS_448
p3949
sbasg88
I443
sg75
g1307
sbsg1416
(iconstruction
TP_SYNFORM
p3950
(dp3951
g88
I444
sg1419
(lp3952
(iconstruction
TP_PHON
p3953
(dp3954
g1429
I6
sg1426
I0
sg88
I449
sg1430
Vturtle
p3955
sg75
g3921
sbasg75
g1307
sbsg1437
I1
sba(iconstruction
CXN
p3956
(dp3957
g1377
(iconstruction
TP_SYMLINKS
p3958
(dp3959
g1380
(dp3960
VN1_454
p3961
VS1_456
p3962
ssg88
I452
sg75
g1307
sbsg1386
VN
p3963
sg1388
I1
sg75
VDRESS
p3964
sg1390
(iconstruction
TP_SEMFRAME
p3965
(dp3966
g103
g0
(g104
g2
Ntp3967
Rp3968
(dp3969
g108
(dp3970
(iconstruction
TP_NODE
p3971
(dp3972
g1399
I01
sg1400
g753
sg75
VENT_453
p3973
sg1401
I01
sg1402
I00
sg88
I453
sb(dp3974
g1401
I01
sg1400
g753
ss(iconstruction
TP_NODE
p3975
(dp3976
g1399
I00
sg1400
g798
sg75
g3961
sg1401
I00
sg1402
I00
sg88
I454
sb(dp3977
g1401
I00
sg1400
g798
sssg293
g294
sg295
g294
sg296
(dp3978
g3971
(dp3979
g3975
(dp3980
g1400
g744
sssg3975
(dp3981
ssg489
g3978
sg103
(dp3982
sg491
g294
sg492
g3978
sg493
(dp3983
g3971
(dp3984
sg3975
(dp3985
g3971
g3980
sssbsg586
(lp3986
g3971
ag3975
asg863
(lp3987
(iconstruction
TP_REL
p3988
(dp3989
g869
g3975
sg1400
g744
sg88
I455
sg870
g3971
sg75
VIS_455
p3990
sbasg88
I450
sg75
g1307
sbsg1416
(iconstruction
TP_SYNFORM
p3991
(dp3992
g88
I451
sg1419
(lp3993
(iconstruction
TP_PHON
p3994
(dp3995
g1429
I5
sg1426
I0
sg88
I456
sg1430
Vdress
p3996
sg75
g3962
sbasg75
g1307
sbsg1437
I1
sba(iconstruction
CXN
p3997
(dp3998
g1377
(iconstruction
TP_SYMLINKS
p3999
(dp4000
g1380
(dp4001
VN1_461
p4002
VS1_463
p4003
ssg88
I459
sg75
g1307
sbsg1386
VN
p4004
sg1388
I1
sg75
VTSHIRT
p4005
sg1390
(iconstruction
TP_SEMFRAME
p4006
(dp4007
g103
g0
(g104
g2
Ntp4008
Rp4009
(dp4010
g108
(dp4011
(iconstruction
TP_NODE
p4012
(dp4013
g1399
I00
sg1400
g795
sg75
g4002
sg1401
I00
sg1402
I00
sg88
I461
sb(dp4014
g1401
I00
sg1400
g795
ss(iconstruction
TP_NODE
p4015
(dp4016
g1399
I01
sg1400
g753
sg75
VENT_460
p4017
sg1401
I01
sg1402
I00
sg88
I460
sb(dp4018
g1401
I01
sg1400
g753
sssg293
g294
sg295
g294
sg296
(dp4019
g4012
(dp4020
sg4015
(dp4021
g4012
(dp4022
g1400
g744
ssssg489
g4019
sg103
(dp4023
sg491
g294
sg492
g4019
sg493
(dp4024
g4012
(dp4025
g4015
g4022
ssg4015
(dp4026
ssbsg586
(lp4027
g4015
ag4012
asg863
(lp4028
(iconstruction
TP_REL
p4029
(dp4030
g869
g4012
sg1400
g744
sg88
I462
sg870
g4015
sg75
VIS_462
p4031
sbasg88
I457
sg75
g1307
sbsg1416
(iconstruction
TP_SYNFORM
p4032
(dp4033
g88
I458
sg1419
(lp4034
(iconstruction
TP_PHON
p4035
(dp4036
g1429
I6
sg1426
I0
sg88
I463
sg1430
Vt-shirt
p4037
sg75
g4003
sbasg75
g1307
sbsg1437
I1
sba(iconstruction
CXN
p4038
(dp4039
g1377
(iconstruction
TP_SYMLINKS
p4040
(dp4041
g1380
(dp4042
VN1_468
p4043
VS2_471
p4044
ssg88
I466
sg75
g1307
sbsg1386
VN
p4045
sg1388
I1
sg75
VBOXINGRING
p4046
sg1390
(iconstruction
TP_SEMFRAME
p4047
(dp4048
g103
g0
(g104
g2
Ntp4049
Rp4050
(dp4051
g108
(dp4052
(iconstruction
TP_NODE
p4053
(dp4054
g1399
I00
sg1400
g852
sg75
g4043
sg1401
I00
sg1402
I00
sg88
I468
sb(dp4055
g1401
I00
sg1400
g852
ss(iconstruction
TP_NODE
p4056
(dp4057
g1399
I01
sg1400
g753
sg75
VENT_467
p4058
sg1401
I01
sg1402
I00
sg88
I467
sb(dp4059
g1401
I01
sg1400
g753
sssg293
g294
sg295
g294
sg296
(dp4060
g4053
(dp4061
sg4056
(dp4062
g4053
(dp4063
g1400
g744
ssssg489
g4060
sg103
(dp4064
sg491
g294
sg492
g4060
sg493
(dp4065
g4053
(dp4066
g4056
g4063
ssg4056
(dp4067
ssbsg586
(lp4068
g4056
ag4053
asg863
(lp4069
(iconstruction
TP_REL
p4070
(dp4071
g869
g4053
sg1400
g744
sg88
I469
sg870
g4056
sg75
VIS_469
p4072
sbasg88
I464
sg75
g1307
sbsg1416
(iconstruction
TP_SYNFORM
p4073
(dp4074
g88
I465
sg1419
(lp4075
(iconstruction
TP_PHON
p4076
(dp4077
g1429
I6
sg1426
I0
sg88
I470
sg1430
Vboxing
p4078
sg75
VS1_470
p4079
sba(iconstruction
TP_PHON
p4080
(dp4081
g1429
I4
sg1426
I1
sg88
I471
sg1430
Vring
p4082
sg75
g4044
sbasg75
g1307
sbsg1437
I1
sba(iconstruction
CXN
p4083
(dp4084
g1377
(iconstruction
TP_SYMLINKS
p4085
(dp4086
g1380
(dp4087
VN1_476
p4088
VS1_478
p4089
ssg88
I474
sg75
g1307
sbsg1386
VN
p4090
sg1388
I1
sg75
VPARK
p4091
sg1390
(iconstruction
TP_SEMFRAME
p4092
(dp4093
g103
g0
(g104
g2
Ntp4094
Rp4095
(dp4096
g108
(dp4097
(iconstruction
TP_NODE
p4098
(dp4099
g1399
I00
sg1400
g855
sg75
g4088
sg1401
I00
sg1402
I00
sg88
I476
sb(dp4100
g1401
I00
sg1400
g855
ss(iconstruction
TP_NODE
p4101
(dp4102
g1399
I01
sg1400
g753
sg75
VENT_475
p4103
sg1401
I01
sg1402
I00
sg88
I475
sb(dp4104
g1401
I01
sg1400
g753
sssg293
g294
sg295
g294
sg296
(dp4105
g4098
(dp4106
sg4101
(dp4107
g4098
(dp4108
g1400
g744
ssssg489
g4105
sg103
(dp4109
sg491
g294
sg492
g4105
sg493
(dp4110
g4098
(dp4111
g4101
g4108
ssg4101
(dp4112
ssbsg586
(lp4113
g4101
ag4098
asg863
(lp4114
(iconstruction
TP_REL
p4115
(dp4116
g869
g4098
sg1400
g744
sg88
I477
sg870
g4101
sg75
VIS_477
p4117
sbasg88
I472
sg75
g1307
sbsg1416
(iconstruction
TP_SYNFORM
p4118
(dp4119
g88
I473
sg1419
(lp4120
(iconstruction
TP_PHON
p4121
(dp4122
g1429
I4
sg1426
I0
sg88
I478
sg1430
Vpark
p4123
sg75
g4089
sbasg75
g1307
sbsg1437
I1
sba(iconstruction
CXN
p4124
(dp4125
g1377
(iconstruction
TP_SYMLINKS
p4126
(dp4127
g1380
(dp4128
VN1_483
p4129
VS1_485
p4130
ssg88
I481
sg75
g1307
sbsg1386
VN
p4131
sg1388
I1
sg75
VSHIRT
p4132
sg1390
(iconstruction
TP_SEMFRAME
p4133
(dp4134
g103
g0
(g104
g2
Ntp4135
Rp4136
(dp4137
g108
(dp4138
(iconstruction
TP_NODE
p4139
(dp4140
g1399
I01
sg1400
g753
sg75
VENT_482
p4141
sg1401
I01
sg1402
I00
sg88
I482
sb(dp4142
g1401
I01
sg1400
g753
ss(iconstruction
TP_NODE
p4143
(dp4144
g1399
I00
sg1400
g801
sg75
g4129
sg1401
I00
sg1402
I00
sg88
I483
sb(dp4145
g1401
I00
sg1400
g801
sssg293
g294
sg295
g294
sg296
(dp4146
g4139
(dp4147
g4143
(dp4148
g1400
g744
sssg4143
(dp4149
ssg489
g4146
sg103
(dp4150
sg491
g294
sg492
g4146
sg493
(dp4151
g4139
(dp4152
sg4143
(dp4153
g4139
g4148
sssbsg586
(lp4154
g4139
ag4143
asg863
(lp4155
(iconstruction
TP_REL
p4156
(dp4157
g869
g4143
sg1400
g744
sg88
I484
sg870
g4139
sg75
VIS_484
p4158
sbasg88
I479
sg75
g1307
sbsg1416
(iconstruction
TP_SYNFORM
p4159
(dp4160
g88
I480
sg1419
(lp4161
(iconstruction
TP_PHON
p4162
(dp4163
g1429
I5
sg1426
I0
sg88
I485
sg1430
Vshirt
p4164
sg75
g4130
sbasg75
g1307
sbsg1437
I1
sba(iconstruction
CXN
p4165
(dp4166
g1377
(iconstruction
TP_SYMLINKS
p4167
(dp4168
g1380
(dp4169
VN1_490
p4170
VS1_492
p4171
ssg88
I488
sg75
g1307
sbsg1386
VN
p4172
sg1388
I1
sg75
VSUIT
p4173
sg1390
(iconstruction
TP_SEMFRAME
p4174
(dp4175
g103
g0
(g104
g2
Ntp4176
Rp4177
(dp4178
g108
(dp4179
(iconstruction
TP_NODE
p4180
(dp4181
g1399
I00
sg1400
g804
sg75
g4170
sg1401
I00
sg1402
I00
sg88
I490
sb(dp4182
g1401
I00
sg1400
g804
ss(iconstruction
TP_NODE
p4183
(dp4184
g1399
I01
sg1400
g753
sg75
VENT_489
p4185
sg1401
I01
sg1402
I00
sg88
I489
sb(dp4186
g1401
I01
sg1400
g753
sssg293
g294
sg295
g294
sg296
(dp4187
g4180
(dp4188
sg4183
(dp4189
g4180
(dp4190
g1400
g744
ssssg489
g4187
sg103
(dp4191
sg491
g294
sg492
g4187
sg493
(dp4192
g4180
(dp4193
g4183
g4190
ssg4183
(dp4194
ssbsg586
(lp4195
g4183
ag4180
asg863
(lp4196
(iconstruction
TP_REL
p4197
(dp4198
g869
g4180
sg1400
g744
sg88
I491
sg870
g4183
sg75
VIS_491
p4199
sbasg88
I486
sg75
g1307
sbsg1416
(iconstruction
TP_SYNFORM
p4200
(dp4201
g88
I487
sg1419
(lp4202
(iconstruction
TP_PHON
p4203
(dp4204
g1429
I4
sg1426
I0
sg88
I492
sg1430
Vsuit
p4205
sg75
g4171
sbasg75
g1307
sbsg1437
I1
sba(iconstruction
CXN
p4206
(dp4207
g1377
(iconstruction
TP_SYMLINKS
p4208
(dp4209
g1380
(dp4210
VN1_497
p4211
VS1_499
p4212
ssg88
I495
sg75
g1307
sbsg1386
VN
p4213
sg1388
I1
sg75
VCELLO
p4214
sg1390
(iconstruction
TP_SEMFRAME
p4215
(dp4216
g103
g0
(g104
g2
Ntp4217
Rp4218
(dp4219
g108
(dp4220
(iconstruction
TP_NODE
p4221
(dp4222
g1399
I01
sg1400
g753
sg75
VENT_496
p4223
sg1401
I01
sg1402
I00
sg88
I496
sb(dp4224
g1401
I01
sg1400
g753
ss(iconstruction
TP_NODE
p4225
(dp4226
g1399
I00
sg1400
g786
sg75
g4211
sg1401
I00
sg1402
I00
sg88
I497
sb(dp4227
g1401
I00
sg1400
g786
sssg293
g294
sg295
g294
sg296
(dp4228
g4221
(dp4229
g4225
(dp4230
g1400
g744
sssg4225
(dp4231
ssg489
g4228
sg103
(dp4232
sg491
g294
sg492
g4228
sg493
(dp4233
g4221
(dp4234
sg4225
(dp4235
g4221
g4230
sssbsg586
(lp4236
g4221
ag4225
asg863
(lp4237
(iconstruction
TP_REL
p4238
(dp4239
g869
g4225
sg1400
g744
sg88
I498
sg870
g4221
sg75
VIS_498
p4240
sbasg88
I493
sg75
g1307
sbsg1416
(iconstruction
TP_SYNFORM
p4241
(dp4242
g88
I494
sg1419
(lp4243
(iconstruction
TP_PHON
p4244
(dp4245
g1429
I5
sg1426
I0
sg88
I499
sg1430
VCELLO
p4246
sg75
g4212
sbasg75
g1307
sbsg1437
I1
sba(iconstruction
CXN
p4247
(dp4248
g1377
(iconstruction
TP_SYMLINKS
p4249
(dp4250
g1380
(dp4251
VN1_504
p4252
VS1_506
p4253
ssg88
I502
sg75
g1307
sbsg1386
VN
p4254
sg1388
I1
sg75
VBAG
p4255
sg1390
(iconstruction
TP_SEMFRAME
p4256
(dp4257
g103
g0
(g104
g2
Ntp4258
Rp4259
(dp4260
g108
(dp4261
(iconstruction
TP_NODE
p4262
(dp4263
g1399
I00
sg1400
g777
sg75
g4252
sg1401
I00
sg1402
I00
sg88
I504
sb(dp4264
g1401
I00
sg1400
g777
ss(iconstruction
TP_NODE
p4265
(dp4266
g1399
I01
sg1400
g753
sg75
VENT_503
p4267
sg1401
I01
sg1402
I00
sg88
I503
sb(dp4268
g1401
I01
sg1400
g753
sssg293
g294
sg295
g294
sg296
(dp4269
g4262
(dp4270
sg4265
(dp4271
g4262
(dp4272
g1400
g744
ssssg489
g4269
sg103
(dp4273
sg491
g294
sg492
g4269
sg493
(dp4274
g4262
(dp4275
g4265
g4272
ssg4265
(dp4276
ssbsg586
(lp4277
g4265
ag4262
asg863
(lp4278
(iconstruction
TP_REL
p4279
(dp4280
g869
g4262
sg1400
g744
sg88
I505
sg870
g4265
sg75
VIS_505
p4281
sbasg88
I500
sg75
g1307
sbsg1416
(iconstruction
TP_SYNFORM
p4282
(dp4283
g88
I501
sg1419
(lp4284
(iconstruction
TP_PHON
p4285
(dp4286
g1429
I3
sg1426
I0
sg88
I506
sg1430
Vbag
p4287
sg75
g4253
sbasg75
g1307
sbsg1437
I1
sba(iconstruction
CXN
p4288
(dp4289
g1377
(iconstruction
TP_SYMLINKS
p4290
(dp4291
g1380
(dp4292
VN1_511
p4293
VS2_514
p4294
ssg88
I509
sg75
g1307
sbsg1386
VN
p4295
sg1388
I1
sg75
VWATERING_CAN
p4296
sg1390
(iconstruction
TP_SEMFRAME
p4297
(dp4298
g103
g0
(g104
g2
Ntp4299
Rp4300
(dp4301
g108
(dp4302
(iconstruction
TP_NODE
p4303
(dp4304
g1399
I00
sg1400
g774
sg75
g4293
sg1401
I00
sg1402
I00
sg88
I511
sb(dp4305
g1401
I00
sg1400
g774
ss(iconstruction
TP_NODE
p4306
(dp4307
g1399
I01
sg1400
g753
sg75
VENT_510
p4308
sg1401
I01
sg1402
I00
sg88
I510
sb(dp4309
g1401
I01
sg1400
g753
sssg293
g294
sg295
g294
sg296
(dp4310
g4303
(dp4311
sg4306
(dp4312
g4303
(dp4313
g1400
g744
ssssg489
g4310
sg103
(dp4314
sg491
g294
sg492
g4310
sg493
(dp4315
g4303
(dp4316
g4306
g4313
ssg4306
(dp4317
ssbsg586
(lp4318
g4306
ag4303
asg863
(lp4319
(iconstruction
TP_REL
p4320
(dp4321
g869
g4303
sg1400
g744
sg88
I512
sg870
g4306
sg75
VIS_512
p4322
sbasg88
I507
sg75
g1307
sbsg1416
(iconstruction
TP_SYNFORM
p4323
(dp4324
g88
I508
sg1419
(lp4325
(iconstruction
TP_PHON
p4326
(dp4327
g1429
I8
sg1426
I0
sg88
I513
sg1430
Vwatering
p4328
sg75
VS1_513
p4329
sba(iconstruction
TP_PHON
p4330
(dp4331
g1429
I3
sg1426
I1
sg88
I514
sg1430
Vcan
p4332
sg75
g4294
sbasg75
g1307
sbsg1437
I1
sba(iconstruction
CXN
p4333
(dp4334
g1377
(iconstruction
TP_SYMLINKS
p4335
(dp4336
g1380
(dp4337
VN1_519
p4338
VS1_521
p4339
ssg88
I517
sg75
g1307
sbsg1386
VN
p4340
sg1388
I1
sg75
VBALLERINA
p4341
sg1390
(iconstruction
TP_SEMFRAME
p4342
(dp4343
g103
g0
(g104
g2
Ntp4344
Rp4345
(dp4346
g108
(dp4347
(iconstruction
TP_NODE
p4348
(dp4349
g1399
I00
sg1400
g831
sg75
g4338
sg1401
I00
sg1402
I00
sg88
I519
sb(dp4350
g1401
I00
sg1400
g831
ss(iconstruction
TP_NODE
p4351
(dp4352
g1399
I01
sg1400
g753
sg75
VENT_518
p4353
sg1401
I01
sg1402
I00
sg88
I518
sb(dp4354
g1401
I01
sg1400
g753
sssg293
g294
sg295
g294
sg296
(dp4355
g4348
(dp4356
sg4351
(dp4357
g4348
(dp4358
g1400
g744
ssssg489
g4355
sg103
(dp4359
sg491
g294
sg492
g4355
sg493
(dp4360
g4348
(dp4361
g4351
g4358
ssg4351
(dp4362
ssbsg586
(lp4363
g4351
ag4348
asg863
(lp4364
(iconstruction
TP_REL
p4365
(dp4366
g869
g4348
sg1400
g744
sg88
I520
sg870
g4351
sg75
VIS_520
p4367
sbasg88
I515
sg75
g1307
sbsg1416
(iconstruction
TP_SYNFORM
p4368
(dp4369
g88
I516
sg1419
(lp4370
(iconstruction
TP_PHON
p4371
(dp4372
g1429
I9
sg1426
I0
sg88
I521
sg1430
Vballerina
p4373
sg75
g4339
sbasg75
g1307
sbsg1437
I1
sba(iconstruction
CXN
p4374
(dp4375
g1377
(iconstruction
TP_SYMLINKS
p4376
(dp4377
g1380
(dp4378
VN1_526
p4379
VS1_528
p4380
ssg88
I524
sg75
g1307
sbsg1386
VN
p4381
sg1388
I1
sg75
VCELLIST
p4382
sg1390
(iconstruction
TP_SEMFRAME
p4383
(dp4384
g103
g0
(g104
g2
Ntp4385
Rp4386
(dp4387
g108
(dp4388
(iconstruction
TP_NODE
p4389
(dp4390
g1399
I01
sg1400
g753
sg75
VENT_525
p4391
sg1401
I01
sg1402
I00
sg88
I525
sb(dp4392
g1401
I01
sg1400
g753
ss(iconstruction
TP_NODE
p4393
(dp4394
g1399
I00
sg1400
g834
sg75
g4379
sg1401
I00
sg1402
I00
sg88
I526
sb(dp4395
g1401
I00
sg1400
g834
sssg293
g294
sg295
g294
sg296
(dp4396
g4389
(dp4397
g4393
(dp4398
g1400
g744
sssg4393
(dp4399
ssg489
g4396
sg103
(dp4400
sg491
g294
sg492
g4396
sg493
(dp4401
g4389
(dp4402
sg4393
(dp4403
g4389
g4398
sssbsg586
(lp4404
g4389
ag4393
asg863
(lp4405
(iconstruction
TP_REL
p4406
(dp4407
g869
g4393
sg1400
g744
sg88
I527
sg870
g4389
sg75
VIS_527
p4408
sbasg88
I522
sg75
g1307
sbsg1416
(iconstruction
TP_SYNFORM
p4409
(dp4410
g88
I523
sg1419
(lp4411
(iconstruction
TP_PHON
p4412
(dp4413
g1429
I7
sg1426
I0
sg88
I528
sg1430
Vcellist
p4414
sg75
g4380
sbasg75
g1307
sbsg1437
I1
sba(iconstruction
CXN
p4415
(dp4416
g1377
(iconstruction
TP_SYMLINKS
p4417
(dp4418
g1380
(dp4419
VN1_533
p4420
VS1_535
p4421
ssg88
I531
sg75
g1307
sbsg1386
VN
p4422
sg1388
I1
sg75
VFENCER
p4423
sg1390
(iconstruction
TP_SEMFRAME
p4424
(dp4425
g103
g0
(g104
g2
Ntp4426
Rp4427
(dp4428
g108
(dp4429
(iconstruction
TP_NODE
p4430
(dp4431
g1399
I00
sg1400
g840
sg75
g4420
sg1401
I00
sg1402
I00
sg88
I533
sb(dp4432
g1401
I00
sg1400
g840
ss(iconstruction
TP_NODE
p4433
(dp4434
g1399
I01
sg1400
g753
sg75
VENT_532
p4435
sg1401
I01
sg1402
I00
sg88
I532
sb(dp4436
g1401
I01
sg1400
g753
sssg293
g294
sg295
g294
sg296
(dp4437
g4430
(dp4438
sg4433
(dp4439
g4430
(dp4440
g1400
g744
ssssg489
g4437
sg103
(dp4441
sg491
g294
sg492
g4437
sg493
(dp4442
g4430
(dp4443
g4433
g4440
ssg4433
(dp4444
ssbsg586
(lp4445
g4433
ag4430
asg863
(lp4446
(iconstruction
TP_REL
p4447
(dp4448
g869
g4430
sg1400
g744
sg88
I534
sg870
g4433
sg75
VIS_534
p4449
sbasg88
I529
sg75
g1307
sbsg1416
(iconstruction
TP_SYNFORM
p4450
(dp4451
g88
I530
sg1419
(lp4452
(iconstruction
TP_PHON
p4453
(dp4454
g1429
I6
sg1426
I0
sg88
I535
sg1430
Vfencer
p4455
sg75
g4421
sbasg75
g1307
sbsg1437
I1
sba(iconstruction
CXN
p4456
(dp4457
g1377
(iconstruction
TP_SYMLINKS
p4458
(dp4459
g1380
(dp4460
VN1_540
p4461
VS1_542
p4462
ssg88
I538
sg75
g1307
sbsg1386
VN
p4463
sg1388
I1
sg75
VROBBER
p4464
sg1390
(iconstruction
TP_SEMFRAME
p4465
(dp4466
g103
g0
(g104
g2
Ntp4467
Rp4468
(dp4469
g108
(dp4470
(iconstruction
TP_NODE
p4471
(dp4472
g1399
I01
sg1400
g753
sg75
VENT_539
p4473
sg1401
I01
sg1402
I00
sg88
I539
sb(dp4474
g1401
I01
sg1400
g753
ss(iconstruction
TP_NODE
p4475
(dp4476
g1399
I00
sg1400
g843
sg75
g4461
sg1401
I00
sg1402
I00
sg88
I540
sb(dp4477
g1401
I00
sg1400
g843
sssg293
g294
sg295
g294
sg296
(dp4478
g4471
(dp4479
g4475
(dp4480
g1400
g744
sssg4475
(dp4481
ssg489
g4478
sg103
(dp4482
sg491
g294
sg492
g4478
sg493
(dp4483
g4471
(dp4484
sg4475
(dp4485
g4471
g4480
sssbsg586
(lp4486
g4471
ag4475
asg863
(lp4487
(iconstruction
TP_REL
p4488
(dp4489
g869
g4475
sg1400
g744
sg88
I541
sg870
g4471
sg75
VIS_541
p4490
sbasg88
I536
sg75
g1307
sbsg1416
(iconstruction
TP_SYNFORM
p4491
(dp4492
g88
I537
sg1419
(lp4493
(iconstruction
TP_PHON
p4494
(dp4495
g1429
I5
sg1426
I0
sg88
I542
sg1430
Vthief
p4496
sg75
g4462
sbasg75
g1307
sbsg1437
I1
sba(iconstruction
CXN
p4497
(dp4498
g1377
(iconstruction
TP_SYMLINKS
p4499
(dp4500
g1380
(dp4501
VN1_547
p4502
VS1_549
p4503
ssg88
I545
sg75
g1307
sbsg1386
VN
p4504
sg1388
I1
sg75
VPOLICEMAN
p4505
sg1390
(iconstruction
TP_SEMFRAME
p4506
(dp4507
g103
g0
(g104
g2
Ntp4508
Rp4509
(dp4510
g108
(dp4511
(iconstruction
TP_NODE
p4512
(dp4513
g1399
I00
sg1400
g825
sg75
g4502
sg1401
I00
sg1402
I00
sg88
I547
sb(dp4514
g1401
I00
sg1400
g825
ss(iconstruction
TP_NODE
p4515
(dp4516
g1399
I01
sg1400
g753
sg75
VENT_546
p4517
sg1401
I01
sg1402
I00
sg88
I546
sb(dp4518
g1401
I01
sg1400
g753
sssg293
g294
sg295
g294
sg296
(dp4519
g4512
(dp4520
sg4515
(dp4521
g4512
(dp4522
g1400
g744
ssssg489
g4519
sg103
(dp4523
sg491
g294
sg492
g4519
sg493
(dp4524
g4512
(dp4525
g4515
g4522
ssg4515
(dp4526
ssbsg586
(lp4527
g4515
ag4512
asg863
(lp4528
(iconstruction
TP_REL
p4529
(dp4530
g869
g4512
sg1400
g744
sg88
I548
sg870
g4515
sg75
VIS_548
p4531
sbasg88
I543
sg75
g1307
sbsg1416
(iconstruction
TP_SYNFORM
p4532
(dp4533
g88
I544
sg1419
(lp4534
(iconstruction
TP_PHON
p4535
(dp4536
g1429
I9
sg1426
I0
sg88
I549
sg1430
Vpoliceman
p4537
sg75
g4503
sbasg75
g1307
sbsg1437
I1
sba(iconstruction
CXN
p4538
(dp4539
g1377
(iconstruction
TP_SYMLINKS
p4540
(dp4541
g1380
(dp4542
VN1_554
p4543
VS1_556
p4544
ssg88
I552
sg75
g1307
sbsg1386
VN
p4545
sg1388
I1
sg75
VHUNTER
p4546
sg1390
(iconstruction
TP_SEMFRAME
p4547
(dp4548
g103
g0
(g104
g2
Ntp4549
Rp4550
(dp4551
g108
(dp4552
(iconstruction
TP_NODE
p4553
(dp4554
g1399
I00
sg1400
g828
sg75
g4543
sg1401
I00
sg1402
I00
sg88
I554
sb(dp4555
g1401
I00
sg1400
g828
ss(iconstruction
TP_NODE
p4556
(dp4557
g1399
I01
sg1400
g753
sg75
VENT_553
p4558
sg1401
I01
sg1402
I00
sg88
I553
sb(dp4559
g1401
I01
sg1400
g753
sssg293
g294
sg295
g294
sg296
(dp4560
g4553
(dp4561
sg4556
(dp4562
g4553
(dp4563
g1400
g744
ssssg489
g4560
sg103
(dp4564
sg491
g294
sg492
g4560
sg493
(dp4565
g4553
(dp4566
g4556
g4563
ssg4556
(dp4567
ssbsg586
(lp4568
g4556
ag4553
asg863
(lp4569
(iconstruction
TP_REL
p4570
(dp4571
g869
g4553
sg1400
g744
sg88
I555
sg870
g4556
sg75
VIS_555
p4572
sbasg88
I550
sg75
g1307
sbsg1416
(iconstruction
TP_SYNFORM
p4573
(dp4574
g88
I551
sg1419
(lp4575
(iconstruction
TP_PHON
p4576
(dp4577
g1429
I6
sg1426
I0
sg88
I556
sg1430
Vhunter
p4578
sg75
g4544
sbasg75
g1307
sbsg1437
I1
sba(iconstruction
CXN
p4579
(dp4580
g1377
(iconstruction
TP_SYMLINKS
p4581
(dp4582
g1380
(dp4583
VN1_561
p4584
VS1_563
p4585
ssg88
I559
sg75
g1307
sbsg1386
VN
p4586
sg1388
I1
sg75
VDOG
p4587
sg1390
(iconstruction
TP_SEMFRAME
p4588
(dp4589
g103
g0
(g104
g2
Ntp4590
Rp4591
(dp4592
g108
(dp4593
(iconstruction
TP_NODE
p4594
(dp4595
g1399
I01
sg1400
g753
sg75
VENT_560
p4596
sg1401
I01
sg1402
I00
sg88
I560
sb(dp4597
g1401
I01
sg1400
g753
ss(iconstruction
TP_NODE
p4598
(dp4599
g1399
I00
sg1400
g813
sg75
g4584
sg1401
I00
sg1402
I00
sg88
I561
sb(dp4600
g1401
I00
sg1400
g813
sssg293
g294
sg295
g294
sg296
(dp4601
g4594
(dp4602
g4598
(dp4603
g1400
g744
sssg4598
(dp4604
ssg489
g4601
sg103
(dp4605
sg491
g294
sg492
g4601
sg493
(dp4606
g4594
(dp4607
sg4598
(dp4608
g4594
g4603
sssbsg586
(lp4609
g4594
ag4598
asg863
(lp4610
(iconstruction
TP_REL
p4611
(dp4612
g869
g4598
sg1400
g744
sg88
I562
sg870
g4594
sg75
VIS_562
p4613
sbasg88
I557
sg75
g1307
sbsg1416
(iconstruction
TP_SYNFORM
p4614
(dp4615
g88
I558
sg1419
(lp4616
(iconstruction
TP_PHON
p4617
(dp4618
g1429
I3
sg1426
I0
sg88
I563
sg1430
Vdog
p4619
sg75
g4585
sbasg75
g1307
sbsg1437
I1
sba(iconstruction
CXN
p4620
(dp4621
g1377
(iconstruction
TP_SYMLINKS
p4622
(dp4623
g1380
(dp4624
VN1_568
p4625
VS1_570
p4626
ssg88
I566
sg75
g1307
sbsg1386
VN
p4627
sg1388
I1
sg75
VHOOK
p4628
sg1390
(iconstruction
TP_SEMFRAME
p4629
(dp4630
g103
g0
(g104
g2
Ntp4631
Rp4632
(dp4633
g108
(dp4634
(iconstruction
TP_NODE
p4635
(dp4636
g1399
I00
sg1400
g783
sg75
g4625
sg1401
I00
sg1402
I00
sg88
I568
sb(dp4637
g1401
I00
sg1400
g783
ss(iconstruction
TP_NODE
p4638
(dp4639
g1399
I01
sg1400
g753
sg75
VENT_567
p4640
sg1401
I01
sg1402
I00
sg88
I567
sb(dp4641
g1401
I01
sg1400
g753
sssg293
g294
sg295
g294
sg296
(dp4642
g4635
(dp4643
sg4638
(dp4644
g4635
(dp4645
g1400
g744
ssssg489
g4642
sg103
(dp4646
sg491
g294
sg492
g4642
sg493
(dp4647
g4635
(dp4648
g4638
g4645
ssg4638
(dp4649
ssbsg586
(lp4650
g4638
ag4635
asg863
(lp4651
(iconstruction
TP_REL
p4652
(dp4653
g869
g4635
sg1400
g744
sg88
I569
sg870
g4638
sg75
VIS_569
p4654
sbasg88
I564
sg75
g1307
sbsg1416
(iconstruction
TP_SYNFORM
p4655
(dp4656
g88
I565
sg1419
(lp4657
(iconstruction
TP_PHON
p4658
(dp4659
g1429
I4
sg1426
I0
sg88
I570
sg1430
Vhook
p4660
sg75
g4626
sbasg75
g1307
sbsg1437
I1
sba(iconstruction
CXN
p4661
(dp4662
g1377
(iconstruction
TP_SYMLINKS
p4663
(dp4664
g1380
(dp4665
VN1_575
p4666
VS1_577
p4667
ssg88
I573
sg75
g1307
sbsg1386
VN
p4668
sg1388
I1
sg75
VBOOKSHELF
p4669
sg1390
(iconstruction
TP_SEMFRAME
p4670
(dp4671
g103
g0
(g104
g2
Ntp4672
Rp4673
(dp4674
g108
(dp4675
(iconstruction
TP_NODE
p4676
(dp4677
g1399
I01
sg1400
g753
sg75
VENT_574
p4678
sg1401
I01
sg1402
I00
sg88
I574
sb(dp4679
g1401
I01
sg1400
g753
ss(iconstruction
TP_NODE
p4680
(dp4681
g1399
I00
sg1400
g789
sg75
g4666
sg1401
I00
sg1402
I00
sg88
I575
sb(dp4682
g1401
I00
sg1400
g789
sssg293
g294
sg295
g294
sg296
(dp4683
g4676
(dp4684
g4680
(dp4685
g1400
g744
sssg4680
(dp4686
ssg489
g4683
sg103
(dp4687
sg491
g294
sg492
g4683
sg493
(dp4688
g4676
(dp4689
sg4680
(dp4690
g4676
g4685
sssbsg586
(lp4691
g4676
ag4680
asg863
(lp4692
(iconstruction
TP_REL
p4693
(dp4694
g869
g4680
sg1400
g744
sg88
I576
sg870
g4676
sg75
VIS_576
p4695
sbasg88
I571
sg75
g1307
sbsg1416
(iconstruction
TP_SYNFORM
p4696
(dp4697
g88
I572
sg1419
(lp4698
(iconstruction
TP_PHON
p4699
(dp4700
g1429
I9
sg1426
I0
sg88
I577
sg1430
Vbookshelf
p4701
sg75
g4667
sbasg75
g1307
sbsg1437
I1
sba(iconstruction
CXN
p4702
(dp4703
g1377
(iconstruction
TP_SYMLINKS
p4704
(dp4705
g1380
(dp4706
VN1_582
p4707
VS1_584
p4708
ssg88
I580
sg75
g1307
sbsg1386
VN
p4709
sg1388
I1
sg75
VWAGON
p4710
sg1390
(iconstruction
TP_SEMFRAME
p4711
(dp4712
g103
g0
(g104
g2
Ntp4713
Rp4714
(dp4715
g108
(dp4716
(iconstruction
TP_NODE
p4717
(dp4718
g1399
I00
sg1400
g771
sg75
g4707
sg1401
I00
sg1402
I00
sg88
I582
sb(dp4719
g1401
I00
sg1400
g771
ss(iconstruction
TP_NODE
p4720
(dp4721
g1399
I01
sg1400
g753
sg75
VENT_581
p4722
sg1401
I01
sg1402
I00
sg88
I581
sb(dp4723
g1401
I01
sg1400
g753
sssg293
g294
sg295
g294
sg296
(dp4724
g4717
(dp4725
sg4720
(dp4726
g4717
(dp4727
g1400
g744
ssssg489
g4724
sg103
(dp4728
sg491
g294
sg492
g4724
sg493
(dp4729
g4717
(dp4730
g4720
g4727
ssg4720
(dp4731
ssbsg586
(lp4732
g4720
ag4717
asg863
(lp4733
(iconstruction
TP_REL
p4734
(dp4735
g869
g4717
sg1400
g744
sg88
I583
sg870
g4720
sg75
VIS_583
p4736
sbasg88
I578
sg75
g1307
sbsg1416
(iconstruction
TP_SYNFORM
p4737
(dp4738
g88
I579
sg1419
(lp4739
(iconstruction
TP_PHON
p4740
(dp4741
g1429
I5
sg1426
I0
sg88
I584
sg1430
Vwagon
p4742
sg75
g4708
sbasg75
g1307
sbsg1437
I1
sba(iconstruction
CXN
p4743
(dp4744
g1377
(iconstruction
TP_SYMLINKS
p4745
(dp4746
g1380
(dp4747
VN1_589
p4748
VS1_591
p4749
ssg88
I587
sg75
g1307
sbsg1386
VN
p4750
sg1388
I1
sg75
VTREE
p4751
sg1390
(iconstruction
TP_SEMFRAME
p4752
(dp4753
g103
g0
(g104
g2
Ntp4754
Rp4755
(dp4756
g108
(dp4757
(iconstruction
TP_NODE
p4758
(dp4759
g1399
I00
sg1400
g780
sg75
g4748
sg1401
I00
sg1402
I00
sg88
I589
sb(dp4760
g1401
I00
sg1400
g780
ss(iconstruction
TP_NODE
p4761
(dp4762
g1399
I01
sg1400
g753
sg75
VENT_588
p4763
sg1401
I01
sg1402
I00
sg88
I588
sb(dp4764
g1401
I01
sg1400
g753
sssg293
g294
sg295
g294
sg296
(dp4765
g4758
(dp4766
sg4761
(dp4767
g4758
(dp4768
g1400
g744
ssssg489
g4765
sg103
(dp4769
sg491
g294
sg492
g4765
sg493
(dp4770
g4758
(dp4771
g4761
g4768
ssg4761
(dp4772
ssbsg586
(lp4773
g4761
ag4758
asg863
(lp4774
(iconstruction
TP_REL
p4775
(dp4776
g869
g4758
sg1400
g744
sg88
I590
sg870
g4761
sg75
VIS_590
p4777
sbasg88
I585
sg75
g1307
sbsg1416
(iconstruction
TP_SYNFORM
p4778
(dp4779
g88
I586
sg1419
(lp4780
(iconstruction
TP_PHON
p4781
(dp4782
g1429
I4
sg1426
I0
sg88
I591
sg1430
Vtree
p4783
sg75
g4749
sbasg75
g1307
sbsg1437
I1
sbasbsg75
g1320
sg77
(lp4784
g1363
ag0
(g79
g2
Ntp4785
Rp4786
(dp4787
g75
S'to_cxn_retrieval_C'
p4788
sg84
Nsg85
Nsg86
g87
sg88
I21
sg89
g1367
sbasg94
(dp4789
g1216
Nsg4788
Nssg96
(lp4790
sg1166
F1.0
sg1167
(lp4791
sg1169
(dp4792
g1171
F0.3
ssg1172
F0.0
sg1173
F0.0
sg1174
g1177
sg88
I4
sS'schemas'
p4793
(lp4794
g0
(clanguage_schemas
CXN_SCHEMA
p4795
g2
Ntp4796
Rp4797
(dp4798
g75
g1389
sS'content'
p4799
g1375
sg1174
Nsg88
I99
sS'LTM'
p4800
g1367
sg1171
F0.3
sbag0
(g4795
g2
Ntp4801
Rp4802
(dp4803
g75
g1448
sg4799
g1438
sg1174
Nsg88
I100
sg4800
g1367
sg1171
F0.3
sbag0
(g4795
g2
Ntp4804
Rp4805
(dp4806
g75
g1499
sg4799
g1489
sg1174
Nsg88
I101
sg4800
g1367
sg1171
F0.3
sbag0
(g4795
g2
Ntp4807
Rp4808
(dp4809
g75
g1552
sg4799
g1540
sg1174
Nsg88
I102
sg4800
g1367
sg1171
F0.3
sbag0
(g4795
g2
Ntp4810
Rp4811
(dp4812
g75
g1631
sg4799
g1619
sg1174
Nsg88
I103
sg4800
g1367
sg1171
F0.3
sbag0
(g4795
g2
Ntp4813
Rp4814
(dp4815
g75
g1706
sg4799
g1694
sg1174
Nsg88
I104
sg4800
g1367
sg1171
F0.3
sbag0
(g4795
g2
Ntp4816
Rp4817
(dp4818
g75
g1795
sg4799
g1781
sg1174
Nsg88
I105
sg4800
g1367
sg1171
F0.3
sbag0
(g4795
g2
Ntp4819
Rp4820
(dp4821
g75
g1886
sg4799
g1872
sg1174
Nsg88
I106
sg4800
g1367
sg1171
F0.3
sbag0
(g4795
g2
Ntp4822
Rp4823
(dp4824
g75
g1977
sg4799
g1967
sg1174
Nsg88
I107
sg4800
g1367
sg1171
F0.3
sbag0
(g4795
g2
Ntp4825
Rp4826
(dp4827
g75
g2039
sg4799
g2029
sg1174
Nsg88
I108
sg4800
g1367
sg1171
F0.3
sbag0
(g4795
g2
Ntp4828
Rp4829
(dp4830
g75
g2098
sg4799
g2088
sg1174
Nsg88
I109
sg4800
g1367
sg1171
F0.3
sbag0
(g4795
g2
Ntp4831
Rp4832
(dp4833
g75
g2150
sg4799
g2140
sg1174
Nsg88
I110
sg4800
g1367
sg1171
F0.3
sbag0
(g4795
g2
Ntp4834
Rp4835
(dp4836
g75
g2197
sg4799
g2187
sg1174
Nsg88
I111
sg4800
g1367
sg1171
F0.3
sbag0
(g4795
g2
Ntp4837
Rp4838
(dp4839
g75
g2246
sg4799
g2234
sg1174
Nsg88
I112
sg4800
g1367
sg1171
F0.3
sbag0
(g4795
g2
Ntp4840
Rp4841
(dp4842
g75
g2326
sg4799
g2316
sg1174
Nsg88
I113
sg4800
g1367
sg1171
F0.3
sbag0
(g4795
g2
Ntp4843
Rp4844
(dp4845
g75
g2394
sg4799
g2382
sg1174
Nsg88
I114
sg4800
g1367
sg1171
F0.3
sbag0
(g4795
g2
Ntp4846
Rp4847
(dp4848
g75
g2488
sg4799
g2476
sg1174
Nsg88
I115
sg4800
g1367
sg1171
F0.3
sbag0
(g4795
g2
Ntp4849
Rp4850
(dp4851
g75
g2570
sg4799
g2558
sg1174
Nsg88
I116
sg4800
g1367
sg1171
F0.3
sbag0
(g4795
g2
Ntp4852
Rp4853
(dp4854
g75
g2662
sg4799
g2652
sg1174
Nsg88
I117
sg4800
g1367
sg1171
F0.3
sbag0
(g4795
g2
Ntp4855
Rp4856
(dp4857
g75
g2727
sg4799
g2717
sg1174
Nsg88
I118
sg4800
g1367
sg1171
F0.3
sbag0
(g4795
g2
Ntp4858
Rp4859
(dp4860
g75
g2806
sg4799
g2798
sg1174
Nsg88
I119
sg4800
g1367
sg1171
F0.3
sbag0
(g4795
g2
Ntp4861
Rp4862
(dp4863
g75
g2847
sg4799
g2839
sg1174
Nsg88
I120
sg4800
g1367
sg1171
F0.3
sbag0
(g4795
g2
Ntp4864
Rp4865
(dp4866
g75
g2888
sg4799
g2880
sg1174
Nsg88
I121
sg4800
g1367
sg1171
F0.3
sbag0
(g4795
g2
Ntp4867
Rp4868
(dp4869
g75
g2929
sg4799
g2921
sg1174
Nsg88
I122
sg4800
g1367
sg1171
F0.3
sbag0
(g4795
g2
Ntp4870
Rp4871
(dp4872
g75
g2970
sg4799
g2962
sg1174
Nsg88
I123
sg4800
g1367
sg1171
F0.3
sbag0
(g4795
g2
Ntp4873
Rp4874
(dp4875
g75
g3011
sg4799
g3003
sg1174
Nsg88
I124
sg4800
g1367
sg1171
F0.3
sbag0
(g4795
g2
Ntp4876
Rp4877
(dp4878
g75
g3052
sg4799
g3044
sg1174
Nsg88
I125
sg4800
g1367
sg1171
F0.3
sbag0
(g4795
g2
Ntp4879
Rp4880
(dp4881
g75
g3097
sg4799
g3089
sg1174
Nsg88
I126
sg4800
g1367
sg1171
F0.3
sbag0
(g4795
g2
Ntp4882
Rp4883
(dp4884
g75
g3142
sg4799
g3134
sg1174
Nsg88
I127
sg4800
g1367
sg1171
F0.3
sbag0
(g4795
g2
Ntp4885
Rp4886
(dp4887
g75
g3183
sg4799
g3175
sg1174
Nsg88
I128
sg4800
g1367
sg1171
F0.3
sbag0
(g4795
g2
Ntp4888
Rp4889
(dp4890
g75
g3224
sg4799
g3216
sg1174
Nsg88
I129
sg4800
g1367
sg1171
F0.3
sbag0
(g4795
g2
Ntp4891
Rp4892
(dp4893
g75
g3265
sg4799
g3257
sg1174
Nsg88
I130
sg4800
g1367
sg1171
F0.3
sbag0
(g4795
g2
Ntp4894
Rp4895
(dp4896
g75
g3306
sg4799
g3298
sg1174
Nsg88
I131
sg4800
g1367
sg1171
F0.3
sbag0
(g4795
g2
Ntp4897
Rp4898
(dp4899
g75
g3347
sg4799
g3339
sg1174
Nsg88
I132
sg4800
g1367
sg1171
F0.3
sbag0
(g4795
g2
Ntp4900
Rp4901
(dp4902
g75
g3388
sg4799
g3380
sg1174
Nsg88
I133
sg4800
g1367
sg1171
F0.3
sbag0
(g4795
g2
Ntp4903
Rp4904
(dp4905
g75
g3419
sg4799
g3411
sg1174
Nsg88
I134
sg4800
g1367
sg1171
F0.3
sbag0
(g4795
g2
Ntp4906
Rp4907
(dp4908
g75
g3450
sg4799
g3442
sg1174
Nsg88
I135
sg4800
g1367
sg1171
F0.3
sbag0
(g4795
g2
Ntp4909
Rp4910
(dp4911
g75
g3481
sg4799
g3473
sg1174
Nsg88
I136
sg4800
g1367
sg1171
F0.3
sbag0
(g4795
g2
Ntp4912
Rp4913
(dp4914
g75
g3512
sg4799
g3504
sg1174
Nsg88
I137
sg4800
g1367
sg1171
F0.3
sbag0
(g4795
g2
Ntp4915
Rp4916
(dp4917
g75
g3543
sg4799
g3535
sg1174
Nsg88
I138
sg4800
g1367
sg1171
F0.3
sbag0
(g4795
g2
Ntp4918
Rp4919
(dp4920
g75
g3574
sg4799
g3566
sg1174
Nsg88
I139
sg4800
g1367
sg1171
F0.3
sbag0
(g4795
g2
Ntp4921
Rp4922
(dp4923
g75
g3605
sg4799
g3597
sg1174
Nsg88
I140
sg4800
g1367
sg1171
F0.3
sbag0
(g4795
g2
Ntp4924
Rp4925
(dp4926
g75
g3636
sg4799
g3628
sg1174
Nsg88
I141
sg4800
g1367
sg1171
F0.3
sbag0
(g4795
g2
Ntp4927
Rp4928
(dp4929
g75
g3677
sg4799
g3669
sg1174
Nsg88
I142
sg4800
g1367
sg1171
F0.3
sbag0
(g4795
g2
Ntp4930
Rp4931
(dp4932
g75
g3718
sg4799
g3710
sg1174
Nsg88
I143
sg4800
g1367
sg1171
F0.3
sbag0
(g4795
g2
Ntp4933
Rp4934
(dp4935
g75
g3759
sg4799
g3751
sg1174
Nsg88
I144
sg4800
g1367
sg1171
F0.3
sbag0
(g4795
g2
Ntp4936
Rp4937
(dp4938
g75
g3800
sg4799
g3792
sg1174
Nsg88
I145
sg4800
g1367
sg1171
F0.3
sbag0
(g4795
g2
Ntp4939
Rp4940
(dp4941
g75
g3841
sg4799
g3833
sg1174
Nsg88
I146
sg4800
g1367
sg1171
F0.3
sbag0
(g4795
g2
Ntp4942
Rp4943
(dp4944
g75
g3882
sg4799
g3874
sg1174
Nsg88
I147
sg4800
g1367
sg1171
F0.3
sbag0
(g4795
g2
Ntp4945
Rp4946
(dp4947
g75
g3923
sg4799
g3915
sg1174
Nsg88
I148
sg4800
g1367
sg1171
F0.3
sbag0
(g4795
g2
Ntp4948
Rp4949
(dp4950
g75
g3964
sg4799
g3956
sg1174
Nsg88
I149
sg4800
g1367
sg1171
F0.3
sbag0
(g4795
g2
Ntp4951
Rp4952
(dp4953
g75
g4005
sg4799
g3997
sg1174
Nsg88
I150
sg4800
g1367
sg1171
F0.3
sbag0
(g4795
g2
Ntp4954
Rp4955
(dp4956
g75
g4046
sg4799
g4038
sg1174
Nsg88
I151
sg4800
g1367
sg1171
F0.3
sbag0
(g4795
g2
Ntp4957
Rp4958
(dp4959
g75
g4091
sg4799
g4083
sg1174
Nsg88
I152
sg4800
g1367
sg1171
F0.3
sbag0
(g4795
g2
Ntp4960
Rp4961
(dp4962
g75
g4132
sg4799
g4124
sg1174
Nsg88
I153
sg4800
g1367
sg1171
F0.3
sbag0
(g4795
g2
Ntp4963
Rp4964
(dp4965
g75
g4173
sg4799
g4165
sg1174
Nsg88
I154
sg4800
g1367
sg1171
F0.3
sbag0
(g4795
g2
Ntp4966
Rp4967
(dp4968
g75
g4214
sg4799
g4206
sg1174
Nsg88
I155
sg4800
g1367
sg1171
F0.3
sbag0
(g4795
g2
Ntp4969
Rp4970
(dp4971
g75
g4255
sg4799
g4247
sg1174
Nsg88
I156
sg4800
g1367
sg1171
F0.3
sbag0
(g4795
g2
Ntp4972
Rp4973
(dp4974
g75
g4296
sg4799
g4288
sg1174
Nsg88
I157
sg4800
g1367
sg1171
F0.3
sbag0
(g4795
g2
Ntp4975
Rp4976
(dp4977
g75
g4341
sg4799
g4333
sg1174
Nsg88
I158
sg4800
g1367
sg1171
F0.3
sbag0
(g4795
g2
Ntp4978
Rp4979
(dp4980
g75
g4382
sg4799
g4374
sg1174
Nsg88
I159
sg4800
g1367
sg1171
F0.3
sbag0
(g4795
g2
Ntp4981
Rp4982
(dp4983
g75
g4423
sg4799
g4415
sg1174
Nsg88
I160
sg4800
g1367
sg1171
F0.3
sbag0
(g4795
g2
Ntp4984
Rp4985
(dp4986
g75
g4464
sg4799
g4456
sg1174
Nsg88
I161
sg4800
g1367
sg1171
F0.3
sbag0
(g4795
g2
Ntp4987
Rp4988
(dp4989
g75
g4505
sg4799
g4497
sg1174
Nsg88
I162
sg4800
g1367
sg1171
F0.3
sbag0
(g4795
g2
Ntp4990
Rp4991
(dp4992
g75
g4546
sg4799
g4538
sg1174
Nsg88
I163
sg4800
g1367
sg1171
F0.3
sbag0
(g4795
g2
Ntp4993
Rp4994
(dp4995
g75
g4587
sg4799
g4579
sg1174
Nsg88
I164
sg4800
g1367
sg1171
F0.3
sbag0
(g4795
g2
Ntp4996
Rp4997
(dp4998
g75
g4628
sg4799
g4620
sg1174
Nsg88
I165
sg4800
g1367
sg1171
F0.3
sbag0
(g4795
g2
Ntp4999
Rp5000
(dp5001
g75
g4669
sg4799
g4661
sg1174
Nsg88
I166
sg4800
g1367
sg1171
F0.3
sbag0
(g4795
g2
Ntp5002
Rp5003
(dp5004
g75
g4710
sg4799
g4702
sg1174
Nsg88
I167
sg4800
g1367
sg1171
F0.3
sbag0
(g4795
g2
Ntp5005
Rp5006
(dp5007
g75
g4751
sg4799
g4743
sg1174
Nsg88
I168
sg4800
g1367
sg1171
F0.3
sbasbsbsg1174
g1177
sg88
I2
sbag0
(g1329
g2
Ntp5008
Rp5009
(dp5010
g1333
I0
sg75
g1307
sg1334
I0
sg1335
g0
(g79
g2
Ntp5011
Rp5012
(dp5013
g75
S'from_cxn_retrieval_P'
p5014
sg84
Nsg85
Nsg86
g1193
sg88
I14
sg89
g0
(clanguage_schemas
GRAMMATICAL_WM_P
p5015
g2
Ntp5016
Rp5017
(dp5018
g73
(dp5019
g5014
NsS'from_phonological_WM_P'
p5020
Nsg1339
Nsg1201
Nssg1203
(lp5021
sg75
g1316
sg1206
(lp5022
sg77
(lp5023
g0
(g79
g2
Ntp5024
Rp5025
(dp5026
g75
g93
sg84
Nsg85
Nsg86
g87
sg88
I17
sg89
g5017
sbag0
(g79
g2
Ntp5027
Rp5028
(dp5029
g75
S'to_phonological_WM_P'
p5030
sg84
Nsg85
Nsg86
g87
sg88
I18
sg89
g5017
sbag0
(g79
g2
Ntp5031
Rp5032
(dp5033
g75
g1228
sg84
Nsg85
Nsg86
g87
sg88
I19
sg89
g5017
sbasg94
(dp5034
g1228
Nsg5030
Nsg93
NssS'time_to_next_prod'
p5035
I0
sg1166
F1.0
sg1230
(lp5036
sg1167
(lp5037
g0
(g79
g2
Ntp5038
Rp5039
(dp5040
g75
g1339
sg84
Nsg85
Nsg86
g1193
sg88
I13
sg89
g5017
sbag5012
ag0
(g79
g2
Ntp5041
Rp5042
(dp5043
g75
g1201
sg84
Nsg85
Nsg86
g1193
sg88
I15
sg89
g5017
sbag0
(g79
g2
Ntp5044
Rp5045
(dp5046
g75
g5020
sg84
Nsg85
Nsg86
g1193
sg88
I16
sg89
g5017
sbasS'refractory_period'
p5047
I10
sg1245
(dp5048
g1247
(dp5049
sg1249
(dp5050
g1251
(lp5051
sg1253
(dp5052
g1255
(lp5053
sg1257
(lp5054
sg1259
(lp5055
ssg1261
(lp5056
sg1172
(lp5057
sg1264
(lp5058
sssg1169
(dp5059
g1267
(dp5060
g1273
F1.0
sg1274
F1.0
sS'sub_threshold_r'
p5061
F0.8
sg1276
F0.0
sS'deact_weight'
p5062
F0.0
sg1275
F0.3
sg1277
F0.01
sg5047
I10
sg1269
F1.0
sg1270
Nsg1271
F-10.0
sg1272
F1.0
ssg1278
(dp5063
g1280
F100.0
sg1281
F10.0
sg1282
F0.001
sg1283
F0.0
sg1284
F0.1
sg1285
F1.0
sg1286
F1.0
ssS'style'
p5064
(dp5065
S'continuity'
p5066
I0
sS'form_length'
p5067
I0
sS'activation'
p5068
F1.0
sS'sem_length'
p5069
I0
sssg1172
F0.0
sg1173
F0.0
sg1174
g1177
sg88
I3
sbsbsg1358
g1348
sg1174
g1177
sg88
I3
sbag0
(g1329
g2
Ntp5070
Rp5071
(dp5072
g1333
I0
sg75
g1307
sg1334
I0
sg1335
g5039
sg1358
g1210
sg1174
g1177
sg88
I4
sbag0
(g1329
g2
Ntp5073
Rp5074
(dp5075
g1333
I0
sg75
g1307
sg1334
I0
sg1335
g1240
sg1358
g5025
sg1174
g1177
sg88
I5
sbag0
(g1329
g2
Ntp5076
Rp5077
(dp5078
g1333
I0
sg75
g1307
sg1334
I0
sg1335
g0
(g79
g2
Ntp5079
Rp5080
(dp5081
g75
g1199
sg84
Nsg85
Nsg86
g1193
sg88
I25
sg89
g0
(clanguage_schemas
PHON_WM_P
p5082
g2
Ntp5083
Rp5084
(dp5085
g73
(dp5086
g1199
Nssg1203
(lp5087
sg75
g1312
sg1206
(lp5088
sg77
(lp5089
g0
(g79
g2
Ntp5090
Rp5091
(dp5092
g75
S'to_utter'
p5093
sg84
Nsg85
Nsg86
g87
sg88
I26
sg89
g5084
sbag0
(g79
g2
Ntp5094
Rp5095
(dp5096
g75
g1212
sg84
Nsg85
Nsg86
g87
sg88
I27
sg89
g5084
sbag0
(g79
g2
Ntp5097
Rp5098
(dp5099
g75
g1220
sg84
Nsg85
Nsg86
g87
sg88
I28
sg89
g5084
sbag0
(g79
g2
Ntp5100
Rp5101
(dp5102
g75
g1228
sg84
Nsg85
Nsg86
g87
sg88
I29
sg89
g5084
sbasg94
(dp5103
g1228
Nsg1212
Nsg5093
Nsg1220
NssS'needs_filler'
p5104
I00
sg1166
F1.0
sg1230
(lp5105
sg1167
(lp5106
g5080
asS'filler'
p5107
S'....'
p5108
sg1245
(dp5109
g1247
(dp5110
sg1249
(dp5111
g1251
(lp5112
sg1253
(dp5113
g1255
(lp5114
sg1257
(lp5115
sg1259
(lp5116
ssg1261
(lp5117
sg1172
(lp5118
sg1264
(lp5119
sssg1169
(dp5120
g1267
(dp5121
g1269
F1.0
sg1270
Nsg1271
F0.0
sg1272
F1.0
sg1273
F1.0
sg1274
F0.0
sg1275
F0.0
sg1276
F0.0
sg1277
F0.01
ssg1278
(dp5122
g1280
F100.0
sg1281
F10.0
sg1282
F0.001
sg1283
F0.0
sg1284
F1.0
sg1285
F1.0
sg1286
F1.0
sssg1172
F0.0
sg1173
F0.0
sg1174
g1177
sS'phon_sequence'
p5123
(lp5124
sg88
I6
sbsbsg1358
g5028
sg1174
g1177
sg88
I6
sbag0
(g1329
g2
Ntp5125
Rp5126
(dp5127
g1333
I0
sg75
g1307
sg1334
I0
sg1335
g5045
sg1358
g5095
sg1174
g1177
sg88
I7
sbag0
(g1329
g2
Ntp5128
Rp5129
(dp5130
g1333
I0
sg75
g1307
sg1334
I0
sg1335
g0
(g79
g2
Ntp5131
Rp5132
(dp5133
g75
g1339
sg84
Nsg85
Nsg86
g1193
sg88
I32
sg89
g0
(clanguage_schemas
CONTROL
p5134
g2
Ntp5135
Rp5136
(dp5137
g73
(dp5138
g5020
Nsg1339
Nssg75
g1302
sg77
(lp5139
g0
(g79
g2
Ntp5140
Rp5141
(dp5142
g75
g93
sg84
Nsg85
Nsg86
g87
sg88
I34
sg89
g5136
sbag0
(g79
g2
Ntp5143
Rp5144
(dp5145
g75
g1212
sg84
Nsg85
Nsg86
g87
sg88
I35
sg89
g5136
sbag0
(g79
g2
Ntp5146
Rp5147
(dp5148
g75
S'to_grammatical_WM_C'
p5149
sg84
Nsg85
Nsg86
g87
sg88
I36
sg89
g5136
sbasg94
(dp5150
g1212
Nsg5149
Nsg93
Nssg1166
F1.0
sg1167
(lp5151
g5132
ag0
(g79
g2
Ntp5152
Rp5153
(dp5154
g75
g5020
sg84
Nsg85
Nsg86
g1193
sg88
I33
sg89
g5136
sbasS'state'
p5155
(dp5156
S'produce'
p5157
I00
sS'unexpressed_sem'
p5158
I00
sS'mode'
p5159
g5157
sS'last_prod_time'
p5160
I0
ssg1169
(dp5161
g5064
(dp5162
g5066
F0.3
sg5067
F0.0
sg5068
F0.7
sg5069
F0.0
ssS'task'
p5163
(dp5164
S'time_pressure'
p5165
F10.0
sS'start_produce'
p5166
F1.0
sssg1172
F0.0
sg1173
F0.0
sg1174
g1177
sg88
I8
sbsbsg1358
g1218
sg1174
g1177
sg88
I8
sbag0
(g1329
g2
Ntp5167
Rp5168
(dp5169
g1333
I0
sg75
g1307
sg1334
I0
sg1335
g0
(g79
g2
Ntp5170
Rp5171
(dp5172
g75
g5020
sg84
Nsg85
Nsg86
g1193
sg88
I30
sg89
g0
(clanguage_schemas
UTTER
p5173
g2
Ntp5174
Rp5175
(dp5176
g73
(dp5177
g5020
Nssg75
g1305
sg77
(lp5178
g0
(g79
g2
Ntp5179
Rp5180
(dp5181
g75
g1228
sg84
Nsg85
Nsg86
g87
sg88
I31
sg89
g5175
sbasg94
(dp5182
g1228
NssS'utterance_stack'
p5183
(lp5184
sg1166
F1.0
sg1167
(lp5185
g5171
asg1169
(dp5186
S'speech_rate'
p5187
F1.0
ssg1172
F0.0
sg1173
F0.0
sg1174
g1177
sg88
I7
sbsbsg1358
g5091
sg1174
g1177
sg88
I9
sbag0
(g1329
g2
Ntp5188
Rp5189
(dp5190
g1333
I0
sg75
g1307
sg1334
I0
sg1335
g5153
sg1358
g5098
sg1174
g1177
sg88
I10
sbag0
(g1329
g2
Ntp5191
Rp5192
(dp5193
g1333
I0
sg75
g1307
sg1334
I0
sg1335
g5042
sg1358
g5144
sg1174
g1177
sg88
I11
sbag0
(g1329
g2
Ntp5194
Rp5195
(dp5196
g1333
I0
sg75
g1307
sg1334
I0
sg1335
g1243
sg1358
g5141
sg1174
g1177
sg88
I12
sbasg1169
(dp5197
g1302
g5161
sg1312
g5120
sg76
g1170
sg1320
g4792
sg1324
g1357
sg1205
g1266
sg1305
g5186
sg1316
g5059
ssg1172
F0.0
sS'set_up_time'
p5198
I10
sS'input'
p5199
NsS'default_params'
p5200
Nsg1166
F1.0
sS'output_ports'
p5201
(lp5202
g5180
ag5101
ag5032
ag1226
asg4793
(dp5203
g1302
g5136
sg1312
g5084
sg76
g71
sg1324
g1342
sg1316
g5017
sg1205
g1196
sg1305
g5175
sg1320
g1367
ssbsg88
I2
sg4793
(lp5204
g0
(clanguage_schemas
CPT_EVENT_SCHEMA
p5205
g2
Ntp5206
Rp5207
(dp5208
g75
g112
sg4799
(dp5209
g1400
g590
ssg1174
Nsg88
I9
sg4800
g71
sg1171
F1.0
sbag0
(clanguage_schemas
CPT_ACTION_SCHEMA
p5210
g2
Ntp5211
Rp5212
(dp5213
g75
g116
sg4799
(dp5214
g1400
g597
ssg1174
Nsg88
I10
sg4800
g71
sg1171
F1.0
sbag0
(g5210
g2
Ntp5215
Rp5216
(dp5217
g75
g118
sg4799
(dp5218
g1400
g600
ssg1174
Nsg88
I11
sg4800
g71
sg1171
F1.0
sbag0
(g5210
g2
Ntp5219
Rp5220
(dp5221
g75
g120
sg4799
(dp5222
g1400
g603
ssg1174
Nsg88
I12
sg4800
g71
sg1171
F1.0
sbag0
(g5210
g2
Ntp5223
Rp5224
(dp5225
g75
g122
sg4799
(dp5226
g1400
g606
ssg1174
Nsg88
I13
sg4800
g71
sg1171
F1.0
sbag0
(g5210
g2
Ntp5227
Rp5228
(dp5229
g75
g124
sg4799
(dp5230
g1400
g609
ssg1174
Nsg88
I14
sg4800
g71
sg1171
F1.0
sbag0
(g5210
g2
Ntp5231
Rp5232
(dp5233
g75
g126
sg4799
(dp5234
g1400
g612
ssg1174
Nsg88
I15
sg4800
g71
sg1171
F1.0
sbag0
(g5210
g2
Ntp5235
Rp5236
(dp5237
g75
g128
sg4799
(dp5238
g1400
g615
ssg1174
Nsg88
I16
sg4800
g71
sg1171
F1.0
sbag0
(g5210
g2
Ntp5239
Rp5240
(dp5241
g75
g130
sg4799
(dp5242
g1400
g618
ssg1174
Nsg88
I17
sg4800
g71
sg1171
F1.0
sbag0
(g5210
g2
Ntp5243
Rp5244
(dp5245
g75
g132
sg4799
(dp5246
g1400
g621
ssg1174
Nsg88
I18
sg4800
g71
sg1171
F1.0
sbag0
(g5210
g2
Ntp5247
Rp5248
(dp5249
g75
g134
sg4799
(dp5250
g1400
g624
ssg1174
Nsg88
I19
sg4800
g71
sg1171
F1.0
sbag0
(g5210
g2
Ntp5251
Rp5252
(dp5253
g75
g136
sg4799
(dp5254
g1400
g627
ssg1174
Nsg88
I20
sg4800
g71
sg1171
F1.0
sbag0
(g5210
g2
Ntp5255
Rp5256
(dp5257
g75
g138
sg4799
(dp5258
g1400
g630
ssg1174
Nsg88
I21
sg4800
g71
sg1171
F1.0
sbag0
(g5210
g2
Ntp5259
Rp5260
(dp5261
g75
g140
sg4799
(dp5262
g1400
g633
ssg1174
Nsg88
I22
sg4800
g71
sg1171
F1.0
sbag0
(g5210
g2
Ntp5263
Rp5264
(dp5265
g75
g142
sg4799
(dp5266
g1400
g636
ssg1174
Nsg88
I23
sg4800
g71
sg1171
F1.0
sbag0
(g5210
g2
Ntp5267
Rp5268
(dp5269
g75
g144
sg4799
(dp5270
g1400
g639
ssg1174
Nsg88
I24
sg4800
g71
sg1171
F1.0
sbag0
(g5210
g2
Ntp5271
Rp5272
(dp5273
g75
g146
sg4799
(dp5274
g1400
g642
ssg1174
Nsg88
I25
sg4800
g71
sg1171
F1.0
sbag0
(g5210
g2
Ntp5275
Rp5276
(dp5277
g75
g148
sg4799
(dp5278
g1400
g645
ssg1174
Nsg88
I26
sg4800
g71
sg1171
F1.0
sbag0
(g5210
g2
Ntp5279
Rp5280
(dp5281
g75
g150
sg4799
(dp5282
g1400
g648
ssg1174
Nsg88
I27
sg4800
g71
sg1171
F1.0
sbag0
(g5210
g2
Ntp5283
Rp5284
(dp5285
g75
g152
sg4799
(dp5286
g1400
g651
ssg1174
Nsg88
I28
sg4800
g71
sg1171
F1.0
sbag0
(clanguage_schemas
CPT_PROPERTY_SCHEMA
p5287
g2
Ntp5288
Rp5289
(dp5290
g75
g154
sg4799
(dp5291
g1400
g654
ssg1174
Nsg88
I29
sg4800
g71
sg1171
F1.0
sbag0
(g5287
g2
Ntp5292
Rp5293
(dp5294
g75
g156
sg4799
(dp5295
g1400
g657
ssg1174
Nsg88
I30
sg4800
g71
sg1171
F1.0
sbag0
(g5287
g2
Ntp5296
Rp5297
(dp5298
g75
g158
sg4799
(dp5299
g1400
g660
ssg1174
Nsg88
I31
sg4800
g71
sg1171
F1.0
sbag0
(g5287
g2
Ntp5300
Rp5301
(dp5302
g75
g160
sg4799
(dp5303
g1400
g663
ssg1174
Nsg88
I32
sg4800
g71
sg1171
F1.0
sbag0
(g5287
g2
Ntp5304
Rp5305
(dp5306
g75
g162
sg4799
(dp5307
g1400
g666
ssg1174
Nsg88
I33
sg4800
g71
sg1171
F1.0
sbag0
(g5287
g2
Ntp5308
Rp5309
(dp5310
g75
g164
sg4799
(dp5311
g1400
g669
ssg1174
Nsg88
I34
sg4800
g71
sg1171
F1.0
sbag0
(g5287
g2
Ntp5312
Rp5313
(dp5314
g75
g166
sg4799
(dp5315
g1400
g672
ssg1174
Nsg88
I35
sg4800
g71
sg1171
F1.0
sbag0
(g5287
g2
Ntp5316
Rp5317
(dp5318
g75
g168
sg4799
(dp5319
g1400
g675
ssg1174
Nsg88
I36
sg4800
g71
sg1171
F1.0
sbag0
(g5287
g2
Ntp5320
Rp5321
(dp5322
g75
g170
sg4799
(dp5323
g1400
g678
ssg1174
Nsg88
I37
sg4800
g71
sg1171
F1.0
sbag0
(g5287
g2
Ntp5324
Rp5325
(dp5326
g75
g172
sg4799
(dp5327
g1400
g681
ssg1174
Nsg88
I38
sg4800
g71
sg1171
F1.0
sbag0
(g5287
g2
Ntp5328
Rp5329
(dp5330
g75
g174
sg4799
(dp5331
g1400
g684
ssg1174
Nsg88
I39
sg4800
g71
sg1171
F1.0
sbag0
(g5287
g2
Ntp5332
Rp5333
(dp5334
g75
g176
sg4799
(dp5335
g1400
g687
ssg1174
Nsg88
I40
sg4800
g71
sg1171
F1.0
sbag0
(g5287
g2
Ntp5336
Rp5337
(dp5338
g75
g178
sg4799
(dp5339
g1400
g690
ssg1174
Nsg88
I41
sg4800
g71
sg1171
F1.0
sbag0
(g5287
g2
Ntp5340
Rp5341
(dp5342
g75
g180
sg4799
(dp5343
g1400
g693
ssg1174
Nsg88
I42
sg4800
g71
sg1171
F1.0
sbag0
(clanguage_schemas
CPT_RELATION_SCHEMA
p5344
g2
Ntp5345
Rp5346
(dp5347
g75
g182
sg4799
(dp5348
g869
Nsg1400
g696
sg870
Nssg1174
Nsg88
I43
sg4800
g71
sg1171
F1.0
sbag0
(g5344
g2
Ntp5349
Rp5350
(dp5351
g75
g184
sg4799
(dp5352
g869
Nsg1400
g699
sg870
Nssg1174
Nsg88
I44
sg4800
g71
sg1171
F1.0
sbag0
(g5344
g2
Ntp5353
Rp5354
(dp5355
g75
g186
sg4799
(dp5356
g869
Nsg1400
g702
sg870
Nssg1174
Nsg88
I45
sg4800
g71
sg1171
F1.0
sbag0
(g5344
g2
Ntp5357
Rp5358
(dp5359
g75
g188
sg4799
(dp5360
g869
Nsg1400
g705
sg870
Nssg1174
Nsg88
I46
sg4800
g71
sg1171
F1.0
sbag0
(g5344
g2
Ntp5361
Rp5362
(dp5363
g75
g190
sg4799
(dp5364
g869
Nsg1400
g708
sg870
Nssg1174
Nsg88
I47
sg4800
g71
sg1171
F1.0
sbag0
(g5344
g2
Ntp5365
Rp5366
(dp5367
g75
g192
sg4799
(dp5368
g869
Nsg1400
g711
sg870
Nssg1174
Nsg88
I48
sg4800
g71
sg1171
F1.0
sbag0
(g5344
g2
Ntp5369
Rp5370
(dp5371
g75
g194
sg4799
(dp5372
g869
Nsg1400
g714
sg870
Nssg1174
Nsg88
I49
sg4800
g71
sg1171
F1.0
sbag0
(g5344
g2
Ntp5373
Rp5374
(dp5375
g75
g196
sg4799
(dp5376
g869
Nsg1400
g717
sg870
Nssg1174
Nsg88
I50
sg4800
g71
sg1171
F1.0
sbag0
(g5344
g2
Ntp5377
Rp5378
(dp5379
g75
g198
sg4799
(dp5380
g869
Nsg1400
g720
sg870
Nssg1174
Nsg88
I51
sg4800
g71
sg1171
F1.0
sbag0
(g5344
g2
Ntp5381
Rp5382
(dp5383
g75
g200
sg4799
(dp5384
g869
Nsg1400
g723
sg870
Nssg1174
Nsg88
I52
sg4800
g71
sg1171
F1.0
sbag0
(g5344
g2
Ntp5385
Rp5386
(dp5387
g75
g202
sg4799
(dp5388
g869
Nsg1400
g726
sg870
Nssg1174
Nsg88
I53
sg4800
g71
sg1171
F1.0
sbag0
(g5344
g2
Ntp5389
Rp5390
(dp5391
g75
g204
sg4799
(dp5392
g869
Nsg1400
g729
sg870
Nssg1174
Nsg88
I54
sg4800
g71
sg1171
F1.0
sbag0
(g5344
g2
Ntp5393
Rp5394
(dp5395
g75
g206
sg4799
(dp5396
g869
Nsg1400
g732
sg870
Nssg1174
Nsg88
I55
sg4800
g71
sg1171
F1.0
sbag0
(g5344
g2
Ntp5397
Rp5398
(dp5399
g75
g208
sg4799
(dp5400
g869
Nsg1400
g735
sg870
Nssg1174
Nsg88
I56
sg4800
g71
sg1171
F1.0
sbag0
(g5344
g2
Ntp5401
Rp5402
(dp5403
g75
g210
sg4799
(dp5404
g869
Nsg1400
g738
sg870
Nssg1174
Nsg88
I57
sg4800
g71
sg1171
F1.0
sbag0
(g5344
g2
Ntp5405
Rp5406
(dp5407
g75
g212
sg4799
(dp5408
g869
Nsg1400
g741
sg870
Nssg1174
Nsg88
I58
sg4800
g71
sg1171
F1.0
sbag0
(g5344
g2
Ntp5409
Rp5410
(dp5411
g75
g214
sg4799
(dp5412
g869
Nsg1400
g744
sg870
Nssg1174
Nsg88
I59
sg4800
g71
sg1171
F1.0
sbag0
(g5344
g2
Ntp5413
Rp5414
(dp5415
g75
g216
sg4799
(dp5416
g869
Nsg1400
g747
sg870
Nssg1174
Nsg88
I60
sg4800
g71
sg1171
F1.0
sbag0
(g5205
g2
Ntp5417
Rp5418
(dp5419
g75
g218
sg4799
(dp5420
g1400
g750
ssg1174
Nsg88
I61
sg4800
g71
sg1171
F1.0
sbag0
(clanguage_schemas
CPT_ENTITY_SCHEMA
p5421
g2
Ntp5422
Rp5423
(dp5424
g75
g220
sg4799
(dp5425
g1400
g753
ssg1174
Nsg88
I62
sg4800
g71
sg1171
F1.0
sbag0
(g5421
g2
Ntp5426
Rp5427
(dp5428
g75
g222
sg4799
(dp5429
g1400
g756
ssg1174
Nsg88
I63
sg4800
g71
sg1171
F1.0
sbag0
(g5421
g2
Ntp5430
Rp5431
(dp5432
g75
g224
sg4799
(dp5433
g1400
g759
ssg1174
Nsg88
I64
sg4800
g71
sg1171
F1.0
sbag0
(g5421
g2
Ntp5434
Rp5435
(dp5436
g75
g226
sg4799
(dp5437
g1400
g762
ssg1174
Nsg88
I65
sg4800
g71
sg1171
F1.0
sbag0
(g5421
g2
Ntp5438
Rp5439
(dp5440
g75
g228
sg4799
(dp5441
g1400
g765
ssg1174
Nsg88
I66
sg4800
g71
sg1171
F1.0
sbag0
(g5421
g2
Ntp5442
Rp5443
(dp5444
g75
g230
sg4799
(dp5445
g1400
g768
ssg1174
Nsg88
I67
sg4800
g71
sg1171
F1.0
sbag0
(g5421
g2
Ntp5446
Rp5447
(dp5448
g75
g232
sg4799
(dp5449
g1400
g771
ssg1174
Nsg88
I68
sg4800
g71
sg1171
F1.0
sbag0
(g5421
g2
Ntp5450
Rp5451
(dp5452
g75
g234
sg4799
(dp5453
g1400
g774
ssg1174
Nsg88
I69
sg4800
g71
sg1171
F1.0
sbag0
(g5421
g2
Ntp5454
Rp5455
(dp5456
g75
g236
sg4799
(dp5457
g1400
g777
ssg1174
Nsg88
I70
sg4800
g71
sg1171
F1.0
sbag0
(g5421
g2
Ntp5458
Rp5459
(dp5460
g75
g238
sg4799
(dp5461
g1400
g780
ssg1174
Nsg88
I71
sg4800
g71
sg1171
F1.0
sbag0
(g5421
g2
Ntp5462
Rp5463
(dp5464
g75
g240
sg4799
(dp5465
g1400
g783
ssg1174
Nsg88
I72
sg4800
g71
sg1171
F1.0
sbag0
(g5421
g2
Ntp5466
Rp5467
(dp5468
g75
g242
sg4799
(dp5469
g1400
g786
ssg1174
Nsg88
I73
sg4800
g71
sg1171
F1.0
sbag0
(g5421
g2
Ntp5470
Rp5471
(dp5472
g75
g244
sg4799
(dp5473
g1400
g789
ssg1174
Nsg88
I74
sg4800
g71
sg1171
F1.0
sbag0
(g5421
g2
Ntp5474
Rp5475
(dp5476
g75
g246
sg4799
(dp5477
g1400
g792
ssg1174
Nsg88
I75
sg4800
g71
sg1171
F1.0
sbag0
(g5421
g2
Ntp5478
Rp5479
(dp5480
g75
g248
sg4799
(dp5481
g1400
g795
ssg1174
Nsg88
I76
sg4800
g71
sg1171
F1.0
sbag0
(g5421
g2
Ntp5482
Rp5483
(dp5484
g75
g250
sg4799
(dp5485
g1400
g798
ssg1174
Nsg88
I77
sg4800
g71
sg1171
F1.0
sbag0
(g5421
g2
Ntp5486
Rp5487
(dp5488
g75
g252
sg4799
(dp5489
g1400
g801
ssg1174
Nsg88
I78
sg4800
g71
sg1171
F1.0
sbag0
(g5421
g2
Ntp5490
Rp5491
(dp5492
g75
g254
sg4799
(dp5493
g1400
g804
ssg1174
Nsg88
I79
sg4800
g71
sg1171
F1.0
sbag0
(g5421
g2
Ntp5494
Rp5495
(dp5496
g75
g256
sg4799
(dp5497
g1400
g807
ssg1174
Nsg88
I80
sg4800
g71
sg1171
F1.0
sbag0
(g5421
g2
Ntp5498
Rp5499
(dp5500
g75
g258
sg4799
(dp5501
g1400
g810
ssg1174
Nsg88
I81
sg4800
g71
sg1171
F1.0
sbag0
(g5421
g2
Ntp5502
Rp5503
(dp5504
g75
g260
sg4799
(dp5505
g1400
g813
ssg1174
Nsg88
I82
sg4800
g71
sg1171
F1.0
sbag0
(g5421
g2
Ntp5506
Rp5507
(dp5508
g75
g262
sg4799
(dp5509
g1400
g816
ssg1174
Nsg88
I83
sg4800
g71
sg1171
F1.0
sbag0
(g5421
g2
Ntp5510
Rp5511
(dp5512
g75
g264
sg4799
(dp5513
g1400
g819
ssg1174
Nsg88
I84
sg4800
g71
sg1171
F1.0
sbag0
(g5421
g2
Ntp5514
Rp5515
(dp5516
g75
g266
sg4799
(dp5517
g1400
g822
ssg1174
Nsg88
I85
sg4800
g71
sg1171
F1.0
sbag0
(g5421
g2
Ntp5518
Rp5519
(dp5520
g75
g268
sg4799
(dp5521
g1400
g825
ssg1174
Nsg88
I86
sg4800
g71
sg1171
F1.0
sbag0
(g5421
g2
Ntp5522
Rp5523
(dp5524
g75
g270
sg4799
(dp5525
g1400
g828
ssg1174
Nsg88
I87
sg4800
g71
sg1171
F1.0
sbag0
(g5421
g2
Ntp5526
Rp5527
(dp5528
g75
g272
sg4799
(dp5529
g1400
g831
ssg1174
Nsg88
I88
sg4800
g71
sg1171
F1.0
sbag0
(g5421
g2
Ntp5530
Rp5531
(dp5532
g75
g274
sg4799
(dp5533
g1400
g834
ssg1174
Nsg88
I89
sg4800
g71
sg1171
F1.0
sbag0
(g5421
g2
Ntp5534
Rp5535
(dp5536
g75
g276
sg4799
(dp5537
g1400
g837
ssg1174
Nsg88
I90
sg4800
g71
sg1171
F1.0
sbag0
(g5421
g2
Ntp5538
Rp5539
(dp5540
g75
g278
sg4799
(dp5541
g1400
g840
ssg1174
Nsg88
I91
sg4800
g71
sg1171
F1.0
sbag0
(g5421
g2
Ntp5542
Rp5543
(dp5544
g75
g280
sg4799
(dp5545
g1400
g843
ssg1174
Nsg88
I92
sg4800
g71
sg1171
F1.0
sbag0
(g5421
g2
Ntp5546
Rp5547
(dp5548
g75
g282
sg4799
(dp5549
g1400
g846
ssg1174
Nsg88
I93
sg4800
g71
sg1171
F1.0
sbag0
(g5421
g2
Ntp5550
Rp5551
(dp5552
g75
g284
sg4799
(dp5553
g1400
g849
ssg1174
Nsg88
I94
sg4800
g71
sg1171
F1.0
sbag0
(g5421
g2
Ntp5554
Rp5555
(dp5556
g75
g286
sg4799
(dp5557
g1400
g852
ssg1174
Nsg88
I95
sg4800
g71
sg1171
F1.0
sbag0
(g5421
g2
Ntp5558
Rp5559
(dp5560
g75
g288
sg4799
(dp5561
g1400
g855
ssg1174
Nsg88
I96
sg4800
g71
sg1171
F1.0
sbag0
(g5421
g2
Ntp5562
Rp5563
(dp5564
g75
g290
sg4799
(dp5565
g1400
g858
ssg1174
Nsg88
I97
sg4800
g71
sg1171
F1.0
sbag0
(g5421
g2
Ntp5566
Rp5567
(dp5568
g75
g292
sg4799
(dp5569
g1400
g861
ssg1174
Nsg88
I98
sg4800
g71
sg1171
F1.0
sbasbsbsb.