ccopy_reg
_reconstructor
p0
(cschema_theory
MODEL
p1
c__builtin__
object
p2
Ntp3
Rp4
(dp5
S'verbose'
p6
I00
sS'name'
p7
S'language_system_P'
p8
sS'sim_data'
p9
(dp10
S'system_states'
p11
(dp12
sS'model'
p13
(dp14
ssS'outputs'
p15
(dp16
sS'input_ports'
p17
(lp18
g0
(cschema_theory
PORT
p19
g2
Ntp20
Rp21
(dp22
g7
S'from_conceptualizer'
p23
sS'data'
p24
NsS'value'
p25
NsS'type'
p26
S'IN'
p27
sS'id'
p28
I1
sS'schema'
p29
g0
(clanguage_schemas
SEMANTIC_WM
p30
g2
Ntp31
Rp32
(dp33
S'inputs'
p34
(dp35
S'from_grammatical_WM_P'
p36
NsS'from_concept_LTM'
p37
NsS'from_control'
p38
NsS'from_grammatical_WM_C'
p39
Nsg23
NssS'schema_insts'
p40
(lp41
sg7
S'Semantic_WM'
p42
sS'comp_links'
p43
(lp44
sS'out_ports'
p45
(lp46
g0
(g19
g2
Ntp47
Rp48
(dp49
g7
S'to_grammatical_WM_P'
p50
sg24
Nsg25
Nsg26
S'OUT'
p51
sg28
I6
sg29
g32
sbag0
(g19
g2
Ntp52
Rp53
(dp54
g7
S'to_cxn_retrieval_P'
p55
sg24
Nsg25
Nsg26
g51
sg28
I7
sg29
g32
sbag0
(g19
g2
Ntp56
Rp57
(dp58
g7
S'to_control'
p59
sg24
Nsg25
Nsg26
g51
sg28
I8
sg29
g32
sbag0
(g19
g2
Ntp60
Rp61
(dp62
g7
S'to_visual_WM'
p63
sg24
Nsg25
Nsg26
g51
sg28
I9
sg29
g32
sbag0
(g19
g2
Ntp64
Rp65
(dp66
g7
S'to_output'
p67
sg24
Nsg25
Nsg26
g51
sg28
I10
sg29
g32
sbasg15
(dp68
g67
Nsg50
Nsg63
Nsg55
Nsg59
NssS'dt'
p69
F1.0
sS'coop_links'
p70
(lp71
sS'in_ports'
p72
(lp73
g21
ag0
(g19
g2
Ntp74
Rp75
(dp76
g7
g37
sg24
Nsg25
Nsg26
g27
sg28
I2
sg29
g32
sbag0
(g19
g2
Ntp77
Rp78
(dp79
g7
g39
sg24
Nsg25
Nsg26
g27
sg28
I3
sg29
g32
sbag0
(g19
g2
Ntp80
Rp81
(dp82
g7
g36
sg24
Nsg25
Nsg26
g27
sg28
I4
sg29
g32
sbag0
(g19
g2
Ntp83
Rp84
(dp85
g7
g38
sg24
Nsg25
Nsg26
g27
sg28
I5
sg29
g32
sbasS'save_state'
p86
(dp87
S'insts'
p88
(dp89
sS'WM_activity'
p90
(dp91
S'comp'
p92
(lp93
sS'c2_network'
p94
(dp95
S'num_insts'
p96
(lp97
sS'num_coop_links'
p98
(lp99
sS'num_comp_links'
p100
(lp101
ssS'coop'
p102
(lp103
sS't'
p104
(lp105
sS'act'
p106
(lp107
sssS'params'
p108
(dp109
S'C2'
p110
(dp111
S'P_comp'
p112
F1.0
sS'comp_weight'
p113
F0.0
sS'P_coop'
p114
F1.0
sS'coop_asymmetry'
p115
F1.0
sS'coop_weight'
p116
F0.0
sS'confidence_threshold'
p117
F0.0
sS'comp_asymmetry'
p118
F0.0
sS'prune_threshold'
p119
F0.01
ssS'dyn'
p120
(dp121
S'tau'
p122
F10000.0
sS'k'
p123
F10.0
sS'act_rest'
p124
F0.001
sS'noise_mean'
p125
F0.0
sS'noise_std'
p126
F1.0
sS'ext_weight'
p127
F1.0
sS'int_weight'
p128
F1.0
sssg104
F0.0
sS'activity'
p129
F0.0
sg13
g4
sS'SemRep'
p130
g0
(cnetworkx.classes.digraph
DiGraph
p131
g2
Ntp132
Rp133
(dp134
S'node'
p135
(dp136
sS'node_dict_factory'
p137
c__builtin__
dict
p138
sS'edge_attr_dict_factory'
p139
g138
sS'succ'
p140
(dp141
sS'edge'
p142
g141
sS'graph'
p143
(dp144
sS'adjlist_dict_factory'
p145
g138
sS'adj'
p146
g141
sS'pred'
p147
(dp148
sbsg28
I1
sbsbasS'brain_mapping'
p149
g0
(cschema_theory
BRAIN_MAPPING
p150
g2
Ntp151
Rp152
(dp153
S'schema_mapping'
p154
(dp155
S'Control'
p156
(lp157
S'DLPFC'
p158
asS'Utter'
p159
(lp160
S''
p161
asg42
(lp162
S'left_SFG'
p163
aS'LIP'
p164
aS'Hippocampus'
p165
asS'Phonological_WM_P'
p166
(lp167
S'left_BA6'
p168
asS'Concept_LTM'
p169
(lp170
g161
asS'Grammatical_WM_P'
p171
(lp172
S'left_BA45'
p173
aS'leftBA44'
p174
asS'Grammatical_LTM'
p175
(lp176
S'left_STG'
p177
aS'left_MTG'
p178
asS'Cxn_retrieval_P'
p179
(lp180
ssS'connect_mapping'
p181
(dp182
sbsS'connections'
p183
(lp184
g0
(cschema_theory
CONNECT
p185
g2
Ntp186
Rp187
(dp188
S'delay'
p189
I0
sg7
g161
sS'weight'
p190
I0
sS'port_to'
p191
g0
(g19
g2
Ntp192
Rp193
(dp194
g7
S'from_semantic_WM'
p195
sg24
Nsg25
Nsg26
g27
sg28
I23
sg29
g0
(clanguage_schemas
CXN_RETRIEVAL_P
p196
g2
Ntp197
Rp198
(dp199
g34
(dp200
g195
NsS'from_grammatical_LTM'
p201
Nssg7
g179
sg45
(lp202
g0
(g19
g2
Ntp203
Rp204
(dp205
g7
g50
sg24
Nsg25
Nsg26
g51
sg28
I24
sg29
g198
sbasg15
(dp206
g50
NssS'cxn_instances'
p207
(lp208
sg69
F1.0
sg72
(lp209
g0
(g19
g2
Ntp210
Rp211
(dp212
g7
g201
sg24
Nsg25
Nsg26
g27
sg28
I22
sg29
g198
sbag193
asg108
(dp213
sg104
F0.0
sg129
F0.0
sg13
g4
sg28
I5
sbsbsS'port_from'
p214
g53
sg13
g4
sg28
I1
sbag0
(g185
g2
Ntp215
Rp216
(dp217
g189
I0
sg7
g161
sg190
I0
sg191
g211
sg214
g0
(g19
g2
Ntp218
Rp219
(dp220
g7
g55
sg24
Nsg25
Nsg26
g51
sg28
I20
sg29
g0
(clanguage_schemas
GRAMMATICAL_LTM
p221
g2
Ntp222
Rp223
(dp224
g34
(dp225
sS'grammar'
p226
(iconstruction
GRAMMAR
p227
(dp228
S'constructions'
p229
(lp230
(iconstruction
CXN
p231
(dp232
S'SymLinks'
p233
(iconstruction
TP_SYMLINKS
p234
(dp235
S'SL'
p236
(dp237
VEVT1_4
p238
VS1_6
p239
sVEVT2_5
p240
VS3_8
p241
ssg28
I3
sg7
g161
sbsS'clss'
p242
VD
p243
sS'group'
p244
I3
sg7
VCNJ_AND
p245
sS'SemFrame'
p246
(iconstruction
TP_SEMFRAME
p247
(dp248
g143
g0
(g131
g2
Ntp249
Rp250
(dp251
g135
(dp252
(iconstruction
TP_NODE
p253
(dp254
S'head'
p255
I00
sS'concept'
p256
g0
(cconcept
CONCEPT
p257
g2
Ntp258
Rp259
(dp260
S'meaning'
p261
VEVENT
p262
sS'conceptual_knowledge'
p263
g0
(cconcept
CONCEPTUAL_KNOWLEDGE
p264
g2
Ntp265
Rp266
(dp267
g143
g0
(g131
g2
Ntp268
Rp269
(dp270
g135
(dp271
I1
(dp272
g261
S'?'
p273
ssI2
(dp274
g261
S'CONCEPT'
p275
ssI3
(dp276
g261
VACTION
p277
ssI4
(dp278
g261
VSYMMETRIC
p279
ssI5
(dp280
g261
VMEET
p281
ssI6
(dp282
g261
VSHAKE_HANDS
p283
ssI7
(dp284
g261
VINTRANSITIVE
p285
ssI8
(dp286
g261
VLAUGH
p287
ssI9
(dp288
g261
VTRANSITIVE
p289
ssI10
(dp290
g261
VHIT
p291
ssI11
(dp292
g261
VWATCH
p293
ssI12
(dp294
g261
VPUNCH
p295
ssI13
(dp296
g261
VSPLASH
p297
ssI14
(dp298
g261
VTALK
p299
ssI15
(dp300
g261
VKISS
p301
ssI16
(dp302
g261
VSQUIRT
p303
ssI17
(dp304
g261
VKICK
p305
ssI18
(dp306
g261
VWEAR
p307
ssI19
(dp308
g261
VDITRANSITIVE
p309
ssI20
(dp310
g261
VSEND
p311
ssI21
(dp312
g261
VGIVE
p313
ssI22
(dp314
g261
VPROPERTY
p315
ssI23
(dp316
g261
VCOLOR
p317
ssI24
(dp318
g261
VBLUE
p319
ssI25
(dp320
g261
VGREEN
p321
ssI26
(dp322
g261
VWHITE
p323
ssI27
(dp324
g261
VBLACK
p325
ssI28
(dp326
g261
VRED
p327
ssI29
(dp328
g261
VAPPEARANCE
p329
ssI30
(dp330
g261
VYOUNG
p331
ssI31
(dp332
g261
VPRETTY
p333
ssI32
(dp334
g261
VHANDSOME
p335
ssI33
(dp336
g261
VSIZE
p337
ssI34
(dp338
g261
VSMALL
p339
ssI35
(dp340
g261
VBIG
p341
ssI36
(dp342
g261
VRELATION
p343
ssI37
(dp344
g261
VACTION_FRAME
p345
ssI38
(dp346
g261
VMODIFY
p347
ssI39
(dp348
g261
VTHEME
p349
ssI40
(dp350
g261
VRECIPIENT
p351
ssI41
(dp352
g261
VATTR
p353
ssI42
(dp354
g261
VAGT_PT
p355
ssI43
(dp356
g261
VPATIENT
p357
ssI44
(dp358
g261
VAGT+PT
p359
ssI45
(dp360
g261
VAGENT
p361
ssI46
(dp362
g261
VEVENT_FRAME
p363
ssI47
(dp364
g261
VTEMPORAL
p365
ssI48
(dp366
g261
VCONCURRENT
p367
ssI49
(dp368
g261
VSUCCESSIVE
p369
ssI50
(dp370
g261
VSPATIAL
p371
ssI51
(dp372
g261
VIN
p373
ssI52
(dp374
g261
VIS
p375
ssI53
(dp376
g261
VOBJECT_FRAME
p377
ssI54
(dp378
g261
g262
ssI55
(dp379
g261
VENTITY
p380
ssI56
(dp381
g261
VANIMATE
p382
ssI57
(dp383
g261
VANIMAL
p384
ssI58
(dp385
g261
VHUMAN
p386
ssI59
(dp387
g261
VOBJECT
p388
ssI60
(dp389
g261
VITEM
p390
ssI61
(dp391
g261
VWAGON
p392
ssI62
(dp393
g261
VWATERING_CAN
p394
ssI63
(dp395
g261
VBAG
p396
ssI64
(dp397
g261
VTREE
p398
ssI65
(dp399
g261
VHOOK
p400
ssI66
(dp401
g261
VCELLO
p402
ssI67
(dp403
g261
VBOOKSHELF
p404
ssI68
(dp405
g261
VCLOTHING
p406
ssI69
(dp407
g261
VTSHIRT
p408
ssI70
(dp409
g261
VDRESS
p410
ssI71
(dp411
g261
VSHIRT
p412
ssI72
(dp413
g261
VSUIT
p414
ssI73
(dp415
g261
VTURTLE
p416
ssI74
(dp417
g261
VMOUSE
p418
ssI75
(dp419
g261
VDOG
p420
ssI76
(dp421
g261
VBOY
p422
ssI77
(dp423
g261
VWOMAN
p424
ssI78
(dp425
g261
VPEOPLE
p426
ssI79
(dp427
g261
VPOLICEMAN
p428
ssI80
(dp429
g261
VHUNTER
p430
ssI81
(dp431
g261
VBALLERINA
p432
ssI82
(dp433
g261
VCELLIST
p434
ssI83
(dp435
g261
VGIRL
p436
ssI84
(dp437
g261
VFENCER
p438
ssI85
(dp439
g261
VROBBER
p440
ssI86
(dp441
g261
VMAN
p442
ssI87
(dp443
g261
VPLACE
p444
ssI88
(dp445
g261
VBOXINGRING
p446
ssI89
(dp447
g261
VPARK
p448
ssI90
(dp449
g261
VMALE
p450
ssI91
(dp451
g261
VFEMALE
p452
sssg137
g138
sg139
g138
sg140
(dp453
I1
(dp454
sI2
(dp455
sI3
(dp456
I2
(dp457
g26
S'is_a'
p458
sssI4
(dp459
I3
(dp460
g26
g458
sssI5
(dp461
I4
(dp462
g26
g458
sssI6
(dp463
I4
(dp464
g26
g458
sssI7
(dp465
I3
(dp466
g26
g458
sssI8
(dp467
I7
(dp468
g26
g458
sssI9
(dp469
I3
(dp470
g26
g458
sssI10
(dp471
I9
(dp472
g26
g458
sssI11
(dp473
I9
(dp474
g26
g458
sssI12
(dp475
I9
(dp476
g26
g458
sssI13
(dp477
I9
(dp478
g26
g458
sssI14
(dp479
I9
(dp480
g26
g458
sssI15
(dp481
I9
(dp482
g26
g458
sssI16
(dp483
I9
(dp484
g26
g458
sssI17
(dp485
I9
(dp486
g26
g458
sssI18
(dp487
I9
(dp488
g26
g458
sssI19
(dp489
I3
(dp490
g26
g458
sssI20
(dp491
I19
(dp492
g26
g458
sssI21
(dp493
I19
(dp494
g26
g458
sssI22
(dp495
I2
(dp496
g26
g458
sssI23
(dp497
I22
(dp498
g26
g458
sssI24
(dp499
I23
(dp500
g26
g458
sssI25
(dp501
I23
(dp502
g26
g458
sssI26
(dp503
I23
(dp504
g26
g458
sssI27
(dp505
I23
(dp506
g26
g458
sssI28
(dp507
I23
(dp508
g26
g458
sssI29
(dp509
I22
(dp510
g26
g458
sssI30
(dp511
I29
(dp512
g26
g458
sssI31
(dp513
I29
(dp514
g26
g458
sssI32
(dp515
I29
(dp516
g26
g458
sssI33
(dp517
I22
(dp518
g26
g458
sssI34
(dp519
I33
(dp520
g26
g458
sssI35
(dp521
I33
(dp522
g26
g458
sssI36
(dp523
I2
(dp524
g26
g458
sssI37
(dp525
I36
(dp526
g26
g458
sssI38
(dp527
I37
(dp528
g26
g458
ssI53
(dp529
g26
g458
sssI39
(dp530
I37
(dp531
g26
g458
sssI40
(dp532
I37
(dp533
g26
g458
sssI41
(dp534
I37
(dp535
g26
g458
ssI53
(dp536
g26
g458
sssI42
(dp537
I37
(dp538
g26
g458
sssI43
(dp539
I42
(dp540
g26
g458
sssI44
(dp541
I43
(dp542
g26
g458
ssI45
(dp543
g26
g458
sssI45
(dp544
I42
(dp545
g26
g458
sssI46
(dp546
I36
(dp547
g26
g458
sssI47
(dp548
I46
(dp549
g26
g458
sssI48
(dp550
I47
(dp551
g26
g458
sssI49
(dp552
I47
(dp553
g26
g458
sssI50
(dp554
I46
(dp555
g26
g458
sssI51
(dp556
I50
(dp557
g26
g458
sssI52
(dp558
I36
(dp559
g26
g458
sssI53
(dp560
I36
(dp561
g26
g458
sssI54
(dp562
I2
(dp563
g26
g458
sssI55
(dp564
I2
(dp565
g26
g458
sssI56
(dp566
I55
(dp567
g26
g458
sssI57
(dp568
I56
(dp569
g26
g458
ssI59
(dp570
g26
g458
sssI58
(dp571
I56
(dp572
g26
g458
ssI59
(dp573
g26
g458
sssI59
(dp574
I55
(dp575
g26
g458
sssI60
(dp576
I59
(dp577
g26
g458
sssI61
(dp578
I60
(dp579
g26
g458
sssI62
(dp580
I60
(dp581
g26
g458
sssI63
(dp582
I60
(dp583
g26
g458
sssI64
(dp584
I60
(dp585
g26
g458
sssI65
(dp586
I60
(dp587
g26
g458
sssI66
(dp588
I60
(dp589
g26
g458
sssI67
(dp590
I60
(dp591
g26
g458
sssI68
(dp592
I60
(dp593
g26
g458
sssI69
(dp594
I68
(dp595
g26
g458
sssI70
(dp596
I68
(dp597
g26
g458
sssI71
(dp598
I68
(dp599
g26
g458
sssI72
(dp600
I68
(dp601
g26
g458
sssI73
(dp602
I57
(dp603
g26
g458
sssI74
(dp604
I57
(dp605
g26
g458
sssI75
(dp606
I57
(dp607
g26
g458
sssI76
(dp608
I58
(dp609
g26
g458
ssI90
(dp610
g26
g458
sssI77
(dp611
I58
(dp612
g26
g458
ssI91
(dp613
g26
g458
sssI78
(dp614
I58
(dp615
g26
g458
sssI79
(dp616
I58
(dp617
g26
g458
sssI80
(dp618
I58
(dp619
g26
g458
sssI81
(dp620
I58
(dp621
g26
g458
ssI91
(dp622
g26
g458
sssI82
(dp623
I58
(dp624
g26
g458
sssI83
(dp625
I58
(dp626
g26
g458
ssI91
(dp627
g26
g458
sssI84
(dp628
I58
(dp629
g26
g458
sssI85
(dp630
I58
(dp631
g26
g458
sssI86
(dp632
I58
(dp633
g26
g458
ssI90
(dp634
g26
g458
sssI87
(dp635
I55
(dp636
g26
g458
sssI88
(dp637
I87
(dp638
g26
g458
sssI89
(dp639
I87
(dp640
g26
g458
sssI90
(dp641
I55
(dp642
g26
g458
sssI91
(dp643
I55
(dp644
g26
g458
ssssg142
g453
sg143
(dp645
sg145
g138
sg146
g453
sg147
(dp646
I1
(dp647
sI2
(dp648
I3
g457
sI36
g524
sI54
g563
sI22
g496
sI55
g565
ssI3
(dp649
I9
g470
sI19
g490
sI4
g460
sI7
g466
ssI4
(dp650
I5
g462
sI6
g464
ssI5
(dp651
sI6
(dp652
sI7
(dp653
I8
g468
ssI8
(dp654
sI9
(dp655
I10
g472
sI11
g474
sI12
g476
sI13
g478
sI14
g480
sI15
g482
sI16
g484
sI17
g486
sI18
g488
ssI10
(dp656
sI11
(dp657
sI12
(dp658
sI13
(dp659
sI14
(dp660
sI15
(dp661
sI16
(dp662
sI17
(dp663
sI18
(dp664
sI19
(dp665
I20
g492
sI21
g494
ssI20
(dp666
sI21
(dp667
sI22
(dp668
I33
g518
sI29
g510
sI23
g498
ssI23
(dp669
I24
g500
sI25
g502
sI26
g504
sI27
g506
sI28
g508
ssI24
(dp670
sI25
(dp671
sI26
(dp672
sI27
(dp673
sI28
(dp674
sI29
(dp675
I32
g516
sI30
g512
sI31
g514
ssI30
(dp676
sI31
(dp677
sI32
(dp678
sI33
(dp679
I34
g520
sI35
g522
ssI34
(dp680
sI35
(dp681
sI36
(dp682
I52
g559
sI37
g526
sI46
g547
sI53
g561
ssI37
(dp683
I40
g533
sI41
g535
sI42
g538
sI38
g528
sI39
g531
ssI38
(dp684
sI39
(dp685
sI40
(dp686
sI41
(dp687
sI42
(dp688
I43
g540
sI45
g545
ssI43
(dp689
I44
g542
ssI44
(dp690
sI45
(dp691
I44
g543
ssI46
(dp692
I50
g555
sI47
g549
ssI47
(dp693
I48
g551
sI49
g553
ssI48
(dp694
sI49
(dp695
sI50
(dp696
I51
g557
ssI51
(dp697
sI52
(dp698
sI53
(dp699
I41
g536
sI38
g529
ssI54
(dp700
sI55
(dp701
I56
g567
sI91
g644
sI90
g642
sI59
g575
sI87
g636
ssI56
(dp702
I57
g569
sI58
g572
ssI57
(dp703
I73
g603
sI74
g605
sI75
g607
ssI58
(dp704
I76
g609
sI77
g612
sI78
g615
sI79
g617
sI80
g619
sI81
g621
sI82
g624
sI83
g626
sI84
g629
sI85
g631
sI86
g633
ssI59
(dp705
I57
g570
sI58
g573
sI60
g577
ssI60
(dp706
I64
g585
sI65
g587
sI66
g589
sI67
g591
sI68
g593
sI61
g579
sI62
g581
sI63
g583
ssI61
(dp707
sI62
(dp708
sI63
(dp709
sI64
(dp710
sI65
(dp711
sI66
(dp712
sI67
(dp713
sI68
(dp714
I72
g601
sI69
g595
sI70
g597
sI71
g599
ssI69
(dp715
sI70
(dp716
sI71
(dp717
sI72
(dp718
sI73
(dp719
sI74
(dp720
sI75
(dp721
sI76
(dp722
sI77
(dp723
sI78
(dp724
sI79
(dp725
sI80
(dp726
sI81
(dp727
sI82
(dp728
sI83
(dp729
sI84
(dp730
sI85
(dp731
sI86
(dp732
sI87
(dp733
I88
g638
sI89
g640
ssI88
(dp734
sI89
(dp735
sI90
(dp736
I76
g610
sI86
g634
ssI91
(dp737
I81
g622
sI83
g627
sI77
g613
sssbsS'nodes'
p738
(lp739
g0
(g257
g2
Ntp740
Rp741
(dp742
g261
g273
sg263
g266
sg28
I1
sg7
g273
sbag0
(g257
g2
Ntp743
Rp744
(dp745
g261
g275
sg263
g266
sg28
I2
sg7
g275
sbag0
(g257
g2
Ntp746
Rp747
(dp748
g261
g277
sg263
g266
sg28
I3
sg7
g277
sbag0
(g257
g2
Ntp749
Rp750
(dp751
g261
g279
sg263
g266
sg28
I4
sg7
g279
sbag0
(g257
g2
Ntp752
Rp753
(dp754
g261
g281
sg263
g266
sg28
I5
sg7
g281
sbag0
(g257
g2
Ntp755
Rp756
(dp757
g261
g283
sg263
g266
sg28
I6
sg7
g283
sbag0
(g257
g2
Ntp758
Rp759
(dp760
g261
g285
sg263
g266
sg28
I7
sg7
g285
sbag0
(g257
g2
Ntp761
Rp762
(dp763
g261
g287
sg263
g266
sg28
I8
sg7
g287
sbag0
(g257
g2
Ntp764
Rp765
(dp766
g261
g289
sg263
g266
sg28
I9
sg7
g289
sbag0
(g257
g2
Ntp767
Rp768
(dp769
g261
g291
sg263
g266
sg28
I10
sg7
g291
sbag0
(g257
g2
Ntp770
Rp771
(dp772
g261
g293
sg263
g266
sg28
I11
sg7
g293
sbag0
(g257
g2
Ntp773
Rp774
(dp775
g261
g295
sg263
g266
sg28
I12
sg7
g295
sbag0
(g257
g2
Ntp776
Rp777
(dp778
g261
g297
sg263
g266
sg28
I13
sg7
g297
sbag0
(g257
g2
Ntp779
Rp780
(dp781
g261
g299
sg263
g266
sg28
I14
sg7
g299
sbag0
(g257
g2
Ntp782
Rp783
(dp784
g261
g301
sg263
g266
sg28
I15
sg7
g301
sbag0
(g257
g2
Ntp785
Rp786
(dp787
g261
g303
sg263
g266
sg28
I16
sg7
g303
sbag0
(g257
g2
Ntp788
Rp789
(dp790
g261
g305
sg263
g266
sg28
I17
sg7
g305
sbag0
(g257
g2
Ntp791
Rp792
(dp793
g261
g307
sg263
g266
sg28
I18
sg7
g307
sbag0
(g257
g2
Ntp794
Rp795
(dp796
g261
g309
sg263
g266
sg28
I19
sg7
g309
sbag0
(g257
g2
Ntp797
Rp798
(dp799
g261
g311
sg263
g266
sg28
I20
sg7
g311
sbag0
(g257
g2
Ntp800
Rp801
(dp802
g261
g313
sg263
g266
sg28
I21
sg7
g313
sbag0
(g257
g2
Ntp803
Rp804
(dp805
g261
g315
sg263
g266
sg28
I22
sg7
g315
sbag0
(g257
g2
Ntp806
Rp807
(dp808
g261
g317
sg263
g266
sg28
I23
sg7
g317
sbag0
(g257
g2
Ntp809
Rp810
(dp811
g261
g319
sg263
g266
sg28
I24
sg7
g319
sbag0
(g257
g2
Ntp812
Rp813
(dp814
g261
g321
sg263
g266
sg28
I25
sg7
g321
sbag0
(g257
g2
Ntp815
Rp816
(dp817
g261
g323
sg263
g266
sg28
I26
sg7
g323
sbag0
(g257
g2
Ntp818
Rp819
(dp820
g261
g325
sg263
g266
sg28
I27
sg7
g325
sbag0
(g257
g2
Ntp821
Rp822
(dp823
g261
g327
sg263
g266
sg28
I28
sg7
g327
sbag0
(g257
g2
Ntp824
Rp825
(dp826
g261
g329
sg263
g266
sg28
I29
sg7
g329
sbag0
(g257
g2
Ntp827
Rp828
(dp829
g261
g331
sg263
g266
sg28
I30
sg7
g331
sbag0
(g257
g2
Ntp830
Rp831
(dp832
g261
g333
sg263
g266
sg28
I31
sg7
g333
sbag0
(g257
g2
Ntp833
Rp834
(dp835
g261
g335
sg263
g266
sg28
I32
sg7
g335
sbag0
(g257
g2
Ntp836
Rp837
(dp838
g261
g337
sg263
g266
sg28
I33
sg7
g337
sbag0
(g257
g2
Ntp839
Rp840
(dp841
g261
g339
sg263
g266
sg28
I34
sg7
g339
sbag0
(g257
g2
Ntp842
Rp843
(dp844
g261
g341
sg263
g266
sg28
I35
sg7
g341
sbag0
(g257
g2
Ntp845
Rp846
(dp847
g261
g343
sg263
g266
sg28
I36
sg7
g343
sbag0
(g257
g2
Ntp848
Rp849
(dp850
g261
g345
sg263
g266
sg28
I37
sg7
g345
sbag0
(g257
g2
Ntp851
Rp852
(dp853
g261
g347
sg263
g266
sg28
I38
sg7
g347
sbag0
(g257
g2
Ntp854
Rp855
(dp856
g261
g349
sg263
g266
sg28
I39
sg7
g349
sbag0
(g257
g2
Ntp857
Rp858
(dp859
g261
g351
sg263
g266
sg28
I40
sg7
g351
sbag0
(g257
g2
Ntp860
Rp861
(dp862
g261
g353
sg263
g266
sg28
I41
sg7
g353
sbag0
(g257
g2
Ntp863
Rp864
(dp865
g261
g355
sg263
g266
sg28
I42
sg7
g355
sbag0
(g257
g2
Ntp866
Rp867
(dp868
g261
g357
sg263
g266
sg28
I43
sg7
g357
sbag0
(g257
g2
Ntp869
Rp870
(dp871
g261
g359
sg263
g266
sg28
I44
sg7
g359
sbag0
(g257
g2
Ntp872
Rp873
(dp874
g261
g361
sg263
g266
sg28
I45
sg7
g361
sbag0
(g257
g2
Ntp875
Rp876
(dp877
g261
g363
sg263
g266
sg28
I46
sg7
g363
sbag0
(g257
g2
Ntp878
Rp879
(dp880
g261
g365
sg263
g266
sg28
I47
sg7
g365
sbag0
(g257
g2
Ntp881
Rp882
(dp883
g261
g367
sg263
g266
sg28
I48
sg7
g367
sbag0
(g257
g2
Ntp884
Rp885
(dp886
g261
g369
sg263
g266
sg28
I49
sg7
g369
sbag0
(g257
g2
Ntp887
Rp888
(dp889
g261
g371
sg263
g266
sg28
I50
sg7
g371
sbag0
(g257
g2
Ntp890
Rp891
(dp892
g261
g373
sg263
g266
sg28
I51
sg7
g373
sbag0
(g257
g2
Ntp893
Rp894
(dp895
g261
g375
sg263
g266
sg28
I52
sg7
g375
sbag0
(g257
g2
Ntp896
Rp897
(dp898
g261
g377
sg263
g266
sg28
I53
sg7
g377
sbag259
ag0
(g257
g2
Ntp899
Rp900
(dp901
g261
g380
sg263
g266
sg28
I55
sg7
g380
sbag0
(g257
g2
Ntp902
Rp903
(dp904
g261
g382
sg263
g266
sg28
I56
sg7
g382
sbag0
(g257
g2
Ntp905
Rp906
(dp907
g261
g384
sg263
g266
sg28
I57
sg7
g384
sbag0
(g257
g2
Ntp908
Rp909
(dp910
g261
g386
sg263
g266
sg28
I58
sg7
g386
sbag0
(g257
g2
Ntp911
Rp912
(dp913
g261
g388
sg263
g266
sg28
I59
sg7
g388
sbag0
(g257
g2
Ntp914
Rp915
(dp916
g261
g390
sg263
g266
sg28
I60
sg7
g390
sbag0
(g257
g2
Ntp917
Rp918
(dp919
g261
g392
sg263
g266
sg28
I61
sg7
g392
sbag0
(g257
g2
Ntp920
Rp921
(dp922
g261
g394
sg263
g266
sg28
I62
sg7
g394
sbag0
(g257
g2
Ntp923
Rp924
(dp925
g261
g396
sg263
g266
sg28
I63
sg7
g396
sbag0
(g257
g2
Ntp926
Rp927
(dp928
g261
g398
sg263
g266
sg28
I64
sg7
g398
sbag0
(g257
g2
Ntp929
Rp930
(dp931
g261
g400
sg263
g266
sg28
I65
sg7
g400
sbag0
(g257
g2
Ntp932
Rp933
(dp934
g261
g402
sg263
g266
sg28
I66
sg7
g402
sbag0
(g257
g2
Ntp935
Rp936
(dp937
g261
g404
sg263
g266
sg28
I67
sg7
g404
sbag0
(g257
g2
Ntp938
Rp939
(dp940
g261
g406
sg263
g266
sg28
I68
sg7
g406
sbag0
(g257
g2
Ntp941
Rp942
(dp943
g261
g408
sg263
g266
sg28
I69
sg7
g408
sbag0
(g257
g2
Ntp944
Rp945
(dp946
g261
g410
sg263
g266
sg28
I70
sg7
g410
sbag0
(g257
g2
Ntp947
Rp948
(dp949
g261
g412
sg263
g266
sg28
I71
sg7
g412
sbag0
(g257
g2
Ntp950
Rp951
(dp952
g261
g414
sg263
g266
sg28
I72
sg7
g414
sbag0
(g257
g2
Ntp953
Rp954
(dp955
g261
g416
sg263
g266
sg28
I73
sg7
g416
sbag0
(g257
g2
Ntp956
Rp957
(dp958
g261
g418
sg263
g266
sg28
I74
sg7
g418
sbag0
(g257
g2
Ntp959
Rp960
(dp961
g261
g420
sg263
g266
sg28
I75
sg7
g420
sbag0
(g257
g2
Ntp962
Rp963
(dp964
g261
g422
sg263
g266
sg28
I76
sg7
g422
sbag0
(g257
g2
Ntp965
Rp966
(dp967
g261
g424
sg263
g266
sg28
I77
sg7
g424
sbag0
(g257
g2
Ntp968
Rp969
(dp970
g261
g426
sg263
g266
sg28
I78
sg7
g426
sbag0
(g257
g2
Ntp971
Rp972
(dp973
g261
g428
sg263
g266
sg28
I79
sg7
g428
sbag0
(g257
g2
Ntp974
Rp975
(dp976
g261
g430
sg263
g266
sg28
I80
sg7
g430
sbag0
(g257
g2
Ntp977
Rp978
(dp979
g261
g432
sg263
g266
sg28
I81
sg7
g432
sbag0
(g257
g2
Ntp980
Rp981
(dp982
g261
g434
sg263
g266
sg28
I82
sg7
g434
sbag0
(g257
g2
Ntp983
Rp984
(dp985
g261
g436
sg263
g266
sg28
I83
sg7
g436
sbag0
(g257
g2
Ntp986
Rp987
(dp988
g261
g438
sg263
g266
sg28
I84
sg7
g438
sbag0
(g257
g2
Ntp989
Rp990
(dp991
g261
g440
sg263
g266
sg28
I85
sg7
g440
sbag0
(g257
g2
Ntp992
Rp993
(dp994
g261
g442
sg263
g266
sg28
I86
sg7
g442
sbag0
(g257
g2
Ntp995
Rp996
(dp997
g261
g444
sg263
g266
sg28
I87
sg7
g444
sbag0
(g257
g2
Ntp998
Rp999
(dp1000
g261
g446
sg263
g266
sg28
I88
sg7
g446
sbag0
(g257
g2
Ntp1001
Rp1002
(dp1003
g261
g448
sg263
g266
sg28
I89
sg7
g448
sbag0
(g257
g2
Ntp1004
Rp1005
(dp1006
g261
g450
sg263
g266
sg28
I90
sg7
g450
sbag0
(g257
g2
Ntp1007
Rp1008
(dp1009
g261
g452
sg263
g266
sg28
I91
sg7
g452
sbasS'edges'
p1010
(lp1011
g0
(cconcept
SEM_REL
p1012
g2
Ntp1013
Rp1014
(dp1015
S'pTo'
p1016
g744
sg26
g458
sS'pFrom'
p1017
g747
sbag0
(g1012
g2
Ntp1018
Rp1019
(dp1020
g1016
g747
sg26
g458
sg1017
g750
sbag0
(g1012
g2
Ntp1021
Rp1022
(dp1023
g1016
g750
sg26
g458
sg1017
g753
sbag0
(g1012
g2
Ntp1024
Rp1025
(dp1026
g1016
g750
sg26
g458
sg1017
g756
sbag0
(g1012
g2
Ntp1027
Rp1028
(dp1029
g1016
g747
sg26
g458
sg1017
g759
sbag0
(g1012
g2
Ntp1030
Rp1031
(dp1032
g1016
g759
sg26
g458
sg1017
g762
sbag0
(g1012
g2
Ntp1033
Rp1034
(dp1035
g1016
g747
sg26
g458
sg1017
g765
sbag0
(g1012
g2
Ntp1036
Rp1037
(dp1038
g1016
g765
sg26
g458
sg1017
g768
sbag0
(g1012
g2
Ntp1039
Rp1040
(dp1041
g1016
g765
sg26
g458
sg1017
g771
sbag0
(g1012
g2
Ntp1042
Rp1043
(dp1044
g1016
g765
sg26
g458
sg1017
g774
sbag0
(g1012
g2
Ntp1045
Rp1046
(dp1047
g1016
g765
sg26
g458
sg1017
g777
sbag0
(g1012
g2
Ntp1048
Rp1049
(dp1050
g1016
g765
sg26
g458
sg1017
g780
sbag0
(g1012
g2
Ntp1051
Rp1052
(dp1053
g1016
g765
sg26
g458
sg1017
g783
sbag0
(g1012
g2
Ntp1054
Rp1055
(dp1056
g1016
g765
sg26
g458
sg1017
g786
sbag0
(g1012
g2
Ntp1057
Rp1058
(dp1059
g1016
g765
sg26
g458
sg1017
g789
sbag0
(g1012
g2
Ntp1060
Rp1061
(dp1062
g1016
g765
sg26
g458
sg1017
g792
sbag0
(g1012
g2
Ntp1063
Rp1064
(dp1065
g1016
g747
sg26
g458
sg1017
g795
sbag0
(g1012
g2
Ntp1066
Rp1067
(dp1068
g1016
g795
sg26
g458
sg1017
g798
sbag0
(g1012
g2
Ntp1069
Rp1070
(dp1071
g1016
g795
sg26
g458
sg1017
g801
sbag0
(g1012
g2
Ntp1072
Rp1073
(dp1074
g1016
g744
sg26
g458
sg1017
g804
sbag0
(g1012
g2
Ntp1075
Rp1076
(dp1077
g1016
g804
sg26
g458
sg1017
g807
sbag0
(g1012
g2
Ntp1078
Rp1079
(dp1080
g1016
g807
sg26
g458
sg1017
g810
sbag0
(g1012
g2
Ntp1081
Rp1082
(dp1083
g1016
g807
sg26
g458
sg1017
g813
sbag0
(g1012
g2
Ntp1084
Rp1085
(dp1086
g1016
g807
sg26
g458
sg1017
g816
sbag0
(g1012
g2
Ntp1087
Rp1088
(dp1089
g1016
g807
sg26
g458
sg1017
g819
sbag0
(g1012
g2
Ntp1090
Rp1091
(dp1092
g1016
g807
sg26
g458
sg1017
g822
sbag0
(g1012
g2
Ntp1093
Rp1094
(dp1095
g1016
g804
sg26
g458
sg1017
g825
sbag0
(g1012
g2
Ntp1096
Rp1097
(dp1098
g1016
g825
sg26
g458
sg1017
g828
sbag0
(g1012
g2
Ntp1099
Rp1100
(dp1101
g1016
g825
sg26
g458
sg1017
g831
sbag0
(g1012
g2
Ntp1102
Rp1103
(dp1104
g1016
g825
sg26
g458
sg1017
g834
sbag0
(g1012
g2
Ntp1105
Rp1106
(dp1107
g1016
g804
sg26
g458
sg1017
g837
sbag0
(g1012
g2
Ntp1108
Rp1109
(dp1110
g1016
g837
sg26
g458
sg1017
g840
sbag0
(g1012
g2
Ntp1111
Rp1112
(dp1113
g1016
g837
sg26
g458
sg1017
g843
sbag0
(g1012
g2
Ntp1114
Rp1115
(dp1116
g1016
g744
sg26
g458
sg1017
g846
sbag0
(g1012
g2
Ntp1117
Rp1118
(dp1119
g1016
g846
sg26
g458
sg1017
g849
sbag0
(g1012
g2
Ntp1120
Rp1121
(dp1122
g1016
g849
sg26
g458
sg1017
g852
sbag0
(g1012
g2
Ntp1123
Rp1124
(dp1125
g1016
g849
sg26
g458
sg1017
g855
sbag0
(g1012
g2
Ntp1126
Rp1127
(dp1128
g1016
g849
sg26
g458
sg1017
g858
sbag0
(g1012
g2
Ntp1129
Rp1130
(dp1131
g1016
g849
sg26
g458
sg1017
g861
sbag0
(g1012
g2
Ntp1132
Rp1133
(dp1134
g1016
g849
sg26
g458
sg1017
g864
sbag0
(g1012
g2
Ntp1135
Rp1136
(dp1137
g1016
g864
sg26
g458
sg1017
g867
sbag0
(g1012
g2
Ntp1138
Rp1139
(dp1140
g1016
g867
sg26
g458
sg1017
g870
sbag0
(g1012
g2
Ntp1141
Rp1142
(dp1143
g1016
g864
sg26
g458
sg1017
g873
sbag0
(g1012
g2
Ntp1144
Rp1145
(dp1146
g1016
g873
sg26
g458
sg1017
g870
sbag0
(g1012
g2
Ntp1147
Rp1148
(dp1149
g1016
g846
sg26
g458
sg1017
g876
sbag0
(g1012
g2
Ntp1150
Rp1151
(dp1152
g1016
g876
sg26
g458
sg1017
g879
sbag0
(g1012
g2
Ntp1153
Rp1154
(dp1155
g1016
g879
sg26
g458
sg1017
g882
sbag0
(g1012
g2
Ntp1156
Rp1157
(dp1158
g1016
g879
sg26
g458
sg1017
g885
sbag0
(g1012
g2
Ntp1159
Rp1160
(dp1161
g1016
g876
sg26
g458
sg1017
g888
sbag0
(g1012
g2
Ntp1162
Rp1163
(dp1164
g1016
g888
sg26
g458
sg1017
g891
sbag0
(g1012
g2
Ntp1165
Rp1166
(dp1167
g1016
g846
sg26
g458
sg1017
g894
sbag0
(g1012
g2
Ntp1168
Rp1169
(dp1170
g1016
g846
sg26
g458
sg1017
g897
sbag0
(g1012
g2
Ntp1171
Rp1172
(dp1173
g1016
g897
sg26
g458
sg1017
g852
sbag0
(g1012
g2
Ntp1174
Rp1175
(dp1176
g1016
g897
sg26
g458
sg1017
g861
sbag0
(g1012
g2
Ntp1177
Rp1178
(dp1179
g1016
g744
sg26
g458
sg1017
g259
sbag0
(g1012
g2
Ntp1180
Rp1181
(dp1182
g1016
g744
sg26
g458
sg1017
g900
sbag0
(g1012
g2
Ntp1183
Rp1184
(dp1185
g1016
g900
sg26
g458
sg1017
g903
sbag0
(g1012
g2
Ntp1186
Rp1187
(dp1188
g1016
g903
sg26
g458
sg1017
g906
sbag0
(g1012
g2
Ntp1189
Rp1190
(dp1191
g1016
g903
sg26
g458
sg1017
g909
sbag0
(g1012
g2
Ntp1192
Rp1193
(dp1194
g1016
g900
sg26
g458
sg1017
g912
sbag0
(g1012
g2
Ntp1195
Rp1196
(dp1197
g1016
g912
sg26
g458
sg1017
g915
sbag0
(g1012
g2
Ntp1198
Rp1199
(dp1200
g1016
g915
sg26
g458
sg1017
g918
sbag0
(g1012
g2
Ntp1201
Rp1202
(dp1203
g1016
g915
sg26
g458
sg1017
g921
sbag0
(g1012
g2
Ntp1204
Rp1205
(dp1206
g1016
g915
sg26
g458
sg1017
g924
sbag0
(g1012
g2
Ntp1207
Rp1208
(dp1209
g1016
g915
sg26
g458
sg1017
g927
sbag0
(g1012
g2
Ntp1210
Rp1211
(dp1212
g1016
g915
sg26
g458
sg1017
g930
sbag0
(g1012
g2
Ntp1213
Rp1214
(dp1215
g1016
g915
sg26
g458
sg1017
g933
sbag0
(g1012
g2
Ntp1216
Rp1217
(dp1218
g1016
g915
sg26
g458
sg1017
g936
sbag0
(g1012
g2
Ntp1219
Rp1220
(dp1221
g1016
g915
sg26
g458
sg1017
g939
sbag0
(g1012
g2
Ntp1222
Rp1223
(dp1224
g1016
g939
sg26
g458
sg1017
g942
sbag0
(g1012
g2
Ntp1225
Rp1226
(dp1227
g1016
g939
sg26
g458
sg1017
g945
sbag0
(g1012
g2
Ntp1228
Rp1229
(dp1230
g1016
g939
sg26
g458
sg1017
g948
sbag0
(g1012
g2
Ntp1231
Rp1232
(dp1233
g1016
g939
sg26
g458
sg1017
g951
sbag0
(g1012
g2
Ntp1234
Rp1235
(dp1236
g1016
g912
sg26
g458
sg1017
g906
sbag0
(g1012
g2
Ntp1237
Rp1238
(dp1239
g1016
g906
sg26
g458
sg1017
g954
sbag0
(g1012
g2
Ntp1240
Rp1241
(dp1242
g1016
g906
sg26
g458
sg1017
g957
sbag0
(g1012
g2
Ntp1243
Rp1244
(dp1245
g1016
g906
sg26
g458
sg1017
g960
sbag0
(g1012
g2
Ntp1246
Rp1247
(dp1248
g1016
g912
sg26
g458
sg1017
g909
sbag0
(g1012
g2
Ntp1249
Rp1250
(dp1251
g1016
g909
sg26
g458
sg1017
g963
sbag0
(g1012
g2
Ntp1252
Rp1253
(dp1254
g1016
g909
sg26
g458
sg1017
g966
sbag0
(g1012
g2
Ntp1255
Rp1256
(dp1257
g1016
g909
sg26
g458
sg1017
g969
sbag0
(g1012
g2
Ntp1258
Rp1259
(dp1260
g1016
g909
sg26
g458
sg1017
g972
sbag0
(g1012
g2
Ntp1261
Rp1262
(dp1263
g1016
g909
sg26
g458
sg1017
g975
sbag0
(g1012
g2
Ntp1264
Rp1265
(dp1266
g1016
g909
sg26
g458
sg1017
g978
sbag0
(g1012
g2
Ntp1267
Rp1268
(dp1269
g1016
g909
sg26
g458
sg1017
g981
sbag0
(g1012
g2
Ntp1270
Rp1271
(dp1272
g1016
g909
sg26
g458
sg1017
g984
sbag0
(g1012
g2
Ntp1273
Rp1274
(dp1275
g1016
g909
sg26
g458
sg1017
g987
sbag0
(g1012
g2
Ntp1276
Rp1277
(dp1278
g1016
g909
sg26
g458
sg1017
g990
sbag0
(g1012
g2
Ntp1279
Rp1280
(dp1281
g1016
g909
sg26
g458
sg1017
g993
sbag0
(g1012
g2
Ntp1282
Rp1283
(dp1284
g1016
g900
sg26
g458
sg1017
g996
sbag0
(g1012
g2
Ntp1285
Rp1286
(dp1287
g1016
g996
sg26
g458
sg1017
g999
sbag0
(g1012
g2
Ntp1288
Rp1289
(dp1290
g1016
g996
sg26
g458
sg1017
g1002
sbag0
(g1012
g2
Ntp1291
Rp1292
(dp1293
g1016
g900
sg26
g458
sg1017
g1005
sbag0
(g1012
g2
Ntp1294
Rp1295
(dp1296
g1016
g1005
sg26
g458
sg1017
g963
sbag0
(g1012
g2
Ntp1297
Rp1298
(dp1299
g1016
g1005
sg26
g458
sg1017
g993
sbag0
(g1012
g2
Ntp1300
Rp1301
(dp1302
g1016
g900
sg26
g458
sg1017
g1008
sbag0
(g1012
g2
Ntp1303
Rp1304
(dp1305
g1016
g1008
sg26
g458
sg1017
g978
sbag0
(g1012
g2
Ntp1306
Rp1307
(dp1308
g1016
g1008
sg26
g458
sg1017
g984
sbag0
(g1012
g2
Ntp1309
Rp1310
(dp1311
g1016
g1008
sg26
g458
sg1017
g966
sbasS'neutral'
p1312
g741
sbsg28
I54
sg7
g262
sbsg7
g240
sS'frame'
p1313
I00
sS'focus'
p1314
I00
sg28
I5
sb(dp1315
g1313
I00
sg256
g259
ss(iconstruction
TP_NODE
p1316
(dp1317
g255
I00
sg256
g259
sg7
g238
sg1313
I00
sg1314
I01
sg28
I4
sb(dp1318
g1313
I00
sg256
g259
sssg137
g138
sg139
g138
sg140
(dp1319
g253
(dp1320
sg1316
(dp1321
ssg142
g1319
sg143
(dp1322
sg145
g138
sg146
g1319
sg147
(dp1323
g253
(dp1324
sg1316
(dp1325
ssbsg738
(lp1326
g1316
ag253
asg1010
(lp1327
sg28
I1
sg7
g161
sbsS'SynForm'
p1328
(iconstruction
TP_SYNFORM
p1329
(dp1330
g28
I2
sS'form'
p1331
(lp1332
(iconstruction
TP_SLOT
p1333
(dp1334
S'cxn_classes'
p1335
(lp1336
VS
p1337
asS'order'
p1338
I0
sg28
I6
sg7
g239
sba(iconstruction
TP_PHON
p1339
(dp1340
S'num_syllables'
p1341
I3
sg1338
I1
sg28
I7
sS'cxn_phonetics'
p1342
Vand
p1343
sg7
VS2_7
p1344
sba(iconstruction
TP_SLOT
p1345
(dp1346
g1335
(lp1347
VS
p1348
asg1338
I2
sg28
I8
sg7
g241
sbasg7
g161
sbsS'preference'
p1349
I1
sba(iconstruction
CXN
p1350
(dp1351
g233
(iconstruction
TP_SYMLINKS
p1352
(dp1353
g236
(dp1354
VEVT2_13
p1355
VS3_17
p1356
sVEVT1_12
p1357
VS1_15
p1358
ssg28
I11
sg7
g161
sbsg242
VD
p1359
sg244
I3
sg7
VCNJ_THEN
p1360
sg246
(iconstruction
TP_SEMFRAME
p1361
(dp1362
g143
g0
(g131
g2
Ntp1363
Rp1364
(dp1365
g135
(dp1366
(iconstruction
TP_NODE
p1367
(dp1368
g255
I00
sg256
g259
sg7
g1355
sg1313
I00
sg1314
I00
sg28
I13
sb(dp1369
g1313
I00
sg256
g259
ss(iconstruction
TP_NODE
p1370
(dp1371
g255
I00
sg256
g259
sg7
g1357
sg1313
I00
sg1314
I00
sg28
I12
sb(dp1372
g1313
I00
sg256
g259
sssg137
g138
sg139
g138
sg140
(dp1373
g1367
(dp1374
sg1370
(dp1375
g1367
(dp1376
g256
g885
ssssg142
g1373
sg143
(dp1377
sg145
g138
sg146
g1373
sg147
(dp1378
g1367
(dp1379
g1370
g1376
ssg1370
(dp1380
ssbsg738
(lp1381
g1370
ag1367
asg1010
(lp1382
(iconstruction
TP_REL
p1383
(dp1384
g1016
g1367
sg256
g885
sg28
I14
sg1017
g1370
sg7
VEVT1_EVT2_14
p1385
sbasg28
I9
sg7
g161
sbsg1328
(iconstruction
TP_SYNFORM
p1386
(dp1387
g28
I10
sg1331
(lp1388
(iconstruction
TP_SLOT
p1389
(dp1390
g1335
(lp1391
VS
p1392
asg1338
I0
sg28
I15
sg7
g1358
sba(iconstruction
TP_PHON
p1393
(dp1394
g1341
I4
sg1338
I1
sg28
I16
sg1342
Vthen
p1395
sg7
VS2_16
p1396
sba(iconstruction
TP_SLOT
p1397
(dp1398
g1335
(lp1399
VS
p1400
asg1338
I2
sg28
I17
sg7
g1356
sbasg7
g161
sbsg1349
I1
sba(iconstruction
CXN
p1401
(dp1402
g233
(iconstruction
TP_SYMLINKS
p1403
(dp1404
g236
(dp1405
VEVT2_22
p1406
VS3_26
p1407
sVEVT1_21
p1408
VS1_24
p1409
ssg28
I20
sg7
g161
sbsg242
VD
p1410
sg244
I3
sg7
VCNJ_WHILE
p1411
sg246
(iconstruction
TP_SEMFRAME
p1412
(dp1413
g143
g0
(g131
g2
Ntp1414
Rp1415
(dp1416
g135
(dp1417
(iconstruction
TP_NODE
p1418
(dp1419
g255
I00
sg256
g259
sg7
g1406
sg1313
I00
sg1314
I00
sg28
I22
sb(dp1420
g1313
I00
sg256
g259
ss(iconstruction
TP_NODE
p1421
(dp1422
g255
I00
sg256
g259
sg7
g1408
sg1313
I00
sg1314
I01
sg28
I21
sb(dp1423
g1313
I00
sg256
g259
sssg137
g138
sg139
g138
sg140
(dp1424
g1418
(dp1425
sg1421
(dp1426
g1418
(dp1427
g256
g882
ssssg142
g1424
sg143
(dp1428
sg145
g138
sg146
g1424
sg147
(dp1429
g1418
(dp1430
g1421
g1427
ssg1421
(dp1431
ssbsg738
(lp1432
g1421
ag1418
asg1010
(lp1433
(iconstruction
TP_REL
p1434
(dp1435
g1016
g1418
sg256
g882
sg28
I23
sg1017
g1421
sg7
VEVT1_EVT2_23
p1436
sbasg28
I18
sg7
g161
sbsg1328
(iconstruction
TP_SYNFORM
p1437
(dp1438
g28
I19
sg1331
(lp1439
(iconstruction
TP_SLOT
p1440
(dp1441
g1335
(lp1442
VS
p1443
asg1338
I0
sg28
I24
sg7
g1409
sba(iconstruction
TP_PHON
p1444
(dp1445
g1341
I5
sg1338
I1
sg28
I25
sg1342
Vwhile
p1446
sg7
VS2_25
p1447
sba(iconstruction
TP_SLOT
p1448
(dp1449
g1335
(lp1450
VS
p1451
asg1338
I2
sg28
I26
sg7
g1407
sbasg7
g161
sbsg1349
I1
sba(iconstruction
CXN
p1452
(dp1453
g233
(iconstruction
TP_SYMLINKS
p1454
(dp1455
g236
(dp1456
VACT_31
p1457
VS4_40
p1458
sVACTOR_1_32
p1459
VS1_37
p1460
sVACTOR_2_33
p1461
VS3_39
p1462
ssg28
I29
sg7
g161
sbsg242
VS
p1463
sg244
Nsg7
VSYMMETRIC_TRANS
p1464
sg246
(iconstruction
TP_SEMFRAME
p1465
(dp1466
g143
g0
(g131
g2
Ntp1467
Rp1468
(dp1469
g135
(dp1470
(iconstruction
TP_NODE
p1471
(dp1472
g255
I01
sg256
g259
sg7
VEVT_30
p1473
sg1313
I01
sg1314
I00
sg28
I30
sb(dp1474
g1313
I01
sg256
g259
ss(iconstruction
TP_NODE
p1475
(dp1476
g255
I00
sg256
g900
sg7
g1459
sg1313
I01
sg1314
I01
sg28
I32
sb(dp1477
g1313
I01
sg256
g900
ss(iconstruction
TP_NODE
p1478
(dp1479
g255
I00
sg256
g747
sg7
g1457
sg1313
I01
sg1314
I00
sg28
I31
sb(dp1480
g1313
I01
sg256
g747
ss(iconstruction
TP_NODE
p1481
(dp1482
g255
I00
sg256
g900
sg7
g1461
sg1313
I01
sg1314
I00
sg28
I33
sb(dp1483
g1313
I01
sg256
g900
sssg137
g138
sg139
g138
sg140
(dp1484
g1471
(dp1485
g1478
(dp1486
g256
g894
sssg1475
(dp1487
sg1478
(dp1488
g1475
(dp1489
g256
g870
ssg1481
(dp1490
g256
g870
sssg1481
(dp1491
ssg142
g1484
sg143
(dp1492
sg145
g138
sg146
g1484
sg147
(dp1493
g1471
(dp1494
sg1475
(dp1495
g1478
g1489
ssg1478
(dp1496
g1471
g1486
ssg1481
(dp1497
g1478
g1490
sssbsg738
(lp1498
g1471
ag1478
ag1475
ag1481
asg1010
(lp1499
(iconstruction
TP_REL
p1500
(dp1501
g1016
g1478
sg256
g894
sg28
I34
sg1017
g1471
sg7
VIS_34
p1502
sba(iconstruction
TP_REL
p1503
(dp1504
g1016
g1475
sg256
g870
sg28
I35
sg1017
g1478
sg7
VAGT_PT_1_35
p1505
sba(iconstruction
TP_REL
p1506
(dp1507
g1016
g1481
sg256
g870
sg28
I36
sg1017
g1478
sg7
VAGT_PT_2_36
p1508
sbasg28
I27
sg7
g161
sbsg1328
(iconstruction
TP_SYNFORM
p1509
(dp1510
g28
I28
sg1331
(lp1511
(iconstruction
TP_SLOT
p1512
(dp1513
g1335
(lp1514
VNP
p1515
aVN
p1516
asg1338
I0
sg28
I37
sg7
g1460
sba(iconstruction
TP_PHON
p1517
(dp1518
g1341
I3
sg1338
I1
sg28
I38
sg1342
Vand
p1519
sg7
VS2_38
p1520
sba(iconstruction
TP_SLOT
p1521
(dp1522
g1335
(lp1523
VNP
p1524
aVN
p1525
asg1338
I2
sg28
I39
sg7
g1462
sba(iconstruction
TP_SLOT
p1526
(dp1527
g1335
(lp1528
VVP
p1529
aVV
p1530
asg1338
I3
sg28
I40
sg7
g1458
sbasg7
g161
sbsg1349
I1
sba(iconstruction
CXN
p1531
(dp1532
g233
(iconstruction
TP_SYMLINKS
p1533
(dp1534
g236
(dp1535
VAGT_46
p1536
VS1_51
p1537
sVACT_45
p1538
VS2_52
p1539
sVPT_47
p1540
VS3_53
p1541
ssg28
I43
sg7
g161
sbsg242
VS
p1542
sg244
I2
sg7
VSVO
p1543
sg246
(iconstruction
TP_SEMFRAME
p1544
(dp1545
g143
g0
(g131
g2
Ntp1546
Rp1547
(dp1548
g135
(dp1549
(iconstruction
TP_NODE
p1550
(dp1551
g255
I01
sg256
g259
sg7
VEVT_44
p1552
sg1313
I01
sg1314
I00
sg28
I44
sb(dp1553
g1313
I01
sg256
g259
ss(iconstruction
TP_NODE
p1554
(dp1555
g255
I00
sg256
g900
sg7
g1536
sg1313
I01
sg1314
I01
sg28
I46
sb(dp1556
g1313
I01
sg256
g900
ss(iconstruction
TP_NODE
p1557
(dp1558
g255
I00
sg256
g900
sg7
g1540
sg1313
I01
sg1314
I00
sg28
I47
sb(dp1559
g1313
I01
sg256
g900
ss(iconstruction
TP_NODE
p1560
(dp1561
g255
I00
sg256
g747
sg7
g1538
sg1313
I01
sg1314
I00
sg28
I45
sb(dp1562
g1313
I01
sg256
g747
sssg137
g138
sg139
g138
sg140
(dp1563
g1550
(dp1564
g1560
(dp1565
g256
g894
sssg1554
(dp1566
sg1557
(dp1567
sg1560
(dp1568
g1554
(dp1569
g256
g873
ssg1557
(dp1570
g256
g867
ssssg142
g1563
sg143
(dp1571
sg145
g138
sg146
g1563
sg147
(dp1572
g1550
(dp1573
sg1554
(dp1574
g1560
g1569
ssg1557
(dp1575
g1560
g1570
ssg1560
(dp1576
g1550
g1565
sssbsg738
(lp1577
g1550
ag1560
ag1554
ag1557
asg1010
(lp1578
(iconstruction
TP_REL
p1579
(dp1580
g1016
g1560
sg256
g894
sg28
I48
sg1017
g1550
sg7
VIS_48
p1581
sba(iconstruction
TP_REL
p1582
(dp1583
g1016
g1554
sg256
g873
sg28
I49
sg1017
g1560
sg7
VACT_AGT_49
p1584
sba(iconstruction
TP_REL
p1585
(dp1586
g1016
g1557
sg256
g867
sg28
I50
sg1017
g1560
sg7
VACT_PT_50
p1587
sbasg28
I41
sg7
g161
sbsg1328
(iconstruction
TP_SYNFORM
p1588
(dp1589
g28
I42
sg1331
(lp1590
(iconstruction
TP_SLOT
p1591
(dp1592
g1335
(lp1593
VNP
p1594
aVN
p1595
asg1338
I0
sg28
I51
sg7
g1537
sba(iconstruction
TP_SLOT
p1596
(dp1597
g1335
(lp1598
VVP
p1599
aVV
p1600
asg1338
I1
sg28
I52
sg7
g1539
sba(iconstruction
TP_SLOT
p1601
(dp1602
g1335
(lp1603
VNP
p1604
aVN
p1605
asg1338
I2
sg28
I53
sg7
g1541
sbasg7
g161
sbsg1349
I1
sba(iconstruction
CXN
p1606
(dp1607
g233
(iconstruction
TP_SYMLINKS
p1608
(dp1609
g236
(dp1610
VPT_60
p1611
VS1_64
p1612
sVACT_58
p1613
VS3_66
p1614
sVAGT_59
p1615
VS6_69
p1616
ssg28
I56
sg7
g161
sbsg242
VS
p1617
sg244
I2
sg7
VPAS_SVO
p1618
sg246
(iconstruction
TP_SEMFRAME
p1619
(dp1620
g143
g0
(g131
g2
Ntp1621
Rp1622
(dp1623
g135
(dp1624
(iconstruction
TP_NODE
p1625
(dp1626
g255
I00
sg256
g747
sg7
g1613
sg1313
I01
sg1314
I00
sg28
I58
sb(dp1627
g1313
I01
sg256
g747
ss(iconstruction
TP_NODE
p1628
(dp1629
g255
I00
sg256
g900
sg7
g1615
sg1313
I01
sg1314
I00
sg28
I59
sb(dp1630
g1313
I01
sg256
g900
ss(iconstruction
TP_NODE
p1631
(dp1632
g255
I01
sg256
g259
sg7
VEVT_57
p1633
sg1313
I01
sg1314
I00
sg28
I57
sb(dp1634
g1313
I01
sg256
g259
ss(iconstruction
TP_NODE
p1635
(dp1636
g255
I00
sg256
g900
sg7
g1611
sg1313
I01
sg1314
I01
sg28
I60
sb(dp1637
g1313
I01
sg256
g900
sssg137
g138
sg139
g138
sg140
(dp1638
g1625
(dp1639
g1635
(dp1640
g256
g867
ssg1628
(dp1641
g256
g873
sssg1628
(dp1642
sg1631
(dp1643
g1625
(dp1644
g256
g894
sssg1635
(dp1645
ssg142
g1638
sg143
(dp1646
sg145
g138
sg146
g1638
sg147
(dp1647
g1625
(dp1648
g1631
g1644
ssg1628
(dp1649
g1625
g1641
ssg1631
(dp1650
sg1635
(dp1651
g1625
g1640
sssbsg738
(lp1652
g1631
ag1625
ag1628
ag1635
asg1010
(lp1653
(iconstruction
TP_REL
p1654
(dp1655
g1016
g1625
sg256
g894
sg28
I61
sg1017
g1631
sg7
VIS_61
p1656
sba(iconstruction
TP_REL
p1657
(dp1658
g1016
g1628
sg256
g873
sg28
I62
sg1017
g1625
sg7
VACT_AGT_62
p1659
sba(iconstruction
TP_REL
p1660
(dp1661
g1016
g1635
sg256
g867
sg28
I63
sg1017
g1625
sg7
VACT_PT_63
p1662
sbasg28
I54
sg7
g161
sbsg1328
(iconstruction
TP_SYNFORM
p1663
(dp1664
g28
I55
sg1331
(lp1665
(iconstruction
TP_SLOT
p1666
(dp1667
g1335
(lp1668
VNP
p1669
aVN
p1670
asg1338
I0
sg28
I64
sg7
g1612
sba(iconstruction
TP_PHON
p1671
(dp1672
g1341
I2
sg1338
I1
sg28
I65
sg1342
Vis
p1673
sg7
VS2_65
p1674
sba(iconstruction
TP_SLOT
p1675
(dp1676
g1335
(lp1677
VVP
p1678
aVV
p1679
asg1338
I2
sg28
I66
sg7
g1614
sba(iconstruction
TP_PHON
p1680
(dp1681
g1341
I2
sg1338
I3
sg28
I67
sg1342
V-ed
p1682
sg7
VS4_67
p1683
sba(iconstruction
TP_PHON
p1684
(dp1685
g1341
I2
sg1338
I4
sg28
I68
sg1342
Vby
p1686
sg7
VS5_68
p1687
sba(iconstruction
TP_SLOT
p1688
(dp1689
g1335
(lp1690
VNP
p1691
aVN
p1692
asg1338
I5
sg28
I69
sg7
g1616
sbasg7
g161
sbsg1349
I1
sba(iconstruction
CXN
p1693
(dp1694
g233
(iconstruction
TP_SYMLINKS
p1695
(dp1696
g236
(dp1697
VACT_74
p1698
VS2_83
p1699
sVRCPT_77
p1700
VS3_84
p1701
sVTHEME_76
p1702
VS4_85
p1703
sVAGT_75
p1704
VS1_82
p1705
ssg28
I72
sg7
g161
sbsg242
VS
p1706
sg244
I2
sg7
VDOUBLE_OBJ
p1707
sg246
(iconstruction
TP_SEMFRAME
p1708
(dp1709
g143
g0
(g131
g2
Ntp1710
Rp1711
(dp1712
g135
(dp1713
(iconstruction
TP_NODE
p1714
(dp1715
g255
I01
sg256
g259
sg7
VEVT_73
p1716
sg1313
I01
sg1314
I00
sg28
I73
sb(dp1717
g1313
I01
sg256
g259
ss(iconstruction
TP_NODE
p1718
(dp1719
g255
I00
sg256
g900
sg7
g1704
sg1313
I01
sg1314
I01
sg28
I75
sb(dp1720
g1313
I01
sg256
g900
ss(iconstruction
TP_NODE
p1721
(dp1722
g255
I00
sg256
g747
sg7
g1698
sg1313
I01
sg1314
I00
sg28
I74
sb(dp1723
g1313
I01
sg256
g747
ss(iconstruction
TP_NODE
p1724
(dp1725
g255
I00
sg256
g900
sg7
g1700
sg1313
I01
sg1314
I00
sg28
I77
sb(dp1726
g1313
I01
sg256
g900
ss(iconstruction
TP_NODE
p1727
(dp1728
g255
I00
sg256
g900
sg7
g1702
sg1313
I01
sg1314
I00
sg28
I76
sb(dp1729
g1313
I01
sg256
g900
sssg137
g138
sg139
g138
sg140
(dp1730
g1714
(dp1731
g1721
(dp1732
g256
g894
sssg1718
(dp1733
sg1721
(dp1734
g1718
(dp1735
g256
g873
ssg1724
(dp1736
g256
g858
ssg1727
(dp1737
g256
g855
sssg1724
(dp1738
sg1727
(dp1739
ssg142
g1730
sg143
(dp1740
sg145
g138
sg146
g1730
sg147
(dp1741
g1714
(dp1742
sg1718
(dp1743
g1721
g1735
ssg1721
(dp1744
g1714
g1732
ssg1724
(dp1745
g1721
g1736
ssg1727
(dp1746
g1721
g1737
sssbsg738
(lp1747
g1714
ag1721
ag1718
ag1727
ag1724
asg1010
(lp1748
(iconstruction
TP_REL
p1749
(dp1750
g1016
g1721
sg256
g894
sg28
I78
sg1017
g1714
sg7
VIS_78
p1751
sba(iconstruction
TP_REL
p1752
(dp1753
g1016
g1718
sg256
g873
sg28
I79
sg1017
g1721
sg7
VACT_AGT_79
p1754
sba(iconstruction
TP_REL
p1755
(dp1756
g1016
g1727
sg256
g855
sg28
I80
sg1017
g1721
sg7
VACT_THEME_80
p1757
sba(iconstruction
TP_REL
p1758
(dp1759
g1016
g1724
sg256
g858
sg28
I81
sg1017
g1721
sg7
VACT_RCPT_81
p1760
sbasg28
I70
sg7
g161
sbsg1328
(iconstruction
TP_SYNFORM
p1761
(dp1762
g28
I71
sg1331
(lp1763
(iconstruction
TP_SLOT
p1764
(dp1765
g1335
(lp1766
VNP
p1767
aVN
p1768
asg1338
I0
sg28
I82
sg7
g1705
sba(iconstruction
TP_SLOT
p1769
(dp1770
g1335
(lp1771
VVP
p1772
aVV
p1773
asg1338
I1
sg28
I83
sg7
g1699
sba(iconstruction
TP_SLOT
p1774
(dp1775
g1335
(lp1776
VNP
p1777
aVN
p1778
asg1338
I2
sg28
I84
sg7
g1701
sba(iconstruction
TP_SLOT
p1779
(dp1780
g1335
(lp1781
VNP
p1782
aVN
p1783
asg1338
I3
sg28
I85
sg7
g1703
sbasg7
g161
sbsg1349
I1
sba(iconstruction
CXN
p1784
(dp1785
g233
(iconstruction
TP_SYMLINKS
p1786
(dp1787
g236
(dp1788
VAGT_91
p1789
VS1_98
p1790
sVRCPT_93
p1791
VS5_102
p1792
sVACT_90
p1793
VS2_99
p1794
sVTHEME_92
p1795
VS3_100
p1796
ssg28
I88
sg7
g161
sbsg242
VS
p1797
sg244
I2
sg7
VOBLIQUE_DATIVE
p1798
sg246
(iconstruction
TP_SEMFRAME
p1799
(dp1800
g143
g0
(g131
g2
Ntp1801
Rp1802
(dp1803
g135
(dp1804
(iconstruction
TP_NODE
p1805
(dp1806
g255
I01
sg256
g259
sg7
VEVT_89
p1807
sg1313
I01
sg1314
I00
sg28
I89
sb(dp1808
g1313
I01
sg256
g259
ss(iconstruction
TP_NODE
p1809
(dp1810
g255
I00
sg256
g900
sg7
g1789
sg1313
I01
sg1314
I01
sg28
I91
sb(dp1811
g1313
I01
sg256
g900
ss(iconstruction
TP_NODE
p1812
(dp1813
g255
I00
sg256
g900
sg7
g1795
sg1313
I01
sg1314
I00
sg28
I92
sb(dp1814
g1313
I01
sg256
g900
ss(iconstruction
TP_NODE
p1815
(dp1816
g255
I00
sg256
g795
sg7
g1793
sg1313
I01
sg1314
I00
sg28
I90
sb(dp1817
g1313
I01
sg256
g795
ss(iconstruction
TP_NODE
p1818
(dp1819
g255
I00
sg256
g900
sg7
g1791
sg1313
I01
sg1314
I00
sg28
I93
sb(dp1820
g1313
I01
sg256
g900
sssg137
g138
sg139
g138
sg140
(dp1821
g1805
(dp1822
g1815
(dp1823
g256
g894
sssg1809
(dp1824
sg1812
(dp1825
sg1815
(dp1826
g1809
(dp1827
g256
g873
ssg1818
(dp1828
g256
g858
ssg1812
(dp1829
g256
g855
sssg1818
(dp1830
ssg142
g1821
sg143
(dp1831
sg145
g138
sg146
g1821
sg147
(dp1832
g1805
(dp1833
sg1809
(dp1834
g1815
g1827
ssg1812
(dp1835
g1815
g1829
ssg1815
(dp1836
g1805
g1823
ssg1818
(dp1837
g1815
g1828
sssbsg738
(lp1838
g1805
ag1815
ag1809
ag1812
ag1818
asg1010
(lp1839
(iconstruction
TP_REL
p1840
(dp1841
g1016
g1815
sg256
g894
sg28
I94
sg1017
g1805
sg7
VIS_94
p1842
sba(iconstruction
TP_REL
p1843
(dp1844
g1016
g1809
sg256
g873
sg28
I95
sg1017
g1815
sg7
VACT_AGT_95
p1845
sba(iconstruction
TP_REL
p1846
(dp1847
g1016
g1812
sg256
g855
sg28
I96
sg1017
g1815
sg7
VACT_THEME_96
p1848
sba(iconstruction
TP_REL
p1849
(dp1850
g1016
g1818
sg256
g858
sg28
I97
sg1017
g1815
sg7
VACT_RCPT_97
p1851
sbasg28
I86
sg7
g161
sbsg1328
(iconstruction
TP_SYNFORM
p1852
(dp1853
g28
I87
sg1331
(lp1854
(iconstruction
TP_SLOT
p1855
(dp1856
g1335
(lp1857
VNP
p1858
aVN
p1859
asg1338
I0
sg28
I98
sg7
g1790
sba(iconstruction
TP_SLOT
p1860
(dp1861
g1335
(lp1862
VVP
p1863
aVV
p1864
asg1338
I1
sg28
I99
sg7
g1794
sba(iconstruction
TP_SLOT
p1865
(dp1866
g1335
(lp1867
VNP
p1868
aVN
p1869
asg1338
I2
sg28
I100
sg7
g1796
sba(iconstruction
TP_PHON
p1870
(dp1871
g1341
I2
sg1338
I3
sg28
I101
sg1342
Vto
p1872
sg7
VS4_101
p1873
sba(iconstruction
TP_SLOT
p1874
(dp1875
g1335
(lp1876
VNP
p1877
aVN
p1878
asg1338
I4
sg28
I102
sg7
g1792
sbasg7
g161
sbsg1349
I1
sba(iconstruction
CXN
p1879
(dp1880
g233
(iconstruction
TP_SYMLINKS
p1881
(dp1882
g236
(dp1883
VATTR_108
p1884
VS3_113
p1885
sVENT_107
p1886
VS1_111
p1887
ssg28
I105
sg7
g161
sbsg242
VS
p1888
sg244
I2
sg7
VSPA
p1889
sg246
(iconstruction
TP_SEMFRAME
p1890
(dp1891
g143
g0
(g131
g2
Ntp1892
Rp1893
(dp1894
g135
(dp1895
(iconstruction
TP_NODE
p1896
(dp1897
g255
I00
sg256
g900
sg7
g1886
sg1313
I01
sg1314
I01
sg28
I107
sb(dp1898
g1313
I01
sg256
g900
ss(iconstruction
TP_NODE
p1899
(dp1900
g255
I00
sg256
g804
sg7
g1884
sg1313
I00
sg1314
I00
sg28
I108
sb(dp1901
g1313
I00
sg256
g804
ss(iconstruction
TP_NODE
p1902
(dp1903
g255
I01
sg256
g259
sg7
VEVT_106
p1904
sg1313
I01
sg1314
I00
sg28
I106
sb(dp1905
g1313
I01
sg256
g259
sssg137
g138
sg139
g138
sg140
(dp1906
g1896
(dp1907
sg1899
(dp1908
sg1902
(dp1909
g1896
(dp1910
g256
g894
ssg1899
(dp1911
g256
g852
ssssg142
g1906
sg143
(dp1912
sg145
g138
sg146
g1906
sg147
(dp1913
g1896
(dp1914
g1902
g1910
ssg1899
(dp1915
g1902
g1911
ssg1902
(dp1916
ssbsg738
(lp1917
g1902
ag1896
ag1899
asg1010
(lp1918
(iconstruction
TP_REL
p1919
(dp1920
g1016
g1896
sg256
g894
sg28
I109
sg1017
g1902
sg7
VIS_109
p1921
sba(iconstruction
TP_REL
p1922
(dp1923
g1016
g1899
sg256
g852
sg28
I110
sg1017
g1902
sg7
VEVT_ATTR_110
p1924
sbasg28
I103
sg7
g161
sbsg1328
(iconstruction
TP_SYNFORM
p1925
(dp1926
g28
I104
sg1331
(lp1927
(iconstruction
TP_SLOT
p1928
(dp1929
g1335
(lp1930
VNP
p1931
aVN
p1932
asg1338
I0
sg28
I111
sg7
g1887
sba(iconstruction
TP_PHON
p1933
(dp1934
g1341
I2
sg1338
I1
sg28
I112
sg1342
Vis
p1935
sg7
VS2_112
p1936
sba(iconstruction
TP_SLOT
p1937
(dp1938
g1335
(lp1939
VA
p1940
asg1338
I2
sg28
I113
sg7
g1885
sbasg7
g161
sbsg1349
I1
sba(iconstruction
CXN
p1941
(dp1942
g233
(iconstruction
TP_SYMLINKS
p1943
(dp1944
g236
(dp1945
VAGT_119
p1946
VS1_122
p1947
sVACT_118
p1948
VS2_123
p1949
ssg28
I116
sg7
g161
sbsg242
VS
p1950
sg244
I2
sg7
VSV
p1951
sg246
(iconstruction
TP_SEMFRAME
p1952
(dp1953
g143
g0
(g131
g2
Ntp1954
Rp1955
(dp1956
g135
(dp1957
(iconstruction
TP_NODE
p1958
(dp1959
g255
I00
sg256
g759
sg7
g1948
sg1313
I01
sg1314
I00
sg28
I118
sb(dp1960
g1313
I01
sg256
g759
ss(iconstruction
TP_NODE
p1961
(dp1962
g255
I00
sg256
g900
sg7
g1946
sg1313
I01
sg1314
I01
sg28
I119
sb(dp1963
g1313
I01
sg256
g900
ss(iconstruction
TP_NODE
p1964
(dp1965
g255
I01
sg256
g259
sg7
VEVT_117
p1966
sg1313
I01
sg1314
I00
sg28
I117
sb(dp1967
g1313
I01
sg256
g259
sssg137
g138
sg139
g138
sg140
(dp1968
g1958
(dp1969
g1961
(dp1970
g256
g873
sssg1961
(dp1971
sg1964
(dp1972
g1958
(dp1973
g256
g894
ssssg142
g1968
sg143
(dp1974
sg145
g138
sg146
g1968
sg147
(dp1975
g1958
(dp1976
g1964
g1973
ssg1961
(dp1977
g1958
g1970
ssg1964
(dp1978
ssbsg738
(lp1979
g1964
ag1958
ag1961
asg1010
(lp1980
(iconstruction
TP_REL
p1981
(dp1982
g1016
g1958
sg256
g894
sg28
I120
sg1017
g1964
sg7
VIS_120
p1983
sba(iconstruction
TP_REL
p1984
(dp1985
g1016
g1961
sg256
g873
sg28
I121
sg1017
g1958
sg7
VACT_AGT_121
p1986
sbasg28
I114
sg7
g161
sbsg1328
(iconstruction
TP_SYNFORM
p1987
(dp1988
g28
I115
sg1331
(lp1989
(iconstruction
TP_SLOT
p1990
(dp1991
g1335
(lp1992
VNP
p1993
aVN
p1994
asg1338
I0
sg28
I122
sg7
g1947
sba(iconstruction
TP_SLOT
p1995
(dp1996
g1335
(lp1997
VVP
p1998
aVV
p1999
asg1338
I1
sg28
I123
sg7
g1949
sbasg7
g161
sbsg1349
I1
sba(iconstruction
CXN
p2000
(dp2001
g233
(iconstruction
TP_SYMLINKS
p2002
(dp2003
g236
(dp2004
VEVT_127
p2005
VS1_130
p2006
sVPLACE_128
p2007
VS3_132
p2008
ssg28
I126
sg7
g161
sbsg242
VS
p2009
sg244
I2
sg7
VPP_IN
p2010
sg246
(iconstruction
TP_SEMFRAME
p2011
(dp2012
g143
g0
(g131
g2
Ntp2013
Rp2014
(dp2015
g135
(dp2016
(iconstruction
TP_NODE
p2017
(dp2018
g255
I00
sg256
g900
sg7
g2007
sg1313
I01
sg1314
I00
sg28
I128
sb(dp2019
g1313
I01
sg256
g900
ss(iconstruction
TP_NODE
p2020
(dp2021
g255
I01
sg256
g259
sg7
g2005
sg1313
I01
sg1314
I00
sg28
I127
sb(dp2022
g1313
I01
sg256
g259
sssg137
g138
sg139
g138
sg140
(dp2023
g2017
(dp2024
sg2020
(dp2025
g2017
(dp2026
g256
g891
ssssg142
g2023
sg143
(dp2027
sg145
g138
sg146
g2023
sg147
(dp2028
g2017
(dp2029
g2020
g2026
ssg2020
(dp2030
ssbsg738
(lp2031
g2020
ag2017
asg1010
(lp2032
(iconstruction
TP_REL
p2033
(dp2034
g1016
g2017
sg256
g891
sg28
I129
sg1017
g2020
sg7
VEVT_PP_129
p2035
sbasg28
I124
sg7
g161
sbsg1328
(iconstruction
TP_SYNFORM
p2036
(dp2037
g28
I125
sg1331
(lp2038
(iconstruction
TP_SLOT
p2039
(dp2040
g1335
(lp2041
VS
p2042
asg1338
I0
sg28
I130
sg7
g2006
sba(iconstruction
TP_PHON
p2043
(dp2044
g1341
I2
sg1338
I1
sg28
I131
sg1342
Vin
p2045
sg7
VS2_131
p2046
sba(iconstruction
TP_SLOT
p2047
(dp2048
g1335
(lp2049
VNP
p2050
aVN
p2051
asg1338
I2
sg28
I132
sg7
g2008
sbasg7
g161
sbsg1349
I1
sba(iconstruction
CXN
p2052
(dp2053
g233
(iconstruction
TP_SYMLINKS
p2054
(dp2055
g236
(dp2056
VEVT2_137
p2057
VS2_140
p2058
sVEVT1_136
p2059
VS1_139
p2060
ssg28
I135
sg7
g161
sbsg242
VS
p2061
sg244
I2
sg7
VS_PP
p2062
sg246
(iconstruction
TP_SEMFRAME
p2063
(dp2064
g143
g0
(g131
g2
Ntp2065
Rp2066
(dp2067
g135
(dp2068
(iconstruction
TP_NODE
p2069
(dp2070
g255
I01
sg256
g259
sg7
g2059
sg1313
I01
sg1314
I01
sg28
I136
sb(dp2071
g1313
I01
sg256
g259
ss(iconstruction
TP_NODE
p2072
(dp2073
g255
I00
sg256
g259
sg7
g2057
sg1313
I01
sg1314
I00
sg28
I137
sb(dp2074
g1313
I01
sg256
g259
sssg137
g138
sg139
g138
sg140
(dp2075
g2069
(dp2076
g2072
(dp2077
g256
g852
sssg2072
(dp2078
ssg142
g2075
sg143
(dp2079
sg145
g138
sg146
g2075
sg147
(dp2080
g2069
(dp2081
sg2072
(dp2082
g2069
g2077
sssbsg738
(lp2083
g2069
ag2072
asg1010
(lp2084
(iconstruction
TP_REL
p2085
(dp2086
g1016
g2072
sg256
g852
sg28
I138
sg1017
g2069
sg7
VMOD_138
p2087
sbasg28
I133
sg7
g161
sbsg1328
(iconstruction
TP_SYNFORM
p2088
(dp2089
g28
I134
sg1331
(lp2090
(iconstruction
TP_SLOT
p2091
(dp2092
g1335
(lp2093
VS
p2094
asg1338
I0
sg28
I139
sg7
g2060
sba(iconstruction
TP_SLOT
p2095
(dp2096
g1335
(lp2097
VPP
p2098
asg1338
I1
sg28
I140
sg7
g2058
sbasg7
g161
sbsg1349
I1
sba(iconstruction
CXN
p2099
(dp2100
g233
(iconstruction
TP_SYMLINKS
p2101
(dp2102
g236
(dp2103
VENT_144
p2104
VS2_148
p2105
sVATTR_145
p2106
VS1_147
p2107
ssg28
I143
sg7
g161
sbsg242
VN
p2108
sg244
I2
sg7
VADJUNCT_N
p2109
sg246
(iconstruction
TP_SEMFRAME
p2110
(dp2111
g143
g0
(g131
g2
Ntp2112
Rp2113
(dp2114
g135
(dp2115
(iconstruction
TP_NODE
p2116
(dp2117
g255
I01
sg256
g900
sg7
g2104
sg1313
I01
sg1314
I00
sg28
I144
sb(dp2118
g1313
I01
sg256
g900
ss(iconstruction
TP_NODE
p2119
(dp2120
g255
I00
sg256
g804
sg7
g2106
sg1313
I00
sg1314
I00
sg28
I145
sb(dp2121
g1313
I00
sg256
g804
sssg137
g138
sg139
g138
sg140
(dp2122
g2116
(dp2123
g2119
(dp2124
g256
g852
sssg2119
(dp2125
ssg142
g2122
sg143
(dp2126
sg145
g138
sg146
g2122
sg147
(dp2127
g2116
(dp2128
sg2119
(dp2129
g2116
g2124
sssbsg738
(lp2130
g2116
ag2119
asg1010
(lp2131
(iconstruction
TP_REL
p2132
(dp2133
g1016
g2119
sg256
g852
sg28
I146
sg1017
g2116
sg7
VENT_ATTR_146
p2134
sbasg28
I141
sg7
g161
sbsg1328
(iconstruction
TP_SYNFORM
p2135
(dp2136
g28
I142
sg1331
(lp2137
(iconstruction
TP_SLOT
p2138
(dp2139
g1335
(lp2140
VA
p2141
asg1338
I0
sg28
I147
sg7
g2107
sba(iconstruction
TP_SLOT
p2142
(dp2143
g1335
(lp2144
VN
p2145
asg1338
I1
sg28
I148
sg7
g2105
sbasg7
g161
sbsg1349
I1
sba(iconstruction
CXN
p2146
(dp2147
g233
(iconstruction
TP_SYMLINKS
p2148
(dp2149
g236
(dp2150
VAGT_154
p2151
VS1_160
p2152
sVACT_153
p2153
VS3_162
p2154
sVPT_155
p2155
VS4_163
p2156
ssg28
I151
sg7
g161
sbsg242
VN
p2157
sg244
I2
sg7
VSUBJ_REL_SVO
p2158
sg246
(iconstruction
TP_SEMFRAME
p2159
(dp2160
g143
g0
(g131
g2
Ntp2161
Rp2162
(dp2163
g135
(dp2164
(iconstruction
TP_NODE
p2165
(dp2166
g255
I00
sg256
g259
sg7
VEVT_152
p2167
sg1313
I01
sg1314
I00
sg28
I152
sb(dp2168
g1313
I01
sg256
g259
ss(iconstruction
TP_NODE
p2169
(dp2170
g255
I01
sg256
g900
sg7
g2151
sg1313
I01
sg1314
I00
sg28
I154
sb(dp2171
g1313
I01
sg256
g900
ss(iconstruction
TP_NODE
p2172
(dp2173
g255
I00
sg256
g765
sg7
g2153
sg1313
I01
sg1314
I01
sg28
I153
sb(dp2174
g1313
I01
sg256
g765
ss(iconstruction
TP_NODE
p2175
(dp2176
g255
I00
sg256
g900
sg7
g2155
sg1313
I01
sg1314
I00
sg28
I155
sb(dp2177
g1313
I01
sg256
g900
sssg137
g138
sg139
g138
sg140
(dp2178
g2165
(dp2179
g2172
(dp2180
g256
g894
sssg2169
(dp2181
g2165
(dp2182
g256
g852
sssg2172
(dp2183
g2169
(dp2184
g256
g873
ssg2175
(dp2185
g256
g867
sssg2175
(dp2186
ssg142
g2178
sg143
(dp2187
sg145
g138
sg146
g2178
sg147
(dp2188
g2165
(dp2189
g2169
g2182
ssg2169
(dp2190
g2172
g2184
ssg2172
(dp2191
g2165
g2180
ssg2175
(dp2192
g2172
g2185
sssbsg738
(lp2193
g2165
ag2172
ag2169
ag2175
asg1010
(lp2194
(iconstruction
TP_REL
p2195
(dp2196
g1016
g2172
sg256
g894
sg28
I156
sg1017
g2165
sg7
VIS_156
p2197
sba(iconstruction
TP_REL
p2198
(dp2199
g1016
g2169
sg256
g873
sg28
I157
sg1017
g2172
sg7
VACT_AGT_157
p2200
sba(iconstruction
TP_REL
p2201
(dp2202
g1016
g2175
sg256
g867
sg28
I158
sg1017
g2172
sg7
VACT_PT_158
p2203
sba(iconstruction
TP_REL
p2204
(dp2205
g1016
g2165
sg256
g852
sg28
I159
sg1017
g2169
sg7
VAGT_EVT_159
p2206
sbasg28
I149
sg7
g161
sbsg1328
(iconstruction
TP_SYNFORM
p2207
(dp2208
g28
I150
sg1331
(lp2209
(iconstruction
TP_SLOT
p2210
(dp2211
g1335
(lp2212
VN
p2213
asg1338
I0
sg28
I160
sg7
g2152
sba(iconstruction
TP_PHON
p2214
(dp2215
g1341
I4
sg1338
I1
sg28
I161
sg1342
Vthat
p2216
sg7
VS2_161
p2217
sba(iconstruction
TP_SLOT
p2218
(dp2219
g1335
(lp2220
VVP
p2221
aVV
p2222
asg1338
I2
sg28
I162
sg7
g2154
sba(iconstruction
TP_SLOT
p2223
(dp2224
g1335
(lp2225
VNP
p2226
aVN
p2227
asg1338
I3
sg28
I163
sg7
g2156
sbasg7
g161
sbsg1349
I1
sba(iconstruction
CXN
p2228
(dp2229
g233
(iconstruction
TP_SYMLINKS
p2230
(dp2231
g236
(dp2232
VAGT_169
p2233
VS1_173
p2234
sVACT_168
p2235
VS3_175
p2236
ssg28
I166
sg7
g161
sbsg242
VN
p2237
sg244
I2
sg7
VSUBJ_REL_SV
p2238
sg246
(iconstruction
TP_SEMFRAME
p2239
(dp2240
g143
g0
(g131
g2
Ntp2241
Rp2242
(dp2243
g135
(dp2244
(iconstruction
TP_NODE
p2245
(dp2246
g255
I00
sg256
g259
sg7
VEVT_167
p2247
sg1313
I01
sg1314
I00
sg28
I167
sb(dp2248
g1313
I01
sg256
g259
ss(iconstruction
TP_NODE
p2249
(dp2250
g255
I01
sg256
g900
sg7
g2233
sg1313
I01
sg1314
I00
sg28
I169
sb(dp2251
g1313
I01
sg256
g900
ss(iconstruction
TP_NODE
p2252
(dp2253
g255
I00
sg256
g747
sg7
g2235
sg1313
I01
sg1314
I01
sg28
I168
sb(dp2254
g1313
I01
sg256
g747
sssg137
g138
sg139
g138
sg140
(dp2255
g2245
(dp2256
g2252
(dp2257
g256
g894
sssg2249
(dp2258
g2245
(dp2259
g256
g852
sssg2252
(dp2260
g2249
(dp2261
g256
g873
ssssg142
g2255
sg143
(dp2262
sg145
g138
sg146
g2255
sg147
(dp2263
g2245
(dp2264
g2249
g2259
ssg2249
(dp2265
g2252
g2261
ssg2252
(dp2266
g2245
g2257
sssbsg738
(lp2267
g2245
ag2252
ag2249
asg1010
(lp2268
(iconstruction
TP_REL
p2269
(dp2270
g1016
g2252
sg256
g894
sg28
I170
sg1017
g2245
sg7
VIS_170
p2271
sba(iconstruction
TP_REL
p2272
(dp2273
g1016
g2249
sg256
g873
sg28
I171
sg1017
g2252
sg7
VACT_AGT_171
p2274
sba(iconstruction
TP_REL
p2275
(dp2276
g1016
g2245
sg256
g852
sg28
I172
sg1017
g2249
sg7
VAGT_EVT_172
p2277
sbasg28
I164
sg7
g161
sbsg1328
(iconstruction
TP_SYNFORM
p2278
(dp2279
g28
I165
sg1331
(lp2280
(iconstruction
TP_SLOT
p2281
(dp2282
g1335
(lp2283
VN
p2284
asg1338
I0
sg28
I173
sg7
g2234
sba(iconstruction
TP_PHON
p2285
(dp2286
g1341
I4
sg1338
I1
sg28
I174
sg1342
Vthat
p2287
sg7
VS2_174
p2288
sba(iconstruction
TP_SLOT
p2289
(dp2290
g1335
(lp2291
VVP
p2292
aVV
p2293
asg1338
I2
sg28
I175
sg7
g2236
sbasg7
g161
sbsg1349
I1
sba(iconstruction
CXN
p2294
(dp2295
g233
(iconstruction
TP_SYMLINKS
p2296
(dp2297
g236
(dp2298
VAGT_181
p2299
VS7_193
p2300
sVPT_182
p2301
VS1_187
p2302
sVACT_180
p2303
VS4_190
p2304
ssg28
I178
sg7
g161
sbsg242
VN
p2305
sg244
I2
sg7
VSUBJ_REL_PAS_SVO
p2306
sg246
(iconstruction
TP_SEMFRAME
p2307
(dp2308
g143
g0
(g131
g2
Ntp2309
Rp2310
(dp2311
g135
(dp2312
(iconstruction
TP_NODE
p2313
(dp2314
g255
I00
sg256
g259
sg7
VEVT_179
p2315
sg1313
I01
sg1314
I00
sg28
I179
sb(dp2316
g1313
I01
sg256
g259
ss(iconstruction
TP_NODE
p2317
(dp2318
g255
I00
sg256
g900
sg7
g2299
sg1313
I01
sg1314
I00
sg28
I181
sb(dp2319
g1313
I01
sg256
g900
ss(iconstruction
TP_NODE
p2320
(dp2321
g255
I01
sg256
g900
sg7
g2301
sg1313
I01
sg1314
I00
sg28
I182
sb(dp2322
g1313
I01
sg256
g900
ss(iconstruction
TP_NODE
p2323
(dp2324
g255
I00
sg256
g747
sg7
g2303
sg1313
I01
sg1314
I01
sg28
I180
sb(dp2325
g1313
I01
sg256
g747
sssg137
g138
sg139
g138
sg140
(dp2326
g2313
(dp2327
g2323
(dp2328
g256
g894
sssg2317
(dp2329
sg2320
(dp2330
g2313
(dp2331
g256
g852
sssg2323
(dp2332
g2317
(dp2333
g256
g873
ssg2320
(dp2334
g256
g867
ssssg142
g2326
sg143
(dp2335
sg145
g138
sg146
g2326
sg147
(dp2336
g2313
(dp2337
g2320
g2331
ssg2317
(dp2338
g2323
g2333
ssg2320
(dp2339
g2323
g2334
ssg2323
(dp2340
g2313
g2328
sssbsg738
(lp2341
g2313
ag2323
ag2317
ag2320
asg1010
(lp2342
(iconstruction
TP_REL
p2343
(dp2344
g1016
g2323
sg256
g894
sg28
I183
sg1017
g2313
sg7
VIS_183
p2345
sba(iconstruction
TP_REL
p2346
(dp2347
g1016
g2317
sg256
g873
sg28
I184
sg1017
g2323
sg7
VACT_AGT_184
p2348
sba(iconstruction
TP_REL
p2349
(dp2350
g1016
g2320
sg256
g867
sg28
I185
sg1017
g2323
sg7
VACT_PT_185
p2351
sba(iconstruction
TP_REL
p2352
(dp2353
g1016
g2313
sg256
g852
sg28
I186
sg1017
g2320
sg7
VPT_EVT_186
p2354
sbasg28
I176
sg7
g161
sbsg1328
(iconstruction
TP_SYNFORM
p2355
(dp2356
g28
I177
sg1331
(lp2357
(iconstruction
TP_SLOT
p2358
(dp2359
g1335
(lp2360
VN
p2361
asg1338
I0
sg28
I187
sg7
g2302
sba(iconstruction
TP_PHON
p2362
(dp2363
g1341
I4
sg1338
I1
sg28
I188
sg1342
Vthat
p2364
sg7
VS2_188
p2365
sba(iconstruction
TP_PHON
p2366
(dp2367
g1341
I2
sg1338
I2
sg28
I189
sg1342
Vis
p2368
sg7
VS3_189
p2369
sba(iconstruction
TP_SLOT
p2370
(dp2371
g1335
(lp2372
VVP
p2373
aVV
p2374
asg1338
I3
sg28
I190
sg7
g2304
sba(iconstruction
TP_PHON
p2375
(dp2376
g1341
I2
sg1338
I4
sg28
I191
sg1342
V-ed
p2377
sg7
VS5_191
p2378
sba(iconstruction
TP_PHON
p2379
(dp2380
g1341
I2
sg1338
I5
sg28
I192
sg1342
Vby
p2381
sg7
VS6_192
p2382
sba(iconstruction
TP_SLOT
p2383
(dp2384
g1335
(lp2385
VNP
p2386
aVN
p2387
asg1338
I6
sg28
I193
sg7
g2300
sbasg7
g161
sbsg1349
I1
sba(iconstruction
CXN
p2388
(dp2389
g233
(iconstruction
TP_SYMLINKS
p2390
(dp2391
g236
(dp2392
VAGT_199
p2393
VS3_207
p2394
sVACT_198
p2395
VS4_208
p2396
sVPT_200
p2397
VS1_205
p2398
ssg28
I196
sg7
g161
sbsg242
VN
p2399
sg244
I2
sg7
VOBJ_REL_SVO
p2400
sg246
(iconstruction
TP_SEMFRAME
p2401
(dp2402
g143
g0
(g131
g2
Ntp2403
Rp2404
(dp2405
g135
(dp2406
(iconstruction
TP_NODE
p2407
(dp2408
g255
I00
sg256
g259
sg7
VEVT_197
p2409
sg1313
I01
sg1314
I00
sg28
I197
sb(dp2410
g1313
I01
sg256
g259
ss(iconstruction
TP_NODE
p2411
(dp2412
g255
I00
sg256
g900
sg7
g2393
sg1313
I01
sg1314
I00
sg28
I199
sb(dp2413
g1313
I01
sg256
g900
ss(iconstruction
TP_NODE
p2414
(dp2415
g255
I01
sg256
g900
sg7
g2397
sg1313
I01
sg1314
I00
sg28
I200
sb(dp2416
g1313
I01
sg256
g900
ss(iconstruction
TP_NODE
p2417
(dp2418
g255
I00
sg256
g747
sg7
g2395
sg1313
I01
sg1314
I01
sg28
I198
sb(dp2419
g1313
I01
sg256
g747
sssg137
g138
sg139
g138
sg140
(dp2420
g2407
(dp2421
g2417
(dp2422
g256
g894
sssg2411
(dp2423
sg2414
(dp2424
g2407
(dp2425
g256
g852
sssg2417
(dp2426
g2411
(dp2427
g256
g873
ssg2414
(dp2428
g256
g867
ssssg142
g2420
sg143
(dp2429
sg145
g138
sg146
g2420
sg147
(dp2430
g2407
(dp2431
g2414
g2425
ssg2411
(dp2432
g2417
g2427
ssg2414
(dp2433
g2417
g2428
ssg2417
(dp2434
g2407
g2422
sssbsg738
(lp2435
g2407
ag2417
ag2411
ag2414
asg1010
(lp2436
(iconstruction
TP_REL
p2437
(dp2438
g1016
g2417
sg256
g894
sg28
I201
sg1017
g2407
sg7
VIS_201
p2439
sba(iconstruction
TP_REL
p2440
(dp2441
g1016
g2411
sg256
g873
sg28
I202
sg1017
g2417
sg7
VACT_AGT_202
p2442
sba(iconstruction
TP_REL
p2443
(dp2444
g1016
g2414
sg256
g867
sg28
I203
sg1017
g2417
sg7
VACT_PT_203
p2445
sba(iconstruction
TP_REL
p2446
(dp2447
g1016
g2407
sg256
g852
sg28
I204
sg1017
g2414
sg7
VPT_EVT_204
p2448
sbasg28
I194
sg7
g161
sbsg1328
(iconstruction
TP_SYNFORM
p2449
(dp2450
g28
I195
sg1331
(lp2451
(iconstruction
TP_SLOT
p2452
(dp2453
g1335
(lp2454
VN
p2455
asg1338
I0
sg28
I205
sg7
g2398
sba(iconstruction
TP_PHON
p2456
(dp2457
g1341
I4
sg1338
I1
sg28
I206
sg1342
Vthat
p2458
sg7
VS2_206
p2459
sba(iconstruction
TP_SLOT
p2460
(dp2461
g1335
(lp2462
VNP
p2463
aVN
p2464
asg1338
I2
sg28
I207
sg7
g2394
sba(iconstruction
TP_SLOT
p2465
(dp2466
g1335
(lp2467
VVP
p2468
aVV
p2469
asg1338
I3
sg28
I208
sg7
g2396
sbasg7
g161
sbsg1349
I1
sba(iconstruction
CXN
p2470
(dp2471
g233
(iconstruction
TP_SYMLINKS
p2472
(dp2473
g236
(dp2474
VPT_215
p2475
VS3_222
p2476
sVACT_213
p2477
VS5_224
p2478
sVAGT_214
p2479
VS1_220
p2480
ssg28
I211
sg7
g161
sbsg242
VN
p2481
sg244
I2
sg7
VOBJ_REL_PAS_SVO
p2482
sg246
(iconstruction
TP_SEMFRAME
p2483
(dp2484
g143
g0
(g131
g2
Ntp2485
Rp2486
(dp2487
g135
(dp2488
(iconstruction
TP_NODE
p2489
(dp2490
g255
I00
sg256
g259
sg7
VEVT_212
p2491
sg1313
I01
sg1314
I00
sg28
I212
sb(dp2492
g1313
I01
sg256
g259
ss(iconstruction
TP_NODE
p2493
(dp2494
g255
I01
sg256
g900
sg7
g2479
sg1313
I01
sg1314
I00
sg28
I214
sb(dp2495
g1313
I01
sg256
g900
ss(iconstruction
TP_NODE
p2496
(dp2497
g255
I00
sg256
g747
sg7
g2477
sg1313
I01
sg1314
I01
sg28
I213
sb(dp2498
g1313
I01
sg256
g747
ss(iconstruction
TP_NODE
p2499
(dp2500
g255
I00
sg256
g900
sg7
g2475
sg1313
I01
sg1314
I00
sg28
I215
sb(dp2501
g1313
I01
sg256
g900
sssg137
g138
sg139
g138
sg140
(dp2502
g2489
(dp2503
g2496
(dp2504
g256
g894
sssg2493
(dp2505
g2489
(dp2506
g256
g852
sssg2496
(dp2507
g2493
(dp2508
g256
g873
ssg2499
(dp2509
g256
g867
sssg2499
(dp2510
ssg142
g2502
sg143
(dp2511
sg145
g138
sg146
g2502
sg147
(dp2512
g2489
(dp2513
g2493
g2506
ssg2493
(dp2514
g2496
g2508
ssg2496
(dp2515
g2489
g2504
ssg2499
(dp2516
g2496
g2509
sssbsg738
(lp2517
g2489
ag2496
ag2493
ag2499
asg1010
(lp2518
(iconstruction
TP_REL
p2519
(dp2520
g1016
g2496
sg256
g894
sg28
I216
sg1017
g2489
sg7
VIS_216
p2521
sba(iconstruction
TP_REL
p2522
(dp2523
g1016
g2493
sg256
g873
sg28
I217
sg1017
g2496
sg7
VACT_AGT_217
p2524
sba(iconstruction
TP_REL
p2525
(dp2526
g1016
g2499
sg256
g867
sg28
I218
sg1017
g2496
sg7
VACT_PT_218
p2527
sba(iconstruction
TP_REL
p2528
(dp2529
g1016
g2489
sg256
g852
sg28
I219
sg1017
g2493
sg7
VAGT_EVT_219
p2530
sbasg28
I209
sg7
g161
sbsg1328
(iconstruction
TP_SYNFORM
p2531
(dp2532
g28
I210
sg1331
(lp2533
(iconstruction
TP_SLOT
p2534
(dp2535
g1335
(lp2536
VN
p2537
asg1338
I0
sg28
I220
sg7
g2480
sba(iconstruction
TP_PHON
p2538
(dp2539
g1341
I4
sg1338
I1
sg28
I221
sg1342
Vthat
p2540
sg7
VS2_221
p2541
sba(iconstruction
TP_SLOT
p2542
(dp2543
g1335
(lp2544
VNP
p2545
aVN
p2546
asg1338
I2
sg28
I222
sg7
g2476
sba(iconstruction
TP_PHON
p2547
(dp2548
g1341
I2
sg1338
I3
sg28
I223
sg1342
Vis
p2549
sg7
VS4_223
p2550
sba(iconstruction
TP_SLOT
p2551
(dp2552
g1335
(lp2553
VVP
p2554
aVV
p2555
asg1338
I4
sg28
I224
sg7
g2478
sba(iconstruction
TP_PHON
p2556
(dp2557
g1341
I2
sg1338
I5
sg28
I225
sg1342
V-ed
p2558
sg7
VS6_225
p2559
sba(iconstruction
TP_PHON
p2560
(dp2561
g1341
I2
sg1338
I6
sg28
I226
sg1342
Vby
p2562
sg7
VS7_226
p2563
sbasg7
g161
sbsg1349
I1
sba(iconstruction
CXN
p2564
(dp2565
g233
(iconstruction
TP_SYMLINKS
p2566
(dp2567
g236
(dp2568
VATTR_232
p2569
VS4_238
p2570
sVENT_231
p2571
VS1_235
p2572
ssg28
I229
sg7
g161
sbsg242
VN
p2573
sg244
I2
sg7
VREL_SPA
p2574
sg246
(iconstruction
TP_SEMFRAME
p2575
(dp2576
g143
g0
(g131
g2
Ntp2577
Rp2578
(dp2579
g135
(dp2580
(iconstruction
TP_NODE
p2581
(dp2582
g255
I00
sg256
g259
sg7
VEVT_230
p2583
sg1313
I01
sg1314
I00
sg28
I230
sb(dp2584
g1313
I01
sg256
g259
ss(iconstruction
TP_NODE
p2585
(dp2586
g255
I00
sg256
g804
sg7
g2569
sg1313
I00
sg1314
I00
sg28
I232
sb(dp2587
g1313
I00
sg256
g804
ss(iconstruction
TP_NODE
p2588
(dp2589
g255
I01
sg256
g900
sg7
g2571
sg1313
I01
sg1314
I01
sg28
I231
sb(dp2590
g1313
I01
sg256
g900
sssg137
g138
sg139
g138
sg140
(dp2591
g2581
(dp2592
g2585
(dp2593
g256
g852
ssg2588
(dp2594
g256
g894
sssg2585
(dp2595
sg2588
(dp2596
ssg142
g2591
sg143
(dp2597
sg145
g138
sg146
g2591
sg147
(dp2598
g2581
(dp2599
sg2585
(dp2600
g2581
g2593
ssg2588
(dp2601
g2581
g2594
sssbsg738
(lp2602
g2581
ag2588
ag2585
asg1010
(lp2603
(iconstruction
TP_REL
p2604
(dp2605
g1016
g2588
sg256
g894
sg28
I233
sg1017
g2581
sg7
VIS_233
p2606
sba(iconstruction
TP_REL
p2607
(dp2608
g1016
g2585
sg256
g852
sg28
I234
sg1017
g2581
sg7
VEVT_ATTR_234
p2609
sbasg28
I227
sg7
g161
sbsg1328
(iconstruction
TP_SYNFORM
p2610
(dp2611
g28
I228
sg1331
(lp2612
(iconstruction
TP_SLOT
p2613
(dp2614
g1335
(lp2615
VN
p2616
asg1338
I0
sg28
I235
sg7
g2572
sba(iconstruction
TP_PHON
p2617
(dp2618
g1341
I4
sg1338
I1
sg28
I236
sg1342
Vthat
p2619
sg7
VS2_236
p2620
sba(iconstruction
TP_PHON
p2621
(dp2622
g1341
I2
sg1338
I2
sg28
I237
sg1342
Vis
p2623
sg7
VS3_237
p2624
sba(iconstruction
TP_SLOT
p2625
(dp2626
g1335
(lp2627
VA
p2628
asg1338
I3
sg28
I238
sg7
g2570
sbasg7
g161
sbsg1349
I1
sba(iconstruction
CXN
p2629
(dp2630
g233
(iconstruction
TP_SYMLINKS
p2631
(dp2632
g236
(dp2633
VAGT_244
p2634
VS1_251
p2635
sVCOLOR_246
p2636
VS3_253
p2637
ssg28
I241
sg7
g161
sbsg242
VN
p2638
sg244
I2
sg7
VIN_COLOR
p2639
sg246
(iconstruction
TP_SEMFRAME
p2640
(dp2641
g143
g0
(g131
g2
Ntp2642
Rp2643
(dp2644
g135
(dp2645
(iconstruction
TP_NODE
p2646
(dp2647
g255
I00
sg256
g259
sg7
VEVT_242
p2648
sg1313
I01
sg1314
I00
sg28
I242
sb(dp2649
g1313
I01
sg256
g259
ss(iconstruction
TP_NODE
p2650
(dp2651
g255
I01
sg256
g909
sg7
g2634
sg1313
I01
sg1314
I00
sg28
I244
sb(dp2652
g1313
I01
sg256
g909
ss(iconstruction
TP_NODE
p2653
(dp2654
g255
I00
sg256
g792
sg7
VACT_243
p2655
sg1313
I01
sg1314
I00
sg28
I243
sb(dp2656
g1313
I01
sg256
g792
ss(iconstruction
TP_NODE
p2657
(dp2658
g255
I00
sg256
g807
sg7
g2636
sg1313
I00
sg1314
I01
sg28
I246
sb(dp2659
g1313
I00
sg256
g807
ss(iconstruction
TP_NODE
p2660
(dp2661
g255
I00
sg256
g939
sg7
VPT_245
p2662
sg1313
I01
sg1314
I00
sg28
I245
sb(dp2663
g1313
I01
sg256
g939
sssg137
g138
sg139
g138
sg140
(dp2664
g2646
(dp2665
g2653
(dp2666
g256
g894
sssg2650
(dp2667
sg2653
(dp2668
g2650
(dp2669
g256
g873
ssg2660
(dp2670
g256
g867
sssg2657
(dp2671
sg2660
(dp2672
g2657
(dp2673
g256
g852
ssssg142
g2664
sg143
(dp2674
sg145
g138
sg146
g2664
sg147
(dp2675
g2646
(dp2676
sg2650
(dp2677
g2653
g2669
ssg2653
(dp2678
g2646
g2666
ssg2657
(dp2679
g2660
g2673
ssg2660
(dp2680
g2653
g2670
sssbsg738
(lp2681
g2646
ag2653
ag2650
ag2660
ag2657
asg1010
(lp2682
(iconstruction
TP_REL
p2683
(dp2684
g1016
g2653
sg256
g894
sg28
I247
sg1017
g2646
sg7
VIS_247
p2685
sba(iconstruction
TP_REL
p2686
(dp2687
g1016
g2650
sg256
g873
sg28
I248
sg1017
g2653
sg7
VACT_AGT_248
p2688
sba(iconstruction
TP_REL
p2689
(dp2690
g1016
g2660
sg256
g867
sg28
I249
sg1017
g2653
sg7
VACT_PT_249
p2691
sba(iconstruction
TP_REL
p2692
(dp2693
g1016
g2657
sg256
g852
sg28
I250
sg1017
g2660
sg7
VPT_COLOR_250
p2694
sbasg28
I239
sg7
g161
sbsg1328
(iconstruction
TP_SYNFORM
p2695
(dp2696
g28
I240
sg1331
(lp2697
(iconstruction
TP_SLOT
p2698
(dp2699
g1335
(lp2700
VN
p2701
asg1338
I0
sg28
I251
sg7
g2635
sba(iconstruction
TP_PHON
p2702
(dp2703
g1341
I2
sg1338
I1
sg28
I252
sg1342
Vin
p2704
sg7
VS2_252
p2705
sba(iconstruction
TP_SLOT
p2706
(dp2707
g1335
(lp2708
VA
p2709
asg1338
I2
sg28
I253
sg7
g2637
sbasg7
g161
sbsg1349
I1
sba(iconstruction
CXN
p2710
(dp2711
g233
(iconstruction
TP_SYMLINKS
p2712
(dp2713
g236
(dp2714
VN1_258
p2715
VS1_260
p2716
ssg28
I256
sg7
g161
sbsg242
VV
p2717
sg244
I1
sg7
VHIT
p2718
sg246
(iconstruction
TP_SEMFRAME
p2719
(dp2720
g143
g0
(g131
g2
Ntp2721
Rp2722
(dp2723
g135
(dp2724
(iconstruction
TP_NODE
p2725
(dp2726
g255
I00
sg256
g768
sg7
g2715
sg1313
I00
sg1314
I00
sg28
I258
sb(dp2727
g1313
I00
sg256
g768
ss(iconstruction
TP_NODE
p2728
(dp2729
g255
I01
sg256
g747
sg7
VACT_257
p2730
sg1313
I01
sg1314
I00
sg28
I257
sb(dp2731
g1313
I01
sg256
g747
sssg137
g138
sg139
g138
sg140
(dp2732
g2725
(dp2733
sg2728
(dp2734
g2725
(dp2735
g256
g894
ssssg142
g2732
sg143
(dp2736
sg145
g138
sg146
g2732
sg147
(dp2737
g2725
(dp2738
g2728
g2735
ssg2728
(dp2739
ssbsg738
(lp2740
g2728
ag2725
asg1010
(lp2741
(iconstruction
TP_REL
p2742
(dp2743
g1016
g2725
sg256
g894
sg28
I259
sg1017
g2728
sg7
VIS_259
p2744
sbasg28
I254
sg7
g161
sbsg1328
(iconstruction
TP_SYNFORM
p2745
(dp2746
g28
I255
sg1331
(lp2747
(iconstruction
TP_PHON
p2748
(dp2749
g1341
I3
sg1338
I0
sg28
I260
sg1342
Vhit
p2750
sg7
g2716
sbasg7
g161
sbsg1349
I1
sba(iconstruction
CXN
p2751
(dp2752
g233
(iconstruction
TP_SYMLINKS
p2753
(dp2754
g236
(dp2755
VN1_265
p2756
VS1_267
p2757
ssg28
I263
sg7
g161
sbsg242
VV
p2758
sg244
I1
sg7
VKICK
p2759
sg246
(iconstruction
TP_SEMFRAME
p2760
(dp2761
g143
g0
(g131
g2
Ntp2762
Rp2763
(dp2764
g135
(dp2765
(iconstruction
TP_NODE
p2766
(dp2767
g255
I00
sg256
g789
sg7
g2756
sg1313
I00
sg1314
I00
sg28
I265
sb(dp2768
g1313
I00
sg256
g789
ss(iconstruction
TP_NODE
p2769
(dp2770
g255
I01
sg256
g747
sg7
VACT_264
p2771
sg1313
I01
sg1314
I00
sg28
I264
sb(dp2772
g1313
I01
sg256
g747
sssg137
g138
sg139
g138
sg140
(dp2773
g2766
(dp2774
sg2769
(dp2775
g2766
(dp2776
g256
g894
ssssg142
g2773
sg143
(dp2777
sg145
g138
sg146
g2773
sg147
(dp2778
g2766
(dp2779
g2769
g2776
ssg2769
(dp2780
ssbsg738
(lp2781
g2769
ag2766
asg1010
(lp2782
(iconstruction
TP_REL
p2783
(dp2784
g1016
g2766
sg256
g894
sg28
I266
sg1017
g2769
sg7
VIS_266
p2785
sbasg28
I261
sg7
g161
sbsg1328
(iconstruction
TP_SYNFORM
p2786
(dp2787
g28
I262
sg1331
(lp2788
(iconstruction
TP_PHON
p2789
(dp2790
g1341
I4
sg1338
I0
sg28
I267
sg1342
Vkick
p2791
sg7
g2757
sbasg7
g161
sbsg1349
I1
sba(iconstruction
CXN
p2792
(dp2793
g233
(iconstruction
TP_SYMLINKS
p2794
(dp2795
g236
(dp2796
VN1_272
p2797
VS1_274
p2798
ssg28
I270
sg7
g161
sbsg242
VV
p2799
sg244
I1
sg7
VPUNCH
p2800
sg246
(iconstruction
TP_SEMFRAME
p2801
(dp2802
g143
g0
(g131
g2
Ntp2803
Rp2804
(dp2805
g135
(dp2806
(iconstruction
TP_NODE
p2807
(dp2808
g255
I01
sg256
g747
sg7
VACT_271
p2809
sg1313
I01
sg1314
I00
sg28
I271
sb(dp2810
g1313
I01
sg256
g747
ss(iconstruction
TP_NODE
p2811
(dp2812
g255
I00
sg256
g774
sg7
g2797
sg1313
I00
sg1314
I00
sg28
I272
sb(dp2813
g1313
I00
sg256
g774
sssg137
g138
sg139
g138
sg140
(dp2814
g2807
(dp2815
g2811
(dp2816
g256
g894
sssg2811
(dp2817
ssg142
g2814
sg143
(dp2818
sg145
g138
sg146
g2814
sg147
(dp2819
g2807
(dp2820
sg2811
(dp2821
g2807
g2816
sssbsg738
(lp2822
g2807
ag2811
asg1010
(lp2823
(iconstruction
TP_REL
p2824
(dp2825
g1016
g2811
sg256
g894
sg28
I273
sg1017
g2807
sg7
VIS_273
p2826
sbasg28
I268
sg7
g161
sbsg1328
(iconstruction
TP_SYNFORM
p2827
(dp2828
g28
I269
sg1331
(lp2829
(iconstruction
TP_PHON
p2830
(dp2831
g1341
I5
sg1338
I0
sg28
I274
sg1342
Vpunch
p2832
sg7
g2798
sbasg7
g161
sbsg1349
I1
sba(iconstruction
CXN
p2833
(dp2834
g233
(iconstruction
TP_SYMLINKS
p2835
(dp2836
g236
(dp2837
VN1_279
p2838
VS1_281
p2839
ssg28
I277
sg7
g161
sbsg242
VV
p2840
sg244
I1
sg7
VWEAR
p2841
sg246
(iconstruction
TP_SEMFRAME
p2842
(dp2843
g143
g0
(g131
g2
Ntp2844
Rp2845
(dp2846
g135
(dp2847
(iconstruction
TP_NODE
p2848
(dp2849
g255
I00
sg256
g792
sg7
g2838
sg1313
I00
sg1314
I00
sg28
I279
sb(dp2850
g1313
I00
sg256
g792
ss(iconstruction
TP_NODE
p2851
(dp2852
g255
I01
sg256
g747
sg7
VACT_278
p2853
sg1313
I01
sg1314
I00
sg28
I278
sb(dp2854
g1313
I01
sg256
g747
sssg137
g138
sg139
g138
sg140
(dp2855
g2848
(dp2856
sg2851
(dp2857
g2848
(dp2858
g256
g894
ssssg142
g2855
sg143
(dp2859
sg145
g138
sg146
g2855
sg147
(dp2860
g2848
(dp2861
g2851
g2858
ssg2851
(dp2862
ssbsg738
(lp2863
g2851
ag2848
asg1010
(lp2864
(iconstruction
TP_REL
p2865
(dp2866
g1016
g2848
sg256
g894
sg28
I280
sg1017
g2851
sg7
VIS_280
p2867
sbasg28
I275
sg7
g161
sbsg1328
(iconstruction
TP_SYNFORM
p2868
(dp2869
g28
I276
sg1331
(lp2870
(iconstruction
TP_PHON
p2871
(dp2872
g1341
I4
sg1338
I0
sg28
I281
sg1342
Vwear
p2873
sg7
g2839
sbasg7
g161
sbsg1349
I1
sba(iconstruction
CXN
p2874
(dp2875
g233
(iconstruction
TP_SYMLINKS
p2876
(dp2877
g236
(dp2878
VN1_286
p2879
VS1_288
p2880
ssg28
I284
sg7
g161
sbsg242
VV
p2881
sg244
I1
sg7
VLAUGH
p2882
sg246
(iconstruction
TP_SEMFRAME
p2883
(dp2884
g143
g0
(g131
g2
Ntp2885
Rp2886
(dp2887
g135
(dp2888
(iconstruction
TP_NODE
p2889
(dp2890
g255
I01
sg256
g747
sg7
VACT_285
p2891
sg1313
I01
sg1314
I00
sg28
I285
sb(dp2892
g1313
I01
sg256
g747
ss(iconstruction
TP_NODE
p2893
(dp2894
g255
I00
sg256
g762
sg7
g2879
sg1313
I00
sg1314
I00
sg28
I286
sb(dp2895
g1313
I00
sg256
g762
sssg137
g138
sg139
g138
sg140
(dp2896
g2889
(dp2897
g2893
(dp2898
g256
g894
sssg2893
(dp2899
ssg142
g2896
sg143
(dp2900
sg145
g138
sg146
g2896
sg147
(dp2901
g2889
(dp2902
sg2893
(dp2903
g2889
g2898
sssbsg738
(lp2904
g2889
ag2893
asg1010
(lp2905
(iconstruction
TP_REL
p2906
(dp2907
g1016
g2893
sg256
g894
sg28
I287
sg1017
g2889
sg7
VIS_287
p2908
sbasg28
I282
sg7
g161
sbsg1328
(iconstruction
TP_SYNFORM
p2909
(dp2910
g28
I283
sg1331
(lp2911
(iconstruction
TP_PHON
p2912
(dp2913
g1341
I5
sg1338
I0
sg28
I288
sg1342
Vlaugh
p2914
sg7
g2880
sbasg7
g161
sbsg1349
I1
sba(iconstruction
CXN
p2915
(dp2916
g233
(iconstruction
TP_SYMLINKS
p2917
(dp2918
g236
(dp2919
VN1_293
p2920
VS1_295
p2921
ssg28
I291
sg7
g161
sbsg242
VV
p2922
sg244
I1
sg7
VWATCH
p2923
sg246
(iconstruction
TP_SEMFRAME
p2924
(dp2925
g143
g0
(g131
g2
Ntp2926
Rp2927
(dp2928
g135
(dp2929
(iconstruction
TP_NODE
p2930
(dp2931
g255
I00
sg256
g771
sg7
g2920
sg1313
I00
sg1314
I00
sg28
I293
sb(dp2932
g1313
I00
sg256
g771
ss(iconstruction
TP_NODE
p2933
(dp2934
g255
I01
sg256
g747
sg7
VACT_292
p2935
sg1313
I01
sg1314
I00
sg28
I292
sb(dp2936
g1313
I01
sg256
g747
sssg137
g138
sg139
g138
sg140
(dp2937
g2930
(dp2938
sg2933
(dp2939
g2930
(dp2940
g256
g894
ssssg142
g2937
sg143
(dp2941
sg145
g138
sg146
g2937
sg147
(dp2942
g2930
(dp2943
g2933
g2940
ssg2933
(dp2944
ssbsg738
(lp2945
g2933
ag2930
asg1010
(lp2946
(iconstruction
TP_REL
p2947
(dp2948
g1016
g2930
sg256
g894
sg28
I294
sg1017
g2933
sg7
VIS_294
p2949
sbasg28
I289
sg7
g161
sbsg1328
(iconstruction
TP_SYNFORM
p2950
(dp2951
g28
I290
sg1331
(lp2952
(iconstruction
TP_PHON
p2953
(dp2954
g1341
I5
sg1338
I0
sg28
I295
sg1342
Vwatch
p2955
sg7
g2921
sbasg7
g161
sbsg1349
I1
sba(iconstruction
CXN
p2956
(dp2957
g233
(iconstruction
TP_SYMLINKS
p2958
(dp2959
g236
(dp2960
VN1_300
p2961
VS1_302
p2962
ssg28
I298
sg7
g161
sbsg242
VV
p2963
sg244
I1
sg7
VTALK
p2964
sg246
(iconstruction
TP_SEMFRAME
p2965
(dp2966
g143
g0
(g131
g2
Ntp2967
Rp2968
(dp2969
g135
(dp2970
(iconstruction
TP_NODE
p2971
(dp2972
g255
I00
sg256
g780
sg7
g2961
sg1313
I00
sg1314
I00
sg28
I300
sb(dp2973
g1313
I00
sg256
g780
ss(iconstruction
TP_NODE
p2974
(dp2975
g255
I01
sg256
g747
sg7
VACT_299
p2976
sg1313
I01
sg1314
I00
sg28
I299
sb(dp2977
g1313
I01
sg256
g747
sssg137
g138
sg139
g138
sg140
(dp2978
g2971
(dp2979
sg2974
(dp2980
g2971
(dp2981
g256
g894
ssssg142
g2978
sg143
(dp2982
sg145
g138
sg146
g2978
sg147
(dp2983
g2971
(dp2984
g2974
g2981
ssg2974
(dp2985
ssbsg738
(lp2986
g2974
ag2971
asg1010
(lp2987
(iconstruction
TP_REL
p2988
(dp2989
g1016
g2971
sg256
g894
sg28
I301
sg1017
g2974
sg7
VIS_301
p2990
sbasg28
I296
sg7
g161
sbsg1328
(iconstruction
TP_SYNFORM
p2991
(dp2992
g28
I297
sg1331
(lp2993
(iconstruction
TP_PHON
p2994
(dp2995
g1341
I4
sg1338
I0
sg28
I302
sg1342
Vtalk
p2996
sg7
g2962
sba(iconstruction
TP_PHON
p2997
(dp2998
g1341
I2
sg1338
I1
sg28
I303
sg1342
Vto
p2999
sg7
VS2_303
p3000
sbasg7
g161
sbsg1349
I1
sba(iconstruction
CXN
p3001
(dp3002
g233
(iconstruction
TP_SYMLINKS
p3003
(dp3004
g236
(dp3005
VN1_308
p3006
VS1_310
p3007
ssg28
I306
sg7
g161
sbsg242
VV
p3008
sg244
I1
sg7
VSQUIRT
p3009
sg246
(iconstruction
TP_SEMFRAME
p3010
(dp3011
g143
g0
(g131
g2
Ntp3012
Rp3013
(dp3014
g135
(dp3015
(iconstruction
TP_NODE
p3016
(dp3017
g255
I00
sg256
g786
sg7
g3006
sg1313
I00
sg1314
I00
sg28
I308
sb(dp3018
g1313
I00
sg256
g786
ss(iconstruction
TP_NODE
p3019
(dp3020
g255
I01
sg256
g747
sg7
VACT_307
p3021
sg1313
I01
sg1314
I00
sg28
I307
sb(dp3022
g1313
I01
sg256
g747
sssg137
g138
sg139
g138
sg140
(dp3023
g3016
(dp3024
sg3019
(dp3025
g3016
(dp3026
g256
g894
ssssg142
g3023
sg143
(dp3027
sg145
g138
sg146
g3023
sg147
(dp3028
g3016
(dp3029
g3019
g3026
ssg3019
(dp3030
ssbsg738
(lp3031
g3019
ag3016
asg1010
(lp3032
(iconstruction
TP_REL
p3033
(dp3034
g1016
g3016
sg256
g894
sg28
I309
sg1017
g3019
sg7
VIS_309
p3035
sbasg28
I304
sg7
g161
sbsg1328
(iconstruction
TP_SYNFORM
p3036
(dp3037
g28
I305
sg1331
(lp3038
(iconstruction
TP_PHON
p3039
(dp3040
g1341
I6
sg1338
I0
sg28
I310
sg1342
Vsquirt
p3041
sg7
g3007
sba(iconstruction
TP_PHON
p3042
(dp3043
g1341
I2
sg1338
I1
sg28
I311
sg1342
Vat
p3044
sg7
VS2_311
p3045
sbasg7
g161
sbsg1349
I1
sba(iconstruction
CXN
p3046
(dp3047
g233
(iconstruction
TP_SYMLINKS
p3048
(dp3049
g236
(dp3050
VN1_316
p3051
VS1_318
p3052
ssg28
I314
sg7
g161
sbsg242
VV
p3053
sg244
I1
sg7
VSPLASH
p3054
sg246
(iconstruction
TP_SEMFRAME
p3055
(dp3056
g143
g0
(g131
g2
Ntp3057
Rp3058
(dp3059
g135
(dp3060
(iconstruction
TP_NODE
p3061
(dp3062
g255
I00
sg256
g777
sg7
g3051
sg1313
I00
sg1314
I00
sg28
I316
sb(dp3063
g1313
I00
sg256
g777
ss(iconstruction
TP_NODE
p3064
(dp3065
g255
I01
sg256
g747
sg7
VACT_315
p3066
sg1313
I01
sg1314
I00
sg28
I315
sb(dp3067
g1313
I01
sg256
g747
sssg137
g138
sg139
g138
sg140
(dp3068
g3061
(dp3069
sg3064
(dp3070
g3061
(dp3071
g256
g894
ssssg142
g3068
sg143
(dp3072
sg145
g138
sg146
g3068
sg147
(dp3073
g3061
(dp3074
g3064
g3071
ssg3064
(dp3075
ssbsg738
(lp3076
g3064
ag3061
asg1010
(lp3077
(iconstruction
TP_REL
p3078
(dp3079
g1016
g3061
sg256
g894
sg28
I317
sg1017
g3064
sg7
VIS_317
p3080
sbasg28
I312
sg7
g161
sbsg1328
(iconstruction
TP_SYNFORM
p3081
(dp3082
g28
I313
sg1331
(lp3083
(iconstruction
TP_PHON
p3084
(dp3085
g1341
I6
sg1338
I0
sg28
I318
sg1342
Vsplash
p3086
sg7
g3052
sbasg7
g161
sbsg1349
I1
sba(iconstruction
CXN
p3087
(dp3088
g233
(iconstruction
TP_SYMLINKS
p3089
(dp3090
g236
(dp3091
VN1_323
p3092
VS1_325
p3093
ssg28
I321
sg7
g161
sbsg242
VV
p3094
sg244
I1
sg7
VGIVE
p3095
sg246
(iconstruction
TP_SEMFRAME
p3096
(dp3097
g143
g0
(g131
g2
Ntp3098
Rp3099
(dp3100
g135
(dp3101
(iconstruction
TP_NODE
p3102
(dp3103
g255
I01
sg256
g747
sg7
VACT_322
p3104
sg1313
I01
sg1314
I00
sg28
I322
sb(dp3105
g1313
I01
sg256
g747
ss(iconstruction
TP_NODE
p3106
(dp3107
g255
I00
sg256
g801
sg7
g3092
sg1313
I00
sg1314
I00
sg28
I323
sb(dp3108
g1313
I00
sg256
g801
sssg137
g138
sg139
g138
sg140
(dp3109
g3102
(dp3110
g3106
(dp3111
g256
g894
sssg3106
(dp3112
ssg142
g3109
sg143
(dp3113
sg145
g138
sg146
g3109
sg147
(dp3114
g3102
(dp3115
sg3106
(dp3116
g3102
g3111
sssbsg738
(lp3117
g3102
ag3106
asg1010
(lp3118
(iconstruction
TP_REL
p3119
(dp3120
g1016
g3106
sg256
g894
sg28
I324
sg1017
g3102
sg7
VIS_324
p3121
sbasg28
I319
sg7
g161
sbsg1328
(iconstruction
TP_SYNFORM
p3122
(dp3123
g28
I320
sg1331
(lp3124
(iconstruction
TP_PHON
p3125
(dp3126
g1341
I4
sg1338
I0
sg28
I325
sg1342
Vgive
p3127
sg7
g3093
sbasg7
g161
sbsg1349
I1
sba(iconstruction
CXN
p3128
(dp3129
g233
(iconstruction
TP_SYMLINKS
p3130
(dp3131
g236
(dp3132
VN1_330
p3133
VS1_332
p3134
ssg28
I328
sg7
g161
sbsg242
VV
p3135
sg244
I1
sg7
VSEND
p3136
sg246
(iconstruction
TP_SEMFRAME
p3137
(dp3138
g143
g0
(g131
g2
Ntp3139
Rp3140
(dp3141
g135
(dp3142
(iconstruction
TP_NODE
p3143
(dp3144
g255
I00
sg256
g798
sg7
g3133
sg1313
I00
sg1314
I00
sg28
I330
sb(dp3145
g1313
I00
sg256
g798
ss(iconstruction
TP_NODE
p3146
(dp3147
g255
I01
sg256
g747
sg7
VACT_329
p3148
sg1313
I01
sg1314
I00
sg28
I329
sb(dp3149
g1313
I01
sg256
g747
sssg137
g138
sg139
g138
sg140
(dp3150
g3143
(dp3151
sg3146
(dp3152
g3143
(dp3153
g256
g894
ssssg142
g3150
sg143
(dp3154
sg145
g138
sg146
g3150
sg147
(dp3155
g3143
(dp3156
g3146
g3153
ssg3146
(dp3157
ssbsg738
(lp3158
g3146
ag3143
asg1010
(lp3159
(iconstruction
TP_REL
p3160
(dp3161
g1016
g3143
sg256
g894
sg28
I331
sg1017
g3146
sg7
VIS_331
p3162
sbasg28
I326
sg7
g161
sbsg1328
(iconstruction
TP_SYNFORM
p3163
(dp3164
g28
I327
sg1331
(lp3165
(iconstruction
TP_PHON
p3166
(dp3167
g1341
I4
sg1338
I0
sg28
I332
sg1342
Vsend
p3168
sg7
g3134
sbasg7
g161
sbsg1349
I1
sba(iconstruction
CXN
p3169
(dp3170
g233
(iconstruction
TP_SYMLINKS
p3171
(dp3172
g236
(dp3173
VN1_337
p3174
VS1_339
p3175
ssg28
I335
sg7
g161
sbsg242
VV
p3176
sg244
I1
sg7
VMEET
p3177
sg246
(iconstruction
TP_SEMFRAME
p3178
(dp3179
g143
g0
(g131
g2
Ntp3180
Rp3181
(dp3182
g135
(dp3183
(iconstruction
TP_NODE
p3184
(dp3185
g255
I01
sg256
g747
sg7
VACT_336
p3186
sg1313
I01
sg1314
I00
sg28
I336
sb(dp3187
g1313
I01
sg256
g747
ss(iconstruction
TP_NODE
p3188
(dp3189
g255
I00
sg256
g753
sg7
g3174
sg1313
I00
sg1314
I00
sg28
I337
sb(dp3190
g1313
I00
sg256
g753
sssg137
g138
sg139
g138
sg140
(dp3191
g3184
(dp3192
g3188
(dp3193
g256
g894
sssg3188
(dp3194
ssg142
g3191
sg143
(dp3195
sg145
g138
sg146
g3191
sg147
(dp3196
g3184
(dp3197
sg3188
(dp3198
g3184
g3193
sssbsg738
(lp3199
g3184
ag3188
asg1010
(lp3200
(iconstruction
TP_REL
p3201
(dp3202
g1016
g3188
sg256
g894
sg28
I338
sg1017
g3184
sg7
VIS_338
p3203
sbasg28
I333
sg7
g161
sbsg1328
(iconstruction
TP_SYNFORM
p3204
(dp3205
g28
I334
sg1331
(lp3206
(iconstruction
TP_PHON
p3207
(dp3208
g1341
I4
sg1338
I0
sg28
I339
sg1342
Vmeet
p3209
sg7
g3175
sbasg7
g161
sbsg1349
I1
sba(iconstruction
CXN
p3210
(dp3211
g233
(iconstruction
TP_SYMLINKS
p3212
(dp3213
g236
(dp3214
VN1_344
p3215
VS1_346
p3216
ssg28
I342
sg7
g161
sbsg242
VV
p3217
sg244
I1
sg7
VKISS
p3218
sg246
(iconstruction
TP_SEMFRAME
p3219
(dp3220
g143
g0
(g131
g2
Ntp3221
Rp3222
(dp3223
g135
(dp3224
(iconstruction
TP_NODE
p3225
(dp3226
g255
I01
sg256
g747
sg7
VACT_343
p3227
sg1313
I01
sg1314
I00
sg28
I343
sb(dp3228
g1313
I01
sg256
g747
ss(iconstruction
TP_NODE
p3229
(dp3230
g255
I00
sg256
g783
sg7
g3215
sg1313
I00
sg1314
I00
sg28
I344
sb(dp3231
g1313
I00
sg256
g783
sssg137
g138
sg139
g138
sg140
(dp3232
g3225
(dp3233
g3229
(dp3234
g256
g894
sssg3229
(dp3235
ssg142
g3232
sg143
(dp3236
sg145
g138
sg146
g3232
sg147
(dp3237
g3225
(dp3238
sg3229
(dp3239
g3225
g3234
sssbsg738
(lp3240
g3225
ag3229
asg1010
(lp3241
(iconstruction
TP_REL
p3242
(dp3243
g1016
g3229
sg256
g894
sg28
I345
sg1017
g3225
sg7
VIS_345
p3244
sbasg28
I340
sg7
g161
sbsg1328
(iconstruction
TP_SYNFORM
p3245
(dp3246
g28
I341
sg1331
(lp3247
(iconstruction
TP_PHON
p3248
(dp3249
g1341
I4
sg1338
I0
sg28
I346
sg1342
Vkiss
p3250
sg7
g3216
sbasg7
g161
sbsg1349
I1
sba(iconstruction
CXN
p3251
(dp3252
g233
(iconstruction
TP_SYMLINKS
p3253
(dp3254
g236
(dp3255
VN1_351
p3256
VS1_353
p3257
ssg28
I349
sg7
g161
sbsg242
VV
p3258
sg244
I1
sg7
VSHAKE_HANDS
p3259
sg246
(iconstruction
TP_SEMFRAME
p3260
(dp3261
g143
g0
(g131
g2
Ntp3262
Rp3263
(dp3264
g135
(dp3265
(iconstruction
TP_NODE
p3266
(dp3267
g255
I00
sg256
g756
sg7
g3256
sg1313
I00
sg1314
I00
sg28
I351
sb(dp3268
g1313
I00
sg256
g756
ss(iconstruction
TP_NODE
p3269
(dp3270
g255
I01
sg256
g747
sg7
VACT_350
p3271
sg1313
I01
sg1314
I00
sg28
I350
sb(dp3272
g1313
I01
sg256
g747
sssg137
g138
sg139
g138
sg140
(dp3273
g3266
(dp3274
sg3269
(dp3275
g3266
(dp3276
g256
g894
ssssg142
g3273
sg143
(dp3277
sg145
g138
sg146
g3273
sg147
(dp3278
g3266
(dp3279
g3269
g3276
ssg3269
(dp3280
ssbsg738
(lp3281
g3269
ag3266
asg1010
(lp3282
(iconstruction
TP_REL
p3283
(dp3284
g1016
g3266
sg256
g894
sg28
I352
sg1017
g3269
sg7
VIS_352
p3285
sbasg28
I347
sg7
g161
sbsg1328
(iconstruction
TP_SYNFORM
p3286
(dp3287
g28
I348
sg1331
(lp3288
(iconstruction
TP_PHON
p3289
(dp3290
g1341
I10
sg1338
I0
sg28
I353
sg1342
Vshake hands
p3291
sg7
g3257
sbasg7
g161
sbsg1349
I1
sba(iconstruction
CXN
p3292
(dp3293
g233
(iconstruction
TP_SYMLINKS
p3294
(dp3295
g236
(dp3296
VN1_357
p3297
VS1_358
p3298
ssg28
I356
sg7
g161
sbsg242
VA
p3299
sg244
I1
sg7
VBLUE
p3300
sg246
(iconstruction
TP_SEMFRAME
p3301
(dp3302
g143
g0
(g131
g2
Ntp3303
Rp3304
(dp3305
g135
(dp3306
(iconstruction
TP_NODE
p3307
(dp3308
g255
I01
sg256
g810
sg7
g3297
sg1313
I00
sg1314
I00
sg28
I357
sb(dp3309
g1313
I00
sg256
g810
sssg137
g138
sg139
g138
sg140
(dp3310
g3307
(dp3311
ssg142
g3310
sg143
(dp3312
sg145
g138
sg146
g3310
sg147
(dp3313
g3307
(dp3314
ssbsg738
(lp3315
g3307
asg1010
(lp3316
sg28
I354
sg7
g161
sbsg1328
(iconstruction
TP_SYNFORM
p3317
(dp3318
g28
I355
sg1331
(lp3319
(iconstruction
TP_PHON
p3320
(dp3321
g1341
I4
sg1338
I0
sg28
I358
sg1342
Vblue
p3322
sg7
g3298
sbasg7
g161
sbsg1349
I1
sba(iconstruction
CXN
p3323
(dp3324
g233
(iconstruction
TP_SYMLINKS
p3325
(dp3326
g236
(dp3327
VN1_362
p3328
VS1_363
p3329
ssg28
I361
sg7
g161
sbsg242
VA
p3330
sg244
I1
sg7
VBLACK
p3331
sg246
(iconstruction
TP_SEMFRAME
p3332
(dp3333
g143
g0
(g131
g2
Ntp3334
Rp3335
(dp3336
g135
(dp3337
(iconstruction
TP_NODE
p3338
(dp3339
g255
I01
sg256
g819
sg7
g3328
sg1313
I00
sg1314
I00
sg28
I362
sb(dp3340
g1313
I00
sg256
g819
sssg137
g138
sg139
g138
sg140
(dp3341
g3338
(dp3342
ssg142
g3341
sg143
(dp3343
sg145
g138
sg146
g3341
sg147
(dp3344
g3338
(dp3345
ssbsg738
(lp3346
g3338
asg1010
(lp3347
sg28
I359
sg7
g161
sbsg1328
(iconstruction
TP_SYNFORM
p3348
(dp3349
g28
I360
sg1331
(lp3350
(iconstruction
TP_PHON
p3351
(dp3352
g1341
I5
sg1338
I0
sg28
I363
sg1342
Vblack
p3353
sg7
g3329
sbasg7
g161
sbsg1349
I1
sba(iconstruction
CXN
p3354
(dp3355
g233
(iconstruction
TP_SYMLINKS
p3356
(dp3357
g236
(dp3358
VN1_367
p3359
VS1_368
p3360
ssg28
I366
sg7
g161
sbsg242
VA
p3361
sg244
I1
sg7
VGREEN
p3362
sg246
(iconstruction
TP_SEMFRAME
p3363
(dp3364
g143
g0
(g131
g2
Ntp3365
Rp3366
(dp3367
g135
(dp3368
(iconstruction
TP_NODE
p3369
(dp3370
g255
I01
sg256
g813
sg7
g3359
sg1313
I00
sg1314
I00
sg28
I367
sb(dp3371
g1313
I00
sg256
g813
sssg137
g138
sg139
g138
sg140
(dp3372
g3369
(dp3373
ssg142
g3372
sg143
(dp3374
sg145
g138
sg146
g3372
sg147
(dp3375
g3369
(dp3376
ssbsg738
(lp3377
g3369
asg1010
(lp3378
sg28
I364
sg7
g161
sbsg1328
(iconstruction
TP_SYNFORM
p3379
(dp3380
g28
I365
sg1331
(lp3381
(iconstruction
TP_PHON
p3382
(dp3383
g1341
I5
sg1338
I0
sg28
I368
sg1342
Vgreen
p3384
sg7
g3360
sbasg7
g161
sbsg1349
I1
sba(iconstruction
CXN
p3385
(dp3386
g233
(iconstruction
TP_SYMLINKS
p3387
(dp3388
g236
(dp3389
VN1_372
p3390
VS1_373
p3391
ssg28
I371
sg7
g161
sbsg242
VA
p3392
sg244
I1
sg7
VSMALL
p3393
sg246
(iconstruction
TP_SEMFRAME
p3394
(dp3395
g143
g0
(g131
g2
Ntp3396
Rp3397
(dp3398
g135
(dp3399
(iconstruction
TP_NODE
p3400
(dp3401
g255
I01
sg256
g840
sg7
g3390
sg1313
I00
sg1314
I00
sg28
I372
sb(dp3402
g1313
I00
sg256
g840
sssg137
g138
sg139
g138
sg140
(dp3403
g3400
(dp3404
ssg142
g3403
sg143
(dp3405
sg145
g138
sg146
g3403
sg147
(dp3406
g3400
(dp3407
ssbsg738
(lp3408
g3400
asg1010
(lp3409
sg28
I369
sg7
g161
sbsg1328
(iconstruction
TP_SYNFORM
p3410
(dp3411
g28
I370
sg1331
(lp3412
(iconstruction
TP_PHON
p3413
(dp3414
g1341
I5
sg1338
I0
sg28
I373
sg1342
Vsmall
p3415
sg7
g3391
sbasg7
g161
sbsg1349
I1
sba(iconstruction
CXN
p3416
(dp3417
g233
(iconstruction
TP_SYMLINKS
p3418
(dp3419
g236
(dp3420
VN1_377
p3421
VS1_378
p3422
ssg28
I376
sg7
g161
sbsg242
VA
p3423
sg244
I1
sg7
VBIG
p3424
sg246
(iconstruction
TP_SEMFRAME
p3425
(dp3426
g143
g0
(g131
g2
Ntp3427
Rp3428
(dp3429
g135
(dp3430
(iconstruction
TP_NODE
p3431
(dp3432
g255
I01
sg256
g843
sg7
g3421
sg1313
I00
sg1314
I00
sg28
I377
sb(dp3433
g1313
I00
sg256
g843
sssg137
g138
sg139
g138
sg140
(dp3434
g3431
(dp3435
ssg142
g3434
sg143
(dp3436
sg145
g138
sg146
g3434
sg147
(dp3437
g3431
(dp3438
ssbsg738
(lp3439
g3431
asg1010
(lp3440
sg28
I374
sg7
g161
sbsg1328
(iconstruction
TP_SYNFORM
p3441
(dp3442
g28
I375
sg1331
(lp3443
(iconstruction
TP_PHON
p3444
(dp3445
g1341
I3
sg1338
I0
sg28
I378
sg1342
Vbig
p3446
sg7
g3422
sbasg7
g161
sbsg1349
I1
sba(iconstruction
CXN
p3447
(dp3448
g233
(iconstruction
TP_SYMLINKS
p3449
(dp3450
g236
(dp3451
VN1_382
p3452
VS1_383
p3453
ssg28
I381
sg7
g161
sbsg242
VA
p3454
sg244
I1
sg7
VHANDSOME
p3455
sg246
(iconstruction
TP_SEMFRAME
p3456
(dp3457
g143
g0
(g131
g2
Ntp3458
Rp3459
(dp3460
g135
(dp3461
(iconstruction
TP_NODE
p3462
(dp3463
g255
I01
sg256
g834
sg7
g3452
sg1313
I00
sg1314
I00
sg28
I382
sb(dp3464
g1313
I00
sg256
g834
sssg137
g138
sg139
g138
sg140
(dp3465
g3462
(dp3466
ssg142
g3465
sg143
(dp3467
sg145
g138
sg146
g3465
sg147
(dp3468
g3462
(dp3469
ssbsg738
(lp3470
g3462
asg1010
(lp3471
sg28
I379
sg7
g161
sbsg1328
(iconstruction
TP_SYNFORM
p3472
(dp3473
g28
I380
sg1331
(lp3474
(iconstruction
TP_PHON
p3475
(dp3476
g1341
I8
sg1338
I0
sg28
I383
sg1342
Vhandsome
p3477
sg7
g3453
sbasg7
g161
sbsg1349
I1
sba(iconstruction
CXN
p3478
(dp3479
g233
(iconstruction
TP_SYMLINKS
p3480
(dp3481
g236
(dp3482
VN1_387
p3483
VS1_388
p3484
ssg28
I386
sg7
g161
sbsg242
VA
p3485
sg244
I1
sg7
VPRETTY
p3486
sg246
(iconstruction
TP_SEMFRAME
p3487
(dp3488
g143
g0
(g131
g2
Ntp3489
Rp3490
(dp3491
g135
(dp3492
(iconstruction
TP_NODE
p3493
(dp3494
g255
I01
sg256
g831
sg7
g3483
sg1313
I00
sg1314
I00
sg28
I387
sb(dp3495
g1313
I00
sg256
g831
sssg137
g138
sg139
g138
sg140
(dp3496
g3493
(dp3497
ssg142
g3496
sg143
(dp3498
sg145
g138
sg146
g3496
sg147
(dp3499
g3493
(dp3500
ssbsg738
(lp3501
g3493
asg1010
(lp3502
sg28
I384
sg7
g161
sbsg1328
(iconstruction
TP_SYNFORM
p3503
(dp3504
g28
I385
sg1331
(lp3505
(iconstruction
TP_PHON
p3506
(dp3507
g1341
I6
sg1338
I0
sg28
I388
sg1342
Vpretty
p3508
sg7
g3484
sbasg7
g161
sbsg1349
I1
sba(iconstruction
CXN
p3509
(dp3510
g233
(iconstruction
TP_SYMLINKS
p3511
(dp3512
g236
(dp3513
VN1_392
p3514
VS1_393
p3515
ssg28
I391
sg7
g161
sbsg242
VA
p3516
sg244
I1
sg7
VYOUNG
p3517
sg246
(iconstruction
TP_SEMFRAME
p3518
(dp3519
g143
g0
(g131
g2
Ntp3520
Rp3521
(dp3522
g135
(dp3523
(iconstruction
TP_NODE
p3524
(dp3525
g255
I01
sg256
g828
sg7
g3514
sg1313
I00
sg1314
I00
sg28
I392
sb(dp3526
g1313
I00
sg256
g828
sssg137
g138
sg139
g138
sg140
(dp3527
g3524
(dp3528
ssg142
g3527
sg143
(dp3529
sg145
g138
sg146
g3527
sg147
(dp3530
g3524
(dp3531
ssbsg738
(lp3532
g3524
asg1010
(lp3533
sg28
I389
sg7
g161
sbsg1328
(iconstruction
TP_SYNFORM
p3534
(dp3535
g28
I390
sg1331
(lp3536
(iconstruction
TP_PHON
p3537
(dp3538
g1341
I5
sg1338
I0
sg28
I393
sg1342
Vyoung
p3539
sg7
g3515
sbasg7
g161
sbsg1349
I1
sba(iconstruction
CXN
p3540
(dp3541
g233
(iconstruction
TP_SYMLINKS
p3542
(dp3543
g236
(dp3544
VN1_398
p3545
VS1_400
p3546
ssg28
I396
sg7
g161
sbsg242
VN
p3547
sg244
I1
sg7
VWOMAN
p3548
sg246
(iconstruction
TP_SEMFRAME
p3549
(dp3550
g143
g0
(g131
g2
Ntp3551
Rp3552
(dp3553
g135
(dp3554
(iconstruction
TP_NODE
p3555
(dp3556
g255
I00
sg256
g966
sg7
g3545
sg1313
I00
sg1314
I00
sg28
I398
sb(dp3557
g1313
I00
sg256
g966
ss(iconstruction
TP_NODE
p3558
(dp3559
g255
I01
sg256
g900
sg7
VENT_397
p3560
sg1313
I01
sg1314
I00
sg28
I397
sb(dp3561
g1313
I01
sg256
g900
sssg137
g138
sg139
g138
sg140
(dp3562
g3555
(dp3563
sg3558
(dp3564
g3555
(dp3565
g256
g894
ssssg142
g3562
sg143
(dp3566
sg145
g138
sg146
g3562
sg147
(dp3567
g3555
(dp3568
g3558
g3565
ssg3558
(dp3569
ssbsg738
(lp3570
g3558
ag3555
asg1010
(lp3571
(iconstruction
TP_REL
p3572
(dp3573
g1016
g3555
sg256
g894
sg28
I399
sg1017
g3558
sg7
VIS_399
p3574
sbasg28
I394
sg7
g161
sbsg1328
(iconstruction
TP_SYNFORM
p3575
(dp3576
g28
I395
sg1331
(lp3577
(iconstruction
TP_PHON
p3578
(dp3579
g1341
I5
sg1338
I0
sg28
I400
sg1342
Vwoman
p3580
sg7
g3546
sbasg7
g161
sbsg1349
I1
sba(iconstruction
CXN
p3581
(dp3582
g233
(iconstruction
TP_SYMLINKS
p3583
(dp3584
g236
(dp3585
VN1_405
p3586
VS1_407
p3587
ssg28
I403
sg7
g161
sbsg242
VN
p3588
sg244
I1
sg7
VWOMAN2
p3589
sg246
(iconstruction
TP_SEMFRAME
p3590
(dp3591
g143
g0
(g131
g2
Ntp3592
Rp3593
(dp3594
g135
(dp3595
(iconstruction
TP_NODE
p3596
(dp3597
g255
I01
sg256
g900
sg7
VENT_404
p3598
sg1313
I01
sg1314
I00
sg28
I404
sb(dp3599
g1313
I01
sg256
g900
ss(iconstruction
TP_NODE
p3600
(dp3601
g255
I00
sg256
g966
sg7
g3586
sg1313
I00
sg1314
I00
sg28
I405
sb(dp3602
g1313
I00
sg256
g966
sssg137
g138
sg139
g138
sg140
(dp3603
g3596
(dp3604
g3600
(dp3605
g256
g894
sssg3600
(dp3606
ssg142
g3603
sg143
(dp3607
sg145
g138
sg146
g3603
sg147
(dp3608
g3596
(dp3609
sg3600
(dp3610
g3596
g3605
sssbsg738
(lp3611
g3596
ag3600
asg1010
(lp3612
(iconstruction
TP_REL
p3613
(dp3614
g1016
g3600
sg256
g894
sg28
I406
sg1017
g3596
sg7
VIS_406
p3615
sbasg28
I401
sg7
g161
sbsg1328
(iconstruction
TP_SYNFORM
p3616
(dp3617
g28
I402
sg1331
(lp3618
(iconstruction
TP_PHON
p3619
(dp3620
g1341
I4
sg1338
I0
sg28
I407
sg1342
Vlady
p3621
sg7
g3587
sbasg7
g161
sbsg1349
I1
sba(iconstruction
CXN
p3622
(dp3623
g233
(iconstruction
TP_SYMLINKS
p3624
(dp3625
g236
(dp3626
VN1_412
p3627
VS1_414
p3628
ssg28
I410
sg7
g161
sbsg242
VN
p3629
sg244
I1
sg7
VMAN
p3630
sg246
(iconstruction
TP_SEMFRAME
p3631
(dp3632
g143
g0
(g131
g2
Ntp3633
Rp3634
(dp3635
g135
(dp3636
(iconstruction
TP_NODE
p3637
(dp3638
g255
I00
sg256
g993
sg7
g3627
sg1313
I00
sg1314
I00
sg28
I412
sb(dp3639
g1313
I00
sg256
g993
ss(iconstruction
TP_NODE
p3640
(dp3641
g255
I01
sg256
g900
sg7
VENT_411
p3642
sg1313
I01
sg1314
I00
sg28
I411
sb(dp3643
g1313
I01
sg256
g900
sssg137
g138
sg139
g138
sg140
(dp3644
g3637
(dp3645
sg3640
(dp3646
g3637
(dp3647
g256
g894
ssssg142
g3644
sg143
(dp3648
sg145
g138
sg146
g3644
sg147
(dp3649
g3637
(dp3650
g3640
g3647
ssg3640
(dp3651
ssbsg738
(lp3652
g3640
ag3637
asg1010
(lp3653
(iconstruction
TP_REL
p3654
(dp3655
g1016
g3637
sg256
g894
sg28
I413
sg1017
g3640
sg7
VIS_413
p3656
sbasg28
I408
sg7
g161
sbsg1328
(iconstruction
TP_SYNFORM
p3657
(dp3658
g28
I409
sg1331
(lp3659
(iconstruction
TP_PHON
p3660
(dp3661
g1341
I3
sg1338
I0
sg28
I414
sg1342
Vman
p3662
sg7
g3628
sbasg7
g161
sbsg1349
I1
sba(iconstruction
CXN
p3663
(dp3664
g233
(iconstruction
TP_SYMLINKS
p3665
(dp3666
g236
(dp3667
VN1_419
p3668
VS1_421
p3669
ssg28
I417
sg7
g161
sbsg242
VN
p3670
sg244
I1
sg7
VGIRL
p3671
sg246
(iconstruction
TP_SEMFRAME
p3672
(dp3673
g143
g0
(g131
g2
Ntp3674
Rp3675
(dp3676
g135
(dp3677
(iconstruction
TP_NODE
p3678
(dp3679
g255
I00
sg256
g984
sg7
g3668
sg1313
I00
sg1314
I00
sg28
I419
sb(dp3680
g1313
I00
sg256
g984
ss(iconstruction
TP_NODE
p3681
(dp3682
g255
I01
sg256
g900
sg7
VENT_418
p3683
sg1313
I01
sg1314
I00
sg28
I418
sb(dp3684
g1313
I01
sg256
g900
sssg137
g138
sg139
g138
sg140
(dp3685
g3678
(dp3686
sg3681
(dp3687
g3678
(dp3688
g256
g894
ssssg142
g3685
sg143
(dp3689
sg145
g138
sg146
g3685
sg147
(dp3690
g3678
(dp3691
g3681
g3688
ssg3681
(dp3692
ssbsg738
(lp3693
g3681
ag3678
asg1010
(lp3694
(iconstruction
TP_REL
p3695
(dp3696
g1016
g3678
sg256
g894
sg28
I420
sg1017
g3681
sg7
VIS_420
p3697
sbasg28
I415
sg7
g161
sbsg1328
(iconstruction
TP_SYNFORM
p3698
(dp3699
g28
I416
sg1331
(lp3700
(iconstruction
TP_PHON
p3701
(dp3702
g1341
I4
sg1338
I0
sg28
I421
sg1342
Vgirl
p3703
sg7
g3669
sbasg7
g161
sbsg1349
I1
sba(iconstruction
CXN
p3704
(dp3705
g233
(iconstruction
TP_SYMLINKS
p3706
(dp3707
g236
(dp3708
VN1_426
p3709
VS1_428
p3710
ssg28
I424
sg7
g161
sbsg242
VN
p3711
sg244
I1
sg7
VBOY
p3712
sg246
(iconstruction
TP_SEMFRAME
p3713
(dp3714
g143
g0
(g131
g2
Ntp3715
Rp3716
(dp3717
g135
(dp3718
(iconstruction
TP_NODE
p3719
(dp3720
g255
I01
sg256
g900
sg7
VENT_425
p3721
sg1313
I01
sg1314
I00
sg28
I425
sb(dp3722
g1313
I01
sg256
g900
ss(iconstruction
TP_NODE
p3723
(dp3724
g255
I00
sg256
g963
sg7
g3709
sg1313
I00
sg1314
I00
sg28
I426
sb(dp3725
g1313
I00
sg256
g963
sssg137
g138
sg139
g138
sg140
(dp3726
g3719
(dp3727
g3723
(dp3728
g256
g894
sssg3723
(dp3729
ssg142
g3726
sg143
(dp3730
sg145
g138
sg146
g3726
sg147
(dp3731
g3719
(dp3732
sg3723
(dp3733
g3719
g3728
sssbsg738
(lp3734
g3719
ag3723
asg1010
(lp3735
(iconstruction
TP_REL
p3736
(dp3737
g1016
g3723
sg256
g894
sg28
I427
sg1017
g3719
sg7
VIS_427
p3738
sbasg28
I422
sg7
g161
sbsg1328
(iconstruction
TP_SYNFORM
p3739
(dp3740
g28
I423
sg1331
(lp3741
(iconstruction
TP_PHON
p3742
(dp3743
g1341
I3
sg1338
I0
sg28
I428
sg1342
Vboy
p3744
sg7
g3710
sbasg7
g161
sbsg1349
I1
sba(iconstruction
CXN
p3745
(dp3746
g233
(iconstruction
TP_SYMLINKS
p3747
(dp3748
g236
(dp3749
VN1_433
p3750
VS1_435
p3751
ssg28
I431
sg7
g161
sbsg242
VN
p3752
sg244
I1
sg7
VPEOPLE
p3753
sg246
(iconstruction
TP_SEMFRAME
p3754
(dp3755
g143
g0
(g131
g2
Ntp3756
Rp3757
(dp3758
g135
(dp3759
(iconstruction
TP_NODE
p3760
(dp3761
g255
I00
sg256
g969
sg7
g3750
sg1313
I00
sg1314
I00
sg28
I433
sb(dp3762
g1313
I00
sg256
g969
ss(iconstruction
TP_NODE
p3763
(dp3764
g255
I01
sg256
g900
sg7
VENT_432
p3765
sg1313
I01
sg1314
I00
sg28
I432
sb(dp3766
g1313
I01
sg256
g900
sssg137
g138
sg139
g138
sg140
(dp3767
g3760
(dp3768
sg3763
(dp3769
g3760
(dp3770
g256
g894
ssssg142
g3767
sg143
(dp3771
sg145
g138
sg146
g3767
sg147
(dp3772
g3760
(dp3773
g3763
g3770
ssg3763
(dp3774
ssbsg738
(lp3775
g3763
ag3760
asg1010
(lp3776
(iconstruction
TP_REL
p3777
(dp3778
g1016
g3760
sg256
g894
sg28
I434
sg1017
g3763
sg7
VIS_434
p3779
sbasg28
I429
sg7
g161
sbsg1328
(iconstruction
TP_SYNFORM
p3780
(dp3781
g28
I430
sg1331
(lp3782
(iconstruction
TP_PHON
p3783
(dp3784
g1341
I6
sg1338
I0
sg28
I435
sg1342
Vpeople
p3785
sg7
g3751
sbasg7
g161
sbsg1349
I1
sba(iconstruction
CXN
p3786
(dp3787
g233
(iconstruction
TP_SYMLINKS
p3788
(dp3789
g236
(dp3790
VN1_440
p3791
VS1_442
p3792
ssg28
I438
sg7
g161
sbsg242
VN
p3793
sg244
I1
sg7
VMOUSE
p3794
sg246
(iconstruction
TP_SEMFRAME
p3795
(dp3796
g143
g0
(g131
g2
Ntp3797
Rp3798
(dp3799
g135
(dp3800
(iconstruction
TP_NODE
p3801
(dp3802
g255
I01
sg256
g900
sg7
VENT_439
p3803
sg1313
I01
sg1314
I00
sg28
I439
sb(dp3804
g1313
I01
sg256
g900
ss(iconstruction
TP_NODE
p3805
(dp3806
g255
I00
sg256
g957
sg7
g3791
sg1313
I00
sg1314
I00
sg28
I440
sb(dp3807
g1313
I00
sg256
g957
sssg137
g138
sg139
g138
sg140
(dp3808
g3801
(dp3809
g3805
(dp3810
g256
g894
sssg3805
(dp3811
ssg142
g3808
sg143
(dp3812
sg145
g138
sg146
g3808
sg147
(dp3813
g3801
(dp3814
sg3805
(dp3815
g3801
g3810
sssbsg738
(lp3816
g3801
ag3805
asg1010
(lp3817
(iconstruction
TP_REL
p3818
(dp3819
g1016
g3805
sg256
g894
sg28
I441
sg1017
g3801
sg7
VIS_441
p3820
sbasg28
I436
sg7
g161
sbsg1328
(iconstruction
TP_SYNFORM
p3821
(dp3822
g28
I437
sg1331
(lp3823
(iconstruction
TP_PHON
p3824
(dp3825
g1341
I5
sg1338
I0
sg28
I442
sg1342
Vmouse
p3826
sg7
g3792
sbasg7
g161
sbsg1349
I1
sba(iconstruction
CXN
p3827
(dp3828
g233
(iconstruction
TP_SYMLINKS
p3829
(dp3830
g236
(dp3831
VN1_447
p3832
VS1_449
p3833
ssg28
I445
sg7
g161
sbsg242
VN
p3834
sg244
I1
sg7
VTURTLE
p3835
sg246
(iconstruction
TP_SEMFRAME
p3836
(dp3837
g143
g0
(g131
g2
Ntp3838
Rp3839
(dp3840
g135
(dp3841
(iconstruction
TP_NODE
p3842
(dp3843
g255
I00
sg256
g954
sg7
g3832
sg1313
I00
sg1314
I00
sg28
I447
sb(dp3844
g1313
I00
sg256
g954
ss(iconstruction
TP_NODE
p3845
(dp3846
g255
I01
sg256
g900
sg7
VENT_446
p3847
sg1313
I01
sg1314
I00
sg28
I446
sb(dp3848
g1313
I01
sg256
g900
sssg137
g138
sg139
g138
sg140
(dp3849
g3842
(dp3850
sg3845
(dp3851
g3842
(dp3852
g256
g894
ssssg142
g3849
sg143
(dp3853
sg145
g138
sg146
g3849
sg147
(dp3854
g3842
(dp3855
g3845
g3852
ssg3845
(dp3856
ssbsg738
(lp3857
g3845
ag3842
asg1010
(lp3858
(iconstruction
TP_REL
p3859
(dp3860
g1016
g3842
sg256
g894
sg28
I448
sg1017
g3845
sg7
VIS_448
p3861
sbasg28
I443
sg7
g161
sbsg1328
(iconstruction
TP_SYNFORM
p3862
(dp3863
g28
I444
sg1331
(lp3864
(iconstruction
TP_PHON
p3865
(dp3866
g1341
I6
sg1338
I0
sg28
I449
sg1342
Vturtle
p3867
sg7
g3833
sbasg7
g161
sbsg1349
I1
sba(iconstruction
CXN
p3868
(dp3869
g233
(iconstruction
TP_SYMLINKS
p3870
(dp3871
g236
(dp3872
VN1_454
p3873
VS1_456
p3874
ssg28
I452
sg7
g161
sbsg242
VN
p3875
sg244
I1
sg7
VDRESS
p3876
sg246
(iconstruction
TP_SEMFRAME
p3877
(dp3878
g143
g0
(g131
g2
Ntp3879
Rp3880
(dp3881
g135
(dp3882
(iconstruction
TP_NODE
p3883
(dp3884
g255
I00
sg256
g945
sg7
g3873
sg1313
I00
sg1314
I00
sg28
I454
sb(dp3885
g1313
I00
sg256
g945
ss(iconstruction
TP_NODE
p3886
(dp3887
g255
I01
sg256
g900
sg7
VENT_453
p3888
sg1313
I01
sg1314
I00
sg28
I453
sb(dp3889
g1313
I01
sg256
g900
sssg137
g138
sg139
g138
sg140
(dp3890
g3883
(dp3891
sg3886
(dp3892
g3883
(dp3893
g256
g894
ssssg142
g3890
sg143
(dp3894
sg145
g138
sg146
g3890
sg147
(dp3895
g3883
(dp3896
g3886
g3893
ssg3886
(dp3897
ssbsg738
(lp3898
g3886
ag3883
asg1010
(lp3899
(iconstruction
TP_REL
p3900
(dp3901
g1016
g3883
sg256
g894
sg28
I455
sg1017
g3886
sg7
VIS_455
p3902
sbasg28
I450
sg7
g161
sbsg1328
(iconstruction
TP_SYNFORM
p3903
(dp3904
g28
I451
sg1331
(lp3905
(iconstruction
TP_PHON
p3906
(dp3907
g1341
I5
sg1338
I0
sg28
I456
sg1342
Vdress
p3908
sg7
g3874
sbasg7
g161
sbsg1349
I1
sba(iconstruction
CXN
p3909
(dp3910
g233
(iconstruction
TP_SYMLINKS
p3911
(dp3912
g236
(dp3913
VN1_461
p3914
VS1_463
p3915
ssg28
I459
sg7
g161
sbsg242
VN
p3916
sg244
I1
sg7
VTSHIRT
p3917
sg246
(iconstruction
TP_SEMFRAME
p3918
(dp3919
g143
g0
(g131
g2
Ntp3920
Rp3921
(dp3922
g135
(dp3923
(iconstruction
TP_NODE
p3924
(dp3925
g255
I01
sg256
g900
sg7
VENT_460
p3926
sg1313
I01
sg1314
I00
sg28
I460
sb(dp3927
g1313
I01
sg256
g900
ss(iconstruction
TP_NODE
p3928
(dp3929
g255
I00
sg256
g942
sg7
g3914
sg1313
I00
sg1314
I00
sg28
I461
sb(dp3930
g1313
I00
sg256
g942
sssg137
g138
sg139
g138
sg140
(dp3931
g3924
(dp3932
g3928
(dp3933
g256
g894
sssg3928
(dp3934
ssg142
g3931
sg143
(dp3935
sg145
g138
sg146
g3931
sg147
(dp3936
g3924
(dp3937
sg3928
(dp3938
g3924
g3933
sssbsg738
(lp3939
g3924
ag3928
asg1010
(lp3940
(iconstruction
TP_REL
p3941
(dp3942
g1016
g3928
sg256
g894
sg28
I462
sg1017
g3924
sg7
VIS_462
p3943
sbasg28
I457
sg7
g161
sbsg1328
(iconstruction
TP_SYNFORM
p3944
(dp3945
g28
I458
sg1331
(lp3946
(iconstruction
TP_PHON
p3947
(dp3948
g1341
I6
sg1338
I0
sg28
I463
sg1342
Vt-shirt
p3949
sg7
g3915
sbasg7
g161
sbsg1349
I1
sba(iconstruction
CXN
p3950
(dp3951
g233
(iconstruction
TP_SYMLINKS
p3952
(dp3953
g236
(dp3954
VN1_468
p3955
VS2_471
p3956
ssg28
I466
sg7
g161
sbsg242
VN
p3957
sg244
I1
sg7
VBOXINGRING
p3958
sg246
(iconstruction
TP_SEMFRAME
p3959
(dp3960
g143
g0
(g131
g2
Ntp3961
Rp3962
(dp3963
g135
(dp3964
(iconstruction
TP_NODE
p3965
(dp3966
g255
I00
sg256
g999
sg7
g3955
sg1313
I00
sg1314
I00
sg28
I468
sb(dp3967
g1313
I00
sg256
g999
ss(iconstruction
TP_NODE
p3968
(dp3969
g255
I01
sg256
g900
sg7
VENT_467
p3970
sg1313
I01
sg1314
I00
sg28
I467
sb(dp3971
g1313
I01
sg256
g900
sssg137
g138
sg139
g138
sg140
(dp3972
g3965
(dp3973
sg3968
(dp3974
g3965
(dp3975
g256
g894
ssssg142
g3972
sg143
(dp3976
sg145
g138
sg146
g3972
sg147
(dp3977
g3965
(dp3978
g3968
g3975
ssg3968
(dp3979
ssbsg738
(lp3980
g3968
ag3965
asg1010
(lp3981
(iconstruction
TP_REL
p3982
(dp3983
g1016
g3965
sg256
g894
sg28
I469
sg1017
g3968
sg7
VIS_469
p3984
sbasg28
I464
sg7
g161
sbsg1328
(iconstruction
TP_SYNFORM
p3985
(dp3986
g28
I465
sg1331
(lp3987
(iconstruction
TP_PHON
p3988
(dp3989
g1341
I6
sg1338
I0
sg28
I470
sg1342
Vboxing
p3990
sg7
VS1_470
p3991
sba(iconstruction
TP_PHON
p3992
(dp3993
g1341
I4
sg1338
I1
sg28
I471
sg1342
Vring
p3994
sg7
g3956
sbasg7
g161
sbsg1349
I1
sba(iconstruction
CXN
p3995
(dp3996
g233
(iconstruction
TP_SYMLINKS
p3997
(dp3998
g236
(dp3999
VN1_476
p4000
VS1_478
p4001
ssg28
I474
sg7
g161
sbsg242
VN
p4002
sg244
I1
sg7
VPARK
p4003
sg246
(iconstruction
TP_SEMFRAME
p4004
(dp4005
g143
g0
(g131
g2
Ntp4006
Rp4007
(dp4008
g135
(dp4009
(iconstruction
TP_NODE
p4010
(dp4011
g255
I00
sg256
g1002
sg7
g4000
sg1313
I00
sg1314
I00
sg28
I476
sb(dp4012
g1313
I00
sg256
g1002
ss(iconstruction
TP_NODE
p4013
(dp4014
g255
I01
sg256
g900
sg7
VENT_475
p4015
sg1313
I01
sg1314
I00
sg28
I475
sb(dp4016
g1313
I01
sg256
g900
sssg137
g138
sg139
g138
sg140
(dp4017
g4010
(dp4018
sg4013
(dp4019
g4010
(dp4020
g256
g894
ssssg142
g4017
sg143
(dp4021
sg145
g138
sg146
g4017
sg147
(dp4022
g4010
(dp4023
g4013
g4020
ssg4013
(dp4024
ssbsg738
(lp4025
g4013
ag4010
asg1010
(lp4026
(iconstruction
TP_REL
p4027
(dp4028
g1016
g4010
sg256
g894
sg28
I477
sg1017
g4013
sg7
VIS_477
p4029
sbasg28
I472
sg7
g161
sbsg1328
(iconstruction
TP_SYNFORM
p4030
(dp4031
g28
I473
sg1331
(lp4032
(iconstruction
TP_PHON
p4033
(dp4034
g1341
I4
sg1338
I0
sg28
I478
sg1342
Vpark
p4035
sg7
g4001
sbasg7
g161
sbsg1349
I1
sba(iconstruction
CXN
p4036
(dp4037
g233
(iconstruction
TP_SYMLINKS
p4038
(dp4039
g236
(dp4040
VN1_483
p4041
VS1_485
p4042
ssg28
I481
sg7
g161
sbsg242
VN
p4043
sg244
I1
sg7
VSHIRT
p4044
sg246
(iconstruction
TP_SEMFRAME
p4045
(dp4046
g143
g0
(g131
g2
Ntp4047
Rp4048
(dp4049
g135
(dp4050
(iconstruction
TP_NODE
p4051
(dp4052
g255
I01
sg256
g900
sg7
VENT_482
p4053
sg1313
I01
sg1314
I00
sg28
I482
sb(dp4054
g1313
I01
sg256
g900
ss(iconstruction
TP_NODE
p4055
(dp4056
g255
I00
sg256
g948
sg7
g4041
sg1313
I00
sg1314
I00
sg28
I483
sb(dp4057
g1313
I00
sg256
g948
sssg137
g138
sg139
g138
sg140
(dp4058
g4051
(dp4059
g4055
(dp4060
g256
g894
sssg4055
(dp4061
ssg142
g4058
sg143
(dp4062
sg145
g138
sg146
g4058
sg147
(dp4063
g4051
(dp4064
sg4055
(dp4065
g4051
g4060
sssbsg738
(lp4066
g4051
ag4055
asg1010
(lp4067
(iconstruction
TP_REL
p4068
(dp4069
g1016
g4055
sg256
g894
sg28
I484
sg1017
g4051
sg7
VIS_484
p4070
sbasg28
I479
sg7
g161
sbsg1328
(iconstruction
TP_SYNFORM
p4071
(dp4072
g28
I480
sg1331
(lp4073
(iconstruction
TP_PHON
p4074
(dp4075
g1341
I5
sg1338
I0
sg28
I485
sg1342
Vshirt
p4076
sg7
g4042
sbasg7
g161
sbsg1349
I1
sba(iconstruction
CXN
p4077
(dp4078
g233
(iconstruction
TP_SYMLINKS
p4079
(dp4080
g236
(dp4081
VN1_490
p4082
VS1_492
p4083
ssg28
I488
sg7
g161
sbsg242
VN
p4084
sg244
I1
sg7
VSUIT
p4085
sg246
(iconstruction
TP_SEMFRAME
p4086
(dp4087
g143
g0
(g131
g2
Ntp4088
Rp4089
(dp4090
g135
(dp4091
(iconstruction
TP_NODE
p4092
(dp4093
g255
I00
sg256
g951
sg7
g4082
sg1313
I00
sg1314
I00
sg28
I490
sb(dp4094
g1313
I00
sg256
g951
ss(iconstruction
TP_NODE
p4095
(dp4096
g255
I01
sg256
g900
sg7
VENT_489
p4097
sg1313
I01
sg1314
I00
sg28
I489
sb(dp4098
g1313
I01
sg256
g900
sssg137
g138
sg139
g138
sg140
(dp4099
g4092
(dp4100
sg4095
(dp4101
g4092
(dp4102
g256
g894
ssssg142
g4099
sg143
(dp4103
sg145
g138
sg146
g4099
sg147
(dp4104
g4092
(dp4105
g4095
g4102
ssg4095
(dp4106
ssbsg738
(lp4107
g4095
ag4092
asg1010
(lp4108
(iconstruction
TP_REL
p4109
(dp4110
g1016
g4092
sg256
g894
sg28
I491
sg1017
g4095
sg7
VIS_491
p4111
sbasg28
I486
sg7
g161
sbsg1328
(iconstruction
TP_SYNFORM
p4112
(dp4113
g28
I487
sg1331
(lp4114
(iconstruction
TP_PHON
p4115
(dp4116
g1341
I4
sg1338
I0
sg28
I492
sg1342
Vsuit
p4117
sg7
g4083
sbasg7
g161
sbsg1349
I1
sba(iconstruction
CXN
p4118
(dp4119
g233
(iconstruction
TP_SYMLINKS
p4120
(dp4121
g236
(dp4122
VN1_497
p4123
VS1_499
p4124
ssg28
I495
sg7
g161
sbsg242
VN
p4125
sg244
I1
sg7
VCELLO
p4126
sg246
(iconstruction
TP_SEMFRAME
p4127
(dp4128
g143
g0
(g131
g2
Ntp4129
Rp4130
(dp4131
g135
(dp4132
(iconstruction
TP_NODE
p4133
(dp4134
g255
I00
sg256
g933
sg7
g4123
sg1313
I00
sg1314
I00
sg28
I497
sb(dp4135
g1313
I00
sg256
g933
ss(iconstruction
TP_NODE
p4136
(dp4137
g255
I01
sg256
g900
sg7
VENT_496
p4138
sg1313
I01
sg1314
I00
sg28
I496
sb(dp4139
g1313
I01
sg256
g900
sssg137
g138
sg139
g138
sg140
(dp4140
g4133
(dp4141
sg4136
(dp4142
g4133
(dp4143
g256
g894
ssssg142
g4140
sg143
(dp4144
sg145
g138
sg146
g4140
sg147
(dp4145
g4133
(dp4146
g4136
g4143
ssg4136
(dp4147
ssbsg738
(lp4148
g4136
ag4133
asg1010
(lp4149
(iconstruction
TP_REL
p4150
(dp4151
g1016
g4133
sg256
g894
sg28
I498
sg1017
g4136
sg7
VIS_498
p4152
sbasg28
I493
sg7
g161
sbsg1328
(iconstruction
TP_SYNFORM
p4153
(dp4154
g28
I494
sg1331
(lp4155
(iconstruction
TP_PHON
p4156
(dp4157
g1341
I5
sg1338
I0
sg28
I499
sg1342
VCELLO
p4158
sg7
g4124
sbasg7
g161
sbsg1349
I1
sba(iconstruction
CXN
p4159
(dp4160
g233
(iconstruction
TP_SYMLINKS
p4161
(dp4162
g236
(dp4163
VN1_504
p4164
VS1_506
p4165
ssg28
I502
sg7
g161
sbsg242
VN
p4166
sg244
I1
sg7
VBAG
p4167
sg246
(iconstruction
TP_SEMFRAME
p4168
(dp4169
g143
g0
(g131
g2
Ntp4170
Rp4171
(dp4172
g135
(dp4173
(iconstruction
TP_NODE
p4174
(dp4175
g255
I01
sg256
g900
sg7
VENT_503
p4176
sg1313
I01
sg1314
I00
sg28
I503
sb(dp4177
g1313
I01
sg256
g900
ss(iconstruction
TP_NODE
p4178
(dp4179
g255
I00
sg256
g924
sg7
g4164
sg1313
I00
sg1314
I00
sg28
I504
sb(dp4180
g1313
I00
sg256
g924
sssg137
g138
sg139
g138
sg140
(dp4181
g4174
(dp4182
g4178
(dp4183
g256
g894
sssg4178
(dp4184
ssg142
g4181
sg143
(dp4185
sg145
g138
sg146
g4181
sg147
(dp4186
g4174
(dp4187
sg4178
(dp4188
g4174
g4183
sssbsg738
(lp4189
g4174
ag4178
asg1010
(lp4190
(iconstruction
TP_REL
p4191
(dp4192
g1016
g4178
sg256
g894
sg28
I505
sg1017
g4174
sg7
VIS_505
p4193
sbasg28
I500
sg7
g161
sbsg1328
(iconstruction
TP_SYNFORM
p4194
(dp4195
g28
I501
sg1331
(lp4196
(iconstruction
TP_PHON
p4197
(dp4198
g1341
I3
sg1338
I0
sg28
I506
sg1342
Vbag
p4199
sg7
g4165
sbasg7
g161
sbsg1349
I1
sba(iconstruction
CXN
p4200
(dp4201
g233
(iconstruction
TP_SYMLINKS
p4202
(dp4203
g236
(dp4204
VN1_511
p4205
VS2_514
p4206
ssg28
I509
sg7
g161
sbsg242
VN
p4207
sg244
I1
sg7
VWATERING_CAN
p4208
sg246
(iconstruction
TP_SEMFRAME
p4209
(dp4210
g143
g0
(g131
g2
Ntp4211
Rp4212
(dp4213
g135
(dp4214
(iconstruction
TP_NODE
p4215
(dp4216
g255
I00
sg256
g921
sg7
g4205
sg1313
I00
sg1314
I00
sg28
I511
sb(dp4217
g1313
I00
sg256
g921
ss(iconstruction
TP_NODE
p4218
(dp4219
g255
I01
sg256
g900
sg7
VENT_510
p4220
sg1313
I01
sg1314
I00
sg28
I510
sb(dp4221
g1313
I01
sg256
g900
sssg137
g138
sg139
g138
sg140
(dp4222
g4215
(dp4223
sg4218
(dp4224
g4215
(dp4225
g256
g894
ssssg142
g4222
sg143
(dp4226
sg145
g138
sg146
g4222
sg147
(dp4227
g4215
(dp4228
g4218
g4225
ssg4218
(dp4229
ssbsg738
(lp4230
g4218
ag4215
asg1010
(lp4231
(iconstruction
TP_REL
p4232
(dp4233
g1016
g4215
sg256
g894
sg28
I512
sg1017
g4218
sg7
VIS_512
p4234
sbasg28
I507
sg7
g161
sbsg1328
(iconstruction
TP_SYNFORM
p4235
(dp4236
g28
I508
sg1331
(lp4237
(iconstruction
TP_PHON
p4238
(dp4239
g1341
I8
sg1338
I0
sg28
I513
sg1342
Vwatering
p4240
sg7
VS1_513
p4241
sba(iconstruction
TP_PHON
p4242
(dp4243
g1341
I3
sg1338
I1
sg28
I514
sg1342
Vcan
p4244
sg7
g4206
sbasg7
g161
sbsg1349
I1
sba(iconstruction
CXN
p4245
(dp4246
g233
(iconstruction
TP_SYMLINKS
p4247
(dp4248
g236
(dp4249
VN1_519
p4250
VS1_521
p4251
ssg28
I517
sg7
g161
sbsg242
VN
p4252
sg244
I1
sg7
VBALLERINA
p4253
sg246
(iconstruction
TP_SEMFRAME
p4254
(dp4255
g143
g0
(g131
g2
Ntp4256
Rp4257
(dp4258
g135
(dp4259
(iconstruction
TP_NODE
p4260
(dp4261
g255
I00
sg256
g978
sg7
g4250
sg1313
I00
sg1314
I00
sg28
I519
sb(dp4262
g1313
I00
sg256
g978
ss(iconstruction
TP_NODE
p4263
(dp4264
g255
I01
sg256
g900
sg7
VENT_518
p4265
sg1313
I01
sg1314
I00
sg28
I518
sb(dp4266
g1313
I01
sg256
g900
sssg137
g138
sg139
g138
sg140
(dp4267
g4260
(dp4268
sg4263
(dp4269
g4260
(dp4270
g256
g894
ssssg142
g4267
sg143
(dp4271
sg145
g138
sg146
g4267
sg147
(dp4272
g4260
(dp4273
g4263
g4270
ssg4263
(dp4274
ssbsg738
(lp4275
g4263
ag4260
asg1010
(lp4276
(iconstruction
TP_REL
p4277
(dp4278
g1016
g4260
sg256
g894
sg28
I520
sg1017
g4263
sg7
VIS_520
p4279
sbasg28
I515
sg7
g161
sbsg1328
(iconstruction
TP_SYNFORM
p4280
(dp4281
g28
I516
sg1331
(lp4282
(iconstruction
TP_PHON
p4283
(dp4284
g1341
I9
sg1338
I0
sg28
I521
sg1342
Vballerina
p4285
sg7
g4251
sbasg7
g161
sbsg1349
I1
sba(iconstruction
CXN
p4286
(dp4287
g233
(iconstruction
TP_SYMLINKS
p4288
(dp4289
g236
(dp4290
VN1_526
p4291
VS1_528
p4292
ssg28
I524
sg7
g161
sbsg242
VN
p4293
sg244
I1
sg7
VCELLIST
p4294
sg246
(iconstruction
TP_SEMFRAME
p4295
(dp4296
g143
g0
(g131
g2
Ntp4297
Rp4298
(dp4299
g135
(dp4300
(iconstruction
TP_NODE
p4301
(dp4302
g255
I01
sg256
g900
sg7
VENT_525
p4303
sg1313
I01
sg1314
I00
sg28
I525
sb(dp4304
g1313
I01
sg256
g900
ss(iconstruction
TP_NODE
p4305
(dp4306
g255
I00
sg256
g981
sg7
g4291
sg1313
I00
sg1314
I00
sg28
I526
sb(dp4307
g1313
I00
sg256
g981
sssg137
g138
sg139
g138
sg140
(dp4308
g4301
(dp4309
g4305
(dp4310
g256
g894
sssg4305
(dp4311
ssg142
g4308
sg143
(dp4312
sg145
g138
sg146
g4308
sg147
(dp4313
g4301
(dp4314
sg4305
(dp4315
g4301
g4310
sssbsg738
(lp4316
g4301
ag4305
asg1010
(lp4317
(iconstruction
TP_REL
p4318
(dp4319
g1016
g4305
sg256
g894
sg28
I527
sg1017
g4301
sg7
VIS_527
p4320
sbasg28
I522
sg7
g161
sbsg1328
(iconstruction
TP_SYNFORM
p4321
(dp4322
g28
I523
sg1331
(lp4323
(iconstruction
TP_PHON
p4324
(dp4325
g1341
I7
sg1338
I0
sg28
I528
sg1342
Vcellist
p4326
sg7
g4292
sbasg7
g161
sbsg1349
I1
sba(iconstruction
CXN
p4327
(dp4328
g233
(iconstruction
TP_SYMLINKS
p4329
(dp4330
g236
(dp4331
VN1_533
p4332
VS1_535
p4333
ssg28
I531
sg7
g161
sbsg242
VN
p4334
sg244
I1
sg7
VFENCER
p4335
sg246
(iconstruction
TP_SEMFRAME
p4336
(dp4337
g143
g0
(g131
g2
Ntp4338
Rp4339
(dp4340
g135
(dp4341
(iconstruction
TP_NODE
p4342
(dp4343
g255
I00
sg256
g987
sg7
g4332
sg1313
I00
sg1314
I00
sg28
I533
sb(dp4344
g1313
I00
sg256
g987
ss(iconstruction
TP_NODE
p4345
(dp4346
g255
I01
sg256
g900
sg7
VENT_532
p4347
sg1313
I01
sg1314
I00
sg28
I532
sb(dp4348
g1313
I01
sg256
g900
sssg137
g138
sg139
g138
sg140
(dp4349
g4342
(dp4350
sg4345
(dp4351
g4342
(dp4352
g256
g894
ssssg142
g4349
sg143
(dp4353
sg145
g138
sg146
g4349
sg147
(dp4354
g4342
(dp4355
g4345
g4352
ssg4345
(dp4356
ssbsg738
(lp4357
g4345
ag4342
asg1010
(lp4358
(iconstruction
TP_REL
p4359
(dp4360
g1016
g4342
sg256
g894
sg28
I534
sg1017
g4345
sg7
VIS_534
p4361
sbasg28
I529
sg7
g161
sbsg1328
(iconstruction
TP_SYNFORM
p4362
(dp4363
g28
I530
sg1331
(lp4364
(iconstruction
TP_PHON
p4365
(dp4366
g1341
I6
sg1338
I0
sg28
I535
sg1342
Vfencer
p4367
sg7
g4333
sbasg7
g161
sbsg1349
I1
sba(iconstruction
CXN
p4368
(dp4369
g233
(iconstruction
TP_SYMLINKS
p4370
(dp4371
g236
(dp4372
VN1_540
p4373
VS1_542
p4374
ssg28
I538
sg7
g161
sbsg242
VN
p4375
sg244
I1
sg7
VROBBER
p4376
sg246
(iconstruction
TP_SEMFRAME
p4377
(dp4378
g143
g0
(g131
g2
Ntp4379
Rp4380
(dp4381
g135
(dp4382
(iconstruction
TP_NODE
p4383
(dp4384
g255
I00
sg256
g990
sg7
g4373
sg1313
I00
sg1314
I00
sg28
I540
sb(dp4385
g1313
I00
sg256
g990
ss(iconstruction
TP_NODE
p4386
(dp4387
g255
I01
sg256
g900
sg7
VENT_539
p4388
sg1313
I01
sg1314
I00
sg28
I539
sb(dp4389
g1313
I01
sg256
g900
sssg137
g138
sg139
g138
sg140
(dp4390
g4383
(dp4391
sg4386
(dp4392
g4383
(dp4393
g256
g894
ssssg142
g4390
sg143
(dp4394
sg145
g138
sg146
g4390
sg147
(dp4395
g4383
(dp4396
g4386
g4393
ssg4386
(dp4397
ssbsg738
(lp4398
g4386
ag4383
asg1010
(lp4399
(iconstruction
TP_REL
p4400
(dp4401
g1016
g4383
sg256
g894
sg28
I541
sg1017
g4386
sg7
VIS_541
p4402
sbasg28
I536
sg7
g161
sbsg1328
(iconstruction
TP_SYNFORM
p4403
(dp4404
g28
I537
sg1331
(lp4405
(iconstruction
TP_PHON
p4406
(dp4407
g1341
I5
sg1338
I0
sg28
I542
sg1342
Vthief
p4408
sg7
g4374
sbasg7
g161
sbsg1349
I1
sba(iconstruction
CXN
p4409
(dp4410
g233
(iconstruction
TP_SYMLINKS
p4411
(dp4412
g236
(dp4413
VN1_547
p4414
VS1_549
p4415
ssg28
I545
sg7
g161
sbsg242
VN
p4416
sg244
I1
sg7
VPOLICEMAN
p4417
sg246
(iconstruction
TP_SEMFRAME
p4418
(dp4419
g143
g0
(g131
g2
Ntp4420
Rp4421
(dp4422
g135
(dp4423
(iconstruction
TP_NODE
p4424
(dp4425
g255
I01
sg256
g900
sg7
VENT_546
p4426
sg1313
I01
sg1314
I00
sg28
I546
sb(dp4427
g1313
I01
sg256
g900
ss(iconstruction
TP_NODE
p4428
(dp4429
g255
I00
sg256
g972
sg7
g4414
sg1313
I00
sg1314
I00
sg28
I547
sb(dp4430
g1313
I00
sg256
g972
sssg137
g138
sg139
g138
sg140
(dp4431
g4424
(dp4432
g4428
(dp4433
g256
g894
sssg4428
(dp4434
ssg142
g4431
sg143
(dp4435
sg145
g138
sg146
g4431
sg147
(dp4436
g4424
(dp4437
sg4428
(dp4438
g4424
g4433
sssbsg738
(lp4439
g4424
ag4428
asg1010
(lp4440
(iconstruction
TP_REL
p4441
(dp4442
g1016
g4428
sg256
g894
sg28
I548
sg1017
g4424
sg7
VIS_548
p4443
sbasg28
I543
sg7
g161
sbsg1328
(iconstruction
TP_SYNFORM
p4444
(dp4445
g28
I544
sg1331
(lp4446
(iconstruction
TP_PHON
p4447
(dp4448
g1341
I9
sg1338
I0
sg28
I549
sg1342
Vpoliceman
p4449
sg7
g4415
sbasg7
g161
sbsg1349
I1
sba(iconstruction
CXN
p4450
(dp4451
g233
(iconstruction
TP_SYMLINKS
p4452
(dp4453
g236
(dp4454
VN1_554
p4455
VS1_556
p4456
ssg28
I552
sg7
g161
sbsg242
VN
p4457
sg244
I1
sg7
VHUNTER
p4458
sg246
(iconstruction
TP_SEMFRAME
p4459
(dp4460
g143
g0
(g131
g2
Ntp4461
Rp4462
(dp4463
g135
(dp4464
(iconstruction
TP_NODE
p4465
(dp4466
g255
I00
sg256
g975
sg7
g4455
sg1313
I00
sg1314
I00
sg28
I554
sb(dp4467
g1313
I00
sg256
g975
ss(iconstruction
TP_NODE
p4468
(dp4469
g255
I01
sg256
g900
sg7
VENT_553
p4470
sg1313
I01
sg1314
I00
sg28
I553
sb(dp4471
g1313
I01
sg256
g900
sssg137
g138
sg139
g138
sg140
(dp4472
g4465
(dp4473
sg4468
(dp4474
g4465
(dp4475
g256
g894
ssssg142
g4472
sg143
(dp4476
sg145
g138
sg146
g4472
sg147
(dp4477
g4465
(dp4478
g4468
g4475
ssg4468
(dp4479
ssbsg738
(lp4480
g4468
ag4465
asg1010
(lp4481
(iconstruction
TP_REL
p4482
(dp4483
g1016
g4465
sg256
g894
sg28
I555
sg1017
g4468
sg7
VIS_555
p4484
sbasg28
I550
sg7
g161
sbsg1328
(iconstruction
TP_SYNFORM
p4485
(dp4486
g28
I551
sg1331
(lp4487
(iconstruction
TP_PHON
p4488
(dp4489
g1341
I6
sg1338
I0
sg28
I556
sg1342
Vhunter
p4490
sg7
g4456
sbasg7
g161
sbsg1349
I1
sba(iconstruction
CXN
p4491
(dp4492
g233
(iconstruction
TP_SYMLINKS
p4493
(dp4494
g236
(dp4495
VN1_561
p4496
VS1_563
p4497
ssg28
I559
sg7
g161
sbsg242
VN
p4498
sg244
I1
sg7
VDOG
p4499
sg246
(iconstruction
TP_SEMFRAME
p4500
(dp4501
g143
g0
(g131
g2
Ntp4502
Rp4503
(dp4504
g135
(dp4505
(iconstruction
TP_NODE
p4506
(dp4507
g255
I01
sg256
g900
sg7
VENT_560
p4508
sg1313
I01
sg1314
I00
sg28
I560
sb(dp4509
g1313
I01
sg256
g900
ss(iconstruction
TP_NODE
p4510
(dp4511
g255
I00
sg256
g960
sg7
g4496
sg1313
I00
sg1314
I00
sg28
I561
sb(dp4512
g1313
I00
sg256
g960
sssg137
g138
sg139
g138
sg140
(dp4513
g4506
(dp4514
g4510
(dp4515
g256
g894
sssg4510
(dp4516
ssg142
g4513
sg143
(dp4517
sg145
g138
sg146
g4513
sg147
(dp4518
g4506
(dp4519
sg4510
(dp4520
g4506
g4515
sssbsg738
(lp4521
g4506
ag4510
asg1010
(lp4522
(iconstruction
TP_REL
p4523
(dp4524
g1016
g4510
sg256
g894
sg28
I562
sg1017
g4506
sg7
VIS_562
p4525
sbasg28
I557
sg7
g161
sbsg1328
(iconstruction
TP_SYNFORM
p4526
(dp4527
g28
I558
sg1331
(lp4528
(iconstruction
TP_PHON
p4529
(dp4530
g1341
I3
sg1338
I0
sg28
I563
sg1342
Vdog
p4531
sg7
g4497
sbasg7
g161
sbsg1349
I1
sba(iconstruction
CXN
p4532
(dp4533
g233
(iconstruction
TP_SYMLINKS
p4534
(dp4535
g236
(dp4536
VN1_568
p4537
VS1_570
p4538
ssg28
I566
sg7
g161
sbsg242
VN
p4539
sg244
I1
sg7
VHOOK
p4540
sg246
(iconstruction
TP_SEMFRAME
p4541
(dp4542
g143
g0
(g131
g2
Ntp4543
Rp4544
(dp4545
g135
(dp4546
(iconstruction
TP_NODE
p4547
(dp4548
g255
I00
sg256
g930
sg7
g4537
sg1313
I00
sg1314
I00
sg28
I568
sb(dp4549
g1313
I00
sg256
g930
ss(iconstruction
TP_NODE
p4550
(dp4551
g255
I01
sg256
g900
sg7
VENT_567
p4552
sg1313
I01
sg1314
I00
sg28
I567
sb(dp4553
g1313
I01
sg256
g900
sssg137
g138
sg139
g138
sg140
(dp4554
g4547
(dp4555
sg4550
(dp4556
g4547
(dp4557
g256
g894
ssssg142
g4554
sg143
(dp4558
sg145
g138
sg146
g4554
sg147
(dp4559
g4547
(dp4560
g4550
g4557
ssg4550
(dp4561
ssbsg738
(lp4562
g4550
ag4547
asg1010
(lp4563
(iconstruction
TP_REL
p4564
(dp4565
g1016
g4547
sg256
g894
sg28
I569
sg1017
g4550
sg7
VIS_569
p4566
sbasg28
I564
sg7
g161
sbsg1328
(iconstruction
TP_SYNFORM
p4567
(dp4568
g28
I565
sg1331
(lp4569
(iconstruction
TP_PHON
p4570
(dp4571
g1341
I4
sg1338
I0
sg28
I570
sg1342
Vhook
p4572
sg7
g4538
sbasg7
g161
sbsg1349
I1
sba(iconstruction
CXN
p4573
(dp4574
g233
(iconstruction
TP_SYMLINKS
p4575
(dp4576
g236
(dp4577
VN1_575
p4578
VS1_577
p4579
ssg28
I573
sg7
g161
sbsg242
VN
p4580
sg244
I1
sg7
VBOOKSHELF
p4581
sg246
(iconstruction
TP_SEMFRAME
p4582
(dp4583
g143
g0
(g131
g2
Ntp4584
Rp4585
(dp4586
g135
(dp4587
(iconstruction
TP_NODE
p4588
(dp4589
g255
I00
sg256
g936
sg7
g4578
sg1313
I00
sg1314
I00
sg28
I575
sb(dp4590
g1313
I00
sg256
g936
ss(iconstruction
TP_NODE
p4591
(dp4592
g255
I01
sg256
g900
sg7
VENT_574
p4593
sg1313
I01
sg1314
I00
sg28
I574
sb(dp4594
g1313
I01
sg256
g900
sssg137
g138
sg139
g138
sg140
(dp4595
g4588
(dp4596
sg4591
(dp4597
g4588
(dp4598
g256
g894
ssssg142
g4595
sg143
(dp4599
sg145
g138
sg146
g4595
sg147
(dp4600
g4588
(dp4601
g4591
g4598
ssg4591
(dp4602
ssbsg738
(lp4603
g4591
ag4588
asg1010
(lp4604
(iconstruction
TP_REL
p4605
(dp4606
g1016
g4588
sg256
g894
sg28
I576
sg1017
g4591
sg7
VIS_576
p4607
sbasg28
I571
sg7
g161
sbsg1328
(iconstruction
TP_SYNFORM
p4608
(dp4609
g28
I572
sg1331
(lp4610
(iconstruction
TP_PHON
p4611
(dp4612
g1341
I9
sg1338
I0
sg28
I577
sg1342
Vbookshelf
p4613
sg7
g4579
sbasg7
g161
sbsg1349
I1
sba(iconstruction
CXN
p4614
(dp4615
g233
(iconstruction
TP_SYMLINKS
p4616
(dp4617
g236
(dp4618
VN1_582
p4619
VS1_584
p4620
ssg28
I580
sg7
g161
sbsg242
VN
p4621
sg244
I1
sg7
VWAGON
p4622
sg246
(iconstruction
TP_SEMFRAME
p4623
(dp4624
g143
g0
(g131
g2
Ntp4625
Rp4626
(dp4627
g135
(dp4628
(iconstruction
TP_NODE
p4629
(dp4630
g255
I01
sg256
g900
sg7
VENT_581
p4631
sg1313
I01
sg1314
I00
sg28
I581
sb(dp4632
g1313
I01
sg256
g900
ss(iconstruction
TP_NODE
p4633
(dp4634
g255
I00
sg256
g918
sg7
g4619
sg1313
I00
sg1314
I00
sg28
I582
sb(dp4635
g1313
I00
sg256
g918
sssg137
g138
sg139
g138
sg140
(dp4636
g4629
(dp4637
g4633
(dp4638
g256
g894
sssg4633
(dp4639
ssg142
g4636
sg143
(dp4640
sg145
g138
sg146
g4636
sg147
(dp4641
g4629
(dp4642
sg4633
(dp4643
g4629
g4638
sssbsg738
(lp4644
g4629
ag4633
asg1010
(lp4645
(iconstruction
TP_REL
p4646
(dp4647
g1016
g4633
sg256
g894
sg28
I583
sg1017
g4629
sg7
VIS_583
p4648
sbasg28
I578
sg7
g161
sbsg1328
(iconstruction
TP_SYNFORM
p4649
(dp4650
g28
I579
sg1331
(lp4651
(iconstruction
TP_PHON
p4652
(dp4653
g1341
I5
sg1338
I0
sg28
I584
sg1342
Vwagon
p4654
sg7
g4620
sbasg7
g161
sbsg1349
I1
sba(iconstruction
CXN
p4655
(dp4656
g233
(iconstruction
TP_SYMLINKS
p4657
(dp4658
g236
(dp4659
VN1_589
p4660
VS1_591
p4661
ssg28
I587
sg7
g161
sbsg242
VN
p4662
sg244
I1
sg7
VTREE
p4663
sg246
(iconstruction
TP_SEMFRAME
p4664
(dp4665
g143
g0
(g131
g2
Ntp4666
Rp4667
(dp4668
g135
(dp4669
(iconstruction
TP_NODE
p4670
(dp4671
g255
I00
sg256
g927
sg7
g4660
sg1313
I00
sg1314
I00
sg28
I589
sb(dp4672
g1313
I00
sg256
g927
ss(iconstruction
TP_NODE
p4673
(dp4674
g255
I01
sg256
g900
sg7
VENT_588
p4675
sg1313
I01
sg1314
I00
sg28
I588
sb(dp4676
g1313
I01
sg256
g900
sssg137
g138
sg139
g138
sg140
(dp4677
g4670
(dp4678
sg4673
(dp4679
g4670
(dp4680
g256
g894
ssssg142
g4677
sg143
(dp4681
sg145
g138
sg146
g4677
sg147
(dp4682
g4670
(dp4683
g4673
g4680
ssg4673
(dp4684
ssbsg738
(lp4685
g4673
ag4670
asg1010
(lp4686
(iconstruction
TP_REL
p4687
(dp4688
g1016
g4670
sg256
g894
sg28
I590
sg1017
g4673
sg7
VIS_590
p4689
sbasg28
I585
sg7
g161
sbsg1328
(iconstruction
TP_SYNFORM
p4690
(dp4691
g28
I586
sg1331
(lp4692
(iconstruction
TP_PHON
p4693
(dp4694
g1341
I4
sg1338
I0
sg28
I591
sg1342
Vtree
p4695
sg7
g4661
sbasg7
g161
sbsg1349
I1
sbasbsg7
g175
sg45
(lp4696
g219
ag0
(g19
g2
Ntp4697
Rp4698
(dp4699
g7
S'to_cxn_retrieval_C'
p4700
sg24
Nsg25
Nsg26
g51
sg28
I21
sg29
g223
sbasg15
(dp4701
g55
Nsg4700
Nssg183
(lp4702
sg69
F1.0
sg72
(lp4703
sg108
(dp4704
S'init_act'
p4705
F0.3
ssg104
F0.0
sg129
F0.0
sg13
g4
sg28
I4
sS'schemas'
p4706
(lp4707
g0
(clanguage_schemas
CXN_SCHEMA
p4708
g2
Ntp4709
Rp4710
(dp4711
g7
g245
sS'content'
p4712
g231
sg13
Nsg28
I99
sS'LTM'
p4713
g223
sg4705
F0.3
sbag0
(g4708
g2
Ntp4714
Rp4715
(dp4716
g7
g1360
sg4712
g1350
sg13
Nsg28
I100
sg4713
g223
sg4705
F0.3
sbag0
(g4708
g2
Ntp4717
Rp4718
(dp4719
g7
g1411
sg4712
g1401
sg13
Nsg28
I101
sg4713
g223
sg4705
F0.3
sbag0
(g4708
g2
Ntp4720
Rp4721
(dp4722
g7
g1464
sg4712
g1452
sg13
Nsg28
I102
sg4713
g223
sg4705
F0.3
sbag0
(g4708
g2
Ntp4723
Rp4724
(dp4725
g7
g1543
sg4712
g1531
sg13
Nsg28
I103
sg4713
g223
sg4705
F0.3
sbag0
(g4708
g2
Ntp4726
Rp4727
(dp4728
g7
g1618
sg4712
g1606
sg13
Nsg28
I104
sg4713
g223
sg4705
F0.3
sbag0
(g4708
g2
Ntp4729
Rp4730
(dp4731
g7
g1707
sg4712
g1693
sg13
Nsg28
I105
sg4713
g223
sg4705
F0.3
sbag0
(g4708
g2
Ntp4732
Rp4733
(dp4734
g7
g1798
sg4712
g1784
sg13
Nsg28
I106
sg4713
g223
sg4705
F0.3
sbag0
(g4708
g2
Ntp4735
Rp4736
(dp4737
g7
g1889
sg4712
g1879
sg13
Nsg28
I107
sg4713
g223
sg4705
F0.3
sbag0
(g4708
g2
Ntp4738
Rp4739
(dp4740
g7
g1951
sg4712
g1941
sg13
Nsg28
I108
sg4713
g223
sg4705
F0.3
sbag0
(g4708
g2
Ntp4741
Rp4742
(dp4743
g7
g2010
sg4712
g2000
sg13
Nsg28
I109
sg4713
g223
sg4705
F0.3
sbag0
(g4708
g2
Ntp4744
Rp4745
(dp4746
g7
g2062
sg4712
g2052
sg13
Nsg28
I110
sg4713
g223
sg4705
F0.3
sbag0
(g4708
g2
Ntp4747
Rp4748
(dp4749
g7
g2109
sg4712
g2099
sg13
Nsg28
I111
sg4713
g223
sg4705
F0.3
sbag0
(g4708
g2
Ntp4750
Rp4751
(dp4752
g7
g2158
sg4712
g2146
sg13
Nsg28
I112
sg4713
g223
sg4705
F0.3
sbag0
(g4708
g2
Ntp4753
Rp4754
(dp4755
g7
g2238
sg4712
g2228
sg13
Nsg28
I113
sg4713
g223
sg4705
F0.3
sbag0
(g4708
g2
Ntp4756
Rp4757
(dp4758
g7
g2306
sg4712
g2294
sg13
Nsg28
I114
sg4713
g223
sg4705
F0.3
sbag0
(g4708
g2
Ntp4759
Rp4760
(dp4761
g7
g2400
sg4712
g2388
sg13
Nsg28
I115
sg4713
g223
sg4705
F0.3
sbag0
(g4708
g2
Ntp4762
Rp4763
(dp4764
g7
g2482
sg4712
g2470
sg13
Nsg28
I116
sg4713
g223
sg4705
F0.3
sbag0
(g4708
g2
Ntp4765
Rp4766
(dp4767
g7
g2574
sg4712
g2564
sg13
Nsg28
I117
sg4713
g223
sg4705
F0.3
sbag0
(g4708
g2
Ntp4768
Rp4769
(dp4770
g7
g2639
sg4712
g2629
sg13
Nsg28
I118
sg4713
g223
sg4705
F0.3
sbag0
(g4708
g2
Ntp4771
Rp4772
(dp4773
g7
g2718
sg4712
g2710
sg13
Nsg28
I119
sg4713
g223
sg4705
F0.3
sbag0
(g4708
g2
Ntp4774
Rp4775
(dp4776
g7
g2759
sg4712
g2751
sg13
Nsg28
I120
sg4713
g223
sg4705
F0.3
sbag0
(g4708
g2
Ntp4777
Rp4778
(dp4779
g7
g2800
sg4712
g2792
sg13
Nsg28
I121
sg4713
g223
sg4705
F0.3
sbag0
(g4708
g2
Ntp4780
Rp4781
(dp4782
g7
g2841
sg4712
g2833
sg13
Nsg28
I122
sg4713
g223
sg4705
F0.3
sbag0
(g4708
g2
Ntp4783
Rp4784
(dp4785
g7
g2882
sg4712
g2874
sg13
Nsg28
I123
sg4713
g223
sg4705
F0.3
sbag0
(g4708
g2
Ntp4786
Rp4787
(dp4788
g7
g2923
sg4712
g2915
sg13
Nsg28
I124
sg4713
g223
sg4705
F0.3
sbag0
(g4708
g2
Ntp4789
Rp4790
(dp4791
g7
g2964
sg4712
g2956
sg13
Nsg28
I125
sg4713
g223
sg4705
F0.3
sbag0
(g4708
g2
Ntp4792
Rp4793
(dp4794
g7
g3009
sg4712
g3001
sg13
Nsg28
I126
sg4713
g223
sg4705
F0.3
sbag0
(g4708
g2
Ntp4795
Rp4796
(dp4797
g7
g3054
sg4712
g3046
sg13
Nsg28
I127
sg4713
g223
sg4705
F0.3
sbag0
(g4708
g2
Ntp4798
Rp4799
(dp4800
g7
g3095
sg4712
g3087
sg13
Nsg28
I128
sg4713
g223
sg4705
F0.3
sbag0
(g4708
g2
Ntp4801
Rp4802
(dp4803
g7
g3136
sg4712
g3128
sg13
Nsg28
I129
sg4713
g223
sg4705
F0.3
sbag0
(g4708
g2
Ntp4804
Rp4805
(dp4806
g7
g3177
sg4712
g3169
sg13
Nsg28
I130
sg4713
g223
sg4705
F0.3
sbag0
(g4708
g2
Ntp4807
Rp4808
(dp4809
g7
g3218
sg4712
g3210
sg13
Nsg28
I131
sg4713
g223
sg4705
F0.3
sbag0
(g4708
g2
Ntp4810
Rp4811
(dp4812
g7
g3259
sg4712
g3251
sg13
Nsg28
I132
sg4713
g223
sg4705
F0.3
sbag0
(g4708
g2
Ntp4813
Rp4814
(dp4815
g7
g3300
sg4712
g3292
sg13
Nsg28
I133
sg4713
g223
sg4705
F0.3
sbag0
(g4708
g2
Ntp4816
Rp4817
(dp4818
g7
g3331
sg4712
g3323
sg13
Nsg28
I134
sg4713
g223
sg4705
F0.3
sbag0
(g4708
g2
Ntp4819
Rp4820
(dp4821
g7
g3362
sg4712
g3354
sg13
Nsg28
I135
sg4713
g223
sg4705
F0.3
sbag0
(g4708
g2
Ntp4822
Rp4823
(dp4824
g7
g3393
sg4712
g3385
sg13
Nsg28
I136
sg4713
g223
sg4705
F0.3
sbag0
(g4708
g2
Ntp4825
Rp4826
(dp4827
g7
g3424
sg4712
g3416
sg13
Nsg28
I137
sg4713
g223
sg4705
F0.3
sbag0
(g4708
g2
Ntp4828
Rp4829
(dp4830
g7
g3455
sg4712
g3447
sg13
Nsg28
I138
sg4713
g223
sg4705
F0.3
sbag0
(g4708
g2
Ntp4831
Rp4832
(dp4833
g7
g3486
sg4712
g3478
sg13
Nsg28
I139
sg4713
g223
sg4705
F0.3
sbag0
(g4708
g2
Ntp4834
Rp4835
(dp4836
g7
g3517
sg4712
g3509
sg13
Nsg28
I140
sg4713
g223
sg4705
F0.3
sbag0
(g4708
g2
Ntp4837
Rp4838
(dp4839
g7
g3548
sg4712
g3540
sg13
Nsg28
I141
sg4713
g223
sg4705
F0.3
sbag0
(g4708
g2
Ntp4840
Rp4841
(dp4842
g7
g3589
sg4712
g3581
sg13
Nsg28
I142
sg4713
g223
sg4705
F0.3
sbag0
(g4708
g2
Ntp4843
Rp4844
(dp4845
g7
g3630
sg4712
g3622
sg13
Nsg28
I143
sg4713
g223
sg4705
F0.3
sbag0
(g4708
g2
Ntp4846
Rp4847
(dp4848
g7
g3671
sg4712
g3663
sg13
Nsg28
I144
sg4713
g223
sg4705
F0.3
sbag0
(g4708
g2
Ntp4849
Rp4850
(dp4851
g7
g3712
sg4712
g3704
sg13
Nsg28
I145
sg4713
g223
sg4705
F0.3
sbag0
(g4708
g2
Ntp4852
Rp4853
(dp4854
g7
g3753
sg4712
g3745
sg13
Nsg28
I146
sg4713
g223
sg4705
F0.3
sbag0
(g4708
g2
Ntp4855
Rp4856
(dp4857
g7
g3794
sg4712
g3786
sg13
Nsg28
I147
sg4713
g223
sg4705
F0.3
sbag0
(g4708
g2
Ntp4858
Rp4859
(dp4860
g7
g3835
sg4712
g3827
sg13
Nsg28
I148
sg4713
g223
sg4705
F0.3
sbag0
(g4708
g2
Ntp4861
Rp4862
(dp4863
g7
g3876
sg4712
g3868
sg13
Nsg28
I149
sg4713
g223
sg4705
F0.3
sbag0
(g4708
g2
Ntp4864
Rp4865
(dp4866
g7
g3917
sg4712
g3909
sg13
Nsg28
I150
sg4713
g223
sg4705
F0.3
sbag0
(g4708
g2
Ntp4867
Rp4868
(dp4869
g7
g3958
sg4712
g3950
sg13
Nsg28
I151
sg4713
g223
sg4705
F0.3
sbag0
(g4708
g2
Ntp4870
Rp4871
(dp4872
g7
g4003
sg4712
g3995
sg13
Nsg28
I152
sg4713
g223
sg4705
F0.3
sbag0
(g4708
g2
Ntp4873
Rp4874
(dp4875
g7
g4044
sg4712
g4036
sg13
Nsg28
I153
sg4713
g223
sg4705
F0.3
sbag0
(g4708
g2
Ntp4876
Rp4877
(dp4878
g7
g4085
sg4712
g4077
sg13
Nsg28
I154
sg4713
g223
sg4705
F0.3
sbag0
(g4708
g2
Ntp4879
Rp4880
(dp4881
g7
g4126
sg4712
g4118
sg13
Nsg28
I155
sg4713
g223
sg4705
F0.3
sbag0
(g4708
g2
Ntp4882
Rp4883
(dp4884
g7
g4167
sg4712
g4159
sg13
Nsg28
I156
sg4713
g223
sg4705
F0.3
sbag0
(g4708
g2
Ntp4885
Rp4886
(dp4887
g7
g4208
sg4712
g4200
sg13
Nsg28
I157
sg4713
g223
sg4705
F0.3
sbag0
(g4708
g2
Ntp4888
Rp4889
(dp4890
g7
g4253
sg4712
g4245
sg13
Nsg28
I158
sg4713
g223
sg4705
F0.3
sbag0
(g4708
g2
Ntp4891
Rp4892
(dp4893
g7
g4294
sg4712
g4286
sg13
Nsg28
I159
sg4713
g223
sg4705
F0.3
sbag0
(g4708
g2
Ntp4894
Rp4895
(dp4896
g7
g4335
sg4712
g4327
sg13
Nsg28
I160
sg4713
g223
sg4705
F0.3
sbag0
(g4708
g2
Ntp4897
Rp4898
(dp4899
g7
g4376
sg4712
g4368
sg13
Nsg28
I161
sg4713
g223
sg4705
F0.3
sbag0
(g4708
g2
Ntp4900
Rp4901
(dp4902
g7
g4417
sg4712
g4409
sg13
Nsg28
I162
sg4713
g223
sg4705
F0.3
sbag0
(g4708
g2
Ntp4903
Rp4904
(dp4905
g7
g4458
sg4712
g4450
sg13
Nsg28
I163
sg4713
g223
sg4705
F0.3
sbag0
(g4708
g2
Ntp4906
Rp4907
(dp4908
g7
g4499
sg4712
g4491
sg13
Nsg28
I164
sg4713
g223
sg4705
F0.3
sbag0
(g4708
g2
Ntp4909
Rp4910
(dp4911
g7
g4540
sg4712
g4532
sg13
Nsg28
I165
sg4713
g223
sg4705
F0.3
sbag0
(g4708
g2
Ntp4912
Rp4913
(dp4914
g7
g4581
sg4712
g4573
sg13
Nsg28
I166
sg4713
g223
sg4705
F0.3
sbag0
(g4708
g2
Ntp4915
Rp4916
(dp4917
g7
g4622
sg4712
g4614
sg13
Nsg28
I167
sg4713
g223
sg4705
F0.3
sbag0
(g4708
g2
Ntp4918
Rp4919
(dp4920
g7
g4663
sg4712
g4655
sg13
Nsg28
I168
sg4713
g223
sg4705
F0.3
sbasbsbsg13
g4
sg28
I2
sbag0
(g185
g2
Ntp4921
Rp4922
(dp4923
g189
I0
sg7
g161
sg190
I0
sg191
g0
(g19
g2
Ntp4924
Rp4925
(dp4926
g7
S'from_cxn_retrieval_P'
p4927
sg24
Nsg25
Nsg26
g27
sg28
I14
sg29
g0
(clanguage_schemas
GRAMMATICAL_WM_P
p4928
g2
Ntp4929
Rp4930
(dp4931
g34
(dp4932
g4927
NsS'from_phonological_WM_P'
p4933
Nsg195
Nsg38
Nssg40
(lp4934
sg7
g171
sg43
(lp4935
sg45
(lp4936
g0
(g19
g2
Ntp4937
Rp4938
(dp4939
g7
S'to_semantic_WM'
p4940
sg24
Nsg25
Nsg26
g51
sg28
I17
sg29
g4930
sbag0
(g19
g2
Ntp4941
Rp4942
(dp4943
g7
S'to_phonological_WM_P'
p4944
sg24
Nsg25
Nsg26
g51
sg28
I18
sg29
g4930
sbag0
(g19
g2
Ntp4945
Rp4946
(dp4947
g7
g67
sg24
Nsg25
Nsg26
g51
sg28
I19
sg29
g4930
sbasg15
(dp4948
g67
Nsg4944
Nsg4940
Nssg69
F1.0
sg70
(lp4949
sg72
(lp4950
g0
(g19
g2
Ntp4951
Rp4952
(dp4953
g7
g195
sg24
Nsg25
Nsg26
g27
sg28
I13
sg29
g4930
sbag4925
ag0
(g19
g2
Ntp4954
Rp4955
(dp4956
g7
g38
sg24
Nsg25
Nsg26
g27
sg28
I15
sg29
g4930
sbag0
(g19
g2
Ntp4957
Rp4958
(dp4959
g7
g4933
sg24
Nsg25
Nsg26
g27
sg28
I16
sg29
g4930
sbasg86
(dp4960
g88
(dp4961
sg90
(dp4962
g92
(lp4963
sg94
(dp4964
g96
(lp4965
sg98
(lp4966
sg100
(lp4967
ssg102
(lp4968
sg104
(lp4969
sg106
(lp4970
sssg108
(dp4971
g110
(dp4972
g112
F1.0
sS'deact_weight'
p4973
F0.0
sg113
F-10.0
sg114
F1.0
sg115
F0.0
sg116
F1.0
sS'sub_threshold_r'
p4974
F0.8
sg117
F0.3
sg118
F0.0
sg119
F0.01
ssg120
(dp4975
g122
F100.0
sg123
F10.0
sg124
F0.001
sg125
F0.0
sg126
F0.1
sg127
F1.0
sg128
F1.0
ssS'style'
p4976
(dp4977
S'continuity'
p4978
I0
sS'form_length'
p4979
I0
sS'activation'
p4980
F1.0
sS'sem_length'
p4981
I0
sssg104
F0.0
sg129
F0.0
sg13
g4
sg28
I3
sbsbsg214
g204
sg13
g4
sg28
I3
sbag0
(g185
g2
Ntp4982
Rp4983
(dp4984
g189
I0
sg7
g161
sg190
I0
sg191
g4952
sg214
g48
sg13
g4
sg28
I4
sbag0
(g185
g2
Ntp4985
Rp4986
(dp4987
g189
I0
sg7
g161
sg190
I0
sg191
g81
sg214
g4938
sg13
g4
sg28
I5
sbag0
(g185
g2
Ntp4988
Rp4989
(dp4990
g189
I0
sg7
g161
sg190
I0
sg191
g0
(g19
g2
Ntp4991
Rp4992
(dp4993
g7
g36
sg24
Nsg25
Nsg26
g27
sg28
I25
sg29
g0
(clanguage_schemas
PHON_WM_P
p4994
g2
Ntp4995
Rp4996
(dp4997
g34
(dp4998
g36
Nssg40
(lp4999
sg7
g166
sg43
(lp5000
sg45
(lp5001
g0
(g19
g2
Ntp5002
Rp5003
(dp5004
g7
S'to_utter'
p5005
sg24
Nsg25
Nsg26
g51
sg28
I26
sg29
g4996
sbag0
(g19
g2
Ntp5006
Rp5007
(dp5008
g7
g50
sg24
Nsg25
Nsg26
g51
sg28
I27
sg29
g4996
sbag0
(g19
g2
Ntp5009
Rp5010
(dp5011
g7
g59
sg24
Nsg25
Nsg26
g51
sg28
I28
sg29
g4996
sbag0
(g19
g2
Ntp5012
Rp5013
(dp5014
g7
g67
sg24
Nsg25
Nsg26
g51
sg28
I29
sg29
g4996
sbasg15
(dp5015
g67
Nsg50
Nsg5005
Nsg59
NssS'needs_filler'
p5016
I00
sg69
F1.0
sg70
(lp5017
sg72
(lp5018
g4992
asS'filler'
p5019
S'....'
p5020
sg86
(dp5021
g88
(dp5022
sg90
(dp5023
g92
(lp5024
sg94
(dp5025
g96
(lp5026
sg98
(lp5027
sg100
(lp5028
ssg102
(lp5029
sg104
(lp5030
sg106
(lp5031
sssg108
(dp5032
g110
(dp5033
g112
F1.0
sg113
F0.0
sg114
F1.0
sg115
F1.0
sg116
F0.0
sg117
F0.0
sg118
F0.0
sg119
F0.01
ssg120
(dp5034
g122
F100.0
sg123
F10.0
sg124
F0.001
sg125
F0.0
sg126
F1.0
sg127
F1.0
sg128
F1.0
sssg104
F0.0
sg129
F0.0
sg13
g4
sS'phon_sequence'
p5035
(lp5036
sg28
I6
sbsbsg214
g4942
sg13
g4
sg28
I6
sbag0
(g185
g2
Ntp5037
Rp5038
(dp5039
g189
I0
sg7
g161
sg190
I0
sg191
g4958
sg214
g5007
sg13
g4
sg28
I7
sbag0
(g185
g2
Ntp5040
Rp5041
(dp5042
g189
I0
sg7
g161
sg190
I0
sg191
g0
(g19
g2
Ntp5043
Rp5044
(dp5045
g7
g195
sg24
Nsg25
Nsg26
g27
sg28
I32
sg29
g0
(clanguage_schemas
CONTROL
p5046
g2
Ntp5047
Rp5048
(dp5049
g34
(dp5050
g4933
Nsg195
Nssg7
g156
sg45
(lp5051
g0
(g19
g2
Ntp5052
Rp5053
(dp5054
g7
g4940
sg24
Nsg25
Nsg26
g51
sg28
I34
sg29
g5048
sbag0
(g19
g2
Ntp5055
Rp5056
(dp5057
g7
g50
sg24
Nsg25
Nsg26
g51
sg28
I35
sg29
g5048
sbag0
(g19
g2
Ntp5058
Rp5059
(dp5060
g7
S'to_grammatical_WM_C'
p5061
sg24
Nsg25
Nsg26
g51
sg28
I36
sg29
g5048
sbasg15
(dp5062
g50
Nsg5061
Nsg4940
Nssg69
F1.0
sg72
(lp5063
g5044
ag0
(g19
g2
Ntp5064
Rp5065
(dp5066
g7
g4933
sg24
Nsg25
Nsg26
g27
sg28
I33
sg29
g5048
sbasS'state'
p5067
(dp5068
S'produce'
p5069
I00
sS'unexpressed_sem'
p5070
I00
sS'mode'
p5071
g5069
sS'last_prod_time'
p5072
I0
ssg108
(dp5073
g4976
(dp5074
g4978
F0.1
sg4979
F0.0
sg4980
F0.7
sg4981
F0.5
ssS'task'
p5075
(dp5076
S'time_pressure'
p5077
F10.0
sS'start_produce'
p5078
F1.0
sssg104
F0.0
sg129
F0.0
sg13
g4
sg28
I8
sbsbsg214
g57
sg13
g4
sg28
I8
sbag0
(g185
g2
Ntp5079
Rp5080
(dp5081
g189
I0
sg7
g161
sg190
I0
sg191
g0
(g19
g2
Ntp5082
Rp5083
(dp5084
g7
g4933
sg24
Nsg25
Nsg26
g27
sg28
I30
sg29
g0
(clanguage_schemas
UTTER
p5085
g2
Ntp5086
Rp5087
(dp5088
g34
(dp5089
g4933
Nssg7
g159
sg45
(lp5090
g0
(g19
g2
Ntp5091
Rp5092
(dp5093
g7
g67
sg24
Nsg25
Nsg26
g51
sg28
I31
sg29
g5087
sbasg15
(dp5094
g67
NssS'utterance_stack'
p5095
(lp5096
sg69
F1.0
sg72
(lp5097
g5083
asg108
(dp5098
S'speech_rate'
p5099
F1.0
ssg104
F0.0
sg129
F0.0
sg13
g4
sg28
I7
sbsbsg214
g5003
sg13
g4
sg28
I9
sbag0
(g185
g2
Ntp5100
Rp5101
(dp5102
g189
I0
sg7
g161
sg190
I0
sg191
g5065
sg214
g5010
sg13
g4
sg28
I10
sbag0
(g185
g2
Ntp5103
Rp5104
(dp5105
g189
I0
sg7
g161
sg190
I0
sg191
g4955
sg214
g5056
sg13
g4
sg28
I11
sbag0
(g185
g2
Ntp5106
Rp5107
(dp5108
g189
I0
sg7
g161
sg190
I0
sg191
g84
sg214
g5053
sg13
g4
sg28
I12
sbasg108
(dp5109
g156
g5073
sg166
g5032
sg169
(dp5110
g4705
F1.0
ssg175
g4704
sg179
g213
sg42
g109
sg159
g5098
sg171
g4971
ssg104
F0.0
sS'set_up_time'
p5111
I10
sS'input'
p5112
NsS'default_params'
p5113
Nsg69
F1.0
sS'output_ports'
p5114
(lp5115
g5092
ag5013
ag4946
ag65
asg4706
(dp5116
g156
g5048
sg166
g4996
sg169
g0
(clanguage_schemas
CONCEPT_LTM
p5117
g2
Ntp5118
Rp5119
(dp5120
g34
(dp5121
sg7
g169
sg45
(lp5122
g0
(g19
g2
Ntp5123
Rp5124
(dp5125
g7
S'to_conceptualizer'
p5126
sg24
Nsg25
Nsg26
g51
sg28
I11
sg29
g5119
sbag0
(g19
g2
Ntp5127
Rp5128
(dp5129
g7
g4940
sg24
Nsg25
Nsg26
g51
sg28
I12
sg29
g5119
sbasg15
(dp5130
g5126
Nsg4940
Nssg183
(lp5131
sS'cpt_knowledge'
p5132
g266
sg69
F1.0
sg72
(lp5133
sg108
g5110
sg104
F0.0
sg129
F0.0
sg13
g4
sg28
I2
sg4706
(lp5134
g0
(clanguage_schemas
CPT_EVENT_SCHEMA
p5135
g2
Ntp5136
Rp5137
(dp5138
g7
g273
sg4712
(dp5139
g256
g741
ssg13
Nsg28
I9
sg4713
g5119
sg4705
F1.0
sbag0
(clanguage_schemas
CPT_ACTION_SCHEMA
p5140
g2
Ntp5141
Rp5142
(dp5143
g7
g277
sg4712
(dp5144
g256
g747
ssg13
Nsg28
I10
sg4713
g5119
sg4705
F1.0
sbag0
(g5140
g2
Ntp5145
Rp5146
(dp5147
g7
g279
sg4712
(dp5148
g256
g750
ssg13
Nsg28
I11
sg4713
g5119
sg4705
F1.0
sbag0
(g5140
g2
Ntp5149
Rp5150
(dp5151
g7
g281
sg4712
(dp5152
g256
g753
ssg13
Nsg28
I12
sg4713
g5119
sg4705
F1.0
sbag0
(g5140
g2
Ntp5153
Rp5154
(dp5155
g7
g283
sg4712
(dp5156
g256
g756
ssg13
Nsg28
I13
sg4713
g5119
sg4705
F1.0
sbag0
(g5140
g2
Ntp5157
Rp5158
(dp5159
g7
g285
sg4712
(dp5160
g256
g759
ssg13
Nsg28
I14
sg4713
g5119
sg4705
F1.0
sbag0
(g5140
g2
Ntp5161
Rp5162
(dp5163
g7
g287
sg4712
(dp5164
g256
g762
ssg13
Nsg28
I15
sg4713
g5119
sg4705
F1.0
sbag0
(g5140
g2
Ntp5165
Rp5166
(dp5167
g7
g289
sg4712
(dp5168
g256
g765
ssg13
Nsg28
I16
sg4713
g5119
sg4705
F1.0
sbag0
(g5140
g2
Ntp5169
Rp5170
(dp5171
g7
g291
sg4712
(dp5172
g256
g768
ssg13
Nsg28
I17
sg4713
g5119
sg4705
F1.0
sbag0
(g5140
g2
Ntp5173
Rp5174
(dp5175
g7
g293
sg4712
(dp5176
g256
g771
ssg13
Nsg28
I18
sg4713
g5119
sg4705
F1.0
sbag0
(g5140
g2
Ntp5177
Rp5178
(dp5179
g7
g295
sg4712
(dp5180
g256
g774
ssg13
Nsg28
I19
sg4713
g5119
sg4705
F1.0
sbag0
(g5140
g2
Ntp5181
Rp5182
(dp5183
g7
g297
sg4712
(dp5184
g256
g777
ssg13
Nsg28
I20
sg4713
g5119
sg4705
F1.0
sbag0
(g5140
g2
Ntp5185
Rp5186
(dp5187
g7
g299
sg4712
(dp5188
g256
g780
ssg13
Nsg28
I21
sg4713
g5119
sg4705
F1.0
sbag0
(g5140
g2
Ntp5189
Rp5190
(dp5191
g7
g301
sg4712
(dp5192
g256
g783
ssg13
Nsg28
I22
sg4713
g5119
sg4705
F1.0
sbag0
(g5140
g2
Ntp5193
Rp5194
(dp5195
g7
g303
sg4712
(dp5196
g256
g786
ssg13
Nsg28
I23
sg4713
g5119
sg4705
F1.0
sbag0
(g5140
g2
Ntp5197
Rp5198
(dp5199
g7
g305
sg4712
(dp5200
g256
g789
ssg13
Nsg28
I24
sg4713
g5119
sg4705
F1.0
sbag0
(g5140
g2
Ntp5201
Rp5202
(dp5203
g7
g307
sg4712
(dp5204
g256
g792
ssg13
Nsg28
I25
sg4713
g5119
sg4705
F1.0
sbag0
(g5140
g2
Ntp5205
Rp5206
(dp5207
g7
g309
sg4712
(dp5208
g256
g795
ssg13
Nsg28
I26
sg4713
g5119
sg4705
F1.0
sbag0
(g5140
g2
Ntp5209
Rp5210
(dp5211
g7
g311
sg4712
(dp5212
g256
g798
ssg13
Nsg28
I27
sg4713
g5119
sg4705
F1.0
sbag0
(g5140
g2
Ntp5213
Rp5214
(dp5215
g7
g313
sg4712
(dp5216
g256
g801
ssg13
Nsg28
I28
sg4713
g5119
sg4705
F1.0
sbag0
(clanguage_schemas
CPT_PROPERTY_SCHEMA
p5217
g2
Ntp5218
Rp5219
(dp5220
g7
g315
sg4712
(dp5221
g256
g804
ssg13
Nsg28
I29
sg4713
g5119
sg4705
F1.0
sbag0
(g5217
g2
Ntp5222
Rp5223
(dp5224
g7
g317
sg4712
(dp5225
g256
g807
ssg13
Nsg28
I30
sg4713
g5119
sg4705
F1.0
sbag0
(g5217
g2
Ntp5226
Rp5227
(dp5228
g7
g319
sg4712
(dp5229
g256
g810
ssg13
Nsg28
I31
sg4713
g5119
sg4705
F1.0
sbag0
(g5217
g2
Ntp5230
Rp5231
(dp5232
g7
g321
sg4712
(dp5233
g256
g813
ssg13
Nsg28
I32
sg4713
g5119
sg4705
F1.0
sbag0
(g5217
g2
Ntp5234
Rp5235
(dp5236
g7
g323
sg4712
(dp5237
g256
g816
ssg13
Nsg28
I33
sg4713
g5119
sg4705
F1.0
sbag0
(g5217
g2
Ntp5238
Rp5239
(dp5240
g7
g325
sg4712
(dp5241
g256
g819
ssg13
Nsg28
I34
sg4713
g5119
sg4705
F1.0
sbag0
(g5217
g2
Ntp5242
Rp5243
(dp5244
g7
g327
sg4712
(dp5245
g256
g822
ssg13
Nsg28
I35
sg4713
g5119
sg4705
F1.0
sbag0
(g5217
g2
Ntp5246
Rp5247
(dp5248
g7
g329
sg4712
(dp5249
g256
g825
ssg13
Nsg28
I36
sg4713
g5119
sg4705
F1.0
sbag0
(g5217
g2
Ntp5250
Rp5251
(dp5252
g7
g331
sg4712
(dp5253
g256
g828
ssg13
Nsg28
I37
sg4713
g5119
sg4705
F1.0
sbag0
(g5217
g2
Ntp5254
Rp5255
(dp5256
g7
g333
sg4712
(dp5257
g256
g831
ssg13
Nsg28
I38
sg4713
g5119
sg4705
F1.0
sbag0
(g5217
g2
Ntp5258
Rp5259
(dp5260
g7
g335
sg4712
(dp5261
g256
g834
ssg13
Nsg28
I39
sg4713
g5119
sg4705
F1.0
sbag0
(g5217
g2
Ntp5262
Rp5263
(dp5264
g7
g337
sg4712
(dp5265
g256
g837
ssg13
Nsg28
I40
sg4713
g5119
sg4705
F1.0
sbag0
(g5217
g2
Ntp5266
Rp5267
(dp5268
g7
g339
sg4712
(dp5269
g256
g840
ssg13
Nsg28
I41
sg4713
g5119
sg4705
F1.0
sbag0
(g5217
g2
Ntp5270
Rp5271
(dp5272
g7
g341
sg4712
(dp5273
g256
g843
ssg13
Nsg28
I42
sg4713
g5119
sg4705
F1.0
sbag0
(clanguage_schemas
CPT_RELATION_SCHEMA
p5274
g2
Ntp5275
Rp5276
(dp5277
g7
g343
sg4712
(dp5278
g1016
Nsg256
g846
sg1017
Nssg13
Nsg28
I43
sg4713
g5119
sg4705
F1.0
sbag0
(g5274
g2
Ntp5279
Rp5280
(dp5281
g7
g345
sg4712
(dp5282
g1016
Nsg256
g849
sg1017
Nssg13
Nsg28
I44
sg4713
g5119
sg4705
F1.0
sbag0
(g5274
g2
Ntp5283
Rp5284
(dp5285
g7
g347
sg4712
(dp5286
g1016
Nsg256
g852
sg1017
Nssg13
Nsg28
I45
sg4713
g5119
sg4705
F1.0
sbag0
(g5274
g2
Ntp5287
Rp5288
(dp5289
g7
g349
sg4712
(dp5290
g1016
Nsg256
g855
sg1017
Nssg13
Nsg28
I46
sg4713
g5119
sg4705
F1.0
sbag0
(g5274
g2
Ntp5291
Rp5292
(dp5293
g7
g351
sg4712
(dp5294
g1016
Nsg256
g858
sg1017
Nssg13
Nsg28
I47
sg4713
g5119
sg4705
F1.0
sbag0
(g5274
g2
Ntp5295
Rp5296
(dp5297
g7
g353
sg4712
(dp5298
g1016
Nsg256
g861
sg1017
Nssg13
Nsg28
I48
sg4713
g5119
sg4705
F1.0
sbag0
(g5274
g2
Ntp5299
Rp5300
(dp5301
g7
g355
sg4712
(dp5302
g1016
Nsg256
g864
sg1017
Nssg13
Nsg28
I49
sg4713
g5119
sg4705
F1.0
sbag0
(g5274
g2
Ntp5303
Rp5304
(dp5305
g7
g357
sg4712
(dp5306
g1016
Nsg256
g867
sg1017
Nssg13
Nsg28
I50
sg4713
g5119
sg4705
F1.0
sbag0
(g5274
g2
Ntp5307
Rp5308
(dp5309
g7
g359
sg4712
(dp5310
g1016
Nsg256
g870
sg1017
Nssg13
Nsg28
I51
sg4713
g5119
sg4705
F1.0
sbag0
(g5274
g2
Ntp5311
Rp5312
(dp5313
g7
g361
sg4712
(dp5314
g1016
Nsg256
g873
sg1017
Nssg13
Nsg28
I52
sg4713
g5119
sg4705
F1.0
sbag0
(g5274
g2
Ntp5315
Rp5316
(dp5317
g7
g363
sg4712
(dp5318
g1016
Nsg256
g876
sg1017
Nssg13
Nsg28
I53
sg4713
g5119
sg4705
F1.0
sbag0
(g5274
g2
Ntp5319
Rp5320
(dp5321
g7
g365
sg4712
(dp5322
g1016
Nsg256
g879
sg1017
Nssg13
Nsg28
I54
sg4713
g5119
sg4705
F1.0
sbag0
(g5274
g2
Ntp5323
Rp5324
(dp5325
g7
g367
sg4712
(dp5326
g1016
Nsg256
g882
sg1017
Nssg13
Nsg28
I55
sg4713
g5119
sg4705
F1.0
sbag0
(g5274
g2
Ntp5327
Rp5328
(dp5329
g7
g369
sg4712
(dp5330
g1016
Nsg256
g885
sg1017
Nssg13
Nsg28
I56
sg4713
g5119
sg4705
F1.0
sbag0
(g5274
g2
Ntp5331
Rp5332
(dp5333
g7
g371
sg4712
(dp5334
g1016
Nsg256
g888
sg1017
Nssg13
Nsg28
I57
sg4713
g5119
sg4705
F1.0
sbag0
(g5274
g2
Ntp5335
Rp5336
(dp5337
g7
g373
sg4712
(dp5338
g1016
Nsg256
g891
sg1017
Nssg13
Nsg28
I58
sg4713
g5119
sg4705
F1.0
sbag0
(g5274
g2
Ntp5339
Rp5340
(dp5341
g7
g375
sg4712
(dp5342
g1016
Nsg256
g894
sg1017
Nssg13
Nsg28
I59
sg4713
g5119
sg4705
F1.0
sbag0
(g5274
g2
Ntp5343
Rp5344
(dp5345
g7
g377
sg4712
(dp5346
g1016
Nsg256
g897
sg1017
Nssg13
Nsg28
I60
sg4713
g5119
sg4705
F1.0
sbag0
(g5135
g2
Ntp5347
Rp5348
(dp5349
g7
g262
sg4712
(dp5350
g256
g259
ssg13
Nsg28
I61
sg4713
g5119
sg4705
F1.0
sbag0
(clanguage_schemas
CPT_ENTITY_SCHEMA
p5351
g2
Ntp5352
Rp5353
(dp5354
g7
g380
sg4712
(dp5355
g256
g900
ssg13
Nsg28
I62
sg4713
g5119
sg4705
F1.0
sbag0
(g5351
g2
Ntp5356
Rp5357
(dp5358
g7
g382
sg4712
(dp5359
g256
g903
ssg13
Nsg28
I63
sg4713
g5119
sg4705
F1.0
sbag0
(g5351
g2
Ntp5360
Rp5361
(dp5362
g7
g384
sg4712
(dp5363
g256
g906
ssg13
Nsg28
I64
sg4713
g5119
sg4705
F1.0
sbag0
(g5351
g2
Ntp5364
Rp5365
(dp5366
g7
g386
sg4712
(dp5367
g256
g909
ssg13
Nsg28
I65
sg4713
g5119
sg4705
F1.0
sbag0
(g5351
g2
Ntp5368
Rp5369
(dp5370
g7
g388
sg4712
(dp5371
g256
g912
ssg13
Nsg28
I66
sg4713
g5119
sg4705
F1.0
sbag0
(g5351
g2
Ntp5372
Rp5373
(dp5374
g7
g390
sg4712
(dp5375
g256
g915
ssg13
Nsg28
I67
sg4713
g5119
sg4705
F1.0
sbag0
(g5351
g2
Ntp5376
Rp5377
(dp5378
g7
g392
sg4712
(dp5379
g256
g918
ssg13
Nsg28
I68
sg4713
g5119
sg4705
F1.0
sbag0
(g5351
g2
Ntp5380
Rp5381
(dp5382
g7
g394
sg4712
(dp5383
g256
g921
ssg13
Nsg28
I69
sg4713
g5119
sg4705
F1.0
sbag0
(g5351
g2
Ntp5384
Rp5385
(dp5386
g7
g396
sg4712
(dp5387
g256
g924
ssg13
Nsg28
I70
sg4713
g5119
sg4705
F1.0
sbag0
(g5351
g2
Ntp5388
Rp5389
(dp5390
g7
g398
sg4712
(dp5391
g256
g927
ssg13
Nsg28
I71
sg4713
g5119
sg4705
F1.0
sbag0
(g5351
g2
Ntp5392
Rp5393
(dp5394
g7
g400
sg4712
(dp5395
g256
g930
ssg13
Nsg28
I72
sg4713
g5119
sg4705
F1.0
sbag0
(g5351
g2
Ntp5396
Rp5397
(dp5398
g7
g402
sg4712
(dp5399
g256
g933
ssg13
Nsg28
I73
sg4713
g5119
sg4705
F1.0
sbag0
(g5351
g2
Ntp5400
Rp5401
(dp5402
g7
g404
sg4712
(dp5403
g256
g936
ssg13
Nsg28
I74
sg4713
g5119
sg4705
F1.0
sbag0
(g5351
g2
Ntp5404
Rp5405
(dp5406
g7
g406
sg4712
(dp5407
g256
g939
ssg13
Nsg28
I75
sg4713
g5119
sg4705
F1.0
sbag0
(g5351
g2
Ntp5408
Rp5409
(dp5410
g7
g408
sg4712
(dp5411
g256
g942
ssg13
Nsg28
I76
sg4713
g5119
sg4705
F1.0
sbag0
(g5351
g2
Ntp5412
Rp5413
(dp5414
g7
g410
sg4712
(dp5415
g256
g945
ssg13
Nsg28
I77
sg4713
g5119
sg4705
F1.0
sbag0
(g5351
g2
Ntp5416
Rp5417
(dp5418
g7
g412
sg4712
(dp5419
g256
g948
ssg13
Nsg28
I78
sg4713
g5119
sg4705
F1.0
sbag0
(g5351
g2
Ntp5420
Rp5421
(dp5422
g7
g414
sg4712
(dp5423
g256
g951
ssg13
Nsg28
I79
sg4713
g5119
sg4705
F1.0
sbag0
(g5351
g2
Ntp5424
Rp5425
(dp5426
g7
g416
sg4712
(dp5427
g256
g954
ssg13
Nsg28
I80
sg4713
g5119
sg4705
F1.0
sbag0
(g5351
g2
Ntp5428
Rp5429
(dp5430
g7
g418
sg4712
(dp5431
g256
g957
ssg13
Nsg28
I81
sg4713
g5119
sg4705
F1.0
sbag0
(g5351
g2
Ntp5432
Rp5433
(dp5434
g7
g420
sg4712
(dp5435
g256
g960
ssg13
Nsg28
I82
sg4713
g5119
sg4705
F1.0
sbag0
(g5351
g2
Ntp5436
Rp5437
(dp5438
g7
g422
sg4712
(dp5439
g256
g963
ssg13
Nsg28
I83
sg4713
g5119
sg4705
F1.0
sbag0
(g5351
g2
Ntp5440
Rp5441
(dp5442
g7
g424
sg4712
(dp5443
g256
g966
ssg13
Nsg28
I84
sg4713
g5119
sg4705
F1.0
sbag0
(g5351
g2
Ntp5444
Rp5445
(dp5446
g7
g426
sg4712
(dp5447
g256
g969
ssg13
Nsg28
I85
sg4713
g5119
sg4705
F1.0
sbag0
(g5351
g2
Ntp5448
Rp5449
(dp5450
g7
g428
sg4712
(dp5451
g256
g972
ssg13
Nsg28
I86
sg4713
g5119
sg4705
F1.0
sbag0
(g5351
g2
Ntp5452
Rp5453
(dp5454
g7
g430
sg4712
(dp5455
g256
g975
ssg13
Nsg28
I87
sg4713
g5119
sg4705
F1.0
sbag0
(g5351
g2
Ntp5456
Rp5457
(dp5458
g7
g432
sg4712
(dp5459
g256
g978
ssg13
Nsg28
I88
sg4713
g5119
sg4705
F1.0
sbag0
(g5351
g2
Ntp5460
Rp5461
(dp5462
g7
g434
sg4712
(dp5463
g256
g981
ssg13
Nsg28
I89
sg4713
g5119
sg4705
F1.0
sbag0
(g5351
g2
Ntp5464
Rp5465
(dp5466
g7
g436
sg4712
(dp5467
g256
g984
ssg13
Nsg28
I90
sg4713
g5119
sg4705
F1.0
sbag0
(g5351
g2
Ntp5468
Rp5469
(dp5470
g7
g438
sg4712
(dp5471
g256
g987
ssg13
Nsg28
I91
sg4713
g5119
sg4705
F1.0
sbag0
(g5351
g2
Ntp5472
Rp5473
(dp5474
g7
g440
sg4712
(dp5475
g256
g990
ssg13
Nsg28
I92
sg4713
g5119
sg4705
F1.0
sbag0
(g5351
g2
Ntp5476
Rp5477
(dp5478
g7
g442
sg4712
(dp5479
g256
g993
ssg13
Nsg28
I93
sg4713
g5119
sg4705
F1.0
sbag0
(g5351
g2
Ntp5480
Rp5481
(dp5482
g7
g444
sg4712
(dp5483
g256
g996
ssg13
Nsg28
I94
sg4713
g5119
sg4705
F1.0
sbag0
(g5351
g2
Ntp5484
Rp5485
(dp5486
g7
g446
sg4712
(dp5487
g256
g999
ssg13
Nsg28
I95
sg4713
g5119
sg4705
F1.0
sbag0
(g5351
g2
Ntp5488
Rp5489
(dp5490
g7
g448
sg4712
(dp5491
g256
g1002
ssg13
Nsg28
I96
sg4713
g5119
sg4705
F1.0
sbag0
(g5351
g2
Ntp5492
Rp5493
(dp5494
g7
g450
sg4712
(dp5495
g256
g1005
ssg13
Nsg28
I97
sg4713
g5119
sg4705
F1.0
sbag0
(g5351
g2
Ntp5496
Rp5497
(dp5498
g7
g452
sg4712
(dp5499
g256
g1008
ssg13
Nsg28
I98
sg4713
g5119
sg4705
F1.0
sbasbsg179
g198
sg171
g4930
sg42
g32
sg159
g5087
sg175
g223
ssb.