(lp0
(dp1
S'Grammatical_WM_P.dyn.noise_std'
p2
cnumpy.core.multiarray
scalar
p3
(cnumpy
dtype
p4
(S'f8'
p5
I0
I1
tp6
Rp7
(I3
S'<'
p8
NNNI-1
I-1
I0
tp9
bS'\x00\x00\x00\x00\x00\x00\xf0?'
p10
tp11
Rp12
sS'Control.task.time_pressure'
p13
g3
(g7
S'\x00\x00\x00\x00\x00\x00\xf0?'
p14
tp15
Rp16
sS'Grammatical_WM_P.dyn.act_rest'
p17
F0.001
sS'Grammatical_WM_P.C2.sub_threshold_r'
p18
F0.8
sS'Grammatical_WM_P.C2.coop_weight'
p19
F1.0
sS'Grammatical_WM_P.dyn.k'
p20
g3
(g7
S'\x00\x00\x00\x00\x00\x00\xf0?'
p21
tp22
Rp23
sS'Grammatical_WM_P.dyn.tau'
p24
g3
(g7
S'\x00\x00\x00\x00\x00\x00Y@'
p25
tp26
Rp27
sS'Grammatical_WM_P.C2.comp_weight'
p28
F-10.0
sS'Grammatical_WM_P.C2.coop_asymmetry'
p29
F1.0
sS'Grammatical_WM_P.C2.prune_threshold'
p30
F0.01
sS'Control.task.start_produce'
p31
g3
(g7
S'\x00\x00\x00\x00\x00\x00\xf0?'
p32
tp33
Rp34
sS'Grammatical_WM_P.C2.deact_weight'
p35
F0.0
sS'Grammatical_WM_P.dyn.ext_weight'
p36
g3
(g7
S'\x00\x00\x00\x00\x00\x00\xf0?'
p37
tp38
Rp39
sS'Grammatical_WM_P.C2.confidence_threshold'
p40
F0.3
sa(dp41
g2
g12
sg13
g16
sg17
F0.001
sg18
F0.8
sg19
F1.0
sg20
g23
sg24
g27
sg28
F-10.0
sg29
F1.0
sg30
F0.01
sg31
g34
sg35
F0.0
sg36
g3
(g7
S'\x00\x00\x00\x00\x00\x00$@'
p42
tp43
Rp44
sg40
F0.3
sa(dp45
g2
g3
(g7
S'\x00\x00\x00\x00\x00\x00\x00@'
p46
tp47
Rp48
sg13
g16
sg17
F0.001
sg18
F0.8
sg19
F1.0
sg20
g23
sg24
g27
sg28
F-10.0
sg29
F1.0
sg30
F0.01
sg31
g34
sg35
F0.0
sg36
g39
sg40
F0.3
sa(dp49
g2
g48
sg13
g16
sg17
F0.001
sg18
F0.8
sg19
F1.0
sg20
g23
sg24
g27
sg28
F-10.0
sg29
F1.0
sg30
F0.01
sg31
g34
sg35
F0.0
sg36
g44
sg40
F0.3
sa(dp50
g2
g12
sg13
g16
sg17
F0.001
sg18
F0.8
sg19
F1.0
sg20
g3
(g7
S'\x00\x00\x00\x00\x00\x00$@'
p51
tp52
Rp53
sg24
g27
sg28
F-10.0
sg29
F1.0
sg30
F0.01
sg31
g34
sg35
F0.0
sg36
g39
sg40
F0.3
sa(dp54
g2
g12
sg13
g16
sg17
F0.001
sg18
F0.8
sg19
F1.0
sg20
g53
sg24
g27
sg28
F-10.0
sg29
F1.0
sg30
F0.01
sg31
g34
sg35
F0.0
sg36
g44
sg40
F0.3
sa(dp55
g2
g48
sg13
g16
sg17
F0.001
sg18
F0.8
sg19
F1.0
sg20
g53
sg24
g27
sg28
F-10.0
sg29
F1.0
sg30
F0.01
sg31
g34
sg35
F0.0
sg36
g39
sg40
F0.3
sa(dp56
g2
g48
sg13
g16
sg17
F0.001
sg18
F0.8
sg19
F1.0
sg20
g53
sg24
g27
sg28
F-10.0
sg29
F1.0
sg30
F0.01
sg31
g34
sg35
F0.0
sg36
g44
sg40
F0.3
sa(dp57
g2
g12
sg13
g16
sg17
F0.001
sg18
F0.8
sg19
F1.0
sg20
g23
sg24
g3
(g7
S'\x00\x00\x00\x00\x00@\x8f@'
p58
tp59
Rp60
sg28
F-10.0
sg29
F1.0
sg30
F0.01
sg31
g34
sg35
F0.0
sg36
g39
sg40
F0.3
sa(dp61
g2
g12
sg13
g16
sg17
F0.001
sg18
F0.8
sg19
F1.0
sg20
g23
sg24
g60
sg28
F-10.0
sg29
F1.0
sg30
F0.01
sg31
g34
sg35
F0.0
sg36
g44
sg40
F0.3
sa(dp62
g2
g48
sg13
g16
sg17
F0.001
sg18
F0.8
sg19
F1.0
sg20
g23
sg24
g60
sg28
F-10.0
sg29
F1.0
sg30
F0.01
sg31
g34
sg35
F0.0
sg36
g39
sg40
F0.3
sa(dp63
g2
g48
sg13
g16
sg17
F0.001
sg18
F0.8
sg19
F1.0
sg20
g23
sg24
g60
sg28
F-10.0
sg29
F1.0
sg30
F0.01
sg31
g34
sg35
F0.0
sg36
g44
sg40
F0.3
sa(dp64
g2
g12
sg13
g16
sg17
F0.001
sg18
F0.8
sg19
F1.0
sg20
g53
sg24
g60
sg28
F-10.0
sg29
F1.0
sg30
F0.01
sg31
g34
sg35
F0.0
sg36
g39
sg40
F0.3
sa(dp65
g2
g12
sg13
g16
sg17
F0.001
sg18
F0.8
sg19
F1.0
sg20
g53
sg24
g60
sg28
F-10.0
sg29
F1.0
sg30
F0.01
sg31
g34
sg35
F0.0
sg36
g44
sg40
F0.3
sa(dp66
g2
g48
sg13
g16
sg17
F0.001
sg18
F0.8
sg19
F1.0
sg20
g53
sg24
g60
sg28
F-10.0
sg29
F1.0
sg30
F0.01
sg31
g34
sg35
F0.0
sg36
g39
sg40
F0.3
sa(dp67
g2
g48
sg13
g16
sg17
F0.001
sg18
F0.8
sg19
F1.0
sg20
g53
sg24
g60
sg28
F-10.0
sg29
F1.0
sg30
F0.01
sg31
g34
sg35
F0.0
sg36
g44
sg40
F0.3
sa(dp68
g2
g12
sg13
g3
(g7
S'\x00\x00\x00\x00\x00@\x8f@'
p69
tp70
Rp71
sg17
F0.001
sg18
F0.8
sg19
F1.0
sg20
g23
sg24
g27
sg28
F-10.0
sg29
F1.0
sg30
F0.01
sg31
g34
sg35
F0.0
sg36
g39
sg40
F0.3
sa(dp72
g2
g12
sg13
g71
sg17
F0.001
sg18
F0.8
sg19
F1.0
sg20
g23
sg24
g27
sg28
F-10.0
sg29
F1.0
sg30
F0.01
sg31
g34
sg35
F0.0
sg36
g44
sg40
F0.3
sa(dp73
g2
g48
sg13
g71
sg17
F0.001
sg18
F0.8
sg19
F1.0
sg20
g23
sg24
g27
sg28
F-10.0
sg29
F1.0
sg30
F0.01
sg31
g34
sg35
F0.0
sg36
g39
sg40
F0.3
sa(dp74
g2
g48
sg13
g71
sg17
F0.001
sg18
F0.8
sg19
F1.0
sg20
g23
sg24
g27
sg28
F-10.0
sg29
F1.0
sg30
F0.01
sg31
g34
sg35
F0.0
sg36
g44
sg40
F0.3
sa(dp75
g2
g12
sg13
g71
sg17
F0.001
sg18
F0.8
sg19
F1.0
sg20
g53
sg24
g27
sg28
F-10.0
sg29
F1.0
sg30
F0.01
sg31
g34
sg35
F0.0
sg36
g39
sg40
F0.3
sa(dp76
g2
g12
sg13
g71
sg17
F0.001
sg18
F0.8
sg19
F1.0
sg20
g53
sg24
g27
sg28
F-10.0
sg29
F1.0
sg30
F0.01
sg31
g34
sg35
F0.0
sg36
g44
sg40
F0.3
sa(dp77
g2
g48
sg13
g71
sg17
F0.001
sg18
F0.8
sg19
F1.0
sg20
g53
sg24
g27
sg28
F-10.0
sg29
F1.0
sg30
F0.01
sg31
g34
sg35
F0.0
sg36
g39
sg40
F0.3
sa(dp78
g2
g48
sg13
g71
sg17
F0.001
sg18
F0.8
sg19
F1.0
sg20
g53
sg24
g27
sg28
F-10.0
sg29
F1.0
sg30
F0.01
sg31
g34
sg35
F0.0
sg36
g44
sg40
F0.3
sa(dp79
g2
g12
sg13
g71
sg17
F0.001
sg18
F0.8
sg19
F1.0
sg20
g23
sg24
g60
sg28
F-10.0
sg29
F1.0
sg30
F0.01
sg31
g34
sg35
F0.0
sg36
g39
sg40
F0.3
sa(dp80
g2
g12
sg13
g71
sg17
F0.001
sg18
F0.8
sg19
F1.0
sg20
g23
sg24
g60
sg28
F-10.0
sg29
F1.0
sg30
F0.01
sg31
g34
sg35
F0.0
sg36
g44
sg40
F0.3
sa(dp81
g2
g48
sg13
g71
sg17
F0.001
sg18
F0.8
sg19
F1.0
sg20
g23
sg24
g60
sg28
F-10.0
sg29
F1.0
sg30
F0.01
sg31
g34
sg35
F0.0
sg36
g39
sg40
F0.3
sa(dp82
g2
g48
sg13
g71
sg17
F0.001
sg18
F0.8
sg19
F1.0
sg20
g23
sg24
g60
sg28
F-10.0
sg29
F1.0
sg30
F0.01
sg31
g34
sg35
F0.0
sg36
g44
sg40
F0.3
sa(dp83
g2
g12
sg13
g71
sg17
F0.001
sg18
F0.8
sg19
F1.0
sg20
g53
sg24
g60
sg28
F-10.0
sg29
F1.0
sg30
F0.01
sg31
g34
sg35
F0.0
sg36
g39
sg40
F0.3
sa(dp84
g2
g12
sg13
g71
sg17
F0.001
sg18
F0.8
sg19
F1.0
sg20
g53
sg24
g60
sg28
F-10.0
sg29
F1.0
sg30
F0.01
sg31
g34
sg35
F0.0
sg36
g44
sg40
F0.3
sa(dp85
g2
g48
sg13
g71
sg17
F0.001
sg18
F0.8
sg19
F1.0
sg20
g53
sg24
g60
sg28
F-10.0
sg29
F1.0
sg30
F0.01
sg31
g34
sg35
F0.0
sg36
g39
sg40
F0.3
sa(dp86
g2
g48
sg13
g71
sg17
F0.001
sg18
F0.8
sg19
F1.0
sg20
g53
sg24
g60
sg28
F-10.0
sg29
F1.0
sg30
F0.01
sg31
g34
sg35
F0.0
sg36
g44
sg40
F0.3
sa(dp87
g2
g12
sg13
g16
sg17
F0.001
sg18
F0.8
sg19
F1.0
sg20
g23
sg24
g27
sg28
F-10.0
sg29
F1.0
sg30
F0.01
sg31
g3
(g7
S'\x00\x00\x00\x00\x00@\x8f@'
p88
tp89
Rp90
sg35
F0.0
sg36
g39
sg40
F0.3
sa(dp91
g2
g12
sg13
g16
sg17
F0.001
sg18
F0.8
sg19
F1.0
sg20
g23
sg24
g27
sg28
F-10.0
sg29
F1.0
sg30
F0.01
sg31
g90
sg35
F0.0
sg36
g44
sg40
F0.3
sa(dp92
g2
g48
sg13
g16
sg17
F0.001
sg18
F0.8
sg19
F1.0
sg20
g23
sg24
g27
sg28
F-10.0
sg29
F1.0
sg30
F0.01
sg31
g90
sg35
F0.0
sg36
g39
sg40
F0.3
sa(dp93
g2
g48
sg13
g16
sg17
F0.001
sg18
F0.8
sg19
F1.0
sg20
g23
sg24
g27
sg28
F-10.0
sg29
F1.0
sg30
F0.01
sg31
g90
sg35
F0.0
sg36
g44
sg40
F0.3
sa(dp94
g2
g12
sg13
g16
sg17
F0.001
sg18
F0.8
sg19
F1.0
sg20
g53
sg24
g27
sg28
F-10.0
sg29
F1.0
sg30
F0.01
sg31
g90
sg35
F0.0
sg36
g39
sg40
F0.3
sa(dp95
g2
g12
sg13
g16
sg17
F0.001
sg18
F0.8
sg19
F1.0
sg20
g53
sg24
g27
sg28
F-10.0
sg29
F1.0
sg30
F0.01
sg31
g90
sg35
F0.0
sg36
g44
sg40
F0.3
sa(dp96
g2
g48
sg13
g16
sg17
F0.001
sg18
F0.8
sg19
F1.0
sg20
g53
sg24
g27
sg28
F-10.0
sg29
F1.0
sg30
F0.01
sg31
g90
sg35
F0.0
sg36
g39
sg40
F0.3
sa(dp97
g2
g48
sg13
g16
sg17
F0.001
sg18
F0.8
sg19
F1.0
sg20
g53
sg24
g27
sg28
F-10.0
sg29
F1.0
sg30
F0.01
sg31
g90
sg35
F0.0
sg36
g44
sg40
F0.3
sa(dp98
g2
g12
sg13
g16
sg17
F0.001
sg18
F0.8
sg19
F1.0
sg20
g23
sg24
g60
sg28
F-10.0
sg29
F1.0
sg30
F0.01
sg31
g90
sg35
F0.0
sg36
g39
sg40
F0.3
sa(dp99
g2
g12
sg13
g16
sg17
F0.001
sg18
F0.8
sg19
F1.0
sg20
g23
sg24
g60
sg28
F-10.0
sg29
F1.0
sg30
F0.01
sg31
g90
sg35
F0.0
sg36
g44
sg40
F0.3
sa(dp100
g2
g48
sg13
g16
sg17
F0.001
sg18
F0.8
sg19
F1.0
sg20
g23
sg24
g60
sg28
F-10.0
sg29
F1.0
sg30
F0.01
sg31
g90
sg35
F0.0
sg36
g39
sg40
F0.3
sa(dp101
g2
g48
sg13
g16
sg17
F0.001
sg18
F0.8
sg19
F1.0
sg20
g23
sg24
g60
sg28
F-10.0
sg29
F1.0
sg30
F0.01
sg31
g90
sg35
F0.0
sg36
g44
sg40
F0.3
sa(dp102
g2
g12
sg13
g16
sg17
F0.001
sg18
F0.8
sg19
F1.0
sg20
g53
sg24
g60
sg28
F-10.0
sg29
F1.0
sg30
F0.01
sg31
g90
sg35
F0.0
sg36
g39
sg40
F0.3
sa(dp103
g2
g12
sg13
g16
sg17
F0.001
sg18
F0.8
sg19
F1.0
sg20
g53
sg24
g60
sg28
F-10.0
sg29
F1.0
sg30
F0.01
sg31
g90
sg35
F0.0
sg36
g44
sg40
F0.3
sa(dp104
g2
g48
sg13
g16
sg17
F0.001
sg18
F0.8
sg19
F1.0
sg20
g53
sg24
g60
sg28
F-10.0
sg29
F1.0
sg30
F0.01
sg31
g90
sg35
F0.0
sg36
g39
sg40
F0.3
sa(dp105
g2
g48
sg13
g16
sg17
F0.001
sg18
F0.8
sg19
F1.0
sg20
g53
sg24
g60
sg28
F-10.0
sg29
F1.0
sg30
F0.01
sg31
g90
sg35
F0.0
sg36
g44
sg40
F0.3
sa(dp106
g2
g12
sg13
g71
sg17
F0.001
sg18
F0.8
sg19
F1.0
sg20
g23
sg24
g27
sg28
F-10.0
sg29
F1.0
sg30
F0.01
sg31
g90
sg35
F0.0
sg36
g39
sg40
F0.3
sa(dp107
g2
g12
sg13
g71
sg17
F0.001
sg18
F0.8
sg19
F1.0
sg20
g23
sg24
g27
sg28
F-10.0
sg29
F1.0
sg30
F0.01
sg31
g90
sg35
F0.0
sg36
g44
sg40
F0.3
sa(dp108
g2
g48
sg13
g71
sg17
F0.001
sg18
F0.8
sg19
F1.0
sg20
g23
sg24
g27
sg28
F-10.0
sg29
F1.0
sg30
F0.01
sg31
g90
sg35
F0.0
sg36
g39
sg40
F0.3
sa(dp109
g2
g48
sg13
g71
sg17
F0.001
sg18
F0.8
sg19
F1.0
sg20
g23
sg24
g27
sg28
F-10.0
sg29
F1.0
sg30
F0.01
sg31
g90
sg35
F0.0
sg36
g44
sg40
F0.3
sa(dp110
g2
g12
sg13
g71
sg17
F0.001
sg18
F0.8
sg19
F1.0
sg20
g53
sg24
g27
sg28
F-10.0
sg29
F1.0
sg30
F0.01
sg31
g90
sg35
F0.0
sg36
g39
sg40
F0.3
sa(dp111
g2
g12
sg13
g71
sg17
F0.001
sg18
F0.8
sg19
F1.0
sg20
g53
sg24
g27
sg28
F-10.0
sg29
F1.0
sg30
F0.01
sg31
g90
sg35
F0.0
sg36
g44
sg40
F0.3
sa(dp112
g2
g48
sg13
g71
sg17
F0.001
sg18
F0.8
sg19
F1.0
sg20
g53
sg24
g27
sg28
F-10.0
sg29
F1.0
sg30
F0.01
sg31
g90
sg35
F0.0
sg36
g39
sg40
F0.3
sa(dp113
g2
g48
sg13
g71
sg17
F0.001
sg18
F0.8
sg19
F1.0
sg20
g53
sg24
g27
sg28
F-10.0
sg29
F1.0
sg30
F0.01
sg31
g90
sg35
F0.0
sg36
g44
sg40
F0.3
sa(dp114
g2
g12
sg13
g71
sg17
F0.001
sg18
F0.8
sg19
F1.0
sg20
g23
sg24
g60
sg28
F-10.0
sg29
F1.0
sg30
F0.01
sg31
g90
sg35
F0.0
sg36
g39
sg40
F0.3
sa(dp115
g2
g12
sg13
g71
sg17
F0.001
sg18
F0.8
sg19
F1.0
sg20
g23
sg24
g60
sg28
F-10.0
sg29
F1.0
sg30
F0.01
sg31
g90
sg35
F0.0
sg36
g44
sg40
F0.3
sa(dp116
g2
g48
sg13
g71
sg17
F0.001
sg18
F0.8
sg19
F1.0
sg20
g23
sg24
g60
sg28
F-10.0
sg29
F1.0
sg30
F0.01
sg31
g90
sg35
F0.0
sg36
g39
sg40
F0.3
sa(dp117
g2
g48
sg13
g71
sg17
F0.001
sg18
F0.8
sg19
F1.0
sg20
g23
sg24
g60
sg28
F-10.0
sg29
F1.0
sg30
F0.01
sg31
g90
sg35
F0.0
sg36
g44
sg40
F0.3
sa(dp118
g2
g12
sg13
g71
sg17
F0.001
sg18
F0.8
sg19
F1.0
sg20
g53
sg24
g60
sg28
F-10.0
sg29
F1.0
sg30
F0.01
sg31
g90
sg35
F0.0
sg36
g39
sg40
F0.3
sa(dp119
g2
g12
sg13
g71
sg17
F0.001
sg18
F0.8
sg19
F1.0
sg20
g53
sg24
g60
sg28
F-10.0
sg29
F1.0
sg30
F0.01
sg31
g90
sg35
F0.0
sg36
g44
sg40
F0.3
sa(dp120
g2
g48
sg13
g71
sg17
F0.001
sg18
F0.8
sg19
F1.0
sg20
g53
sg24
g60
sg28
F-10.0
sg29
F1.0
sg30
F0.01
sg31
g90
sg35
F0.0
sg36
g39
sg40
F0.3
sa(dp121
g2
g48
sg13
g71
sg17
F0.001
sg18
F0.8
sg19
F1.0
sg20
g53
sg24
g60
sg28
F-10.0
sg29
F1.0
sg30
F0.01
sg31
g90
sg35
F0.0
sg36
g44
sg40
F0.3
sa.