ccopy_reg
_reconstructor
p0
(clanguage_schemas
SEM_GENERATOR
p1
c__builtin__
object
p2
Ntp3
Rp4
(dp5
S'sem_inputs'
p6
(dp7
S'{}'
p8
(dp9
Vtiming
p10
(lp11
F0.0
asVsem_rate
p12
I1
sVpropositions
p13
(dp14
VP1
p15
(lp16
VENTITY(e1,F)
p17
aVMAN(man)
p18
aVIS(is1)
p19
aVis1(e1, man)
p20
aVENTITY(e2,F)
p21
aVWOMAN(woman)
p22
aVIS(is2)
p23
aVis2(e2, woman)
p24
aVYOUNG(young)
p25
aVMODIFY(mod)
p26
aVmod(e2, young)
p27
aVEVENT(evt1,F)
p28
aVACTION(a1,F)
p29
aVIS(is3)
p30
aVis3(evt1,a1)
p31
aVPUNCH(punch)
p32
aVIS(is4)
p33
aVis4(a1, punch)
p34
aVAGENT(agt)
p35
aVPATIENT(pt)
p36
aVagt(a1, e2)
p37
aVpt(a1, e1)
p38
assVcomments
p39
VActions + property modifier static.
p40
sVsequence
p41
(lp42
VP1
p43
asssS'conceptLTM'
p44
g0
(clanguage_schemas
CONCEPT_LTM
p45
g2
Ntp46
Rp47
(dp48
S'inputs'
p49
(dp50
sS'name'
p51
S'Concept_LTM'
p52
sS'out_ports'
p53
(lp54
g0
(cschema_theory
PORT
p55
g2
Ntp56
Rp57
(dp58
g51
S'to_conceptualizer'
p59
sS'data'
p60
NsS'value'
p61
(lp62
g0
(clanguage_schemas
CPT_EVENT_SCHEMA
p63
g2
Ntp64
Rp65
(dp66
g51
S'?'
p67
sS'content'
p68
(dp69
S'concept'
p70
g0
(cconcept
CONCEPT
p71
g2
Ntp72
Rp73
(dp74
S'meaning'
p75
g67
sS'conceptual_knowledge'
p76
g0
(cconcept
CONCEPTUAL_KNOWLEDGE
p77
g2
Ntp78
Rp79
(dp80
S'graph'
p81
g0
(cnetworkx.classes.digraph
DiGraph
p82
g2
Ntp83
Rp84
(dp85
S'node'
p86
(dp87
I1
(dp88
g75
g67
ssI2
(dp89
g75
S'CONCEPT'
p90
ssI3
(dp91
g75
VACTION
p92
ssI4
(dp93
g75
VSYMMETRIC
p94
ssI5
(dp95
g75
VMEET
p96
ssI6
(dp97
g75
VSHAKE_HANDS
p98
ssI7
(dp99
g75
VINTRANSITIVE
p100
ssI8
(dp101
g75
VLAUGH
p102
ssI9
(dp103
g75
VTRANSITIVE
p104
ssI10
(dp105
g75
VHIT
p106
ssI11
(dp107
g75
VWATCH
p108
ssI12
(dp109
g75
VPUNCH
p110
ssI13
(dp111
g75
VSPLASH
p112
ssI14
(dp113
g75
VTALK
p114
ssI15
(dp115
g75
VKISS
p116
ssI16
(dp117
g75
VSQUIRT
p118
ssI17
(dp119
g75
VKICK
p120
ssI18
(dp121
g75
VWEAR
p122
ssI19
(dp123
g75
VDITRANSITIVE
p124
ssI20
(dp125
g75
VSEND
p126
ssI21
(dp127
g75
VGIVE
p128
ssI22
(dp129
g75
VPROPERTY
p130
ssI23
(dp131
g75
VCOLOR
p132
ssI24
(dp133
g75
VBLUE
p134
ssI25
(dp135
g75
VGREEN
p136
ssI26
(dp137
g75
VWHITE
p138
ssI27
(dp139
g75
VBLACK
p140
ssI28
(dp141
g75
VRED
p142
ssI29
(dp143
g75
VAPPEARANCE
p144
ssI30
(dp145
g75
VYOUNG
p146
ssI31
(dp147
g75
VPRETTY
p148
ssI32
(dp149
g75
VHANDSOME
p150
ssI33
(dp151
g75
VSIZE
p152
ssI34
(dp153
g75
VSMALL
p154
ssI35
(dp155
g75
VBIG
p156
ssI36
(dp157
g75
VRELATION
p158
ssI37
(dp159
g75
VACTION_FRAME
p160
ssI38
(dp161
g75
VMODIFY
p162
ssI39
(dp163
g75
VTHEME
p164
ssI40
(dp165
g75
VRECIPIENT
p166
ssI41
(dp167
g75
VATTR
p168
ssI42
(dp169
g75
VAGT_PT
p170
ssI43
(dp171
g75
VPATIENT
p172
ssI44
(dp173
g75
VAGT+PT
p174
ssI45
(dp175
g75
VAGENT
p176
ssI46
(dp177
g75
VEVENT_FRAME
p178
ssI47
(dp179
g75
VTEMPORAL
p180
ssI48
(dp181
g75
VCONCURRENT
p182
ssI49
(dp183
g75
VSUCCESSIVE
p184
ssI50
(dp185
g75
VSPATIAL
p186
ssI51
(dp187
g75
VIN
p188
ssI52
(dp189
g75
VIS
p190
ssI53
(dp191
g75
VOBJECT_FRAME
p192
ssI54
(dp193
g75
VEVENT
p194
ssI55
(dp195
g75
VENTITY
p196
ssI56
(dp197
g75
VANIMATE
p198
ssI57
(dp199
g75
VANIMAL
p200
ssI58
(dp201
g75
VHUMAN
p202
ssI59
(dp203
g75
VOBJECT
p204
ssI60
(dp205
g75
VITEM
p206
ssI61
(dp207
g75
VWAGON
p208
ssI62
(dp209
g75
VWATERING_CAN
p210
ssI63
(dp211
g75
VBAG
p212
ssI64
(dp213
g75
VTREE
p214
ssI65
(dp215
g75
VHOOK
p216
ssI66
(dp217
g75
VCELLO
p218
ssI67
(dp219
g75
VBOOKSHELF
p220
ssI68
(dp221
g75
VCLOTHING
p222
ssI69
(dp223
g75
VTSHIRT
p224
ssI70
(dp225
g75
VDRESS
p226
ssI71
(dp227
g75
VSHIRT
p228
ssI72
(dp229
g75
VSUIT
p230
ssI73
(dp231
g75
VTURTLE
p232
ssI74
(dp233
g75
VMOUSE
p234
ssI75
(dp235
g75
VDOG
p236
ssI76
(dp237
g75
VBOY
p238
ssI77
(dp239
g75
VWOMAN
p240
ssI78
(dp241
g75
VPEOPLE
p242
ssI79
(dp243
g75
VPOLICEMAN
p244
ssI80
(dp245
g75
VHUNTER
p246
ssI81
(dp247
g75
VBALLERINA
p248
ssI82
(dp249
g75
VCELLIST
p250
ssI83
(dp251
g75
VGIRL
p252
ssI84
(dp253
g75
VFENCER
p254
ssI85
(dp255
g75
VROBBER
p256
ssI86
(dp257
g75
VMAN
p258
ssI87
(dp259
g75
VPLACE
p260
ssI88
(dp261
g75
VBOXINGRING
p262
ssI89
(dp263
g75
VPARK
p264
ssI90
(dp265
g75
VMALE
p266
ssI91
(dp267
g75
VFEMALE
p268
sssS'node_dict_factory'
p269
c__builtin__
dict
p270
sS'edge_attr_dict_factory'
p271
g270
sS'succ'
p272
(dp273
I1
(dp274
sI2
(dp275
sI3
(dp276
I2
(dp277
S'type'
p278
S'is_a'
p279
sssI4
(dp280
I3
(dp281
g278
g279
sssI5
(dp282
I4
(dp283
g278
g279
sssI6
(dp284
I4
(dp285
g278
g279
sssI7
(dp286
I3
(dp287
g278
g279
sssI8
(dp288
I7
(dp289
g278
g279
sssI9
(dp290
I3
(dp291
g278
g279
sssI10
(dp292
I9
(dp293
g278
g279
sssI11
(dp294
I9
(dp295
g278
g279
sssI12
(dp296
I9
(dp297
g278
g279
sssI13
(dp298
I9
(dp299
g278
g279
sssI14
(dp300
I9
(dp301
g278
g279
sssI15
(dp302
I9
(dp303
g278
g279
sssI16
(dp304
I9
(dp305
g278
g279
sssI17
(dp306
I9
(dp307
g278
g279
sssI18
(dp308
I9
(dp309
g278
g279
sssI19
(dp310
I3
(dp311
g278
g279
sssI20
(dp312
I19
(dp313
g278
g279
sssI21
(dp314
I19
(dp315
g278
g279
sssI22
(dp316
I2
(dp317
g278
g279
sssI23
(dp318
I22
(dp319
g278
g279
sssI24
(dp320
I23
(dp321
g278
g279
sssI25
(dp322
I23
(dp323
g278
g279
sssI26
(dp324
I23
(dp325
g278
g279
sssI27
(dp326
I23
(dp327
g278
g279
sssI28
(dp328
I23
(dp329
g278
g279
sssI29
(dp330
I22
(dp331
g278
g279
sssI30
(dp332
I29
(dp333
g278
g279
sssI31
(dp334
I29
(dp335
g278
g279
sssI32
(dp336
I29
(dp337
g278
g279
sssI33
(dp338
I22
(dp339
g278
g279
sssI34
(dp340
I33
(dp341
g278
g279
sssI35
(dp342
I33
(dp343
g278
g279
sssI36
(dp344
I2
(dp345
g278
g279
sssI37
(dp346
I36
(dp347
g278
g279
sssI38
(dp348
I37
(dp349
g278
g279
ssI53
(dp350
g278
g279
sssI39
(dp351
I37
(dp352
g278
g279
sssI40
(dp353
I37
(dp354
g278
g279
sssI41
(dp355
I37
(dp356
g278
g279
ssI53
(dp357
g278
g279
sssI42
(dp358
I37
(dp359
g278
g279
sssI43
(dp360
I42
(dp361
g278
g279
sssI44
(dp362
I43
(dp363
g278
g279
ssI45
(dp364
g278
g279
sssI45
(dp365
I42
(dp366
g278
g279
sssI46
(dp367
I36
(dp368
g278
g279
sssI47
(dp369
I46
(dp370
g278
g279
sssI48
(dp371
I47
(dp372
g278
g279
sssI49
(dp373
I47
(dp374
g278
g279
sssI50
(dp375
I46
(dp376
g278
g279
sssI51
(dp377
I50
(dp378
g278
g279
sssI52
(dp379
I36
(dp380
g278
g279
sssI53
(dp381
I36
(dp382
g278
g279
sssI54
(dp383
I2
(dp384
g278
g279
sssI55
(dp385
I2
(dp386
g278
g279
sssI56
(dp387
I55
(dp388
g278
g279
sssI57
(dp389
I56
(dp390
g278
g279
ssI59
(dp391
g278
g279
sssI58
(dp392
I56
(dp393
g278
g279
ssI59
(dp394
g278
g279
sssI59
(dp395
I55
(dp396
g278
g279
sssI60
(dp397
I59
(dp398
g278
g279
sssI61
(dp399
I60
(dp400
g278
g279
sssI62
(dp401
I60
(dp402
g278
g279
sssI63
(dp403
I60
(dp404
g278
g279
sssI64
(dp405
I60
(dp406
g278
g279
sssI65
(dp407
I60
(dp408
g278
g279
sssI66
(dp409
I60
(dp410
g278
g279
sssI67
(dp411
I60
(dp412
g278
g279
sssI68
(dp413
I60
(dp414
g278
g279
sssI69
(dp415
I68
(dp416
g278
g279
sssI70
(dp417
I68
(dp418
g278
g279
sssI71
(dp419
I68
(dp420
g278
g279
sssI72
(dp421
I68
(dp422
g278
g279
sssI73
(dp423
I57
(dp424
g278
g279
sssI74
(dp425
I57
(dp426
g278
g279
sssI75
(dp427
I57
(dp428
g278
g279
sssI76
(dp429
I58
(dp430
g278
g279
ssI90
(dp431
g278
g279
sssI77
(dp432
I58
(dp433
g278
g279
ssI91
(dp434
g278
g279
sssI78
(dp435
I58
(dp436
g278
g279
sssI79
(dp437
I58
(dp438
g278
g279
sssI80
(dp439
I58
(dp440
g278
g279
sssI81
(dp441
I58
(dp442
g278
g279
ssI91
(dp443
g278
g279
sssI82
(dp444
I58
(dp445
g278
g279
sssI83
(dp446
I58
(dp447
g278
g279
ssI91
(dp448
g278
g279
sssI84
(dp449
I58
(dp450
g278
g279
sssI85
(dp451
I58
(dp452
g278
g279
sssI86
(dp453
I58
(dp454
g278
g279
ssI90
(dp455
g278
g279
sssI87
(dp456
I55
(dp457
g278
g279
sssI88
(dp458
I87
(dp459
g278
g279
sssI89
(dp460
I87
(dp461
g278
g279
sssI90
(dp462
I55
(dp463
g278
g279
sssI91
(dp464
I55
(dp465
g278
g279
ssssS'edge'
p466
g273
sg81
(dp467
sS'adjlist_dict_factory'
p468
g270
sS'adj'
p469
g273
sS'pred'
p470
(dp471
I1
(dp472
sI2
(dp473
I3
g277
sI36
g345
sI54
g384
sI22
g317
sI55
g386
ssI3
(dp474
I9
g291
sI19
g311
sI4
g281
sI7
g287
ssI4
(dp475
I5
g283
sI6
g285
ssI5
(dp476
sI6
(dp477
sI7
(dp478
I8
g289
ssI8
(dp479
sI9
(dp480
I10
g293
sI11
g295
sI12
g297
sI13
g299
sI14
g301
sI15
g303
sI16
g305
sI17
g307
sI18
g309
ssI10
(dp481
sI11
(dp482
sI12
(dp483
sI13
(dp484
sI14
(dp485
sI15
(dp486
sI16
(dp487
sI17
(dp488
sI18
(dp489
sI19
(dp490
I20
g313
sI21
g315
ssI20
(dp491
sI21
(dp492
sI22
(dp493
I33
g339
sI29
g331
sI23
g319
ssI23
(dp494
I24
g321
sI25
g323
sI26
g325
sI27
g327
sI28
g329
ssI24
(dp495
sI25
(dp496
sI26
(dp497
sI27
(dp498
sI28
(dp499
sI29
(dp500
I32
g337
sI30
g333
sI31
g335
ssI30
(dp501
sI31
(dp502
sI32
(dp503
sI33
(dp504
I34
g341
sI35
g343
ssI34
(dp505
sI35
(dp506
sI36
(dp507
I52
g380
sI37
g347
sI46
g368
sI53
g382
ssI37
(dp508
I40
g354
sI41
g356
sI42
g359
sI38
g349
sI39
g352
ssI38
(dp509
sI39
(dp510
sI40
(dp511
sI41
(dp512
sI42
(dp513
I43
g361
sI45
g366
ssI43
(dp514
I44
g363
ssI44
(dp515
sI45
(dp516
I44
g364
ssI46
(dp517
I50
g376
sI47
g370
ssI47
(dp518
I48
g372
sI49
g374
ssI48
(dp519
sI49
(dp520
sI50
(dp521
I51
g378
ssI51
(dp522
sI52
(dp523
sI53
(dp524
I41
g357
sI38
g350
ssI54
(dp525
sI55
(dp526
I56
g388
sI91
g465
sI90
g463
sI59
g396
sI87
g457
ssI56
(dp527
I57
g390
sI58
g393
ssI57
(dp528
I73
g424
sI74
g426
sI75
g428
ssI58
(dp529
I76
g430
sI77
g433
sI78
g436
sI79
g438
sI80
g440
sI81
g442
sI82
g445
sI83
g447
sI84
g450
sI85
g452
sI86
g454
ssI59
(dp530
I57
g391
sI58
g394
sI60
g398
ssI60
(dp531
I64
g406
sI65
g408
sI66
g410
sI67
g412
sI68
g414
sI61
g400
sI62
g402
sI63
g404
ssI61
(dp532
sI62
(dp533
sI63
(dp534
sI64
(dp535
sI65
(dp536
sI66
(dp537
sI67
(dp538
sI68
(dp539
I72
g422
sI69
g416
sI70
g418
sI71
g420
ssI69
(dp540
sI70
(dp541
sI71
(dp542
sI72
(dp543
sI73
(dp544
sI74
(dp545
sI75
(dp546
sI76
(dp547
sI77
(dp548
sI78
(dp549
sI79
(dp550
sI80
(dp551
sI81
(dp552
sI82
(dp553
sI83
(dp554
sI84
(dp555
sI85
(dp556
sI86
(dp557
sI87
(dp558
I88
g459
sI89
g461
ssI88
(dp559
sI89
(dp560
sI90
(dp561
I76
g431
sI86
g455
ssI91
(dp562
I81
g443
sI83
g448
sI77
g434
sssbsS'nodes'
p563
(lp564
g73
ag0
(g71
g2
Ntp565
Rp566
(dp567
g75
g90
sg76
g79
sS'id'
p568
I2
sg51
g90
sbag0
(g71
g2
Ntp569
Rp570
(dp571
g75
g92
sg76
g79
sg568
I3
sg51
g92
sbag0
(g71
g2
Ntp572
Rp573
(dp574
g75
g94
sg76
g79
sg568
I4
sg51
g94
sbag0
(g71
g2
Ntp575
Rp576
(dp577
g75
g96
sg76
g79
sg568
I5
sg51
g96
sbag0
(g71
g2
Ntp578
Rp579
(dp580
g75
g98
sg76
g79
sg568
I6
sg51
g98
sbag0
(g71
g2
Ntp581
Rp582
(dp583
g75
g100
sg76
g79
sg568
I7
sg51
g100
sbag0
(g71
g2
Ntp584
Rp585
(dp586
g75
g102
sg76
g79
sg568
I8
sg51
g102
sbag0
(g71
g2
Ntp587
Rp588
(dp589
g75
g104
sg76
g79
sg568
I9
sg51
g104
sbag0
(g71
g2
Ntp590
Rp591
(dp592
g75
g106
sg76
g79
sg568
I10
sg51
g106
sbag0
(g71
g2
Ntp593
Rp594
(dp595
g75
g108
sg76
g79
sg568
I11
sg51
g108
sbag0
(g71
g2
Ntp596
Rp597
(dp598
g75
g110
sg76
g79
sg568
I12
sg51
g110
sbag0
(g71
g2
Ntp599
Rp600
(dp601
g75
g112
sg76
g79
sg568
I13
sg51
g112
sbag0
(g71
g2
Ntp602
Rp603
(dp604
g75
g114
sg76
g79
sg568
I14
sg51
g114
sbag0
(g71
g2
Ntp605
Rp606
(dp607
g75
g116
sg76
g79
sg568
I15
sg51
g116
sbag0
(g71
g2
Ntp608
Rp609
(dp610
g75
g118
sg76
g79
sg568
I16
sg51
g118
sbag0
(g71
g2
Ntp611
Rp612
(dp613
g75
g120
sg76
g79
sg568
I17
sg51
g120
sbag0
(g71
g2
Ntp614
Rp615
(dp616
g75
g122
sg76
g79
sg568
I18
sg51
g122
sbag0
(g71
g2
Ntp617
Rp618
(dp619
g75
g124
sg76
g79
sg568
I19
sg51
g124
sbag0
(g71
g2
Ntp620
Rp621
(dp622
g75
g126
sg76
g79
sg568
I20
sg51
g126
sbag0
(g71
g2
Ntp623
Rp624
(dp625
g75
g128
sg76
g79
sg568
I21
sg51
g128
sbag0
(g71
g2
Ntp626
Rp627
(dp628
g75
g130
sg76
g79
sg568
I22
sg51
g130
sbag0
(g71
g2
Ntp629
Rp630
(dp631
g75
g132
sg76
g79
sg568
I23
sg51
g132
sbag0
(g71
g2
Ntp632
Rp633
(dp634
g75
g134
sg76
g79
sg568
I24
sg51
g134
sbag0
(g71
g2
Ntp635
Rp636
(dp637
g75
g136
sg76
g79
sg568
I25
sg51
g136
sbag0
(g71
g2
Ntp638
Rp639
(dp640
g75
g138
sg76
g79
sg568
I26
sg51
g138
sbag0
(g71
g2
Ntp641
Rp642
(dp643
g75
g140
sg76
g79
sg568
I27
sg51
g140
sbag0
(g71
g2
Ntp644
Rp645
(dp646
g75
g142
sg76
g79
sg568
I28
sg51
g142
sbag0
(g71
g2
Ntp647
Rp648
(dp649
g75
g144
sg76
g79
sg568
I29
sg51
g144
sbag0
(g71
g2
Ntp650
Rp651
(dp652
g75
g146
sg76
g79
sg568
I30
sg51
g146
sbag0
(g71
g2
Ntp653
Rp654
(dp655
g75
g148
sg76
g79
sg568
I31
sg51
g148
sbag0
(g71
g2
Ntp656
Rp657
(dp658
g75
g150
sg76
g79
sg568
I32
sg51
g150
sbag0
(g71
g2
Ntp659
Rp660
(dp661
g75
g152
sg76
g79
sg568
I33
sg51
g152
sbag0
(g71
g2
Ntp662
Rp663
(dp664
g75
g154
sg76
g79
sg568
I34
sg51
g154
sbag0
(g71
g2
Ntp665
Rp666
(dp667
g75
g156
sg76
g79
sg568
I35
sg51
g156
sbag0
(g71
g2
Ntp668
Rp669
(dp670
g75
g158
sg76
g79
sg568
I36
sg51
g158
sbag0
(g71
g2
Ntp671
Rp672
(dp673
g75
g160
sg76
g79
sg568
I37
sg51
g160
sbag0
(g71
g2
Ntp674
Rp675
(dp676
g75
g162
sg76
g79
sg568
I38
sg51
g162
sbag0
(g71
g2
Ntp677
Rp678
(dp679
g75
g164
sg76
g79
sg568
I39
sg51
g164
sbag0
(g71
g2
Ntp680
Rp681
(dp682
g75
g166
sg76
g79
sg568
I40
sg51
g166
sbag0
(g71
g2
Ntp683
Rp684
(dp685
g75
g168
sg76
g79
sg568
I41
sg51
g168
sbag0
(g71
g2
Ntp686
Rp687
(dp688
g75
g170
sg76
g79
sg568
I42
sg51
g170
sbag0
(g71
g2
Ntp689
Rp690
(dp691
g75
g172
sg76
g79
sg568
I43
sg51
g172
sbag0
(g71
g2
Ntp692
Rp693
(dp694
g75
g174
sg76
g79
sg568
I44
sg51
g174
sbag0
(g71
g2
Ntp695
Rp696
(dp697
g75
g176
sg76
g79
sg568
I45
sg51
g176
sbag0
(g71
g2
Ntp698
Rp699
(dp700
g75
g178
sg76
g79
sg568
I46
sg51
g178
sbag0
(g71
g2
Ntp701
Rp702
(dp703
g75
g180
sg76
g79
sg568
I47
sg51
g180
sbag0
(g71
g2
Ntp704
Rp705
(dp706
g75
g182
sg76
g79
sg568
I48
sg51
g182
sbag0
(g71
g2
Ntp707
Rp708
(dp709
g75
g184
sg76
g79
sg568
I49
sg51
g184
sbag0
(g71
g2
Ntp710
Rp711
(dp712
g75
g186
sg76
g79
sg568
I50
sg51
g186
sbag0
(g71
g2
Ntp713
Rp714
(dp715
g75
g188
sg76
g79
sg568
I51
sg51
g188
sbag0
(g71
g2
Ntp716
Rp717
(dp718
g75
g190
sg76
g79
sg568
I52
sg51
g190
sbag0
(g71
g2
Ntp719
Rp720
(dp721
g75
g192
sg76
g79
sg568
I53
sg51
g192
sbag0
(g71
g2
Ntp722
Rp723
(dp724
g75
g194
sg76
g79
sg568
I54
sg51
g194
sbag0
(g71
g2
Ntp725
Rp726
(dp727
g75
g196
sg76
g79
sg568
I55
sg51
g196
sbag0
(g71
g2
Ntp728
Rp729
(dp730
g75
g198
sg76
g79
sg568
I56
sg51
g198
sbag0
(g71
g2
Ntp731
Rp732
(dp733
g75
g200
sg76
g79
sg568
I57
sg51
g200
sbag0
(g71
g2
Ntp734
Rp735
(dp736
g75
g202
sg76
g79
sg568
I58
sg51
g202
sbag0
(g71
g2
Ntp737
Rp738
(dp739
g75
g204
sg76
g79
sg568
I59
sg51
g204
sbag0
(g71
g2
Ntp740
Rp741
(dp742
g75
g206
sg76
g79
sg568
I60
sg51
g206
sbag0
(g71
g2
Ntp743
Rp744
(dp745
g75
g208
sg76
g79
sg568
I61
sg51
g208
sbag0
(g71
g2
Ntp746
Rp747
(dp748
g75
g210
sg76
g79
sg568
I62
sg51
g210
sbag0
(g71
g2
Ntp749
Rp750
(dp751
g75
g212
sg76
g79
sg568
I63
sg51
g212
sbag0
(g71
g2
Ntp752
Rp753
(dp754
g75
g214
sg76
g79
sg568
I64
sg51
g214
sbag0
(g71
g2
Ntp755
Rp756
(dp757
g75
g216
sg76
g79
sg568
I65
sg51
g216
sbag0
(g71
g2
Ntp758
Rp759
(dp760
g75
g218
sg76
g79
sg568
I66
sg51
g218
sbag0
(g71
g2
Ntp761
Rp762
(dp763
g75
g220
sg76
g79
sg568
I67
sg51
g220
sbag0
(g71
g2
Ntp764
Rp765
(dp766
g75
g222
sg76
g79
sg568
I68
sg51
g222
sbag0
(g71
g2
Ntp767
Rp768
(dp769
g75
g224
sg76
g79
sg568
I69
sg51
g224
sbag0
(g71
g2
Ntp770
Rp771
(dp772
g75
g226
sg76
g79
sg568
I70
sg51
g226
sbag0
(g71
g2
Ntp773
Rp774
(dp775
g75
g228
sg76
g79
sg568
I71
sg51
g228
sbag0
(g71
g2
Ntp776
Rp777
(dp778
g75
g230
sg76
g79
sg568
I72
sg51
g230
sbag0
(g71
g2
Ntp779
Rp780
(dp781
g75
g232
sg76
g79
sg568
I73
sg51
g232
sbag0
(g71
g2
Ntp782
Rp783
(dp784
g75
g234
sg76
g79
sg568
I74
sg51
g234
sbag0
(g71
g2
Ntp785
Rp786
(dp787
g75
g236
sg76
g79
sg568
I75
sg51
g236
sbag0
(g71
g2
Ntp788
Rp789
(dp790
g75
g238
sg76
g79
sg568
I76
sg51
g238
sbag0
(g71
g2
Ntp791
Rp792
(dp793
g75
g240
sg76
g79
sg568
I77
sg51
g240
sbag0
(g71
g2
Ntp794
Rp795
(dp796
g75
g242
sg76
g79
sg568
I78
sg51
g242
sbag0
(g71
g2
Ntp797
Rp798
(dp799
g75
g244
sg76
g79
sg568
I79
sg51
g244
sbag0
(g71
g2
Ntp800
Rp801
(dp802
g75
g246
sg76
g79
sg568
I80
sg51
g246
sbag0
(g71
g2
Ntp803
Rp804
(dp805
g75
g248
sg76
g79
sg568
I81
sg51
g248
sbag0
(g71
g2
Ntp806
Rp807
(dp808
g75
g250
sg76
g79
sg568
I82
sg51
g250
sbag0
(g71
g2
Ntp809
Rp810
(dp811
g75
g252
sg76
g79
sg568
I83
sg51
g252
sbag0
(g71
g2
Ntp812
Rp813
(dp814
g75
g254
sg76
g79
sg568
I84
sg51
g254
sbag0
(g71
g2
Ntp815
Rp816
(dp817
g75
g256
sg76
g79
sg568
I85
sg51
g256
sbag0
(g71
g2
Ntp818
Rp819
(dp820
g75
g258
sg76
g79
sg568
I86
sg51
g258
sbag0
(g71
g2
Ntp821
Rp822
(dp823
g75
g260
sg76
g79
sg568
I87
sg51
g260
sbag0
(g71
g2
Ntp824
Rp825
(dp826
g75
g262
sg76
g79
sg568
I88
sg51
g262
sbag0
(g71
g2
Ntp827
Rp828
(dp829
g75
g264
sg76
g79
sg568
I89
sg51
g264
sbag0
(g71
g2
Ntp830
Rp831
(dp832
g75
g266
sg76
g79
sg568
I90
sg51
g266
sbag0
(g71
g2
Ntp833
Rp834
(dp835
g75
g268
sg76
g79
sg568
I91
sg51
g268
sbasS'edges'
p836
(lp837
g0
(cconcept
SEM_REL
p838
g2
Ntp839
Rp840
(dp841
S'pTo'
p842
g566
sg278
g279
sS'pFrom'
p843
g570
sbag0
(g838
g2
Ntp844
Rp845
(dp846
g842
g570
sg278
g279
sg843
g573
sbag0
(g838
g2
Ntp847
Rp848
(dp849
g842
g573
sg278
g279
sg843
g576
sbag0
(g838
g2
Ntp850
Rp851
(dp852
g842
g573
sg278
g279
sg843
g579
sbag0
(g838
g2
Ntp853
Rp854
(dp855
g842
g570
sg278
g279
sg843
g582
sbag0
(g838
g2
Ntp856
Rp857
(dp858
g842
g582
sg278
g279
sg843
g585
sbag0
(g838
g2
Ntp859
Rp860
(dp861
g842
g570
sg278
g279
sg843
g588
sbag0
(g838
g2
Ntp862
Rp863
(dp864
g842
g588
sg278
g279
sg843
g591
sbag0
(g838
g2
Ntp865
Rp866
(dp867
g842
g588
sg278
g279
sg843
g594
sbag0
(g838
g2
Ntp868
Rp869
(dp870
g842
g588
sg278
g279
sg843
g597
sbag0
(g838
g2
Ntp871
Rp872
(dp873
g842
g588
sg278
g279
sg843
g600
sbag0
(g838
g2
Ntp874
Rp875
(dp876
g842
g588
sg278
g279
sg843
g603
sbag0
(g838
g2
Ntp877
Rp878
(dp879
g842
g588
sg278
g279
sg843
g606
sbag0
(g838
g2
Ntp880
Rp881
(dp882
g842
g588
sg278
g279
sg843
g609
sbag0
(g838
g2
Ntp883
Rp884
(dp885
g842
g588
sg278
g279
sg843
g612
sbag0
(g838
g2
Ntp886
Rp887
(dp888
g842
g588
sg278
g279
sg843
g615
sbag0
(g838
g2
Ntp889
Rp890
(dp891
g842
g570
sg278
g279
sg843
g618
sbag0
(g838
g2
Ntp892
Rp893
(dp894
g842
g618
sg278
g279
sg843
g621
sbag0
(g838
g2
Ntp895
Rp896
(dp897
g842
g618
sg278
g279
sg843
g624
sbag0
(g838
g2
Ntp898
Rp899
(dp900
g842
g566
sg278
g279
sg843
g627
sbag0
(g838
g2
Ntp901
Rp902
(dp903
g842
g627
sg278
g279
sg843
g630
sbag0
(g838
g2
Ntp904
Rp905
(dp906
g842
g630
sg278
g279
sg843
g633
sbag0
(g838
g2
Ntp907
Rp908
(dp909
g842
g630
sg278
g279
sg843
g636
sbag0
(g838
g2
Ntp910
Rp911
(dp912
g842
g630
sg278
g279
sg843
g639
sbag0
(g838
g2
Ntp913
Rp914
(dp915
g842
g630
sg278
g279
sg843
g642
sbag0
(g838
g2
Ntp916
Rp917
(dp918
g842
g630
sg278
g279
sg843
g645
sbag0
(g838
g2
Ntp919
Rp920
(dp921
g842
g627
sg278
g279
sg843
g648
sbag0
(g838
g2
Ntp922
Rp923
(dp924
g842
g648
sg278
g279
sg843
g651
sbag0
(g838
g2
Ntp925
Rp926
(dp927
g842
g648
sg278
g279
sg843
g654
sbag0
(g838
g2
Ntp928
Rp929
(dp930
g842
g648
sg278
g279
sg843
g657
sbag0
(g838
g2
Ntp931
Rp932
(dp933
g842
g627
sg278
g279
sg843
g660
sbag0
(g838
g2
Ntp934
Rp935
(dp936
g842
g660
sg278
g279
sg843
g663
sbag0
(g838
g2
Ntp937
Rp938
(dp939
g842
g660
sg278
g279
sg843
g666
sbag0
(g838
g2
Ntp940
Rp941
(dp942
g842
g566
sg278
g279
sg843
g669
sbag0
(g838
g2
Ntp943
Rp944
(dp945
g842
g669
sg278
g279
sg843
g672
sbag0
(g838
g2
Ntp946
Rp947
(dp948
g842
g672
sg278
g279
sg843
g675
sbag0
(g838
g2
Ntp949
Rp950
(dp951
g842
g672
sg278
g279
sg843
g678
sbag0
(g838
g2
Ntp952
Rp953
(dp954
g842
g672
sg278
g279
sg843
g681
sbag0
(g838
g2
Ntp955
Rp956
(dp957
g842
g672
sg278
g279
sg843
g684
sbag0
(g838
g2
Ntp958
Rp959
(dp960
g842
g672
sg278
g279
sg843
g687
sbag0
(g838
g2
Ntp961
Rp962
(dp963
g842
g687
sg278
g279
sg843
g690
sbag0
(g838
g2
Ntp964
Rp965
(dp966
g842
g690
sg278
g279
sg843
g693
sbag0
(g838
g2
Ntp967
Rp968
(dp969
g842
g687
sg278
g279
sg843
g696
sbag0
(g838
g2
Ntp970
Rp971
(dp972
g842
g696
sg278
g279
sg843
g693
sbag0
(g838
g2
Ntp973
Rp974
(dp975
g842
g669
sg278
g279
sg843
g699
sbag0
(g838
g2
Ntp976
Rp977
(dp978
g842
g699
sg278
g279
sg843
g702
sbag0
(g838
g2
Ntp979
Rp980
(dp981
g842
g702
sg278
g279
sg843
g705
sbag0
(g838
g2
Ntp982
Rp983
(dp984
g842
g702
sg278
g279
sg843
g708
sbag0
(g838
g2
Ntp985
Rp986
(dp987
g842
g699
sg278
g279
sg843
g711
sbag0
(g838
g2
Ntp988
Rp989
(dp990
g842
g711
sg278
g279
sg843
g714
sbag0
(g838
g2
Ntp991
Rp992
(dp993
g842
g669
sg278
g279
sg843
g717
sbag0
(g838
g2
Ntp994
Rp995
(dp996
g842
g669
sg278
g279
sg843
g720
sbag0
(g838
g2
Ntp997
Rp998
(dp999
g842
g720
sg278
g279
sg843
g675
sbag0
(g838
g2
Ntp1000
Rp1001
(dp1002
g842
g720
sg278
g279
sg843
g684
sbag0
(g838
g2
Ntp1003
Rp1004
(dp1005
g842
g566
sg278
g279
sg843
g723
sbag0
(g838
g2
Ntp1006
Rp1007
(dp1008
g842
g566
sg278
g279
sg843
g726
sbag0
(g838
g2
Ntp1009
Rp1010
(dp1011
g842
g726
sg278
g279
sg843
g729
sbag0
(g838
g2
Ntp1012
Rp1013
(dp1014
g842
g729
sg278
g279
sg843
g732
sbag0
(g838
g2
Ntp1015
Rp1016
(dp1017
g842
g729
sg278
g279
sg843
g735
sbag0
(g838
g2
Ntp1018
Rp1019
(dp1020
g842
g726
sg278
g279
sg843
g738
sbag0
(g838
g2
Ntp1021
Rp1022
(dp1023
g842
g738
sg278
g279
sg843
g741
sbag0
(g838
g2
Ntp1024
Rp1025
(dp1026
g842
g741
sg278
g279
sg843
g744
sbag0
(g838
g2
Ntp1027
Rp1028
(dp1029
g842
g741
sg278
g279
sg843
g747
sbag0
(g838
g2
Ntp1030
Rp1031
(dp1032
g842
g741
sg278
g279
sg843
g750
sbag0
(g838
g2
Ntp1033
Rp1034
(dp1035
g842
g741
sg278
g279
sg843
g753
sbag0
(g838
g2
Ntp1036
Rp1037
(dp1038
g842
g741
sg278
g279
sg843
g756
sbag0
(g838
g2
Ntp1039
Rp1040
(dp1041
g842
g741
sg278
g279
sg843
g759
sbag0
(g838
g2
Ntp1042
Rp1043
(dp1044
g842
g741
sg278
g279
sg843
g762
sbag0
(g838
g2
Ntp1045
Rp1046
(dp1047
g842
g741
sg278
g279
sg843
g765
sbag0
(g838
g2
Ntp1048
Rp1049
(dp1050
g842
g765
sg278
g279
sg843
g768
sbag0
(g838
g2
Ntp1051
Rp1052
(dp1053
g842
g765
sg278
g279
sg843
g771
sbag0
(g838
g2
Ntp1054
Rp1055
(dp1056
g842
g765
sg278
g279
sg843
g774
sbag0
(g838
g2
Ntp1057
Rp1058
(dp1059
g842
g765
sg278
g279
sg843
g777
sbag0
(g838
g2
Ntp1060
Rp1061
(dp1062
g842
g738
sg278
g279
sg843
g732
sbag0
(g838
g2
Ntp1063
Rp1064
(dp1065
g842
g732
sg278
g279
sg843
g780
sbag0
(g838
g2
Ntp1066
Rp1067
(dp1068
g842
g732
sg278
g279
sg843
g783
sbag0
(g838
g2
Ntp1069
Rp1070
(dp1071
g842
g732
sg278
g279
sg843
g786
sbag0
(g838
g2
Ntp1072
Rp1073
(dp1074
g842
g738
sg278
g279
sg843
g735
sbag0
(g838
g2
Ntp1075
Rp1076
(dp1077
g842
g735
sg278
g279
sg843
g789
sbag0
(g838
g2
Ntp1078
Rp1079
(dp1080
g842
g735
sg278
g279
sg843
g792
sbag0
(g838
g2
Ntp1081
Rp1082
(dp1083
g842
g735
sg278
g279
sg843
g795
sbag0
(g838
g2
Ntp1084
Rp1085
(dp1086
g842
g735
sg278
g279
sg843
g798
sbag0
(g838
g2
Ntp1087
Rp1088
(dp1089
g842
g735
sg278
g279
sg843
g801
sbag0
(g838
g2
Ntp1090
Rp1091
(dp1092
g842
g735
sg278
g279
sg843
g804
sbag0
(g838
g2
Ntp1093
Rp1094
(dp1095
g842
g735
sg278
g279
sg843
g807
sbag0
(g838
g2
Ntp1096
Rp1097
(dp1098
g842
g735
sg278
g279
sg843
g810
sbag0
(g838
g2
Ntp1099
Rp1100
(dp1101
g842
g735
sg278
g279
sg843
g813
sbag0
(g838
g2
Ntp1102
Rp1103
(dp1104
g842
g735
sg278
g279
sg843
g816
sbag0
(g838
g2
Ntp1105
Rp1106
(dp1107
g842
g735
sg278
g279
sg843
g819
sbag0
(g838
g2
Ntp1108
Rp1109
(dp1110
g842
g726
sg278
g279
sg843
g822
sbag0
(g838
g2
Ntp1111
Rp1112
(dp1113
g842
g822
sg278
g279
sg843
g825
sbag0
(g838
g2
Ntp1114
Rp1115
(dp1116
g842
g822
sg278
g279
sg843
g828
sbag0
(g838
g2
Ntp1117
Rp1118
(dp1119
g842
g726
sg278
g279
sg843
g831
sbag0
(g838
g2
Ntp1120
Rp1121
(dp1122
g842
g831
sg278
g279
sg843
g789
sbag0
(g838
g2
Ntp1123
Rp1124
(dp1125
g842
g831
sg278
g279
sg843
g819
sbag0
(g838
g2
Ntp1126
Rp1127
(dp1128
g842
g726
sg278
g279
sg843
g834
sbag0
(g838
g2
Ntp1129
Rp1130
(dp1131
g842
g834
sg278
g279
sg843
g804
sbag0
(g838
g2
Ntp1132
Rp1133
(dp1134
g842
g834
sg278
g279
sg843
g810
sbag0
(g838
g2
Ntp1135
Rp1136
(dp1137
g842
g834
sg278
g279
sg843
g792
sbasS'neutral'
p1138
g73
sbsg568
I1
sg51
g67
sbssS'model'
p1139
Nsg568
I9
sS'LTM'
p1140
g47
sS'init_act'
p1141
F1.0
sbag0
(clanguage_schemas
CPT_ACTION_SCHEMA
p1142
g2
Ntp1143
Rp1144
(dp1145
g51
g92
sg68
(dp1146
g70
g570
ssg1139
Nsg568
I10
sg1140
g47
sg1141
F1.0
sbag0
(g1142
g2
Ntp1147
Rp1148
(dp1149
g51
g94
sg68
(dp1150
g70
g573
ssg1139
Nsg568
I11
sg1140
g47
sg1141
F1.0
sbag0
(g1142
g2
Ntp1151
Rp1152
(dp1153
g51
g96
sg68
(dp1154
g70
g576
ssg1139
Nsg568
I12
sg1140
g47
sg1141
F1.0
sbag0
(g1142
g2
Ntp1155
Rp1156
(dp1157
g51
g98
sg68
(dp1158
g70
g579
ssg1139
Nsg568
I13
sg1140
g47
sg1141
F1.0
sbag0
(g1142
g2
Ntp1159
Rp1160
(dp1161
g51
g100
sg68
(dp1162
g70
g582
ssg1139
Nsg568
I14
sg1140
g47
sg1141
F1.0
sbag0
(g1142
g2
Ntp1163
Rp1164
(dp1165
g51
g102
sg68
(dp1166
g70
g585
ssg1139
Nsg568
I15
sg1140
g47
sg1141
F1.0
sbag0
(g1142
g2
Ntp1167
Rp1168
(dp1169
g51
g104
sg68
(dp1170
g70
g588
ssg1139
Nsg568
I16
sg1140
g47
sg1141
F1.0
sbag0
(g1142
g2
Ntp1171
Rp1172
(dp1173
g51
g106
sg68
(dp1174
g70
g591
ssg1139
Nsg568
I17
sg1140
g47
sg1141
F1.0
sbag0
(g1142
g2
Ntp1175
Rp1176
(dp1177
g51
g108
sg68
(dp1178
g70
g594
ssg1139
Nsg568
I18
sg1140
g47
sg1141
F1.0
sbag0
(g1142
g2
Ntp1179
Rp1180
(dp1181
g51
g110
sg68
(dp1182
g70
g597
ssg1139
Nsg568
I19
sg1140
g47
sg1141
F1.0
sbag0
(g1142
g2
Ntp1183
Rp1184
(dp1185
g51
g112
sg68
(dp1186
g70
g600
ssg1139
Nsg568
I20
sg1140
g47
sg1141
F1.0
sbag0
(g1142
g2
Ntp1187
Rp1188
(dp1189
g51
g114
sg68
(dp1190
g70
g603
ssg1139
Nsg568
I21
sg1140
g47
sg1141
F1.0
sbag0
(g1142
g2
Ntp1191
Rp1192
(dp1193
g51
g116
sg68
(dp1194
g70
g606
ssg1139
Nsg568
I22
sg1140
g47
sg1141
F1.0
sbag0
(g1142
g2
Ntp1195
Rp1196
(dp1197
g51
g118
sg68
(dp1198
g70
g609
ssg1139
Nsg568
I23
sg1140
g47
sg1141
F1.0
sbag0
(g1142
g2
Ntp1199
Rp1200
(dp1201
g51
g120
sg68
(dp1202
g70
g612
ssg1139
Nsg568
I24
sg1140
g47
sg1141
F1.0
sbag0
(g1142
g2
Ntp1203
Rp1204
(dp1205
g51
g122
sg68
(dp1206
g70
g615
ssg1139
Nsg568
I25
sg1140
g47
sg1141
F1.0
sbag0
(g1142
g2
Ntp1207
Rp1208
(dp1209
g51
g124
sg68
(dp1210
g70
g618
ssg1139
Nsg568
I26
sg1140
g47
sg1141
F1.0
sbag0
(g1142
g2
Ntp1211
Rp1212
(dp1213
g51
g126
sg68
(dp1214
g70
g621
ssg1139
Nsg568
I27
sg1140
g47
sg1141
F1.0
sbag0
(g1142
g2
Ntp1215
Rp1216
(dp1217
g51
g128
sg68
(dp1218
g70
g624
ssg1139
Nsg568
I28
sg1140
g47
sg1141
F1.0
sbag0
(clanguage_schemas
CPT_PROPERTY_SCHEMA
p1219
g2
Ntp1220
Rp1221
(dp1222
g51
g130
sg68
(dp1223
g70
g627
ssg1139
Nsg568
I29
sg1140
g47
sg1141
F1.0
sbag0
(g1219
g2
Ntp1224
Rp1225
(dp1226
g51
g132
sg68
(dp1227
g70
g630
ssg1139
Nsg568
I30
sg1140
g47
sg1141
F1.0
sbag0
(g1219
g2
Ntp1228
Rp1229
(dp1230
g51
g134
sg68
(dp1231
g70
g633
ssg1139
Nsg568
I31
sg1140
g47
sg1141
F1.0
sbag0
(g1219
g2
Ntp1232
Rp1233
(dp1234
g51
g136
sg68
(dp1235
g70
g636
ssg1139
Nsg568
I32
sg1140
g47
sg1141
F1.0
sbag0
(g1219
g2
Ntp1236
Rp1237
(dp1238
g51
g138
sg68
(dp1239
g70
g639
ssg1139
Nsg568
I33
sg1140
g47
sg1141
F1.0
sbag0
(g1219
g2
Ntp1240
Rp1241
(dp1242
g51
g140
sg68
(dp1243
g70
g642
ssg1139
Nsg568
I34
sg1140
g47
sg1141
F1.0
sbag0
(g1219
g2
Ntp1244
Rp1245
(dp1246
g51
g142
sg68
(dp1247
g70
g645
ssg1139
Nsg568
I35
sg1140
g47
sg1141
F1.0
sbag0
(g1219
g2
Ntp1248
Rp1249
(dp1250
g51
g144
sg68
(dp1251
g70
g648
ssg1139
Nsg568
I36
sg1140
g47
sg1141
F1.0
sbag0
(g1219
g2
Ntp1252
Rp1253
(dp1254
g51
g146
sg68
(dp1255
g70
g651
ssg1139
Nsg568
I37
sg1140
g47
sg1141
F1.0
sbag0
(g1219
g2
Ntp1256
Rp1257
(dp1258
g51
g148
sg68
(dp1259
g70
g654
ssg1139
Nsg568
I38
sg1140
g47
sg1141
F1.0
sbag0
(g1219
g2
Ntp1260
Rp1261
(dp1262
g51
g150
sg68
(dp1263
g70
g657
ssg1139
Nsg568
I39
sg1140
g47
sg1141
F1.0
sbag0
(g1219
g2
Ntp1264
Rp1265
(dp1266
g51
g152
sg68
(dp1267
g70
g660
ssg1139
Nsg568
I40
sg1140
g47
sg1141
F1.0
sbag0
(g1219
g2
Ntp1268
Rp1269
(dp1270
g51
g154
sg68
(dp1271
g70
g663
ssg1139
Nsg568
I41
sg1140
g47
sg1141
F1.0
sbag0
(g1219
g2
Ntp1272
Rp1273
(dp1274
g51
g156
sg68
(dp1275
g70
g666
ssg1139
Nsg568
I42
sg1140
g47
sg1141
F1.0
sbag0
(clanguage_schemas
CPT_RELATION_SCHEMA
p1276
g2
Ntp1277
Rp1278
(dp1279
g51
g158
sg68
(dp1280
g842
Nsg70
g669
sg843
Nssg1139
Nsg568
I43
sg1140
g47
sg1141
F1.0
sbag0
(g1276
g2
Ntp1281
Rp1282
(dp1283
g51
g160
sg68
(dp1284
g842
Nsg70
g672
sg843
Nssg1139
Nsg568
I44
sg1140
g47
sg1141
F1.0
sbag0
(g1276
g2
Ntp1285
Rp1286
(dp1287
g51
g162
sg68
(dp1288
g842
Nsg70
g675
sg843
Nssg1139
Nsg568
I45
sg1140
g47
sg1141
F1.0
sbag0
(g1276
g2
Ntp1289
Rp1290
(dp1291
g51
g164
sg68
(dp1292
g842
Nsg70
g678
sg843
Nssg1139
Nsg568
I46
sg1140
g47
sg1141
F1.0
sbag0
(g1276
g2
Ntp1293
Rp1294
(dp1295
g51
g166
sg68
(dp1296
g842
Nsg70
g681
sg843
Nssg1139
Nsg568
I47
sg1140
g47
sg1141
F1.0
sbag0
(g1276
g2
Ntp1297
Rp1298
(dp1299
g51
g168
sg68
(dp1300
g842
Nsg70
g684
sg843
Nssg1139
Nsg568
I48
sg1140
g47
sg1141
F1.0
sbag0
(g1276
g2
Ntp1301
Rp1302
(dp1303
g51
g170
sg68
(dp1304
g842
Nsg70
g687
sg843
Nssg1139
Nsg568
I49
sg1140
g47
sg1141
F1.0
sbag0
(g1276
g2
Ntp1305
Rp1306
(dp1307
g51
g172
sg68
(dp1308
g842
Nsg70
g690
sg843
Nssg1139
Nsg568
I50
sg1140
g47
sg1141
F1.0
sbag0
(g1276
g2
Ntp1309
Rp1310
(dp1311
g51
g174
sg68
(dp1312
g842
Nsg70
g693
sg843
Nssg1139
Nsg568
I51
sg1140
g47
sg1141
F1.0
sbag0
(g1276
g2
Ntp1313
Rp1314
(dp1315
g51
g176
sg68
(dp1316
g842
Nsg70
g696
sg843
Nssg1139
Nsg568
I52
sg1140
g47
sg1141
F1.0
sbag0
(g1276
g2
Ntp1317
Rp1318
(dp1319
g51
g178
sg68
(dp1320
g842
Nsg70
g699
sg843
Nssg1139
Nsg568
I53
sg1140
g47
sg1141
F1.0
sbag0
(g1276
g2
Ntp1321
Rp1322
(dp1323
g51
g180
sg68
(dp1324
g842
Nsg70
g702
sg843
Nssg1139
Nsg568
I54
sg1140
g47
sg1141
F1.0
sbag0
(g1276
g2
Ntp1325
Rp1326
(dp1327
g51
g182
sg68
(dp1328
g842
Nsg70
g705
sg843
Nssg1139
Nsg568
I55
sg1140
g47
sg1141
F1.0
sbag0
(g1276
g2
Ntp1329
Rp1330
(dp1331
g51
g184
sg68
(dp1332
g842
Nsg70
g708
sg843
Nssg1139
Nsg568
I56
sg1140
g47
sg1141
F1.0
sbag0
(g1276
g2
Ntp1333
Rp1334
(dp1335
g51
g186
sg68
(dp1336
g842
Nsg70
g711
sg843
Nssg1139
Nsg568
I57
sg1140
g47
sg1141
F1.0
sbag0
(g1276
g2
Ntp1337
Rp1338
(dp1339
g51
g188
sg68
(dp1340
g842
Nsg70
g714
sg843
Nssg1139
Nsg568
I58
sg1140
g47
sg1141
F1.0
sbag0
(g1276
g2
Ntp1341
Rp1342
(dp1343
g51
g190
sg68
(dp1344
g842
Nsg70
g717
sg843
Nssg1139
Nsg568
I59
sg1140
g47
sg1141
F1.0
sbag0
(g1276
g2
Ntp1345
Rp1346
(dp1347
g51
g192
sg68
(dp1348
g842
Nsg70
g720
sg843
Nssg1139
Nsg568
I60
sg1140
g47
sg1141
F1.0
sbag0
(g63
g2
Ntp1349
Rp1350
(dp1351
g51
g194
sg68
(dp1352
g70
g723
ssg1139
Nsg568
I61
sg1140
g47
sg1141
F1.0
sbag0
(clanguage_schemas
CPT_ENTITY_SCHEMA
p1353
g2
Ntp1354
Rp1355
(dp1356
g51
g196
sg68
(dp1357
g70
g726
ssg1139
Nsg568
I62
sg1140
g47
sg1141
F1.0
sbag0
(g1353
g2
Ntp1358
Rp1359
(dp1360
g51
g198
sg68
(dp1361
g70
g729
ssg1139
Nsg568
I63
sg1140
g47
sg1141
F1.0
sbag0
(g1353
g2
Ntp1362
Rp1363
(dp1364
g51
g200
sg68
(dp1365
g70
g732
ssg1139
Nsg568
I64
sg1140
g47
sg1141
F1.0
sbag0
(g1353
g2
Ntp1366
Rp1367
(dp1368
g51
g202
sg68
(dp1369
g70
g735
ssg1139
Nsg568
I65
sg1140
g47
sg1141
F1.0
sbag0
(g1353
g2
Ntp1370
Rp1371
(dp1372
g51
g204
sg68
(dp1373
g70
g738
ssg1139
Nsg568
I66
sg1140
g47
sg1141
F1.0
sbag0
(g1353
g2
Ntp1374
Rp1375
(dp1376
g51
g206
sg68
(dp1377
g70
g741
ssg1139
Nsg568
I67
sg1140
g47
sg1141
F1.0
sbag0
(g1353
g2
Ntp1378
Rp1379
(dp1380
g51
g208
sg68
(dp1381
g70
g744
ssg1139
Nsg568
I68
sg1140
g47
sg1141
F1.0
sbag0
(g1353
g2
Ntp1382
Rp1383
(dp1384
g51
g210
sg68
(dp1385
g70
g747
ssg1139
Nsg568
I69
sg1140
g47
sg1141
F1.0
sbag0
(g1353
g2
Ntp1386
Rp1387
(dp1388
g51
g212
sg68
(dp1389
g70
g750
ssg1139
Nsg568
I70
sg1140
g47
sg1141
F1.0
sbag0
(g1353
g2
Ntp1390
Rp1391
(dp1392
g51
g214
sg68
(dp1393
g70
g753
ssg1139
Nsg568
I71
sg1140
g47
sg1141
F1.0
sbag0
(g1353
g2
Ntp1394
Rp1395
(dp1396
g51
g216
sg68
(dp1397
g70
g756
ssg1139
Nsg568
I72
sg1140
g47
sg1141
F1.0
sbag0
(g1353
g2
Ntp1398
Rp1399
(dp1400
g51
g218
sg68
(dp1401
g70
g759
ssg1139
Nsg568
I73
sg1140
g47
sg1141
F1.0
sbag0
(g1353
g2
Ntp1402
Rp1403
(dp1404
g51
g220
sg68
(dp1405
g70
g762
ssg1139
Nsg568
I74
sg1140
g47
sg1141
F1.0
sbag0
(g1353
g2
Ntp1406
Rp1407
(dp1408
g51
g222
sg68
(dp1409
g70
g765
ssg1139
Nsg568
I75
sg1140
g47
sg1141
F1.0
sbag0
(g1353
g2
Ntp1410
Rp1411
(dp1412
g51
g224
sg68
(dp1413
g70
g768
ssg1139
Nsg568
I76
sg1140
g47
sg1141
F1.0
sbag0
(g1353
g2
Ntp1414
Rp1415
(dp1416
g51
g226
sg68
(dp1417
g70
g771
ssg1139
Nsg568
I77
sg1140
g47
sg1141
F1.0
sbag0
(g1353
g2
Ntp1418
Rp1419
(dp1420
g51
g228
sg68
(dp1421
g70
g774
ssg1139
Nsg568
I78
sg1140
g47
sg1141
F1.0
sbag0
(g1353
g2
Ntp1422
Rp1423
(dp1424
g51
g230
sg68
(dp1425
g70
g777
ssg1139
Nsg568
I79
sg1140
g47
sg1141
F1.0
sbag0
(g1353
g2
Ntp1426
Rp1427
(dp1428
g51
g232
sg68
(dp1429
g70
g780
ssg1139
Nsg568
I80
sg1140
g47
sg1141
F1.0
sbag0
(g1353
g2
Ntp1430
Rp1431
(dp1432
g51
g234
sg68
(dp1433
g70
g783
ssg1139
Nsg568
I81
sg1140
g47
sg1141
F1.0
sbag0
(g1353
g2
Ntp1434
Rp1435
(dp1436
g51
g236
sg68
(dp1437
g70
g786
ssg1139
Nsg568
I82
sg1140
g47
sg1141
F1.0
sbag0
(g1353
g2
Ntp1438
Rp1439
(dp1440
g51
g238
sg68
(dp1441
g70
g789
ssg1139
Nsg568
I83
sg1140
g47
sg1141
F1.0
sbag0
(g1353
g2
Ntp1442
Rp1443
(dp1444
g51
g240
sg68
(dp1445
g70
g792
ssg1139
Nsg568
I84
sg1140
g47
sg1141
F1.0
sbag0
(g1353
g2
Ntp1446
Rp1447
(dp1448
g51
g242
sg68
(dp1449
g70
g795
ssg1139
Nsg568
I85
sg1140
g47
sg1141
F1.0
sbag0
(g1353
g2
Ntp1450
Rp1451
(dp1452
g51
g244
sg68
(dp1453
g70
g798
ssg1139
Nsg568
I86
sg1140
g47
sg1141
F1.0
sbag0
(g1353
g2
Ntp1454
Rp1455
(dp1456
g51
g246
sg68
(dp1457
g70
g801
ssg1139
Nsg568
I87
sg1140
g47
sg1141
F1.0
sbag0
(g1353
g2
Ntp1458
Rp1459
(dp1460
g51
g248
sg68
(dp1461
g70
g804
ssg1139
Nsg568
I88
sg1140
g47
sg1141
F1.0
sbag0
(g1353
g2
Ntp1462
Rp1463
(dp1464
g51
g250
sg68
(dp1465
g70
g807
ssg1139
Nsg568
I89
sg1140
g47
sg1141
F1.0
sbag0
(g1353
g2
Ntp1466
Rp1467
(dp1468
g51
g252
sg68
(dp1469
g70
g810
ssg1139
Nsg568
I90
sg1140
g47
sg1141
F1.0
sbag0
(g1353
g2
Ntp1470
Rp1471
(dp1472
g51
g254
sg68
(dp1473
g70
g813
ssg1139
Nsg568
I91
sg1140
g47
sg1141
F1.0
sbag0
(g1353
g2
Ntp1474
Rp1475
(dp1476
g51
g256
sg68
(dp1477
g70
g816
ssg1139
Nsg568
I92
sg1140
g47
sg1141
F1.0
sbag0
(g1353
g2
Ntp1478
Rp1479
(dp1480
g51
g258
sg68
(dp1481
g70
g819
ssg1139
Nsg568
I93
sg1140
g47
sg1141
F1.0
sbag0
(g1353
g2
Ntp1482
Rp1483
(dp1484
g51
g260
sg68
(dp1485
g70
g822
ssg1139
Nsg568
I94
sg1140
g47
sg1141
F1.0
sbag0
(g1353
g2
Ntp1486
Rp1487
(dp1488
g51
g262
sg68
(dp1489
g70
g825
ssg1139
Nsg568
I95
sg1140
g47
sg1141
F1.0
sbag0
(g1353
g2
Ntp1490
Rp1491
(dp1492
g51
g264
sg68
(dp1493
g70
g828
ssg1139
Nsg568
I96
sg1140
g47
sg1141
F1.0
sbag0
(g1353
g2
Ntp1494
Rp1495
(dp1496
g51
g266
sg68
(dp1497
g70
g831
ssg1139
Nsg568
I97
sg1140
g47
sg1141
F1.0
sbag0
(g1353
g2
Ntp1498
Rp1499
(dp1500
g51
g268
sg68
(dp1501
g70
g834
ssg1139
Nsg568
I98
sg1140
g47
sg1141
F1.0
sbasg278
S'OUT'
p1502
sg568
I11
sS'schema'
p1503
g47
sbag0
(g55
g2
Ntp1504
Rp1505
(dp1506
g51
S'to_semantic_WM'
p1507
sg60
Nsg61
g62
sg278
g1502
sg568
I12
sg1503
g47
sbasS'outputs'
p1508
(dp1509
g59
Nsg1507
NssS'connections'
p1510
(lp1511
sS'cpt_knowledge'
p1512
g79
sS'dt'
p1513
F1.0
sS'in_ports'
p1514
(lp1515
sS'params'
p1516
(dp1517
g1141
F1.0
ssS't'
p1518
I0
sS'activity'
p1519
I0
sg1139
g0
(cschema_theory
MODEL
p1520
g2
Ntp1521
Rp1522
(dp1523
S'verbose'
p1524
I00
sg51
S'language_system_P'
p1525
sS'sim_data'
p1526
(dp1527
S'system_states'
p1528
(dp1529
sg1139
(dp1530
ssg1508
(dp1531
sS'input_ports'
p1532
(lp1533
g0
(g55
g2
Ntp1534
Rp1535
(dp1536
g51
S'from_conceptualizer'
p1537
sg60
Nsg61
Nsg278
S'IN'
p1538
sg568
I1
sg1503
g0
(clanguage_schemas
SEMANTIC_WM
p1539
g2
Ntp1540
Rp1541
(dp1542
g49
(dp1543
S'from_grammatical_WM_P'
p1544
NsS'from_concept_LTM'
p1545
NsS'from_control'
p1546
NsS'from_grammatical_WM_C'
p1547
Nsg1537
NssS'schema_insts'
p1548
(lp1549
sg51
S'Semantic_WM'
p1550
sS'comp_links'
p1551
(lp1552
sg53
(lp1553
g0
(g55
g2
Ntp1554
Rp1555
(dp1556
S'port_data'
p1557
Nsg51
S'to_grammatical_WM_P'
p1558
sg60
Nsg61
NsS'port_value'
p1559
Nsg278
g1502
sg568
I6
sg1503
g1541
sbag0
(g55
g2
Ntp1560
Rp1561
(dp1562
g1557
Nsg51
S'to_cxn_retrieval_P'
p1563
sg60
Nsg61
Nsg1559
Nsg278
g1502
sg568
I7
sg1503
g1541
sbag0
(g55
g2
Ntp1564
Rp1565
(dp1566
g1557
Nsg51
S'to_control'
p1567
sg60
Nsg61
Nsg1559
Nsg278
g1502
sg568
I8
sg1503
g1541
sbag0
(g55
g2
Ntp1568
Rp1569
(dp1570
g51
S'to_visual_WM'
p1571
sg60
Nsg61
Nsg278
g1502
sg568
I9
sg1503
g1541
sbag0
(g55
g2
Ntp1572
Rp1573
(dp1574
g51
S'to_output'
p1575
sg60
Nsg61
Nsg278
g1502
sg568
I10
sg1503
g1541
sbasg1508
(dp1576
g1575
Nsg1558
Nsg1571
Nsg1563
Nsg1567
Nssg1513
F1.0
sS'coop_links'
p1577
(lp1578
sg1514
(lp1579
g1535
ag0
(g55
g2
Ntp1580
Rp1581
(dp1582
g51
g1545
sg60
Nsg61
Nsg278
g1538
sg568
I2
sg1503
g1541
sbag0
(g55
g2
Ntp1583
Rp1584
(dp1585
g51
g1547
sg60
Nsg61
Nsg278
g1538
sg568
I3
sg1503
g1541
sbag0
(g55
g2
Ntp1586
Rp1587
(dp1588
g1557
Nsg51
g1544
sg60
Nsg61
Nsg1559
Nsg278
g1538
sg568
I4
sg1503
g1541
sbag0
(g55
g2
Ntp1589
Rp1590
(dp1591
g1557
Nsg51
g1546
sg60
Nsg61
S'produce'
p1592
sg1559
Nsg278
g1538
sg568
I5
sg1503
g1541
sbasS'save_state'
p1593
(dp1594
S'insts'
p1595
(dp1596
sS'WM_activity'
p1597
(dp1598
S'comp'
p1599
(lp1600
sS'c2_network'
p1601
(dp1602
S'num_insts'
p1603
(lp1604
sS'num_coop_links'
p1605
(lp1606
sS'num_comp_links'
p1607
(lp1608
ssS'coop'
p1609
(lp1610
sg1518
(lp1611
sS'act'
p1612
(lp1613
sssg1516
(dp1614
S'C2'
p1615
(dp1616
S'P_comp'
p1617
F1.0
sS'comp_weight'
p1618
F0.0
sS'P_coop'
p1619
F1.0
sS'coop_asymmetry'
p1620
F1.0
sS'coop_weight'
p1621
F0.0
sS'confidence_threshold'
p1622
F0.0
sS'comp_asymmetry'
p1623
F0.0
sS'prune_threshold'
p1624
F0.01
ssS'dyn'
p1625
(dp1626
S'tau'
p1627
F10000.0
sS'k'
p1628
F10.0
sS'act_rest'
p1629
F0.001
sS'noise_mean'
p1630
F0.0
sS'noise_std'
p1631
F1.0
sS'ext_weight'
p1632
F1.0
sS'int_weight'
p1633
F1.0
sssg1518
I0
sg1519
I0
sg1139
g1522
sS'SemRep'
p1634
g0
(g82
g2
Ntp1635
Rp1636
(dp1637
g86
(dp1638
sg269
g270
sg271
g270
sg272
(dp1639
sg466
g1639
sg81
(dp1640
sg468
g270
sg469
g1639
sg470
(dp1641
sbsg568
I1
sbsbasS'brain_mapping'
p1642
g0
(cschema_theory
BRAIN_MAPPING
p1643
g2
Ntp1644
Rp1645
(dp1646
S'schema_mapping'
p1647
(dp1648
S'Control'
p1649
(lp1650
S'DLPFC'
p1651
asS'Utter'
p1652
(lp1653
S''
p1654
asg1550
(lp1655
S'left_SFG'
p1656
aS'LIP'
p1657
aS'Hippocampus'
p1658
asS'Phonological_WM_P'
p1659
(lp1660
S'left_BA6'
p1661
asg52
(lp1662
g1654
asS'Grammatical_WM_P'
p1663
(lp1664
S'left_BA45'
p1665
aS'leftBA44'
p1666
asS'Grammatical_LTM'
p1667
(lp1668
S'left_STG'
p1669
aS'left_MTG'
p1670
asS'Cxn_retrieval_P'
p1671
(lp1672
ssS'connect_mapping'
p1673
(dp1674
sbsg1510
(lp1675
g0
(cschema_theory
CONNECT
p1676
g2
Ntp1677
Rp1678
(dp1679
S'delay'
p1680
I0
sg51
g1654
sS'weight'
p1681
I0
sS'port_to'
p1682
g0
(g55
g2
Ntp1683
Rp1684
(dp1685
g1557
Nsg51
S'from_semantic_WM'
p1686
sg60
Nsg61
Nsg1559
Nsg278
g1538
sg568
I23
sg1503
g0
(clanguage_schemas
CXN_RETRIEVAL_P
p1687
g2
Ntp1688
Rp1689
(dp1690
g49
(dp1691
g1686
NsS'from_grammatical_LTM'
p1692
Nssg51
g1671
sg53
(lp1693
g0
(g55
g2
Ntp1694
Rp1695
(dp1696
g1557
Nsg51
g1558
sg60
Nsg61
Nsg1559
Nsg278
g1502
sg568
I24
sg1503
g1689
sbasg1508
(dp1697
g1558
NssS'cxn_instances'
p1698
(lp1699
sg1513
F1.0
sg1514
(lp1700
g0
(g55
g2
Ntp1701
Rp1702
(dp1703
g1557
Nsg51
g1692
sg60
Nsg61
(lp1704
g0
(clanguage_schemas
CXN_SCHEMA
p1705
g2
Ntp1706
Rp1707
(dp1708
g51
VCNJ_AND
p1709
sg68
(iconstruction
CXN
p1710
(dp1711
S'SymLinks'
p1712
(iconstruction
TP_SYMLINKS
p1713
(dp1714
S'SL'
p1715
(dp1716
VEVT1_4
p1717
VS1_6
p1718
sVEVT2_5
p1719
VS3_8
p1720
ssg568
I3
sg51
g1654
sbsS'clss'
p1721
VD
p1722
sS'group'
p1723
I3
sg51
g1709
sS'SemFrame'
p1724
(iconstruction
TP_SEMFRAME
p1725
(dp1726
g81
g0
(g82
g2
Ntp1727
Rp1728
(dp1729
g86
(dp1730
(iconstruction
TP_NODE
p1731
(dp1732
S'head'
p1733
I00
sg70
g723
sg51
g1719
sS'frame'
p1734
I00
sS'focus'
p1735
I00
sg568
I5
sb(dp1736
g1734
I00
sg70
g723
ss(iconstruction
TP_NODE
p1737
(dp1738
g1733
I00
sg70
g723
sg51
g1717
sg1734
I00
sg1735
I01
sg568
I4
sb(dp1739
g1734
I00
sg70
g723
sssg269
g270
sg271
g270
sg272
(dp1740
g1731
(dp1741
sg1737
(dp1742
ssg466
g1740
sg81
(dp1743
sg468
g270
sg469
g1740
sg470
(dp1744
g1731
(dp1745
sg1737
(dp1746
ssbsg563
(lp1747
g1737
ag1731
asg836
(lp1748
sg568
I1
sg51
g1654
sbsS'SynForm'
p1749
(iconstruction
TP_SYNFORM
p1750
(dp1751
g568
I2
sS'form'
p1752
(lp1753
(iconstruction
TP_SLOT
p1754
(dp1755
S'cxn_classes'
p1756
(lp1757
VS
p1758
asS'order'
p1759
I0
sg568
I6
sg51
g1718
sba(iconstruction
TP_PHON
p1760
(dp1761
S'num_syllables'
p1762
I3
sg1759
I1
sg568
I7
sS'cxn_phonetics'
p1763
Vand
p1764
sg51
VS2_7
p1765
sba(iconstruction
TP_SLOT
p1766
(dp1767
g1756
(lp1768
VS
p1769
asg1759
I2
sg568
I8
sg51
g1720
sbasg51
g1654
sbsS'preference'
p1770
I1
sbsg1139
Nsg568
I99
sg1140
g0
(clanguage_schemas
GRAMMATICAL_LTM
p1771
g2
Ntp1772
Rp1773
(dp1774
g49
(dp1775
sS'grammar'
p1776
(iconstruction
GRAMMAR
p1777
(dp1778
S'constructions'
p1779
(lp1780
g1710
a(iconstruction
CXN
p1781
(dp1782
g1712
(iconstruction
TP_SYMLINKS
p1783
(dp1784
g1715
(dp1785
VEVT2_13
p1786
VS3_17
p1787
sVEVT1_12
p1788
VS1_15
p1789
ssg568
I11
sg51
g1654
sbsg1721
VD
p1790
sg1723
I3
sg51
VCNJ_THEN
p1791
sg1724
(iconstruction
TP_SEMFRAME
p1792
(dp1793
g81
g0
(g82
g2
Ntp1794
Rp1795
(dp1796
g86
(dp1797
(iconstruction
TP_NODE
p1798
(dp1799
g1733
I00
sg70
g723
sg51
g1786
sg1734
I00
sg1735
I00
sg568
I13
sb(dp1800
g1734
I00
sg70
g723
ss(iconstruction
TP_NODE
p1801
(dp1802
g1733
I00
sg70
g723
sg51
g1788
sg1734
I00
sg1735
I00
sg568
I12
sb(dp1803
g1734
I00
sg70
g723
sssg269
g270
sg271
g270
sg272
(dp1804
g1798
(dp1805
sg1801
(dp1806
g1798
(dp1807
g70
g708
ssssg466
g1804
sg81
(dp1808
sg468
g270
sg469
g1804
sg470
(dp1809
g1798
(dp1810
g1801
g1807
ssg1801
(dp1811
ssbsg563
(lp1812
g1801
ag1798
asg836
(lp1813
(iconstruction
TP_REL
p1814
(dp1815
g842
g1798
sg70
g708
sg568
I14
sg843
g1801
sg51
VEVT1_EVT2_14
p1816
sbasg568
I9
sg51
g1654
sbsg1749
(iconstruction
TP_SYNFORM
p1817
(dp1818
g568
I10
sg1752
(lp1819
(iconstruction
TP_SLOT
p1820
(dp1821
g1756
(lp1822
VS
p1823
asg1759
I0
sg568
I15
sg51
g1789
sba(iconstruction
TP_PHON
p1824
(dp1825
g1762
I4
sg1759
I1
sg568
I16
sg1763
Vthen
p1826
sg51
VS2_16
p1827
sba(iconstruction
TP_SLOT
p1828
(dp1829
g1756
(lp1830
VS
p1831
asg1759
I2
sg568
I17
sg51
g1787
sbasg51
g1654
sbsg1770
I1
sba(iconstruction
CXN
p1832
(dp1833
g1712
(iconstruction
TP_SYMLINKS
p1834
(dp1835
g1715
(dp1836
VEVT2_22
p1837
VS3_26
p1838
sVEVT1_21
p1839
VS1_24
p1840
ssg568
I20
sg51
g1654
sbsg1721
VD
p1841
sg1723
I3
sg51
VCNJ_WHILE
p1842
sg1724
(iconstruction
TP_SEMFRAME
p1843
(dp1844
g81
g0
(g82
g2
Ntp1845
Rp1846
(dp1847
g86
(dp1848
(iconstruction
TP_NODE
p1849
(dp1850
g1733
I00
sg70
g723
sg51
g1837
sg1734
I00
sg1735
I00
sg568
I22
sb(dp1851
g1734
I00
sg70
g723
ss(iconstruction
TP_NODE
p1852
(dp1853
g1733
I00
sg70
g723
sg51
g1839
sg1734
I00
sg1735
I01
sg568
I21
sb(dp1854
g1734
I00
sg70
g723
sssg269
g270
sg271
g270
sg272
(dp1855
g1849
(dp1856
sg1852
(dp1857
g1849
(dp1858
g70
g705
ssssg466
g1855
sg81
(dp1859
sg468
g270
sg469
g1855
sg470
(dp1860
g1849
(dp1861
g1852
g1858
ssg1852
(dp1862
ssbsg563
(lp1863
g1852
ag1849
asg836
(lp1864
(iconstruction
TP_REL
p1865
(dp1866
g842
g1849
sg70
g705
sg568
I23
sg843
g1852
sg51
VEVT1_EVT2_23
p1867
sbasg568
I18
sg51
g1654
sbsg1749
(iconstruction
TP_SYNFORM
p1868
(dp1869
g568
I19
sg1752
(lp1870
(iconstruction
TP_SLOT
p1871
(dp1872
g1756
(lp1873
VS
p1874
asg1759
I0
sg568
I24
sg51
g1840
sba(iconstruction
TP_PHON
p1875
(dp1876
g1762
I5
sg1759
I1
sg568
I25
sg1763
Vwhile
p1877
sg51
VS2_25
p1878
sba(iconstruction
TP_SLOT
p1879
(dp1880
g1756
(lp1881
VS
p1882
asg1759
I2
sg568
I26
sg51
g1838
sbasg51
g1654
sbsg1770
I1
sba(iconstruction
CXN
p1883
(dp1884
g1712
(iconstruction
TP_SYMLINKS
p1885
(dp1886
g1715
(dp1887
VACT_31
p1888
VS4_40
p1889
sVACTOR_1_32
p1890
VS1_37
p1891
sVACTOR_2_33
p1892
VS3_39
p1893
ssg568
I29
sg51
g1654
sbsg1721
VS
p1894
sg1723
Nsg51
VSYMMETRIC_TRANS
p1895
sg1724
(iconstruction
TP_SEMFRAME
p1896
(dp1897
g81
g0
(g82
g2
Ntp1898
Rp1899
(dp1900
g86
(dp1901
(iconstruction
TP_NODE
p1902
(dp1903
g1733
I01
sg70
g723
sg51
VEVT_30
p1904
sg1734
I01
sg1735
I00
sg568
I30
sb(dp1905
g1734
I01
sg70
g723
ss(iconstruction
TP_NODE
p1906
(dp1907
g1733
I00
sg70
g726
sg51
g1890
sg1734
I01
sg1735
I01
sg568
I32
sb(dp1908
g1734
I01
sg70
g726
ss(iconstruction
TP_NODE
p1909
(dp1910
g1733
I00
sg70
g570
sg51
g1888
sg1734
I01
sg1735
I00
sg568
I31
sb(dp1911
g1734
I01
sg70
g570
ss(iconstruction
TP_NODE
p1912
(dp1913
g1733
I00
sg70
g726
sg51
g1892
sg1734
I01
sg1735
I00
sg568
I33
sb(dp1914
g1734
I01
sg70
g726
sssg269
g270
sg271
g270
sg272
(dp1915
g1902
(dp1916
g1909
(dp1917
g70
g717
sssg1906
(dp1918
sg1909
(dp1919
g1906
(dp1920
g70
g693
ssg1912
(dp1921
g70
g693
sssg1912
(dp1922
ssg466
g1915
sg81
(dp1923
sg468
g270
sg469
g1915
sg470
(dp1924
g1902
(dp1925
sg1906
(dp1926
g1909
g1920
ssg1909
(dp1927
g1902
g1917
ssg1912
(dp1928
g1909
g1921
sssbsg563
(lp1929
g1902
ag1909
ag1906
ag1912
asg836
(lp1930
(iconstruction
TP_REL
p1931
(dp1932
g842
g1909
sg70
g717
sg568
I34
sg843
g1902
sg51
VIS_34
p1933
sba(iconstruction
TP_REL
p1934
(dp1935
g842
g1906
sg70
g693
sg568
I35
sg843
g1909
sg51
VAGT_PT_1_35
p1936
sba(iconstruction
TP_REL
p1937
(dp1938
g842
g1912
sg70
g693
sg568
I36
sg843
g1909
sg51
VAGT_PT_2_36
p1939
sbasg568
I27
sg51
g1654
sbsg1749
(iconstruction
TP_SYNFORM
p1940
(dp1941
g568
I28
sg1752
(lp1942
(iconstruction
TP_SLOT
p1943
(dp1944
g1756
(lp1945
VNP
p1946
aVN
p1947
asg1759
I0
sg568
I37
sg51
g1891
sba(iconstruction
TP_PHON
p1948
(dp1949
g1762
I3
sg1759
I1
sg568
I38
sg1763
Vand
p1950
sg51
VS2_38
p1951
sba(iconstruction
TP_SLOT
p1952
(dp1953
g1756
(lp1954
VNP
p1955
aVN
p1956
asg1759
I2
sg568
I39
sg51
g1893
sba(iconstruction
TP_SLOT
p1957
(dp1958
g1756
(lp1959
VVP
p1960
aVV
p1961
asg1759
I3
sg568
I40
sg51
g1889
sbasg51
g1654
sbsg1770
I1
sba(iconstruction
CXN
p1962
(dp1963
g1712
(iconstruction
TP_SYMLINKS
p1964
(dp1965
g1715
(dp1966
VAGT_46
p1967
VS1_51
p1968
sVACT_45
p1969
VS2_52
p1970
sVPT_47
p1971
VS3_53
p1972
ssg568
I43
sg51
g1654
sbsg1721
VS
p1973
sg1723
I2
sg51
VSVO
p1974
sg1724
(iconstruction
TP_SEMFRAME
p1975
(dp1976
g81
g0
(g82
g2
Ntp1977
Rp1978
(dp1979
g86
(dp1980
(iconstruction
TP_NODE
p1981
(dp1982
g1733
I01
sg70
g723
sg51
VEVT_44
p1983
sg1734
I01
sg1735
I00
sg568
I44
sb(dp1984
g1734
I01
sg70
g723
ss(iconstruction
TP_NODE
p1985
(dp1986
g1733
I00
sg70
g726
sg51
g1967
sg1734
I01
sg1735
I01
sg568
I46
sb(dp1987
g1734
I01
sg70
g726
ss(iconstruction
TP_NODE
p1988
(dp1989
g1733
I00
sg70
g726
sg51
g1971
sg1734
I01
sg1735
I00
sg568
I47
sb(dp1990
g1734
I01
sg70
g726
ss(iconstruction
TP_NODE
p1991
(dp1992
g1733
I00
sg70
g570
sg51
g1969
sg1734
I01
sg1735
I00
sg568
I45
sb(dp1993
g1734
I01
sg70
g570
sssg269
g270
sg271
g270
sg272
(dp1994
g1981
(dp1995
g1991
(dp1996
g70
g717
sssg1985
(dp1997
sg1988
(dp1998
sg1991
(dp1999
g1985
(dp2000
g70
g696
ssg1988
(dp2001
g70
g690
ssssg466
g1994
sg81
(dp2002
sg468
g270
sg469
g1994
sg470
(dp2003
g1981
(dp2004
sg1985
(dp2005
g1991
g2000
ssg1988
(dp2006
g1991
g2001
ssg1991
(dp2007
g1981
g1996
sssbsg563
(lp2008
g1981
ag1991
ag1985
ag1988
asg836
(lp2009
(iconstruction
TP_REL
p2010
(dp2011
g842
g1991
sg70
g717
sg568
I48
sg843
g1981
sg51
VIS_48
p2012
sba(iconstruction
TP_REL
p2013
(dp2014
g842
g1985
sg70
g696
sg568
I49
sg843
g1991
sg51
VACT_AGT_49
p2015
sba(iconstruction
TP_REL
p2016
(dp2017
g842
g1988
sg70
g690
sg568
I50
sg843
g1991
sg51
VACT_PT_50
p2018
sbasg568
I41
sg51
g1654
sbsg1749
(iconstruction
TP_SYNFORM
p2019
(dp2020
g568
I42
sg1752
(lp2021
(iconstruction
TP_SLOT
p2022
(dp2023
g1756
(lp2024
VNP
p2025
aVN
p2026
asg1759
I0
sg568
I51
sg51
g1968
sba(iconstruction
TP_SLOT
p2027
(dp2028
g1756
(lp2029
VVP
p2030
aVV
p2031
asg1759
I1
sg568
I52
sg51
g1970
sba(iconstruction
TP_SLOT
p2032
(dp2033
g1756
(lp2034
VNP
p2035
aVN
p2036
asg1759
I2
sg568
I53
sg51
g1972
sbasg51
g1654
sbsg1770
I1
sba(iconstruction
CXN
p2037
(dp2038
g1712
(iconstruction
TP_SYMLINKS
p2039
(dp2040
g1715
(dp2041
VPT_60
p2042
VS1_64
p2043
sVACT_58
p2044
VS3_66
p2045
sVAGT_59
p2046
VS6_69
p2047
ssg568
I56
sg51
g1654
sbsg1721
VS
p2048
sg1723
I2
sg51
VPAS_SVO
p2049
sg1724
(iconstruction
TP_SEMFRAME
p2050
(dp2051
g81
g0
(g82
g2
Ntp2052
Rp2053
(dp2054
g86
(dp2055
(iconstruction
TP_NODE
p2056
(dp2057
g1733
I00
sg70
g570
sg51
g2044
sg1734
I01
sg1735
I00
sg568
I58
sb(dp2058
g1734
I01
sg70
g570
ss(iconstruction
TP_NODE
p2059
(dp2060
g1733
I00
sg70
g726
sg51
g2046
sg1734
I01
sg1735
I00
sg568
I59
sb(dp2061
g1734
I01
sg70
g726
ss(iconstruction
TP_NODE
p2062
(dp2063
g1733
I01
sg70
g723
sg51
VEVT_57
p2064
sg1734
I01
sg1735
I00
sg568
I57
sb(dp2065
g1734
I01
sg70
g723
ss(iconstruction
TP_NODE
p2066
(dp2067
g1733
I00
sg70
g726
sg51
g2042
sg1734
I01
sg1735
I01
sg568
I60
sb(dp2068
g1734
I01
sg70
g726
sssg269
g270
sg271
g270
sg272
(dp2069
g2056
(dp2070
g2066
(dp2071
g70
g690
ssg2059
(dp2072
g70
g696
sssg2059
(dp2073
sg2062
(dp2074
g2056
(dp2075
g70
g717
sssg2066
(dp2076
ssg466
g2069
sg81
(dp2077
sg468
g270
sg469
g2069
sg470
(dp2078
g2056
(dp2079
g2062
g2075
ssg2059
(dp2080
g2056
g2072
ssg2062
(dp2081
sg2066
(dp2082
g2056
g2071
sssbsg563
(lp2083
g2062
ag2056
ag2059
ag2066
asg836
(lp2084
(iconstruction
TP_REL
p2085
(dp2086
g842
g2056
sg70
g717
sg568
I61
sg843
g2062
sg51
VIS_61
p2087
sba(iconstruction
TP_REL
p2088
(dp2089
g842
g2059
sg70
g696
sg568
I62
sg843
g2056
sg51
VACT_AGT_62
p2090
sba(iconstruction
TP_REL
p2091
(dp2092
g842
g2066
sg70
g690
sg568
I63
sg843
g2056
sg51
VACT_PT_63
p2093
sbasg568
I54
sg51
g1654
sbsg1749
(iconstruction
TP_SYNFORM
p2094
(dp2095
g568
I55
sg1752
(lp2096
(iconstruction
TP_SLOT
p2097
(dp2098
g1756
(lp2099
VNP
p2100
aVN
p2101
asg1759
I0
sg568
I64
sg51
g2043
sba(iconstruction
TP_PHON
p2102
(dp2103
g1762
I2
sg1759
I1
sg568
I65
sg1763
Vis
p2104
sg51
VS2_65
p2105
sba(iconstruction
TP_SLOT
p2106
(dp2107
g1756
(lp2108
VVP
p2109
aVV
p2110
asg1759
I2
sg568
I66
sg51
g2045
sba(iconstruction
TP_PHON
p2111
(dp2112
g1762
I2
sg1759
I3
sg568
I67
sg1763
V-ed
p2113
sg51
VS4_67
p2114
sba(iconstruction
TP_PHON
p2115
(dp2116
g1762
I2
sg1759
I4
sg568
I68
sg1763
Vby
p2117
sg51
VS5_68
p2118
sba(iconstruction
TP_SLOT
p2119
(dp2120
g1756
(lp2121
VNP
p2122
aVN
p2123
asg1759
I5
sg568
I69
sg51
g2047
sbasg51
g1654
sbsg1770
I1
sba(iconstruction
CXN
p2124
(dp2125
g1712
(iconstruction
TP_SYMLINKS
p2126
(dp2127
g1715
(dp2128
VACT_74
p2129
VS2_83
p2130
sVRCPT_77
p2131
VS3_84
p2132
sVTHEME_76
p2133
VS4_85
p2134
sVAGT_75
p2135
VS1_82
p2136
ssg568
I72
sg51
g1654
sbsg1721
VS
p2137
sg1723
I2
sg51
VDOUBLE_OBJ
p2138
sg1724
(iconstruction
TP_SEMFRAME
p2139
(dp2140
g81
g0
(g82
g2
Ntp2141
Rp2142
(dp2143
g86
(dp2144
(iconstruction
TP_NODE
p2145
(dp2146
g1733
I01
sg70
g723
sg51
VEVT_73
p2147
sg1734
I01
sg1735
I00
sg568
I73
sb(dp2148
g1734
I01
sg70
g723
ss(iconstruction
TP_NODE
p2149
(dp2150
g1733
I00
sg70
g726
sg51
g2135
sg1734
I01
sg1735
I01
sg568
I75
sb(dp2151
g1734
I01
sg70
g726
ss(iconstruction
TP_NODE
p2152
(dp2153
g1733
I00
sg70
g570
sg51
g2129
sg1734
I01
sg1735
I00
sg568
I74
sb(dp2154
g1734
I01
sg70
g570
ss(iconstruction
TP_NODE
p2155
(dp2156
g1733
I00
sg70
g726
sg51
g2131
sg1734
I01
sg1735
I00
sg568
I77
sb(dp2157
g1734
I01
sg70
g726
ss(iconstruction
TP_NODE
p2158
(dp2159
g1733
I00
sg70
g726
sg51
g2133
sg1734
I01
sg1735
I00
sg568
I76
sb(dp2160
g1734
I01
sg70
g726
sssg269
g270
sg271
g270
sg272
(dp2161
g2145
(dp2162
g2152
(dp2163
g70
g717
sssg2149
(dp2164
sg2152
(dp2165
g2149
(dp2166
g70
g696
ssg2155
(dp2167
g70
g681
ssg2158
(dp2168
g70
g678
sssg2155
(dp2169
sg2158
(dp2170
ssg466
g2161
sg81
(dp2171
sg468
g270
sg469
g2161
sg470
(dp2172
g2145
(dp2173
sg2149
(dp2174
g2152
g2166
ssg2152
(dp2175
g2145
g2163
ssg2155
(dp2176
g2152
g2167
ssg2158
(dp2177
g2152
g2168
sssbsg563
(lp2178
g2145
ag2152
ag2149
ag2158
ag2155
asg836
(lp2179
(iconstruction
TP_REL
p2180
(dp2181
g842
g2152
sg70
g717
sg568
I78
sg843
g2145
sg51
VIS_78
p2182
sba(iconstruction
TP_REL
p2183
(dp2184
g842
g2149
sg70
g696
sg568
I79
sg843
g2152
sg51
VACT_AGT_79
p2185
sba(iconstruction
TP_REL
p2186
(dp2187
g842
g2158
sg70
g678
sg568
I80
sg843
g2152
sg51
VACT_THEME_80
p2188
sba(iconstruction
TP_REL
p2189
(dp2190
g842
g2155
sg70
g681
sg568
I81
sg843
g2152
sg51
VACT_RCPT_81
p2191
sbasg568
I70
sg51
g1654
sbsg1749
(iconstruction
TP_SYNFORM
p2192
(dp2193
g568
I71
sg1752
(lp2194
(iconstruction
TP_SLOT
p2195
(dp2196
g1756
(lp2197
VNP
p2198
aVN
p2199
asg1759
I0
sg568
I82
sg51
g2136
sba(iconstruction
TP_SLOT
p2200
(dp2201
g1756
(lp2202
VVP
p2203
aVV
p2204
asg1759
I1
sg568
I83
sg51
g2130
sba(iconstruction
TP_SLOT
p2205
(dp2206
g1756
(lp2207
VNP
p2208
aVN
p2209
asg1759
I2
sg568
I84
sg51
g2132
sba(iconstruction
TP_SLOT
p2210
(dp2211
g1756
(lp2212
VNP
p2213
aVN
p2214
asg1759
I3
sg568
I85
sg51
g2134
sbasg51
g1654
sbsg1770
I1
sba(iconstruction
CXN
p2215
(dp2216
g1712
(iconstruction
TP_SYMLINKS
p2217
(dp2218
g1715
(dp2219
VAGT_91
p2220
VS1_98
p2221
sVRCPT_93
p2222
VS5_102
p2223
sVACT_90
p2224
VS2_99
p2225
sVTHEME_92
p2226
VS3_100
p2227
ssg568
I88
sg51
g1654
sbsg1721
VS
p2228
sg1723
I2
sg51
VOBLIQUE_DATIVE
p2229
sg1724
(iconstruction
TP_SEMFRAME
p2230
(dp2231
g81
g0
(g82
g2
Ntp2232
Rp2233
(dp2234
g86
(dp2235
(iconstruction
TP_NODE
p2236
(dp2237
g1733
I01
sg70
g723
sg51
VEVT_89
p2238
sg1734
I01
sg1735
I00
sg568
I89
sb(dp2239
g1734
I01
sg70
g723
ss(iconstruction
TP_NODE
p2240
(dp2241
g1733
I00
sg70
g726
sg51
g2220
sg1734
I01
sg1735
I01
sg568
I91
sb(dp2242
g1734
I01
sg70
g726
ss(iconstruction
TP_NODE
p2243
(dp2244
g1733
I00
sg70
g726
sg51
g2226
sg1734
I01
sg1735
I00
sg568
I92
sb(dp2245
g1734
I01
sg70
g726
ss(iconstruction
TP_NODE
p2246
(dp2247
g1733
I00
sg70
g618
sg51
g2224
sg1734
I01
sg1735
I00
sg568
I90
sb(dp2248
g1734
I01
sg70
g618
ss(iconstruction
TP_NODE
p2249
(dp2250
g1733
I00
sg70
g726
sg51
g2222
sg1734
I01
sg1735
I00
sg568
I93
sb(dp2251
g1734
I01
sg70
g726
sssg269
g270
sg271
g270
sg272
(dp2252
g2236
(dp2253
g2246
(dp2254
g70
g717
sssg2240
(dp2255
sg2243
(dp2256
sg2246
(dp2257
g2240
(dp2258
g70
g696
ssg2249
(dp2259
g70
g681
ssg2243
(dp2260
g70
g678
sssg2249
(dp2261
ssg466
g2252
sg81
(dp2262
sg468
g270
sg469
g2252
sg470
(dp2263
g2236
(dp2264
sg2240
(dp2265
g2246
g2258
ssg2243
(dp2266
g2246
g2260
ssg2246
(dp2267
g2236
g2254
ssg2249
(dp2268
g2246
g2259
sssbsg563
(lp2269
g2236
ag2246
ag2240
ag2243
ag2249
asg836
(lp2270
(iconstruction
TP_REL
p2271
(dp2272
g842
g2246
sg70
g717
sg568
I94
sg843
g2236
sg51
VIS_94
p2273
sba(iconstruction
TP_REL
p2274
(dp2275
g842
g2240
sg70
g696
sg568
I95
sg843
g2246
sg51
VACT_AGT_95
p2276
sba(iconstruction
TP_REL
p2277
(dp2278
g842
g2243
sg70
g678
sg568
I96
sg843
g2246
sg51
VACT_THEME_96
p2279
sba(iconstruction
TP_REL
p2280
(dp2281
g842
g2249
sg70
g681
sg568
I97
sg843
g2246
sg51
VACT_RCPT_97
p2282
sbasg568
I86
sg51
g1654
sbsg1749
(iconstruction
TP_SYNFORM
p2283
(dp2284
g568
I87
sg1752
(lp2285
(iconstruction
TP_SLOT
p2286
(dp2287
g1756
(lp2288
VNP
p2289
aVN
p2290
asg1759
I0
sg568
I98
sg51
g2221
sba(iconstruction
TP_SLOT
p2291
(dp2292
g1756
(lp2293
VVP
p2294
aVV
p2295
asg1759
I1
sg568
I99
sg51
g2225
sba(iconstruction
TP_SLOT
p2296
(dp2297
g1756
(lp2298
VNP
p2299
aVN
p2300
asg1759
I2
sg568
I100
sg51
g2227
sba(iconstruction
TP_PHON
p2301
(dp2302
g1762
I2
sg1759
I3
sg568
I101
sg1763
Vto
p2303
sg51
VS4_101
p2304
sba(iconstruction
TP_SLOT
p2305
(dp2306
g1756
(lp2307
VNP
p2308
aVN
p2309
asg1759
I4
sg568
I102
sg51
g2223
sbasg51
g1654
sbsg1770
I1
sba(iconstruction
CXN
p2310
(dp2311
g1712
(iconstruction
TP_SYMLINKS
p2312
(dp2313
g1715
(dp2314
VATTR_108
p2315
VS3_113
p2316
sVENT_107
p2317
VS1_111
p2318
ssg568
I105
sg51
g1654
sbsg1721
VS
p2319
sg1723
I2
sg51
VSPA
p2320
sg1724
(iconstruction
TP_SEMFRAME
p2321
(dp2322
g81
g0
(g82
g2
Ntp2323
Rp2324
(dp2325
g86
(dp2326
(iconstruction
TP_NODE
p2327
(dp2328
g1733
I00
sg70
g726
sg51
g2317
sg1734
I01
sg1735
I01
sg568
I107
sb(dp2329
g1734
I01
sg70
g726
ss(iconstruction
TP_NODE
p2330
(dp2331
g1733
I00
sg70
g627
sg51
g2315
sg1734
I00
sg1735
I00
sg568
I108
sb(dp2332
g1734
I00
sg70
g627
ss(iconstruction
TP_NODE
p2333
(dp2334
g1733
I01
sg70
g723
sg51
VEVT_106
p2335
sg1734
I01
sg1735
I00
sg568
I106
sb(dp2336
g1734
I01
sg70
g723
sssg269
g270
sg271
g270
sg272
(dp2337
g2327
(dp2338
sg2330
(dp2339
sg2333
(dp2340
g2327
(dp2341
g70
g717
ssg2330
(dp2342
g70
g675
ssssg466
g2337
sg81
(dp2343
sg468
g270
sg469
g2337
sg470
(dp2344
g2327
(dp2345
g2333
g2341
ssg2330
(dp2346
g2333
g2342
ssg2333
(dp2347
ssbsg563
(lp2348
g2333
ag2327
ag2330
asg836
(lp2349
(iconstruction
TP_REL
p2350
(dp2351
g842
g2327
sg70
g717
sg568
I109
sg843
g2333
sg51
VIS_109
p2352
sba(iconstruction
TP_REL
p2353
(dp2354
g842
g2330
sg70
g675
sg568
I110
sg843
g2333
sg51
VEVT_ATTR_110
p2355
sbasg568
I103
sg51
g1654
sbsg1749
(iconstruction
TP_SYNFORM
p2356
(dp2357
g568
I104
sg1752
(lp2358
(iconstruction
TP_SLOT
p2359
(dp2360
g1756
(lp2361
VNP
p2362
aVN
p2363
asg1759
I0
sg568
I111
sg51
g2318
sba(iconstruction
TP_PHON
p2364
(dp2365
g1762
I2
sg1759
I1
sg568
I112
sg1763
Vis
p2366
sg51
VS2_112
p2367
sba(iconstruction
TP_SLOT
p2368
(dp2369
g1756
(lp2370
VA
p2371
asg1759
I2
sg568
I113
sg51
g2316
sbasg51
g1654
sbsg1770
I1
sba(iconstruction
CXN
p2372
(dp2373
g1712
(iconstruction
TP_SYMLINKS
p2374
(dp2375
g1715
(dp2376
VAGT_119
p2377
VS1_122
p2378
sVACT_118
p2379
VS2_123
p2380
ssg568
I116
sg51
g1654
sbsg1721
VS
p2381
sg1723
I2
sg51
VSV
p2382
sg1724
(iconstruction
TP_SEMFRAME
p2383
(dp2384
g81
g0
(g82
g2
Ntp2385
Rp2386
(dp2387
g86
(dp2388
(iconstruction
TP_NODE
p2389
(dp2390
g1733
I00
sg70
g582
sg51
g2379
sg1734
I01
sg1735
I00
sg568
I118
sb(dp2391
g1734
I01
sg70
g582
ss(iconstruction
TP_NODE
p2392
(dp2393
g1733
I00
sg70
g726
sg51
g2377
sg1734
I01
sg1735
I01
sg568
I119
sb(dp2394
g1734
I01
sg70
g726
ss(iconstruction
TP_NODE
p2395
(dp2396
g1733
I01
sg70
g723
sg51
VEVT_117
p2397
sg1734
I01
sg1735
I00
sg568
I117
sb(dp2398
g1734
I01
sg70
g723
sssg269
g270
sg271
g270
sg272
(dp2399
g2389
(dp2400
g2392
(dp2401
g70
g696
sssg2392
(dp2402
sg2395
(dp2403
g2389
(dp2404
g70
g717
ssssg466
g2399
sg81
(dp2405
sg468
g270
sg469
g2399
sg470
(dp2406
g2389
(dp2407
g2395
g2404
ssg2392
(dp2408
g2389
g2401
ssg2395
(dp2409
ssbsg563
(lp2410
g2395
ag2389
ag2392
asg836
(lp2411
(iconstruction
TP_REL
p2412
(dp2413
g842
g2389
sg70
g717
sg568
I120
sg843
g2395
sg51
VIS_120
p2414
sba(iconstruction
TP_REL
p2415
(dp2416
g842
g2392
sg70
g696
sg568
I121
sg843
g2389
sg51
VACT_AGT_121
p2417
sbasg568
I114
sg51
g1654
sbsg1749
(iconstruction
TP_SYNFORM
p2418
(dp2419
g568
I115
sg1752
(lp2420
(iconstruction
TP_SLOT
p2421
(dp2422
g1756
(lp2423
VNP
p2424
aVN
p2425
asg1759
I0
sg568
I122
sg51
g2378
sba(iconstruction
TP_SLOT
p2426
(dp2427
g1756
(lp2428
VVP
p2429
aVV
p2430
asg1759
I1
sg568
I123
sg51
g2380
sbasg51
g1654
sbsg1770
I1
sba(iconstruction
CXN
p2431
(dp2432
g1712
(iconstruction
TP_SYMLINKS
p2433
(dp2434
g1715
(dp2435
VEVT_127
p2436
VS1_130
p2437
sVPLACE_128
p2438
VS3_132
p2439
ssg568
I126
sg51
g1654
sbsg1721
VS
p2440
sg1723
I2
sg51
VPP_IN
p2441
sg1724
(iconstruction
TP_SEMFRAME
p2442
(dp2443
g81
g0
(g82
g2
Ntp2444
Rp2445
(dp2446
g86
(dp2447
(iconstruction
TP_NODE
p2448
(dp2449
g1733
I00
sg70
g726
sg51
g2438
sg1734
I01
sg1735
I00
sg568
I128
sb(dp2450
g1734
I01
sg70
g726
ss(iconstruction
TP_NODE
p2451
(dp2452
g1733
I01
sg70
g723
sg51
g2436
sg1734
I01
sg1735
I00
sg568
I127
sb(dp2453
g1734
I01
sg70
g723
sssg269
g270
sg271
g270
sg272
(dp2454
g2448
(dp2455
sg2451
(dp2456
g2448
(dp2457
g70
g714
ssssg466
g2454
sg81
(dp2458
sg468
g270
sg469
g2454
sg470
(dp2459
g2448
(dp2460
g2451
g2457
ssg2451
(dp2461
ssbsg563
(lp2462
g2451
ag2448
asg836
(lp2463
(iconstruction
TP_REL
p2464
(dp2465
g842
g2448
sg70
g714
sg568
I129
sg843
g2451
sg51
VEVT_PP_129
p2466
sbasg568
I124
sg51
g1654
sbsg1749
(iconstruction
TP_SYNFORM
p2467
(dp2468
g568
I125
sg1752
(lp2469
(iconstruction
TP_SLOT
p2470
(dp2471
g1756
(lp2472
VS
p2473
asg1759
I0
sg568
I130
sg51
g2437
sba(iconstruction
TP_PHON
p2474
(dp2475
g1762
I2
sg1759
I1
sg568
I131
sg1763
Vin
p2476
sg51
VS2_131
p2477
sba(iconstruction
TP_SLOT
p2478
(dp2479
g1756
(lp2480
VNP
p2481
aVN
p2482
asg1759
I2
sg568
I132
sg51
g2439
sbasg51
g1654
sbsg1770
I1
sba(iconstruction
CXN
p2483
(dp2484
g1712
(iconstruction
TP_SYMLINKS
p2485
(dp2486
g1715
(dp2487
VEVT2_137
p2488
VS2_140
p2489
sVEVT1_136
p2490
VS1_139
p2491
ssg568
I135
sg51
g1654
sbsg1721
VS
p2492
sg1723
I2
sg51
VS_PP
p2493
sg1724
(iconstruction
TP_SEMFRAME
p2494
(dp2495
g81
g0
(g82
g2
Ntp2496
Rp2497
(dp2498
g86
(dp2499
(iconstruction
TP_NODE
p2500
(dp2501
g1733
I01
sg70
g723
sg51
g2490
sg1734
I01
sg1735
I01
sg568
I136
sb(dp2502
g1734
I01
sg70
g723
ss(iconstruction
TP_NODE
p2503
(dp2504
g1733
I00
sg70
g723
sg51
g2488
sg1734
I01
sg1735
I00
sg568
I137
sb(dp2505
g1734
I01
sg70
g723
sssg269
g270
sg271
g270
sg272
(dp2506
g2500
(dp2507
g2503
(dp2508
g70
g675
sssg2503
(dp2509
ssg466
g2506
sg81
(dp2510
sg468
g270
sg469
g2506
sg470
(dp2511
g2500
(dp2512
sg2503
(dp2513
g2500
g2508
sssbsg563
(lp2514
g2500
ag2503
asg836
(lp2515
(iconstruction
TP_REL
p2516
(dp2517
g842
g2503
sg70
g675
sg568
I138
sg843
g2500
sg51
VMOD_138
p2518
sbasg568
I133
sg51
g1654
sbsg1749
(iconstruction
TP_SYNFORM
p2519
(dp2520
g568
I134
sg1752
(lp2521
(iconstruction
TP_SLOT
p2522
(dp2523
g1756
(lp2524
VS
p2525
asg1759
I0
sg568
I139
sg51
g2491
sba(iconstruction
TP_SLOT
p2526
(dp2527
g1756
(lp2528
VPP
p2529
asg1759
I1
sg568
I140
sg51
g2489
sbasg51
g1654
sbsg1770
I1
sba(iconstruction
CXN
p2530
(dp2531
g1712
(iconstruction
TP_SYMLINKS
p2532
(dp2533
g1715
(dp2534
VENT_144
p2535
VS2_148
p2536
sVATTR_145
p2537
VS1_147
p2538
ssg568
I143
sg51
g1654
sbsg1721
VN
p2539
sg1723
I2
sg51
VADJUNCT_N
p2540
sg1724
(iconstruction
TP_SEMFRAME
p2541
(dp2542
g81
g0
(g82
g2
Ntp2543
Rp2544
(dp2545
g86
(dp2546
(iconstruction
TP_NODE
p2547
(dp2548
g1733
I01
sg70
g726
sg51
g2535
sg1734
I01
sg1735
I00
sg568
I144
sb(dp2549
g1734
I01
sg70
g726
ss(iconstruction
TP_NODE
p2550
(dp2551
g1733
I00
sg70
g627
sg51
g2537
sg1734
I00
sg1735
I00
sg568
I145
sb(dp2552
g1734
I00
sg70
g627
sssg269
g270
sg271
g270
sg272
(dp2553
g2547
(dp2554
g2550
(dp2555
g70
g675
sssg2550
(dp2556
ssg466
g2553
sg81
(dp2557
sg468
g270
sg469
g2553
sg470
(dp2558
g2547
(dp2559
sg2550
(dp2560
g2547
g2555
sssbsg563
(lp2561
g2547
ag2550
asg836
(lp2562
(iconstruction
TP_REL
p2563
(dp2564
g842
g2550
sg70
g675
sg568
I146
sg843
g2547
sg51
VENT_ATTR_146
p2565
sbasg568
I141
sg51
g1654
sbsg1749
(iconstruction
TP_SYNFORM
p2566
(dp2567
g568
I142
sg1752
(lp2568
(iconstruction
TP_SLOT
p2569
(dp2570
g1756
(lp2571
VA
p2572
asg1759
I0
sg568
I147
sg51
g2538
sba(iconstruction
TP_SLOT
p2573
(dp2574
g1756
(lp2575
VN
p2576
asg1759
I1
sg568
I148
sg51
g2536
sbasg51
g1654
sbsg1770
I1
sba(iconstruction
CXN
p2577
(dp2578
g1712
(iconstruction
TP_SYMLINKS
p2579
(dp2580
g1715
(dp2581
VAGT_154
p2582
VS1_160
p2583
sVACT_153
p2584
VS3_162
p2585
sVPT_155
p2586
VS4_163
p2587
ssg568
I151
sg51
g1654
sbsg1721
VN
p2588
sg1723
I2
sg51
VSUBJ_REL_SVO
p2589
sg1724
(iconstruction
TP_SEMFRAME
p2590
(dp2591
g81
g0
(g82
g2
Ntp2592
Rp2593
(dp2594
g86
(dp2595
(iconstruction
TP_NODE
p2596
(dp2597
g1733
I00
sg70
g723
sg51
VEVT_152
p2598
sg1734
I01
sg1735
I00
sg568
I152
sb(dp2599
g1734
I01
sg70
g723
ss(iconstruction
TP_NODE
p2600
(dp2601
g1733
I01
sg70
g726
sg51
g2582
sg1734
I01
sg1735
I00
sg568
I154
sb(dp2602
g1734
I01
sg70
g726
ss(iconstruction
TP_NODE
p2603
(dp2604
g1733
I00
sg70
g588
sg51
g2584
sg1734
I01
sg1735
I01
sg568
I153
sb(dp2605
g1734
I01
sg70
g588
ss(iconstruction
TP_NODE
p2606
(dp2607
g1733
I00
sg70
g726
sg51
g2586
sg1734
I01
sg1735
I00
sg568
I155
sb(dp2608
g1734
I01
sg70
g726
sssg269
g270
sg271
g270
sg272
(dp2609
g2596
(dp2610
g2603
(dp2611
g70
g717
sssg2600
(dp2612
g2596
(dp2613
g70
g675
sssg2603
(dp2614
g2600
(dp2615
g70
g696
ssg2606
(dp2616
g70
g690
sssg2606
(dp2617
ssg466
g2609
sg81
(dp2618
sg468
g270
sg469
g2609
sg470
(dp2619
g2596
(dp2620
g2600
g2613
ssg2600
(dp2621
g2603
g2615
ssg2603
(dp2622
g2596
g2611
ssg2606
(dp2623
g2603
g2616
sssbsg563
(lp2624
g2596
ag2603
ag2600
ag2606
asg836
(lp2625
(iconstruction
TP_REL
p2626
(dp2627
g842
g2603
sg70
g717
sg568
I156
sg843
g2596
sg51
VIS_156
p2628
sba(iconstruction
TP_REL
p2629
(dp2630
g842
g2600
sg70
g696
sg568
I157
sg843
g2603
sg51
VACT_AGT_157
p2631
sba(iconstruction
TP_REL
p2632
(dp2633
g842
g2606
sg70
g690
sg568
I158
sg843
g2603
sg51
VACT_PT_158
p2634
sba(iconstruction
TP_REL
p2635
(dp2636
g842
g2596
sg70
g675
sg568
I159
sg843
g2600
sg51
VAGT_EVT_159
p2637
sbasg568
I149
sg51
g1654
sbsg1749
(iconstruction
TP_SYNFORM
p2638
(dp2639
g568
I150
sg1752
(lp2640
(iconstruction
TP_SLOT
p2641
(dp2642
g1756
(lp2643
VN
p2644
asg1759
I0
sg568
I160
sg51
g2583
sba(iconstruction
TP_PHON
p2645
(dp2646
g1762
I4
sg1759
I1
sg568
I161
sg1763
Vthat
p2647
sg51
VS2_161
p2648
sba(iconstruction
TP_SLOT
p2649
(dp2650
g1756
(lp2651
VVP
p2652
aVV
p2653
asg1759
I2
sg568
I162
sg51
g2585
sba(iconstruction
TP_SLOT
p2654
(dp2655
g1756
(lp2656
VNP
p2657
aVN
p2658
asg1759
I3
sg568
I163
sg51
g2587
sbasg51
g1654
sbsg1770
I1
sba(iconstruction
CXN
p2659
(dp2660
g1712
(iconstruction
TP_SYMLINKS
p2661
(dp2662
g1715
(dp2663
VAGT_169
p2664
VS1_173
p2665
sVACT_168
p2666
VS3_175
p2667
ssg568
I166
sg51
g1654
sbsg1721
VN
p2668
sg1723
I2
sg51
VSUBJ_REL_SV
p2669
sg1724
(iconstruction
TP_SEMFRAME
p2670
(dp2671
g81
g0
(g82
g2
Ntp2672
Rp2673
(dp2674
g86
(dp2675
(iconstruction
TP_NODE
p2676
(dp2677
g1733
I00
sg70
g723
sg51
VEVT_167
p2678
sg1734
I01
sg1735
I00
sg568
I167
sb(dp2679
g1734
I01
sg70
g723
ss(iconstruction
TP_NODE
p2680
(dp2681
g1733
I01
sg70
g726
sg51
g2664
sg1734
I01
sg1735
I00
sg568
I169
sb(dp2682
g1734
I01
sg70
g726
ss(iconstruction
TP_NODE
p2683
(dp2684
g1733
I00
sg70
g570
sg51
g2666
sg1734
I01
sg1735
I01
sg568
I168
sb(dp2685
g1734
I01
sg70
g570
sssg269
g270
sg271
g270
sg272
(dp2686
g2676
(dp2687
g2683
(dp2688
g70
g717
sssg2680
(dp2689
g2676
(dp2690
g70
g675
sssg2683
(dp2691
g2680
(dp2692
g70
g696
ssssg466
g2686
sg81
(dp2693
sg468
g270
sg469
g2686
sg470
(dp2694
g2676
(dp2695
g2680
g2690
ssg2680
(dp2696
g2683
g2692
ssg2683
(dp2697
g2676
g2688
sssbsg563
(lp2698
g2676
ag2683
ag2680
asg836
(lp2699
(iconstruction
TP_REL
p2700
(dp2701
g842
g2683
sg70
g717
sg568
I170
sg843
g2676
sg51
VIS_170
p2702
sba(iconstruction
TP_REL
p2703
(dp2704
g842
g2680
sg70
g696
sg568
I171
sg843
g2683
sg51
VACT_AGT_171
p2705
sba(iconstruction
TP_REL
p2706
(dp2707
g842
g2676
sg70
g675
sg568
I172
sg843
g2680
sg51
VAGT_EVT_172
p2708
sbasg568
I164
sg51
g1654
sbsg1749
(iconstruction
TP_SYNFORM
p2709
(dp2710
g568
I165
sg1752
(lp2711
(iconstruction
TP_SLOT
p2712
(dp2713
g1756
(lp2714
VN
p2715
asg1759
I0
sg568
I173
sg51
g2665
sba(iconstruction
TP_PHON
p2716
(dp2717
g1762
I4
sg1759
I1
sg568
I174
sg1763
Vthat
p2718
sg51
VS2_174
p2719
sba(iconstruction
TP_SLOT
p2720
(dp2721
g1756
(lp2722
VVP
p2723
aVV
p2724
asg1759
I2
sg568
I175
sg51
g2667
sbasg51
g1654
sbsg1770
I1
sba(iconstruction
CXN
p2725
(dp2726
g1712
(iconstruction
TP_SYMLINKS
p2727
(dp2728
g1715
(dp2729
VAGT_181
p2730
VS7_193
p2731
sVPT_182
p2732
VS1_187
p2733
sVACT_180
p2734
VS4_190
p2735
ssg568
I178
sg51
g1654
sbsg1721
VN
p2736
sg1723
I2
sg51
VSUBJ_REL_PAS_SVO
p2737
sg1724
(iconstruction
TP_SEMFRAME
p2738
(dp2739
g81
g0
(g82
g2
Ntp2740
Rp2741
(dp2742
g86
(dp2743
(iconstruction
TP_NODE
p2744
(dp2745
g1733
I00
sg70
g723
sg51
VEVT_179
p2746
sg1734
I01
sg1735
I00
sg568
I179
sb(dp2747
g1734
I01
sg70
g723
ss(iconstruction
TP_NODE
p2748
(dp2749
g1733
I00
sg70
g726
sg51
g2730
sg1734
I01
sg1735
I00
sg568
I181
sb(dp2750
g1734
I01
sg70
g726
ss(iconstruction
TP_NODE
p2751
(dp2752
g1733
I01
sg70
g726
sg51
g2732
sg1734
I01
sg1735
I00
sg568
I182
sb(dp2753
g1734
I01
sg70
g726
ss(iconstruction
TP_NODE
p2754
(dp2755
g1733
I00
sg70
g570
sg51
g2734
sg1734
I01
sg1735
I01
sg568
I180
sb(dp2756
g1734
I01
sg70
g570
sssg269
g270
sg271
g270
sg272
(dp2757
g2744
(dp2758
g2754
(dp2759
g70
g717
sssg2748
(dp2760
sg2751
(dp2761
g2744
(dp2762
g70
g675
sssg2754
(dp2763
g2748
(dp2764
g70
g696
ssg2751
(dp2765
g70
g690
ssssg466
g2757
sg81
(dp2766
sg468
g270
sg469
g2757
sg470
(dp2767
g2744
(dp2768
g2751
g2762
ssg2748
(dp2769
g2754
g2764
ssg2751
(dp2770
g2754
g2765
ssg2754
(dp2771
g2744
g2759
sssbsg563
(lp2772
g2744
ag2754
ag2748
ag2751
asg836
(lp2773
(iconstruction
TP_REL
p2774
(dp2775
g842
g2754
sg70
g717
sg568
I183
sg843
g2744
sg51
VIS_183
p2776
sba(iconstruction
TP_REL
p2777
(dp2778
g842
g2748
sg70
g696
sg568
I184
sg843
g2754
sg51
VACT_AGT_184
p2779
sba(iconstruction
TP_REL
p2780
(dp2781
g842
g2751
sg70
g690
sg568
I185
sg843
g2754
sg51
VACT_PT_185
p2782
sba(iconstruction
TP_REL
p2783
(dp2784
g842
g2744
sg70
g675
sg568
I186
sg843
g2751
sg51
VPT_EVT_186
p2785
sbasg568
I176
sg51
g1654
sbsg1749
(iconstruction
TP_SYNFORM
p2786
(dp2787
g568
I177
sg1752
(lp2788
(iconstruction
TP_SLOT
p2789
(dp2790
g1756
(lp2791
VN
p2792
asg1759
I0
sg568
I187
sg51
g2733
sba(iconstruction
TP_PHON
p2793
(dp2794
g1762
I4
sg1759
I1
sg568
I188
sg1763
Vthat
p2795
sg51
VS2_188
p2796
sba(iconstruction
TP_PHON
p2797
(dp2798
g1762
I2
sg1759
I2
sg568
I189
sg1763
Vis
p2799
sg51
VS3_189
p2800
sba(iconstruction
TP_SLOT
p2801
(dp2802
g1756
(lp2803
VVP
p2804
aVV
p2805
asg1759
I3
sg568
I190
sg51
g2735
sba(iconstruction
TP_PHON
p2806
(dp2807
g1762
I2
sg1759
I4
sg568
I191
sg1763
V-ed
p2808
sg51
VS5_191
p2809
sba(iconstruction
TP_PHON
p2810
(dp2811
g1762
I2
sg1759
I5
sg568
I192
sg1763
Vby
p2812
sg51
VS6_192
p2813
sba(iconstruction
TP_SLOT
p2814
(dp2815
g1756
(lp2816
VNP
p2817
aVN
p2818
asg1759
I6
sg568
I193
sg51
g2731
sbasg51
g1654
sbsg1770
I1
sba(iconstruction
CXN
p2819
(dp2820
g1712
(iconstruction
TP_SYMLINKS
p2821
(dp2822
g1715
(dp2823
VAGT_199
p2824
VS3_207
p2825
sVACT_198
p2826
VS4_208
p2827
sVPT_200
p2828
VS1_205
p2829
ssg568
I196
sg51
g1654
sbsg1721
VN
p2830
sg1723
I2
sg51
VOBJ_REL_SVO
p2831
sg1724
(iconstruction
TP_SEMFRAME
p2832
(dp2833
g81
g0
(g82
g2
Ntp2834
Rp2835
(dp2836
g86
(dp2837
(iconstruction
TP_NODE
p2838
(dp2839
g1733
I00
sg70
g723
sg51
VEVT_197
p2840
sg1734
I01
sg1735
I00
sg568
I197
sb(dp2841
g1734
I01
sg70
g723
ss(iconstruction
TP_NODE
p2842
(dp2843
g1733
I00
sg70
g726
sg51
g2824
sg1734
I01
sg1735
I00
sg568
I199
sb(dp2844
g1734
I01
sg70
g726
ss(iconstruction
TP_NODE
p2845
(dp2846
g1733
I01
sg70
g726
sg51
g2828
sg1734
I01
sg1735
I00
sg568
I200
sb(dp2847
g1734
I01
sg70
g726
ss(iconstruction
TP_NODE
p2848
(dp2849
g1733
I00
sg70
g570
sg51
g2826
sg1734
I01
sg1735
I01
sg568
I198
sb(dp2850
g1734
I01
sg70
g570
sssg269
g270
sg271
g270
sg272
(dp2851
g2838
(dp2852
g2848
(dp2853
g70
g717
sssg2842
(dp2854
sg2845
(dp2855
g2838
(dp2856
g70
g675
sssg2848
(dp2857
g2842
(dp2858
g70
g696
ssg2845
(dp2859
g70
g690
ssssg466
g2851
sg81
(dp2860
sg468
g270
sg469
g2851
sg470
(dp2861
g2838
(dp2862
g2845
g2856
ssg2842
(dp2863
g2848
g2858
ssg2845
(dp2864
g2848
g2859
ssg2848
(dp2865
g2838
g2853
sssbsg563
(lp2866
g2838
ag2848
ag2842
ag2845
asg836
(lp2867
(iconstruction
TP_REL
p2868
(dp2869
g842
g2848
sg70
g717
sg568
I201
sg843
g2838
sg51
VIS_201
p2870
sba(iconstruction
TP_REL
p2871
(dp2872
g842
g2842
sg70
g696
sg568
I202
sg843
g2848
sg51
VACT_AGT_202
p2873
sba(iconstruction
TP_REL
p2874
(dp2875
g842
g2845
sg70
g690
sg568
I203
sg843
g2848
sg51
VACT_PT_203
p2876
sba(iconstruction
TP_REL
p2877
(dp2878
g842
g2838
sg70
g675
sg568
I204
sg843
g2845
sg51
VPT_EVT_204
p2879
sbasg568
I194
sg51
g1654
sbsg1749
(iconstruction
TP_SYNFORM
p2880
(dp2881
g568
I195
sg1752
(lp2882
(iconstruction
TP_SLOT
p2883
(dp2884
g1756
(lp2885
VN
p2886
asg1759
I0
sg568
I205
sg51
g2829
sba(iconstruction
TP_PHON
p2887
(dp2888
g1762
I4
sg1759
I1
sg568
I206
sg1763
Vthat
p2889
sg51
VS2_206
p2890
sba(iconstruction
TP_SLOT
p2891
(dp2892
g1756
(lp2893
VNP
p2894
aVN
p2895
asg1759
I2
sg568
I207
sg51
g2825
sba(iconstruction
TP_SLOT
p2896
(dp2897
g1756
(lp2898
VVP
p2899
aVV
p2900
asg1759
I3
sg568
I208
sg51
g2827
sbasg51
g1654
sbsg1770
I1
sba(iconstruction
CXN
p2901
(dp2902
g1712
(iconstruction
TP_SYMLINKS
p2903
(dp2904
g1715
(dp2905
VPT_215
p2906
VS3_222
p2907
sVACT_213
p2908
VS5_224
p2909
sVAGT_214
p2910
VS1_220
p2911
ssg568
I211
sg51
g1654
sbsg1721
VN
p2912
sg1723
I2
sg51
VOBJ_REL_PAS_SVO
p2913
sg1724
(iconstruction
TP_SEMFRAME
p2914
(dp2915
g81
g0
(g82
g2
Ntp2916
Rp2917
(dp2918
g86
(dp2919
(iconstruction
TP_NODE
p2920
(dp2921
g1733
I00
sg70
g723
sg51
VEVT_212
p2922
sg1734
I01
sg1735
I00
sg568
I212
sb(dp2923
g1734
I01
sg70
g723
ss(iconstruction
TP_NODE
p2924
(dp2925
g1733
I01
sg70
g726
sg51
g2910
sg1734
I01
sg1735
I00
sg568
I214
sb(dp2926
g1734
I01
sg70
g726
ss(iconstruction
TP_NODE
p2927
(dp2928
g1733
I00
sg70
g570
sg51
g2908
sg1734
I01
sg1735
I01
sg568
I213
sb(dp2929
g1734
I01
sg70
g570
ss(iconstruction
TP_NODE
p2930
(dp2931
g1733
I00
sg70
g726
sg51
g2906
sg1734
I01
sg1735
I00
sg568
I215
sb(dp2932
g1734
I01
sg70
g726
sssg269
g270
sg271
g270
sg272
(dp2933
g2920
(dp2934
g2927
(dp2935
g70
g717
sssg2924
(dp2936
g2920
(dp2937
g70
g675
sssg2927
(dp2938
g2924
(dp2939
g70
g696
ssg2930
(dp2940
g70
g690
sssg2930
(dp2941
ssg466
g2933
sg81
(dp2942
sg468
g270
sg469
g2933
sg470
(dp2943
g2920
(dp2944
g2924
g2937
ssg2924
(dp2945
g2927
g2939
ssg2927
(dp2946
g2920
g2935
ssg2930
(dp2947
g2927
g2940
sssbsg563
(lp2948
g2920
ag2927
ag2924
ag2930
asg836
(lp2949
(iconstruction
TP_REL
p2950
(dp2951
g842
g2927
sg70
g717
sg568
I216
sg843
g2920
sg51
VIS_216
p2952
sba(iconstruction
TP_REL
p2953
(dp2954
g842
g2924
sg70
g696
sg568
I217
sg843
g2927
sg51
VACT_AGT_217
p2955
sba(iconstruction
TP_REL
p2956
(dp2957
g842
g2930
sg70
g690
sg568
I218
sg843
g2927
sg51
VACT_PT_218
p2958
sba(iconstruction
TP_REL
p2959
(dp2960
g842
g2920
sg70
g675
sg568
I219
sg843
g2924
sg51
VAGT_EVT_219
p2961
sbasg568
I209
sg51
g1654
sbsg1749
(iconstruction
TP_SYNFORM
p2962
(dp2963
g568
I210
sg1752
(lp2964
(iconstruction
TP_SLOT
p2965
(dp2966
g1756
(lp2967
VN
p2968
asg1759
I0
sg568
I220
sg51
g2911
sba(iconstruction
TP_PHON
p2969
(dp2970
g1762
I4
sg1759
I1
sg568
I221
sg1763
Vthat
p2971
sg51
VS2_221
p2972
sba(iconstruction
TP_SLOT
p2973
(dp2974
g1756
(lp2975
VNP
p2976
aVN
p2977
asg1759
I2
sg568
I222
sg51
g2907
sba(iconstruction
TP_PHON
p2978
(dp2979
g1762
I2
sg1759
I3
sg568
I223
sg1763
Vis
p2980
sg51
VS4_223
p2981
sba(iconstruction
TP_SLOT
p2982
(dp2983
g1756
(lp2984
VVP
p2985
aVV
p2986
asg1759
I4
sg568
I224
sg51
g2909
sba(iconstruction
TP_PHON
p2987
(dp2988
g1762
I2
sg1759
I5
sg568
I225
sg1763
V-ed
p2989
sg51
VS6_225
p2990
sba(iconstruction
TP_PHON
p2991
(dp2992
g1762
I2
sg1759
I6
sg568
I226
sg1763
Vby
p2993
sg51
VS7_226
p2994
sbasg51
g1654
sbsg1770
I1
sba(iconstruction
CXN
p2995
(dp2996
g1712
(iconstruction
TP_SYMLINKS
p2997
(dp2998
g1715
(dp2999
VATTR_232
p3000
VS4_238
p3001
sVENT_231
p3002
VS1_235
p3003
ssg568
I229
sg51
g1654
sbsg1721
VN
p3004
sg1723
I2
sg51
VREL_SPA
p3005
sg1724
(iconstruction
TP_SEMFRAME
p3006
(dp3007
g81
g0
(g82
g2
Ntp3008
Rp3009
(dp3010
g86
(dp3011
(iconstruction
TP_NODE
p3012
(dp3013
g1733
I00
sg70
g723
sg51
VEVT_230
p3014
sg1734
I01
sg1735
I00
sg568
I230
sb(dp3015
g1734
I01
sg70
g723
ss(iconstruction
TP_NODE
p3016
(dp3017
g1733
I00
sg70
g627
sg51
g3000
sg1734
I00
sg1735
I00
sg568
I232
sb(dp3018
g1734
I00
sg70
g627
ss(iconstruction
TP_NODE
p3019
(dp3020
g1733
I01
sg70
g726
sg51
g3002
sg1734
I01
sg1735
I01
sg568
I231
sb(dp3021
g1734
I01
sg70
g726
sssg269
g270
sg271
g270
sg272
(dp3022
g3012
(dp3023
g3016
(dp3024
g70
g675
ssg3019
(dp3025
g70
g717
sssg3016
(dp3026
sg3019
(dp3027
ssg466
g3022
sg81
(dp3028
sg468
g270
sg469
g3022
sg470
(dp3029
g3012
(dp3030
sg3016
(dp3031
g3012
g3024
ssg3019
(dp3032
g3012
g3025
sssbsg563
(lp3033
g3012
ag3019
ag3016
asg836
(lp3034
(iconstruction
TP_REL
p3035
(dp3036
g842
g3019
sg70
g717
sg568
I233
sg843
g3012
sg51
VIS_233
p3037
sba(iconstruction
TP_REL
p3038
(dp3039
g842
g3016
sg70
g675
sg568
I234
sg843
g3012
sg51
VEVT_ATTR_234
p3040
sbasg568
I227
sg51
g1654
sbsg1749
(iconstruction
TP_SYNFORM
p3041
(dp3042
g568
I228
sg1752
(lp3043
(iconstruction
TP_SLOT
p3044
(dp3045
g1756
(lp3046
VN
p3047
asg1759
I0
sg568
I235
sg51
g3003
sba(iconstruction
TP_PHON
p3048
(dp3049
g1762
I4
sg1759
I1
sg568
I236
sg1763
Vthat
p3050
sg51
VS2_236
p3051
sba(iconstruction
TP_PHON
p3052
(dp3053
g1762
I2
sg1759
I2
sg568
I237
sg1763
Vis
p3054
sg51
VS3_237
p3055
sba(iconstruction
TP_SLOT
p3056
(dp3057
g1756
(lp3058
VA
p3059
asg1759
I3
sg568
I238
sg51
g3001
sbasg51
g1654
sbsg1770
I1
sba(iconstruction
CXN
p3060
(dp3061
g1712
(iconstruction
TP_SYMLINKS
p3062
(dp3063
g1715
(dp3064
VAGT_244
p3065
VS1_251
p3066
sVCOLOR_246
p3067
VS3_253
p3068
ssg568
I241
sg51
g1654
sbsg1721
VN
p3069
sg1723
I2
sg51
VIN_COLOR
p3070
sg1724
(iconstruction
TP_SEMFRAME
p3071
(dp3072
g81
g0
(g82
g2
Ntp3073
Rp3074
(dp3075
g86
(dp3076
(iconstruction
TP_NODE
p3077
(dp3078
g1733
I00
sg70
g723
sg51
VEVT_242
p3079
sg1734
I01
sg1735
I00
sg568
I242
sb(dp3080
g1734
I01
sg70
g723
ss(iconstruction
TP_NODE
p3081
(dp3082
g1733
I01
sg70
g735
sg51
g3065
sg1734
I01
sg1735
I00
sg568
I244
sb(dp3083
g1734
I01
sg70
g735
ss(iconstruction
TP_NODE
p3084
(dp3085
g1733
I00
sg70
g615
sg51
VACT_243
p3086
sg1734
I01
sg1735
I00
sg568
I243
sb(dp3087
g1734
I01
sg70
g615
ss(iconstruction
TP_NODE
p3088
(dp3089
g1733
I00
sg70
g630
sg51
g3067
sg1734
I00
sg1735
I01
sg568
I246
sb(dp3090
g1734
I00
sg70
g630
ss(iconstruction
TP_NODE
p3091
(dp3092
g1733
I00
sg70
g765
sg51
VPT_245
p3093
sg1734
I01
sg1735
I00
sg568
I245
sb(dp3094
g1734
I01
sg70
g765
sssg269
g270
sg271
g270
sg272
(dp3095
g3077
(dp3096
g3084
(dp3097
g70
g717
sssg3081
(dp3098
sg3084
(dp3099
g3081
(dp3100
g70
g696
ssg3091
(dp3101
g70
g690
sssg3088
(dp3102
sg3091
(dp3103
g3088
(dp3104
g70
g675
ssssg466
g3095
sg81
(dp3105
sg468
g270
sg469
g3095
sg470
(dp3106
g3077
(dp3107
sg3081
(dp3108
g3084
g3100
ssg3084
(dp3109
g3077
g3097
ssg3088
(dp3110
g3091
g3104
ssg3091
(dp3111
g3084
g3101
sssbsg563
(lp3112
g3077
ag3084
ag3081
ag3091
ag3088
asg836
(lp3113
(iconstruction
TP_REL
p3114
(dp3115
g842
g3084
sg70
g717
sg568
I247
sg843
g3077
sg51
VIS_247
p3116
sba(iconstruction
TP_REL
p3117
(dp3118
g842
g3081
sg70
g696
sg568
I248
sg843
g3084
sg51
VACT_AGT_248
p3119
sba(iconstruction
TP_REL
p3120
(dp3121
g842
g3091
sg70
g690
sg568
I249
sg843
g3084
sg51
VACT_PT_249
p3122
sba(iconstruction
TP_REL
p3123
(dp3124
g842
g3088
sg70
g675
sg568
I250
sg843
g3091
sg51
VPT_COLOR_250
p3125
sbasg568
I239
sg51
g1654
sbsg1749
(iconstruction
TP_SYNFORM
p3126
(dp3127
g568
I240
sg1752
(lp3128
(iconstruction
TP_SLOT
p3129
(dp3130
g1756
(lp3131
VN
p3132
asg1759
I0
sg568
I251
sg51
g3066
sba(iconstruction
TP_PHON
p3133
(dp3134
g1762
I2
sg1759
I1
sg568
I252
sg1763
Vin
p3135
sg51
VS2_252
p3136
sba(iconstruction
TP_SLOT
p3137
(dp3138
g1756
(lp3139
VA
p3140
asg1759
I2
sg568
I253
sg51
g3068
sbasg51
g1654
sbsg1770
I1
sba(iconstruction
CXN
p3141
(dp3142
g1712
(iconstruction
TP_SYMLINKS
p3143
(dp3144
g1715
(dp3145
VN1_258
p3146
VS1_260
p3147
ssg568
I256
sg51
g1654
sbsg1721
VV
p3148
sg1723
I1
sg51
VHIT
p3149
sg1724
(iconstruction
TP_SEMFRAME
p3150
(dp3151
g81
g0
(g82
g2
Ntp3152
Rp3153
(dp3154
g86
(dp3155
(iconstruction
TP_NODE
p3156
(dp3157
g1733
I00
sg70
g591
sg51
g3146
sg1734
I00
sg1735
I00
sg568
I258
sb(dp3158
g1734
I00
sg70
g591
ss(iconstruction
TP_NODE
p3159
(dp3160
g1733
I01
sg70
g570
sg51
VACT_257
p3161
sg1734
I01
sg1735
I00
sg568
I257
sb(dp3162
g1734
I01
sg70
g570
sssg269
g270
sg271
g270
sg272
(dp3163
g3156
(dp3164
sg3159
(dp3165
g3156
(dp3166
g70
g717
ssssg466
g3163
sg81
(dp3167
sg468
g270
sg469
g3163
sg470
(dp3168
g3156
(dp3169
g3159
g3166
ssg3159
(dp3170
ssbsg563
(lp3171
g3159
ag3156
asg836
(lp3172
(iconstruction
TP_REL
p3173
(dp3174
g842
g3156
sg70
g717
sg568
I259
sg843
g3159
sg51
VIS_259
p3175
sbasg568
I254
sg51
g1654
sbsg1749
(iconstruction
TP_SYNFORM
p3176
(dp3177
g568
I255
sg1752
(lp3178
(iconstruction
TP_PHON
p3179
(dp3180
g1762
I3
sg1759
I0
sg568
I260
sg1763
Vhit
p3181
sg51
g3147
sbasg51
g1654
sbsg1770
I1
sba(iconstruction
CXN
p3182
(dp3183
g1712
(iconstruction
TP_SYMLINKS
p3184
(dp3185
g1715
(dp3186
VN1_265
p3187
VS1_267
p3188
ssg568
I263
sg51
g1654
sbsg1721
VV
p3189
sg1723
I1
sg51
VKICK
p3190
sg1724
(iconstruction
TP_SEMFRAME
p3191
(dp3192
g81
g0
(g82
g2
Ntp3193
Rp3194
(dp3195
g86
(dp3196
(iconstruction
TP_NODE
p3197
(dp3198
g1733
I00
sg70
g612
sg51
g3187
sg1734
I00
sg1735
I00
sg568
I265
sb(dp3199
g1734
I00
sg70
g612
ss(iconstruction
TP_NODE
p3200
(dp3201
g1733
I01
sg70
g570
sg51
VACT_264
p3202
sg1734
I01
sg1735
I00
sg568
I264
sb(dp3203
g1734
I01
sg70
g570
sssg269
g270
sg271
g270
sg272
(dp3204
g3197
(dp3205
sg3200
(dp3206
g3197
(dp3207
g70
g717
ssssg466
g3204
sg81
(dp3208
sg468
g270
sg469
g3204
sg470
(dp3209
g3197
(dp3210
g3200
g3207
ssg3200
(dp3211
ssbsg563
(lp3212
g3200
ag3197
asg836
(lp3213
(iconstruction
TP_REL
p3214
(dp3215
g842
g3197
sg70
g717
sg568
I266
sg843
g3200
sg51
VIS_266
p3216
sbasg568
I261
sg51
g1654
sbsg1749
(iconstruction
TP_SYNFORM
p3217
(dp3218
g568
I262
sg1752
(lp3219
(iconstruction
TP_PHON
p3220
(dp3221
g1762
I4
sg1759
I0
sg568
I267
sg1763
Vkick
p3222
sg51
g3188
sbasg51
g1654
sbsg1770
I1
sba(iconstruction
CXN
p3223
(dp3224
g1712
(iconstruction
TP_SYMLINKS
p3225
(dp3226
g1715
(dp3227
VN1_272
p3228
VS1_274
p3229
ssg568
I270
sg51
g1654
sbsg1721
VV
p3230
sg1723
I1
sg51
VPUNCH
p3231
sg1724
(iconstruction
TP_SEMFRAME
p3232
(dp3233
g81
g0
(g82
g2
Ntp3234
Rp3235
(dp3236
g86
(dp3237
(iconstruction
TP_NODE
p3238
(dp3239
g1733
I01
sg70
g570
sg51
VACT_271
p3240
sg1734
I01
sg1735
I00
sg568
I271
sb(dp3241
g1734
I01
sg70
g570
ss(iconstruction
TP_NODE
p3242
(dp3243
g1733
I00
sg70
g597
sg51
g3228
sg1734
I00
sg1735
I00
sg568
I272
sb(dp3244
g1734
I00
sg70
g597
sssg269
g270
sg271
g270
sg272
(dp3245
g3238
(dp3246
g3242
(dp3247
g70
g717
sssg3242
(dp3248
ssg466
g3245
sg81
(dp3249
sg468
g270
sg469
g3245
sg470
(dp3250
g3238
(dp3251
sg3242
(dp3252
g3238
g3247
sssbsg563
(lp3253
g3238
ag3242
asg836
(lp3254
(iconstruction
TP_REL
p3255
(dp3256
g842
g3242
sg70
g717
sg568
I273
sg843
g3238
sg51
VIS_273
p3257
sbasg568
I268
sg51
g1654
sbsg1749
(iconstruction
TP_SYNFORM
p3258
(dp3259
g568
I269
sg1752
(lp3260
(iconstruction
TP_PHON
p3261
(dp3262
g1762
I5
sg1759
I0
sg568
I274
sg1763
Vpunch
p3263
sg51
g3229
sbasg51
g1654
sbsg1770
I1
sba(iconstruction
CXN
p3264
(dp3265
g1712
(iconstruction
TP_SYMLINKS
p3266
(dp3267
g1715
(dp3268
VN1_279
p3269
VS1_281
p3270
ssg568
I277
sg51
g1654
sbsg1721
VV
p3271
sg1723
I1
sg51
VWEAR
p3272
sg1724
(iconstruction
TP_SEMFRAME
p3273
(dp3274
g81
g0
(g82
g2
Ntp3275
Rp3276
(dp3277
g86
(dp3278
(iconstruction
TP_NODE
p3279
(dp3280
g1733
I00
sg70
g615
sg51
g3269
sg1734
I00
sg1735
I00
sg568
I279
sb(dp3281
g1734
I00
sg70
g615
ss(iconstruction
TP_NODE
p3282
(dp3283
g1733
I01
sg70
g570
sg51
VACT_278
p3284
sg1734
I01
sg1735
I00
sg568
I278
sb(dp3285
g1734
I01
sg70
g570
sssg269
g270
sg271
g270
sg272
(dp3286
g3279
(dp3287
sg3282
(dp3288
g3279
(dp3289
g70
g717
ssssg466
g3286
sg81
(dp3290
sg468
g270
sg469
g3286
sg470
(dp3291
g3279
(dp3292
g3282
g3289
ssg3282
(dp3293
ssbsg563
(lp3294
g3282
ag3279
asg836
(lp3295
(iconstruction
TP_REL
p3296
(dp3297
g842
g3279
sg70
g717
sg568
I280
sg843
g3282
sg51
VIS_280
p3298
sbasg568
I275
sg51
g1654
sbsg1749
(iconstruction
TP_SYNFORM
p3299
(dp3300
g568
I276
sg1752
(lp3301
(iconstruction
TP_PHON
p3302
(dp3303
g1762
I4
sg1759
I0
sg568
I281
sg1763
Vwear
p3304
sg51
g3270
sbasg51
g1654
sbsg1770
I1
sba(iconstruction
CXN
p3305
(dp3306
g1712
(iconstruction
TP_SYMLINKS
p3307
(dp3308
g1715
(dp3309
VN1_286
p3310
VS1_288
p3311
ssg568
I284
sg51
g1654
sbsg1721
VV
p3312
sg1723
I1
sg51
VLAUGH
p3313
sg1724
(iconstruction
TP_SEMFRAME
p3314
(dp3315
g81
g0
(g82
g2
Ntp3316
Rp3317
(dp3318
g86
(dp3319
(iconstruction
TP_NODE
p3320
(dp3321
g1733
I01
sg70
g570
sg51
VACT_285
p3322
sg1734
I01
sg1735
I00
sg568
I285
sb(dp3323
g1734
I01
sg70
g570
ss(iconstruction
TP_NODE
p3324
(dp3325
g1733
I00
sg70
g585
sg51
g3310
sg1734
I00
sg1735
I00
sg568
I286
sb(dp3326
g1734
I00
sg70
g585
sssg269
g270
sg271
g270
sg272
(dp3327
g3320
(dp3328
g3324
(dp3329
g70
g717
sssg3324
(dp3330
ssg466
g3327
sg81
(dp3331
sg468
g270
sg469
g3327
sg470
(dp3332
g3320
(dp3333
sg3324
(dp3334
g3320
g3329
sssbsg563
(lp3335
g3320
ag3324
asg836
(lp3336
(iconstruction
TP_REL
p3337
(dp3338
g842
g3324
sg70
g717
sg568
I287
sg843
g3320
sg51
VIS_287
p3339
sbasg568
I282
sg51
g1654
sbsg1749
(iconstruction
TP_SYNFORM
p3340
(dp3341
g568
I283
sg1752
(lp3342
(iconstruction
TP_PHON
p3343
(dp3344
g1762
I5
sg1759
I0
sg568
I288
sg1763
Vlaugh
p3345
sg51
g3311
sbasg51
g1654
sbsg1770
I1
sba(iconstruction
CXN
p3346
(dp3347
g1712
(iconstruction
TP_SYMLINKS
p3348
(dp3349
g1715
(dp3350
VN1_293
p3351
VS1_295
p3352
ssg568
I291
sg51
g1654
sbsg1721
VV
p3353
sg1723
I1
sg51
VWATCH
p3354
sg1724
(iconstruction
TP_SEMFRAME
p3355
(dp3356
g81
g0
(g82
g2
Ntp3357
Rp3358
(dp3359
g86
(dp3360
(iconstruction
TP_NODE
p3361
(dp3362
g1733
I00
sg70
g594
sg51
g3351
sg1734
I00
sg1735
I00
sg568
I293
sb(dp3363
g1734
I00
sg70
g594
ss(iconstruction
TP_NODE
p3364
(dp3365
g1733
I01
sg70
g570
sg51
VACT_292
p3366
sg1734
I01
sg1735
I00
sg568
I292
sb(dp3367
g1734
I01
sg70
g570
sssg269
g270
sg271
g270
sg272
(dp3368
g3361
(dp3369
sg3364
(dp3370
g3361
(dp3371
g70
g717
ssssg466
g3368
sg81
(dp3372
sg468
g270
sg469
g3368
sg470
(dp3373
g3361
(dp3374
g3364
g3371
ssg3364
(dp3375
ssbsg563
(lp3376
g3364
ag3361
asg836
(lp3377
(iconstruction
TP_REL
p3378
(dp3379
g842
g3361
sg70
g717
sg568
I294
sg843
g3364
sg51
VIS_294
p3380
sbasg568
I289
sg51
g1654
sbsg1749
(iconstruction
TP_SYNFORM
p3381
(dp3382
g568
I290
sg1752
(lp3383
(iconstruction
TP_PHON
p3384
(dp3385
g1762
I5
sg1759
I0
sg568
I295
sg1763
Vwatch
p3386
sg51
g3352
sbasg51
g1654
sbsg1770
I1
sba(iconstruction
CXN
p3387
(dp3388
g1712
(iconstruction
TP_SYMLINKS
p3389
(dp3390
g1715
(dp3391
VN1_300
p3392
VS1_302
p3393
ssg568
I298
sg51
g1654
sbsg1721
VV
p3394
sg1723
I1
sg51
VTALK
p3395
sg1724
(iconstruction
TP_SEMFRAME
p3396
(dp3397
g81
g0
(g82
g2
Ntp3398
Rp3399
(dp3400
g86
(dp3401
(iconstruction
TP_NODE
p3402
(dp3403
g1733
I00
sg70
g603
sg51
g3392
sg1734
I00
sg1735
I00
sg568
I300
sb(dp3404
g1734
I00
sg70
g603
ss(iconstruction
TP_NODE
p3405
(dp3406
g1733
I01
sg70
g570
sg51
VACT_299
p3407
sg1734
I01
sg1735
I00
sg568
I299
sb(dp3408
g1734
I01
sg70
g570
sssg269
g270
sg271
g270
sg272
(dp3409
g3402
(dp3410
sg3405
(dp3411
g3402
(dp3412
g70
g717
ssssg466
g3409
sg81
(dp3413
sg468
g270
sg469
g3409
sg470
(dp3414
g3402
(dp3415
g3405
g3412
ssg3405
(dp3416
ssbsg563
(lp3417
g3405
ag3402
asg836
(lp3418
(iconstruction
TP_REL
p3419
(dp3420
g842
g3402
sg70
g717
sg568
I301
sg843
g3405
sg51
VIS_301
p3421
sbasg568
I296
sg51
g1654
sbsg1749
(iconstruction
TP_SYNFORM
p3422
(dp3423
g568
I297
sg1752
(lp3424
(iconstruction
TP_PHON
p3425
(dp3426
g1762
I4
sg1759
I0
sg568
I302
sg1763
Vtalk
p3427
sg51
g3393
sba(iconstruction
TP_PHON
p3428
(dp3429
g1762
I2
sg1759
I1
sg568
I303
sg1763
Vto
p3430
sg51
VS2_303
p3431
sbasg51
g1654
sbsg1770
I1
sba(iconstruction
CXN
p3432
(dp3433
g1712
(iconstruction
TP_SYMLINKS
p3434
(dp3435
g1715
(dp3436
VN1_308
p3437
VS1_310
p3438
ssg568
I306
sg51
g1654
sbsg1721
VV
p3439
sg1723
I1
sg51
VSQUIRT
p3440
sg1724
(iconstruction
TP_SEMFRAME
p3441
(dp3442
g81
g0
(g82
g2
Ntp3443
Rp3444
(dp3445
g86
(dp3446
(iconstruction
TP_NODE
p3447
(dp3448
g1733
I00
sg70
g609
sg51
g3437
sg1734
I00
sg1735
I00
sg568
I308
sb(dp3449
g1734
I00
sg70
g609
ss(iconstruction
TP_NODE
p3450
(dp3451
g1733
I01
sg70
g570
sg51
VACT_307
p3452
sg1734
I01
sg1735
I00
sg568
I307
sb(dp3453
g1734
I01
sg70
g570
sssg269
g270
sg271
g270
sg272
(dp3454
g3447
(dp3455
sg3450
(dp3456
g3447
(dp3457
g70
g717
ssssg466
g3454
sg81
(dp3458
sg468
g270
sg469
g3454
sg470
(dp3459
g3447
(dp3460
g3450
g3457
ssg3450
(dp3461
ssbsg563
(lp3462
g3450
ag3447
asg836
(lp3463
(iconstruction
TP_REL
p3464
(dp3465
g842
g3447
sg70
g717
sg568
I309
sg843
g3450
sg51
VIS_309
p3466
sbasg568
I304
sg51
g1654
sbsg1749
(iconstruction
TP_SYNFORM
p3467
(dp3468
g568
I305
sg1752
(lp3469
(iconstruction
TP_PHON
p3470
(dp3471
g1762
I6
sg1759
I0
sg568
I310
sg1763
Vsquirt
p3472
sg51
g3438
sba(iconstruction
TP_PHON
p3473
(dp3474
g1762
I2
sg1759
I1
sg568
I311
sg1763
Vat
p3475
sg51
VS2_311
p3476
sbasg51
g1654
sbsg1770
I1
sba(iconstruction
CXN
p3477
(dp3478
g1712
(iconstruction
TP_SYMLINKS
p3479
(dp3480
g1715
(dp3481
VN1_316
p3482
VS1_318
p3483
ssg568
I314
sg51
g1654
sbsg1721
VV
p3484
sg1723
I1
sg51
VSPLASH
p3485
sg1724
(iconstruction
TP_SEMFRAME
p3486
(dp3487
g81
g0
(g82
g2
Ntp3488
Rp3489
(dp3490
g86
(dp3491
(iconstruction
TP_NODE
p3492
(dp3493
g1733
I00
sg70
g600
sg51
g3482
sg1734
I00
sg1735
I00
sg568
I316
sb(dp3494
g1734
I00
sg70
g600
ss(iconstruction
TP_NODE
p3495
(dp3496
g1733
I01
sg70
g570
sg51
VACT_315
p3497
sg1734
I01
sg1735
I00
sg568
I315
sb(dp3498
g1734
I01
sg70
g570
sssg269
g270
sg271
g270
sg272
(dp3499
g3492
(dp3500
sg3495
(dp3501
g3492
(dp3502
g70
g717
ssssg466
g3499
sg81
(dp3503
sg468
g270
sg469
g3499
sg470
(dp3504
g3492
(dp3505
g3495
g3502
ssg3495
(dp3506
ssbsg563
(lp3507
g3495
ag3492
asg836
(lp3508
(iconstruction
TP_REL
p3509
(dp3510
g842
g3492
sg70
g717
sg568
I317
sg843
g3495
sg51
VIS_317
p3511
sbasg568
I312
sg51
g1654
sbsg1749
(iconstruction
TP_SYNFORM
p3512
(dp3513
g568
I313
sg1752
(lp3514
(iconstruction
TP_PHON
p3515
(dp3516
g1762
I6
sg1759
I0
sg568
I318
sg1763
Vsplash
p3517
sg51
g3483
sbasg51
g1654
sbsg1770
I1
sba(iconstruction
CXN
p3518
(dp3519
g1712
(iconstruction
TP_SYMLINKS
p3520
(dp3521
g1715
(dp3522
VN1_323
p3523
VS1_325
p3524
ssg568
I321
sg51
g1654
sbsg1721
VV
p3525
sg1723
I1
sg51
VGIVE
p3526
sg1724
(iconstruction
TP_SEMFRAME
p3527
(dp3528
g81
g0
(g82
g2
Ntp3529
Rp3530
(dp3531
g86
(dp3532
(iconstruction
TP_NODE
p3533
(dp3534
g1733
I01
sg70
g570
sg51
VACT_322
p3535
sg1734
I01
sg1735
I00
sg568
I322
sb(dp3536
g1734
I01
sg70
g570
ss(iconstruction
TP_NODE
p3537
(dp3538
g1733
I00
sg70
g624
sg51
g3523
sg1734
I00
sg1735
I00
sg568
I323
sb(dp3539
g1734
I00
sg70
g624
sssg269
g270
sg271
g270
sg272
(dp3540
g3533
(dp3541
g3537
(dp3542
g70
g717
sssg3537
(dp3543
ssg466
g3540
sg81
(dp3544
sg468
g270
sg469
g3540
sg470
(dp3545
g3533
(dp3546
sg3537
(dp3547
g3533
g3542
sssbsg563
(lp3548
g3533
ag3537
asg836
(lp3549
(iconstruction
TP_REL
p3550
(dp3551
g842
g3537
sg70
g717
sg568
I324
sg843
g3533
sg51
VIS_324
p3552
sbasg568
I319
sg51
g1654
sbsg1749
(iconstruction
TP_SYNFORM
p3553
(dp3554
g568
I320
sg1752
(lp3555
(iconstruction
TP_PHON
p3556
(dp3557
g1762
I4
sg1759
I0
sg568
I325
sg1763
Vgive
p3558
sg51
g3524
sbasg51
g1654
sbsg1770
I1
sba(iconstruction
CXN
p3559
(dp3560
g1712
(iconstruction
TP_SYMLINKS
p3561
(dp3562
g1715
(dp3563
VN1_330
p3564
VS1_332
p3565
ssg568
I328
sg51
g1654
sbsg1721
VV
p3566
sg1723
I1
sg51
VSEND
p3567
sg1724
(iconstruction
TP_SEMFRAME
p3568
(dp3569
g81
g0
(g82
g2
Ntp3570
Rp3571
(dp3572
g86
(dp3573
(iconstruction
TP_NODE
p3574
(dp3575
g1733
I00
sg70
g621
sg51
g3564
sg1734
I00
sg1735
I00
sg568
I330
sb(dp3576
g1734
I00
sg70
g621
ss(iconstruction
TP_NODE
p3577
(dp3578
g1733
I01
sg70
g570
sg51
VACT_329
p3579
sg1734
I01
sg1735
I00
sg568
I329
sb(dp3580
g1734
I01
sg70
g570
sssg269
g270
sg271
g270
sg272
(dp3581
g3574
(dp3582
sg3577
(dp3583
g3574
(dp3584
g70
g717
ssssg466
g3581
sg81
(dp3585
sg468
g270
sg469
g3581
sg470
(dp3586
g3574
(dp3587
g3577
g3584
ssg3577
(dp3588
ssbsg563
(lp3589
g3577
ag3574
asg836
(lp3590
(iconstruction
TP_REL
p3591
(dp3592
g842
g3574
sg70
g717
sg568
I331
sg843
g3577
sg51
VIS_331
p3593
sbasg568
I326
sg51
g1654
sbsg1749
(iconstruction
TP_SYNFORM
p3594
(dp3595
g568
I327
sg1752
(lp3596
(iconstruction
TP_PHON
p3597
(dp3598
g1762
I4
sg1759
I0
sg568
I332
sg1763
Vsend
p3599
sg51
g3565
sbasg51
g1654
sbsg1770
I1
sba(iconstruction
CXN
p3600
(dp3601
g1712
(iconstruction
TP_SYMLINKS
p3602
(dp3603
g1715
(dp3604
VN1_337
p3605
VS1_339
p3606
ssg568
I335
sg51
g1654
sbsg1721
VV
p3607
sg1723
I1
sg51
VMEET
p3608
sg1724
(iconstruction
TP_SEMFRAME
p3609
(dp3610
g81
g0
(g82
g2
Ntp3611
Rp3612
(dp3613
g86
(dp3614
(iconstruction
TP_NODE
p3615
(dp3616
g1733
I01
sg70
g570
sg51
VACT_336
p3617
sg1734
I01
sg1735
I00
sg568
I336
sb(dp3618
g1734
I01
sg70
g570
ss(iconstruction
TP_NODE
p3619
(dp3620
g1733
I00
sg70
g576
sg51
g3605
sg1734
I00
sg1735
I00
sg568
I337
sb(dp3621
g1734
I00
sg70
g576
sssg269
g270
sg271
g270
sg272
(dp3622
g3615
(dp3623
g3619
(dp3624
g70
g717
sssg3619
(dp3625
ssg466
g3622
sg81
(dp3626
sg468
g270
sg469
g3622
sg470
(dp3627
g3615
(dp3628
sg3619
(dp3629
g3615
g3624
sssbsg563
(lp3630
g3615
ag3619
asg836
(lp3631
(iconstruction
TP_REL
p3632
(dp3633
g842
g3619
sg70
g717
sg568
I338
sg843
g3615
sg51
VIS_338
p3634
sbasg568
I333
sg51
g1654
sbsg1749
(iconstruction
TP_SYNFORM
p3635
(dp3636
g568
I334
sg1752
(lp3637
(iconstruction
TP_PHON
p3638
(dp3639
g1762
I4
sg1759
I0
sg568
I339
sg1763
Vmeet
p3640
sg51
g3606
sbasg51
g1654
sbsg1770
I1
sba(iconstruction
CXN
p3641
(dp3642
g1712
(iconstruction
TP_SYMLINKS
p3643
(dp3644
g1715
(dp3645
VN1_344
p3646
VS1_346
p3647
ssg568
I342
sg51
g1654
sbsg1721
VV
p3648
sg1723
I1
sg51
VKISS
p3649
sg1724
(iconstruction
TP_SEMFRAME
p3650
(dp3651
g81
g0
(g82
g2
Ntp3652
Rp3653
(dp3654
g86
(dp3655
(iconstruction
TP_NODE
p3656
(dp3657
g1733
I01
sg70
g570
sg51
VACT_343
p3658
sg1734
I01
sg1735
I00
sg568
I343
sb(dp3659
g1734
I01
sg70
g570
ss(iconstruction
TP_NODE
p3660
(dp3661
g1733
I00
sg70
g606
sg51
g3646
sg1734
I00
sg1735
I00
sg568
I344
sb(dp3662
g1734
I00
sg70
g606
sssg269
g270
sg271
g270
sg272
(dp3663
g3656
(dp3664
g3660
(dp3665
g70
g717
sssg3660
(dp3666
ssg466
g3663
sg81
(dp3667
sg468
g270
sg469
g3663
sg470
(dp3668
g3656
(dp3669
sg3660
(dp3670
g3656
g3665
sssbsg563
(lp3671
g3656
ag3660
asg836
(lp3672
(iconstruction
TP_REL
p3673
(dp3674
g842
g3660
sg70
g717
sg568
I345
sg843
g3656
sg51
VIS_345
p3675
sbasg568
I340
sg51
g1654
sbsg1749
(iconstruction
TP_SYNFORM
p3676
(dp3677
g568
I341
sg1752
(lp3678
(iconstruction
TP_PHON
p3679
(dp3680
g1762
I4
sg1759
I0
sg568
I346
sg1763
Vkiss
p3681
sg51
g3647
sbasg51
g1654
sbsg1770
I1
sba(iconstruction
CXN
p3682
(dp3683
g1712
(iconstruction
TP_SYMLINKS
p3684
(dp3685
g1715
(dp3686
VN1_351
p3687
VS1_353
p3688
ssg568
I349
sg51
g1654
sbsg1721
VV
p3689
sg1723
I1
sg51
VSHAKE_HANDS
p3690
sg1724
(iconstruction
TP_SEMFRAME
p3691
(dp3692
g81
g0
(g82
g2
Ntp3693
Rp3694
(dp3695
g86
(dp3696
(iconstruction
TP_NODE
p3697
(dp3698
g1733
I00
sg70
g579
sg51
g3687
sg1734
I00
sg1735
I00
sg568
I351
sb(dp3699
g1734
I00
sg70
g579
ss(iconstruction
TP_NODE
p3700
(dp3701
g1733
I01
sg70
g570
sg51
VACT_350
p3702
sg1734
I01
sg1735
I00
sg568
I350
sb(dp3703
g1734
I01
sg70
g570
sssg269
g270
sg271
g270
sg272
(dp3704
g3697
(dp3705
sg3700
(dp3706
g3697
(dp3707
g70
g717
ssssg466
g3704
sg81
(dp3708
sg468
g270
sg469
g3704
sg470
(dp3709
g3697
(dp3710
g3700
g3707
ssg3700
(dp3711
ssbsg563
(lp3712
g3700
ag3697
asg836
(lp3713
(iconstruction
TP_REL
p3714
(dp3715
g842
g3697
sg70
g717
sg568
I352
sg843
g3700
sg51
VIS_352
p3716
sbasg568
I347
sg51
g1654
sbsg1749
(iconstruction
TP_SYNFORM
p3717
(dp3718
g568
I348
sg1752
(lp3719
(iconstruction
TP_PHON
p3720
(dp3721
g1762
I10
sg1759
I0
sg568
I353
sg1763
Vshake hands
p3722
sg51
g3688
sbasg51
g1654
sbsg1770
I1
sba(iconstruction
CXN
p3723
(dp3724
g1712
(iconstruction
TP_SYMLINKS
p3725
(dp3726
g1715
(dp3727
VN1_357
p3728
VS1_358
p3729
ssg568
I356
sg51
g1654
sbsg1721
VA
p3730
sg1723
I1
sg51
VBLUE
p3731
sg1724
(iconstruction
TP_SEMFRAME
p3732
(dp3733
g81
g0
(g82
g2
Ntp3734
Rp3735
(dp3736
g86
(dp3737
(iconstruction
TP_NODE
p3738
(dp3739
g1733
I01
sg70
g633
sg51
g3728
sg1734
I00
sg1735
I00
sg568
I357
sb(dp3740
g1734
I00
sg70
g633
sssg269
g270
sg271
g270
sg272
(dp3741
g3738
(dp3742
ssg466
g3741
sg81
(dp3743
sg468
g270
sg469
g3741
sg470
(dp3744
g3738
(dp3745
ssbsg563
(lp3746
g3738
asg836
(lp3747
sg568
I354
sg51
g1654
sbsg1749
(iconstruction
TP_SYNFORM
p3748
(dp3749
g568
I355
sg1752
(lp3750
(iconstruction
TP_PHON
p3751
(dp3752
g1762
I4
sg1759
I0
sg568
I358
sg1763
Vblue
p3753
sg51
g3729
sbasg51
g1654
sbsg1770
I1
sba(iconstruction
CXN
p3754
(dp3755
g1712
(iconstruction
TP_SYMLINKS
p3756
(dp3757
g1715
(dp3758
VN1_362
p3759
VS1_363
p3760
ssg568
I361
sg51
g1654
sbsg1721
VA
p3761
sg1723
I1
sg51
VBLACK
p3762
sg1724
(iconstruction
TP_SEMFRAME
p3763
(dp3764
g81
g0
(g82
g2
Ntp3765
Rp3766
(dp3767
g86
(dp3768
(iconstruction
TP_NODE
p3769
(dp3770
g1733
I01
sg70
g642
sg51
g3759
sg1734
I00
sg1735
I00
sg568
I362
sb(dp3771
g1734
I00
sg70
g642
sssg269
g270
sg271
g270
sg272
(dp3772
g3769
(dp3773
ssg466
g3772
sg81
(dp3774
sg468
g270
sg469
g3772
sg470
(dp3775
g3769
(dp3776
ssbsg563
(lp3777
g3769
asg836
(lp3778
sg568
I359
sg51
g1654
sbsg1749
(iconstruction
TP_SYNFORM
p3779
(dp3780
g568
I360
sg1752
(lp3781
(iconstruction
TP_PHON
p3782
(dp3783
g1762
I5
sg1759
I0
sg568
I363
sg1763
Vblack
p3784
sg51
g3760
sbasg51
g1654
sbsg1770
I1
sba(iconstruction
CXN
p3785
(dp3786
g1712
(iconstruction
TP_SYMLINKS
p3787
(dp3788
g1715
(dp3789
VN1_367
p3790
VS1_368
p3791
ssg568
I366
sg51
g1654
sbsg1721
VA
p3792
sg1723
I1
sg51
VGREEN
p3793
sg1724
(iconstruction
TP_SEMFRAME
p3794
(dp3795
g81
g0
(g82
g2
Ntp3796
Rp3797
(dp3798
g86
(dp3799
(iconstruction
TP_NODE
p3800
(dp3801
g1733
I01
sg70
g636
sg51
g3790
sg1734
I00
sg1735
I00
sg568
I367
sb(dp3802
g1734
I00
sg70
g636
sssg269
g270
sg271
g270
sg272
(dp3803
g3800
(dp3804
ssg466
g3803
sg81
(dp3805
sg468
g270
sg469
g3803
sg470
(dp3806
g3800
(dp3807
ssbsg563
(lp3808
g3800
asg836
(lp3809
sg568
I364
sg51
g1654
sbsg1749
(iconstruction
TP_SYNFORM
p3810
(dp3811
g568
I365
sg1752
(lp3812
(iconstruction
TP_PHON
p3813
(dp3814
g1762
I5
sg1759
I0
sg568
I368
sg1763
Vgreen
p3815
sg51
g3791
sbasg51
g1654
sbsg1770
I1
sba(iconstruction
CXN
p3816
(dp3817
g1712
(iconstruction
TP_SYMLINKS
p3818
(dp3819
g1715
(dp3820
VN1_372
p3821
VS1_373
p3822
ssg568
I371
sg51
g1654
sbsg1721
VA
p3823
sg1723
I1
sg51
VSMALL
p3824
sg1724
(iconstruction
TP_SEMFRAME
p3825
(dp3826
g81
g0
(g82
g2
Ntp3827
Rp3828
(dp3829
g86
(dp3830
(iconstruction
TP_NODE
p3831
(dp3832
g1733
I01
sg70
g663
sg51
g3821
sg1734
I00
sg1735
I00
sg568
I372
sb(dp3833
g1734
I00
sg70
g663
sssg269
g270
sg271
g270
sg272
(dp3834
g3831
(dp3835
ssg466
g3834
sg81
(dp3836
sg468
g270
sg469
g3834
sg470
(dp3837
g3831
(dp3838
ssbsg563
(lp3839
g3831
asg836
(lp3840
sg568
I369
sg51
g1654
sbsg1749
(iconstruction
TP_SYNFORM
p3841
(dp3842
g568
I370
sg1752
(lp3843
(iconstruction
TP_PHON
p3844
(dp3845
g1762
I5
sg1759
I0
sg568
I373
sg1763
Vsmall
p3846
sg51
g3822
sbasg51
g1654
sbsg1770
I1
sba(iconstruction
CXN
p3847
(dp3848
g1712
(iconstruction
TP_SYMLINKS
p3849
(dp3850
g1715
(dp3851
VN1_377
p3852
VS1_378
p3853
ssg568
I376
sg51
g1654
sbsg1721
VA
p3854
sg1723
I1
sg51
VBIG
p3855
sg1724
(iconstruction
TP_SEMFRAME
p3856
(dp3857
g81
g0
(g82
g2
Ntp3858
Rp3859
(dp3860
g86
(dp3861
(iconstruction
TP_NODE
p3862
(dp3863
g1733
I01
sg70
g666
sg51
g3852
sg1734
I00
sg1735
I00
sg568
I377
sb(dp3864
g1734
I00
sg70
g666
sssg269
g270
sg271
g270
sg272
(dp3865
g3862
(dp3866
ssg466
g3865
sg81
(dp3867
sg468
g270
sg469
g3865
sg470
(dp3868
g3862
(dp3869
ssbsg563
(lp3870
g3862
asg836
(lp3871
sg568
I374
sg51
g1654
sbsg1749
(iconstruction
TP_SYNFORM
p3872
(dp3873
g568
I375
sg1752
(lp3874
(iconstruction
TP_PHON
p3875
(dp3876
g1762
I3
sg1759
I0
sg568
I378
sg1763
Vbig
p3877
sg51
g3853
sbasg51
g1654
sbsg1770
I1
sba(iconstruction
CXN
p3878
(dp3879
g1712
(iconstruction
TP_SYMLINKS
p3880
(dp3881
g1715
(dp3882
VN1_382
p3883
VS1_383
p3884
ssg568
I381
sg51
g1654
sbsg1721
VA
p3885
sg1723
I1
sg51
VHANDSOME
p3886
sg1724
(iconstruction
TP_SEMFRAME
p3887
(dp3888
g81
g0
(g82
g2
Ntp3889
Rp3890
(dp3891
g86
(dp3892
(iconstruction
TP_NODE
p3893
(dp3894
g1733
I01
sg70
g657
sg51
g3883
sg1734
I00
sg1735
I00
sg568
I382
sb(dp3895
g1734
I00
sg70
g657
sssg269
g270
sg271
g270
sg272
(dp3896
g3893
(dp3897
ssg466
g3896
sg81
(dp3898
sg468
g270
sg469
g3896
sg470
(dp3899
g3893
(dp3900
ssbsg563
(lp3901
g3893
asg836
(lp3902
sg568
I379
sg51
g1654
sbsg1749
(iconstruction
TP_SYNFORM
p3903
(dp3904
g568
I380
sg1752
(lp3905
(iconstruction
TP_PHON
p3906
(dp3907
g1762
I8
sg1759
I0
sg568
I383
sg1763
Vhandsome
p3908
sg51
g3884
sbasg51
g1654
sbsg1770
I1
sba(iconstruction
CXN
p3909
(dp3910
g1712
(iconstruction
TP_SYMLINKS
p3911
(dp3912
g1715
(dp3913
VN1_387
p3914
VS1_388
p3915
ssg568
I386
sg51
g1654
sbsg1721
VA
p3916
sg1723
I1
sg51
VPRETTY
p3917
sg1724
(iconstruction
TP_SEMFRAME
p3918
(dp3919
g81
g0
(g82
g2
Ntp3920
Rp3921
(dp3922
g86
(dp3923
(iconstruction
TP_NODE
p3924
(dp3925
g1733
I01
sg70
g654
sg51
g3914
sg1734
I00
sg1735
I00
sg568
I387
sb(dp3926
g1734
I00
sg70
g654
sssg269
g270
sg271
g270
sg272
(dp3927
g3924
(dp3928
ssg466
g3927
sg81
(dp3929
sg468
g270
sg469
g3927
sg470
(dp3930
g3924
(dp3931
ssbsg563
(lp3932
g3924
asg836
(lp3933
sg568
I384
sg51
g1654
sbsg1749
(iconstruction
TP_SYNFORM
p3934
(dp3935
g568
I385
sg1752
(lp3936
(iconstruction
TP_PHON
p3937
(dp3938
g1762
I6
sg1759
I0
sg568
I388
sg1763
Vpretty
p3939
sg51
g3915
sbasg51
g1654
sbsg1770
I1
sba(iconstruction
CXN
p3940
(dp3941
g1712
(iconstruction
TP_SYMLINKS
p3942
(dp3943
g1715
(dp3944
VN1_392
p3945
VS1_393
p3946
ssg568
I391
sg51
g1654
sbsg1721
VA
p3947
sg1723
I1
sg51
VYOUNG
p3948
sg1724
(iconstruction
TP_SEMFRAME
p3949
(dp3950
g81
g0
(g82
g2
Ntp3951
Rp3952
(dp3953
g86
(dp3954
(iconstruction
TP_NODE
p3955
(dp3956
g1733
I01
sg70
g651
sg51
g3945
sg1734
I00
sg1735
I00
sg568
I392
sb(dp3957
g1734
I00
sg70
g651
sssg269
g270
sg271
g270
sg272
(dp3958
g3955
(dp3959
ssg466
g3958
sg81
(dp3960
sg468
g270
sg469
g3958
sg470
(dp3961
g3955
(dp3962
ssbsg563
(lp3963
g3955
asg836
(lp3964
sg568
I389
sg51
g1654
sbsg1749
(iconstruction
TP_SYNFORM
p3965
(dp3966
g568
I390
sg1752
(lp3967
(iconstruction
TP_PHON
p3968
(dp3969
g1762
I5
sg1759
I0
sg568
I393
sg1763
Vyoung
p3970
sg51
g3946
sbasg51
g1654
sbsg1770
I1
sba(iconstruction
CXN
p3971
(dp3972
g1712
(iconstruction
TP_SYMLINKS
p3973
(dp3974
g1715
(dp3975
VN1_398
p3976
VS1_400
p3977
ssg568
I396
sg51
g1654
sbsg1721
VN
p3978
sg1723
I1
sg51
VWOMAN
p3979
sg1724
(iconstruction
TP_SEMFRAME
p3980
(dp3981
g81
g0
(g82
g2
Ntp3982
Rp3983
(dp3984
g86
(dp3985
(iconstruction
TP_NODE
p3986
(dp3987
g1733
I00
sg70
g792
sg51
g3976
sg1734
I00
sg1735
I00
sg568
I398
sb(dp3988
g1734
I00
sg70
g792
ss(iconstruction
TP_NODE
p3989
(dp3990
g1733
I01
sg70
g726
sg51
VENT_397
p3991
sg1734
I01
sg1735
I00
sg568
I397
sb(dp3992
g1734
I01
sg70
g726
sssg269
g270
sg271
g270
sg272
(dp3993
g3986
(dp3994
sg3989
(dp3995
g3986
(dp3996
g70
g717
ssssg466
g3993
sg81
(dp3997
sg468
g270
sg469
g3993
sg470
(dp3998
g3986
(dp3999
g3989
g3996
ssg3989
(dp4000
ssbsg563
(lp4001
g3989
ag3986
asg836
(lp4002
(iconstruction
TP_REL
p4003
(dp4004
g842
g3986
sg70
g717
sg568
I399
sg843
g3989
sg51
VIS_399
p4005
sbasg568
I394
sg51
g1654
sbsg1749
(iconstruction
TP_SYNFORM
p4006
(dp4007
g568
I395
sg1752
(lp4008
(iconstruction
TP_PHON
p4009
(dp4010
g1762
I5
sg1759
I0
sg568
I400
sg1763
Vwoman
p4011
sg51
g3977
sbasg51
g1654
sbsg1770
I1
sba(iconstruction
CXN
p4012
(dp4013
g1712
(iconstruction
TP_SYMLINKS
p4014
(dp4015
g1715
(dp4016
VN1_405
p4017
VS1_407
p4018
ssg568
I403
sg51
g1654
sbsg1721
VN
p4019
sg1723
I1
sg51
VWOMAN2
p4020
sg1724
(iconstruction
TP_SEMFRAME
p4021
(dp4022
g81
g0
(g82
g2
Ntp4023
Rp4024
(dp4025
g86
(dp4026
(iconstruction
TP_NODE
p4027
(dp4028
g1733
I01
sg70
g726
sg51
VENT_404
p4029
sg1734
I01
sg1735
I00
sg568
I404
sb(dp4030
g1734
I01
sg70
g726
ss(iconstruction
TP_NODE
p4031
(dp4032
g1733
I00
sg70
g792
sg51
g4017
sg1734
I00
sg1735
I00
sg568
I405
sb(dp4033
g1734
I00
sg70
g792
sssg269
g270
sg271
g270
sg272
(dp4034
g4027
(dp4035
g4031
(dp4036
g70
g717
sssg4031
(dp4037
ssg466
g4034
sg81
(dp4038
sg468
g270
sg469
g4034
sg470
(dp4039
g4027
(dp4040
sg4031
(dp4041
g4027
g4036
sssbsg563
(lp4042
g4027
ag4031
asg836
(lp4043
(iconstruction
TP_REL
p4044
(dp4045
g842
g4031
sg70
g717
sg568
I406
sg843
g4027
sg51
VIS_406
p4046
sbasg568
I401
sg51
g1654
sbsg1749
(iconstruction
TP_SYNFORM
p4047
(dp4048
g568
I402
sg1752
(lp4049
(iconstruction
TP_PHON
p4050
(dp4051
g1762
I4
sg1759
I0
sg568
I407
sg1763
Vlady
p4052
sg51
g4018
sbasg51
g1654
sbsg1770
I1
sba(iconstruction
CXN
p4053
(dp4054
g1712
(iconstruction
TP_SYMLINKS
p4055
(dp4056
g1715
(dp4057
VN1_412
p4058
VS1_414
p4059
ssg568
I410
sg51
g1654
sbsg1721
VN
p4060
sg1723
I1
sg51
VMAN
p4061
sg1724
(iconstruction
TP_SEMFRAME
p4062
(dp4063
g81
g0
(g82
g2
Ntp4064
Rp4065
(dp4066
g86
(dp4067
(iconstruction
TP_NODE
p4068
(dp4069
g1733
I00
sg70
g819
sg51
g4058
sg1734
I00
sg1735
I00
sg568
I412
sb(dp4070
g1734
I00
sg70
g819
ss(iconstruction
TP_NODE
p4071
(dp4072
g1733
I01
sg70
g726
sg51
VENT_411
p4073
sg1734
I01
sg1735
I00
sg568
I411
sb(dp4074
g1734
I01
sg70
g726
sssg269
g270
sg271
g270
sg272
(dp4075
g4068
(dp4076
sg4071
(dp4077
g4068
(dp4078
g70
g717
ssssg466
g4075
sg81
(dp4079
sg468
g270
sg469
g4075
sg470
(dp4080
g4068
(dp4081
g4071
g4078
ssg4071
(dp4082
ssbsg563
(lp4083
g4071
ag4068
asg836
(lp4084
(iconstruction
TP_REL
p4085
(dp4086
g842
g4068
sg70
g717
sg568
I413
sg843
g4071
sg51
VIS_413
p4087
sbasg568
I408
sg51
g1654
sbsg1749
(iconstruction
TP_SYNFORM
p4088
(dp4089
g568
I409
sg1752
(lp4090
(iconstruction
TP_PHON
p4091
(dp4092
g1762
I3
sg1759
I0
sg568
I414
sg1763
Vman
p4093
sg51
g4059
sbasg51
g1654
sbsg1770
I1
sba(iconstruction
CXN
p4094
(dp4095
g1712
(iconstruction
TP_SYMLINKS
p4096
(dp4097
g1715
(dp4098
VN1_419
p4099
VS1_421
p4100
ssg568
I417
sg51
g1654
sbsg1721
VN
p4101
sg1723
I1
sg51
VGIRL
p4102
sg1724
(iconstruction
TP_SEMFRAME
p4103
(dp4104
g81
g0
(g82
g2
Ntp4105
Rp4106
(dp4107
g86
(dp4108
(iconstruction
TP_NODE
p4109
(dp4110
g1733
I00
sg70
g810
sg51
g4099
sg1734
I00
sg1735
I00
sg568
I419
sb(dp4111
g1734
I00
sg70
g810
ss(iconstruction
TP_NODE
p4112
(dp4113
g1733
I01
sg70
g726
sg51
VENT_418
p4114
sg1734
I01
sg1735
I00
sg568
I418
sb(dp4115
g1734
I01
sg70
g726
sssg269
g270
sg271
g270
sg272
(dp4116
g4109
(dp4117
sg4112
(dp4118
g4109
(dp4119
g70
g717
ssssg466
g4116
sg81
(dp4120
sg468
g270
sg469
g4116
sg470
(dp4121
g4109
(dp4122
g4112
g4119
ssg4112
(dp4123
ssbsg563
(lp4124
g4112
ag4109
asg836
(lp4125
(iconstruction
TP_REL
p4126
(dp4127
g842
g4109
sg70
g717
sg568
I420
sg843
g4112
sg51
VIS_420
p4128
sbasg568
I415
sg51
g1654
sbsg1749
(iconstruction
TP_SYNFORM
p4129
(dp4130
g568
I416
sg1752
(lp4131
(iconstruction
TP_PHON
p4132
(dp4133
g1762
I4
sg1759
I0
sg568
I421
sg1763
Vgirl
p4134
sg51
g4100
sbasg51
g1654
sbsg1770
I1
sba(iconstruction
CXN
p4135
(dp4136
g1712
(iconstruction
TP_SYMLINKS
p4137
(dp4138
g1715
(dp4139
VN1_426
p4140
VS1_428
p4141
ssg568
I424
sg51
g1654
sbsg1721
VN
p4142
sg1723
I1
sg51
VBOY
p4143
sg1724
(iconstruction
TP_SEMFRAME
p4144
(dp4145
g81
g0
(g82
g2
Ntp4146
Rp4147
(dp4148
g86
(dp4149
(iconstruction
TP_NODE
p4150
(dp4151
g1733
I01
sg70
g726
sg51
VENT_425
p4152
sg1734
I01
sg1735
I00
sg568
I425
sb(dp4153
g1734
I01
sg70
g726
ss(iconstruction
TP_NODE
p4154
(dp4155
g1733
I00
sg70
g789
sg51
g4140
sg1734
I00
sg1735
I00
sg568
I426
sb(dp4156
g1734
I00
sg70
g789
sssg269
g270
sg271
g270
sg272
(dp4157
g4150
(dp4158
g4154
(dp4159
g70
g717
sssg4154
(dp4160
ssg466
g4157
sg81
(dp4161
sg468
g270
sg469
g4157
sg470
(dp4162
g4150
(dp4163
sg4154
(dp4164
g4150
g4159
sssbsg563
(lp4165
g4150
ag4154
asg836
(lp4166
(iconstruction
TP_REL
p4167
(dp4168
g842
g4154
sg70
g717
sg568
I427
sg843
g4150
sg51
VIS_427
p4169
sbasg568
I422
sg51
g1654
sbsg1749
(iconstruction
TP_SYNFORM
p4170
(dp4171
g568
I423
sg1752
(lp4172
(iconstruction
TP_PHON
p4173
(dp4174
g1762
I3
sg1759
I0
sg568
I428
sg1763
Vboy
p4175
sg51
g4141
sbasg51
g1654
sbsg1770
I1
sba(iconstruction
CXN
p4176
(dp4177
g1712
(iconstruction
TP_SYMLINKS
p4178
(dp4179
g1715
(dp4180
VN1_433
p4181
VS1_435
p4182
ssg568
I431
sg51
g1654
sbsg1721
VN
p4183
sg1723
I1
sg51
VPEOPLE
p4184
sg1724
(iconstruction
TP_SEMFRAME
p4185
(dp4186
g81
g0
(g82
g2
Ntp4187
Rp4188
(dp4189
g86
(dp4190
(iconstruction
TP_NODE
p4191
(dp4192
g1733
I00
sg70
g795
sg51
g4181
sg1734
I00
sg1735
I00
sg568
I433
sb(dp4193
g1734
I00
sg70
g795
ss(iconstruction
TP_NODE
p4194
(dp4195
g1733
I01
sg70
g726
sg51
VENT_432
p4196
sg1734
I01
sg1735
I00
sg568
I432
sb(dp4197
g1734
I01
sg70
g726
sssg269
g270
sg271
g270
sg272
(dp4198
g4191
(dp4199
sg4194
(dp4200
g4191
(dp4201
g70
g717
ssssg466
g4198
sg81
(dp4202
sg468
g270
sg469
g4198
sg470
(dp4203
g4191
(dp4204
g4194
g4201
ssg4194
(dp4205
ssbsg563
(lp4206
g4194
ag4191
asg836
(lp4207
(iconstruction
TP_REL
p4208
(dp4209
g842
g4191
sg70
g717
sg568
I434
sg843
g4194
sg51
VIS_434
p4210
sbasg568
I429
sg51
g1654
sbsg1749
(iconstruction
TP_SYNFORM
p4211
(dp4212
g568
I430
sg1752
(lp4213
(iconstruction
TP_PHON
p4214
(dp4215
g1762
I6
sg1759
I0
sg568
I435
sg1763
Vpeople
p4216
sg51
g4182
sbasg51
g1654
sbsg1770
I1
sba(iconstruction
CXN
p4217
(dp4218
g1712
(iconstruction
TP_SYMLINKS
p4219
(dp4220
g1715
(dp4221
VN1_440
p4222
VS1_442
p4223
ssg568
I438
sg51
g1654
sbsg1721
VN
p4224
sg1723
I1
sg51
VMOUSE
p4225
sg1724
(iconstruction
TP_SEMFRAME
p4226
(dp4227
g81
g0
(g82
g2
Ntp4228
Rp4229
(dp4230
g86
(dp4231
(iconstruction
TP_NODE
p4232
(dp4233
g1733
I01
sg70
g726
sg51
VENT_439
p4234
sg1734
I01
sg1735
I00
sg568
I439
sb(dp4235
g1734
I01
sg70
g726
ss(iconstruction
TP_NODE
p4236
(dp4237
g1733
I00
sg70
g783
sg51
g4222
sg1734
I00
sg1735
I00
sg568
I440
sb(dp4238
g1734
I00
sg70
g783
sssg269
g270
sg271
g270
sg272
(dp4239
g4232
(dp4240
g4236
(dp4241
g70
g717
sssg4236
(dp4242
ssg466
g4239
sg81
(dp4243
sg468
g270
sg469
g4239
sg470
(dp4244
g4232
(dp4245
sg4236
(dp4246
g4232
g4241
sssbsg563
(lp4247
g4232
ag4236
asg836
(lp4248
(iconstruction
TP_REL
p4249
(dp4250
g842
g4236
sg70
g717
sg568
I441
sg843
g4232
sg51
VIS_441
p4251
sbasg568
I436
sg51
g1654
sbsg1749
(iconstruction
TP_SYNFORM
p4252
(dp4253
g568
I437
sg1752
(lp4254
(iconstruction
TP_PHON
p4255
(dp4256
g1762
I5
sg1759
I0
sg568
I442
sg1763
Vmouse
p4257
sg51
g4223
sbasg51
g1654
sbsg1770
I1
sba(iconstruction
CXN
p4258
(dp4259
g1712
(iconstruction
TP_SYMLINKS
p4260
(dp4261
g1715
(dp4262
VN1_447
p4263
VS1_449
p4264
ssg568
I445
sg51
g1654
sbsg1721
VN
p4265
sg1723
I1
sg51
VTURTLE
p4266
sg1724
(iconstruction
TP_SEMFRAME
p4267
(dp4268
g81
g0
(g82
g2
Ntp4269
Rp4270
(dp4271
g86
(dp4272
(iconstruction
TP_NODE
p4273
(dp4274
g1733
I00
sg70
g780
sg51
g4263
sg1734
I00
sg1735
I00
sg568
I447
sb(dp4275
g1734
I00
sg70
g780
ss(iconstruction
TP_NODE
p4276
(dp4277
g1733
I01
sg70
g726
sg51
VENT_446
p4278
sg1734
I01
sg1735
I00
sg568
I446
sb(dp4279
g1734
I01
sg70
g726
sssg269
g270
sg271
g270
sg272
(dp4280
g4273
(dp4281
sg4276
(dp4282
g4273
(dp4283
g70
g717
ssssg466
g4280
sg81
(dp4284
sg468
g270
sg469
g4280
sg470
(dp4285
g4273
(dp4286
g4276
g4283
ssg4276
(dp4287
ssbsg563
(lp4288
g4276
ag4273
asg836
(lp4289
(iconstruction
TP_REL
p4290
(dp4291
g842
g4273
sg70
g717
sg568
I448
sg843
g4276
sg51
VIS_448
p4292
sbasg568
I443
sg51
g1654
sbsg1749
(iconstruction
TP_SYNFORM
p4293
(dp4294
g568
I444
sg1752
(lp4295
(iconstruction
TP_PHON
p4296
(dp4297
g1762
I6
sg1759
I0
sg568
I449
sg1763
Vturtle
p4298
sg51
g4264
sbasg51
g1654
sbsg1770
I1
sba(iconstruction
CXN
p4299
(dp4300
g1712
(iconstruction
TP_SYMLINKS
p4301
(dp4302
g1715
(dp4303
VN1_454
p4304
VS1_456
p4305
ssg568
I452
sg51
g1654
sbsg1721
VN
p4306
sg1723
I1
sg51
VDRESS
p4307
sg1724
(iconstruction
TP_SEMFRAME
p4308
(dp4309
g81
g0
(g82
g2
Ntp4310
Rp4311
(dp4312
g86
(dp4313
(iconstruction
TP_NODE
p4314
(dp4315
g1733
I00
sg70
g771
sg51
g4304
sg1734
I00
sg1735
I00
sg568
I454
sb(dp4316
g1734
I00
sg70
g771
ss(iconstruction
TP_NODE
p4317
(dp4318
g1733
I01
sg70
g726
sg51
VENT_453
p4319
sg1734
I01
sg1735
I00
sg568
I453
sb(dp4320
g1734
I01
sg70
g726
sssg269
g270
sg271
g270
sg272
(dp4321
g4314
(dp4322
sg4317
(dp4323
g4314
(dp4324
g70
g717
ssssg466
g4321
sg81
(dp4325
sg468
g270
sg469
g4321
sg470
(dp4326
g4314
(dp4327
g4317
g4324
ssg4317
(dp4328
ssbsg563
(lp4329
g4317
ag4314
asg836
(lp4330
(iconstruction
TP_REL
p4331
(dp4332
g842
g4314
sg70
g717
sg568
I455
sg843
g4317
sg51
VIS_455
p4333
sbasg568
I450
sg51
g1654
sbsg1749
(iconstruction
TP_SYNFORM
p4334
(dp4335
g568
I451
sg1752
(lp4336
(iconstruction
TP_PHON
p4337
(dp4338
g1762
I5
sg1759
I0
sg568
I456
sg1763
Vdress
p4339
sg51
g4305
sbasg51
g1654
sbsg1770
I1
sba(iconstruction
CXN
p4340
(dp4341
g1712
(iconstruction
TP_SYMLINKS
p4342
(dp4343
g1715
(dp4344
VN1_461
p4345
VS1_463
p4346
ssg568
I459
sg51
g1654
sbsg1721
VN
p4347
sg1723
I1
sg51
VTSHIRT
p4348
sg1724
(iconstruction
TP_SEMFRAME
p4349
(dp4350
g81
g0
(g82
g2
Ntp4351
Rp4352
(dp4353
g86
(dp4354
(iconstruction
TP_NODE
p4355
(dp4356
g1733
I01
sg70
g726
sg51
VENT_460
p4357
sg1734
I01
sg1735
I00
sg568
I460
sb(dp4358
g1734
I01
sg70
g726
ss(iconstruction
TP_NODE
p4359
(dp4360
g1733
I00
sg70
g768
sg51
g4345
sg1734
I00
sg1735
I00
sg568
I461
sb(dp4361
g1734
I00
sg70
g768
sssg269
g270
sg271
g270
sg272
(dp4362
g4355
(dp4363
g4359
(dp4364
g70
g717
sssg4359
(dp4365
ssg466
g4362
sg81
(dp4366
sg468
g270
sg469
g4362
sg470
(dp4367
g4355
(dp4368
sg4359
(dp4369
g4355
g4364
sssbsg563
(lp4370
g4355
ag4359
asg836
(lp4371
(iconstruction
TP_REL
p4372
(dp4373
g842
g4359
sg70
g717
sg568
I462
sg843
g4355
sg51
VIS_462
p4374
sbasg568
I457
sg51
g1654
sbsg1749
(iconstruction
TP_SYNFORM
p4375
(dp4376
g568
I458
sg1752
(lp4377
(iconstruction
TP_PHON
p4378
(dp4379
g1762
I6
sg1759
I0
sg568
I463
sg1763
Vt-shirt
p4380
sg51
g4346
sbasg51
g1654
sbsg1770
I1
sba(iconstruction
CXN
p4381
(dp4382
g1712
(iconstruction
TP_SYMLINKS
p4383
(dp4384
g1715
(dp4385
VN1_468
p4386
VS2_471
p4387
ssg568
I466
sg51
g1654
sbsg1721
VN
p4388
sg1723
I1
sg51
VBOXINGRING
p4389
sg1724
(iconstruction
TP_SEMFRAME
p4390
(dp4391
g81
g0
(g82
g2
Ntp4392
Rp4393
(dp4394
g86
(dp4395
(iconstruction
TP_NODE
p4396
(dp4397
g1733
I00
sg70
g825
sg51
g4386
sg1734
I00
sg1735
I00
sg568
I468
sb(dp4398
g1734
I00
sg70
g825
ss(iconstruction
TP_NODE
p4399
(dp4400
g1733
I01
sg70
g726
sg51
VENT_467
p4401
sg1734
I01
sg1735
I00
sg568
I467
sb(dp4402
g1734
I01
sg70
g726
sssg269
g270
sg271
g270
sg272
(dp4403
g4396
(dp4404
sg4399
(dp4405
g4396
(dp4406
g70
g717
ssssg466
g4403
sg81
(dp4407
sg468
g270
sg469
g4403
sg470
(dp4408
g4396
(dp4409
g4399
g4406
ssg4399
(dp4410
ssbsg563
(lp4411
g4399
ag4396
asg836
(lp4412
(iconstruction
TP_REL
p4413
(dp4414
g842
g4396
sg70
g717
sg568
I469
sg843
g4399
sg51
VIS_469
p4415
sbasg568
I464
sg51
g1654
sbsg1749
(iconstruction
TP_SYNFORM
p4416
(dp4417
g568
I465
sg1752
(lp4418
(iconstruction
TP_PHON
p4419
(dp4420
g1762
I6
sg1759
I0
sg568
I470
sg1763
Vboxing
p4421
sg51
VS1_470
p4422
sba(iconstruction
TP_PHON
p4423
(dp4424
g1762
I4
sg1759
I1
sg568
I471
sg1763
Vring
p4425
sg51
g4387
sbasg51
g1654
sbsg1770
I1
sba(iconstruction
CXN
p4426
(dp4427
g1712
(iconstruction
TP_SYMLINKS
p4428
(dp4429
g1715
(dp4430
VN1_476
p4431
VS1_478
p4432
ssg568
I474
sg51
g1654
sbsg1721
VN
p4433
sg1723
I1
sg51
VPARK
p4434
sg1724
(iconstruction
TP_SEMFRAME
p4435
(dp4436
g81
g0
(g82
g2
Ntp4437
Rp4438
(dp4439
g86
(dp4440
(iconstruction
TP_NODE
p4441
(dp4442
g1733
I00
sg70
g828
sg51
g4431
sg1734
I00
sg1735
I00
sg568
I476
sb(dp4443
g1734
I00
sg70
g828
ss(iconstruction
TP_NODE
p4444
(dp4445
g1733
I01
sg70
g726
sg51
VENT_475
p4446
sg1734
I01
sg1735
I00
sg568
I475
sb(dp4447
g1734
I01
sg70
g726
sssg269
g270
sg271
g270
sg272
(dp4448
g4441
(dp4449
sg4444
(dp4450
g4441
(dp4451
g70
g717
ssssg466
g4448
sg81
(dp4452
sg468
g270
sg469
g4448
sg470
(dp4453
g4441
(dp4454
g4444
g4451
ssg4444
(dp4455
ssbsg563
(lp4456
g4444
ag4441
asg836
(lp4457
(iconstruction
TP_REL
p4458
(dp4459
g842
g4441
sg70
g717
sg568
I477
sg843
g4444
sg51
VIS_477
p4460
sbasg568
I472
sg51
g1654
sbsg1749
(iconstruction
TP_SYNFORM
p4461
(dp4462
g568
I473
sg1752
(lp4463
(iconstruction
TP_PHON
p4464
(dp4465
g1762
I4
sg1759
I0
sg568
I478
sg1763
Vpark
p4466
sg51
g4432
sbasg51
g1654
sbsg1770
I1
sba(iconstruction
CXN
p4467
(dp4468
g1712
(iconstruction
TP_SYMLINKS
p4469
(dp4470
g1715
(dp4471
VN1_483
p4472
VS1_485
p4473
ssg568
I481
sg51
g1654
sbsg1721
VN
p4474
sg1723
I1
sg51
VSHIRT
p4475
sg1724
(iconstruction
TP_SEMFRAME
p4476
(dp4477
g81
g0
(g82
g2
Ntp4478
Rp4479
(dp4480
g86
(dp4481
(iconstruction
TP_NODE
p4482
(dp4483
g1733
I01
sg70
g726
sg51
VENT_482
p4484
sg1734
I01
sg1735
I00
sg568
I482
sb(dp4485
g1734
I01
sg70
g726
ss(iconstruction
TP_NODE
p4486
(dp4487
g1733
I00
sg70
g774
sg51
g4472
sg1734
I00
sg1735
I00
sg568
I483
sb(dp4488
g1734
I00
sg70
g774
sssg269
g270
sg271
g270
sg272
(dp4489
g4482
(dp4490
g4486
(dp4491
g70
g717
sssg4486
(dp4492
ssg466
g4489
sg81
(dp4493
sg468
g270
sg469
g4489
sg470
(dp4494
g4482
(dp4495
sg4486
(dp4496
g4482
g4491
sssbsg563
(lp4497
g4482
ag4486
asg836
(lp4498
(iconstruction
TP_REL
p4499
(dp4500
g842
g4486
sg70
g717
sg568
I484
sg843
g4482
sg51
VIS_484
p4501
sbasg568
I479
sg51
g1654
sbsg1749
(iconstruction
TP_SYNFORM
p4502
(dp4503
g568
I480
sg1752
(lp4504
(iconstruction
TP_PHON
p4505
(dp4506
g1762
I5
sg1759
I0
sg568
I485
sg1763
Vshirt
p4507
sg51
g4473
sbasg51
g1654
sbsg1770
I1
sba(iconstruction
CXN
p4508
(dp4509
g1712
(iconstruction
TP_SYMLINKS
p4510
(dp4511
g1715
(dp4512
VN1_490
p4513
VS1_492
p4514
ssg568
I488
sg51
g1654
sbsg1721
VN
p4515
sg1723
I1
sg51
VSUIT
p4516
sg1724
(iconstruction
TP_SEMFRAME
p4517
(dp4518
g81
g0
(g82
g2
Ntp4519
Rp4520
(dp4521
g86
(dp4522
(iconstruction
TP_NODE
p4523
(dp4524
g1733
I00
sg70
g777
sg51
g4513
sg1734
I00
sg1735
I00
sg568
I490
sb(dp4525
g1734
I00
sg70
g777
ss(iconstruction
TP_NODE
p4526
(dp4527
g1733
I01
sg70
g726
sg51
VENT_489
p4528
sg1734
I01
sg1735
I00
sg568
I489
sb(dp4529
g1734
I01
sg70
g726
sssg269
g270
sg271
g270
sg272
(dp4530
g4523
(dp4531
sg4526
(dp4532
g4523
(dp4533
g70
g717
ssssg466
g4530
sg81
(dp4534
sg468
g270
sg469
g4530
sg470
(dp4535
g4523
(dp4536
g4526
g4533
ssg4526
(dp4537
ssbsg563
(lp4538
g4526
ag4523
asg836
(lp4539
(iconstruction
TP_REL
p4540
(dp4541
g842
g4523
sg70
g717
sg568
I491
sg843
g4526
sg51
VIS_491
p4542
sbasg568
I486
sg51
g1654
sbsg1749
(iconstruction
TP_SYNFORM
p4543
(dp4544
g568
I487
sg1752
(lp4545
(iconstruction
TP_PHON
p4546
(dp4547
g1762
I4
sg1759
I0
sg568
I492
sg1763
Vsuit
p4548
sg51
g4514
sbasg51
g1654
sbsg1770
I1
sba(iconstruction
CXN
p4549
(dp4550
g1712
(iconstruction
TP_SYMLINKS
p4551
(dp4552
g1715
(dp4553
VN1_497
p4554
VS1_499
p4555
ssg568
I495
sg51
g1654
sbsg1721
VN
p4556
sg1723
I1
sg51
VCELLO
p4557
sg1724
(iconstruction
TP_SEMFRAME
p4558
(dp4559
g81
g0
(g82
g2
Ntp4560
Rp4561
(dp4562
g86
(dp4563
(iconstruction
TP_NODE
p4564
(dp4565
g1733
I00
sg70
g759
sg51
g4554
sg1734
I00
sg1735
I00
sg568
I497
sb(dp4566
g1734
I00
sg70
g759
ss(iconstruction
TP_NODE
p4567
(dp4568
g1733
I01
sg70
g726
sg51
VENT_496
p4569
sg1734
I01
sg1735
I00
sg568
I496
sb(dp4570
g1734
I01
sg70
g726
sssg269
g270
sg271
g270
sg272
(dp4571
g4564
(dp4572
sg4567
(dp4573
g4564
(dp4574
g70
g717
ssssg466
g4571
sg81
(dp4575
sg468
g270
sg469
g4571
sg470
(dp4576
g4564
(dp4577
g4567
g4574
ssg4567
(dp4578
ssbsg563
(lp4579
g4567
ag4564
asg836
(lp4580
(iconstruction
TP_REL
p4581
(dp4582
g842
g4564
sg70
g717
sg568
I498
sg843
g4567
sg51
VIS_498
p4583
sbasg568
I493
sg51
g1654
sbsg1749
(iconstruction
TP_SYNFORM
p4584
(dp4585
g568
I494
sg1752
(lp4586
(iconstruction
TP_PHON
p4587
(dp4588
g1762
I5
sg1759
I0
sg568
I499
sg1763
VCELLO
p4589
sg51
g4555
sbasg51
g1654
sbsg1770
I1
sba(iconstruction
CXN
p4590
(dp4591
g1712
(iconstruction
TP_SYMLINKS
p4592
(dp4593
g1715
(dp4594
VN1_504
p4595
VS1_506
p4596
ssg568
I502
sg51
g1654
sbsg1721
VN
p4597
sg1723
I1
sg51
VBAG
p4598
sg1724
(iconstruction
TP_SEMFRAME
p4599
(dp4600
g81
g0
(g82
g2
Ntp4601
Rp4602
(dp4603
g86
(dp4604
(iconstruction
TP_NODE
p4605
(dp4606
g1733
I01
sg70
g726
sg51
VENT_503
p4607
sg1734
I01
sg1735
I00
sg568
I503
sb(dp4608
g1734
I01
sg70
g726
ss(iconstruction
TP_NODE
p4609
(dp4610
g1733
I00
sg70
g750
sg51
g4595
sg1734
I00
sg1735
I00
sg568
I504
sb(dp4611
g1734
I00
sg70
g750
sssg269
g270
sg271
g270
sg272
(dp4612
g4605
(dp4613
g4609
(dp4614
g70
g717
sssg4609
(dp4615
ssg466
g4612
sg81
(dp4616
sg468
g270
sg469
g4612
sg470
(dp4617
g4605
(dp4618
sg4609
(dp4619
g4605
g4614
sssbsg563
(lp4620
g4605
ag4609
asg836
(lp4621
(iconstruction
TP_REL
p4622
(dp4623
g842
g4609
sg70
g717
sg568
I505
sg843
g4605
sg51
VIS_505
p4624
sbasg568
I500
sg51
g1654
sbsg1749
(iconstruction
TP_SYNFORM
p4625
(dp4626
g568
I501
sg1752
(lp4627
(iconstruction
TP_PHON
p4628
(dp4629
g1762
I3
sg1759
I0
sg568
I506
sg1763
Vbag
p4630
sg51
g4596
sbasg51
g1654
sbsg1770
I1
sba(iconstruction
CXN
p4631
(dp4632
g1712
(iconstruction
TP_SYMLINKS
p4633
(dp4634
g1715
(dp4635
VN1_511
p4636
VS2_514
p4637
ssg568
I509
sg51
g1654
sbsg1721
VN
p4638
sg1723
I1
sg51
VWATERING_CAN
p4639
sg1724
(iconstruction
TP_SEMFRAME
p4640
(dp4641
g81
g0
(g82
g2
Ntp4642
Rp4643
(dp4644
g86
(dp4645
(iconstruction
TP_NODE
p4646
(dp4647
g1733
I00
sg70
g747
sg51
g4636
sg1734
I00
sg1735
I00
sg568
I511
sb(dp4648
g1734
I00
sg70
g747
ss(iconstruction
TP_NODE
p4649
(dp4650
g1733
I01
sg70
g726
sg51
VENT_510
p4651
sg1734
I01
sg1735
I00
sg568
I510
sb(dp4652
g1734
I01
sg70
g726
sssg269
g270
sg271
g270
sg272
(dp4653
g4646
(dp4654
sg4649
(dp4655
g4646
(dp4656
g70
g717
ssssg466
g4653
sg81
(dp4657
sg468
g270
sg469
g4653
sg470
(dp4658
g4646
(dp4659
g4649
g4656
ssg4649
(dp4660
ssbsg563
(lp4661
g4649
ag4646
asg836
(lp4662
(iconstruction
TP_REL
p4663
(dp4664
g842
g4646
sg70
g717
sg568
I512
sg843
g4649
sg51
VIS_512
p4665
sbasg568
I507
sg51
g1654
sbsg1749
(iconstruction
TP_SYNFORM
p4666
(dp4667
g568
I508
sg1752
(lp4668
(iconstruction
TP_PHON
p4669
(dp4670
g1762
I8
sg1759
I0
sg568
I513
sg1763
Vwatering
p4671
sg51
VS1_513
p4672
sba(iconstruction
TP_PHON
p4673
(dp4674
g1762
I3
sg1759
I1
sg568
I514
sg1763
Vcan
p4675
sg51
g4637
sbasg51
g1654
sbsg1770
I1
sba(iconstruction
CXN
p4676
(dp4677
g1712
(iconstruction
TP_SYMLINKS
p4678
(dp4679
g1715
(dp4680
VN1_519
p4681
VS1_521
p4682
ssg568
I517
sg51
g1654
sbsg1721
VN
p4683
sg1723
I1
sg51
VBALLERINA
p4684
sg1724
(iconstruction
TP_SEMFRAME
p4685
(dp4686
g81
g0
(g82
g2
Ntp4687
Rp4688
(dp4689
g86
(dp4690
(iconstruction
TP_NODE
p4691
(dp4692
g1733
I00
sg70
g804
sg51
g4681
sg1734
I00
sg1735
I00
sg568
I519
sb(dp4693
g1734
I00
sg70
g804
ss(iconstruction
TP_NODE
p4694
(dp4695
g1733
I01
sg70
g726
sg51
VENT_518
p4696
sg1734
I01
sg1735
I00
sg568
I518
sb(dp4697
g1734
I01
sg70
g726
sssg269
g270
sg271
g270
sg272
(dp4698
g4691
(dp4699
sg4694
(dp4700
g4691
(dp4701
g70
g717
ssssg466
g4698
sg81
(dp4702
sg468
g270
sg469
g4698
sg470
(dp4703
g4691
(dp4704
g4694
g4701
ssg4694
(dp4705
ssbsg563
(lp4706
g4694
ag4691
asg836
(lp4707
(iconstruction
TP_REL
p4708
(dp4709
g842
g4691
sg70
g717
sg568
I520
sg843
g4694
sg51
VIS_520
p4710
sbasg568
I515
sg51
g1654
sbsg1749
(iconstruction
TP_SYNFORM
p4711
(dp4712
g568
I516
sg1752
(lp4713
(iconstruction
TP_PHON
p4714
(dp4715
g1762
I9
sg1759
I0
sg568
I521
sg1763
Vballerina
p4716
sg51
g4682
sbasg51
g1654
sbsg1770
I1
sba(iconstruction
CXN
p4717
(dp4718
g1712
(iconstruction
TP_SYMLINKS
p4719
(dp4720
g1715
(dp4721
VN1_526
p4722
VS1_528
p4723
ssg568
I524
sg51
g1654
sbsg1721
VN
p4724
sg1723
I1
sg51
VCELLIST
p4725
sg1724
(iconstruction
TP_SEMFRAME
p4726
(dp4727
g81
g0
(g82
g2
Ntp4728
Rp4729
(dp4730
g86
(dp4731
(iconstruction
TP_NODE
p4732
(dp4733
g1733
I01
sg70
g726
sg51
VENT_525
p4734
sg1734
I01
sg1735
I00
sg568
I525
sb(dp4735
g1734
I01
sg70
g726
ss(iconstruction
TP_NODE
p4736
(dp4737
g1733
I00
sg70
g807
sg51
g4722
sg1734
I00
sg1735
I00
sg568
I526
sb(dp4738
g1734
I00
sg70
g807
sssg269
g270
sg271
g270
sg272
(dp4739
g4732
(dp4740
g4736
(dp4741
g70
g717
sssg4736
(dp4742
ssg466
g4739
sg81
(dp4743
sg468
g270
sg469
g4739
sg470
(dp4744
g4732
(dp4745
sg4736
(dp4746
g4732
g4741
sssbsg563
(lp4747
g4732
ag4736
asg836
(lp4748
(iconstruction
TP_REL
p4749
(dp4750
g842
g4736
sg70
g717
sg568
I527
sg843
g4732
sg51
VIS_527
p4751
sbasg568
I522
sg51
g1654
sbsg1749
(iconstruction
TP_SYNFORM
p4752
(dp4753
g568
I523
sg1752
(lp4754
(iconstruction
TP_PHON
p4755
(dp4756
g1762
I7
sg1759
I0
sg568
I528
sg1763
Vcellist
p4757
sg51
g4723
sbasg51
g1654
sbsg1770
I1
sba(iconstruction
CXN
p4758
(dp4759
g1712
(iconstruction
TP_SYMLINKS
p4760
(dp4761
g1715
(dp4762
VN1_533
p4763
VS1_535
p4764
ssg568
I531
sg51
g1654
sbsg1721
VN
p4765
sg1723
I1
sg51
VFENCER
p4766
sg1724
(iconstruction
TP_SEMFRAME
p4767
(dp4768
g81
g0
(g82
g2
Ntp4769
Rp4770
(dp4771
g86
(dp4772
(iconstruction
TP_NODE
p4773
(dp4774
g1733
I00
sg70
g813
sg51
g4763
sg1734
I00
sg1735
I00
sg568
I533
sb(dp4775
g1734
I00
sg70
g813
ss(iconstruction
TP_NODE
p4776
(dp4777
g1733
I01
sg70
g726
sg51
VENT_532
p4778
sg1734
I01
sg1735
I00
sg568
I532
sb(dp4779
g1734
I01
sg70
g726
sssg269
g270
sg271
g270
sg272
(dp4780
g4773
(dp4781
sg4776
(dp4782
g4773
(dp4783
g70
g717
ssssg466
g4780
sg81
(dp4784
sg468
g270
sg469
g4780
sg470
(dp4785
g4773
(dp4786
g4776
g4783
ssg4776
(dp4787
ssbsg563
(lp4788
g4776
ag4773
asg836
(lp4789
(iconstruction
TP_REL
p4790
(dp4791
g842
g4773
sg70
g717
sg568
I534
sg843
g4776
sg51
VIS_534
p4792
sbasg568
I529
sg51
g1654
sbsg1749
(iconstruction
TP_SYNFORM
p4793
(dp4794
g568
I530
sg1752
(lp4795
(iconstruction
TP_PHON
p4796
(dp4797
g1762
I6
sg1759
I0
sg568
I535
sg1763
Vfencer
p4798
sg51
g4764
sbasg51
g1654
sbsg1770
I1
sba(iconstruction
CXN
p4799
(dp4800
g1712
(iconstruction
TP_SYMLINKS
p4801
(dp4802
g1715
(dp4803
VN1_540
p4804
VS1_542
p4805
ssg568
I538
sg51
g1654
sbsg1721
VN
p4806
sg1723
I1
sg51
VROBBER
p4807
sg1724
(iconstruction
TP_SEMFRAME
p4808
(dp4809
g81
g0
(g82
g2
Ntp4810
Rp4811
(dp4812
g86
(dp4813
(iconstruction
TP_NODE
p4814
(dp4815
g1733
I00
sg70
g816
sg51
g4804
sg1734
I00
sg1735
I00
sg568
I540
sb(dp4816
g1734
I00
sg70
g816
ss(iconstruction
TP_NODE
p4817
(dp4818
g1733
I01
sg70
g726
sg51
VENT_539
p4819
sg1734
I01
sg1735
I00
sg568
I539
sb(dp4820
g1734
I01
sg70
g726
sssg269
g270
sg271
g270
sg272
(dp4821
g4814
(dp4822
sg4817
(dp4823
g4814
(dp4824
g70
g717
ssssg466
g4821
sg81
(dp4825
sg468
g270
sg469
g4821
sg470
(dp4826
g4814
(dp4827
g4817
g4824
ssg4817
(dp4828
ssbsg563
(lp4829
g4817
ag4814
asg836
(lp4830
(iconstruction
TP_REL
p4831
(dp4832
g842
g4814
sg70
g717
sg568
I541
sg843
g4817
sg51
VIS_541
p4833
sbasg568
I536
sg51
g1654
sbsg1749
(iconstruction
TP_SYNFORM
p4834
(dp4835
g568
I537
sg1752
(lp4836
(iconstruction
TP_PHON
p4837
(dp4838
g1762
I5
sg1759
I0
sg568
I542
sg1763
Vthief
p4839
sg51
g4805
sbasg51
g1654
sbsg1770
I1
sba(iconstruction
CXN
p4840
(dp4841
g1712
(iconstruction
TP_SYMLINKS
p4842
(dp4843
g1715
(dp4844
VN1_547
p4845
VS1_549
p4846
ssg568
I545
sg51
g1654
sbsg1721
VN
p4847
sg1723
I1
sg51
VPOLICEMAN
p4848
sg1724
(iconstruction
TP_SEMFRAME
p4849
(dp4850
g81
g0
(g82
g2
Ntp4851
Rp4852
(dp4853
g86
(dp4854
(iconstruction
TP_NODE
p4855
(dp4856
g1733
I01
sg70
g726
sg51
VENT_546
p4857
sg1734
I01
sg1735
I00
sg568
I546
sb(dp4858
g1734
I01
sg70
g726
ss(iconstruction
TP_NODE
p4859
(dp4860
g1733
I00
sg70
g798
sg51
g4845
sg1734
I00
sg1735
I00
sg568
I547
sb(dp4861
g1734
I00
sg70
g798
sssg269
g270
sg271
g270
sg272
(dp4862
g4855
(dp4863
g4859
(dp4864
g70
g717
sssg4859
(dp4865
ssg466
g4862
sg81
(dp4866
sg468
g270
sg469
g4862
sg470
(dp4867
g4855
(dp4868
sg4859
(dp4869
g4855
g4864
sssbsg563
(lp4870
g4855
ag4859
asg836
(lp4871
(iconstruction
TP_REL
p4872
(dp4873
g842
g4859
sg70
g717
sg568
I548
sg843
g4855
sg51
VIS_548
p4874
sbasg568
I543
sg51
g1654
sbsg1749
(iconstruction
TP_SYNFORM
p4875
(dp4876
g568
I544
sg1752
(lp4877
(iconstruction
TP_PHON
p4878
(dp4879
g1762
I9
sg1759
I0
sg568
I549
sg1763
Vpoliceman
p4880
sg51
g4846
sbasg51
g1654
sbsg1770
I1
sba(iconstruction
CXN
p4881
(dp4882
g1712
(iconstruction
TP_SYMLINKS
p4883
(dp4884
g1715
(dp4885
VN1_554
p4886
VS1_556
p4887
ssg568
I552
sg51
g1654
sbsg1721
VN
p4888
sg1723
I1
sg51
VHUNTER
p4889
sg1724
(iconstruction
TP_SEMFRAME
p4890
(dp4891
g81
g0
(g82
g2
Ntp4892
Rp4893
(dp4894
g86
(dp4895
(iconstruction
TP_NODE
p4896
(dp4897
g1733
I00
sg70
g801
sg51
g4886
sg1734
I00
sg1735
I00
sg568
I554
sb(dp4898
g1734
I00
sg70
g801
ss(iconstruction
TP_NODE
p4899
(dp4900
g1733
I01
sg70
g726
sg51
VENT_553
p4901
sg1734
I01
sg1735
I00
sg568
I553
sb(dp4902
g1734
I01
sg70
g726
sssg269
g270
sg271
g270
sg272
(dp4903
g4896
(dp4904
sg4899
(dp4905
g4896
(dp4906
g70
g717
ssssg466
g4903
sg81
(dp4907
sg468
g270
sg469
g4903
sg470
(dp4908
g4896
(dp4909
g4899
g4906
ssg4899
(dp4910
ssbsg563
(lp4911
g4899
ag4896
asg836
(lp4912
(iconstruction
TP_REL
p4913
(dp4914
g842
g4896
sg70
g717
sg568
I555
sg843
g4899
sg51
VIS_555
p4915
sbasg568
I550
sg51
g1654
sbsg1749
(iconstruction
TP_SYNFORM
p4916
(dp4917
g568
I551
sg1752
(lp4918
(iconstruction
TP_PHON
p4919
(dp4920
g1762
I6
sg1759
I0
sg568
I556
sg1763
Vhunter
p4921
sg51
g4887
sbasg51
g1654
sbsg1770
I1
sba(iconstruction
CXN
p4922
(dp4923
g1712
(iconstruction
TP_SYMLINKS
p4924
(dp4925
g1715
(dp4926
VN1_561
p4927
VS1_563
p4928
ssg568
I559
sg51
g1654
sbsg1721
VN
p4929
sg1723
I1
sg51
VDOG
p4930
sg1724
(iconstruction
TP_SEMFRAME
p4931
(dp4932
g81
g0
(g82
g2
Ntp4933
Rp4934
(dp4935
g86
(dp4936
(iconstruction
TP_NODE
p4937
(dp4938
g1733
I01
sg70
g726
sg51
VENT_560
p4939
sg1734
I01
sg1735
I00
sg568
I560
sb(dp4940
g1734
I01
sg70
g726
ss(iconstruction
TP_NODE
p4941
(dp4942
g1733
I00
sg70
g786
sg51
g4927
sg1734
I00
sg1735
I00
sg568
I561
sb(dp4943
g1734
I00
sg70
g786
sssg269
g270
sg271
g270
sg272
(dp4944
g4937
(dp4945
g4941
(dp4946
g70
g717
sssg4941
(dp4947
ssg466
g4944
sg81
(dp4948
sg468
g270
sg469
g4944
sg470
(dp4949
g4937
(dp4950
sg4941
(dp4951
g4937
g4946
sssbsg563
(lp4952
g4937
ag4941
asg836
(lp4953
(iconstruction
TP_REL
p4954
(dp4955
g842
g4941
sg70
g717
sg568
I562
sg843
g4937
sg51
VIS_562
p4956
sbasg568
I557
sg51
g1654
sbsg1749
(iconstruction
TP_SYNFORM
p4957
(dp4958
g568
I558
sg1752
(lp4959
(iconstruction
TP_PHON
p4960
(dp4961
g1762
I3
sg1759
I0
sg568
I563
sg1763
Vdog
p4962
sg51
g4928
sbasg51
g1654
sbsg1770
I1
sba(iconstruction
CXN
p4963
(dp4964
g1712
(iconstruction
TP_SYMLINKS
p4965
(dp4966
g1715
(dp4967
VN1_568
p4968
VS1_570
p4969
ssg568
I566
sg51
g1654
sbsg1721
VN
p4970
sg1723
I1
sg51
VHOOK
p4971
sg1724
(iconstruction
TP_SEMFRAME
p4972
(dp4973
g81
g0
(g82
g2
Ntp4974
Rp4975
(dp4976
g86
(dp4977
(iconstruction
TP_NODE
p4978
(dp4979
g1733
I00
sg70
g756
sg51
g4968
sg1734
I00
sg1735
I00
sg568
I568
sb(dp4980
g1734
I00
sg70
g756
ss(iconstruction
TP_NODE
p4981
(dp4982
g1733
I01
sg70
g726
sg51
VENT_567
p4983
sg1734
I01
sg1735
I00
sg568
I567
sb(dp4984
g1734
I01
sg70
g726
sssg269
g270
sg271
g270
sg272
(dp4985
g4978
(dp4986
sg4981
(dp4987
g4978
(dp4988
g70
g717
ssssg466
g4985
sg81
(dp4989
sg468
g270
sg469
g4985
sg470
(dp4990
g4978
(dp4991
g4981
g4988
ssg4981
(dp4992
ssbsg563
(lp4993
g4981
ag4978
asg836
(lp4994
(iconstruction
TP_REL
p4995
(dp4996
g842
g4978
sg70
g717
sg568
I569
sg843
g4981
sg51
VIS_569
p4997
sbasg568
I564
sg51
g1654
sbsg1749
(iconstruction
TP_SYNFORM
p4998
(dp4999
g568
I565
sg1752
(lp5000
(iconstruction
TP_PHON
p5001
(dp5002
g1762
I4
sg1759
I0
sg568
I570
sg1763
Vhook
p5003
sg51
g4969
sbasg51
g1654
sbsg1770
I1
sba(iconstruction
CXN
p5004
(dp5005
g1712
(iconstruction
TP_SYMLINKS
p5006
(dp5007
g1715
(dp5008
VN1_575
p5009
VS1_577
p5010
ssg568
I573
sg51
g1654
sbsg1721
VN
p5011
sg1723
I1
sg51
VBOOKSHELF
p5012
sg1724
(iconstruction
TP_SEMFRAME
p5013
(dp5014
g81
g0
(g82
g2
Ntp5015
Rp5016
(dp5017
g86
(dp5018
(iconstruction
TP_NODE
p5019
(dp5020
g1733
I00
sg70
g762
sg51
g5009
sg1734
I00
sg1735
I00
sg568
I575
sb(dp5021
g1734
I00
sg70
g762
ss(iconstruction
TP_NODE
p5022
(dp5023
g1733
I01
sg70
g726
sg51
VENT_574
p5024
sg1734
I01
sg1735
I00
sg568
I574
sb(dp5025
g1734
I01
sg70
g726
sssg269
g270
sg271
g270
sg272
(dp5026
g5019
(dp5027
sg5022
(dp5028
g5019
(dp5029
g70
g717
ssssg466
g5026
sg81
(dp5030
sg468
g270
sg469
g5026
sg470
(dp5031
g5019
(dp5032
g5022
g5029
ssg5022
(dp5033
ssbsg563
(lp5034
g5022
ag5019
asg836
(lp5035
(iconstruction
TP_REL
p5036
(dp5037
g842
g5019
sg70
g717
sg568
I576
sg843
g5022
sg51
VIS_576
p5038
sbasg568
I571
sg51
g1654
sbsg1749
(iconstruction
TP_SYNFORM
p5039
(dp5040
g568
I572
sg1752
(lp5041
(iconstruction
TP_PHON
p5042
(dp5043
g1762
I9
sg1759
I0
sg568
I577
sg1763
Vbookshelf
p5044
sg51
g5010
sbasg51
g1654
sbsg1770
I1
sba(iconstruction
CXN
p5045
(dp5046
g1712
(iconstruction
TP_SYMLINKS
p5047
(dp5048
g1715
(dp5049
VN1_582
p5050
VS1_584
p5051
ssg568
I580
sg51
g1654
sbsg1721
VN
p5052
sg1723
I1
sg51
VWAGON
p5053
sg1724
(iconstruction
TP_SEMFRAME
p5054
(dp5055
g81
g0
(g82
g2
Ntp5056
Rp5057
(dp5058
g86
(dp5059
(iconstruction
TP_NODE
p5060
(dp5061
g1733
I01
sg70
g726
sg51
VENT_581
p5062
sg1734
I01
sg1735
I00
sg568
I581
sb(dp5063
g1734
I01
sg70
g726
ss(iconstruction
TP_NODE
p5064
(dp5065
g1733
I00
sg70
g744
sg51
g5050
sg1734
I00
sg1735
I00
sg568
I582
sb(dp5066
g1734
I00
sg70
g744
sssg269
g270
sg271
g270
sg272
(dp5067
g5060
(dp5068
g5064
(dp5069
g70
g717
sssg5064
(dp5070
ssg466
g5067
sg81
(dp5071
sg468
g270
sg469
g5067
sg470
(dp5072
g5060
(dp5073
sg5064
(dp5074
g5060
g5069
sssbsg563
(lp5075
g5060
ag5064
asg836
(lp5076
(iconstruction
TP_REL
p5077
(dp5078
g842
g5064
sg70
g717
sg568
I583
sg843
g5060
sg51
VIS_583
p5079
sbasg568
I578
sg51
g1654
sbsg1749
(iconstruction
TP_SYNFORM
p5080
(dp5081
g568
I579
sg1752
(lp5082
(iconstruction
TP_PHON
p5083
(dp5084
g1762
I5
sg1759
I0
sg568
I584
sg1763
Vwagon
p5085
sg51
g5051
sbasg51
g1654
sbsg1770
I1
sba(iconstruction
CXN
p5086
(dp5087
g1712
(iconstruction
TP_SYMLINKS
p5088
(dp5089
g1715
(dp5090
VN1_589
p5091
VS1_591
p5092
ssg568
I587
sg51
g1654
sbsg1721
VN
p5093
sg1723
I1
sg51
VTREE
p5094
sg1724
(iconstruction
TP_SEMFRAME
p5095
(dp5096
g81
g0
(g82
g2
Ntp5097
Rp5098
(dp5099
g86
(dp5100
(iconstruction
TP_NODE
p5101
(dp5102
g1733
I00
sg70
g753
sg51
g5091
sg1734
I00
sg1735
I00
sg568
I589
sb(dp5103
g1734
I00
sg70
g753
ss(iconstruction
TP_NODE
p5104
(dp5105
g1733
I01
sg70
g726
sg51
VENT_588
p5106
sg1734
I01
sg1735
I00
sg568
I588
sb(dp5107
g1734
I01
sg70
g726
sssg269
g270
sg271
g270
sg272
(dp5108
g5101
(dp5109
sg5104
(dp5110
g5101
(dp5111
g70
g717
ssssg466
g5108
sg81
(dp5112
sg468
g270
sg469
g5108
sg470
(dp5113
g5101
(dp5114
g5104
g5111
ssg5104
(dp5115
ssbsg563
(lp5116
g5104
ag5101
asg836
(lp5117
(iconstruction
TP_REL
p5118
(dp5119
g842
g5101
sg70
g717
sg568
I590
sg843
g5104
sg51
VIS_590
p5120
sbasg568
I585
sg51
g1654
sbsg1749
(iconstruction
TP_SYNFORM
p5121
(dp5122
g568
I586
sg1752
(lp5123
(iconstruction
TP_PHON
p5124
(dp5125
g1762
I4
sg1759
I0
sg568
I591
sg1763
Vtree
p5126
sg51
g5092
sbasg51
g1654
sbsg1770
I1
sbasbsg51
g1667
sg53
(lp5127
g0
(g55
g2
Ntp5128
Rp5129
(dp5130
g1557
Nsg51
g1563
sg60
Nsg61
Nsg1559
Nsg278
g1502
sg568
I20
sg1503
g1773
sbag0
(g55
g2
Ntp5131
Rp5132
(dp5133
g51
S'to_cxn_retrieval_C'
p5134
sg60
Nsg61
g1704
sg278
g1502
sg568
I21
sg1503
g1773
sbasg1508
(dp5135
g1563
Nsg5134
Nssg1510
(lp5136
sg1513
F1.0
sg1514
(lp5137
sg1516
(dp5138
g1141
F0.3
ssg1518
I0
sg1519
I0
sg1139
g1522
sg568
I4
sS'schemas'
p5139
g1704
sbsg1141
F0.3
sbag0
(g1705
g2
Ntp5140
Rp5141
(dp5142
g51
g1791
sg68
g1781
sg1139
Nsg568
I100
sg1140
g1773
sg1141
F0.3
sbag0
(g1705
g2
Ntp5143
Rp5144
(dp5145
g51
g1842
sg68
g1832
sg1139
Nsg568
I101
sg1140
g1773
sg1141
F0.3
sbag0
(g1705
g2
Ntp5146
Rp5147
(dp5148
g51
g1895
sg68
g1883
sg1139
Nsg568
I102
sg1140
g1773
sg1141
F0.3
sbag0
(g1705
g2
Ntp5149
Rp5150
(dp5151
g51
g1974
sg68
g1962
sg1139
Nsg568
I103
sg1140
g1773
sg1141
F0.3
sbag0
(g1705
g2
Ntp5152
Rp5153
(dp5154
g51
g2049
sg68
g2037
sg1139
Nsg568
I104
sg1140
g1773
sg1141
F0.3
sbag0
(g1705
g2
Ntp5155
Rp5156
(dp5157
g51
g2138
sg68
g2124
sg1139
Nsg568
I105
sg1140
g1773
sg1141
F0.3
sbag0
(g1705
g2
Ntp5158
Rp5159
(dp5160
g51
g2229
sg68
g2215
sg1139
Nsg568
I106
sg1140
g1773
sg1141
F0.3
sbag0
(g1705
g2
Ntp5161
Rp5162
(dp5163
g51
g2320
sg68
g2310
sg1139
Nsg568
I107
sg1140
g1773
sg1141
F0.3
sbag0
(g1705
g2
Ntp5164
Rp5165
(dp5166
g51
g2382
sg68
g2372
sg1139
Nsg568
I108
sg1140
g1773
sg1141
F0.3
sbag0
(g1705
g2
Ntp5167
Rp5168
(dp5169
g51
g2441
sg68
g2431
sg1139
Nsg568
I109
sg1140
g1773
sg1141
F0.3
sbag0
(g1705
g2
Ntp5170
Rp5171
(dp5172
g51
g2493
sg68
g2483
sg1139
Nsg568
I110
sg1140
g1773
sg1141
F0.3
sbag0
(g1705
g2
Ntp5173
Rp5174
(dp5175
g51
g2540
sg68
g2530
sg1139
Nsg568
I111
sg1140
g1773
sg1141
F0.3
sbag0
(g1705
g2
Ntp5176
Rp5177
(dp5178
g51
g2589
sg68
g2577
sg1139
Nsg568
I112
sg1140
g1773
sg1141
F0.3
sbag0
(g1705
g2
Ntp5179
Rp5180
(dp5181
g51
g2669
sg68
g2659
sg1139
Nsg568
I113
sg1140
g1773
sg1141
F0.3
sbag0
(g1705
g2
Ntp5182
Rp5183
(dp5184
g51
g2737
sg68
g2725
sg1139
Nsg568
I114
sg1140
g1773
sg1141
F0.3
sbag0
(g1705
g2
Ntp5185
Rp5186
(dp5187
g51
g2831
sg68
g2819
sg1139
Nsg568
I115
sg1140
g1773
sg1141
F0.3
sbag0
(g1705
g2
Ntp5188
Rp5189
(dp5190
g51
g2913
sg68
g2901
sg1139
Nsg568
I116
sg1140
g1773
sg1141
F0.3
sbag0
(g1705
g2
Ntp5191
Rp5192
(dp5193
g51
g3005
sg68
g2995
sg1139
Nsg568
I117
sg1140
g1773
sg1141
F0.3
sbag0
(g1705
g2
Ntp5194
Rp5195
(dp5196
g51
g3070
sg68
g3060
sg1139
Nsg568
I118
sg1140
g1773
sg1141
F0.3
sbag0
(g1705
g2
Ntp5197
Rp5198
(dp5199
g51
g3149
sg68
g3141
sg1139
Nsg568
I119
sg1140
g1773
sg1141
F0.3
sbag0
(g1705
g2
Ntp5200
Rp5201
(dp5202
g51
g3190
sg68
g3182
sg1139
Nsg568
I120
sg1140
g1773
sg1141
F0.3
sbag0
(g1705
g2
Ntp5203
Rp5204
(dp5205
g51
g3231
sg68
g3223
sg1139
Nsg568
I121
sg1140
g1773
sg1141
F0.3
sbag0
(g1705
g2
Ntp5206
Rp5207
(dp5208
g51
g3272
sg68
g3264
sg1139
Nsg568
I122
sg1140
g1773
sg1141
F0.3
sbag0
(g1705
g2
Ntp5209
Rp5210
(dp5211
g51
g3313
sg68
g3305
sg1139
Nsg568
I123
sg1140
g1773
sg1141
F0.3
sbag0
(g1705
g2
Ntp5212
Rp5213
(dp5214
g51
g3354
sg68
g3346
sg1139
Nsg568
I124
sg1140
g1773
sg1141
F0.3
sbag0
(g1705
g2
Ntp5215
Rp5216
(dp5217
g51
g3395
sg68
g3387
sg1139
Nsg568
I125
sg1140
g1773
sg1141
F0.3
sbag0
(g1705
g2
Ntp5218
Rp5219
(dp5220
g51
g3440
sg68
g3432
sg1139
Nsg568
I126
sg1140
g1773
sg1141
F0.3
sbag0
(g1705
g2
Ntp5221
Rp5222
(dp5223
g51
g3485
sg68
g3477
sg1139
Nsg568
I127
sg1140
g1773
sg1141
F0.3
sbag0
(g1705
g2
Ntp5224
Rp5225
(dp5226
g51
g3526
sg68
g3518
sg1139
Nsg568
I128
sg1140
g1773
sg1141
F0.3
sbag0
(g1705
g2
Ntp5227
Rp5228
(dp5229
g51
g3567
sg68
g3559
sg1139
Nsg568
I129
sg1140
g1773
sg1141
F0.3
sbag0
(g1705
g2
Ntp5230
Rp5231
(dp5232
g51
g3608
sg68
g3600
sg1139
Nsg568
I130
sg1140
g1773
sg1141
F0.3
sbag0
(g1705
g2
Ntp5233
Rp5234
(dp5235
g51
g3649
sg68
g3641
sg1139
Nsg568
I131
sg1140
g1773
sg1141
F0.3
sbag0
(g1705
g2
Ntp5236
Rp5237
(dp5238
g51
g3690
sg68
g3682
sg1139
Nsg568
I132
sg1140
g1773
sg1141
F0.3
sbag0
(g1705
g2
Ntp5239
Rp5240
(dp5241
g51
g3731
sg68
g3723
sg1139
Nsg568
I133
sg1140
g1773
sg1141
F0.3
sbag0
(g1705
g2
Ntp5242
Rp5243
(dp5244
g51
g3762
sg68
g3754
sg1139
Nsg568
I134
sg1140
g1773
sg1141
F0.3
sbag0
(g1705
g2
Ntp5245
Rp5246
(dp5247
g51
g3793
sg68
g3785
sg1139
Nsg568
I135
sg1140
g1773
sg1141
F0.3
sbag0
(g1705
g2
Ntp5248
Rp5249
(dp5250
g51
g3824
sg68
g3816
sg1139
Nsg568
I136
sg1140
g1773
sg1141
F0.3
sbag0
(g1705
g2
Ntp5251
Rp5252
(dp5253
g51
g3855
sg68
g3847
sg1139
Nsg568
I137
sg1140
g1773
sg1141
F0.3
sbag0
(g1705
g2
Ntp5254
Rp5255
(dp5256
g51
g3886
sg68
g3878
sg1139
Nsg568
I138
sg1140
g1773
sg1141
F0.3
sbag0
(g1705
g2
Ntp5257
Rp5258
(dp5259
g51
g3917
sg68
g3909
sg1139
Nsg568
I139
sg1140
g1773
sg1141
F0.3
sbag0
(g1705
g2
Ntp5260
Rp5261
(dp5262
g51
g3948
sg68
g3940
sg1139
Nsg568
I140
sg1140
g1773
sg1141
F0.3
sbag0
(g1705
g2
Ntp5263
Rp5264
(dp5265
g51
g3979
sg68
g3971
sg1139
Nsg568
I141
sg1140
g1773
sg1141
F0.3
sbag0
(g1705
g2
Ntp5266
Rp5267
(dp5268
g51
g4020
sg68
g4012
sg1139
Nsg568
I142
sg1140
g1773
sg1141
F0.3
sbag0
(g1705
g2
Ntp5269
Rp5270
(dp5271
g51
g4061
sg68
g4053
sg1139
Nsg568
I143
sg1140
g1773
sg1141
F0.3
sbag0
(g1705
g2
Ntp5272
Rp5273
(dp5274
g51
g4102
sg68
g4094
sg1139
Nsg568
I144
sg1140
g1773
sg1141
F0.3
sbag0
(g1705
g2
Ntp5275
Rp5276
(dp5277
g51
g4143
sg68
g4135
sg1139
Nsg568
I145
sg1140
g1773
sg1141
F0.3
sbag0
(g1705
g2
Ntp5278
Rp5279
(dp5280
g51
g4184
sg68
g4176
sg1139
Nsg568
I146
sg1140
g1773
sg1141
F0.3
sbag0
(g1705
g2
Ntp5281
Rp5282
(dp5283
g51
g4225
sg68
g4217
sg1139
Nsg568
I147
sg1140
g1773
sg1141
F0.3
sbag0
(g1705
g2
Ntp5284
Rp5285
(dp5286
g51
g4266
sg68
g4258
sg1139
Nsg568
I148
sg1140
g1773
sg1141
F0.3
sbag0
(g1705
g2
Ntp5287
Rp5288
(dp5289
g51
g4307
sg68
g4299
sg1139
Nsg568
I149
sg1140
g1773
sg1141
F0.3
sbag0
(g1705
g2
Ntp5290
Rp5291
(dp5292
g51
g4348
sg68
g4340
sg1139
Nsg568
I150
sg1140
g1773
sg1141
F0.3
sbag0
(g1705
g2
Ntp5293
Rp5294
(dp5295
g51
g4389
sg68
g4381
sg1139
Nsg568
I151
sg1140
g1773
sg1141
F0.3
sbag0
(g1705
g2
Ntp5296
Rp5297
(dp5298
g51
g4434
sg68
g4426
sg1139
Nsg568
I152
sg1140
g1773
sg1141
F0.3
sbag0
(g1705
g2
Ntp5299
Rp5300
(dp5301
g51
g4475
sg68
g4467
sg1139
Nsg568
I153
sg1140
g1773
sg1141
F0.3
sbag0
(g1705
g2
Ntp5302
Rp5303
(dp5304
g51
g4516
sg68
g4508
sg1139
Nsg568
I154
sg1140
g1773
sg1141
F0.3
sbag0
(g1705
g2
Ntp5305
Rp5306
(dp5307
g51
g4557
sg68
g4549
sg1139
Nsg568
I155
sg1140
g1773
sg1141
F0.3
sbag0
(g1705
g2
Ntp5308
Rp5309
(dp5310
g51
g4598
sg68
g4590
sg1139
Nsg568
I156
sg1140
g1773
sg1141
F0.3
sbag0
(g1705
g2
Ntp5311
Rp5312
(dp5313
g51
g4639
sg68
g4631
sg1139
Nsg568
I157
sg1140
g1773
sg1141
F0.3
sbag0
(g1705
g2
Ntp5314
Rp5315
(dp5316
g51
g4684
sg68
g4676
sg1139
Nsg568
I158
sg1140
g1773
sg1141
F0.3
sbag0
(g1705
g2
Ntp5317
Rp5318
(dp5319
g51
g4725
sg68
g4717
sg1139
Nsg568
I159
sg1140
g1773
sg1141
F0.3
sbag0
(g1705
g2
Ntp5320
Rp5321
(dp5322
g51
g4766
sg68
g4758
sg1139
Nsg568
I160
sg1140
g1773
sg1141
F0.3
sbag0
(g1705
g2
Ntp5323
Rp5324
(dp5325
g51
g4807
sg68
g4799
sg1139
Nsg568
I161
sg1140
g1773
sg1141
F0.3
sbag0
(g1705
g2
Ntp5326
Rp5327
(dp5328
g51
g4848
sg68
g4840
sg1139
Nsg568
I162
sg1140
g1773
sg1141
F0.3
sbag0
(g1705
g2
Ntp5329
Rp5330
(dp5331
g51
g4889
sg68
g4881
sg1139
Nsg568
I163
sg1140
g1773
sg1141
F0.3
sbag0
(g1705
g2
Ntp5332
Rp5333
(dp5334
g51
g4930
sg68
g4922
sg1139
Nsg568
I164
sg1140
g1773
sg1141
F0.3
sbag0
(g1705
g2
Ntp5335
Rp5336
(dp5337
g51
g4971
sg68
g4963
sg1139
Nsg568
I165
sg1140
g1773
sg1141
F0.3
sbag0
(g1705
g2
Ntp5338
Rp5339
(dp5340
g51
g5012
sg68
g5004
sg1139
Nsg568
I166
sg1140
g1773
sg1141
F0.3
sbag0
(g1705
g2
Ntp5341
Rp5342
(dp5343
g51
g5053
sg68
g5045
sg1139
Nsg568
I167
sg1140
g1773
sg1141
F0.3
sbag0
(g1705
g2
Ntp5344
Rp5345
(dp5346
g51
g5094
sg68
g5086
sg1139
Nsg568
I168
sg1140
g1773
sg1141
F0.3
sbasg1559
Nsg278
g1538
sg568
I22
sg1503
g1689
sbag1684
asg1516
(dp5347
sg1518
I0
sg1519
I0
sg1139
g1522
sg568
I5
sbsbsS'port_from'
p5348
g1561
sg1139
g1522
sg568
I1
sbag0
(g1676
g2
Ntp5349
Rp5350
(dp5351
g1680
I0
sg51
g1654
sg1681
I0
sg1682
g1702
sg5348
g5129
sg1139
g1522
sg568
I2
sbag0
(g1676
g2
Ntp5352
Rp5353
(dp5354
g1680
I0
sg51
g1654
sg1681
I0
sg1682
g0
(g55
g2
Ntp5355
Rp5356
(dp5357
g1557
Nsg51
S'from_cxn_retrieval_P'
p5358
sg60
Nsg61
Nsg1559
Nsg278
g1538
sg568
I14
sg1503
g0
(clanguage_schemas
GRAMMATICAL_WM_P
p5359
g2
Ntp5360
Rp5361
(dp5362
g49
(dp5363
g5358
NsS'from_phonological_WM_P'
p5364
Nsg1686
Nsg1546
Nssg1548
(lp5365
sg51
g1663
sg1551
(lp5366
sg53
(lp5367
g0
(g55
g2
Ntp5368
Rp5369
(dp5370
g1557
Nsg51
g1507
sg60
Nsg61
Nsg1559
Nsg278
g1502
sg568
I17
sg1503
g5361
sbag0
(g55
g2
Ntp5371
Rp5372
(dp5373
g1557
Nsg51
S'to_phonological_WM_P'
p5374
sg60
Nsg61
Nsg1559
Nsg278
g1502
sg568
I18
sg1503
g5361
sbag0
(g55
g2
Ntp5375
Rp5376
(dp5377
g51
g1575
sg60
Nsg61
Nsg278
g1502
sg568
I19
sg1503
g5361
sbasg1508
(dp5378
g1575
Nsg5374
Nsg1507
Nssg1513
F1.0
sg1577
(lp5379
sg1514
(lp5380
g0
(g55
g2
Ntp5381
Rp5382
(dp5383
g1557
Nsg51
g1686
sg60
Nsg61
(dp5384
g563
(dp5385
VEVENT_722741
p5386
cnumpy.core.multiarray
scalar
p5387
(cnumpy
dtype
p5388
(S'f8'
p5389
I0
I1
tp5390
Rp5391
(I3
S'<'
p5392
NNNI-1
I-1
I0
tp5393
bS'\xa1bb\xb0\xb0\x0b\xec?'
p5394
tp5395
Rp5396
sVACTION_722742
p5397
g5387
(g5391
S'~q\xaceL\xec\xeb?'
p5398
tp5399
Rp5400
sVWOMAN_722737
p5401
g5387
(g5391
S'\xc6\xc2:c#\xcd\xeb?'
p5402
tp5403
Rp5404
sVKICK_722744
p5405
g5387
(g5391
S'\x8f\x97q\xeaX*\xec?'
p5406
tp5407
Rp5408
sVENTITY_722736
p5409
g5387
(g5391
S'\x1c6^$m\xe3\xeb?'
p5410
tp5411
Rp5412
sVMAN_722733
p5413
g5387
(g5391
S'$\x82}\xe6\x90\x99\xeb?'
p5414
tp5415
Rp5416
sVENTITY_722732
p5417
g5387
(g5391
S' \xd9\x8c\xac\x90\xa1\xeb?'
p5418
tp5419
Rp5420
ssg836
(dp5421
(g5397
g5409
tp5422
g5387
(g5391
S'g\xb4#}m,\xec?'
p5423
tp5424
Rp5425
s(g5386
g5397
tp5426
g5387
(g5391
S'\x12\\\xd5\x81\xb3\x0c\xec?'
p5427
tp5428
Rp5429
s(g5397
g5405
tp5430
g5387
(g5391
S"\xd3'\xc7re@\xec?"
p5431
tp5432
Rp5433
s(g5409
g5401
tp5434
g5387
(g5391
S'\n\x01\x07\xedI\xcc\xeb?'
p5435
tp5436
Rp5437
s(g5397
g5417
tp5438
g5387
(g5391
S'=\x1e\x05\xeb4@\xec?'
p5439
tp5440
Rp5441
s(g5417
g5413
tp5442
g5387
(g5391
S'\xb3B\xbe+\xaa\xa6\xeb?'
p5443
tp5444
Rp5445
sssg1559
Nsg278
g1538
sg568
I13
sg1503
g5361
sbag5356
ag0
(g55
g2
Ntp5446
Rp5447
(dp5448
g1557
Nsg51
g1546
sg60
Nsg61
(dp5449
S'params_style'
p5450
(dp5451
S'continuity'
p5452
F0.1
sS'form_length'
p5453
F0.0
sS'sem_length'
p5454
F0.5
sS'activation'
p5455
F0.7
ssS'pressure'
p5456
g5387
(g5391
S'+\x87\x16\xd9\xce\xf7\xef?'
p5457
tp5458
Rp5459
sg1592
I01
ssg1559
Nsg278
g1538
sg568
I15
sg1503
g5361
sbag0
(g55
g2
Ntp5460
Rp5461
(dp5462
g1557
Nsg51
g5364
sg60
Nsg61
(lp5463
sg1559
Nsg278
g1538
sg568
I16
sg1503
g5361
sbasg1593
(dp5464
g1595
(dp5465
sg1597
(dp5466
g1599
(lp5467
sg1601
(dp5468
g1603
(lp5469
sg1605
(lp5470
sg1607
(lp5471
ssg1609
(lp5472
sg1518
(lp5473
sg1612
(lp5474
sssg1516
(dp5475
g1615
(dp5476
g1617
F1.0
sS'deact_weight'
p5477
F0.0
sg1618
F-10.0
sg1619
F1.0
sg1620
F1.0
sg1621
F1.0
sS'sub_threshold_r'
p5478
F0.8
sg1622
F0.3
sg1623
F0.0
sg1624
F0.01
ssg1625
(dp5479
g1627
g5387
(g5391
S'\x00\x00\x00\x00\x00@\x8f@'
p5480
tp5481
Rp5482
sg1628
g5387
(g5391
S'\x00\x00\x00\x00\x00\x00$@'
p5483
tp5484
Rp5485
sg1629
F0.001
sg1630
F0.0
sg1631
g5387
(g5391
S'\x00\x00\x00\x00\x00\x00\x00@'
p5486
tp5487
Rp5488
sg1632
g5387
(g5391
S'\x00\x00\x00\x00\x00\x00$@'
p5489
tp5490
Rp5491
sg1633
F1.0
ssS'style'
p5492
(dp5493
g5452
F0.1
sg5453
F0.0
sg5454
F0.5
sg5455
F0.7
sssg1518
I0
sg1519
I0
sg1139
g1522
sg568
I3
sbsbsg5348
g1695
sg1139
g1522
sg568
I3
sbag0
(g1676
g2
Ntp5494
Rp5495
(dp5496
g1680
I0
sg51
g1654
sg1681
I0
sg1682
g5382
sg5348
g1555
sg1139
g1522
sg568
I4
sbag0
(g1676
g2
Ntp5497
Rp5498
(dp5499
g1680
I0
sg51
g1654
sg1681
I0
sg1682
g1587
sg5348
g5369
sg1139
g1522
sg568
I5
sbag0
(g1676
g2
Ntp5500
Rp5501
(dp5502
g1680
I0
sg51
g1654
sg1681
I0
sg1682
g0
(g55
g2
Ntp5503
Rp5504
(dp5505
g1557
Nsg51
g1544
sg60
Nsg61
Nsg1559
Nsg278
g1538
sg568
I25
sg1503
g0
(clanguage_schemas
PHON_WM_P
p5506
g2
Ntp5507
Rp5508
(dp5509
g49
(dp5510
g1544
Nssg1548
(lp5511
sg51
g1659
sg1551
(lp5512
sg53
(lp5513
g0
(g55
g2
Ntp5514
Rp5515
(dp5516
g1557
Nsg51
S'to_utter'
p5517
sg60
Nsg61
Nsg1559
Nsg278
g1502
sg568
I26
sg1503
g5508
sbag0
(g55
g2
Ntp5518
Rp5519
(dp5520
g1557
Nsg51
g1558
sg60
Nsg61
Nsg1559
Nsg278
g1502
sg568
I27
sg1503
g5508
sbag0
(g55
g2
Ntp5521
Rp5522
(dp5523
g1557
Nsg51
g1567
sg60
Nsg61
Nsg1559
Nsg278
g1502
sg568
I28
sg1503
g5508
sbag0
(g55
g2
Ntp5524
Rp5525
(dp5526
g51
g1575
sg60
Nsg61
Nsg278
g1502
sg568
I29
sg1503
g5508
sbasg1508
(dp5527
g1575
Nsg1558
Nsg5517
Nsg1567
NssS'needs_filler'
p5528
I01
sg1513
F1.0
sg1577
(lp5529
sg1514
(lp5530
g5504
asS'filler'
p5531
S'....'
p5532
sg1593
(dp5533
g1595
(dp5534
sg1597
(dp5535
g1599
(lp5536
sg1601
(dp5537
g1603
(lp5538
sg1605
(lp5539
sg1607
(lp5540
ssg1609
(lp5541
sg1518
(lp5542
sg1612
(lp5543
sssg1516
(dp5544
g1615
(dp5545
g1617
F1.0
sg1618
F0.0
sg1619
F1.0
sg1620
F1.0
sg1621
F0.0
sg1622
F0.0
sg1623
F0.0
sg1624
F0.01
ssg1625
(dp5546
g1627
F100.0
sg1628
F10.0
sg1629
F0.001
sg1630
F0.0
sg1631
F1.0
sg1632
F1.0
sg1633
F1.0
sssg1518
I0
sg1519
I0
sg1139
g1522
sS'phon_sequence'
p5547
(lp5548
sg568
I6
sbsbsg5348
g5372
sg1139
g1522
sg568
I6
sbag0
(g1676
g2
Ntp5549
Rp5550
(dp5551
g1680
I0
sg51
g1654
sg1681
I0
sg1682
g5461
sg5348
g5519
sg1139
g1522
sg568
I7
sbag0
(g1676
g2
Ntp5552
Rp5553
(dp5554
g1680
I0
sg51
g1654
sg1681
I0
sg1682
g0
(g55
g2
Ntp5555
Rp5556
(dp5557
g1557
Nsg51
g1686
sg60
Nsg61
I01
sg1559
Nsg278
g1538
sg568
I32
sg1503
g0
(clanguage_schemas
CONTROL
p5558
g2
Ntp5559
Rp5560
(dp5561
g49
(dp5562
g5364
Nsg1686
Nssg51
g1649
sg53
(lp5563
g0
(g55
g2
Ntp5564
Rp5565
(dp5566
g1557
Nsg51
g1507
sg60
Nsg61
Nsg1559
Nsg278
g1502
sg568
I34
sg1503
g5560
sbag0
(g55
g2
Ntp5567
Rp5568
(dp5569
g1557
Nsg51
g1558
sg60
Nsg61
Nsg1559
Nsg278
g1502
sg568
I35
sg1503
g5560
sbag0
(g55
g2
Ntp5570
Rp5571
(dp5572
g51
S'to_grammatical_WM_C'
p5573
sg60
Nsg61
I00
sg278
g1502
sg568
I36
sg1503
g5560
sbasg1508
(dp5574
g1558
Nsg5573
Nsg1507
Nssg1513
F1.0
sg1514
(lp5575
g5556
ag0
(g55
g2
Ntp5576
Rp5577
(dp5578
g1557
Nsg51
g5364
sg60
Nsg61
Nsg1559
Nsg278
g1538
sg568
I33
sg1503
g5560
sbasS'state'
p5579
(dp5580
g1592
I00
sS'unexpressed_sem'
p5581
I00
sS'mode'
p5582
g1592
sS'last_prod_time'
p5583
I0
ssg1516
(dp5584
g5492
(dp5585
g5452
F0.1
sg5453
F0.0
sg5455
F0.7
sg5454
F0.5
ssS'task'
p5586
(dp5587
S'time_pressure'
p5588
g5387
(g5391
S'\x00\x00\x00\x00\x00@\x8f@'
p5589
tp5590
Rp5591
sS'start_produce'
p5592
g5387
(g5391
S'\x00\x00\x00\x00\x00@\x8f@'
p5593
tp5594
Rp5595
sssg1518
I0
sg1519
I0
sg1139
g1522
sg568
I8
sbsbsg5348
g1565
sg1139
g1522
sg568
I8
sbag0
(g1676
g2
Ntp5596
Rp5597
(dp5598
g1680
I0
sg51
g1654
sg1681
I0
sg1682
g0
(g55
g2
Ntp5599
Rp5600
(dp5601
g1557
Nsg51
g5364
sg60
Nsg61
Nsg1559
Nsg278
g1538
sg568
I30
sg1503
g0
(clanguage_schemas
UTTER
p5602
g2
Ntp5603
Rp5604
(dp5605
g49
(dp5606
g5364
Nssg51
g1652
sg53
(lp5607
g0
(g55
g2
Ntp5608
Rp5609
(dp5610
g51
g1575
sg60
Nsg61
Nsg278
g1502
sg568
I31
sg1503
g5604
sbasg1508
(dp5611
g1575
NssS'utterance_stack'
p5612
(lp5613
sg1513
F1.0
sg1514
(lp5614
g5600
asg1516
(dp5615
S'speech_rate'
p5616
F1.0
ssg1518
I0
sg1519
I0
sg1139
g1522
sg568
I7
sbsbsg5348
g5515
sg1139
g1522
sg568
I9
sbag0
(g1676
g2
Ntp5617
Rp5618
(dp5619
g1680
I0
sg51
g1654
sg1681
I0
sg1682
g5577
sg5348
g5522
sg1139
g1522
sg568
I10
sbag0
(g1676
g2
Ntp5620
Rp5621
(dp5622
g1680
I0
sg51
g1654
sg1681
I0
sg1682
g5447
sg5348
g5568
sg1139
g1522
sg568
I11
sbag0
(g1676
g2
Ntp5623
Rp5624
(dp5625
g1680
I0
sg51
g1654
sg1681
I0
sg1682
g1590
sg5348
g5565
sg1139
g1522
sg568
I12
sbasg1516
(dp5626
g1649
g5584
sg1659
g5544
sg52
g1517
sg1667
g5138
sg1671
g5347
sg1550
g1614
sg1652
g5615
sg1663
g5475
ssg1518
F0.0
sS'set_up_time'
p5627
I10
sS'input'
p5628
NsS'default_params'
p5629
Nsg1513
F1.0
sS'output_ports'
p5630
(lp5631
g5609
ag5525
ag5376
ag1573
asg5139
(dp5632
g1649
g5560
sg1659
g5508
sg52
g47
sg1671
g1689
sg1663
g5361
sg1550
g1541
sg1652
g5604
sg1667
g1773
ssbsg568
I2
sg5139
g62
sbsS'speed_param'
p5633
I100
sS'ground_truths'
p5634
(lp5635
Vyoung woman punch man
p5636
aVman is punch -ed by woman who is young
p5637
aVwoman who is young punch man
p5638
aVman is punch -ed by young woman
p5639
aVyoung lady punch man
p5640
aVman is punch -ed by lady who is young
p5641
aVlady who is young punch man
p5642
aVman is punch -ed by young lady
p5643
asS'is_macro'
p5644
I01
sb.