ccopy_reg
_reconstructor
p0
(clanguage_schemas
SEM_GENERATOR
p1
c__builtin__
object
p2
Ntp3
Rp4
(dp5
S'sem_inputs'
p6
(dp7
S'{}'
p8
(dp9
Vtiming
p10
(lp11
F0.0
asVsem_rate
p12
I1
sVpropositions
p13
(dp14
VP1
p15
(lp16
VENTITY(e1,F)
p17
aVMAN(man)
p18
aVIS(is1)
p19
aVis1(e1, man)
p20
aVENTITY(e2,F)
p21
aVWATERING_CAN(can)
p22
aVIS(is2)
p23
aVis2(e2, can)
p24
aVEVENT(evt1,F)
p25
aVACTION(a1,F)
p26
aVIS(is3)
p27
aVis3(evt1,a1)
p28
aVKICK(kick)
p29
aVIS(is4)
p30
aVis4(a1, kick)
p31
aVAGENT(agt1)
p32
aVPATIENT(pt1)
p33
aVagt1(a1, e1)
p34
aVpt1(a1, e2)
p35
aVMODIFY(mod1)
p36
aVmod1(e1, evt1)
p37
assVcomments
p38
VActions + property modifier static.
p39
sVsequence
p40
(lp41
VP1
p42
asssS'conceptLTM'
p43
g0
(clanguage_schemas
CONCEPT_LTM
p44
g2
Ntp45
Rp46
(dp47
S'inputs'
p48
(dp49
sS'name'
p50
S'Concept_LTM'
p51
sS'out_ports'
p52
(lp53
g0
(cschema_theory
PORT
p54
g2
Ntp55
Rp56
(dp57
g50
S'to_conceptualizer'
p58
sS'data'
p59
NsS'value'
p60
(lp61
g0
(clanguage_schemas
CPT_EVENT_SCHEMA
p62
g2
Ntp63
Rp64
(dp65
g50
S'?'
p66
sS'content'
p67
(dp68
S'concept'
p69
g0
(cconcept
CONCEPT
p70
g2
Ntp71
Rp72
(dp73
S'meaning'
p74
g66
sS'conceptual_knowledge'
p75
g0
(cconcept
CONCEPTUAL_KNOWLEDGE
p76
g2
Ntp77
Rp78
(dp79
S'graph'
p80
g0
(cnetworkx.classes.digraph
DiGraph
p81
g2
Ntp82
Rp83
(dp84
S'node'
p85
(dp86
I1
(dp87
g74
g66
ssI2
(dp88
g74
S'CONCEPT'
p89
ssI3
(dp90
g74
VACTION
p91
ssI4
(dp92
g74
VSYMMETRIC
p93
ssI5
(dp94
g74
VMEET
p95
ssI6
(dp96
g74
VSHAKE_HANDS
p97
ssI7
(dp98
g74
VINTRANSITIVE
p99
ssI8
(dp100
g74
VLAUGH
p101
ssI9
(dp102
g74
VTRANSITIVE
p103
ssI10
(dp104
g74
VHIT
p105
ssI11
(dp106
g74
VWATCH
p107
ssI12
(dp108
g74
VPUNCH
p109
ssI13
(dp110
g74
VSPLASH
p111
ssI14
(dp112
g74
VTALK
p113
ssI15
(dp114
g74
VKISS
p115
ssI16
(dp116
g74
VSQUIRT
p117
ssI17
(dp118
g74
VKICK
p119
ssI18
(dp120
g74
VWEAR
p121
ssI19
(dp122
g74
VDITRANSITIVE
p123
ssI20
(dp124
g74
VSEND
p125
ssI21
(dp126
g74
VGIVE
p127
ssI22
(dp128
g74
VPROPERTY
p129
ssI23
(dp130
g74
VCOLOR
p131
ssI24
(dp132
g74
VBLUE
p133
ssI25
(dp134
g74
VGREEN
p135
ssI26
(dp136
g74
VWHITE
p137
ssI27
(dp138
g74
VBLACK
p139
ssI28
(dp140
g74
VRED
p141
ssI29
(dp142
g74
VAPPEARANCE
p143
ssI30
(dp144
g74
VYOUNG
p145
ssI31
(dp146
g74
VPRETTY
p147
ssI32
(dp148
g74
VHANDSOME
p149
ssI33
(dp150
g74
VSIZE
p151
ssI34
(dp152
g74
VSMALL
p153
ssI35
(dp154
g74
VBIG
p155
ssI36
(dp156
g74
VRELATION
p157
ssI37
(dp158
g74
VACTION_FRAME
p159
ssI38
(dp160
g74
VMODIFY
p161
ssI39
(dp162
g74
VTHEME
p163
ssI40
(dp164
g74
VRECIPIENT
p165
ssI41
(dp166
g74
VATTR
p167
ssI42
(dp168
g74
VAGT_PT
p169
ssI43
(dp170
g74
VPATIENT
p171
ssI44
(dp172
g74
VAGT+PT
p173
ssI45
(dp174
g74
VAGENT
p175
ssI46
(dp176
g74
VEVENT_FRAME
p177
ssI47
(dp178
g74
VTEMPORAL
p179
ssI48
(dp180
g74
VCONCURRENT
p181
ssI49
(dp182
g74
VSUCCESSIVE
p183
ssI50
(dp184
g74
VSPATIAL
p185
ssI51
(dp186
g74
VIN
p187
ssI52
(dp188
g74
VIS
p189
ssI53
(dp190
g74
VOBJECT_FRAME
p191
ssI54
(dp192
g74
VEVENT
p193
ssI55
(dp194
g74
VENTITY
p195
ssI56
(dp196
g74
VANIMATE
p197
ssI57
(dp198
g74
VANIMAL
p199
ssI58
(dp200
g74
VHUMAN
p201
ssI59
(dp202
g74
VOBJECT
p203
ssI60
(dp204
g74
VITEM
p205
ssI61
(dp206
g74
VWAGON
p207
ssI62
(dp208
g74
VWATERING_CAN
p209
ssI63
(dp210
g74
VBAG
p211
ssI64
(dp212
g74
VTREE
p213
ssI65
(dp214
g74
VHOOK
p215
ssI66
(dp216
g74
VCELLO
p217
ssI67
(dp218
g74
VBOOKSHELF
p219
ssI68
(dp220
g74
VCLOTHING
p221
ssI69
(dp222
g74
VTSHIRT
p223
ssI70
(dp224
g74
VDRESS
p225
ssI71
(dp226
g74
VSHIRT
p227
ssI72
(dp228
g74
VSUIT
p229
ssI73
(dp230
g74
VTURTLE
p231
ssI74
(dp232
g74
VMOUSE
p233
ssI75
(dp234
g74
VDOG
p235
ssI76
(dp236
g74
VBOY
p237
ssI77
(dp238
g74
VWOMAN
p239
ssI78
(dp240
g74
VPEOPLE
p241
ssI79
(dp242
g74
VPOLICEMAN
p243
ssI80
(dp244
g74
VHUNTER
p245
ssI81
(dp246
g74
VBALLERINA
p247
ssI82
(dp248
g74
VCELLIST
p249
ssI83
(dp250
g74
VGIRL
p251
ssI84
(dp252
g74
VFENCER
p253
ssI85
(dp254
g74
VROBBER
p255
ssI86
(dp256
g74
VMAN
p257
ssI87
(dp258
g74
VPLACE
p259
ssI88
(dp260
g74
VBOXINGRING
p261
ssI89
(dp262
g74
VPARK
p263
ssI90
(dp264
g74
VMALE
p265
ssI91
(dp266
g74
VFEMALE
p267
sssS'node_dict_factory'
p268
c__builtin__
dict
p269
sS'edge_attr_dict_factory'
p270
g269
sS'succ'
p271
(dp272
I1
(dp273
sI2
(dp274
sI3
(dp275
I2
(dp276
S'type'
p277
S'is_a'
p278
sssI4
(dp279
I3
(dp280
g277
g278
sssI5
(dp281
I4
(dp282
g277
g278
sssI6
(dp283
I4
(dp284
g277
g278
sssI7
(dp285
I3
(dp286
g277
g278
sssI8
(dp287
I7
(dp288
g277
g278
sssI9
(dp289
I3
(dp290
g277
g278
sssI10
(dp291
I9
(dp292
g277
g278
sssI11
(dp293
I9
(dp294
g277
g278
sssI12
(dp295
I9
(dp296
g277
g278
sssI13
(dp297
I9
(dp298
g277
g278
sssI14
(dp299
I9
(dp300
g277
g278
sssI15
(dp301
I9
(dp302
g277
g278
sssI16
(dp303
I9
(dp304
g277
g278
sssI17
(dp305
I9
(dp306
g277
g278
sssI18
(dp307
I9
(dp308
g277
g278
sssI19
(dp309
I3
(dp310
g277
g278
sssI20
(dp311
I19
(dp312
g277
g278
sssI21
(dp313
I19
(dp314
g277
g278
sssI22
(dp315
I2
(dp316
g277
g278
sssI23
(dp317
I22
(dp318
g277
g278
sssI24
(dp319
I23
(dp320
g277
g278
sssI25
(dp321
I23
(dp322
g277
g278
sssI26
(dp323
I23
(dp324
g277
g278
sssI27
(dp325
I23
(dp326
g277
g278
sssI28
(dp327
I23
(dp328
g277
g278
sssI29
(dp329
I22
(dp330
g277
g278
sssI30
(dp331
I29
(dp332
g277
g278
sssI31
(dp333
I29
(dp334
g277
g278
sssI32
(dp335
I29
(dp336
g277
g278
sssI33
(dp337
I22
(dp338
g277
g278
sssI34
(dp339
I33
(dp340
g277
g278
sssI35
(dp341
I33
(dp342
g277
g278
sssI36
(dp343
I2
(dp344
g277
g278
sssI37
(dp345
I36
(dp346
g277
g278
sssI38
(dp347
I37
(dp348
g277
g278
ssI53
(dp349
g277
g278
sssI39
(dp350
I37
(dp351
g277
g278
sssI40
(dp352
I37
(dp353
g277
g278
sssI41
(dp354
I37
(dp355
g277
g278
ssI53
(dp356
g277
g278
sssI42
(dp357
I37
(dp358
g277
g278
sssI43
(dp359
I42
(dp360
g277
g278
sssI44
(dp361
I43
(dp362
g277
g278
ssI45
(dp363
g277
g278
sssI45
(dp364
I42
(dp365
g277
g278
sssI46
(dp366
I36
(dp367
g277
g278
sssI47
(dp368
I46
(dp369
g277
g278
sssI48
(dp370
I47
(dp371
g277
g278
sssI49
(dp372
I47
(dp373
g277
g278
sssI50
(dp374
I46
(dp375
g277
g278
sssI51
(dp376
I50
(dp377
g277
g278
sssI52
(dp378
I36
(dp379
g277
g278
sssI53
(dp380
I36
(dp381
g277
g278
sssI54
(dp382
I2
(dp383
g277
g278
sssI55
(dp384
I2
(dp385
g277
g278
sssI56
(dp386
I55
(dp387
g277
g278
sssI57
(dp388
I56
(dp389
g277
g278
ssI59
(dp390
g277
g278
sssI58
(dp391
I56
(dp392
g277
g278
ssI59
(dp393
g277
g278
sssI59
(dp394
I55
(dp395
g277
g278
sssI60
(dp396
I59
(dp397
g277
g278
sssI61
(dp398
I60
(dp399
g277
g278
sssI62
(dp400
I60
(dp401
g277
g278
sssI63
(dp402
I60
(dp403
g277
g278
sssI64
(dp404
I60
(dp405
g277
g278
sssI65
(dp406
I60
(dp407
g277
g278
sssI66
(dp408
I60
(dp409
g277
g278
sssI67
(dp410
I60
(dp411
g277
g278
sssI68
(dp412
I60
(dp413
g277
g278
sssI69
(dp414
I68
(dp415
g277
g278
sssI70
(dp416
I68
(dp417
g277
g278
sssI71
(dp418
I68
(dp419
g277
g278
sssI72
(dp420
I68
(dp421
g277
g278
sssI73
(dp422
I57
(dp423
g277
g278
sssI74
(dp424
I57
(dp425
g277
g278
sssI75
(dp426
I57
(dp427
g277
g278
sssI76
(dp428
I58
(dp429
g277
g278
ssI90
(dp430
g277
g278
sssI77
(dp431
I58
(dp432
g277
g278
ssI91
(dp433
g277
g278
sssI78
(dp434
I58
(dp435
g277
g278
sssI79
(dp436
I58
(dp437
g277
g278
sssI80
(dp438
I58
(dp439
g277
g278
sssI81
(dp440
I58
(dp441
g277
g278
ssI91
(dp442
g277
g278
sssI82
(dp443
I58
(dp444
g277
g278
sssI83
(dp445
I58
(dp446
g277
g278
ssI91
(dp447
g277
g278
sssI84
(dp448
I58
(dp449
g277
g278
sssI85
(dp450
I58
(dp451
g277
g278
sssI86
(dp452
I58
(dp453
g277
g278
ssI90
(dp454
g277
g278
sssI87
(dp455
I55
(dp456
g277
g278
sssI88
(dp457
I87
(dp458
g277
g278
sssI89
(dp459
I87
(dp460
g277
g278
sssI90
(dp461
I55
(dp462
g277
g278
sssI91
(dp463
I55
(dp464
g277
g278
ssssS'edge'
p465
g272
sg80
(dp466
sS'adjlist_dict_factory'
p467
g269
sS'adj'
p468
g272
sS'pred'
p469
(dp470
I1
(dp471
sI2
(dp472
I3
g276
sI36
g344
sI54
g383
sI22
g316
sI55
g385
ssI3
(dp473
I9
g290
sI19
g310
sI4
g280
sI7
g286
ssI4
(dp474
I5
g282
sI6
g284
ssI5
(dp475
sI6
(dp476
sI7
(dp477
I8
g288
ssI8
(dp478
sI9
(dp479
I10
g292
sI11
g294
sI12
g296
sI13
g298
sI14
g300
sI15
g302
sI16
g304
sI17
g306
sI18
g308
ssI10
(dp480
sI11
(dp481
sI12
(dp482
sI13
(dp483
sI14
(dp484
sI15
(dp485
sI16
(dp486
sI17
(dp487
sI18
(dp488
sI19
(dp489
I20
g312
sI21
g314
ssI20
(dp490
sI21
(dp491
sI22
(dp492
I33
g338
sI29
g330
sI23
g318
ssI23
(dp493
I24
g320
sI25
g322
sI26
g324
sI27
g326
sI28
g328
ssI24
(dp494
sI25
(dp495
sI26
(dp496
sI27
(dp497
sI28
(dp498
sI29
(dp499
I32
g336
sI30
g332
sI31
g334
ssI30
(dp500
sI31
(dp501
sI32
(dp502
sI33
(dp503
I34
g340
sI35
g342
ssI34
(dp504
sI35
(dp505
sI36
(dp506
I52
g379
sI37
g346
sI46
g367
sI53
g381
ssI37
(dp507
I40
g353
sI41
g355
sI42
g358
sI38
g348
sI39
g351
ssI38
(dp508
sI39
(dp509
sI40
(dp510
sI41
(dp511
sI42
(dp512
I43
g360
sI45
g365
ssI43
(dp513
I44
g362
ssI44
(dp514
sI45
(dp515
I44
g363
ssI46
(dp516
I50
g375
sI47
g369
ssI47
(dp517
I48
g371
sI49
g373
ssI48
(dp518
sI49
(dp519
sI50
(dp520
I51
g377
ssI51
(dp521
sI52
(dp522
sI53
(dp523
I41
g356
sI38
g349
ssI54
(dp524
sI55
(dp525
I56
g387
sI91
g464
sI90
g462
sI59
g395
sI87
g456
ssI56
(dp526
I57
g389
sI58
g392
ssI57
(dp527
I73
g423
sI74
g425
sI75
g427
ssI58
(dp528
I76
g429
sI77
g432
sI78
g435
sI79
g437
sI80
g439
sI81
g441
sI82
g444
sI83
g446
sI84
g449
sI85
g451
sI86
g453
ssI59
(dp529
I57
g390
sI58
g393
sI60
g397
ssI60
(dp530
I64
g405
sI65
g407
sI66
g409
sI67
g411
sI68
g413
sI61
g399
sI62
g401
sI63
g403
ssI61
(dp531
sI62
(dp532
sI63
(dp533
sI64
(dp534
sI65
(dp535
sI66
(dp536
sI67
(dp537
sI68
(dp538
I72
g421
sI69
g415
sI70
g417
sI71
g419
ssI69
(dp539
sI70
(dp540
sI71
(dp541
sI72
(dp542
sI73
(dp543
sI74
(dp544
sI75
(dp545
sI76
(dp546
sI77
(dp547
sI78
(dp548
sI79
(dp549
sI80
(dp550
sI81
(dp551
sI82
(dp552
sI83
(dp553
sI84
(dp554
sI85
(dp555
sI86
(dp556
sI87
(dp557
I88
g458
sI89
g460
ssI88
(dp558
sI89
(dp559
sI90
(dp560
I76
g430
sI86
g454
ssI91
(dp561
I81
g442
sI83
g447
sI77
g433
sssbsS'nodes'
p562
(lp563
g72
ag0
(g70
g2
Ntp564
Rp565
(dp566
g74
g89
sg75
g78
sS'id'
p567
I2
sg50
g89
sbag0
(g70
g2
Ntp568
Rp569
(dp570
g74
g91
sg75
g78
sg567
I3
sg50
g91
sbag0
(g70
g2
Ntp571
Rp572
(dp573
g74
g93
sg75
g78
sg567
I4
sg50
g93
sbag0
(g70
g2
Ntp574
Rp575
(dp576
g74
g95
sg75
g78
sg567
I5
sg50
g95
sbag0
(g70
g2
Ntp577
Rp578
(dp579
g74
g97
sg75
g78
sg567
I6
sg50
g97
sbag0
(g70
g2
Ntp580
Rp581
(dp582
g74
g99
sg75
g78
sg567
I7
sg50
g99
sbag0
(g70
g2
Ntp583
Rp584
(dp585
g74
g101
sg75
g78
sg567
I8
sg50
g101
sbag0
(g70
g2
Ntp586
Rp587
(dp588
g74
g103
sg75
g78
sg567
I9
sg50
g103
sbag0
(g70
g2
Ntp589
Rp590
(dp591
g74
g105
sg75
g78
sg567
I10
sg50
g105
sbag0
(g70
g2
Ntp592
Rp593
(dp594
g74
g107
sg75
g78
sg567
I11
sg50
g107
sbag0
(g70
g2
Ntp595
Rp596
(dp597
g74
g109
sg75
g78
sg567
I12
sg50
g109
sbag0
(g70
g2
Ntp598
Rp599
(dp600
g74
g111
sg75
g78
sg567
I13
sg50
g111
sbag0
(g70
g2
Ntp601
Rp602
(dp603
g74
g113
sg75
g78
sg567
I14
sg50
g113
sbag0
(g70
g2
Ntp604
Rp605
(dp606
g74
g115
sg75
g78
sg567
I15
sg50
g115
sbag0
(g70
g2
Ntp607
Rp608
(dp609
g74
g117
sg75
g78
sg567
I16
sg50
g117
sbag0
(g70
g2
Ntp610
Rp611
(dp612
g74
g119
sg75
g78
sg567
I17
sg50
g119
sbag0
(g70
g2
Ntp613
Rp614
(dp615
g74
g121
sg75
g78
sg567
I18
sg50
g121
sbag0
(g70
g2
Ntp616
Rp617
(dp618
g74
g123
sg75
g78
sg567
I19
sg50
g123
sbag0
(g70
g2
Ntp619
Rp620
(dp621
g74
g125
sg75
g78
sg567
I20
sg50
g125
sbag0
(g70
g2
Ntp622
Rp623
(dp624
g74
g127
sg75
g78
sg567
I21
sg50
g127
sbag0
(g70
g2
Ntp625
Rp626
(dp627
g74
g129
sg75
g78
sg567
I22
sg50
g129
sbag0
(g70
g2
Ntp628
Rp629
(dp630
g74
g131
sg75
g78
sg567
I23
sg50
g131
sbag0
(g70
g2
Ntp631
Rp632
(dp633
g74
g133
sg75
g78
sg567
I24
sg50
g133
sbag0
(g70
g2
Ntp634
Rp635
(dp636
g74
g135
sg75
g78
sg567
I25
sg50
g135
sbag0
(g70
g2
Ntp637
Rp638
(dp639
g74
g137
sg75
g78
sg567
I26
sg50
g137
sbag0
(g70
g2
Ntp640
Rp641
(dp642
g74
g139
sg75
g78
sg567
I27
sg50
g139
sbag0
(g70
g2
Ntp643
Rp644
(dp645
g74
g141
sg75
g78
sg567
I28
sg50
g141
sbag0
(g70
g2
Ntp646
Rp647
(dp648
g74
g143
sg75
g78
sg567
I29
sg50
g143
sbag0
(g70
g2
Ntp649
Rp650
(dp651
g74
g145
sg75
g78
sg567
I30
sg50
g145
sbag0
(g70
g2
Ntp652
Rp653
(dp654
g74
g147
sg75
g78
sg567
I31
sg50
g147
sbag0
(g70
g2
Ntp655
Rp656
(dp657
g74
g149
sg75
g78
sg567
I32
sg50
g149
sbag0
(g70
g2
Ntp658
Rp659
(dp660
g74
g151
sg75
g78
sg567
I33
sg50
g151
sbag0
(g70
g2
Ntp661
Rp662
(dp663
g74
g153
sg75
g78
sg567
I34
sg50
g153
sbag0
(g70
g2
Ntp664
Rp665
(dp666
g74
g155
sg75
g78
sg567
I35
sg50
g155
sbag0
(g70
g2
Ntp667
Rp668
(dp669
g74
g157
sg75
g78
sg567
I36
sg50
g157
sbag0
(g70
g2
Ntp670
Rp671
(dp672
g74
g159
sg75
g78
sg567
I37
sg50
g159
sbag0
(g70
g2
Ntp673
Rp674
(dp675
g74
g161
sg75
g78
sg567
I38
sg50
g161
sbag0
(g70
g2
Ntp676
Rp677
(dp678
g74
g163
sg75
g78
sg567
I39
sg50
g163
sbag0
(g70
g2
Ntp679
Rp680
(dp681
g74
g165
sg75
g78
sg567
I40
sg50
g165
sbag0
(g70
g2
Ntp682
Rp683
(dp684
g74
g167
sg75
g78
sg567
I41
sg50
g167
sbag0
(g70
g2
Ntp685
Rp686
(dp687
g74
g169
sg75
g78
sg567
I42
sg50
g169
sbag0
(g70
g2
Ntp688
Rp689
(dp690
g74
g171
sg75
g78
sg567
I43
sg50
g171
sbag0
(g70
g2
Ntp691
Rp692
(dp693
g74
g173
sg75
g78
sg567
I44
sg50
g173
sbag0
(g70
g2
Ntp694
Rp695
(dp696
g74
g175
sg75
g78
sg567
I45
sg50
g175
sbag0
(g70
g2
Ntp697
Rp698
(dp699
g74
g177
sg75
g78
sg567
I46
sg50
g177
sbag0
(g70
g2
Ntp700
Rp701
(dp702
g74
g179
sg75
g78
sg567
I47
sg50
g179
sbag0
(g70
g2
Ntp703
Rp704
(dp705
g74
g181
sg75
g78
sg567
I48
sg50
g181
sbag0
(g70
g2
Ntp706
Rp707
(dp708
g74
g183
sg75
g78
sg567
I49
sg50
g183
sbag0
(g70
g2
Ntp709
Rp710
(dp711
g74
g185
sg75
g78
sg567
I50
sg50
g185
sbag0
(g70
g2
Ntp712
Rp713
(dp714
g74
g187
sg75
g78
sg567
I51
sg50
g187
sbag0
(g70
g2
Ntp715
Rp716
(dp717
g74
g189
sg75
g78
sg567
I52
sg50
g189
sbag0
(g70
g2
Ntp718
Rp719
(dp720
g74
g191
sg75
g78
sg567
I53
sg50
g191
sbag0
(g70
g2
Ntp721
Rp722
(dp723
g74
g193
sg75
g78
sg567
I54
sg50
g193
sbag0
(g70
g2
Ntp724
Rp725
(dp726
g74
g195
sg75
g78
sg567
I55
sg50
g195
sbag0
(g70
g2
Ntp727
Rp728
(dp729
g74
g197
sg75
g78
sg567
I56
sg50
g197
sbag0
(g70
g2
Ntp730
Rp731
(dp732
g74
g199
sg75
g78
sg567
I57
sg50
g199
sbag0
(g70
g2
Ntp733
Rp734
(dp735
g74
g201
sg75
g78
sg567
I58
sg50
g201
sbag0
(g70
g2
Ntp736
Rp737
(dp738
g74
g203
sg75
g78
sg567
I59
sg50
g203
sbag0
(g70
g2
Ntp739
Rp740
(dp741
g74
g205
sg75
g78
sg567
I60
sg50
g205
sbag0
(g70
g2
Ntp742
Rp743
(dp744
g74
g207
sg75
g78
sg567
I61
sg50
g207
sbag0
(g70
g2
Ntp745
Rp746
(dp747
g74
g209
sg75
g78
sg567
I62
sg50
g209
sbag0
(g70
g2
Ntp748
Rp749
(dp750
g74
g211
sg75
g78
sg567
I63
sg50
g211
sbag0
(g70
g2
Ntp751
Rp752
(dp753
g74
g213
sg75
g78
sg567
I64
sg50
g213
sbag0
(g70
g2
Ntp754
Rp755
(dp756
g74
g215
sg75
g78
sg567
I65
sg50
g215
sbag0
(g70
g2
Ntp757
Rp758
(dp759
g74
g217
sg75
g78
sg567
I66
sg50
g217
sbag0
(g70
g2
Ntp760
Rp761
(dp762
g74
g219
sg75
g78
sg567
I67
sg50
g219
sbag0
(g70
g2
Ntp763
Rp764
(dp765
g74
g221
sg75
g78
sg567
I68
sg50
g221
sbag0
(g70
g2
Ntp766
Rp767
(dp768
g74
g223
sg75
g78
sg567
I69
sg50
g223
sbag0
(g70
g2
Ntp769
Rp770
(dp771
g74
g225
sg75
g78
sg567
I70
sg50
g225
sbag0
(g70
g2
Ntp772
Rp773
(dp774
g74
g227
sg75
g78
sg567
I71
sg50
g227
sbag0
(g70
g2
Ntp775
Rp776
(dp777
g74
g229
sg75
g78
sg567
I72
sg50
g229
sbag0
(g70
g2
Ntp778
Rp779
(dp780
g74
g231
sg75
g78
sg567
I73
sg50
g231
sbag0
(g70
g2
Ntp781
Rp782
(dp783
g74
g233
sg75
g78
sg567
I74
sg50
g233
sbag0
(g70
g2
Ntp784
Rp785
(dp786
g74
g235
sg75
g78
sg567
I75
sg50
g235
sbag0
(g70
g2
Ntp787
Rp788
(dp789
g74
g237
sg75
g78
sg567
I76
sg50
g237
sbag0
(g70
g2
Ntp790
Rp791
(dp792
g74
g239
sg75
g78
sg567
I77
sg50
g239
sbag0
(g70
g2
Ntp793
Rp794
(dp795
g74
g241
sg75
g78
sg567
I78
sg50
g241
sbag0
(g70
g2
Ntp796
Rp797
(dp798
g74
g243
sg75
g78
sg567
I79
sg50
g243
sbag0
(g70
g2
Ntp799
Rp800
(dp801
g74
g245
sg75
g78
sg567
I80
sg50
g245
sbag0
(g70
g2
Ntp802
Rp803
(dp804
g74
g247
sg75
g78
sg567
I81
sg50
g247
sbag0
(g70
g2
Ntp805
Rp806
(dp807
g74
g249
sg75
g78
sg567
I82
sg50
g249
sbag0
(g70
g2
Ntp808
Rp809
(dp810
g74
g251
sg75
g78
sg567
I83
sg50
g251
sbag0
(g70
g2
Ntp811
Rp812
(dp813
g74
g253
sg75
g78
sg567
I84
sg50
g253
sbag0
(g70
g2
Ntp814
Rp815
(dp816
g74
g255
sg75
g78
sg567
I85
sg50
g255
sbag0
(g70
g2
Ntp817
Rp818
(dp819
g74
g257
sg75
g78
sg567
I86
sg50
g257
sbag0
(g70
g2
Ntp820
Rp821
(dp822
g74
g259
sg75
g78
sg567
I87
sg50
g259
sbag0
(g70
g2
Ntp823
Rp824
(dp825
g74
g261
sg75
g78
sg567
I88
sg50
g261
sbag0
(g70
g2
Ntp826
Rp827
(dp828
g74
g263
sg75
g78
sg567
I89
sg50
g263
sbag0
(g70
g2
Ntp829
Rp830
(dp831
g74
g265
sg75
g78
sg567
I90
sg50
g265
sbag0
(g70
g2
Ntp832
Rp833
(dp834
g74
g267
sg75
g78
sg567
I91
sg50
g267
sbasS'edges'
p835
(lp836
g0
(cconcept
SEM_REL
p837
g2
Ntp838
Rp839
(dp840
S'pTo'
p841
g565
sg277
g278
sS'pFrom'
p842
g569
sbag0
(g837
g2
Ntp843
Rp844
(dp845
g841
g569
sg277
g278
sg842
g572
sbag0
(g837
g2
Ntp846
Rp847
(dp848
g841
g572
sg277
g278
sg842
g575
sbag0
(g837
g2
Ntp849
Rp850
(dp851
g841
g572
sg277
g278
sg842
g578
sbag0
(g837
g2
Ntp852
Rp853
(dp854
g841
g569
sg277
g278
sg842
g581
sbag0
(g837
g2
Ntp855
Rp856
(dp857
g841
g581
sg277
g278
sg842
g584
sbag0
(g837
g2
Ntp858
Rp859
(dp860
g841
g569
sg277
g278
sg842
g587
sbag0
(g837
g2
Ntp861
Rp862
(dp863
g841
g587
sg277
g278
sg842
g590
sbag0
(g837
g2
Ntp864
Rp865
(dp866
g841
g587
sg277
g278
sg842
g593
sbag0
(g837
g2
Ntp867
Rp868
(dp869
g841
g587
sg277
g278
sg842
g596
sbag0
(g837
g2
Ntp870
Rp871
(dp872
g841
g587
sg277
g278
sg842
g599
sbag0
(g837
g2
Ntp873
Rp874
(dp875
g841
g587
sg277
g278
sg842
g602
sbag0
(g837
g2
Ntp876
Rp877
(dp878
g841
g587
sg277
g278
sg842
g605
sbag0
(g837
g2
Ntp879
Rp880
(dp881
g841
g587
sg277
g278
sg842
g608
sbag0
(g837
g2
Ntp882
Rp883
(dp884
g841
g587
sg277
g278
sg842
g611
sbag0
(g837
g2
Ntp885
Rp886
(dp887
g841
g587
sg277
g278
sg842
g614
sbag0
(g837
g2
Ntp888
Rp889
(dp890
g841
g569
sg277
g278
sg842
g617
sbag0
(g837
g2
Ntp891
Rp892
(dp893
g841
g617
sg277
g278
sg842
g620
sbag0
(g837
g2
Ntp894
Rp895
(dp896
g841
g617
sg277
g278
sg842
g623
sbag0
(g837
g2
Ntp897
Rp898
(dp899
g841
g565
sg277
g278
sg842
g626
sbag0
(g837
g2
Ntp900
Rp901
(dp902
g841
g626
sg277
g278
sg842
g629
sbag0
(g837
g2
Ntp903
Rp904
(dp905
g841
g629
sg277
g278
sg842
g632
sbag0
(g837
g2
Ntp906
Rp907
(dp908
g841
g629
sg277
g278
sg842
g635
sbag0
(g837
g2
Ntp909
Rp910
(dp911
g841
g629
sg277
g278
sg842
g638
sbag0
(g837
g2
Ntp912
Rp913
(dp914
g841
g629
sg277
g278
sg842
g641
sbag0
(g837
g2
Ntp915
Rp916
(dp917
g841
g629
sg277
g278
sg842
g644
sbag0
(g837
g2
Ntp918
Rp919
(dp920
g841
g626
sg277
g278
sg842
g647
sbag0
(g837
g2
Ntp921
Rp922
(dp923
g841
g647
sg277
g278
sg842
g650
sbag0
(g837
g2
Ntp924
Rp925
(dp926
g841
g647
sg277
g278
sg842
g653
sbag0
(g837
g2
Ntp927
Rp928
(dp929
g841
g647
sg277
g278
sg842
g656
sbag0
(g837
g2
Ntp930
Rp931
(dp932
g841
g626
sg277
g278
sg842
g659
sbag0
(g837
g2
Ntp933
Rp934
(dp935
g841
g659
sg277
g278
sg842
g662
sbag0
(g837
g2
Ntp936
Rp937
(dp938
g841
g659
sg277
g278
sg842
g665
sbag0
(g837
g2
Ntp939
Rp940
(dp941
g841
g565
sg277
g278
sg842
g668
sbag0
(g837
g2
Ntp942
Rp943
(dp944
g841
g668
sg277
g278
sg842
g671
sbag0
(g837
g2
Ntp945
Rp946
(dp947
g841
g671
sg277
g278
sg842
g674
sbag0
(g837
g2
Ntp948
Rp949
(dp950
g841
g671
sg277
g278
sg842
g677
sbag0
(g837
g2
Ntp951
Rp952
(dp953
g841
g671
sg277
g278
sg842
g680
sbag0
(g837
g2
Ntp954
Rp955
(dp956
g841
g671
sg277
g278
sg842
g683
sbag0
(g837
g2
Ntp957
Rp958
(dp959
g841
g671
sg277
g278
sg842
g686
sbag0
(g837
g2
Ntp960
Rp961
(dp962
g841
g686
sg277
g278
sg842
g689
sbag0
(g837
g2
Ntp963
Rp964
(dp965
g841
g689
sg277
g278
sg842
g692
sbag0
(g837
g2
Ntp966
Rp967
(dp968
g841
g686
sg277
g278
sg842
g695
sbag0
(g837
g2
Ntp969
Rp970
(dp971
g841
g695
sg277
g278
sg842
g692
sbag0
(g837
g2
Ntp972
Rp973
(dp974
g841
g668
sg277
g278
sg842
g698
sbag0
(g837
g2
Ntp975
Rp976
(dp977
g841
g698
sg277
g278
sg842
g701
sbag0
(g837
g2
Ntp978
Rp979
(dp980
g841
g701
sg277
g278
sg842
g704
sbag0
(g837
g2
Ntp981
Rp982
(dp983
g841
g701
sg277
g278
sg842
g707
sbag0
(g837
g2
Ntp984
Rp985
(dp986
g841
g698
sg277
g278
sg842
g710
sbag0
(g837
g2
Ntp987
Rp988
(dp989
g841
g710
sg277
g278
sg842
g713
sbag0
(g837
g2
Ntp990
Rp991
(dp992
g841
g668
sg277
g278
sg842
g716
sbag0
(g837
g2
Ntp993
Rp994
(dp995
g841
g668
sg277
g278
sg842
g719
sbag0
(g837
g2
Ntp996
Rp997
(dp998
g841
g719
sg277
g278
sg842
g674
sbag0
(g837
g2
Ntp999
Rp1000
(dp1001
g841
g719
sg277
g278
sg842
g683
sbag0
(g837
g2
Ntp1002
Rp1003
(dp1004
g841
g565
sg277
g278
sg842
g722
sbag0
(g837
g2
Ntp1005
Rp1006
(dp1007
g841
g565
sg277
g278
sg842
g725
sbag0
(g837
g2
Ntp1008
Rp1009
(dp1010
g841
g725
sg277
g278
sg842
g728
sbag0
(g837
g2
Ntp1011
Rp1012
(dp1013
g841
g728
sg277
g278
sg842
g731
sbag0
(g837
g2
Ntp1014
Rp1015
(dp1016
g841
g728
sg277
g278
sg842
g734
sbag0
(g837
g2
Ntp1017
Rp1018
(dp1019
g841
g725
sg277
g278
sg842
g737
sbag0
(g837
g2
Ntp1020
Rp1021
(dp1022
g841
g737
sg277
g278
sg842
g740
sbag0
(g837
g2
Ntp1023
Rp1024
(dp1025
g841
g740
sg277
g278
sg842
g743
sbag0
(g837
g2
Ntp1026
Rp1027
(dp1028
g841
g740
sg277
g278
sg842
g746
sbag0
(g837
g2
Ntp1029
Rp1030
(dp1031
g841
g740
sg277
g278
sg842
g749
sbag0
(g837
g2
Ntp1032
Rp1033
(dp1034
g841
g740
sg277
g278
sg842
g752
sbag0
(g837
g2
Ntp1035
Rp1036
(dp1037
g841
g740
sg277
g278
sg842
g755
sbag0
(g837
g2
Ntp1038
Rp1039
(dp1040
g841
g740
sg277
g278
sg842
g758
sbag0
(g837
g2
Ntp1041
Rp1042
(dp1043
g841
g740
sg277
g278
sg842
g761
sbag0
(g837
g2
Ntp1044
Rp1045
(dp1046
g841
g740
sg277
g278
sg842
g764
sbag0
(g837
g2
Ntp1047
Rp1048
(dp1049
g841
g764
sg277
g278
sg842
g767
sbag0
(g837
g2
Ntp1050
Rp1051
(dp1052
g841
g764
sg277
g278
sg842
g770
sbag0
(g837
g2
Ntp1053
Rp1054
(dp1055
g841
g764
sg277
g278
sg842
g773
sbag0
(g837
g2
Ntp1056
Rp1057
(dp1058
g841
g764
sg277
g278
sg842
g776
sbag0
(g837
g2
Ntp1059
Rp1060
(dp1061
g841
g737
sg277
g278
sg842
g731
sbag0
(g837
g2
Ntp1062
Rp1063
(dp1064
g841
g731
sg277
g278
sg842
g779
sbag0
(g837
g2
Ntp1065
Rp1066
(dp1067
g841
g731
sg277
g278
sg842
g782
sbag0
(g837
g2
Ntp1068
Rp1069
(dp1070
g841
g731
sg277
g278
sg842
g785
sbag0
(g837
g2
Ntp1071
Rp1072
(dp1073
g841
g737
sg277
g278
sg842
g734
sbag0
(g837
g2
Ntp1074
Rp1075
(dp1076
g841
g734
sg277
g278
sg842
g788
sbag0
(g837
g2
Ntp1077
Rp1078
(dp1079
g841
g734
sg277
g278
sg842
g791
sbag0
(g837
g2
Ntp1080
Rp1081
(dp1082
g841
g734
sg277
g278
sg842
g794
sbag0
(g837
g2
Ntp1083
Rp1084
(dp1085
g841
g734
sg277
g278
sg842
g797
sbag0
(g837
g2
Ntp1086
Rp1087
(dp1088
g841
g734
sg277
g278
sg842
g800
sbag0
(g837
g2
Ntp1089
Rp1090
(dp1091
g841
g734
sg277
g278
sg842
g803
sbag0
(g837
g2
Ntp1092
Rp1093
(dp1094
g841
g734
sg277
g278
sg842
g806
sbag0
(g837
g2
Ntp1095
Rp1096
(dp1097
g841
g734
sg277
g278
sg842
g809
sbag0
(g837
g2
Ntp1098
Rp1099
(dp1100
g841
g734
sg277
g278
sg842
g812
sbag0
(g837
g2
Ntp1101
Rp1102
(dp1103
g841
g734
sg277
g278
sg842
g815
sbag0
(g837
g2
Ntp1104
Rp1105
(dp1106
g841
g734
sg277
g278
sg842
g818
sbag0
(g837
g2
Ntp1107
Rp1108
(dp1109
g841
g725
sg277
g278
sg842
g821
sbag0
(g837
g2
Ntp1110
Rp1111
(dp1112
g841
g821
sg277
g278
sg842
g824
sbag0
(g837
g2
Ntp1113
Rp1114
(dp1115
g841
g821
sg277
g278
sg842
g827
sbag0
(g837
g2
Ntp1116
Rp1117
(dp1118
g841
g725
sg277
g278
sg842
g830
sbag0
(g837
g2
Ntp1119
Rp1120
(dp1121
g841
g830
sg277
g278
sg842
g788
sbag0
(g837
g2
Ntp1122
Rp1123
(dp1124
g841
g830
sg277
g278
sg842
g818
sbag0
(g837
g2
Ntp1125
Rp1126
(dp1127
g841
g725
sg277
g278
sg842
g833
sbag0
(g837
g2
Ntp1128
Rp1129
(dp1130
g841
g833
sg277
g278
sg842
g803
sbag0
(g837
g2
Ntp1131
Rp1132
(dp1133
g841
g833
sg277
g278
sg842
g809
sbag0
(g837
g2
Ntp1134
Rp1135
(dp1136
g841
g833
sg277
g278
sg842
g791
sbasS'neutral'
p1137
g72
sbsg567
I1
sg50
g66
sbssS'model'
p1138
Nsg567
I9
sS'LTM'
p1139
g46
sS'init_act'
p1140
F1.0
sbag0
(clanguage_schemas
CPT_ACTION_SCHEMA
p1141
g2
Ntp1142
Rp1143
(dp1144
g50
g91
sg67
(dp1145
g69
g569
ssg1138
Nsg567
I10
sg1139
g46
sg1140
F1.0
sbag0
(g1141
g2
Ntp1146
Rp1147
(dp1148
g50
g93
sg67
(dp1149
g69
g572
ssg1138
Nsg567
I11
sg1139
g46
sg1140
F1.0
sbag0
(g1141
g2
Ntp1150
Rp1151
(dp1152
g50
g95
sg67
(dp1153
g69
g575
ssg1138
Nsg567
I12
sg1139
g46
sg1140
F1.0
sbag0
(g1141
g2
Ntp1154
Rp1155
(dp1156
g50
g97
sg67
(dp1157
g69
g578
ssg1138
Nsg567
I13
sg1139
g46
sg1140
F1.0
sbag0
(g1141
g2
Ntp1158
Rp1159
(dp1160
g50
g99
sg67
(dp1161
g69
g581
ssg1138
Nsg567
I14
sg1139
g46
sg1140
F1.0
sbag0
(g1141
g2
Ntp1162
Rp1163
(dp1164
g50
g101
sg67
(dp1165
g69
g584
ssg1138
Nsg567
I15
sg1139
g46
sg1140
F1.0
sbag0
(g1141
g2
Ntp1166
Rp1167
(dp1168
g50
g103
sg67
(dp1169
g69
g587
ssg1138
Nsg567
I16
sg1139
g46
sg1140
F1.0
sbag0
(g1141
g2
Ntp1170
Rp1171
(dp1172
g50
g105
sg67
(dp1173
g69
g590
ssg1138
Nsg567
I17
sg1139
g46
sg1140
F1.0
sbag0
(g1141
g2
Ntp1174
Rp1175
(dp1176
g50
g107
sg67
(dp1177
g69
g593
ssg1138
Nsg567
I18
sg1139
g46
sg1140
F1.0
sbag0
(g1141
g2
Ntp1178
Rp1179
(dp1180
g50
g109
sg67
(dp1181
g69
g596
ssg1138
Nsg567
I19
sg1139
g46
sg1140
F1.0
sbag0
(g1141
g2
Ntp1182
Rp1183
(dp1184
g50
g111
sg67
(dp1185
g69
g599
ssg1138
Nsg567
I20
sg1139
g46
sg1140
F1.0
sbag0
(g1141
g2
Ntp1186
Rp1187
(dp1188
g50
g113
sg67
(dp1189
g69
g602
ssg1138
Nsg567
I21
sg1139
g46
sg1140
F1.0
sbag0
(g1141
g2
Ntp1190
Rp1191
(dp1192
g50
g115
sg67
(dp1193
g69
g605
ssg1138
Nsg567
I22
sg1139
g46
sg1140
F1.0
sbag0
(g1141
g2
Ntp1194
Rp1195
(dp1196
g50
g117
sg67
(dp1197
g69
g608
ssg1138
Nsg567
I23
sg1139
g46
sg1140
F1.0
sbag0
(g1141
g2
Ntp1198
Rp1199
(dp1200
g50
g119
sg67
(dp1201
g69
g611
ssg1138
Nsg567
I24
sg1139
g46
sg1140
F1.0
sbag0
(g1141
g2
Ntp1202
Rp1203
(dp1204
g50
g121
sg67
(dp1205
g69
g614
ssg1138
Nsg567
I25
sg1139
g46
sg1140
F1.0
sbag0
(g1141
g2
Ntp1206
Rp1207
(dp1208
g50
g123
sg67
(dp1209
g69
g617
ssg1138
Nsg567
I26
sg1139
g46
sg1140
F1.0
sbag0
(g1141
g2
Ntp1210
Rp1211
(dp1212
g50
g125
sg67
(dp1213
g69
g620
ssg1138
Nsg567
I27
sg1139
g46
sg1140
F1.0
sbag0
(g1141
g2
Ntp1214
Rp1215
(dp1216
g50
g127
sg67
(dp1217
g69
g623
ssg1138
Nsg567
I28
sg1139
g46
sg1140
F1.0
sbag0
(clanguage_schemas
CPT_PROPERTY_SCHEMA
p1218
g2
Ntp1219
Rp1220
(dp1221
g50
g129
sg67
(dp1222
g69
g626
ssg1138
Nsg567
I29
sg1139
g46
sg1140
F1.0
sbag0
(g1218
g2
Ntp1223
Rp1224
(dp1225
g50
g131
sg67
(dp1226
g69
g629
ssg1138
Nsg567
I30
sg1139
g46
sg1140
F1.0
sbag0
(g1218
g2
Ntp1227
Rp1228
(dp1229
g50
g133
sg67
(dp1230
g69
g632
ssg1138
Nsg567
I31
sg1139
g46
sg1140
F1.0
sbag0
(g1218
g2
Ntp1231
Rp1232
(dp1233
g50
g135
sg67
(dp1234
g69
g635
ssg1138
Nsg567
I32
sg1139
g46
sg1140
F1.0
sbag0
(g1218
g2
Ntp1235
Rp1236
(dp1237
g50
g137
sg67
(dp1238
g69
g638
ssg1138
Nsg567
I33
sg1139
g46
sg1140
F1.0
sbag0
(g1218
g2
Ntp1239
Rp1240
(dp1241
g50
g139
sg67
(dp1242
g69
g641
ssg1138
Nsg567
I34
sg1139
g46
sg1140
F1.0
sbag0
(g1218
g2
Ntp1243
Rp1244
(dp1245
g50
g141
sg67
(dp1246
g69
g644
ssg1138
Nsg567
I35
sg1139
g46
sg1140
F1.0
sbag0
(g1218
g2
Ntp1247
Rp1248
(dp1249
g50
g143
sg67
(dp1250
g69
g647
ssg1138
Nsg567
I36
sg1139
g46
sg1140
F1.0
sbag0
(g1218
g2
Ntp1251
Rp1252
(dp1253
g50
g145
sg67
(dp1254
g69
g650
ssg1138
Nsg567
I37
sg1139
g46
sg1140
F1.0
sbag0
(g1218
g2
Ntp1255
Rp1256
(dp1257
g50
g147
sg67
(dp1258
g69
g653
ssg1138
Nsg567
I38
sg1139
g46
sg1140
F1.0
sbag0
(g1218
g2
Ntp1259
Rp1260
(dp1261
g50
g149
sg67
(dp1262
g69
g656
ssg1138
Nsg567
I39
sg1139
g46
sg1140
F1.0
sbag0
(g1218
g2
Ntp1263
Rp1264
(dp1265
g50
g151
sg67
(dp1266
g69
g659
ssg1138
Nsg567
I40
sg1139
g46
sg1140
F1.0
sbag0
(g1218
g2
Ntp1267
Rp1268
(dp1269
g50
g153
sg67
(dp1270
g69
g662
ssg1138
Nsg567
I41
sg1139
g46
sg1140
F1.0
sbag0
(g1218
g2
Ntp1271
Rp1272
(dp1273
g50
g155
sg67
(dp1274
g69
g665
ssg1138
Nsg567
I42
sg1139
g46
sg1140
F1.0
sbag0
(clanguage_schemas
CPT_RELATION_SCHEMA
p1275
g2
Ntp1276
Rp1277
(dp1278
g50
g157
sg67
(dp1279
g841
Nsg69
g668
sg842
Nssg1138
Nsg567
I43
sg1139
g46
sg1140
F1.0
sbag0
(g1275
g2
Ntp1280
Rp1281
(dp1282
g50
g159
sg67
(dp1283
g841
Nsg69
g671
sg842
Nssg1138
Nsg567
I44
sg1139
g46
sg1140
F1.0
sbag0
(g1275
g2
Ntp1284
Rp1285
(dp1286
g50
g161
sg67
(dp1287
g841
Nsg69
g674
sg842
Nssg1138
Nsg567
I45
sg1139
g46
sg1140
F1.0
sbag0
(g1275
g2
Ntp1288
Rp1289
(dp1290
g50
g163
sg67
(dp1291
g841
Nsg69
g677
sg842
Nssg1138
Nsg567
I46
sg1139
g46
sg1140
F1.0
sbag0
(g1275
g2
Ntp1292
Rp1293
(dp1294
g50
g165
sg67
(dp1295
g841
Nsg69
g680
sg842
Nssg1138
Nsg567
I47
sg1139
g46
sg1140
F1.0
sbag0
(g1275
g2
Ntp1296
Rp1297
(dp1298
g50
g167
sg67
(dp1299
g841
Nsg69
g683
sg842
Nssg1138
Nsg567
I48
sg1139
g46
sg1140
F1.0
sbag0
(g1275
g2
Ntp1300
Rp1301
(dp1302
g50
g169
sg67
(dp1303
g841
Nsg69
g686
sg842
Nssg1138
Nsg567
I49
sg1139
g46
sg1140
F1.0
sbag0
(g1275
g2
Ntp1304
Rp1305
(dp1306
g50
g171
sg67
(dp1307
g841
Nsg69
g689
sg842
Nssg1138
Nsg567
I50
sg1139
g46
sg1140
F1.0
sbag0
(g1275
g2
Ntp1308
Rp1309
(dp1310
g50
g173
sg67
(dp1311
g841
Nsg69
g692
sg842
Nssg1138
Nsg567
I51
sg1139
g46
sg1140
F1.0
sbag0
(g1275
g2
Ntp1312
Rp1313
(dp1314
g50
g175
sg67
(dp1315
g841
Nsg69
g695
sg842
Nssg1138
Nsg567
I52
sg1139
g46
sg1140
F1.0
sbag0
(g1275
g2
Ntp1316
Rp1317
(dp1318
g50
g177
sg67
(dp1319
g841
Nsg69
g698
sg842
Nssg1138
Nsg567
I53
sg1139
g46
sg1140
F1.0
sbag0
(g1275
g2
Ntp1320
Rp1321
(dp1322
g50
g179
sg67
(dp1323
g841
Nsg69
g701
sg842
Nssg1138
Nsg567
I54
sg1139
g46
sg1140
F1.0
sbag0
(g1275
g2
Ntp1324
Rp1325
(dp1326
g50
g181
sg67
(dp1327
g841
Nsg69
g704
sg842
Nssg1138
Nsg567
I55
sg1139
g46
sg1140
F1.0
sbag0
(g1275
g2
Ntp1328
Rp1329
(dp1330
g50
g183
sg67
(dp1331
g841
Nsg69
g707
sg842
Nssg1138
Nsg567
I56
sg1139
g46
sg1140
F1.0
sbag0
(g1275
g2
Ntp1332
Rp1333
(dp1334
g50
g185
sg67
(dp1335
g841
Nsg69
g710
sg842
Nssg1138
Nsg567
I57
sg1139
g46
sg1140
F1.0
sbag0
(g1275
g2
Ntp1336
Rp1337
(dp1338
g50
g187
sg67
(dp1339
g841
Nsg69
g713
sg842
Nssg1138
Nsg567
I58
sg1139
g46
sg1140
F1.0
sbag0
(g1275
g2
Ntp1340
Rp1341
(dp1342
g50
g189
sg67
(dp1343
g841
Nsg69
g716
sg842
Nssg1138
Nsg567
I59
sg1139
g46
sg1140
F1.0
sbag0
(g1275
g2
Ntp1344
Rp1345
(dp1346
g50
g191
sg67
(dp1347
g841
Nsg69
g719
sg842
Nssg1138
Nsg567
I60
sg1139
g46
sg1140
F1.0
sbag0
(g62
g2
Ntp1348
Rp1349
(dp1350
g50
g193
sg67
(dp1351
g69
g722
ssg1138
Nsg567
I61
sg1139
g46
sg1140
F1.0
sbag0
(clanguage_schemas
CPT_ENTITY_SCHEMA
p1352
g2
Ntp1353
Rp1354
(dp1355
g50
g195
sg67
(dp1356
g69
g725
ssg1138
Nsg567
I62
sg1139
g46
sg1140
F1.0
sbag0
(g1352
g2
Ntp1357
Rp1358
(dp1359
g50
g197
sg67
(dp1360
g69
g728
ssg1138
Nsg567
I63
sg1139
g46
sg1140
F1.0
sbag0
(g1352
g2
Ntp1361
Rp1362
(dp1363
g50
g199
sg67
(dp1364
g69
g731
ssg1138
Nsg567
I64
sg1139
g46
sg1140
F1.0
sbag0
(g1352
g2
Ntp1365
Rp1366
(dp1367
g50
g201
sg67
(dp1368
g69
g734
ssg1138
Nsg567
I65
sg1139
g46
sg1140
F1.0
sbag0
(g1352
g2
Ntp1369
Rp1370
(dp1371
g50
g203
sg67
(dp1372
g69
g737
ssg1138
Nsg567
I66
sg1139
g46
sg1140
F1.0
sbag0
(g1352
g2
Ntp1373
Rp1374
(dp1375
g50
g205
sg67
(dp1376
g69
g740
ssg1138
Nsg567
I67
sg1139
g46
sg1140
F1.0
sbag0
(g1352
g2
Ntp1377
Rp1378
(dp1379
g50
g207
sg67
(dp1380
g69
g743
ssg1138
Nsg567
I68
sg1139
g46
sg1140
F1.0
sbag0
(g1352
g2
Ntp1381
Rp1382
(dp1383
g50
g209
sg67
(dp1384
g69
g746
ssg1138
Nsg567
I69
sg1139
g46
sg1140
F1.0
sbag0
(g1352
g2
Ntp1385
Rp1386
(dp1387
g50
g211
sg67
(dp1388
g69
g749
ssg1138
Nsg567
I70
sg1139
g46
sg1140
F1.0
sbag0
(g1352
g2
Ntp1389
Rp1390
(dp1391
g50
g213
sg67
(dp1392
g69
g752
ssg1138
Nsg567
I71
sg1139
g46
sg1140
F1.0
sbag0
(g1352
g2
Ntp1393
Rp1394
(dp1395
g50
g215
sg67
(dp1396
g69
g755
ssg1138
Nsg567
I72
sg1139
g46
sg1140
F1.0
sbag0
(g1352
g2
Ntp1397
Rp1398
(dp1399
g50
g217
sg67
(dp1400
g69
g758
ssg1138
Nsg567
I73
sg1139
g46
sg1140
F1.0
sbag0
(g1352
g2
Ntp1401
Rp1402
(dp1403
g50
g219
sg67
(dp1404
g69
g761
ssg1138
Nsg567
I74
sg1139
g46
sg1140
F1.0
sbag0
(g1352
g2
Ntp1405
Rp1406
(dp1407
g50
g221
sg67
(dp1408
g69
g764
ssg1138
Nsg567
I75
sg1139
g46
sg1140
F1.0
sbag0
(g1352
g2
Ntp1409
Rp1410
(dp1411
g50
g223
sg67
(dp1412
g69
g767
ssg1138
Nsg567
I76
sg1139
g46
sg1140
F1.0
sbag0
(g1352
g2
Ntp1413
Rp1414
(dp1415
g50
g225
sg67
(dp1416
g69
g770
ssg1138
Nsg567
I77
sg1139
g46
sg1140
F1.0
sbag0
(g1352
g2
Ntp1417
Rp1418
(dp1419
g50
g227
sg67
(dp1420
g69
g773
ssg1138
Nsg567
I78
sg1139
g46
sg1140
F1.0
sbag0
(g1352
g2
Ntp1421
Rp1422
(dp1423
g50
g229
sg67
(dp1424
g69
g776
ssg1138
Nsg567
I79
sg1139
g46
sg1140
F1.0
sbag0
(g1352
g2
Ntp1425
Rp1426
(dp1427
g50
g231
sg67
(dp1428
g69
g779
ssg1138
Nsg567
I80
sg1139
g46
sg1140
F1.0
sbag0
(g1352
g2
Ntp1429
Rp1430
(dp1431
g50
g233
sg67
(dp1432
g69
g782
ssg1138
Nsg567
I81
sg1139
g46
sg1140
F1.0
sbag0
(g1352
g2
Ntp1433
Rp1434
(dp1435
g50
g235
sg67
(dp1436
g69
g785
ssg1138
Nsg567
I82
sg1139
g46
sg1140
F1.0
sbag0
(g1352
g2
Ntp1437
Rp1438
(dp1439
g50
g237
sg67
(dp1440
g69
g788
ssg1138
Nsg567
I83
sg1139
g46
sg1140
F1.0
sbag0
(g1352
g2
Ntp1441
Rp1442
(dp1443
g50
g239
sg67
(dp1444
g69
g791
ssg1138
Nsg567
I84
sg1139
g46
sg1140
F1.0
sbag0
(g1352
g2
Ntp1445
Rp1446
(dp1447
g50
g241
sg67
(dp1448
g69
g794
ssg1138
Nsg567
I85
sg1139
g46
sg1140
F1.0
sbag0
(g1352
g2
Ntp1449
Rp1450
(dp1451
g50
g243
sg67
(dp1452
g69
g797
ssg1138
Nsg567
I86
sg1139
g46
sg1140
F1.0
sbag0
(g1352
g2
Ntp1453
Rp1454
(dp1455
g50
g245
sg67
(dp1456
g69
g800
ssg1138
Nsg567
I87
sg1139
g46
sg1140
F1.0
sbag0
(g1352
g2
Ntp1457
Rp1458
(dp1459
g50
g247
sg67
(dp1460
g69
g803
ssg1138
Nsg567
I88
sg1139
g46
sg1140
F1.0
sbag0
(g1352
g2
Ntp1461
Rp1462
(dp1463
g50
g249
sg67
(dp1464
g69
g806
ssg1138
Nsg567
I89
sg1139
g46
sg1140
F1.0
sbag0
(g1352
g2
Ntp1465
Rp1466
(dp1467
g50
g251
sg67
(dp1468
g69
g809
ssg1138
Nsg567
I90
sg1139
g46
sg1140
F1.0
sbag0
(g1352
g2
Ntp1469
Rp1470
(dp1471
g50
g253
sg67
(dp1472
g69
g812
ssg1138
Nsg567
I91
sg1139
g46
sg1140
F1.0
sbag0
(g1352
g2
Ntp1473
Rp1474
(dp1475
g50
g255
sg67
(dp1476
g69
g815
ssg1138
Nsg567
I92
sg1139
g46
sg1140
F1.0
sbag0
(g1352
g2
Ntp1477
Rp1478
(dp1479
g50
g257
sg67
(dp1480
g69
g818
ssg1138
Nsg567
I93
sg1139
g46
sg1140
F1.0
sbag0
(g1352
g2
Ntp1481
Rp1482
(dp1483
g50
g259
sg67
(dp1484
g69
g821
ssg1138
Nsg567
I94
sg1139
g46
sg1140
F1.0
sbag0
(g1352
g2
Ntp1485
Rp1486
(dp1487
g50
g261
sg67
(dp1488
g69
g824
ssg1138
Nsg567
I95
sg1139
g46
sg1140
F1.0
sbag0
(g1352
g2
Ntp1489
Rp1490
(dp1491
g50
g263
sg67
(dp1492
g69
g827
ssg1138
Nsg567
I96
sg1139
g46
sg1140
F1.0
sbag0
(g1352
g2
Ntp1493
Rp1494
(dp1495
g50
g265
sg67
(dp1496
g69
g830
ssg1138
Nsg567
I97
sg1139
g46
sg1140
F1.0
sbag0
(g1352
g2
Ntp1497
Rp1498
(dp1499
g50
g267
sg67
(dp1500
g69
g833
ssg1138
Nsg567
I98
sg1139
g46
sg1140
F1.0
sbasg277
S'OUT'
p1501
sg567
I11
sS'schema'
p1502
g46
sbag0
(g54
g2
Ntp1503
Rp1504
(dp1505
g50
S'to_semantic_WM'
p1506
sg59
Nsg60
g61
sg277
g1501
sg567
I12
sg1502
g46
sbasS'outputs'
p1507
(dp1508
g58
Nsg1506
NssS'connections'
p1509
(lp1510
sS'cpt_knowledge'
p1511
g78
sS'dt'
p1512
F1.0
sS'in_ports'
p1513
(lp1514
sS'params'
p1515
(dp1516
g1140
F1.0
ssS't'
p1517
I0
sS'activity'
p1518
I0
sg1138
g0
(cschema_theory
MODEL
p1519
g2
Ntp1520
Rp1521
(dp1522
S'verbose'
p1523
I00
sg50
S'language_system_P'
p1524
sS'sim_data'
p1525
(dp1526
S'system_states'
p1527
(dp1528
sg1138
(dp1529
ssg1507
(dp1530
sS'input_ports'
p1531
(lp1532
g0
(g54
g2
Ntp1533
Rp1534
(dp1535
g50
S'from_conceptualizer'
p1536
sg59
Nsg60
Nsg277
S'IN'
p1537
sg567
I1
sg1502
g0
(clanguage_schemas
SEMANTIC_WM
p1538
g2
Ntp1539
Rp1540
(dp1541
g48
(dp1542
S'from_grammatical_WM_P'
p1543
NsS'from_concept_LTM'
p1544
NsS'from_control'
p1545
NsS'from_grammatical_WM_C'
p1546
Nsg1536
NssS'schema_insts'
p1547
(lp1548
sg50
S'Semantic_WM'
p1549
sS'comp_links'
p1550
(lp1551
sg52
(lp1552
g0
(g54
g2
Ntp1553
Rp1554
(dp1555
S'port_data'
p1556
Nsg50
S'to_grammatical_WM_P'
p1557
sg59
Nsg60
NsS'port_value'
p1558
Nsg277
g1501
sg567
I6
sg1502
g1540
sbag0
(g54
g2
Ntp1559
Rp1560
(dp1561
g1556
Nsg50
S'to_cxn_retrieval_P'
p1562
sg59
Nsg60
Nsg1558
Nsg277
g1501
sg567
I7
sg1502
g1540
sbag0
(g54
g2
Ntp1563
Rp1564
(dp1565
g1556
Nsg50
S'to_control'
p1566
sg59
Nsg60
Nsg1558
Nsg277
g1501
sg567
I8
sg1502
g1540
sbag0
(g54
g2
Ntp1567
Rp1568
(dp1569
g50
S'to_visual_WM'
p1570
sg59
Nsg60
Nsg277
g1501
sg567
I9
sg1502
g1540
sbag0
(g54
g2
Ntp1571
Rp1572
(dp1573
g50
S'to_output'
p1574
sg59
Nsg60
Nsg277
g1501
sg567
I10
sg1502
g1540
sbasg1507
(dp1575
g1574
Nsg1557
Nsg1570
Nsg1562
Nsg1566
Nssg1512
F1.0
sS'coop_links'
p1576
(lp1577
sg1513
(lp1578
g1534
ag0
(g54
g2
Ntp1579
Rp1580
(dp1581
g50
g1544
sg59
Nsg60
Nsg277
g1537
sg567
I2
sg1502
g1540
sbag0
(g54
g2
Ntp1582
Rp1583
(dp1584
g50
g1546
sg59
Nsg60
Nsg277
g1537
sg567
I3
sg1502
g1540
sbag0
(g54
g2
Ntp1585
Rp1586
(dp1587
g1556
Nsg50
g1543
sg59
Nsg60
Nsg1558
Nsg277
g1537
sg567
I4
sg1502
g1540
sbag0
(g54
g2
Ntp1588
Rp1589
(dp1590
g1556
Nsg50
g1545
sg59
Nsg60
S'produce'
p1591
sg1558
Nsg277
g1537
sg567
I5
sg1502
g1540
sbasS'save_state'
p1592
(dp1593
S'insts'
p1594
(dp1595
sS'WM_activity'
p1596
(dp1597
S'comp'
p1598
(lp1599
sS'c2_network'
p1600
(dp1601
S'num_insts'
p1602
(lp1603
sS'num_coop_links'
p1604
(lp1605
sS'num_comp_links'
p1606
(lp1607
ssS'coop'
p1608
(lp1609
sg1517
(lp1610
sS'act'
p1611
(lp1612
sssg1515
(dp1613
S'C2'
p1614
(dp1615
S'P_comp'
p1616
F1.0
sS'comp_weight'
p1617
F0.0
sS'P_coop'
p1618
F1.0
sS'coop_asymmetry'
p1619
F1.0
sS'coop_weight'
p1620
F0.0
sS'confidence_threshold'
p1621
F0.0
sS'comp_asymmetry'
p1622
F0.0
sS'prune_threshold'
p1623
F0.01
ssS'dyn'
p1624
(dp1625
S'tau'
p1626
F10000.0
sS'k'
p1627
F10.0
sS'act_rest'
p1628
F0.001
sS'noise_mean'
p1629
F0.0
sS'noise_std'
p1630
F1.0
sS'ext_weight'
p1631
F1.0
sS'int_weight'
p1632
F1.0
sssg1517
I0
sg1518
I0
sg1138
g1521
sS'SemRep'
p1633
g0
(g81
g2
Ntp1634
Rp1635
(dp1636
g85
(dp1637
sg268
g269
sg270
g269
sg271
(dp1638
sg465
g1638
sg80
(dp1639
sg467
g269
sg468
g1638
sg469
(dp1640
sbsg567
I1
sbsbasS'brain_mapping'
p1641
g0
(cschema_theory
BRAIN_MAPPING
p1642
g2
Ntp1643
Rp1644
(dp1645
S'schema_mapping'
p1646
(dp1647
S'Control'
p1648
(lp1649
S'DLPFC'
p1650
asS'Utter'
p1651
(lp1652
S''
p1653
asg1549
(lp1654
S'left_SFG'
p1655
aS'LIP'
p1656
aS'Hippocampus'
p1657
asS'Phonological_WM_P'
p1658
(lp1659
S'left_BA6'
p1660
asg51
(lp1661
g1653
asS'Grammatical_WM_P'
p1662
(lp1663
S'left_BA45'
p1664
aS'leftBA44'
p1665
asS'Grammatical_LTM'
p1666
(lp1667
S'left_STG'
p1668
aS'left_MTG'
p1669
asS'Cxn_retrieval_P'
p1670
(lp1671
ssS'connect_mapping'
p1672
(dp1673
sbsg1509
(lp1674
g0
(cschema_theory
CONNECT
p1675
g2
Ntp1676
Rp1677
(dp1678
S'delay'
p1679
I0
sg50
g1653
sS'weight'
p1680
I0
sS'port_to'
p1681
g0
(g54
g2
Ntp1682
Rp1683
(dp1684
g1556
Nsg50
S'from_semantic_WM'
p1685
sg59
Nsg60
Nsg1558
Nsg277
g1537
sg567
I23
sg1502
g0
(clanguage_schemas
CXN_RETRIEVAL_P
p1686
g2
Ntp1687
Rp1688
(dp1689
g48
(dp1690
g1685
NsS'from_grammatical_LTM'
p1691
Nssg50
g1670
sg52
(lp1692
g0
(g54
g2
Ntp1693
Rp1694
(dp1695
g1556
Nsg50
g1557
sg59
Nsg60
Nsg1558
Nsg277
g1501
sg567
I24
sg1502
g1688
sbasg1507
(dp1696
g1557
NssS'cxn_instances'
p1697
(lp1698
sg1512
F1.0
sg1513
(lp1699
g0
(g54
g2
Ntp1700
Rp1701
(dp1702
g1556
Nsg50
g1691
sg59
Nsg60
(lp1703
g0
(clanguage_schemas
CXN_SCHEMA
p1704
g2
Ntp1705
Rp1706
(dp1707
g50
VCNJ_AND
p1708
sg67
(iconstruction
CXN
p1709
(dp1710
S'SymLinks'
p1711
(iconstruction
TP_SYMLINKS
p1712
(dp1713
S'SL'
p1714
(dp1715
VEVT1_4
p1716
VS1_6
p1717
sVEVT2_5
p1718
VS3_8
p1719
ssg567
I3
sg50
g1653
sbsS'clss'
p1720
VD
p1721
sS'group'
p1722
I3
sg50
g1708
sS'SemFrame'
p1723
(iconstruction
TP_SEMFRAME
p1724
(dp1725
g80
g0
(g81
g2
Ntp1726
Rp1727
(dp1728
g85
(dp1729
(iconstruction
TP_NODE
p1730
(dp1731
S'head'
p1732
I00
sg69
g722
sg50
g1718
sS'frame'
p1733
I00
sS'focus'
p1734
I00
sg567
I5
sb(dp1735
g1733
I00
sg69
g722
ss(iconstruction
TP_NODE
p1736
(dp1737
g1732
I00
sg69
g722
sg50
g1716
sg1733
I00
sg1734
I01
sg567
I4
sb(dp1738
g1733
I00
sg69
g722
sssg268
g269
sg270
g269
sg271
(dp1739
g1730
(dp1740
sg1736
(dp1741
ssg465
g1739
sg80
(dp1742
sg467
g269
sg468
g1739
sg469
(dp1743
g1730
(dp1744
sg1736
(dp1745
ssbsg562
(lp1746
g1736
ag1730
asg835
(lp1747
sg567
I1
sg50
g1653
sbsS'SynForm'
p1748
(iconstruction
TP_SYNFORM
p1749
(dp1750
g567
I2
sS'form'
p1751
(lp1752
(iconstruction
TP_SLOT
p1753
(dp1754
S'cxn_classes'
p1755
(lp1756
VS
p1757
asS'order'
p1758
I0
sg567
I6
sg50
g1717
sba(iconstruction
TP_PHON
p1759
(dp1760
S'num_syllables'
p1761
I3
sg1758
I1
sg567
I7
sS'cxn_phonetics'
p1762
Vand
p1763
sg50
VS2_7
p1764
sba(iconstruction
TP_SLOT
p1765
(dp1766
g1755
(lp1767
VS
p1768
asg1758
I2
sg567
I8
sg50
g1719
sbasg50
g1653
sbsS'preference'
p1769
I1
sbsg1138
Nsg567
I99
sg1139
g0
(clanguage_schemas
GRAMMATICAL_LTM
p1770
g2
Ntp1771
Rp1772
(dp1773
g48
(dp1774
sS'grammar'
p1775
(iconstruction
GRAMMAR
p1776
(dp1777
S'constructions'
p1778
(lp1779
g1709
a(iconstruction
CXN
p1780
(dp1781
g1711
(iconstruction
TP_SYMLINKS
p1782
(dp1783
g1714
(dp1784
VEVT2_13
p1785
VS3_17
p1786
sVEVT1_12
p1787
VS1_15
p1788
ssg567
I11
sg50
g1653
sbsg1720
VD
p1789
sg1722
I3
sg50
VCNJ_THEN
p1790
sg1723
(iconstruction
TP_SEMFRAME
p1791
(dp1792
g80
g0
(g81
g2
Ntp1793
Rp1794
(dp1795
g85
(dp1796
(iconstruction
TP_NODE
p1797
(dp1798
g1732
I00
sg69
g722
sg50
g1785
sg1733
I00
sg1734
I00
sg567
I13
sb(dp1799
g1733
I00
sg69
g722
ss(iconstruction
TP_NODE
p1800
(dp1801
g1732
I00
sg69
g722
sg50
g1787
sg1733
I00
sg1734
I00
sg567
I12
sb(dp1802
g1733
I00
sg69
g722
sssg268
g269
sg270
g269
sg271
(dp1803
g1797
(dp1804
sg1800
(dp1805
g1797
(dp1806
g69
g707
ssssg465
g1803
sg80
(dp1807
sg467
g269
sg468
g1803
sg469
(dp1808
g1797
(dp1809
g1800
g1806
ssg1800
(dp1810
ssbsg562
(lp1811
g1800
ag1797
asg835
(lp1812
(iconstruction
TP_REL
p1813
(dp1814
g841
g1797
sg69
g707
sg567
I14
sg842
g1800
sg50
VEVT1_EVT2_14
p1815
sbasg567
I9
sg50
g1653
sbsg1748
(iconstruction
TP_SYNFORM
p1816
(dp1817
g567
I10
sg1751
(lp1818
(iconstruction
TP_SLOT
p1819
(dp1820
g1755
(lp1821
VS
p1822
asg1758
I0
sg567
I15
sg50
g1788
sba(iconstruction
TP_PHON
p1823
(dp1824
g1761
I4
sg1758
I1
sg567
I16
sg1762
Vthen
p1825
sg50
VS2_16
p1826
sba(iconstruction
TP_SLOT
p1827
(dp1828
g1755
(lp1829
VS
p1830
asg1758
I2
sg567
I17
sg50
g1786
sbasg50
g1653
sbsg1769
I1
sba(iconstruction
CXN
p1831
(dp1832
g1711
(iconstruction
TP_SYMLINKS
p1833
(dp1834
g1714
(dp1835
VEVT2_22
p1836
VS3_26
p1837
sVEVT1_21
p1838
VS1_24
p1839
ssg567
I20
sg50
g1653
sbsg1720
VD
p1840
sg1722
I3
sg50
VCNJ_WHILE
p1841
sg1723
(iconstruction
TP_SEMFRAME
p1842
(dp1843
g80
g0
(g81
g2
Ntp1844
Rp1845
(dp1846
g85
(dp1847
(iconstruction
TP_NODE
p1848
(dp1849
g1732
I00
sg69
g722
sg50
g1836
sg1733
I00
sg1734
I00
sg567
I22
sb(dp1850
g1733
I00
sg69
g722
ss(iconstruction
TP_NODE
p1851
(dp1852
g1732
I00
sg69
g722
sg50
g1838
sg1733
I00
sg1734
I01
sg567
I21
sb(dp1853
g1733
I00
sg69
g722
sssg268
g269
sg270
g269
sg271
(dp1854
g1848
(dp1855
sg1851
(dp1856
g1848
(dp1857
g69
g704
ssssg465
g1854
sg80
(dp1858
sg467
g269
sg468
g1854
sg469
(dp1859
g1848
(dp1860
g1851
g1857
ssg1851
(dp1861
ssbsg562
(lp1862
g1851
ag1848
asg835
(lp1863
(iconstruction
TP_REL
p1864
(dp1865
g841
g1848
sg69
g704
sg567
I23
sg842
g1851
sg50
VEVT1_EVT2_23
p1866
sbasg567
I18
sg50
g1653
sbsg1748
(iconstruction
TP_SYNFORM
p1867
(dp1868
g567
I19
sg1751
(lp1869
(iconstruction
TP_SLOT
p1870
(dp1871
g1755
(lp1872
VS
p1873
asg1758
I0
sg567
I24
sg50
g1839
sba(iconstruction
TP_PHON
p1874
(dp1875
g1761
I5
sg1758
I1
sg567
I25
sg1762
Vwhile
p1876
sg50
VS2_25
p1877
sba(iconstruction
TP_SLOT
p1878
(dp1879
g1755
(lp1880
VS
p1881
asg1758
I2
sg567
I26
sg50
g1837
sbasg50
g1653
sbsg1769
I1
sba(iconstruction
CXN
p1882
(dp1883
g1711
(iconstruction
TP_SYMLINKS
p1884
(dp1885
g1714
(dp1886
VACT_31
p1887
VS4_40
p1888
sVACTOR_1_32
p1889
VS1_37
p1890
sVACTOR_2_33
p1891
VS3_39
p1892
ssg567
I29
sg50
g1653
sbsg1720
VS
p1893
sg1722
Nsg50
VSYMMETRIC_TRANS
p1894
sg1723
(iconstruction
TP_SEMFRAME
p1895
(dp1896
g80
g0
(g81
g2
Ntp1897
Rp1898
(dp1899
g85
(dp1900
(iconstruction
TP_NODE
p1901
(dp1902
g1732
I01
sg69
g722
sg50
VEVT_30
p1903
sg1733
I01
sg1734
I00
sg567
I30
sb(dp1904
g1733
I01
sg69
g722
ss(iconstruction
TP_NODE
p1905
(dp1906
g1732
I00
sg69
g725
sg50
g1889
sg1733
I01
sg1734
I01
sg567
I32
sb(dp1907
g1733
I01
sg69
g725
ss(iconstruction
TP_NODE
p1908
(dp1909
g1732
I00
sg69
g569
sg50
g1887
sg1733
I01
sg1734
I00
sg567
I31
sb(dp1910
g1733
I01
sg69
g569
ss(iconstruction
TP_NODE
p1911
(dp1912
g1732
I00
sg69
g725
sg50
g1891
sg1733
I01
sg1734
I00
sg567
I33
sb(dp1913
g1733
I01
sg69
g725
sssg268
g269
sg270
g269
sg271
(dp1914
g1901
(dp1915
g1908
(dp1916
g69
g716
sssg1905
(dp1917
sg1908
(dp1918
g1905
(dp1919
g69
g692
ssg1911
(dp1920
g69
g692
sssg1911
(dp1921
ssg465
g1914
sg80
(dp1922
sg467
g269
sg468
g1914
sg469
(dp1923
g1901
(dp1924
sg1905
(dp1925
g1908
g1919
ssg1908
(dp1926
g1901
g1916
ssg1911
(dp1927
g1908
g1920
sssbsg562
(lp1928
g1901
ag1908
ag1905
ag1911
asg835
(lp1929
(iconstruction
TP_REL
p1930
(dp1931
g841
g1908
sg69
g716
sg567
I34
sg842
g1901
sg50
VIS_34
p1932
sba(iconstruction
TP_REL
p1933
(dp1934
g841
g1905
sg69
g692
sg567
I35
sg842
g1908
sg50
VAGT_PT_1_35
p1935
sba(iconstruction
TP_REL
p1936
(dp1937
g841
g1911
sg69
g692
sg567
I36
sg842
g1908
sg50
VAGT_PT_2_36
p1938
sbasg567
I27
sg50
g1653
sbsg1748
(iconstruction
TP_SYNFORM
p1939
(dp1940
g567
I28
sg1751
(lp1941
(iconstruction
TP_SLOT
p1942
(dp1943
g1755
(lp1944
VNP
p1945
aVN
p1946
asg1758
I0
sg567
I37
sg50
g1890
sba(iconstruction
TP_PHON
p1947
(dp1948
g1761
I3
sg1758
I1
sg567
I38
sg1762
Vand
p1949
sg50
VS2_38
p1950
sba(iconstruction
TP_SLOT
p1951
(dp1952
g1755
(lp1953
VNP
p1954
aVN
p1955
asg1758
I2
sg567
I39
sg50
g1892
sba(iconstruction
TP_SLOT
p1956
(dp1957
g1755
(lp1958
VVP
p1959
aVV
p1960
asg1758
I3
sg567
I40
sg50
g1888
sbasg50
g1653
sbsg1769
I1
sba(iconstruction
CXN
p1961
(dp1962
g1711
(iconstruction
TP_SYMLINKS
p1963
(dp1964
g1714
(dp1965
VAGT_46
p1966
VS1_51
p1967
sVACT_45
p1968
VS2_52
p1969
sVPT_47
p1970
VS3_53
p1971
ssg567
I43
sg50
g1653
sbsg1720
VS
p1972
sg1722
I2
sg50
VSVO
p1973
sg1723
(iconstruction
TP_SEMFRAME
p1974
(dp1975
g80
g0
(g81
g2
Ntp1976
Rp1977
(dp1978
g85
(dp1979
(iconstruction
TP_NODE
p1980
(dp1981
g1732
I01
sg69
g722
sg50
VEVT_44
p1982
sg1733
I01
sg1734
I00
sg567
I44
sb(dp1983
g1733
I01
sg69
g722
ss(iconstruction
TP_NODE
p1984
(dp1985
g1732
I00
sg69
g725
sg50
g1966
sg1733
I01
sg1734
I01
sg567
I46
sb(dp1986
g1733
I01
sg69
g725
ss(iconstruction
TP_NODE
p1987
(dp1988
g1732
I00
sg69
g725
sg50
g1970
sg1733
I01
sg1734
I00
sg567
I47
sb(dp1989
g1733
I01
sg69
g725
ss(iconstruction
TP_NODE
p1990
(dp1991
g1732
I00
sg69
g569
sg50
g1968
sg1733
I01
sg1734
I00
sg567
I45
sb(dp1992
g1733
I01
sg69
g569
sssg268
g269
sg270
g269
sg271
(dp1993
g1980
(dp1994
g1990
(dp1995
g69
g716
sssg1984
(dp1996
sg1987
(dp1997
sg1990
(dp1998
g1984
(dp1999
g69
g695
ssg1987
(dp2000
g69
g689
ssssg465
g1993
sg80
(dp2001
sg467
g269
sg468
g1993
sg469
(dp2002
g1980
(dp2003
sg1984
(dp2004
g1990
g1999
ssg1987
(dp2005
g1990
g2000
ssg1990
(dp2006
g1980
g1995
sssbsg562
(lp2007
g1980
ag1990
ag1984
ag1987
asg835
(lp2008
(iconstruction
TP_REL
p2009
(dp2010
g841
g1990
sg69
g716
sg567
I48
sg842
g1980
sg50
VIS_48
p2011
sba(iconstruction
TP_REL
p2012
(dp2013
g841
g1984
sg69
g695
sg567
I49
sg842
g1990
sg50
VACT_AGT_49
p2014
sba(iconstruction
TP_REL
p2015
(dp2016
g841
g1987
sg69
g689
sg567
I50
sg842
g1990
sg50
VACT_PT_50
p2017
sbasg567
I41
sg50
g1653
sbsg1748
(iconstruction
TP_SYNFORM
p2018
(dp2019
g567
I42
sg1751
(lp2020
(iconstruction
TP_SLOT
p2021
(dp2022
g1755
(lp2023
VNP
p2024
aVN
p2025
asg1758
I0
sg567
I51
sg50
g1967
sba(iconstruction
TP_SLOT
p2026
(dp2027
g1755
(lp2028
VVP
p2029
aVV
p2030
asg1758
I1
sg567
I52
sg50
g1969
sba(iconstruction
TP_SLOT
p2031
(dp2032
g1755
(lp2033
VNP
p2034
aVN
p2035
asg1758
I2
sg567
I53
sg50
g1971
sbasg50
g1653
sbsg1769
I1
sba(iconstruction
CXN
p2036
(dp2037
g1711
(iconstruction
TP_SYMLINKS
p2038
(dp2039
g1714
(dp2040
VPT_60
p2041
VS1_64
p2042
sVACT_58
p2043
VS3_66
p2044
sVAGT_59
p2045
VS6_69
p2046
ssg567
I56
sg50
g1653
sbsg1720
VS
p2047
sg1722
I2
sg50
VPAS_SVO
p2048
sg1723
(iconstruction
TP_SEMFRAME
p2049
(dp2050
g80
g0
(g81
g2
Ntp2051
Rp2052
(dp2053
g85
(dp2054
(iconstruction
TP_NODE
p2055
(dp2056
g1732
I00
sg69
g569
sg50
g2043
sg1733
I01
sg1734
I00
sg567
I58
sb(dp2057
g1733
I01
sg69
g569
ss(iconstruction
TP_NODE
p2058
(dp2059
g1732
I00
sg69
g725
sg50
g2045
sg1733
I01
sg1734
I00
sg567
I59
sb(dp2060
g1733
I01
sg69
g725
ss(iconstruction
TP_NODE
p2061
(dp2062
g1732
I01
sg69
g722
sg50
VEVT_57
p2063
sg1733
I01
sg1734
I00
sg567
I57
sb(dp2064
g1733
I01
sg69
g722
ss(iconstruction
TP_NODE
p2065
(dp2066
g1732
I00
sg69
g725
sg50
g2041
sg1733
I01
sg1734
I01
sg567
I60
sb(dp2067
g1733
I01
sg69
g725
sssg268
g269
sg270
g269
sg271
(dp2068
g2055
(dp2069
g2065
(dp2070
g69
g689
ssg2058
(dp2071
g69
g695
sssg2058
(dp2072
sg2061
(dp2073
g2055
(dp2074
g69
g716
sssg2065
(dp2075
ssg465
g2068
sg80
(dp2076
sg467
g269
sg468
g2068
sg469
(dp2077
g2055
(dp2078
g2061
g2074
ssg2058
(dp2079
g2055
g2071
ssg2061
(dp2080
sg2065
(dp2081
g2055
g2070
sssbsg562
(lp2082
g2061
ag2055
ag2058
ag2065
asg835
(lp2083
(iconstruction
TP_REL
p2084
(dp2085
g841
g2055
sg69
g716
sg567
I61
sg842
g2061
sg50
VIS_61
p2086
sba(iconstruction
TP_REL
p2087
(dp2088
g841
g2058
sg69
g695
sg567
I62
sg842
g2055
sg50
VACT_AGT_62
p2089
sba(iconstruction
TP_REL
p2090
(dp2091
g841
g2065
sg69
g689
sg567
I63
sg842
g2055
sg50
VACT_PT_63
p2092
sbasg567
I54
sg50
g1653
sbsg1748
(iconstruction
TP_SYNFORM
p2093
(dp2094
g567
I55
sg1751
(lp2095
(iconstruction
TP_SLOT
p2096
(dp2097
g1755
(lp2098
VNP
p2099
aVN
p2100
asg1758
I0
sg567
I64
sg50
g2042
sba(iconstruction
TP_PHON
p2101
(dp2102
g1761
I2
sg1758
I1
sg567
I65
sg1762
Vis
p2103
sg50
VS2_65
p2104
sba(iconstruction
TP_SLOT
p2105
(dp2106
g1755
(lp2107
VVP
p2108
aVV
p2109
asg1758
I2
sg567
I66
sg50
g2044
sba(iconstruction
TP_PHON
p2110
(dp2111
g1761
I2
sg1758
I3
sg567
I67
sg1762
V-ed
p2112
sg50
VS4_67
p2113
sba(iconstruction
TP_PHON
p2114
(dp2115
g1761
I2
sg1758
I4
sg567
I68
sg1762
Vby
p2116
sg50
VS5_68
p2117
sba(iconstruction
TP_SLOT
p2118
(dp2119
g1755
(lp2120
VNP
p2121
aVN
p2122
asg1758
I5
sg567
I69
sg50
g2046
sbasg50
g1653
sbsg1769
I1
sba(iconstruction
CXN
p2123
(dp2124
g1711
(iconstruction
TP_SYMLINKS
p2125
(dp2126
g1714
(dp2127
VACT_74
p2128
VS2_83
p2129
sVRCPT_77
p2130
VS3_84
p2131
sVTHEME_76
p2132
VS4_85
p2133
sVAGT_75
p2134
VS1_82
p2135
ssg567
I72
sg50
g1653
sbsg1720
VS
p2136
sg1722
I2
sg50
VDOUBLE_OBJ
p2137
sg1723
(iconstruction
TP_SEMFRAME
p2138
(dp2139
g80
g0
(g81
g2
Ntp2140
Rp2141
(dp2142
g85
(dp2143
(iconstruction
TP_NODE
p2144
(dp2145
g1732
I01
sg69
g722
sg50
VEVT_73
p2146
sg1733
I01
sg1734
I00
sg567
I73
sb(dp2147
g1733
I01
sg69
g722
ss(iconstruction
TP_NODE
p2148
(dp2149
g1732
I00
sg69
g725
sg50
g2134
sg1733
I01
sg1734
I01
sg567
I75
sb(dp2150
g1733
I01
sg69
g725
ss(iconstruction
TP_NODE
p2151
(dp2152
g1732
I00
sg69
g569
sg50
g2128
sg1733
I01
sg1734
I00
sg567
I74
sb(dp2153
g1733
I01
sg69
g569
ss(iconstruction
TP_NODE
p2154
(dp2155
g1732
I00
sg69
g725
sg50
g2130
sg1733
I01
sg1734
I00
sg567
I77
sb(dp2156
g1733
I01
sg69
g725
ss(iconstruction
TP_NODE
p2157
(dp2158
g1732
I00
sg69
g725
sg50
g2132
sg1733
I01
sg1734
I00
sg567
I76
sb(dp2159
g1733
I01
sg69
g725
sssg268
g269
sg270
g269
sg271
(dp2160
g2144
(dp2161
g2151
(dp2162
g69
g716
sssg2148
(dp2163
sg2151
(dp2164
g2148
(dp2165
g69
g695
ssg2154
(dp2166
g69
g680
ssg2157
(dp2167
g69
g677
sssg2154
(dp2168
sg2157
(dp2169
ssg465
g2160
sg80
(dp2170
sg467
g269
sg468
g2160
sg469
(dp2171
g2144
(dp2172
sg2148
(dp2173
g2151
g2165
ssg2151
(dp2174
g2144
g2162
ssg2154
(dp2175
g2151
g2166
ssg2157
(dp2176
g2151
g2167
sssbsg562
(lp2177
g2144
ag2151
ag2148
ag2157
ag2154
asg835
(lp2178
(iconstruction
TP_REL
p2179
(dp2180
g841
g2151
sg69
g716
sg567
I78
sg842
g2144
sg50
VIS_78
p2181
sba(iconstruction
TP_REL
p2182
(dp2183
g841
g2148
sg69
g695
sg567
I79
sg842
g2151
sg50
VACT_AGT_79
p2184
sba(iconstruction
TP_REL
p2185
(dp2186
g841
g2157
sg69
g677
sg567
I80
sg842
g2151
sg50
VACT_THEME_80
p2187
sba(iconstruction
TP_REL
p2188
(dp2189
g841
g2154
sg69
g680
sg567
I81
sg842
g2151
sg50
VACT_RCPT_81
p2190
sbasg567
I70
sg50
g1653
sbsg1748
(iconstruction
TP_SYNFORM
p2191
(dp2192
g567
I71
sg1751
(lp2193
(iconstruction
TP_SLOT
p2194
(dp2195
g1755
(lp2196
VNP
p2197
aVN
p2198
asg1758
I0
sg567
I82
sg50
g2135
sba(iconstruction
TP_SLOT
p2199
(dp2200
g1755
(lp2201
VVP
p2202
aVV
p2203
asg1758
I1
sg567
I83
sg50
g2129
sba(iconstruction
TP_SLOT
p2204
(dp2205
g1755
(lp2206
VNP
p2207
aVN
p2208
asg1758
I2
sg567
I84
sg50
g2131
sba(iconstruction
TP_SLOT
p2209
(dp2210
g1755
(lp2211
VNP
p2212
aVN
p2213
asg1758
I3
sg567
I85
sg50
g2133
sbasg50
g1653
sbsg1769
I1
sba(iconstruction
CXN
p2214
(dp2215
g1711
(iconstruction
TP_SYMLINKS
p2216
(dp2217
g1714
(dp2218
VAGT_91
p2219
VS1_98
p2220
sVRCPT_93
p2221
VS5_102
p2222
sVACT_90
p2223
VS2_99
p2224
sVTHEME_92
p2225
VS3_100
p2226
ssg567
I88
sg50
g1653
sbsg1720
VS
p2227
sg1722
I2
sg50
VOBLIQUE_DATIVE
p2228
sg1723
(iconstruction
TP_SEMFRAME
p2229
(dp2230
g80
g0
(g81
g2
Ntp2231
Rp2232
(dp2233
g85
(dp2234
(iconstruction
TP_NODE
p2235
(dp2236
g1732
I01
sg69
g722
sg50
VEVT_89
p2237
sg1733
I01
sg1734
I00
sg567
I89
sb(dp2238
g1733
I01
sg69
g722
ss(iconstruction
TP_NODE
p2239
(dp2240
g1732
I00
sg69
g725
sg50
g2219
sg1733
I01
sg1734
I01
sg567
I91
sb(dp2241
g1733
I01
sg69
g725
ss(iconstruction
TP_NODE
p2242
(dp2243
g1732
I00
sg69
g725
sg50
g2225
sg1733
I01
sg1734
I00
sg567
I92
sb(dp2244
g1733
I01
sg69
g725
ss(iconstruction
TP_NODE
p2245
(dp2246
g1732
I00
sg69
g617
sg50
g2223
sg1733
I01
sg1734
I00
sg567
I90
sb(dp2247
g1733
I01
sg69
g617
ss(iconstruction
TP_NODE
p2248
(dp2249
g1732
I00
sg69
g725
sg50
g2221
sg1733
I01
sg1734
I00
sg567
I93
sb(dp2250
g1733
I01
sg69
g725
sssg268
g269
sg270
g269
sg271
(dp2251
g2235
(dp2252
g2245
(dp2253
g69
g716
sssg2239
(dp2254
sg2242
(dp2255
sg2245
(dp2256
g2239
(dp2257
g69
g695
ssg2248
(dp2258
g69
g680
ssg2242
(dp2259
g69
g677
sssg2248
(dp2260
ssg465
g2251
sg80
(dp2261
sg467
g269
sg468
g2251
sg469
(dp2262
g2235
(dp2263
sg2239
(dp2264
g2245
g2257
ssg2242
(dp2265
g2245
g2259
ssg2245
(dp2266
g2235
g2253
ssg2248
(dp2267
g2245
g2258
sssbsg562
(lp2268
g2235
ag2245
ag2239
ag2242
ag2248
asg835
(lp2269
(iconstruction
TP_REL
p2270
(dp2271
g841
g2245
sg69
g716
sg567
I94
sg842
g2235
sg50
VIS_94
p2272
sba(iconstruction
TP_REL
p2273
(dp2274
g841
g2239
sg69
g695
sg567
I95
sg842
g2245
sg50
VACT_AGT_95
p2275
sba(iconstruction
TP_REL
p2276
(dp2277
g841
g2242
sg69
g677
sg567
I96
sg842
g2245
sg50
VACT_THEME_96
p2278
sba(iconstruction
TP_REL
p2279
(dp2280
g841
g2248
sg69
g680
sg567
I97
sg842
g2245
sg50
VACT_RCPT_97
p2281
sbasg567
I86
sg50
g1653
sbsg1748
(iconstruction
TP_SYNFORM
p2282
(dp2283
g567
I87
sg1751
(lp2284
(iconstruction
TP_SLOT
p2285
(dp2286
g1755
(lp2287
VNP
p2288
aVN
p2289
asg1758
I0
sg567
I98
sg50
g2220
sba(iconstruction
TP_SLOT
p2290
(dp2291
g1755
(lp2292
VVP
p2293
aVV
p2294
asg1758
I1
sg567
I99
sg50
g2224
sba(iconstruction
TP_SLOT
p2295
(dp2296
g1755
(lp2297
VNP
p2298
aVN
p2299
asg1758
I2
sg567
I100
sg50
g2226
sba(iconstruction
TP_PHON
p2300
(dp2301
g1761
I2
sg1758
I3
sg567
I101
sg1762
Vto
p2302
sg50
VS4_101
p2303
sba(iconstruction
TP_SLOT
p2304
(dp2305
g1755
(lp2306
VNP
p2307
aVN
p2308
asg1758
I4
sg567
I102
sg50
g2222
sbasg50
g1653
sbsg1769
I1
sba(iconstruction
CXN
p2309
(dp2310
g1711
(iconstruction
TP_SYMLINKS
p2311
(dp2312
g1714
(dp2313
VATTR_108
p2314
VS3_113
p2315
sVENT_107
p2316
VS1_111
p2317
ssg567
I105
sg50
g1653
sbsg1720
VS
p2318
sg1722
I2
sg50
VSPA
p2319
sg1723
(iconstruction
TP_SEMFRAME
p2320
(dp2321
g80
g0
(g81
g2
Ntp2322
Rp2323
(dp2324
g85
(dp2325
(iconstruction
TP_NODE
p2326
(dp2327
g1732
I00
sg69
g725
sg50
g2316
sg1733
I01
sg1734
I01
sg567
I107
sb(dp2328
g1733
I01
sg69
g725
ss(iconstruction
TP_NODE
p2329
(dp2330
g1732
I00
sg69
g626
sg50
g2314
sg1733
I00
sg1734
I00
sg567
I108
sb(dp2331
g1733
I00
sg69
g626
ss(iconstruction
TP_NODE
p2332
(dp2333
g1732
I01
sg69
g722
sg50
VEVT_106
p2334
sg1733
I01
sg1734
I00
sg567
I106
sb(dp2335
g1733
I01
sg69
g722
sssg268
g269
sg270
g269
sg271
(dp2336
g2326
(dp2337
sg2329
(dp2338
sg2332
(dp2339
g2326
(dp2340
g69
g716
ssg2329
(dp2341
g69
g674
ssssg465
g2336
sg80
(dp2342
sg467
g269
sg468
g2336
sg469
(dp2343
g2326
(dp2344
g2332
g2340
ssg2329
(dp2345
g2332
g2341
ssg2332
(dp2346
ssbsg562
(lp2347
g2332
ag2326
ag2329
asg835
(lp2348
(iconstruction
TP_REL
p2349
(dp2350
g841
g2326
sg69
g716
sg567
I109
sg842
g2332
sg50
VIS_109
p2351
sba(iconstruction
TP_REL
p2352
(dp2353
g841
g2329
sg69
g674
sg567
I110
sg842
g2332
sg50
VEVT_ATTR_110
p2354
sbasg567
I103
sg50
g1653
sbsg1748
(iconstruction
TP_SYNFORM
p2355
(dp2356
g567
I104
sg1751
(lp2357
(iconstruction
TP_SLOT
p2358
(dp2359
g1755
(lp2360
VNP
p2361
aVN
p2362
asg1758
I0
sg567
I111
sg50
g2317
sba(iconstruction
TP_PHON
p2363
(dp2364
g1761
I2
sg1758
I1
sg567
I112
sg1762
Vis
p2365
sg50
VS2_112
p2366
sba(iconstruction
TP_SLOT
p2367
(dp2368
g1755
(lp2369
VA
p2370
asg1758
I2
sg567
I113
sg50
g2315
sbasg50
g1653
sbsg1769
I1
sba(iconstruction
CXN
p2371
(dp2372
g1711
(iconstruction
TP_SYMLINKS
p2373
(dp2374
g1714
(dp2375
VAGT_119
p2376
VS1_122
p2377
sVACT_118
p2378
VS2_123
p2379
ssg567
I116
sg50
g1653
sbsg1720
VS
p2380
sg1722
I2
sg50
VSV
p2381
sg1723
(iconstruction
TP_SEMFRAME
p2382
(dp2383
g80
g0
(g81
g2
Ntp2384
Rp2385
(dp2386
g85
(dp2387
(iconstruction
TP_NODE
p2388
(dp2389
g1732
I00
sg69
g581
sg50
g2378
sg1733
I01
sg1734
I00
sg567
I118
sb(dp2390
g1733
I01
sg69
g581
ss(iconstruction
TP_NODE
p2391
(dp2392
g1732
I00
sg69
g725
sg50
g2376
sg1733
I01
sg1734
I01
sg567
I119
sb(dp2393
g1733
I01
sg69
g725
ss(iconstruction
TP_NODE
p2394
(dp2395
g1732
I01
sg69
g722
sg50
VEVT_117
p2396
sg1733
I01
sg1734
I00
sg567
I117
sb(dp2397
g1733
I01
sg69
g722
sssg268
g269
sg270
g269
sg271
(dp2398
g2388
(dp2399
g2391
(dp2400
g69
g695
sssg2391
(dp2401
sg2394
(dp2402
g2388
(dp2403
g69
g716
ssssg465
g2398
sg80
(dp2404
sg467
g269
sg468
g2398
sg469
(dp2405
g2388
(dp2406
g2394
g2403
ssg2391
(dp2407
g2388
g2400
ssg2394
(dp2408
ssbsg562
(lp2409
g2394
ag2388
ag2391
asg835
(lp2410
(iconstruction
TP_REL
p2411
(dp2412
g841
g2388
sg69
g716
sg567
I120
sg842
g2394
sg50
VIS_120
p2413
sba(iconstruction
TP_REL
p2414
(dp2415
g841
g2391
sg69
g695
sg567
I121
sg842
g2388
sg50
VACT_AGT_121
p2416
sbasg567
I114
sg50
g1653
sbsg1748
(iconstruction
TP_SYNFORM
p2417
(dp2418
g567
I115
sg1751
(lp2419
(iconstruction
TP_SLOT
p2420
(dp2421
g1755
(lp2422
VNP
p2423
aVN
p2424
asg1758
I0
sg567
I122
sg50
g2377
sba(iconstruction
TP_SLOT
p2425
(dp2426
g1755
(lp2427
VVP
p2428
aVV
p2429
asg1758
I1
sg567
I123
sg50
g2379
sbasg50
g1653
sbsg1769
I1
sba(iconstruction
CXN
p2430
(dp2431
g1711
(iconstruction
TP_SYMLINKS
p2432
(dp2433
g1714
(dp2434
VEVT_127
p2435
VS1_130
p2436
sVPLACE_128
p2437
VS3_132
p2438
ssg567
I126
sg50
g1653
sbsg1720
VS
p2439
sg1722
I2
sg50
VPP_IN
p2440
sg1723
(iconstruction
TP_SEMFRAME
p2441
(dp2442
g80
g0
(g81
g2
Ntp2443
Rp2444
(dp2445
g85
(dp2446
(iconstruction
TP_NODE
p2447
(dp2448
g1732
I00
sg69
g725
sg50
g2437
sg1733
I01
sg1734
I00
sg567
I128
sb(dp2449
g1733
I01
sg69
g725
ss(iconstruction
TP_NODE
p2450
(dp2451
g1732
I01
sg69
g722
sg50
g2435
sg1733
I01
sg1734
I00
sg567
I127
sb(dp2452
g1733
I01
sg69
g722
sssg268
g269
sg270
g269
sg271
(dp2453
g2447
(dp2454
sg2450
(dp2455
g2447
(dp2456
g69
g713
ssssg465
g2453
sg80
(dp2457
sg467
g269
sg468
g2453
sg469
(dp2458
g2447
(dp2459
g2450
g2456
ssg2450
(dp2460
ssbsg562
(lp2461
g2450
ag2447
asg835
(lp2462
(iconstruction
TP_REL
p2463
(dp2464
g841
g2447
sg69
g713
sg567
I129
sg842
g2450
sg50
VEVT_PP_129
p2465
sbasg567
I124
sg50
g1653
sbsg1748
(iconstruction
TP_SYNFORM
p2466
(dp2467
g567
I125
sg1751
(lp2468
(iconstruction
TP_SLOT
p2469
(dp2470
g1755
(lp2471
VS
p2472
asg1758
I0
sg567
I130
sg50
g2436
sba(iconstruction
TP_PHON
p2473
(dp2474
g1761
I2
sg1758
I1
sg567
I131
sg1762
Vin
p2475
sg50
VS2_131
p2476
sba(iconstruction
TP_SLOT
p2477
(dp2478
g1755
(lp2479
VNP
p2480
aVN
p2481
asg1758
I2
sg567
I132
sg50
g2438
sbasg50
g1653
sbsg1769
I1
sba(iconstruction
CXN
p2482
(dp2483
g1711
(iconstruction
TP_SYMLINKS
p2484
(dp2485
g1714
(dp2486
VEVT2_137
p2487
VS2_140
p2488
sVEVT1_136
p2489
VS1_139
p2490
ssg567
I135
sg50
g1653
sbsg1720
VS
p2491
sg1722
I2
sg50
VS_PP
p2492
sg1723
(iconstruction
TP_SEMFRAME
p2493
(dp2494
g80
g0
(g81
g2
Ntp2495
Rp2496
(dp2497
g85
(dp2498
(iconstruction
TP_NODE
p2499
(dp2500
g1732
I01
sg69
g722
sg50
g2489
sg1733
I01
sg1734
I01
sg567
I136
sb(dp2501
g1733
I01
sg69
g722
ss(iconstruction
TP_NODE
p2502
(dp2503
g1732
I00
sg69
g722
sg50
g2487
sg1733
I01
sg1734
I00
sg567
I137
sb(dp2504
g1733
I01
sg69
g722
sssg268
g269
sg270
g269
sg271
(dp2505
g2499
(dp2506
g2502
(dp2507
g69
g674
sssg2502
(dp2508
ssg465
g2505
sg80
(dp2509
sg467
g269
sg468
g2505
sg469
(dp2510
g2499
(dp2511
sg2502
(dp2512
g2499
g2507
sssbsg562
(lp2513
g2499
ag2502
asg835
(lp2514
(iconstruction
TP_REL
p2515
(dp2516
g841
g2502
sg69
g674
sg567
I138
sg842
g2499
sg50
VMOD_138
p2517
sbasg567
I133
sg50
g1653
sbsg1748
(iconstruction
TP_SYNFORM
p2518
(dp2519
g567
I134
sg1751
(lp2520
(iconstruction
TP_SLOT
p2521
(dp2522
g1755
(lp2523
VS
p2524
asg1758
I0
sg567
I139
sg50
g2490
sba(iconstruction
TP_SLOT
p2525
(dp2526
g1755
(lp2527
VPP
p2528
asg1758
I1
sg567
I140
sg50
g2488
sbasg50
g1653
sbsg1769
I1
sba(iconstruction
CXN
p2529
(dp2530
g1711
(iconstruction
TP_SYMLINKS
p2531
(dp2532
g1714
(dp2533
VENT_144
p2534
VS2_148
p2535
sVATTR_145
p2536
VS1_147
p2537
ssg567
I143
sg50
g1653
sbsg1720
VN
p2538
sg1722
I2
sg50
VADJUNCT_N
p2539
sg1723
(iconstruction
TP_SEMFRAME
p2540
(dp2541
g80
g0
(g81
g2
Ntp2542
Rp2543
(dp2544
g85
(dp2545
(iconstruction
TP_NODE
p2546
(dp2547
g1732
I01
sg69
g725
sg50
g2534
sg1733
I01
sg1734
I00
sg567
I144
sb(dp2548
g1733
I01
sg69
g725
ss(iconstruction
TP_NODE
p2549
(dp2550
g1732
I00
sg69
g626
sg50
g2536
sg1733
I00
sg1734
I00
sg567
I145
sb(dp2551
g1733
I00
sg69
g626
sssg268
g269
sg270
g269
sg271
(dp2552
g2546
(dp2553
g2549
(dp2554
g69
g674
sssg2549
(dp2555
ssg465
g2552
sg80
(dp2556
sg467
g269
sg468
g2552
sg469
(dp2557
g2546
(dp2558
sg2549
(dp2559
g2546
g2554
sssbsg562
(lp2560
g2546
ag2549
asg835
(lp2561
(iconstruction
TP_REL
p2562
(dp2563
g841
g2549
sg69
g674
sg567
I146
sg842
g2546
sg50
VENT_ATTR_146
p2564
sbasg567
I141
sg50
g1653
sbsg1748
(iconstruction
TP_SYNFORM
p2565
(dp2566
g567
I142
sg1751
(lp2567
(iconstruction
TP_SLOT
p2568
(dp2569
g1755
(lp2570
VA
p2571
asg1758
I0
sg567
I147
sg50
g2537
sba(iconstruction
TP_SLOT
p2572
(dp2573
g1755
(lp2574
VN
p2575
asg1758
I1
sg567
I148
sg50
g2535
sbasg50
g1653
sbsg1769
I1
sba(iconstruction
CXN
p2576
(dp2577
g1711
(iconstruction
TP_SYMLINKS
p2578
(dp2579
g1714
(dp2580
VAGT_154
p2581
VS1_160
p2582
sVACT_153
p2583
VS3_162
p2584
sVPT_155
p2585
VS4_163
p2586
ssg567
I151
sg50
g1653
sbsg1720
VN
p2587
sg1722
I2
sg50
VSUBJ_REL_SVO
p2588
sg1723
(iconstruction
TP_SEMFRAME
p2589
(dp2590
g80
g0
(g81
g2
Ntp2591
Rp2592
(dp2593
g85
(dp2594
(iconstruction
TP_NODE
p2595
(dp2596
g1732
I00
sg69
g722
sg50
VEVT_152
p2597
sg1733
I01
sg1734
I00
sg567
I152
sb(dp2598
g1733
I01
sg69
g722
ss(iconstruction
TP_NODE
p2599
(dp2600
g1732
I01
sg69
g725
sg50
g2581
sg1733
I01
sg1734
I00
sg567
I154
sb(dp2601
g1733
I01
sg69
g725
ss(iconstruction
TP_NODE
p2602
(dp2603
g1732
I00
sg69
g587
sg50
g2583
sg1733
I01
sg1734
I01
sg567
I153
sb(dp2604
g1733
I01
sg69
g587
ss(iconstruction
TP_NODE
p2605
(dp2606
g1732
I00
sg69
g725
sg50
g2585
sg1733
I01
sg1734
I00
sg567
I155
sb(dp2607
g1733
I01
sg69
g725
sssg268
g269
sg270
g269
sg271
(dp2608
g2595
(dp2609
g2602
(dp2610
g69
g716
sssg2599
(dp2611
g2595
(dp2612
g69
g674
sssg2602
(dp2613
g2599
(dp2614
g69
g695
ssg2605
(dp2615
g69
g689
sssg2605
(dp2616
ssg465
g2608
sg80
(dp2617
sg467
g269
sg468
g2608
sg469
(dp2618
g2595
(dp2619
g2599
g2612
ssg2599
(dp2620
g2602
g2614
ssg2602
(dp2621
g2595
g2610
ssg2605
(dp2622
g2602
g2615
sssbsg562
(lp2623
g2595
ag2602
ag2599
ag2605
asg835
(lp2624
(iconstruction
TP_REL
p2625
(dp2626
g841
g2602
sg69
g716
sg567
I156
sg842
g2595
sg50
VIS_156
p2627
sba(iconstruction
TP_REL
p2628
(dp2629
g841
g2599
sg69
g695
sg567
I157
sg842
g2602
sg50
VACT_AGT_157
p2630
sba(iconstruction
TP_REL
p2631
(dp2632
g841
g2605
sg69
g689
sg567
I158
sg842
g2602
sg50
VACT_PT_158
p2633
sba(iconstruction
TP_REL
p2634
(dp2635
g841
g2595
sg69
g674
sg567
I159
sg842
g2599
sg50
VAGT_EVT_159
p2636
sbasg567
I149
sg50
g1653
sbsg1748
(iconstruction
TP_SYNFORM
p2637
(dp2638
g567
I150
sg1751
(lp2639
(iconstruction
TP_SLOT
p2640
(dp2641
g1755
(lp2642
VN
p2643
asg1758
I0
sg567
I160
sg50
g2582
sba(iconstruction
TP_PHON
p2644
(dp2645
g1761
I4
sg1758
I1
sg567
I161
sg1762
Vthat
p2646
sg50
VS2_161
p2647
sba(iconstruction
TP_SLOT
p2648
(dp2649
g1755
(lp2650
VVP
p2651
aVV
p2652
asg1758
I2
sg567
I162
sg50
g2584
sba(iconstruction
TP_SLOT
p2653
(dp2654
g1755
(lp2655
VNP
p2656
aVN
p2657
asg1758
I3
sg567
I163
sg50
g2586
sbasg50
g1653
sbsg1769
I1
sba(iconstruction
CXN
p2658
(dp2659
g1711
(iconstruction
TP_SYMLINKS
p2660
(dp2661
g1714
(dp2662
VAGT_169
p2663
VS1_173
p2664
sVACT_168
p2665
VS3_175
p2666
ssg567
I166
sg50
g1653
sbsg1720
VN
p2667
sg1722
I2
sg50
VSUBJ_REL_SV
p2668
sg1723
(iconstruction
TP_SEMFRAME
p2669
(dp2670
g80
g0
(g81
g2
Ntp2671
Rp2672
(dp2673
g85
(dp2674
(iconstruction
TP_NODE
p2675
(dp2676
g1732
I00
sg69
g722
sg50
VEVT_167
p2677
sg1733
I01
sg1734
I00
sg567
I167
sb(dp2678
g1733
I01
sg69
g722
ss(iconstruction
TP_NODE
p2679
(dp2680
g1732
I01
sg69
g725
sg50
g2663
sg1733
I01
sg1734
I00
sg567
I169
sb(dp2681
g1733
I01
sg69
g725
ss(iconstruction
TP_NODE
p2682
(dp2683
g1732
I00
sg69
g569
sg50
g2665
sg1733
I01
sg1734
I01
sg567
I168
sb(dp2684
g1733
I01
sg69
g569
sssg268
g269
sg270
g269
sg271
(dp2685
g2675
(dp2686
g2682
(dp2687
g69
g716
sssg2679
(dp2688
g2675
(dp2689
g69
g674
sssg2682
(dp2690
g2679
(dp2691
g69
g695
ssssg465
g2685
sg80
(dp2692
sg467
g269
sg468
g2685
sg469
(dp2693
g2675
(dp2694
g2679
g2689
ssg2679
(dp2695
g2682
g2691
ssg2682
(dp2696
g2675
g2687
sssbsg562
(lp2697
g2675
ag2682
ag2679
asg835
(lp2698
(iconstruction
TP_REL
p2699
(dp2700
g841
g2682
sg69
g716
sg567
I170
sg842
g2675
sg50
VIS_170
p2701
sba(iconstruction
TP_REL
p2702
(dp2703
g841
g2679
sg69
g695
sg567
I171
sg842
g2682
sg50
VACT_AGT_171
p2704
sba(iconstruction
TP_REL
p2705
(dp2706
g841
g2675
sg69
g674
sg567
I172
sg842
g2679
sg50
VAGT_EVT_172
p2707
sbasg567
I164
sg50
g1653
sbsg1748
(iconstruction
TP_SYNFORM
p2708
(dp2709
g567
I165
sg1751
(lp2710
(iconstruction
TP_SLOT
p2711
(dp2712
g1755
(lp2713
VN
p2714
asg1758
I0
sg567
I173
sg50
g2664
sba(iconstruction
TP_PHON
p2715
(dp2716
g1761
I4
sg1758
I1
sg567
I174
sg1762
Vthat
p2717
sg50
VS2_174
p2718
sba(iconstruction
TP_SLOT
p2719
(dp2720
g1755
(lp2721
VVP
p2722
aVV
p2723
asg1758
I2
sg567
I175
sg50
g2666
sbasg50
g1653
sbsg1769
I1
sba(iconstruction
CXN
p2724
(dp2725
g1711
(iconstruction
TP_SYMLINKS
p2726
(dp2727
g1714
(dp2728
VAGT_181
p2729
VS7_193
p2730
sVPT_182
p2731
VS1_187
p2732
sVACT_180
p2733
VS4_190
p2734
ssg567
I178
sg50
g1653
sbsg1720
VN
p2735
sg1722
I2
sg50
VSUBJ_REL_PAS_SVO
p2736
sg1723
(iconstruction
TP_SEMFRAME
p2737
(dp2738
g80
g0
(g81
g2
Ntp2739
Rp2740
(dp2741
g85
(dp2742
(iconstruction
TP_NODE
p2743
(dp2744
g1732
I00
sg69
g722
sg50
VEVT_179
p2745
sg1733
I01
sg1734
I00
sg567
I179
sb(dp2746
g1733
I01
sg69
g722
ss(iconstruction
TP_NODE
p2747
(dp2748
g1732
I00
sg69
g725
sg50
g2729
sg1733
I01
sg1734
I00
sg567
I181
sb(dp2749
g1733
I01
sg69
g725
ss(iconstruction
TP_NODE
p2750
(dp2751
g1732
I01
sg69
g725
sg50
g2731
sg1733
I01
sg1734
I00
sg567
I182
sb(dp2752
g1733
I01
sg69
g725
ss(iconstruction
TP_NODE
p2753
(dp2754
g1732
I00
sg69
g569
sg50
g2733
sg1733
I01
sg1734
I01
sg567
I180
sb(dp2755
g1733
I01
sg69
g569
sssg268
g269
sg270
g269
sg271
(dp2756
g2743
(dp2757
g2753
(dp2758
g69
g716
sssg2747
(dp2759
sg2750
(dp2760
g2743
(dp2761
g69
g674
sssg2753
(dp2762
g2747
(dp2763
g69
g695
ssg2750
(dp2764
g69
g689
ssssg465
g2756
sg80
(dp2765
sg467
g269
sg468
g2756
sg469
(dp2766
g2743
(dp2767
g2750
g2761
ssg2747
(dp2768
g2753
g2763
ssg2750
(dp2769
g2753
g2764
ssg2753
(dp2770
g2743
g2758
sssbsg562
(lp2771
g2743
ag2753
ag2747
ag2750
asg835
(lp2772
(iconstruction
TP_REL
p2773
(dp2774
g841
g2753
sg69
g716
sg567
I183
sg842
g2743
sg50
VIS_183
p2775
sba(iconstruction
TP_REL
p2776
(dp2777
g841
g2747
sg69
g695
sg567
I184
sg842
g2753
sg50
VACT_AGT_184
p2778
sba(iconstruction
TP_REL
p2779
(dp2780
g841
g2750
sg69
g689
sg567
I185
sg842
g2753
sg50
VACT_PT_185
p2781
sba(iconstruction
TP_REL
p2782
(dp2783
g841
g2743
sg69
g674
sg567
I186
sg842
g2750
sg50
VPT_EVT_186
p2784
sbasg567
I176
sg50
g1653
sbsg1748
(iconstruction
TP_SYNFORM
p2785
(dp2786
g567
I177
sg1751
(lp2787
(iconstruction
TP_SLOT
p2788
(dp2789
g1755
(lp2790
VN
p2791
asg1758
I0
sg567
I187
sg50
g2732
sba(iconstruction
TP_PHON
p2792
(dp2793
g1761
I4
sg1758
I1
sg567
I188
sg1762
Vthat
p2794
sg50
VS2_188
p2795
sba(iconstruction
TP_PHON
p2796
(dp2797
g1761
I2
sg1758
I2
sg567
I189
sg1762
Vis
p2798
sg50
VS3_189
p2799
sba(iconstruction
TP_SLOT
p2800
(dp2801
g1755
(lp2802
VVP
p2803
aVV
p2804
asg1758
I3
sg567
I190
sg50
g2734
sba(iconstruction
TP_PHON
p2805
(dp2806
g1761
I2
sg1758
I4
sg567
I191
sg1762
V-ed
p2807
sg50
VS5_191
p2808
sba(iconstruction
TP_PHON
p2809
(dp2810
g1761
I2
sg1758
I5
sg567
I192
sg1762
Vby
p2811
sg50
VS6_192
p2812
sba(iconstruction
TP_SLOT
p2813
(dp2814
g1755
(lp2815
VNP
p2816
aVN
p2817
asg1758
I6
sg567
I193
sg50
g2730
sbasg50
g1653
sbsg1769
I1
sba(iconstruction
CXN
p2818
(dp2819
g1711
(iconstruction
TP_SYMLINKS
p2820
(dp2821
g1714
(dp2822
VAGT_199
p2823
VS3_207
p2824
sVACT_198
p2825
VS4_208
p2826
sVPT_200
p2827
VS1_205
p2828
ssg567
I196
sg50
g1653
sbsg1720
VN
p2829
sg1722
I2
sg50
VOBJ_REL_SVO
p2830
sg1723
(iconstruction
TP_SEMFRAME
p2831
(dp2832
g80
g0
(g81
g2
Ntp2833
Rp2834
(dp2835
g85
(dp2836
(iconstruction
TP_NODE
p2837
(dp2838
g1732
I00
sg69
g722
sg50
VEVT_197
p2839
sg1733
I01
sg1734
I00
sg567
I197
sb(dp2840
g1733
I01
sg69
g722
ss(iconstruction
TP_NODE
p2841
(dp2842
g1732
I00
sg69
g725
sg50
g2823
sg1733
I01
sg1734
I00
sg567
I199
sb(dp2843
g1733
I01
sg69
g725
ss(iconstruction
TP_NODE
p2844
(dp2845
g1732
I01
sg69
g725
sg50
g2827
sg1733
I01
sg1734
I00
sg567
I200
sb(dp2846
g1733
I01
sg69
g725
ss(iconstruction
TP_NODE
p2847
(dp2848
g1732
I00
sg69
g569
sg50
g2825
sg1733
I01
sg1734
I01
sg567
I198
sb(dp2849
g1733
I01
sg69
g569
sssg268
g269
sg270
g269
sg271
(dp2850
g2837
(dp2851
g2847
(dp2852
g69
g716
sssg2841
(dp2853
sg2844
(dp2854
g2837
(dp2855
g69
g674
sssg2847
(dp2856
g2841
(dp2857
g69
g695
ssg2844
(dp2858
g69
g689
ssssg465
g2850
sg80
(dp2859
sg467
g269
sg468
g2850
sg469
(dp2860
g2837
(dp2861
g2844
g2855
ssg2841
(dp2862
g2847
g2857
ssg2844
(dp2863
g2847
g2858
ssg2847
(dp2864
g2837
g2852
sssbsg562
(lp2865
g2837
ag2847
ag2841
ag2844
asg835
(lp2866
(iconstruction
TP_REL
p2867
(dp2868
g841
g2847
sg69
g716
sg567
I201
sg842
g2837
sg50
VIS_201
p2869
sba(iconstruction
TP_REL
p2870
(dp2871
g841
g2841
sg69
g695
sg567
I202
sg842
g2847
sg50
VACT_AGT_202
p2872
sba(iconstruction
TP_REL
p2873
(dp2874
g841
g2844
sg69
g689
sg567
I203
sg842
g2847
sg50
VACT_PT_203
p2875
sba(iconstruction
TP_REL
p2876
(dp2877
g841
g2837
sg69
g674
sg567
I204
sg842
g2844
sg50
VPT_EVT_204
p2878
sbasg567
I194
sg50
g1653
sbsg1748
(iconstruction
TP_SYNFORM
p2879
(dp2880
g567
I195
sg1751
(lp2881
(iconstruction
TP_SLOT
p2882
(dp2883
g1755
(lp2884
VN
p2885
asg1758
I0
sg567
I205
sg50
g2828
sba(iconstruction
TP_PHON
p2886
(dp2887
g1761
I4
sg1758
I1
sg567
I206
sg1762
Vthat
p2888
sg50
VS2_206
p2889
sba(iconstruction
TP_SLOT
p2890
(dp2891
g1755
(lp2892
VNP
p2893
aVN
p2894
asg1758
I2
sg567
I207
sg50
g2824
sba(iconstruction
TP_SLOT
p2895
(dp2896
g1755
(lp2897
VVP
p2898
aVV
p2899
asg1758
I3
sg567
I208
sg50
g2826
sbasg50
g1653
sbsg1769
I1
sba(iconstruction
CXN
p2900
(dp2901
g1711
(iconstruction
TP_SYMLINKS
p2902
(dp2903
g1714
(dp2904
VPT_215
p2905
VS3_222
p2906
sVACT_213
p2907
VS5_224
p2908
sVAGT_214
p2909
VS1_220
p2910
ssg567
I211
sg50
g1653
sbsg1720
VN
p2911
sg1722
I2
sg50
VOBJ_REL_PAS_SVO
p2912
sg1723
(iconstruction
TP_SEMFRAME
p2913
(dp2914
g80
g0
(g81
g2
Ntp2915
Rp2916
(dp2917
g85
(dp2918
(iconstruction
TP_NODE
p2919
(dp2920
g1732
I00
sg69
g722
sg50
VEVT_212
p2921
sg1733
I01
sg1734
I00
sg567
I212
sb(dp2922
g1733
I01
sg69
g722
ss(iconstruction
TP_NODE
p2923
(dp2924
g1732
I01
sg69
g725
sg50
g2909
sg1733
I01
sg1734
I00
sg567
I214
sb(dp2925
g1733
I01
sg69
g725
ss(iconstruction
TP_NODE
p2926
(dp2927
g1732
I00
sg69
g569
sg50
g2907
sg1733
I01
sg1734
I01
sg567
I213
sb(dp2928
g1733
I01
sg69
g569
ss(iconstruction
TP_NODE
p2929
(dp2930
g1732
I00
sg69
g725
sg50
g2905
sg1733
I01
sg1734
I00
sg567
I215
sb(dp2931
g1733
I01
sg69
g725
sssg268
g269
sg270
g269
sg271
(dp2932
g2919
(dp2933
g2926
(dp2934
g69
g716
sssg2923
(dp2935
g2919
(dp2936
g69
g674
sssg2926
(dp2937
g2923
(dp2938
g69
g695
ssg2929
(dp2939
g69
g689
sssg2929
(dp2940
ssg465
g2932
sg80
(dp2941
sg467
g269
sg468
g2932
sg469
(dp2942
g2919
(dp2943
g2923
g2936
ssg2923
(dp2944
g2926
g2938
ssg2926
(dp2945
g2919
g2934
ssg2929
(dp2946
g2926
g2939
sssbsg562
(lp2947
g2919
ag2926
ag2923
ag2929
asg835
(lp2948
(iconstruction
TP_REL
p2949
(dp2950
g841
g2926
sg69
g716
sg567
I216
sg842
g2919
sg50
VIS_216
p2951
sba(iconstruction
TP_REL
p2952
(dp2953
g841
g2923
sg69
g695
sg567
I217
sg842
g2926
sg50
VACT_AGT_217
p2954
sba(iconstruction
TP_REL
p2955
(dp2956
g841
g2929
sg69
g689
sg567
I218
sg842
g2926
sg50
VACT_PT_218
p2957
sba(iconstruction
TP_REL
p2958
(dp2959
g841
g2919
sg69
g674
sg567
I219
sg842
g2923
sg50
VAGT_EVT_219
p2960
sbasg567
I209
sg50
g1653
sbsg1748
(iconstruction
TP_SYNFORM
p2961
(dp2962
g567
I210
sg1751
(lp2963
(iconstruction
TP_SLOT
p2964
(dp2965
g1755
(lp2966
VN
p2967
asg1758
I0
sg567
I220
sg50
g2910
sba(iconstruction
TP_PHON
p2968
(dp2969
g1761
I4
sg1758
I1
sg567
I221
sg1762
Vthat
p2970
sg50
VS2_221
p2971
sba(iconstruction
TP_SLOT
p2972
(dp2973
g1755
(lp2974
VNP
p2975
aVN
p2976
asg1758
I2
sg567
I222
sg50
g2906
sba(iconstruction
TP_PHON
p2977
(dp2978
g1761
I2
sg1758
I3
sg567
I223
sg1762
Vis
p2979
sg50
VS4_223
p2980
sba(iconstruction
TP_SLOT
p2981
(dp2982
g1755
(lp2983
VVP
p2984
aVV
p2985
asg1758
I4
sg567
I224
sg50
g2908
sba(iconstruction
TP_PHON
p2986
(dp2987
g1761
I2
sg1758
I5
sg567
I225
sg1762
V-ed
p2988
sg50
VS6_225
p2989
sba(iconstruction
TP_PHON
p2990
(dp2991
g1761
I2
sg1758
I6
sg567
I226
sg1762
Vby
p2992
sg50
VS7_226
p2993
sbasg50
g1653
sbsg1769
I1
sba(iconstruction
CXN
p2994
(dp2995
g1711
(iconstruction
TP_SYMLINKS
p2996
(dp2997
g1714
(dp2998
VATTR_232
p2999
VS4_238
p3000
sVENT_231
p3001
VS1_235
p3002
ssg567
I229
sg50
g1653
sbsg1720
VN
p3003
sg1722
I2
sg50
VREL_SPA
p3004
sg1723
(iconstruction
TP_SEMFRAME
p3005
(dp3006
g80
g0
(g81
g2
Ntp3007
Rp3008
(dp3009
g85
(dp3010
(iconstruction
TP_NODE
p3011
(dp3012
g1732
I00
sg69
g722
sg50
VEVT_230
p3013
sg1733
I01
sg1734
I00
sg567
I230
sb(dp3014
g1733
I01
sg69
g722
ss(iconstruction
TP_NODE
p3015
(dp3016
g1732
I00
sg69
g626
sg50
g2999
sg1733
I00
sg1734
I00
sg567
I232
sb(dp3017
g1733
I00
sg69
g626
ss(iconstruction
TP_NODE
p3018
(dp3019
g1732
I01
sg69
g725
sg50
g3001
sg1733
I01
sg1734
I01
sg567
I231
sb(dp3020
g1733
I01
sg69
g725
sssg268
g269
sg270
g269
sg271
(dp3021
g3011
(dp3022
g3015
(dp3023
g69
g674
ssg3018
(dp3024
g69
g716
sssg3015
(dp3025
sg3018
(dp3026
ssg465
g3021
sg80
(dp3027
sg467
g269
sg468
g3021
sg469
(dp3028
g3011
(dp3029
sg3015
(dp3030
g3011
g3023
ssg3018
(dp3031
g3011
g3024
sssbsg562
(lp3032
g3011
ag3018
ag3015
asg835
(lp3033
(iconstruction
TP_REL
p3034
(dp3035
g841
g3018
sg69
g716
sg567
I233
sg842
g3011
sg50
VIS_233
p3036
sba(iconstruction
TP_REL
p3037
(dp3038
g841
g3015
sg69
g674
sg567
I234
sg842
g3011
sg50
VEVT_ATTR_234
p3039
sbasg567
I227
sg50
g1653
sbsg1748
(iconstruction
TP_SYNFORM
p3040
(dp3041
g567
I228
sg1751
(lp3042
(iconstruction
TP_SLOT
p3043
(dp3044
g1755
(lp3045
VN
p3046
asg1758
I0
sg567
I235
sg50
g3002
sba(iconstruction
TP_PHON
p3047
(dp3048
g1761
I4
sg1758
I1
sg567
I236
sg1762
Vthat
p3049
sg50
VS2_236
p3050
sba(iconstruction
TP_PHON
p3051
(dp3052
g1761
I2
sg1758
I2
sg567
I237
sg1762
Vis
p3053
sg50
VS3_237
p3054
sba(iconstruction
TP_SLOT
p3055
(dp3056
g1755
(lp3057
VA
p3058
asg1758
I3
sg567
I238
sg50
g3000
sbasg50
g1653
sbsg1769
I1
sba(iconstruction
CXN
p3059
(dp3060
g1711
(iconstruction
TP_SYMLINKS
p3061
(dp3062
g1714
(dp3063
VAGT_244
p3064
VS1_251
p3065
sVCOLOR_246
p3066
VS3_253
p3067
ssg567
I241
sg50
g1653
sbsg1720
VN
p3068
sg1722
I2
sg50
VIN_COLOR
p3069
sg1723
(iconstruction
TP_SEMFRAME
p3070
(dp3071
g80
g0
(g81
g2
Ntp3072
Rp3073
(dp3074
g85
(dp3075
(iconstruction
TP_NODE
p3076
(dp3077
g1732
I00
sg69
g722
sg50
VEVT_242
p3078
sg1733
I01
sg1734
I00
sg567
I242
sb(dp3079
g1733
I01
sg69
g722
ss(iconstruction
TP_NODE
p3080
(dp3081
g1732
I01
sg69
g734
sg50
g3064
sg1733
I01
sg1734
I00
sg567
I244
sb(dp3082
g1733
I01
sg69
g734
ss(iconstruction
TP_NODE
p3083
(dp3084
g1732
I00
sg69
g614
sg50
VACT_243
p3085
sg1733
I01
sg1734
I00
sg567
I243
sb(dp3086
g1733
I01
sg69
g614
ss(iconstruction
TP_NODE
p3087
(dp3088
g1732
I00
sg69
g629
sg50
g3066
sg1733
I00
sg1734
I01
sg567
I246
sb(dp3089
g1733
I00
sg69
g629
ss(iconstruction
TP_NODE
p3090
(dp3091
g1732
I00
sg69
g764
sg50
VPT_245
p3092
sg1733
I01
sg1734
I00
sg567
I245
sb(dp3093
g1733
I01
sg69
g764
sssg268
g269
sg270
g269
sg271
(dp3094
g3076
(dp3095
g3083
(dp3096
g69
g716
sssg3080
(dp3097
sg3083
(dp3098
g3080
(dp3099
g69
g695
ssg3090
(dp3100
g69
g689
sssg3087
(dp3101
sg3090
(dp3102
g3087
(dp3103
g69
g674
ssssg465
g3094
sg80
(dp3104
sg467
g269
sg468
g3094
sg469
(dp3105
g3076
(dp3106
sg3080
(dp3107
g3083
g3099
ssg3083
(dp3108
g3076
g3096
ssg3087
(dp3109
g3090
g3103
ssg3090
(dp3110
g3083
g3100
sssbsg562
(lp3111
g3076
ag3083
ag3080
ag3090
ag3087
asg835
(lp3112
(iconstruction
TP_REL
p3113
(dp3114
g841
g3083
sg69
g716
sg567
I247
sg842
g3076
sg50
VIS_247
p3115
sba(iconstruction
TP_REL
p3116
(dp3117
g841
g3080
sg69
g695
sg567
I248
sg842
g3083
sg50
VACT_AGT_248
p3118
sba(iconstruction
TP_REL
p3119
(dp3120
g841
g3090
sg69
g689
sg567
I249
sg842
g3083
sg50
VACT_PT_249
p3121
sba(iconstruction
TP_REL
p3122
(dp3123
g841
g3087
sg69
g674
sg567
I250
sg842
g3090
sg50
VPT_COLOR_250
p3124
sbasg567
I239
sg50
g1653
sbsg1748
(iconstruction
TP_SYNFORM
p3125
(dp3126
g567
I240
sg1751
(lp3127
(iconstruction
TP_SLOT
p3128
(dp3129
g1755
(lp3130
VN
p3131
asg1758
I0
sg567
I251
sg50
g3065
sba(iconstruction
TP_PHON
p3132
(dp3133
g1761
I2
sg1758
I1
sg567
I252
sg1762
Vin
p3134
sg50
VS2_252
p3135
sba(iconstruction
TP_SLOT
p3136
(dp3137
g1755
(lp3138
VA
p3139
asg1758
I2
sg567
I253
sg50
g3067
sbasg50
g1653
sbsg1769
I1
sba(iconstruction
CXN
p3140
(dp3141
g1711
(iconstruction
TP_SYMLINKS
p3142
(dp3143
g1714
(dp3144
VN1_258
p3145
VS1_260
p3146
ssg567
I256
sg50
g1653
sbsg1720
VV
p3147
sg1722
I1
sg50
VHIT
p3148
sg1723
(iconstruction
TP_SEMFRAME
p3149
(dp3150
g80
g0
(g81
g2
Ntp3151
Rp3152
(dp3153
g85
(dp3154
(iconstruction
TP_NODE
p3155
(dp3156
g1732
I00
sg69
g590
sg50
g3145
sg1733
I00
sg1734
I00
sg567
I258
sb(dp3157
g1733
I00
sg69
g590
ss(iconstruction
TP_NODE
p3158
(dp3159
g1732
I01
sg69
g569
sg50
VACT_257
p3160
sg1733
I01
sg1734
I00
sg567
I257
sb(dp3161
g1733
I01
sg69
g569
sssg268
g269
sg270
g269
sg271
(dp3162
g3155
(dp3163
sg3158
(dp3164
g3155
(dp3165
g69
g716
ssssg465
g3162
sg80
(dp3166
sg467
g269
sg468
g3162
sg469
(dp3167
g3155
(dp3168
g3158
g3165
ssg3158
(dp3169
ssbsg562
(lp3170
g3158
ag3155
asg835
(lp3171
(iconstruction
TP_REL
p3172
(dp3173
g841
g3155
sg69
g716
sg567
I259
sg842
g3158
sg50
VIS_259
p3174
sbasg567
I254
sg50
g1653
sbsg1748
(iconstruction
TP_SYNFORM
p3175
(dp3176
g567
I255
sg1751
(lp3177
(iconstruction
TP_PHON
p3178
(dp3179
g1761
I3
sg1758
I0
sg567
I260
sg1762
Vhit
p3180
sg50
g3146
sbasg50
g1653
sbsg1769
I1
sba(iconstruction
CXN
p3181
(dp3182
g1711
(iconstruction
TP_SYMLINKS
p3183
(dp3184
g1714
(dp3185
VN1_265
p3186
VS1_267
p3187
ssg567
I263
sg50
g1653
sbsg1720
VV
p3188
sg1722
I1
sg50
VKICK
p3189
sg1723
(iconstruction
TP_SEMFRAME
p3190
(dp3191
g80
g0
(g81
g2
Ntp3192
Rp3193
(dp3194
g85
(dp3195
(iconstruction
TP_NODE
p3196
(dp3197
g1732
I00
sg69
g611
sg50
g3186
sg1733
I00
sg1734
I00
sg567
I265
sb(dp3198
g1733
I00
sg69
g611
ss(iconstruction
TP_NODE
p3199
(dp3200
g1732
I01
sg69
g569
sg50
VACT_264
p3201
sg1733
I01
sg1734
I00
sg567
I264
sb(dp3202
g1733
I01
sg69
g569
sssg268
g269
sg270
g269
sg271
(dp3203
g3196
(dp3204
sg3199
(dp3205
g3196
(dp3206
g69
g716
ssssg465
g3203
sg80
(dp3207
sg467
g269
sg468
g3203
sg469
(dp3208
g3196
(dp3209
g3199
g3206
ssg3199
(dp3210
ssbsg562
(lp3211
g3199
ag3196
asg835
(lp3212
(iconstruction
TP_REL
p3213
(dp3214
g841
g3196
sg69
g716
sg567
I266
sg842
g3199
sg50
VIS_266
p3215
sbasg567
I261
sg50
g1653
sbsg1748
(iconstruction
TP_SYNFORM
p3216
(dp3217
g567
I262
sg1751
(lp3218
(iconstruction
TP_PHON
p3219
(dp3220
g1761
I4
sg1758
I0
sg567
I267
sg1762
Vkick
p3221
sg50
g3187
sbasg50
g1653
sbsg1769
I1
sba(iconstruction
CXN
p3222
(dp3223
g1711
(iconstruction
TP_SYMLINKS
p3224
(dp3225
g1714
(dp3226
VN1_272
p3227
VS1_274
p3228
ssg567
I270
sg50
g1653
sbsg1720
VV
p3229
sg1722
I1
sg50
VPUNCH
p3230
sg1723
(iconstruction
TP_SEMFRAME
p3231
(dp3232
g80
g0
(g81
g2
Ntp3233
Rp3234
(dp3235
g85
(dp3236
(iconstruction
TP_NODE
p3237
(dp3238
g1732
I01
sg69
g569
sg50
VACT_271
p3239
sg1733
I01
sg1734
I00
sg567
I271
sb(dp3240
g1733
I01
sg69
g569
ss(iconstruction
TP_NODE
p3241
(dp3242
g1732
I00
sg69
g596
sg50
g3227
sg1733
I00
sg1734
I00
sg567
I272
sb(dp3243
g1733
I00
sg69
g596
sssg268
g269
sg270
g269
sg271
(dp3244
g3237
(dp3245
g3241
(dp3246
g69
g716
sssg3241
(dp3247
ssg465
g3244
sg80
(dp3248
sg467
g269
sg468
g3244
sg469
(dp3249
g3237
(dp3250
sg3241
(dp3251
g3237
g3246
sssbsg562
(lp3252
g3237
ag3241
asg835
(lp3253
(iconstruction
TP_REL
p3254
(dp3255
g841
g3241
sg69
g716
sg567
I273
sg842
g3237
sg50
VIS_273
p3256
sbasg567
I268
sg50
g1653
sbsg1748
(iconstruction
TP_SYNFORM
p3257
(dp3258
g567
I269
sg1751
(lp3259
(iconstruction
TP_PHON
p3260
(dp3261
g1761
I5
sg1758
I0
sg567
I274
sg1762
Vpunch
p3262
sg50
g3228
sbasg50
g1653
sbsg1769
I1
sba(iconstruction
CXN
p3263
(dp3264
g1711
(iconstruction
TP_SYMLINKS
p3265
(dp3266
g1714
(dp3267
VN1_279
p3268
VS1_281
p3269
ssg567
I277
sg50
g1653
sbsg1720
VV
p3270
sg1722
I1
sg50
VWEAR
p3271
sg1723
(iconstruction
TP_SEMFRAME
p3272
(dp3273
g80
g0
(g81
g2
Ntp3274
Rp3275
(dp3276
g85
(dp3277
(iconstruction
TP_NODE
p3278
(dp3279
g1732
I00
sg69
g614
sg50
g3268
sg1733
I00
sg1734
I00
sg567
I279
sb(dp3280
g1733
I00
sg69
g614
ss(iconstruction
TP_NODE
p3281
(dp3282
g1732
I01
sg69
g569
sg50
VACT_278
p3283
sg1733
I01
sg1734
I00
sg567
I278
sb(dp3284
g1733
I01
sg69
g569
sssg268
g269
sg270
g269
sg271
(dp3285
g3278
(dp3286
sg3281
(dp3287
g3278
(dp3288
g69
g716
ssssg465
g3285
sg80
(dp3289
sg467
g269
sg468
g3285
sg469
(dp3290
g3278
(dp3291
g3281
g3288
ssg3281
(dp3292
ssbsg562
(lp3293
g3281
ag3278
asg835
(lp3294
(iconstruction
TP_REL
p3295
(dp3296
g841
g3278
sg69
g716
sg567
I280
sg842
g3281
sg50
VIS_280
p3297
sbasg567
I275
sg50
g1653
sbsg1748
(iconstruction
TP_SYNFORM
p3298
(dp3299
g567
I276
sg1751
(lp3300
(iconstruction
TP_PHON
p3301
(dp3302
g1761
I4
sg1758
I0
sg567
I281
sg1762
Vwear
p3303
sg50
g3269
sbasg50
g1653
sbsg1769
I1
sba(iconstruction
CXN
p3304
(dp3305
g1711
(iconstruction
TP_SYMLINKS
p3306
(dp3307
g1714
(dp3308
VN1_286
p3309
VS1_288
p3310
ssg567
I284
sg50
g1653
sbsg1720
VV
p3311
sg1722
I1
sg50
VLAUGH
p3312
sg1723
(iconstruction
TP_SEMFRAME
p3313
(dp3314
g80
g0
(g81
g2
Ntp3315
Rp3316
(dp3317
g85
(dp3318
(iconstruction
TP_NODE
p3319
(dp3320
g1732
I01
sg69
g569
sg50
VACT_285
p3321
sg1733
I01
sg1734
I00
sg567
I285
sb(dp3322
g1733
I01
sg69
g569
ss(iconstruction
TP_NODE
p3323
(dp3324
g1732
I00
sg69
g584
sg50
g3309
sg1733
I00
sg1734
I00
sg567
I286
sb(dp3325
g1733
I00
sg69
g584
sssg268
g269
sg270
g269
sg271
(dp3326
g3319
(dp3327
g3323
(dp3328
g69
g716
sssg3323
(dp3329
ssg465
g3326
sg80
(dp3330
sg467
g269
sg468
g3326
sg469
(dp3331
g3319
(dp3332
sg3323
(dp3333
g3319
g3328
sssbsg562
(lp3334
g3319
ag3323
asg835
(lp3335
(iconstruction
TP_REL
p3336
(dp3337
g841
g3323
sg69
g716
sg567
I287
sg842
g3319
sg50
VIS_287
p3338
sbasg567
I282
sg50
g1653
sbsg1748
(iconstruction
TP_SYNFORM
p3339
(dp3340
g567
I283
sg1751
(lp3341
(iconstruction
TP_PHON
p3342
(dp3343
g1761
I5
sg1758
I0
sg567
I288
sg1762
Vlaugh
p3344
sg50
g3310
sbasg50
g1653
sbsg1769
I1
sba(iconstruction
CXN
p3345
(dp3346
g1711
(iconstruction
TP_SYMLINKS
p3347
(dp3348
g1714
(dp3349
VN1_293
p3350
VS1_295
p3351
ssg567
I291
sg50
g1653
sbsg1720
VV
p3352
sg1722
I1
sg50
VWATCH
p3353
sg1723
(iconstruction
TP_SEMFRAME
p3354
(dp3355
g80
g0
(g81
g2
Ntp3356
Rp3357
(dp3358
g85
(dp3359
(iconstruction
TP_NODE
p3360
(dp3361
g1732
I00
sg69
g593
sg50
g3350
sg1733
I00
sg1734
I00
sg567
I293
sb(dp3362
g1733
I00
sg69
g593
ss(iconstruction
TP_NODE
p3363
(dp3364
g1732
I01
sg69
g569
sg50
VACT_292
p3365
sg1733
I01
sg1734
I00
sg567
I292
sb(dp3366
g1733
I01
sg69
g569
sssg268
g269
sg270
g269
sg271
(dp3367
g3360
(dp3368
sg3363
(dp3369
g3360
(dp3370
g69
g716
ssssg465
g3367
sg80
(dp3371
sg467
g269
sg468
g3367
sg469
(dp3372
g3360
(dp3373
g3363
g3370
ssg3363
(dp3374
ssbsg562
(lp3375
g3363
ag3360
asg835
(lp3376
(iconstruction
TP_REL
p3377
(dp3378
g841
g3360
sg69
g716
sg567
I294
sg842
g3363
sg50
VIS_294
p3379
sbasg567
I289
sg50
g1653
sbsg1748
(iconstruction
TP_SYNFORM
p3380
(dp3381
g567
I290
sg1751
(lp3382
(iconstruction
TP_PHON
p3383
(dp3384
g1761
I5
sg1758
I0
sg567
I295
sg1762
Vwatch
p3385
sg50
g3351
sbasg50
g1653
sbsg1769
I1
sba(iconstruction
CXN
p3386
(dp3387
g1711
(iconstruction
TP_SYMLINKS
p3388
(dp3389
g1714
(dp3390
VN1_300
p3391
VS1_302
p3392
ssg567
I298
sg50
g1653
sbsg1720
VV
p3393
sg1722
I1
sg50
VTALK
p3394
sg1723
(iconstruction
TP_SEMFRAME
p3395
(dp3396
g80
g0
(g81
g2
Ntp3397
Rp3398
(dp3399
g85
(dp3400
(iconstruction
TP_NODE
p3401
(dp3402
g1732
I00
sg69
g602
sg50
g3391
sg1733
I00
sg1734
I00
sg567
I300
sb(dp3403
g1733
I00
sg69
g602
ss(iconstruction
TP_NODE
p3404
(dp3405
g1732
I01
sg69
g569
sg50
VACT_299
p3406
sg1733
I01
sg1734
I00
sg567
I299
sb(dp3407
g1733
I01
sg69
g569
sssg268
g269
sg270
g269
sg271
(dp3408
g3401
(dp3409
sg3404
(dp3410
g3401
(dp3411
g69
g716
ssssg465
g3408
sg80
(dp3412
sg467
g269
sg468
g3408
sg469
(dp3413
g3401
(dp3414
g3404
g3411
ssg3404
(dp3415
ssbsg562
(lp3416
g3404
ag3401
asg835
(lp3417
(iconstruction
TP_REL
p3418
(dp3419
g841
g3401
sg69
g716
sg567
I301
sg842
g3404
sg50
VIS_301
p3420
sbasg567
I296
sg50
g1653
sbsg1748
(iconstruction
TP_SYNFORM
p3421
(dp3422
g567
I297
sg1751
(lp3423
(iconstruction
TP_PHON
p3424
(dp3425
g1761
I4
sg1758
I0
sg567
I302
sg1762
Vtalk
p3426
sg50
g3392
sba(iconstruction
TP_PHON
p3427
(dp3428
g1761
I2
sg1758
I1
sg567
I303
sg1762
Vto
p3429
sg50
VS2_303
p3430
sbasg50
g1653
sbsg1769
I1
sba(iconstruction
CXN
p3431
(dp3432
g1711
(iconstruction
TP_SYMLINKS
p3433
(dp3434
g1714
(dp3435
VN1_308
p3436
VS1_310
p3437
ssg567
I306
sg50
g1653
sbsg1720
VV
p3438
sg1722
I1
sg50
VSQUIRT
p3439
sg1723
(iconstruction
TP_SEMFRAME
p3440
(dp3441
g80
g0
(g81
g2
Ntp3442
Rp3443
(dp3444
g85
(dp3445
(iconstruction
TP_NODE
p3446
(dp3447
g1732
I00
sg69
g608
sg50
g3436
sg1733
I00
sg1734
I00
sg567
I308
sb(dp3448
g1733
I00
sg69
g608
ss(iconstruction
TP_NODE
p3449
(dp3450
g1732
I01
sg69
g569
sg50
VACT_307
p3451
sg1733
I01
sg1734
I00
sg567
I307
sb(dp3452
g1733
I01
sg69
g569
sssg268
g269
sg270
g269
sg271
(dp3453
g3446
(dp3454
sg3449
(dp3455
g3446
(dp3456
g69
g716
ssssg465
g3453
sg80
(dp3457
sg467
g269
sg468
g3453
sg469
(dp3458
g3446
(dp3459
g3449
g3456
ssg3449
(dp3460
ssbsg562
(lp3461
g3449
ag3446
asg835
(lp3462
(iconstruction
TP_REL
p3463
(dp3464
g841
g3446
sg69
g716
sg567
I309
sg842
g3449
sg50
VIS_309
p3465
sbasg567
I304
sg50
g1653
sbsg1748
(iconstruction
TP_SYNFORM
p3466
(dp3467
g567
I305
sg1751
(lp3468
(iconstruction
TP_PHON
p3469
(dp3470
g1761
I6
sg1758
I0
sg567
I310
sg1762
Vsquirt
p3471
sg50
g3437
sba(iconstruction
TP_PHON
p3472
(dp3473
g1761
I2
sg1758
I1
sg567
I311
sg1762
Vat
p3474
sg50
VS2_311
p3475
sbasg50
g1653
sbsg1769
I1
sba(iconstruction
CXN
p3476
(dp3477
g1711
(iconstruction
TP_SYMLINKS
p3478
(dp3479
g1714
(dp3480
VN1_316
p3481
VS1_318
p3482
ssg567
I314
sg50
g1653
sbsg1720
VV
p3483
sg1722
I1
sg50
VSPLASH
p3484
sg1723
(iconstruction
TP_SEMFRAME
p3485
(dp3486
g80
g0
(g81
g2
Ntp3487
Rp3488
(dp3489
g85
(dp3490
(iconstruction
TP_NODE
p3491
(dp3492
g1732
I00
sg69
g599
sg50
g3481
sg1733
I00
sg1734
I00
sg567
I316
sb(dp3493
g1733
I00
sg69
g599
ss(iconstruction
TP_NODE
p3494
(dp3495
g1732
I01
sg69
g569
sg50
VACT_315
p3496
sg1733
I01
sg1734
I00
sg567
I315
sb(dp3497
g1733
I01
sg69
g569
sssg268
g269
sg270
g269
sg271
(dp3498
g3491
(dp3499
sg3494
(dp3500
g3491
(dp3501
g69
g716
ssssg465
g3498
sg80
(dp3502
sg467
g269
sg468
g3498
sg469
(dp3503
g3491
(dp3504
g3494
g3501
ssg3494
(dp3505
ssbsg562
(lp3506
g3494
ag3491
asg835
(lp3507
(iconstruction
TP_REL
p3508
(dp3509
g841
g3491
sg69
g716
sg567
I317
sg842
g3494
sg50
VIS_317
p3510
sbasg567
I312
sg50
g1653
sbsg1748
(iconstruction
TP_SYNFORM
p3511
(dp3512
g567
I313
sg1751
(lp3513
(iconstruction
TP_PHON
p3514
(dp3515
g1761
I6
sg1758
I0
sg567
I318
sg1762
Vsplash
p3516
sg50
g3482
sbasg50
g1653
sbsg1769
I1
sba(iconstruction
CXN
p3517
(dp3518
g1711
(iconstruction
TP_SYMLINKS
p3519
(dp3520
g1714
(dp3521
VN1_323
p3522
VS1_325
p3523
ssg567
I321
sg50
g1653
sbsg1720
VV
p3524
sg1722
I1
sg50
VGIVE
p3525
sg1723
(iconstruction
TP_SEMFRAME
p3526
(dp3527
g80
g0
(g81
g2
Ntp3528
Rp3529
(dp3530
g85
(dp3531
(iconstruction
TP_NODE
p3532
(dp3533
g1732
I01
sg69
g569
sg50
VACT_322
p3534
sg1733
I01
sg1734
I00
sg567
I322
sb(dp3535
g1733
I01
sg69
g569
ss(iconstruction
TP_NODE
p3536
(dp3537
g1732
I00
sg69
g623
sg50
g3522
sg1733
I00
sg1734
I00
sg567
I323
sb(dp3538
g1733
I00
sg69
g623
sssg268
g269
sg270
g269
sg271
(dp3539
g3532
(dp3540
g3536
(dp3541
g69
g716
sssg3536
(dp3542
ssg465
g3539
sg80
(dp3543
sg467
g269
sg468
g3539
sg469
(dp3544
g3532
(dp3545
sg3536
(dp3546
g3532
g3541
sssbsg562
(lp3547
g3532
ag3536
asg835
(lp3548
(iconstruction
TP_REL
p3549
(dp3550
g841
g3536
sg69
g716
sg567
I324
sg842
g3532
sg50
VIS_324
p3551
sbasg567
I319
sg50
g1653
sbsg1748
(iconstruction
TP_SYNFORM
p3552
(dp3553
g567
I320
sg1751
(lp3554
(iconstruction
TP_PHON
p3555
(dp3556
g1761
I4
sg1758
I0
sg567
I325
sg1762
Vgive
p3557
sg50
g3523
sbasg50
g1653
sbsg1769
I1
sba(iconstruction
CXN
p3558
(dp3559
g1711
(iconstruction
TP_SYMLINKS
p3560
(dp3561
g1714
(dp3562
VN1_330
p3563
VS1_332
p3564
ssg567
I328
sg50
g1653
sbsg1720
VV
p3565
sg1722
I1
sg50
VSEND
p3566
sg1723
(iconstruction
TP_SEMFRAME
p3567
(dp3568
g80
g0
(g81
g2
Ntp3569
Rp3570
(dp3571
g85
(dp3572
(iconstruction
TP_NODE
p3573
(dp3574
g1732
I00
sg69
g620
sg50
g3563
sg1733
I00
sg1734
I00
sg567
I330
sb(dp3575
g1733
I00
sg69
g620
ss(iconstruction
TP_NODE
p3576
(dp3577
g1732
I01
sg69
g569
sg50
VACT_329
p3578
sg1733
I01
sg1734
I00
sg567
I329
sb(dp3579
g1733
I01
sg69
g569
sssg268
g269
sg270
g269
sg271
(dp3580
g3573
(dp3581
sg3576
(dp3582
g3573
(dp3583
g69
g716
ssssg465
g3580
sg80
(dp3584
sg467
g269
sg468
g3580
sg469
(dp3585
g3573
(dp3586
g3576
g3583
ssg3576
(dp3587
ssbsg562
(lp3588
g3576
ag3573
asg835
(lp3589
(iconstruction
TP_REL
p3590
(dp3591
g841
g3573
sg69
g716
sg567
I331
sg842
g3576
sg50
VIS_331
p3592
sbasg567
I326
sg50
g1653
sbsg1748
(iconstruction
TP_SYNFORM
p3593
(dp3594
g567
I327
sg1751
(lp3595
(iconstruction
TP_PHON
p3596
(dp3597
g1761
I4
sg1758
I0
sg567
I332
sg1762
Vsend
p3598
sg50
g3564
sbasg50
g1653
sbsg1769
I1
sba(iconstruction
CXN
p3599
(dp3600
g1711
(iconstruction
TP_SYMLINKS
p3601
(dp3602
g1714
(dp3603
VN1_337
p3604
VS1_339
p3605
ssg567
I335
sg50
g1653
sbsg1720
VV
p3606
sg1722
I1
sg50
VMEET
p3607
sg1723
(iconstruction
TP_SEMFRAME
p3608
(dp3609
g80
g0
(g81
g2
Ntp3610
Rp3611
(dp3612
g85
(dp3613
(iconstruction
TP_NODE
p3614
(dp3615
g1732
I01
sg69
g569
sg50
VACT_336
p3616
sg1733
I01
sg1734
I00
sg567
I336
sb(dp3617
g1733
I01
sg69
g569
ss(iconstruction
TP_NODE
p3618
(dp3619
g1732
I00
sg69
g575
sg50
g3604
sg1733
I00
sg1734
I00
sg567
I337
sb(dp3620
g1733
I00
sg69
g575
sssg268
g269
sg270
g269
sg271
(dp3621
g3614
(dp3622
g3618
(dp3623
g69
g716
sssg3618
(dp3624
ssg465
g3621
sg80
(dp3625
sg467
g269
sg468
g3621
sg469
(dp3626
g3614
(dp3627
sg3618
(dp3628
g3614
g3623
sssbsg562
(lp3629
g3614
ag3618
asg835
(lp3630
(iconstruction
TP_REL
p3631
(dp3632
g841
g3618
sg69
g716
sg567
I338
sg842
g3614
sg50
VIS_338
p3633
sbasg567
I333
sg50
g1653
sbsg1748
(iconstruction
TP_SYNFORM
p3634
(dp3635
g567
I334
sg1751
(lp3636
(iconstruction
TP_PHON
p3637
(dp3638
g1761
I4
sg1758
I0
sg567
I339
sg1762
Vmeet
p3639
sg50
g3605
sbasg50
g1653
sbsg1769
I1
sba(iconstruction
CXN
p3640
(dp3641
g1711
(iconstruction
TP_SYMLINKS
p3642
(dp3643
g1714
(dp3644
VN1_344
p3645
VS1_346
p3646
ssg567
I342
sg50
g1653
sbsg1720
VV
p3647
sg1722
I1
sg50
VKISS
p3648
sg1723
(iconstruction
TP_SEMFRAME
p3649
(dp3650
g80
g0
(g81
g2
Ntp3651
Rp3652
(dp3653
g85
(dp3654
(iconstruction
TP_NODE
p3655
(dp3656
g1732
I01
sg69
g569
sg50
VACT_343
p3657
sg1733
I01
sg1734
I00
sg567
I343
sb(dp3658
g1733
I01
sg69
g569
ss(iconstruction
TP_NODE
p3659
(dp3660
g1732
I00
sg69
g605
sg50
g3645
sg1733
I00
sg1734
I00
sg567
I344
sb(dp3661
g1733
I00
sg69
g605
sssg268
g269
sg270
g269
sg271
(dp3662
g3655
(dp3663
g3659
(dp3664
g69
g716
sssg3659
(dp3665
ssg465
g3662
sg80
(dp3666
sg467
g269
sg468
g3662
sg469
(dp3667
g3655
(dp3668
sg3659
(dp3669
g3655
g3664
sssbsg562
(lp3670
g3655
ag3659
asg835
(lp3671
(iconstruction
TP_REL
p3672
(dp3673
g841
g3659
sg69
g716
sg567
I345
sg842
g3655
sg50
VIS_345
p3674
sbasg567
I340
sg50
g1653
sbsg1748
(iconstruction
TP_SYNFORM
p3675
(dp3676
g567
I341
sg1751
(lp3677
(iconstruction
TP_PHON
p3678
(dp3679
g1761
I4
sg1758
I0
sg567
I346
sg1762
Vkiss
p3680
sg50
g3646
sbasg50
g1653
sbsg1769
I1
sba(iconstruction
CXN
p3681
(dp3682
g1711
(iconstruction
TP_SYMLINKS
p3683
(dp3684
g1714
(dp3685
VN1_351
p3686
VS1_353
p3687
ssg567
I349
sg50
g1653
sbsg1720
VV
p3688
sg1722
I1
sg50
VSHAKE_HANDS
p3689
sg1723
(iconstruction
TP_SEMFRAME
p3690
(dp3691
g80
g0
(g81
g2
Ntp3692
Rp3693
(dp3694
g85
(dp3695
(iconstruction
TP_NODE
p3696
(dp3697
g1732
I00
sg69
g578
sg50
g3686
sg1733
I00
sg1734
I00
sg567
I351
sb(dp3698
g1733
I00
sg69
g578
ss(iconstruction
TP_NODE
p3699
(dp3700
g1732
I01
sg69
g569
sg50
VACT_350
p3701
sg1733
I01
sg1734
I00
sg567
I350
sb(dp3702
g1733
I01
sg69
g569
sssg268
g269
sg270
g269
sg271
(dp3703
g3696
(dp3704
sg3699
(dp3705
g3696
(dp3706
g69
g716
ssssg465
g3703
sg80
(dp3707
sg467
g269
sg468
g3703
sg469
(dp3708
g3696
(dp3709
g3699
g3706
ssg3699
(dp3710
ssbsg562
(lp3711
g3699
ag3696
asg835
(lp3712
(iconstruction
TP_REL
p3713
(dp3714
g841
g3696
sg69
g716
sg567
I352
sg842
g3699
sg50
VIS_352
p3715
sbasg567
I347
sg50
g1653
sbsg1748
(iconstruction
TP_SYNFORM
p3716
(dp3717
g567
I348
sg1751
(lp3718
(iconstruction
TP_PHON
p3719
(dp3720
g1761
I10
sg1758
I0
sg567
I353
sg1762
Vshake hands
p3721
sg50
g3687
sbasg50
g1653
sbsg1769
I1
sba(iconstruction
CXN
p3722
(dp3723
g1711
(iconstruction
TP_SYMLINKS
p3724
(dp3725
g1714
(dp3726
VN1_357
p3727
VS1_358
p3728
ssg567
I356
sg50
g1653
sbsg1720
VA
p3729
sg1722
I1
sg50
VBLUE
p3730
sg1723
(iconstruction
TP_SEMFRAME
p3731
(dp3732
g80
g0
(g81
g2
Ntp3733
Rp3734
(dp3735
g85
(dp3736
(iconstruction
TP_NODE
p3737
(dp3738
g1732
I01
sg69
g632
sg50
g3727
sg1733
I00
sg1734
I00
sg567
I357
sb(dp3739
g1733
I00
sg69
g632
sssg268
g269
sg270
g269
sg271
(dp3740
g3737
(dp3741
ssg465
g3740
sg80
(dp3742
sg467
g269
sg468
g3740
sg469
(dp3743
g3737
(dp3744
ssbsg562
(lp3745
g3737
asg835
(lp3746
sg567
I354
sg50
g1653
sbsg1748
(iconstruction
TP_SYNFORM
p3747
(dp3748
g567
I355
sg1751
(lp3749
(iconstruction
TP_PHON
p3750
(dp3751
g1761
I4
sg1758
I0
sg567
I358
sg1762
Vblue
p3752
sg50
g3728
sbasg50
g1653
sbsg1769
I1
sba(iconstruction
CXN
p3753
(dp3754
g1711
(iconstruction
TP_SYMLINKS
p3755
(dp3756
g1714
(dp3757
VN1_362
p3758
VS1_363
p3759
ssg567
I361
sg50
g1653
sbsg1720
VA
p3760
sg1722
I1
sg50
VBLACK
p3761
sg1723
(iconstruction
TP_SEMFRAME
p3762
(dp3763
g80
g0
(g81
g2
Ntp3764
Rp3765
(dp3766
g85
(dp3767
(iconstruction
TP_NODE
p3768
(dp3769
g1732
I01
sg69
g641
sg50
g3758
sg1733
I00
sg1734
I00
sg567
I362
sb(dp3770
g1733
I00
sg69
g641
sssg268
g269
sg270
g269
sg271
(dp3771
g3768
(dp3772
ssg465
g3771
sg80
(dp3773
sg467
g269
sg468
g3771
sg469
(dp3774
g3768
(dp3775
ssbsg562
(lp3776
g3768
asg835
(lp3777
sg567
I359
sg50
g1653
sbsg1748
(iconstruction
TP_SYNFORM
p3778
(dp3779
g567
I360
sg1751
(lp3780
(iconstruction
TP_PHON
p3781
(dp3782
g1761
I5
sg1758
I0
sg567
I363
sg1762
Vblack
p3783
sg50
g3759
sbasg50
g1653
sbsg1769
I1
sba(iconstruction
CXN
p3784
(dp3785
g1711
(iconstruction
TP_SYMLINKS
p3786
(dp3787
g1714
(dp3788
VN1_367
p3789
VS1_368
p3790
ssg567
I366
sg50
g1653
sbsg1720
VA
p3791
sg1722
I1
sg50
VGREEN
p3792
sg1723
(iconstruction
TP_SEMFRAME
p3793
(dp3794
g80
g0
(g81
g2
Ntp3795
Rp3796
(dp3797
g85
(dp3798
(iconstruction
TP_NODE
p3799
(dp3800
g1732
I01
sg69
g635
sg50
g3789
sg1733
I00
sg1734
I00
sg567
I367
sb(dp3801
g1733
I00
sg69
g635
sssg268
g269
sg270
g269
sg271
(dp3802
g3799
(dp3803
ssg465
g3802
sg80
(dp3804
sg467
g269
sg468
g3802
sg469
(dp3805
g3799
(dp3806
ssbsg562
(lp3807
g3799
asg835
(lp3808
sg567
I364
sg50
g1653
sbsg1748
(iconstruction
TP_SYNFORM
p3809
(dp3810
g567
I365
sg1751
(lp3811
(iconstruction
TP_PHON
p3812
(dp3813
g1761
I5
sg1758
I0
sg567
I368
sg1762
Vgreen
p3814
sg50
g3790
sbasg50
g1653
sbsg1769
I1
sba(iconstruction
CXN
p3815
(dp3816
g1711
(iconstruction
TP_SYMLINKS
p3817
(dp3818
g1714
(dp3819
VN1_372
p3820
VS1_373
p3821
ssg567
I371
sg50
g1653
sbsg1720
VA
p3822
sg1722
I1
sg50
VSMALL
p3823
sg1723
(iconstruction
TP_SEMFRAME
p3824
(dp3825
g80
g0
(g81
g2
Ntp3826
Rp3827
(dp3828
g85
(dp3829
(iconstruction
TP_NODE
p3830
(dp3831
g1732
I01
sg69
g662
sg50
g3820
sg1733
I00
sg1734
I00
sg567
I372
sb(dp3832
g1733
I00
sg69
g662
sssg268
g269
sg270
g269
sg271
(dp3833
g3830
(dp3834
ssg465
g3833
sg80
(dp3835
sg467
g269
sg468
g3833
sg469
(dp3836
g3830
(dp3837
ssbsg562
(lp3838
g3830
asg835
(lp3839
sg567
I369
sg50
g1653
sbsg1748
(iconstruction
TP_SYNFORM
p3840
(dp3841
g567
I370
sg1751
(lp3842
(iconstruction
TP_PHON
p3843
(dp3844
g1761
I5
sg1758
I0
sg567
I373
sg1762
Vsmall
p3845
sg50
g3821
sbasg50
g1653
sbsg1769
I1
sba(iconstruction
CXN
p3846
(dp3847
g1711
(iconstruction
TP_SYMLINKS
p3848
(dp3849
g1714
(dp3850
VN1_377
p3851
VS1_378
p3852
ssg567
I376
sg50
g1653
sbsg1720
VA
p3853
sg1722
I1
sg50
VBIG
p3854
sg1723
(iconstruction
TP_SEMFRAME
p3855
(dp3856
g80
g0
(g81
g2
Ntp3857
Rp3858
(dp3859
g85
(dp3860
(iconstruction
TP_NODE
p3861
(dp3862
g1732
I01
sg69
g665
sg50
g3851
sg1733
I00
sg1734
I00
sg567
I377
sb(dp3863
g1733
I00
sg69
g665
sssg268
g269
sg270
g269
sg271
(dp3864
g3861
(dp3865
ssg465
g3864
sg80
(dp3866
sg467
g269
sg468
g3864
sg469
(dp3867
g3861
(dp3868
ssbsg562
(lp3869
g3861
asg835
(lp3870
sg567
I374
sg50
g1653
sbsg1748
(iconstruction
TP_SYNFORM
p3871
(dp3872
g567
I375
sg1751
(lp3873
(iconstruction
TP_PHON
p3874
(dp3875
g1761
I3
sg1758
I0
sg567
I378
sg1762
Vbig
p3876
sg50
g3852
sbasg50
g1653
sbsg1769
I1
sba(iconstruction
CXN
p3877
(dp3878
g1711
(iconstruction
TP_SYMLINKS
p3879
(dp3880
g1714
(dp3881
VN1_382
p3882
VS1_383
p3883
ssg567
I381
sg50
g1653
sbsg1720
VA
p3884
sg1722
I1
sg50
VHANDSOME
p3885
sg1723
(iconstruction
TP_SEMFRAME
p3886
(dp3887
g80
g0
(g81
g2
Ntp3888
Rp3889
(dp3890
g85
(dp3891
(iconstruction
TP_NODE
p3892
(dp3893
g1732
I01
sg69
g656
sg50
g3882
sg1733
I00
sg1734
I00
sg567
I382
sb(dp3894
g1733
I00
sg69
g656
sssg268
g269
sg270
g269
sg271
(dp3895
g3892
(dp3896
ssg465
g3895
sg80
(dp3897
sg467
g269
sg468
g3895
sg469
(dp3898
g3892
(dp3899
ssbsg562
(lp3900
g3892
asg835
(lp3901
sg567
I379
sg50
g1653
sbsg1748
(iconstruction
TP_SYNFORM
p3902
(dp3903
g567
I380
sg1751
(lp3904
(iconstruction
TP_PHON
p3905
(dp3906
g1761
I8
sg1758
I0
sg567
I383
sg1762
Vhandsome
p3907
sg50
g3883
sbasg50
g1653
sbsg1769
I1
sba(iconstruction
CXN
p3908
(dp3909
g1711
(iconstruction
TP_SYMLINKS
p3910
(dp3911
g1714
(dp3912
VN1_387
p3913
VS1_388
p3914
ssg567
I386
sg50
g1653
sbsg1720
VA
p3915
sg1722
I1
sg50
VPRETTY
p3916
sg1723
(iconstruction
TP_SEMFRAME
p3917
(dp3918
g80
g0
(g81
g2
Ntp3919
Rp3920
(dp3921
g85
(dp3922
(iconstruction
TP_NODE
p3923
(dp3924
g1732
I01
sg69
g653
sg50
g3913
sg1733
I00
sg1734
I00
sg567
I387
sb(dp3925
g1733
I00
sg69
g653
sssg268
g269
sg270
g269
sg271
(dp3926
g3923
(dp3927
ssg465
g3926
sg80
(dp3928
sg467
g269
sg468
g3926
sg469
(dp3929
g3923
(dp3930
ssbsg562
(lp3931
g3923
asg835
(lp3932
sg567
I384
sg50
g1653
sbsg1748
(iconstruction
TP_SYNFORM
p3933
(dp3934
g567
I385
sg1751
(lp3935
(iconstruction
TP_PHON
p3936
(dp3937
g1761
I6
sg1758
I0
sg567
I388
sg1762
Vpretty
p3938
sg50
g3914
sbasg50
g1653
sbsg1769
I1
sba(iconstruction
CXN
p3939
(dp3940
g1711
(iconstruction
TP_SYMLINKS
p3941
(dp3942
g1714
(dp3943
VN1_392
p3944
VS1_393
p3945
ssg567
I391
sg50
g1653
sbsg1720
VA
p3946
sg1722
I1
sg50
VYOUNG
p3947
sg1723
(iconstruction
TP_SEMFRAME
p3948
(dp3949
g80
g0
(g81
g2
Ntp3950
Rp3951
(dp3952
g85
(dp3953
(iconstruction
TP_NODE
p3954
(dp3955
g1732
I01
sg69
g650
sg50
g3944
sg1733
I00
sg1734
I00
sg567
I392
sb(dp3956
g1733
I00
sg69
g650
sssg268
g269
sg270
g269
sg271
(dp3957
g3954
(dp3958
ssg465
g3957
sg80
(dp3959
sg467
g269
sg468
g3957
sg469
(dp3960
g3954
(dp3961
ssbsg562
(lp3962
g3954
asg835
(lp3963
sg567
I389
sg50
g1653
sbsg1748
(iconstruction
TP_SYNFORM
p3964
(dp3965
g567
I390
sg1751
(lp3966
(iconstruction
TP_PHON
p3967
(dp3968
g1761
I5
sg1758
I0
sg567
I393
sg1762
Vyoung
p3969
sg50
g3945
sbasg50
g1653
sbsg1769
I1
sba(iconstruction
CXN
p3970
(dp3971
g1711
(iconstruction
TP_SYMLINKS
p3972
(dp3973
g1714
(dp3974
VN1_398
p3975
VS1_400
p3976
ssg567
I396
sg50
g1653
sbsg1720
VN
p3977
sg1722
I1
sg50
VWOMAN
p3978
sg1723
(iconstruction
TP_SEMFRAME
p3979
(dp3980
g80
g0
(g81
g2
Ntp3981
Rp3982
(dp3983
g85
(dp3984
(iconstruction
TP_NODE
p3985
(dp3986
g1732
I00
sg69
g791
sg50
g3975
sg1733
I00
sg1734
I00
sg567
I398
sb(dp3987
g1733
I00
sg69
g791
ss(iconstruction
TP_NODE
p3988
(dp3989
g1732
I01
sg69
g725
sg50
VENT_397
p3990
sg1733
I01
sg1734
I00
sg567
I397
sb(dp3991
g1733
I01
sg69
g725
sssg268
g269
sg270
g269
sg271
(dp3992
g3985
(dp3993
sg3988
(dp3994
g3985
(dp3995
g69
g716
ssssg465
g3992
sg80
(dp3996
sg467
g269
sg468
g3992
sg469
(dp3997
g3985
(dp3998
g3988
g3995
ssg3988
(dp3999
ssbsg562
(lp4000
g3988
ag3985
asg835
(lp4001
(iconstruction
TP_REL
p4002
(dp4003
g841
g3985
sg69
g716
sg567
I399
sg842
g3988
sg50
VIS_399
p4004
sbasg567
I394
sg50
g1653
sbsg1748
(iconstruction
TP_SYNFORM
p4005
(dp4006
g567
I395
sg1751
(lp4007
(iconstruction
TP_PHON
p4008
(dp4009
g1761
I5
sg1758
I0
sg567
I400
sg1762
Vwoman
p4010
sg50
g3976
sbasg50
g1653
sbsg1769
I1
sba(iconstruction
CXN
p4011
(dp4012
g1711
(iconstruction
TP_SYMLINKS
p4013
(dp4014
g1714
(dp4015
VN1_405
p4016
VS1_407
p4017
ssg567
I403
sg50
g1653
sbsg1720
VN
p4018
sg1722
I1
sg50
VWOMAN2
p4019
sg1723
(iconstruction
TP_SEMFRAME
p4020
(dp4021
g80
g0
(g81
g2
Ntp4022
Rp4023
(dp4024
g85
(dp4025
(iconstruction
TP_NODE
p4026
(dp4027
g1732
I01
sg69
g725
sg50
VENT_404
p4028
sg1733
I01
sg1734
I00
sg567
I404
sb(dp4029
g1733
I01
sg69
g725
ss(iconstruction
TP_NODE
p4030
(dp4031
g1732
I00
sg69
g791
sg50
g4016
sg1733
I00
sg1734
I00
sg567
I405
sb(dp4032
g1733
I00
sg69
g791
sssg268
g269
sg270
g269
sg271
(dp4033
g4026
(dp4034
g4030
(dp4035
g69
g716
sssg4030
(dp4036
ssg465
g4033
sg80
(dp4037
sg467
g269
sg468
g4033
sg469
(dp4038
g4026
(dp4039
sg4030
(dp4040
g4026
g4035
sssbsg562
(lp4041
g4026
ag4030
asg835
(lp4042
(iconstruction
TP_REL
p4043
(dp4044
g841
g4030
sg69
g716
sg567
I406
sg842
g4026
sg50
VIS_406
p4045
sbasg567
I401
sg50
g1653
sbsg1748
(iconstruction
TP_SYNFORM
p4046
(dp4047
g567
I402
sg1751
(lp4048
(iconstruction
TP_PHON
p4049
(dp4050
g1761
I4
sg1758
I0
sg567
I407
sg1762
Vlady
p4051
sg50
g4017
sbasg50
g1653
sbsg1769
I1
sba(iconstruction
CXN
p4052
(dp4053
g1711
(iconstruction
TP_SYMLINKS
p4054
(dp4055
g1714
(dp4056
VN1_412
p4057
VS1_414
p4058
ssg567
I410
sg50
g1653
sbsg1720
VN
p4059
sg1722
I1
sg50
VMAN
p4060
sg1723
(iconstruction
TP_SEMFRAME
p4061
(dp4062
g80
g0
(g81
g2
Ntp4063
Rp4064
(dp4065
g85
(dp4066
(iconstruction
TP_NODE
p4067
(dp4068
g1732
I00
sg69
g818
sg50
g4057
sg1733
I00
sg1734
I00
sg567
I412
sb(dp4069
g1733
I00
sg69
g818
ss(iconstruction
TP_NODE
p4070
(dp4071
g1732
I01
sg69
g725
sg50
VENT_411
p4072
sg1733
I01
sg1734
I00
sg567
I411
sb(dp4073
g1733
I01
sg69
g725
sssg268
g269
sg270
g269
sg271
(dp4074
g4067
(dp4075
sg4070
(dp4076
g4067
(dp4077
g69
g716
ssssg465
g4074
sg80
(dp4078
sg467
g269
sg468
g4074
sg469
(dp4079
g4067
(dp4080
g4070
g4077
ssg4070
(dp4081
ssbsg562
(lp4082
g4070
ag4067
asg835
(lp4083
(iconstruction
TP_REL
p4084
(dp4085
g841
g4067
sg69
g716
sg567
I413
sg842
g4070
sg50
VIS_413
p4086
sbasg567
I408
sg50
g1653
sbsg1748
(iconstruction
TP_SYNFORM
p4087
(dp4088
g567
I409
sg1751
(lp4089
(iconstruction
TP_PHON
p4090
(dp4091
g1761
I3
sg1758
I0
sg567
I414
sg1762
Vman
p4092
sg50
g4058
sbasg50
g1653
sbsg1769
I1
sba(iconstruction
CXN
p4093
(dp4094
g1711
(iconstruction
TP_SYMLINKS
p4095
(dp4096
g1714
(dp4097
VN1_419
p4098
VS1_421
p4099
ssg567
I417
sg50
g1653
sbsg1720
VN
p4100
sg1722
I1
sg50
VGIRL
p4101
sg1723
(iconstruction
TP_SEMFRAME
p4102
(dp4103
g80
g0
(g81
g2
Ntp4104
Rp4105
(dp4106
g85
(dp4107
(iconstruction
TP_NODE
p4108
(dp4109
g1732
I00
sg69
g809
sg50
g4098
sg1733
I00
sg1734
I00
sg567
I419
sb(dp4110
g1733
I00
sg69
g809
ss(iconstruction
TP_NODE
p4111
(dp4112
g1732
I01
sg69
g725
sg50
VENT_418
p4113
sg1733
I01
sg1734
I00
sg567
I418
sb(dp4114
g1733
I01
sg69
g725
sssg268
g269
sg270
g269
sg271
(dp4115
g4108
(dp4116
sg4111
(dp4117
g4108
(dp4118
g69
g716
ssssg465
g4115
sg80
(dp4119
sg467
g269
sg468
g4115
sg469
(dp4120
g4108
(dp4121
g4111
g4118
ssg4111
(dp4122
ssbsg562
(lp4123
g4111
ag4108
asg835
(lp4124
(iconstruction
TP_REL
p4125
(dp4126
g841
g4108
sg69
g716
sg567
I420
sg842
g4111
sg50
VIS_420
p4127
sbasg567
I415
sg50
g1653
sbsg1748
(iconstruction
TP_SYNFORM
p4128
(dp4129
g567
I416
sg1751
(lp4130
(iconstruction
TP_PHON
p4131
(dp4132
g1761
I4
sg1758
I0
sg567
I421
sg1762
Vgirl
p4133
sg50
g4099
sbasg50
g1653
sbsg1769
I1
sba(iconstruction
CXN
p4134
(dp4135
g1711
(iconstruction
TP_SYMLINKS
p4136
(dp4137
g1714
(dp4138
VN1_426
p4139
VS1_428
p4140
ssg567
I424
sg50
g1653
sbsg1720
VN
p4141
sg1722
I1
sg50
VBOY
p4142
sg1723
(iconstruction
TP_SEMFRAME
p4143
(dp4144
g80
g0
(g81
g2
Ntp4145
Rp4146
(dp4147
g85
(dp4148
(iconstruction
TP_NODE
p4149
(dp4150
g1732
I01
sg69
g725
sg50
VENT_425
p4151
sg1733
I01
sg1734
I00
sg567
I425
sb(dp4152
g1733
I01
sg69
g725
ss(iconstruction
TP_NODE
p4153
(dp4154
g1732
I00
sg69
g788
sg50
g4139
sg1733
I00
sg1734
I00
sg567
I426
sb(dp4155
g1733
I00
sg69
g788
sssg268
g269
sg270
g269
sg271
(dp4156
g4149
(dp4157
g4153
(dp4158
g69
g716
sssg4153
(dp4159
ssg465
g4156
sg80
(dp4160
sg467
g269
sg468
g4156
sg469
(dp4161
g4149
(dp4162
sg4153
(dp4163
g4149
g4158
sssbsg562
(lp4164
g4149
ag4153
asg835
(lp4165
(iconstruction
TP_REL
p4166
(dp4167
g841
g4153
sg69
g716
sg567
I427
sg842
g4149
sg50
VIS_427
p4168
sbasg567
I422
sg50
g1653
sbsg1748
(iconstruction
TP_SYNFORM
p4169
(dp4170
g567
I423
sg1751
(lp4171
(iconstruction
TP_PHON
p4172
(dp4173
g1761
I3
sg1758
I0
sg567
I428
sg1762
Vboy
p4174
sg50
g4140
sbasg50
g1653
sbsg1769
I1
sba(iconstruction
CXN
p4175
(dp4176
g1711
(iconstruction
TP_SYMLINKS
p4177
(dp4178
g1714
(dp4179
VN1_433
p4180
VS1_435
p4181
ssg567
I431
sg50
g1653
sbsg1720
VN
p4182
sg1722
I1
sg50
VPEOPLE
p4183
sg1723
(iconstruction
TP_SEMFRAME
p4184
(dp4185
g80
g0
(g81
g2
Ntp4186
Rp4187
(dp4188
g85
(dp4189
(iconstruction
TP_NODE
p4190
(dp4191
g1732
I00
sg69
g794
sg50
g4180
sg1733
I00
sg1734
I00
sg567
I433
sb(dp4192
g1733
I00
sg69
g794
ss(iconstruction
TP_NODE
p4193
(dp4194
g1732
I01
sg69
g725
sg50
VENT_432
p4195
sg1733
I01
sg1734
I00
sg567
I432
sb(dp4196
g1733
I01
sg69
g725
sssg268
g269
sg270
g269
sg271
(dp4197
g4190
(dp4198
sg4193
(dp4199
g4190
(dp4200
g69
g716
ssssg465
g4197
sg80
(dp4201
sg467
g269
sg468
g4197
sg469
(dp4202
g4190
(dp4203
g4193
g4200
ssg4193
(dp4204
ssbsg562
(lp4205
g4193
ag4190
asg835
(lp4206
(iconstruction
TP_REL
p4207
(dp4208
g841
g4190
sg69
g716
sg567
I434
sg842
g4193
sg50
VIS_434
p4209
sbasg567
I429
sg50
g1653
sbsg1748
(iconstruction
TP_SYNFORM
p4210
(dp4211
g567
I430
sg1751
(lp4212
(iconstruction
TP_PHON
p4213
(dp4214
g1761
I6
sg1758
I0
sg567
I435
sg1762
Vpeople
p4215
sg50
g4181
sbasg50
g1653
sbsg1769
I1
sba(iconstruction
CXN
p4216
(dp4217
g1711
(iconstruction
TP_SYMLINKS
p4218
(dp4219
g1714
(dp4220
VN1_440
p4221
VS1_442
p4222
ssg567
I438
sg50
g1653
sbsg1720
VN
p4223
sg1722
I1
sg50
VMOUSE
p4224
sg1723
(iconstruction
TP_SEMFRAME
p4225
(dp4226
g80
g0
(g81
g2
Ntp4227
Rp4228
(dp4229
g85
(dp4230
(iconstruction
TP_NODE
p4231
(dp4232
g1732
I01
sg69
g725
sg50
VENT_439
p4233
sg1733
I01
sg1734
I00
sg567
I439
sb(dp4234
g1733
I01
sg69
g725
ss(iconstruction
TP_NODE
p4235
(dp4236
g1732
I00
sg69
g782
sg50
g4221
sg1733
I00
sg1734
I00
sg567
I440
sb(dp4237
g1733
I00
sg69
g782
sssg268
g269
sg270
g269
sg271
(dp4238
g4231
(dp4239
g4235
(dp4240
g69
g716
sssg4235
(dp4241
ssg465
g4238
sg80
(dp4242
sg467
g269
sg468
g4238
sg469
(dp4243
g4231
(dp4244
sg4235
(dp4245
g4231
g4240
sssbsg562
(lp4246
g4231
ag4235
asg835
(lp4247
(iconstruction
TP_REL
p4248
(dp4249
g841
g4235
sg69
g716
sg567
I441
sg842
g4231
sg50
VIS_441
p4250
sbasg567
I436
sg50
g1653
sbsg1748
(iconstruction
TP_SYNFORM
p4251
(dp4252
g567
I437
sg1751
(lp4253
(iconstruction
TP_PHON
p4254
(dp4255
g1761
I5
sg1758
I0
sg567
I442
sg1762
Vmouse
p4256
sg50
g4222
sbasg50
g1653
sbsg1769
I1
sba(iconstruction
CXN
p4257
(dp4258
g1711
(iconstruction
TP_SYMLINKS
p4259
(dp4260
g1714
(dp4261
VN1_447
p4262
VS1_449
p4263
ssg567
I445
sg50
g1653
sbsg1720
VN
p4264
sg1722
I1
sg50
VTURTLE
p4265
sg1723
(iconstruction
TP_SEMFRAME
p4266
(dp4267
g80
g0
(g81
g2
Ntp4268
Rp4269
(dp4270
g85
(dp4271
(iconstruction
TP_NODE
p4272
(dp4273
g1732
I00
sg69
g779
sg50
g4262
sg1733
I00
sg1734
I00
sg567
I447
sb(dp4274
g1733
I00
sg69
g779
ss(iconstruction
TP_NODE
p4275
(dp4276
g1732
I01
sg69
g725
sg50
VENT_446
p4277
sg1733
I01
sg1734
I00
sg567
I446
sb(dp4278
g1733
I01
sg69
g725
sssg268
g269
sg270
g269
sg271
(dp4279
g4272
(dp4280
sg4275
(dp4281
g4272
(dp4282
g69
g716
ssssg465
g4279
sg80
(dp4283
sg467
g269
sg468
g4279
sg469
(dp4284
g4272
(dp4285
g4275
g4282
ssg4275
(dp4286
ssbsg562
(lp4287
g4275
ag4272
asg835
(lp4288
(iconstruction
TP_REL
p4289
(dp4290
g841
g4272
sg69
g716
sg567
I448
sg842
g4275
sg50
VIS_448
p4291
sbasg567
I443
sg50
g1653
sbsg1748
(iconstruction
TP_SYNFORM
p4292
(dp4293
g567
I444
sg1751
(lp4294
(iconstruction
TP_PHON
p4295
(dp4296
g1761
I6
sg1758
I0
sg567
I449
sg1762
Vturtle
p4297
sg50
g4263
sbasg50
g1653
sbsg1769
I1
sba(iconstruction
CXN
p4298
(dp4299
g1711
(iconstruction
TP_SYMLINKS
p4300
(dp4301
g1714
(dp4302
VN1_454
p4303
VS1_456
p4304
ssg567
I452
sg50
g1653
sbsg1720
VN
p4305
sg1722
I1
sg50
VDRESS
p4306
sg1723
(iconstruction
TP_SEMFRAME
p4307
(dp4308
g80
g0
(g81
g2
Ntp4309
Rp4310
(dp4311
g85
(dp4312
(iconstruction
TP_NODE
p4313
(dp4314
g1732
I00
sg69
g770
sg50
g4303
sg1733
I00
sg1734
I00
sg567
I454
sb(dp4315
g1733
I00
sg69
g770
ss(iconstruction
TP_NODE
p4316
(dp4317
g1732
I01
sg69
g725
sg50
VENT_453
p4318
sg1733
I01
sg1734
I00
sg567
I453
sb(dp4319
g1733
I01
sg69
g725
sssg268
g269
sg270
g269
sg271
(dp4320
g4313
(dp4321
sg4316
(dp4322
g4313
(dp4323
g69
g716
ssssg465
g4320
sg80
(dp4324
sg467
g269
sg468
g4320
sg469
(dp4325
g4313
(dp4326
g4316
g4323
ssg4316
(dp4327
ssbsg562
(lp4328
g4316
ag4313
asg835
(lp4329
(iconstruction
TP_REL
p4330
(dp4331
g841
g4313
sg69
g716
sg567
I455
sg842
g4316
sg50
VIS_455
p4332
sbasg567
I450
sg50
g1653
sbsg1748
(iconstruction
TP_SYNFORM
p4333
(dp4334
g567
I451
sg1751
(lp4335
(iconstruction
TP_PHON
p4336
(dp4337
g1761
I5
sg1758
I0
sg567
I456
sg1762
Vdress
p4338
sg50
g4304
sbasg50
g1653
sbsg1769
I1
sba(iconstruction
CXN
p4339
(dp4340
g1711
(iconstruction
TP_SYMLINKS
p4341
(dp4342
g1714
(dp4343
VN1_461
p4344
VS1_463
p4345
ssg567
I459
sg50
g1653
sbsg1720
VN
p4346
sg1722
I1
sg50
VTSHIRT
p4347
sg1723
(iconstruction
TP_SEMFRAME
p4348
(dp4349
g80
g0
(g81
g2
Ntp4350
Rp4351
(dp4352
g85
(dp4353
(iconstruction
TP_NODE
p4354
(dp4355
g1732
I01
sg69
g725
sg50
VENT_460
p4356
sg1733
I01
sg1734
I00
sg567
I460
sb(dp4357
g1733
I01
sg69
g725
ss(iconstruction
TP_NODE
p4358
(dp4359
g1732
I00
sg69
g767
sg50
g4344
sg1733
I00
sg1734
I00
sg567
I461
sb(dp4360
g1733
I00
sg69
g767
sssg268
g269
sg270
g269
sg271
(dp4361
g4354
(dp4362
g4358
(dp4363
g69
g716
sssg4358
(dp4364
ssg465
g4361
sg80
(dp4365
sg467
g269
sg468
g4361
sg469
(dp4366
g4354
(dp4367
sg4358
(dp4368
g4354
g4363
sssbsg562
(lp4369
g4354
ag4358
asg835
(lp4370
(iconstruction
TP_REL
p4371
(dp4372
g841
g4358
sg69
g716
sg567
I462
sg842
g4354
sg50
VIS_462
p4373
sbasg567
I457
sg50
g1653
sbsg1748
(iconstruction
TP_SYNFORM
p4374
(dp4375
g567
I458
sg1751
(lp4376
(iconstruction
TP_PHON
p4377
(dp4378
g1761
I6
sg1758
I0
sg567
I463
sg1762
Vt-shirt
p4379
sg50
g4345
sbasg50
g1653
sbsg1769
I1
sba(iconstruction
CXN
p4380
(dp4381
g1711
(iconstruction
TP_SYMLINKS
p4382
(dp4383
g1714
(dp4384
VN1_468
p4385
VS2_471
p4386
ssg567
I466
sg50
g1653
sbsg1720
VN
p4387
sg1722
I1
sg50
VBOXINGRING
p4388
sg1723
(iconstruction
TP_SEMFRAME
p4389
(dp4390
g80
g0
(g81
g2
Ntp4391
Rp4392
(dp4393
g85
(dp4394
(iconstruction
TP_NODE
p4395
(dp4396
g1732
I00
sg69
g824
sg50
g4385
sg1733
I00
sg1734
I00
sg567
I468
sb(dp4397
g1733
I00
sg69
g824
ss(iconstruction
TP_NODE
p4398
(dp4399
g1732
I01
sg69
g725
sg50
VENT_467
p4400
sg1733
I01
sg1734
I00
sg567
I467
sb(dp4401
g1733
I01
sg69
g725
sssg268
g269
sg270
g269
sg271
(dp4402
g4395
(dp4403
sg4398
(dp4404
g4395
(dp4405
g69
g716
ssssg465
g4402
sg80
(dp4406
sg467
g269
sg468
g4402
sg469
(dp4407
g4395
(dp4408
g4398
g4405
ssg4398
(dp4409
ssbsg562
(lp4410
g4398
ag4395
asg835
(lp4411
(iconstruction
TP_REL
p4412
(dp4413
g841
g4395
sg69
g716
sg567
I469
sg842
g4398
sg50
VIS_469
p4414
sbasg567
I464
sg50
g1653
sbsg1748
(iconstruction
TP_SYNFORM
p4415
(dp4416
g567
I465
sg1751
(lp4417
(iconstruction
TP_PHON
p4418
(dp4419
g1761
I6
sg1758
I0
sg567
I470
sg1762
Vboxing
p4420
sg50
VS1_470
p4421
sba(iconstruction
TP_PHON
p4422
(dp4423
g1761
I4
sg1758
I1
sg567
I471
sg1762
Vring
p4424
sg50
g4386
sbasg50
g1653
sbsg1769
I1
sba(iconstruction
CXN
p4425
(dp4426
g1711
(iconstruction
TP_SYMLINKS
p4427
(dp4428
g1714
(dp4429
VN1_476
p4430
VS1_478
p4431
ssg567
I474
sg50
g1653
sbsg1720
VN
p4432
sg1722
I1
sg50
VPARK
p4433
sg1723
(iconstruction
TP_SEMFRAME
p4434
(dp4435
g80
g0
(g81
g2
Ntp4436
Rp4437
(dp4438
g85
(dp4439
(iconstruction
TP_NODE
p4440
(dp4441
g1732
I00
sg69
g827
sg50
g4430
sg1733
I00
sg1734
I00
sg567
I476
sb(dp4442
g1733
I00
sg69
g827
ss(iconstruction
TP_NODE
p4443
(dp4444
g1732
I01
sg69
g725
sg50
VENT_475
p4445
sg1733
I01
sg1734
I00
sg567
I475
sb(dp4446
g1733
I01
sg69
g725
sssg268
g269
sg270
g269
sg271
(dp4447
g4440
(dp4448
sg4443
(dp4449
g4440
(dp4450
g69
g716
ssssg465
g4447
sg80
(dp4451
sg467
g269
sg468
g4447
sg469
(dp4452
g4440
(dp4453
g4443
g4450
ssg4443
(dp4454
ssbsg562
(lp4455
g4443
ag4440
asg835
(lp4456
(iconstruction
TP_REL
p4457
(dp4458
g841
g4440
sg69
g716
sg567
I477
sg842
g4443
sg50
VIS_477
p4459
sbasg567
I472
sg50
g1653
sbsg1748
(iconstruction
TP_SYNFORM
p4460
(dp4461
g567
I473
sg1751
(lp4462
(iconstruction
TP_PHON
p4463
(dp4464
g1761
I4
sg1758
I0
sg567
I478
sg1762
Vpark
p4465
sg50
g4431
sbasg50
g1653
sbsg1769
I1
sba(iconstruction
CXN
p4466
(dp4467
g1711
(iconstruction
TP_SYMLINKS
p4468
(dp4469
g1714
(dp4470
VN1_483
p4471
VS1_485
p4472
ssg567
I481
sg50
g1653
sbsg1720
VN
p4473
sg1722
I1
sg50
VSHIRT
p4474
sg1723
(iconstruction
TP_SEMFRAME
p4475
(dp4476
g80
g0
(g81
g2
Ntp4477
Rp4478
(dp4479
g85
(dp4480
(iconstruction
TP_NODE
p4481
(dp4482
g1732
I01
sg69
g725
sg50
VENT_482
p4483
sg1733
I01
sg1734
I00
sg567
I482
sb(dp4484
g1733
I01
sg69
g725
ss(iconstruction
TP_NODE
p4485
(dp4486
g1732
I00
sg69
g773
sg50
g4471
sg1733
I00
sg1734
I00
sg567
I483
sb(dp4487
g1733
I00
sg69
g773
sssg268
g269
sg270
g269
sg271
(dp4488
g4481
(dp4489
g4485
(dp4490
g69
g716
sssg4485
(dp4491
ssg465
g4488
sg80
(dp4492
sg467
g269
sg468
g4488
sg469
(dp4493
g4481
(dp4494
sg4485
(dp4495
g4481
g4490
sssbsg562
(lp4496
g4481
ag4485
asg835
(lp4497
(iconstruction
TP_REL
p4498
(dp4499
g841
g4485
sg69
g716
sg567
I484
sg842
g4481
sg50
VIS_484
p4500
sbasg567
I479
sg50
g1653
sbsg1748
(iconstruction
TP_SYNFORM
p4501
(dp4502
g567
I480
sg1751
(lp4503
(iconstruction
TP_PHON
p4504
(dp4505
g1761
I5
sg1758
I0
sg567
I485
sg1762
Vshirt
p4506
sg50
g4472
sbasg50
g1653
sbsg1769
I1
sba(iconstruction
CXN
p4507
(dp4508
g1711
(iconstruction
TP_SYMLINKS
p4509
(dp4510
g1714
(dp4511
VN1_490
p4512
VS1_492
p4513
ssg567
I488
sg50
g1653
sbsg1720
VN
p4514
sg1722
I1
sg50
VSUIT
p4515
sg1723
(iconstruction
TP_SEMFRAME
p4516
(dp4517
g80
g0
(g81
g2
Ntp4518
Rp4519
(dp4520
g85
(dp4521
(iconstruction
TP_NODE
p4522
(dp4523
g1732
I00
sg69
g776
sg50
g4512
sg1733
I00
sg1734
I00
sg567
I490
sb(dp4524
g1733
I00
sg69
g776
ss(iconstruction
TP_NODE
p4525
(dp4526
g1732
I01
sg69
g725
sg50
VENT_489
p4527
sg1733
I01
sg1734
I00
sg567
I489
sb(dp4528
g1733
I01
sg69
g725
sssg268
g269
sg270
g269
sg271
(dp4529
g4522
(dp4530
sg4525
(dp4531
g4522
(dp4532
g69
g716
ssssg465
g4529
sg80
(dp4533
sg467
g269
sg468
g4529
sg469
(dp4534
g4522
(dp4535
g4525
g4532
ssg4525
(dp4536
ssbsg562
(lp4537
g4525
ag4522
asg835
(lp4538
(iconstruction
TP_REL
p4539
(dp4540
g841
g4522
sg69
g716
sg567
I491
sg842
g4525
sg50
VIS_491
p4541
sbasg567
I486
sg50
g1653
sbsg1748
(iconstruction
TP_SYNFORM
p4542
(dp4543
g567
I487
sg1751
(lp4544
(iconstruction
TP_PHON
p4545
(dp4546
g1761
I4
sg1758
I0
sg567
I492
sg1762
Vsuit
p4547
sg50
g4513
sbasg50
g1653
sbsg1769
I1
sba(iconstruction
CXN
p4548
(dp4549
g1711
(iconstruction
TP_SYMLINKS
p4550
(dp4551
g1714
(dp4552
VN1_497
p4553
VS1_499
p4554
ssg567
I495
sg50
g1653
sbsg1720
VN
p4555
sg1722
I1
sg50
VCELLO
p4556
sg1723
(iconstruction
TP_SEMFRAME
p4557
(dp4558
g80
g0
(g81
g2
Ntp4559
Rp4560
(dp4561
g85
(dp4562
(iconstruction
TP_NODE
p4563
(dp4564
g1732
I00
sg69
g758
sg50
g4553
sg1733
I00
sg1734
I00
sg567
I497
sb(dp4565
g1733
I00
sg69
g758
ss(iconstruction
TP_NODE
p4566
(dp4567
g1732
I01
sg69
g725
sg50
VENT_496
p4568
sg1733
I01
sg1734
I00
sg567
I496
sb(dp4569
g1733
I01
sg69
g725
sssg268
g269
sg270
g269
sg271
(dp4570
g4563
(dp4571
sg4566
(dp4572
g4563
(dp4573
g69
g716
ssssg465
g4570
sg80
(dp4574
sg467
g269
sg468
g4570
sg469
(dp4575
g4563
(dp4576
g4566
g4573
ssg4566
(dp4577
ssbsg562
(lp4578
g4566
ag4563
asg835
(lp4579
(iconstruction
TP_REL
p4580
(dp4581
g841
g4563
sg69
g716
sg567
I498
sg842
g4566
sg50
VIS_498
p4582
sbasg567
I493
sg50
g1653
sbsg1748
(iconstruction
TP_SYNFORM
p4583
(dp4584
g567
I494
sg1751
(lp4585
(iconstruction
TP_PHON
p4586
(dp4587
g1761
I5
sg1758
I0
sg567
I499
sg1762
VCELLO
p4588
sg50
g4554
sbasg50
g1653
sbsg1769
I1
sba(iconstruction
CXN
p4589
(dp4590
g1711
(iconstruction
TP_SYMLINKS
p4591
(dp4592
g1714
(dp4593
VN1_504
p4594
VS1_506
p4595
ssg567
I502
sg50
g1653
sbsg1720
VN
p4596
sg1722
I1
sg50
VBAG
p4597
sg1723
(iconstruction
TP_SEMFRAME
p4598
(dp4599
g80
g0
(g81
g2
Ntp4600
Rp4601
(dp4602
g85
(dp4603
(iconstruction
TP_NODE
p4604
(dp4605
g1732
I01
sg69
g725
sg50
VENT_503
p4606
sg1733
I01
sg1734
I00
sg567
I503
sb(dp4607
g1733
I01
sg69
g725
ss(iconstruction
TP_NODE
p4608
(dp4609
g1732
I00
sg69
g749
sg50
g4594
sg1733
I00
sg1734
I00
sg567
I504
sb(dp4610
g1733
I00
sg69
g749
sssg268
g269
sg270
g269
sg271
(dp4611
g4604
(dp4612
g4608
(dp4613
g69
g716
sssg4608
(dp4614
ssg465
g4611
sg80
(dp4615
sg467
g269
sg468
g4611
sg469
(dp4616
g4604
(dp4617
sg4608
(dp4618
g4604
g4613
sssbsg562
(lp4619
g4604
ag4608
asg835
(lp4620
(iconstruction
TP_REL
p4621
(dp4622
g841
g4608
sg69
g716
sg567
I505
sg842
g4604
sg50
VIS_505
p4623
sbasg567
I500
sg50
g1653
sbsg1748
(iconstruction
TP_SYNFORM
p4624
(dp4625
g567
I501
sg1751
(lp4626
(iconstruction
TP_PHON
p4627
(dp4628
g1761
I3
sg1758
I0
sg567
I506
sg1762
Vbag
p4629
sg50
g4595
sbasg50
g1653
sbsg1769
I1
sba(iconstruction
CXN
p4630
(dp4631
g1711
(iconstruction
TP_SYMLINKS
p4632
(dp4633
g1714
(dp4634
VN1_511
p4635
VS2_514
p4636
ssg567
I509
sg50
g1653
sbsg1720
VN
p4637
sg1722
I1
sg50
VWATERING_CAN
p4638
sg1723
(iconstruction
TP_SEMFRAME
p4639
(dp4640
g80
g0
(g81
g2
Ntp4641
Rp4642
(dp4643
g85
(dp4644
(iconstruction
TP_NODE
p4645
(dp4646
g1732
I00
sg69
g746
sg50
g4635
sg1733
I00
sg1734
I00
sg567
I511
sb(dp4647
g1733
I00
sg69
g746
ss(iconstruction
TP_NODE
p4648
(dp4649
g1732
I01
sg69
g725
sg50
VENT_510
p4650
sg1733
I01
sg1734
I00
sg567
I510
sb(dp4651
g1733
I01
sg69
g725
sssg268
g269
sg270
g269
sg271
(dp4652
g4645
(dp4653
sg4648
(dp4654
g4645
(dp4655
g69
g716
ssssg465
g4652
sg80
(dp4656
sg467
g269
sg468
g4652
sg469
(dp4657
g4645
(dp4658
g4648
g4655
ssg4648
(dp4659
ssbsg562
(lp4660
g4648
ag4645
asg835
(lp4661
(iconstruction
TP_REL
p4662
(dp4663
g841
g4645
sg69
g716
sg567
I512
sg842
g4648
sg50
VIS_512
p4664
sbasg567
I507
sg50
g1653
sbsg1748
(iconstruction
TP_SYNFORM
p4665
(dp4666
g567
I508
sg1751
(lp4667
(iconstruction
TP_PHON
p4668
(dp4669
g1761
I8
sg1758
I0
sg567
I513
sg1762
Vwatering
p4670
sg50
VS1_513
p4671
sba(iconstruction
TP_PHON
p4672
(dp4673
g1761
I3
sg1758
I1
sg567
I514
sg1762
Vcan
p4674
sg50
g4636
sbasg50
g1653
sbsg1769
I1
sba(iconstruction
CXN
p4675
(dp4676
g1711
(iconstruction
TP_SYMLINKS
p4677
(dp4678
g1714
(dp4679
VN1_519
p4680
VS1_521
p4681
ssg567
I517
sg50
g1653
sbsg1720
VN
p4682
sg1722
I1
sg50
VBALLERINA
p4683
sg1723
(iconstruction
TP_SEMFRAME
p4684
(dp4685
g80
g0
(g81
g2
Ntp4686
Rp4687
(dp4688
g85
(dp4689
(iconstruction
TP_NODE
p4690
(dp4691
g1732
I00
sg69
g803
sg50
g4680
sg1733
I00
sg1734
I00
sg567
I519
sb(dp4692
g1733
I00
sg69
g803
ss(iconstruction
TP_NODE
p4693
(dp4694
g1732
I01
sg69
g725
sg50
VENT_518
p4695
sg1733
I01
sg1734
I00
sg567
I518
sb(dp4696
g1733
I01
sg69
g725
sssg268
g269
sg270
g269
sg271
(dp4697
g4690
(dp4698
sg4693
(dp4699
g4690
(dp4700
g69
g716
ssssg465
g4697
sg80
(dp4701
sg467
g269
sg468
g4697
sg469
(dp4702
g4690
(dp4703
g4693
g4700
ssg4693
(dp4704
ssbsg562
(lp4705
g4693
ag4690
asg835
(lp4706
(iconstruction
TP_REL
p4707
(dp4708
g841
g4690
sg69
g716
sg567
I520
sg842
g4693
sg50
VIS_520
p4709
sbasg567
I515
sg50
g1653
sbsg1748
(iconstruction
TP_SYNFORM
p4710
(dp4711
g567
I516
sg1751
(lp4712
(iconstruction
TP_PHON
p4713
(dp4714
g1761
I9
sg1758
I0
sg567
I521
sg1762
Vballerina
p4715
sg50
g4681
sbasg50
g1653
sbsg1769
I1
sba(iconstruction
CXN
p4716
(dp4717
g1711
(iconstruction
TP_SYMLINKS
p4718
(dp4719
g1714
(dp4720
VN1_526
p4721
VS1_528
p4722
ssg567
I524
sg50
g1653
sbsg1720
VN
p4723
sg1722
I1
sg50
VCELLIST
p4724
sg1723
(iconstruction
TP_SEMFRAME
p4725
(dp4726
g80
g0
(g81
g2
Ntp4727
Rp4728
(dp4729
g85
(dp4730
(iconstruction
TP_NODE
p4731
(dp4732
g1732
I01
sg69
g725
sg50
VENT_525
p4733
sg1733
I01
sg1734
I00
sg567
I525
sb(dp4734
g1733
I01
sg69
g725
ss(iconstruction
TP_NODE
p4735
(dp4736
g1732
I00
sg69
g806
sg50
g4721
sg1733
I00
sg1734
I00
sg567
I526
sb(dp4737
g1733
I00
sg69
g806
sssg268
g269
sg270
g269
sg271
(dp4738
g4731
(dp4739
g4735
(dp4740
g69
g716
sssg4735
(dp4741
ssg465
g4738
sg80
(dp4742
sg467
g269
sg468
g4738
sg469
(dp4743
g4731
(dp4744
sg4735
(dp4745
g4731
g4740
sssbsg562
(lp4746
g4731
ag4735
asg835
(lp4747
(iconstruction
TP_REL
p4748
(dp4749
g841
g4735
sg69
g716
sg567
I527
sg842
g4731
sg50
VIS_527
p4750
sbasg567
I522
sg50
g1653
sbsg1748
(iconstruction
TP_SYNFORM
p4751
(dp4752
g567
I523
sg1751
(lp4753
(iconstruction
TP_PHON
p4754
(dp4755
g1761
I7
sg1758
I0
sg567
I528
sg1762
Vcellist
p4756
sg50
g4722
sbasg50
g1653
sbsg1769
I1
sba(iconstruction
CXN
p4757
(dp4758
g1711
(iconstruction
TP_SYMLINKS
p4759
(dp4760
g1714
(dp4761
VN1_533
p4762
VS1_535
p4763
ssg567
I531
sg50
g1653
sbsg1720
VN
p4764
sg1722
I1
sg50
VFENCER
p4765
sg1723
(iconstruction
TP_SEMFRAME
p4766
(dp4767
g80
g0
(g81
g2
Ntp4768
Rp4769
(dp4770
g85
(dp4771
(iconstruction
TP_NODE
p4772
(dp4773
g1732
I00
sg69
g812
sg50
g4762
sg1733
I00
sg1734
I00
sg567
I533
sb(dp4774
g1733
I00
sg69
g812
ss(iconstruction
TP_NODE
p4775
(dp4776
g1732
I01
sg69
g725
sg50
VENT_532
p4777
sg1733
I01
sg1734
I00
sg567
I532
sb(dp4778
g1733
I01
sg69
g725
sssg268
g269
sg270
g269
sg271
(dp4779
g4772
(dp4780
sg4775
(dp4781
g4772
(dp4782
g69
g716
ssssg465
g4779
sg80
(dp4783
sg467
g269
sg468
g4779
sg469
(dp4784
g4772
(dp4785
g4775
g4782
ssg4775
(dp4786
ssbsg562
(lp4787
g4775
ag4772
asg835
(lp4788
(iconstruction
TP_REL
p4789
(dp4790
g841
g4772
sg69
g716
sg567
I534
sg842
g4775
sg50
VIS_534
p4791
sbasg567
I529
sg50
g1653
sbsg1748
(iconstruction
TP_SYNFORM
p4792
(dp4793
g567
I530
sg1751
(lp4794
(iconstruction
TP_PHON
p4795
(dp4796
g1761
I6
sg1758
I0
sg567
I535
sg1762
Vfencer
p4797
sg50
g4763
sbasg50
g1653
sbsg1769
I1
sba(iconstruction
CXN
p4798
(dp4799
g1711
(iconstruction
TP_SYMLINKS
p4800
(dp4801
g1714
(dp4802
VN1_540
p4803
VS1_542
p4804
ssg567
I538
sg50
g1653
sbsg1720
VN
p4805
sg1722
I1
sg50
VROBBER
p4806
sg1723
(iconstruction
TP_SEMFRAME
p4807
(dp4808
g80
g0
(g81
g2
Ntp4809
Rp4810
(dp4811
g85
(dp4812
(iconstruction
TP_NODE
p4813
(dp4814
g1732
I00
sg69
g815
sg50
g4803
sg1733
I00
sg1734
I00
sg567
I540
sb(dp4815
g1733
I00
sg69
g815
ss(iconstruction
TP_NODE
p4816
(dp4817
g1732
I01
sg69
g725
sg50
VENT_539
p4818
sg1733
I01
sg1734
I00
sg567
I539
sb(dp4819
g1733
I01
sg69
g725
sssg268
g269
sg270
g269
sg271
(dp4820
g4813
(dp4821
sg4816
(dp4822
g4813
(dp4823
g69
g716
ssssg465
g4820
sg80
(dp4824
sg467
g269
sg468
g4820
sg469
(dp4825
g4813
(dp4826
g4816
g4823
ssg4816
(dp4827
ssbsg562
(lp4828
g4816
ag4813
asg835
(lp4829
(iconstruction
TP_REL
p4830
(dp4831
g841
g4813
sg69
g716
sg567
I541
sg842
g4816
sg50
VIS_541
p4832
sbasg567
I536
sg50
g1653
sbsg1748
(iconstruction
TP_SYNFORM
p4833
(dp4834
g567
I537
sg1751
(lp4835
(iconstruction
TP_PHON
p4836
(dp4837
g1761
I5
sg1758
I0
sg567
I542
sg1762
Vthief
p4838
sg50
g4804
sbasg50
g1653
sbsg1769
I1
sba(iconstruction
CXN
p4839
(dp4840
g1711
(iconstruction
TP_SYMLINKS
p4841
(dp4842
g1714
(dp4843
VN1_547
p4844
VS1_549
p4845
ssg567
I545
sg50
g1653
sbsg1720
VN
p4846
sg1722
I1
sg50
VPOLICEMAN
p4847
sg1723
(iconstruction
TP_SEMFRAME
p4848
(dp4849
g80
g0
(g81
g2
Ntp4850
Rp4851
(dp4852
g85
(dp4853
(iconstruction
TP_NODE
p4854
(dp4855
g1732
I01
sg69
g725
sg50
VENT_546
p4856
sg1733
I01
sg1734
I00
sg567
I546
sb(dp4857
g1733
I01
sg69
g725
ss(iconstruction
TP_NODE
p4858
(dp4859
g1732
I00
sg69
g797
sg50
g4844
sg1733
I00
sg1734
I00
sg567
I547
sb(dp4860
g1733
I00
sg69
g797
sssg268
g269
sg270
g269
sg271
(dp4861
g4854
(dp4862
g4858
(dp4863
g69
g716
sssg4858
(dp4864
ssg465
g4861
sg80
(dp4865
sg467
g269
sg468
g4861
sg469
(dp4866
g4854
(dp4867
sg4858
(dp4868
g4854
g4863
sssbsg562
(lp4869
g4854
ag4858
asg835
(lp4870
(iconstruction
TP_REL
p4871
(dp4872
g841
g4858
sg69
g716
sg567
I548
sg842
g4854
sg50
VIS_548
p4873
sbasg567
I543
sg50
g1653
sbsg1748
(iconstruction
TP_SYNFORM
p4874
(dp4875
g567
I544
sg1751
(lp4876
(iconstruction
TP_PHON
p4877
(dp4878
g1761
I9
sg1758
I0
sg567
I549
sg1762
Vpoliceman
p4879
sg50
g4845
sbasg50
g1653
sbsg1769
I1
sba(iconstruction
CXN
p4880
(dp4881
g1711
(iconstruction
TP_SYMLINKS
p4882
(dp4883
g1714
(dp4884
VN1_554
p4885
VS1_556
p4886
ssg567
I552
sg50
g1653
sbsg1720
VN
p4887
sg1722
I1
sg50
VHUNTER
p4888
sg1723
(iconstruction
TP_SEMFRAME
p4889
(dp4890
g80
g0
(g81
g2
Ntp4891
Rp4892
(dp4893
g85
(dp4894
(iconstruction
TP_NODE
p4895
(dp4896
g1732
I00
sg69
g800
sg50
g4885
sg1733
I00
sg1734
I00
sg567
I554
sb(dp4897
g1733
I00
sg69
g800
ss(iconstruction
TP_NODE
p4898
(dp4899
g1732
I01
sg69
g725
sg50
VENT_553
p4900
sg1733
I01
sg1734
I00
sg567
I553
sb(dp4901
g1733
I01
sg69
g725
sssg268
g269
sg270
g269
sg271
(dp4902
g4895
(dp4903
sg4898
(dp4904
g4895
(dp4905
g69
g716
ssssg465
g4902
sg80
(dp4906
sg467
g269
sg468
g4902
sg469
(dp4907
g4895
(dp4908
g4898
g4905
ssg4898
(dp4909
ssbsg562
(lp4910
g4898
ag4895
asg835
(lp4911
(iconstruction
TP_REL
p4912
(dp4913
g841
g4895
sg69
g716
sg567
I555
sg842
g4898
sg50
VIS_555
p4914
sbasg567
I550
sg50
g1653
sbsg1748
(iconstruction
TP_SYNFORM
p4915
(dp4916
g567
I551
sg1751
(lp4917
(iconstruction
TP_PHON
p4918
(dp4919
g1761
I6
sg1758
I0
sg567
I556
sg1762
Vhunter
p4920
sg50
g4886
sbasg50
g1653
sbsg1769
I1
sba(iconstruction
CXN
p4921
(dp4922
g1711
(iconstruction
TP_SYMLINKS
p4923
(dp4924
g1714
(dp4925
VN1_561
p4926
VS1_563
p4927
ssg567
I559
sg50
g1653
sbsg1720
VN
p4928
sg1722
I1
sg50
VDOG
p4929
sg1723
(iconstruction
TP_SEMFRAME
p4930
(dp4931
g80
g0
(g81
g2
Ntp4932
Rp4933
(dp4934
g85
(dp4935
(iconstruction
TP_NODE
p4936
(dp4937
g1732
I01
sg69
g725
sg50
VENT_560
p4938
sg1733
I01
sg1734
I00
sg567
I560
sb(dp4939
g1733
I01
sg69
g725
ss(iconstruction
TP_NODE
p4940
(dp4941
g1732
I00
sg69
g785
sg50
g4926
sg1733
I00
sg1734
I00
sg567
I561
sb(dp4942
g1733
I00
sg69
g785
sssg268
g269
sg270
g269
sg271
(dp4943
g4936
(dp4944
g4940
(dp4945
g69
g716
sssg4940
(dp4946
ssg465
g4943
sg80
(dp4947
sg467
g269
sg468
g4943
sg469
(dp4948
g4936
(dp4949
sg4940
(dp4950
g4936
g4945
sssbsg562
(lp4951
g4936
ag4940
asg835
(lp4952
(iconstruction
TP_REL
p4953
(dp4954
g841
g4940
sg69
g716
sg567
I562
sg842
g4936
sg50
VIS_562
p4955
sbasg567
I557
sg50
g1653
sbsg1748
(iconstruction
TP_SYNFORM
p4956
(dp4957
g567
I558
sg1751
(lp4958
(iconstruction
TP_PHON
p4959
(dp4960
g1761
I3
sg1758
I0
sg567
I563
sg1762
Vdog
p4961
sg50
g4927
sbasg50
g1653
sbsg1769
I1
sba(iconstruction
CXN
p4962
(dp4963
g1711
(iconstruction
TP_SYMLINKS
p4964
(dp4965
g1714
(dp4966
VN1_568
p4967
VS1_570
p4968
ssg567
I566
sg50
g1653
sbsg1720
VN
p4969
sg1722
I1
sg50
VHOOK
p4970
sg1723
(iconstruction
TP_SEMFRAME
p4971
(dp4972
g80
g0
(g81
g2
Ntp4973
Rp4974
(dp4975
g85
(dp4976
(iconstruction
TP_NODE
p4977
(dp4978
g1732
I00
sg69
g755
sg50
g4967
sg1733
I00
sg1734
I00
sg567
I568
sb(dp4979
g1733
I00
sg69
g755
ss(iconstruction
TP_NODE
p4980
(dp4981
g1732
I01
sg69
g725
sg50
VENT_567
p4982
sg1733
I01
sg1734
I00
sg567
I567
sb(dp4983
g1733
I01
sg69
g725
sssg268
g269
sg270
g269
sg271
(dp4984
g4977
(dp4985
sg4980
(dp4986
g4977
(dp4987
g69
g716
ssssg465
g4984
sg80
(dp4988
sg467
g269
sg468
g4984
sg469
(dp4989
g4977
(dp4990
g4980
g4987
ssg4980
(dp4991
ssbsg562
(lp4992
g4980
ag4977
asg835
(lp4993
(iconstruction
TP_REL
p4994
(dp4995
g841
g4977
sg69
g716
sg567
I569
sg842
g4980
sg50
VIS_569
p4996
sbasg567
I564
sg50
g1653
sbsg1748
(iconstruction
TP_SYNFORM
p4997
(dp4998
g567
I565
sg1751
(lp4999
(iconstruction
TP_PHON
p5000
(dp5001
g1761
I4
sg1758
I0
sg567
I570
sg1762
Vhook
p5002
sg50
g4968
sbasg50
g1653
sbsg1769
I1
sba(iconstruction
CXN
p5003
(dp5004
g1711
(iconstruction
TP_SYMLINKS
p5005
(dp5006
g1714
(dp5007
VN1_575
p5008
VS1_577
p5009
ssg567
I573
sg50
g1653
sbsg1720
VN
p5010
sg1722
I1
sg50
VBOOKSHELF
p5011
sg1723
(iconstruction
TP_SEMFRAME
p5012
(dp5013
g80
g0
(g81
g2
Ntp5014
Rp5015
(dp5016
g85
(dp5017
(iconstruction
TP_NODE
p5018
(dp5019
g1732
I00
sg69
g761
sg50
g5008
sg1733
I00
sg1734
I00
sg567
I575
sb(dp5020
g1733
I00
sg69
g761
ss(iconstruction
TP_NODE
p5021
(dp5022
g1732
I01
sg69
g725
sg50
VENT_574
p5023
sg1733
I01
sg1734
I00
sg567
I574
sb(dp5024
g1733
I01
sg69
g725
sssg268
g269
sg270
g269
sg271
(dp5025
g5018
(dp5026
sg5021
(dp5027
g5018
(dp5028
g69
g716
ssssg465
g5025
sg80
(dp5029
sg467
g269
sg468
g5025
sg469
(dp5030
g5018
(dp5031
g5021
g5028
ssg5021
(dp5032
ssbsg562
(lp5033
g5021
ag5018
asg835
(lp5034
(iconstruction
TP_REL
p5035
(dp5036
g841
g5018
sg69
g716
sg567
I576
sg842
g5021
sg50
VIS_576
p5037
sbasg567
I571
sg50
g1653
sbsg1748
(iconstruction
TP_SYNFORM
p5038
(dp5039
g567
I572
sg1751
(lp5040
(iconstruction
TP_PHON
p5041
(dp5042
g1761
I9
sg1758
I0
sg567
I577
sg1762
Vbookshelf
p5043
sg50
g5009
sbasg50
g1653
sbsg1769
I1
sba(iconstruction
CXN
p5044
(dp5045
g1711
(iconstruction
TP_SYMLINKS
p5046
(dp5047
g1714
(dp5048
VN1_582
p5049
VS1_584
p5050
ssg567
I580
sg50
g1653
sbsg1720
VN
p5051
sg1722
I1
sg50
VWAGON
p5052
sg1723
(iconstruction
TP_SEMFRAME
p5053
(dp5054
g80
g0
(g81
g2
Ntp5055
Rp5056
(dp5057
g85
(dp5058
(iconstruction
TP_NODE
p5059
(dp5060
g1732
I01
sg69
g725
sg50
VENT_581
p5061
sg1733
I01
sg1734
I00
sg567
I581
sb(dp5062
g1733
I01
sg69
g725
ss(iconstruction
TP_NODE
p5063
(dp5064
g1732
I00
sg69
g743
sg50
g5049
sg1733
I00
sg1734
I00
sg567
I582
sb(dp5065
g1733
I00
sg69
g743
sssg268
g269
sg270
g269
sg271
(dp5066
g5059
(dp5067
g5063
(dp5068
g69
g716
sssg5063
(dp5069
ssg465
g5066
sg80
(dp5070
sg467
g269
sg468
g5066
sg469
(dp5071
g5059
(dp5072
sg5063
(dp5073
g5059
g5068
sssbsg562
(lp5074
g5059
ag5063
asg835
(lp5075
(iconstruction
TP_REL
p5076
(dp5077
g841
g5063
sg69
g716
sg567
I583
sg842
g5059
sg50
VIS_583
p5078
sbasg567
I578
sg50
g1653
sbsg1748
(iconstruction
TP_SYNFORM
p5079
(dp5080
g567
I579
sg1751
(lp5081
(iconstruction
TP_PHON
p5082
(dp5083
g1761
I5
sg1758
I0
sg567
I584
sg1762
Vwagon
p5084
sg50
g5050
sbasg50
g1653
sbsg1769
I1
sba(iconstruction
CXN
p5085
(dp5086
g1711
(iconstruction
TP_SYMLINKS
p5087
(dp5088
g1714
(dp5089
VN1_589
p5090
VS1_591
p5091
ssg567
I587
sg50
g1653
sbsg1720
VN
p5092
sg1722
I1
sg50
VTREE
p5093
sg1723
(iconstruction
TP_SEMFRAME
p5094
(dp5095
g80
g0
(g81
g2
Ntp5096
Rp5097
(dp5098
g85
(dp5099
(iconstruction
TP_NODE
p5100
(dp5101
g1732
I00
sg69
g752
sg50
g5090
sg1733
I00
sg1734
I00
sg567
I589
sb(dp5102
g1733
I00
sg69
g752
ss(iconstruction
TP_NODE
p5103
(dp5104
g1732
I01
sg69
g725
sg50
VENT_588
p5105
sg1733
I01
sg1734
I00
sg567
I588
sb(dp5106
g1733
I01
sg69
g725
sssg268
g269
sg270
g269
sg271
(dp5107
g5100
(dp5108
sg5103
(dp5109
g5100
(dp5110
g69
g716
ssssg465
g5107
sg80
(dp5111
sg467
g269
sg468
g5107
sg469
(dp5112
g5100
(dp5113
g5103
g5110
ssg5103
(dp5114
ssbsg562
(lp5115
g5103
ag5100
asg835
(lp5116
(iconstruction
TP_REL
p5117
(dp5118
g841
g5100
sg69
g716
sg567
I590
sg842
g5103
sg50
VIS_590
p5119
sbasg567
I585
sg50
g1653
sbsg1748
(iconstruction
TP_SYNFORM
p5120
(dp5121
g567
I586
sg1751
(lp5122
(iconstruction
TP_PHON
p5123
(dp5124
g1761
I4
sg1758
I0
sg567
I591
sg1762
Vtree
p5125
sg50
g5091
sbasg50
g1653
sbsg1769
I1
sbasbsg50
g1666
sg52
(lp5126
g0
(g54
g2
Ntp5127
Rp5128
(dp5129
g1556
Nsg50
g1562
sg59
Nsg60
Nsg1558
Nsg277
g1501
sg567
I20
sg1502
g1772
sbag0
(g54
g2
Ntp5130
Rp5131
(dp5132
g50
S'to_cxn_retrieval_C'
p5133
sg59
Nsg60
g1703
sg277
g1501
sg567
I21
sg1502
g1772
sbasg1507
(dp5134
g1562
Nsg5133
Nssg1509
(lp5135
sg1512
F1.0
sg1513
(lp5136
sg1515
(dp5137
g1140
F0.3
ssg1517
I0
sg1518
I0
sg1138
g1521
sg567
I4
sS'schemas'
p5138
g1703
sbsg1140
F0.3
sbag0
(g1704
g2
Ntp5139
Rp5140
(dp5141
g50
g1790
sg67
g1780
sg1138
Nsg567
I100
sg1139
g1772
sg1140
F0.3
sbag0
(g1704
g2
Ntp5142
Rp5143
(dp5144
g50
g1841
sg67
g1831
sg1138
Nsg567
I101
sg1139
g1772
sg1140
F0.3
sbag0
(g1704
g2
Ntp5145
Rp5146
(dp5147
g50
g1894
sg67
g1882
sg1138
Nsg567
I102
sg1139
g1772
sg1140
F0.3
sbag0
(g1704
g2
Ntp5148
Rp5149
(dp5150
g50
g1973
sg67
g1961
sg1138
Nsg567
I103
sg1139
g1772
sg1140
F0.3
sbag0
(g1704
g2
Ntp5151
Rp5152
(dp5153
g50
g2048
sg67
g2036
sg1138
Nsg567
I104
sg1139
g1772
sg1140
F0.3
sbag0
(g1704
g2
Ntp5154
Rp5155
(dp5156
g50
g2137
sg67
g2123
sg1138
Nsg567
I105
sg1139
g1772
sg1140
F0.3
sbag0
(g1704
g2
Ntp5157
Rp5158
(dp5159
g50
g2228
sg67
g2214
sg1138
Nsg567
I106
sg1139
g1772
sg1140
F0.3
sbag0
(g1704
g2
Ntp5160
Rp5161
(dp5162
g50
g2319
sg67
g2309
sg1138
Nsg567
I107
sg1139
g1772
sg1140
F0.3
sbag0
(g1704
g2
Ntp5163
Rp5164
(dp5165
g50
g2381
sg67
g2371
sg1138
Nsg567
I108
sg1139
g1772
sg1140
F0.3
sbag0
(g1704
g2
Ntp5166
Rp5167
(dp5168
g50
g2440
sg67
g2430
sg1138
Nsg567
I109
sg1139
g1772
sg1140
F0.3
sbag0
(g1704
g2
Ntp5169
Rp5170
(dp5171
g50
g2492
sg67
g2482
sg1138
Nsg567
I110
sg1139
g1772
sg1140
F0.3
sbag0
(g1704
g2
Ntp5172
Rp5173
(dp5174
g50
g2539
sg67
g2529
sg1138
Nsg567
I111
sg1139
g1772
sg1140
F0.3
sbag0
(g1704
g2
Ntp5175
Rp5176
(dp5177
g50
g2588
sg67
g2576
sg1138
Nsg567
I112
sg1139
g1772
sg1140
F0.3
sbag0
(g1704
g2
Ntp5178
Rp5179
(dp5180
g50
g2668
sg67
g2658
sg1138
Nsg567
I113
sg1139
g1772
sg1140
F0.3
sbag0
(g1704
g2
Ntp5181
Rp5182
(dp5183
g50
g2736
sg67
g2724
sg1138
Nsg567
I114
sg1139
g1772
sg1140
F0.3
sbag0
(g1704
g2
Ntp5184
Rp5185
(dp5186
g50
g2830
sg67
g2818
sg1138
Nsg567
I115
sg1139
g1772
sg1140
F0.3
sbag0
(g1704
g2
Ntp5187
Rp5188
(dp5189
g50
g2912
sg67
g2900
sg1138
Nsg567
I116
sg1139
g1772
sg1140
F0.3
sbag0
(g1704
g2
Ntp5190
Rp5191
(dp5192
g50
g3004
sg67
g2994
sg1138
Nsg567
I117
sg1139
g1772
sg1140
F0.3
sbag0
(g1704
g2
Ntp5193
Rp5194
(dp5195
g50
g3069
sg67
g3059
sg1138
Nsg567
I118
sg1139
g1772
sg1140
F0.3
sbag0
(g1704
g2
Ntp5196
Rp5197
(dp5198
g50
g3148
sg67
g3140
sg1138
Nsg567
I119
sg1139
g1772
sg1140
F0.3
sbag0
(g1704
g2
Ntp5199
Rp5200
(dp5201
g50
g3189
sg67
g3181
sg1138
Nsg567
I120
sg1139
g1772
sg1140
F0.3
sbag0
(g1704
g2
Ntp5202
Rp5203
(dp5204
g50
g3230
sg67
g3222
sg1138
Nsg567
I121
sg1139
g1772
sg1140
F0.3
sbag0
(g1704
g2
Ntp5205
Rp5206
(dp5207
g50
g3271
sg67
g3263
sg1138
Nsg567
I122
sg1139
g1772
sg1140
F0.3
sbag0
(g1704
g2
Ntp5208
Rp5209
(dp5210
g50
g3312
sg67
g3304
sg1138
Nsg567
I123
sg1139
g1772
sg1140
F0.3
sbag0
(g1704
g2
Ntp5211
Rp5212
(dp5213
g50
g3353
sg67
g3345
sg1138
Nsg567
I124
sg1139
g1772
sg1140
F0.3
sbag0
(g1704
g2
Ntp5214
Rp5215
(dp5216
g50
g3394
sg67
g3386
sg1138
Nsg567
I125
sg1139
g1772
sg1140
F0.3
sbag0
(g1704
g2
Ntp5217
Rp5218
(dp5219
g50
g3439
sg67
g3431
sg1138
Nsg567
I126
sg1139
g1772
sg1140
F0.3
sbag0
(g1704
g2
Ntp5220
Rp5221
(dp5222
g50
g3484
sg67
g3476
sg1138
Nsg567
I127
sg1139
g1772
sg1140
F0.3
sbag0
(g1704
g2
Ntp5223
Rp5224
(dp5225
g50
g3525
sg67
g3517
sg1138
Nsg567
I128
sg1139
g1772
sg1140
F0.3
sbag0
(g1704
g2
Ntp5226
Rp5227
(dp5228
g50
g3566
sg67
g3558
sg1138
Nsg567
I129
sg1139
g1772
sg1140
F0.3
sbag0
(g1704
g2
Ntp5229
Rp5230
(dp5231
g50
g3607
sg67
g3599
sg1138
Nsg567
I130
sg1139
g1772
sg1140
F0.3
sbag0
(g1704
g2
Ntp5232
Rp5233
(dp5234
g50
g3648
sg67
g3640
sg1138
Nsg567
I131
sg1139
g1772
sg1140
F0.3
sbag0
(g1704
g2
Ntp5235
Rp5236
(dp5237
g50
g3689
sg67
g3681
sg1138
Nsg567
I132
sg1139
g1772
sg1140
F0.3
sbag0
(g1704
g2
Ntp5238
Rp5239
(dp5240
g50
g3730
sg67
g3722
sg1138
Nsg567
I133
sg1139
g1772
sg1140
F0.3
sbag0
(g1704
g2
Ntp5241
Rp5242
(dp5243
g50
g3761
sg67
g3753
sg1138
Nsg567
I134
sg1139
g1772
sg1140
F0.3
sbag0
(g1704
g2
Ntp5244
Rp5245
(dp5246
g50
g3792
sg67
g3784
sg1138
Nsg567
I135
sg1139
g1772
sg1140
F0.3
sbag0
(g1704
g2
Ntp5247
Rp5248
(dp5249
g50
g3823
sg67
g3815
sg1138
Nsg567
I136
sg1139
g1772
sg1140
F0.3
sbag0
(g1704
g2
Ntp5250
Rp5251
(dp5252
g50
g3854
sg67
g3846
sg1138
Nsg567
I137
sg1139
g1772
sg1140
F0.3
sbag0
(g1704
g2
Ntp5253
Rp5254
(dp5255
g50
g3885
sg67
g3877
sg1138
Nsg567
I138
sg1139
g1772
sg1140
F0.3
sbag0
(g1704
g2
Ntp5256
Rp5257
(dp5258
g50
g3916
sg67
g3908
sg1138
Nsg567
I139
sg1139
g1772
sg1140
F0.3
sbag0
(g1704
g2
Ntp5259
Rp5260
(dp5261
g50
g3947
sg67
g3939
sg1138
Nsg567
I140
sg1139
g1772
sg1140
F0.3
sbag0
(g1704
g2
Ntp5262
Rp5263
(dp5264
g50
g3978
sg67
g3970
sg1138
Nsg567
I141
sg1139
g1772
sg1140
F0.3
sbag0
(g1704
g2
Ntp5265
Rp5266
(dp5267
g50
g4019
sg67
g4011
sg1138
Nsg567
I142
sg1139
g1772
sg1140
F0.3
sbag0
(g1704
g2
Ntp5268
Rp5269
(dp5270
g50
g4060
sg67
g4052
sg1138
Nsg567
I143
sg1139
g1772
sg1140
F0.3
sbag0
(g1704
g2
Ntp5271
Rp5272
(dp5273
g50
g4101
sg67
g4093
sg1138
Nsg567
I144
sg1139
g1772
sg1140
F0.3
sbag0
(g1704
g2
Ntp5274
Rp5275
(dp5276
g50
g4142
sg67
g4134
sg1138
Nsg567
I145
sg1139
g1772
sg1140
F0.3
sbag0
(g1704
g2
Ntp5277
Rp5278
(dp5279
g50
g4183
sg67
g4175
sg1138
Nsg567
I146
sg1139
g1772
sg1140
F0.3
sbag0
(g1704
g2
Ntp5280
Rp5281
(dp5282
g50
g4224
sg67
g4216
sg1138
Nsg567
I147
sg1139
g1772
sg1140
F0.3
sbag0
(g1704
g2
Ntp5283
Rp5284
(dp5285
g50
g4265
sg67
g4257
sg1138
Nsg567
I148
sg1139
g1772
sg1140
F0.3
sbag0
(g1704
g2
Ntp5286
Rp5287
(dp5288
g50
g4306
sg67
g4298
sg1138
Nsg567
I149
sg1139
g1772
sg1140
F0.3
sbag0
(g1704
g2
Ntp5289
Rp5290
(dp5291
g50
g4347
sg67
g4339
sg1138
Nsg567
I150
sg1139
g1772
sg1140
F0.3
sbag0
(g1704
g2
Ntp5292
Rp5293
(dp5294
g50
g4388
sg67
g4380
sg1138
Nsg567
I151
sg1139
g1772
sg1140
F0.3
sbag0
(g1704
g2
Ntp5295
Rp5296
(dp5297
g50
g4433
sg67
g4425
sg1138
Nsg567
I152
sg1139
g1772
sg1140
F0.3
sbag0
(g1704
g2
Ntp5298
Rp5299
(dp5300
g50
g4474
sg67
g4466
sg1138
Nsg567
I153
sg1139
g1772
sg1140
F0.3
sbag0
(g1704
g2
Ntp5301
Rp5302
(dp5303
g50
g4515
sg67
g4507
sg1138
Nsg567
I154
sg1139
g1772
sg1140
F0.3
sbag0
(g1704
g2
Ntp5304
Rp5305
(dp5306
g50
g4556
sg67
g4548
sg1138
Nsg567
I155
sg1139
g1772
sg1140
F0.3
sbag0
(g1704
g2
Ntp5307
Rp5308
(dp5309
g50
g4597
sg67
g4589
sg1138
Nsg567
I156
sg1139
g1772
sg1140
F0.3
sbag0
(g1704
g2
Ntp5310
Rp5311
(dp5312
g50
g4638
sg67
g4630
sg1138
Nsg567
I157
sg1139
g1772
sg1140
F0.3
sbag0
(g1704
g2
Ntp5313
Rp5314
(dp5315
g50
g4683
sg67
g4675
sg1138
Nsg567
I158
sg1139
g1772
sg1140
F0.3
sbag0
(g1704
g2
Ntp5316
Rp5317
(dp5318
g50
g4724
sg67
g4716
sg1138
Nsg567
I159
sg1139
g1772
sg1140
F0.3
sbag0
(g1704
g2
Ntp5319
Rp5320
(dp5321
g50
g4765
sg67
g4757
sg1138
Nsg567
I160
sg1139
g1772
sg1140
F0.3
sbag0
(g1704
g2
Ntp5322
Rp5323
(dp5324
g50
g4806
sg67
g4798
sg1138
Nsg567
I161
sg1139
g1772
sg1140
F0.3
sbag0
(g1704
g2
Ntp5325
Rp5326
(dp5327
g50
g4847
sg67
g4839
sg1138
Nsg567
I162
sg1139
g1772
sg1140
F0.3
sbag0
(g1704
g2
Ntp5328
Rp5329
(dp5330
g50
g4888
sg67
g4880
sg1138
Nsg567
I163
sg1139
g1772
sg1140
F0.3
sbag0
(g1704
g2
Ntp5331
Rp5332
(dp5333
g50
g4929
sg67
g4921
sg1138
Nsg567
I164
sg1139
g1772
sg1140
F0.3
sbag0
(g1704
g2
Ntp5334
Rp5335
(dp5336
g50
g4970
sg67
g4962
sg1138
Nsg567
I165
sg1139
g1772
sg1140
F0.3
sbag0
(g1704
g2
Ntp5337
Rp5338
(dp5339
g50
g5011
sg67
g5003
sg1138
Nsg567
I166
sg1139
g1772
sg1140
F0.3
sbag0
(g1704
g2
Ntp5340
Rp5341
(dp5342
g50
g5052
sg67
g5044
sg1138
Nsg567
I167
sg1139
g1772
sg1140
F0.3
sbag0
(g1704
g2
Ntp5343
Rp5344
(dp5345
g50
g5093
sg67
g5085
sg1138
Nsg567
I168
sg1139
g1772
sg1140
F0.3
sbasg1558
Nsg277
g1537
sg567
I22
sg1502
g1688
sbag1683
asg1515
(dp5346
sg1517
I0
sg1518
I0
sg1138
g1521
sg567
I5
sbsbsS'port_from'
p5347
g1560
sg1138
g1521
sg567
I1
sbag0
(g1675
g2
Ntp5348
Rp5349
(dp5350
g1679
I0
sg50
g1653
sg1680
I0
sg1681
g1701
sg5347
g5128
sg1138
g1521
sg567
I2
sbag0
(g1675
g2
Ntp5351
Rp5352
(dp5353
g1679
I0
sg50
g1653
sg1680
I0
sg1681
g0
(g54
g2
Ntp5354
Rp5355
(dp5356
g1556
Nsg50
S'from_cxn_retrieval_P'
p5357
sg59
Nsg60
Nsg1558
Nsg277
g1537
sg567
I14
sg1502
g0
(clanguage_schemas
GRAMMATICAL_WM_P
p5358
g2
Ntp5359
Rp5360
(dp5361
g48
(dp5362
g5357
NsS'from_phonological_WM_P'
p5363
Nsg1685
Nsg1545
Nssg1547
(lp5364
sg50
g1662
sg1550
(lp5365
sg52
(lp5366
g0
(g54
g2
Ntp5367
Rp5368
(dp5369
g1556
Nsg50
g1506
sg59
Nsg60
Nsg1558
Nsg277
g1501
sg567
I17
sg1502
g5360
sbag0
(g54
g2
Ntp5370
Rp5371
(dp5372
g1556
Nsg50
S'to_phonological_WM_P'
p5373
sg59
Nsg60
Nsg1558
Nsg277
g1501
sg567
I18
sg1502
g5360
sbag0
(g54
g2
Ntp5374
Rp5375
(dp5376
g50
g1574
sg59
Nsg60
Nsg277
g1501
sg567
I19
sg1502
g5360
sbasg1507
(dp5377
g1574
Nsg5373
Nsg1506
Nssg1512
F1.0
sg1576
(lp5378
sg1513
(lp5379
g0
(g54
g2
Ntp5380
Rp5381
(dp5382
g1556
Nsg50
g1685
sg59
Nsg60
(dp5383
g562
(dp5384
VENTITY_1509438
p5385
cnumpy.core.multiarray
scalar
p5386
(cnumpy
dtype
p5387
(S'f8'
p5388
I0
I1
tp5389
Rp5390
(I3
S'<'
p5391
NNNI-1
I-1
I0
tp5392
bS'\x9e\xac\xc4\xf6\x12\xaa\xeb?'
p5393
tp5394
Rp5395
sVMAN_1509439
p5396
g5386
(g5390
S'+\xfdc\xe5\x96\x97\xeb?'
p5397
tp5398
Rp5399
sVPUNCH_1509448
p5400
g5386
(g5390
S'6B\xe0\xa0\xfb\xe2\xeb?'
p5401
tp5402
Rp5403
sVYOUNG_1509457
p5404
g5386
(g5390
S'\xa3\xab\xe6\x1f\x8f\x05\xec?'
p5405
tp5406
Rp5407
sVWOMAN_1509443
p5408
g5386
(g5390
S'N=\x07?\x19\xdf\xeb?'
p5409
tp5410
Rp5411
sVENTITY_1509442
p5412
g5386
(g5390
S'\xe5|v\x1a\x08\xf3\xeb?'
p5413
tp5414
Rp5415
sVACTION_1509446
p5416
g5386
(g5390
S'\x9fb\xfaD>\xd7\xeb?'
p5417
tp5418
Rp5419
sVEVENT_1509445
p5420
g5386
(g5390
S'\xd2\x18\xcf\xbd\xe2\xe9\xeb?'
p5421
tp5422
Rp5423
ssg835
(dp5424
(g5412
g5408
tp5425
g5386
(g5390
S'\x8e\xd5\xaf2\xbb\xb9\xeb?'
p5426
tp5427
Rp5428
s(g5420
g5416
tp5429
g5386
(g5390
S'\x1c\xdc\x00\xd48\xce\xeb?'
p5430
tp5431
Rp5432
s(g5416
g5385
tp5433
g5386
(g5390
S'\xc8g\xbc\xc8\xd1\xd1\xeb?'
p5434
tp5435
Rp5436
s(g5416
g5400
tp5437
g5386
(g5390
S'k\xf6\xe6\x1c\xf8\xda\xeb?'
p5438
tp5439
Rp5440
s(g5416
g5412
tp5441
g5386
(g5390
S'IR\x9e2W\xe2\xeb?'
p5442
tp5443
Rp5444
s(g5385
g5396
tp5445
g5386
(g5390
S'\xed\x947\xcf\xf8\xa1\xeb?'
p5446
tp5447
Rp5448
s(g5412
g5404
tp5449
g5386
(g5390
S'\x88\xe7\x8d\xc9B\x08\xec?'
p5450
tp5451
Rp5452
sssg1558
Nsg277
g1537
sg567
I13
sg1502
g5360
sbag5355
ag0
(g54
g2
Ntp5453
Rp5454
(dp5455
g1556
Nsg50
g1545
sg59
Nsg60
(dp5456
S'params_style'
p5457
(dp5458
S'continuity'
p5459
F0.1
sS'form_length'
p5460
F0.0
sS'sem_length'
p5461
F0.5
sS'activation'
p5462
F0.7
ssS'pressure'
p5463
g5386
(g5390
S'+\x87\x16\xd9\xce\xf7\xef?'
p5464
tp5465
Rp5466
sg1591
I01
ssg1558
Nsg277
g1537
sg567
I15
sg1502
g5360
sbag0
(g54
g2
Ntp5467
Rp5468
(dp5469
g1556
Nsg50
g5363
sg59
Nsg60
(lp5470
sg1558
Nsg277
g1537
sg567
I16
sg1502
g5360
sbasg1592
(dp5471
g1594
(dp5472
sg1596
(dp5473
g1598
(lp5474
sg1600
(dp5475
g1602
(lp5476
sg1604
(lp5477
sg1606
(lp5478
ssg1608
(lp5479
sg1517
(lp5480
sg1611
(lp5481
sssg1515
(dp5482
g1614
(dp5483
g1616
F1.0
sS'deact_weight'
p5484
F0.0
sg1617
F-10.0
sg1618
F1.0
sg1619
F1.0
sg1620
F1.0
sS'sub_threshold_r'
p5485
F0.8
sg1621
F0.3
sg1622
F0.0
sg1623
F0.01
ssg1624
(dp5486
g1626
g5386
(g5390
S'\x00\x00\x00\x00\x00@\x8f@'
p5487
tp5488
Rp5489
sg1627
g5386
(g5390
S'\x00\x00\x00\x00\x00\x00$@'
p5490
tp5491
Rp5492
sg1628
F0.001
sg1629
F0.0
sg1630
g5386
(g5390
S'\x00\x00\x00\x00\x00\x00\x00@'
p5493
tp5494
Rp5495
sg1631
g5386
(g5390
S'\x00\x00\x00\x00\x00\x00$@'
p5496
tp5497
Rp5498
sg1632
F1.0
ssS'style'
p5499
(dp5500
g5459
F0.1
sg5460
F0.0
sg5461
F0.5
sg5462
F0.7
sssg1517
I0
sg1518
I0
sg1138
g1521
sg567
I3
sbsbsg5347
g1694
sg1138
g1521
sg567
I3
sbag0
(g1675
g2
Ntp5501
Rp5502
(dp5503
g1679
I0
sg50
g1653
sg1680
I0
sg1681
g5381
sg5347
g1554
sg1138
g1521
sg567
I4
sbag0
(g1675
g2
Ntp5504
Rp5505
(dp5506
g1679
I0
sg50
g1653
sg1680
I0
sg1681
g1586
sg5347
g5368
sg1138
g1521
sg567
I5
sbag0
(g1675
g2
Ntp5507
Rp5508
(dp5509
g1679
I0
sg50
g1653
sg1680
I0
sg1681
g0
(g54
g2
Ntp5510
Rp5511
(dp5512
g1556
Nsg50
g1543
sg59
Nsg60
Nsg1558
Nsg277
g1537
sg567
I25
sg1502
g0
(clanguage_schemas
PHON_WM_P
p5513
g2
Ntp5514
Rp5515
(dp5516
g48
(dp5517
g1543
Nssg1547
(lp5518
sg50
g1658
sg1550
(lp5519
sg52
(lp5520
g0
(g54
g2
Ntp5521
Rp5522
(dp5523
g1556
Nsg50
S'to_utter'
p5524
sg59
Nsg60
Nsg1558
Nsg277
g1501
sg567
I26
sg1502
g5515
sbag0
(g54
g2
Ntp5525
Rp5526
(dp5527
g1556
Nsg50
g1557
sg59
Nsg60
Nsg1558
Nsg277
g1501
sg567
I27
sg1502
g5515
sbag0
(g54
g2
Ntp5528
Rp5529
(dp5530
g1556
Nsg50
g1566
sg59
Nsg60
Nsg1558
Nsg277
g1501
sg567
I28
sg1502
g5515
sbag0
(g54
g2
Ntp5531
Rp5532
(dp5533
g50
g1574
sg59
Nsg60
Nsg277
g1501
sg567
I29
sg1502
g5515
sbasg1507
(dp5534
g1574
Nsg1557
Nsg5524
Nsg1566
NssS'needs_filler'
p5535
I01
sg1512
F1.0
sg1576
(lp5536
sg1513
(lp5537
g5511
asS'filler'
p5538
S'....'
p5539
sg1592
(dp5540
g1594
(dp5541
sg1596
(dp5542
g1598
(lp5543
sg1600
(dp5544
g1602
(lp5545
sg1604
(lp5546
sg1606
(lp5547
ssg1608
(lp5548
sg1517
(lp5549
sg1611
(lp5550
sssg1515
(dp5551
g1614
(dp5552
g1616
F1.0
sg1617
F0.0
sg1618
F1.0
sg1619
F1.0
sg1620
F0.0
sg1621
F0.0
sg1622
F0.0
sg1623
F0.01
ssg1624
(dp5553
g1626
F100.0
sg1627
F10.0
sg1628
F0.001
sg1629
F0.0
sg1630
F1.0
sg1631
F1.0
sg1632
F1.0
sssg1517
I0
sg1518
I0
sg1138
g1521
sS'phon_sequence'
p5554
(lp5555
sg567
I6
sbsbsg5347
g5371
sg1138
g1521
sg567
I6
sbag0
(g1675
g2
Ntp5556
Rp5557
(dp5558
g1679
I0
sg50
g1653
sg1680
I0
sg1681
g5468
sg5347
g5526
sg1138
g1521
sg567
I7
sbag0
(g1675
g2
Ntp5559
Rp5560
(dp5561
g1679
I0
sg50
g1653
sg1680
I0
sg1681
g0
(g54
g2
Ntp5562
Rp5563
(dp5564
g1556
Nsg50
g1685
sg59
Nsg60
I01
sg1558
Nsg277
g1537
sg567
I32
sg1502
g0
(clanguage_schemas
CONTROL
p5565
g2
Ntp5566
Rp5567
(dp5568
g48
(dp5569
g5363
Nsg1685
Nssg50
g1648
sg52
(lp5570
g0
(g54
g2
Ntp5571
Rp5572
(dp5573
g1556
Nsg50
g1506
sg59
Nsg60
Nsg1558
Nsg277
g1501
sg567
I34
sg1502
g5567
sbag0
(g54
g2
Ntp5574
Rp5575
(dp5576
g1556
Nsg50
g1557
sg59
Nsg60
Nsg1558
Nsg277
g1501
sg567
I35
sg1502
g5567
sbag0
(g54
g2
Ntp5577
Rp5578
(dp5579
g50
S'to_grammatical_WM_C'
p5580
sg59
Nsg60
I00
sg277
g1501
sg567
I36
sg1502
g5567
sbasg1507
(dp5581
g1557
Nsg5580
Nsg1506
Nssg1512
F1.0
sg1513
(lp5582
g5563
ag0
(g54
g2
Ntp5583
Rp5584
(dp5585
g1556
Nsg50
g5363
sg59
Nsg60
Nsg1558
Nsg277
g1537
sg567
I33
sg1502
g5567
sbasS'state'
p5586
(dp5587
g1591
I00
sS'unexpressed_sem'
p5588
I00
sS'mode'
p5589
g1591
sS'last_prod_time'
p5590
I0
ssg1515
(dp5591
g5499
(dp5592
g5459
F0.1
sg5460
F0.0
sg5462
F0.7
sg5461
F0.5
ssS'task'
p5593
(dp5594
S'time_pressure'
p5595
g5386
(g5390
S'\x00\x00\x00\x00\x00@\x8f@'
p5596
tp5597
Rp5598
sS'start_produce'
p5599
g5386
(g5390
S'\x00\x00\x00\x00\x00@\x8f@'
p5600
tp5601
Rp5602
sssg1517
I0
sg1518
I0
sg1138
g1521
sg567
I8
sbsbsg5347
g1564
sg1138
g1521
sg567
I8
sbag0
(g1675
g2
Ntp5603
Rp5604
(dp5605
g1679
I0
sg50
g1653
sg1680
I0
sg1681
g0
(g54
g2
Ntp5606
Rp5607
(dp5608
g1556
Nsg50
g5363
sg59
Nsg60
Nsg1558
Nsg277
g1537
sg567
I30
sg1502
g0
(clanguage_schemas
UTTER
p5609
g2
Ntp5610
Rp5611
(dp5612
g48
(dp5613
g5363
Nssg50
g1651
sg52
(lp5614
g0
(g54
g2
Ntp5615
Rp5616
(dp5617
g50
g1574
sg59
Nsg60
Nsg277
g1501
sg567
I31
sg1502
g5611
sbasg1507
(dp5618
g1574
NssS'utterance_stack'
p5619
(lp5620
sg1512
F1.0
sg1513
(lp5621
g5607
asg1515
(dp5622
S'speech_rate'
p5623
F1.0
ssg1517
I0
sg1518
I0
sg1138
g1521
sg567
I7
sbsbsg5347
g5522
sg1138
g1521
sg567
I9
sbag0
(g1675
g2
Ntp5624
Rp5625
(dp5626
g1679
I0
sg50
g1653
sg1680
I0
sg1681
g5584
sg5347
g5529
sg1138
g1521
sg567
I10
sbag0
(g1675
g2
Ntp5627
Rp5628
(dp5629
g1679
I0
sg50
g1653
sg1680
I0
sg1681
g5454
sg5347
g5575
sg1138
g1521
sg567
I11
sbag0
(g1675
g2
Ntp5630
Rp5631
(dp5632
g1679
I0
sg50
g1653
sg1680
I0
sg1681
g1589
sg5347
g5572
sg1138
g1521
sg567
I12
sbasg1515
(dp5633
g1648
g5591
sg1658
g5551
sg51
g1516
sg1666
g5137
sg1670
g5346
sg1549
g1613
sg1651
g5622
sg1662
g5482
ssg1517
F0.0
sS'set_up_time'
p5634
I10
sS'input'
p5635
NsS'default_params'
p5636
Nsg1512
F1.0
sS'output_ports'
p5637
(lp5638
g5616
ag5532
ag5375
ag1572
asg5138
(dp5639
g1648
g5567
sg1658
g5515
sg51
g46
sg1670
g1688
sg1662
g5360
sg1549
g1540
sg1651
g5611
sg1666
g1772
ssbsg567
I2
sg5138
g61
sbsS'speed_param'
p5640
I100
sS'ground_truths'
p5641
NsS'is_macro'
p5642
I01
sb.