ccopy_reg
_reconstructor
p0
(clanguage_schemas
SEM_GENERATOR
p1
c__builtin__
object
p2
Ntp3
Rp4
(dp5
S'sem_inputs'
p6
(dp7
S'{}'
p8
(dp9
Vtiming
p10
(lp11
F0.0
asVsem_rate
p12
I1
sVpropositions
p13
(dp14
VP1
p15
(lp16
VENTITY(e,F,0.9)
p17
aVWOMAN(woman)
p18
aVIS(is)
p19
aVis(e, woman)
p20
aVYOUNG(young, 0.8)
p21
aVMODIFY(mod, 0.7)
p22
aVmod(e, young)
p23
assVcomments
p24
Vtest property-modifier static.
p25
sVsequence
p26
(lp27
VP1
p28
asssS'conceptLTM'
p29
g0
(clanguage_schemas
CONCEPT_LTM
p30
g2
Ntp31
Rp32
(dp33
S'inputs'
p34
(dp35
sS'name'
p36
S'Concept_LTM'
p37
sS'out_ports'
p38
(lp39
g0
(cschema_theory
PORT
p40
g2
Ntp41
Rp42
(dp43
g36
S'to_conceptualizer'
p44
sS'data'
p45
NsS'value'
p46
(lp47
g0
(clanguage_schemas
CPT_EVENT_SCHEMA
p48
g2
Ntp49
Rp50
(dp51
g36
S'?'
p52
sS'content'
p53
(dp54
S'concept'
p55
g0
(cconcept
CONCEPT
p56
g2
Ntp57
Rp58
(dp59
S'meaning'
p60
g52
sS'conceptual_knowledge'
p61
g0
(cconcept
CONCEPTUAL_KNOWLEDGE
p62
g2
Ntp63
Rp64
(dp65
S'graph'
p66
g0
(cnetworkx.classes.digraph
DiGraph
p67
g2
Ntp68
Rp69
(dp70
S'node'
p71
(dp72
I1
(dp73
g60
g52
ssI2
(dp74
g60
S'CONCEPT'
p75
ssI3
(dp76
g60
VACTION
p77
ssI4
(dp78
g60
VSYMMETRIC
p79
ssI5
(dp80
g60
VMEET
p81
ssI6
(dp82
g60
VSHAKE_HANDS
p83
ssI7
(dp84
g60
VINTRANSITIVE
p85
ssI8
(dp86
g60
VLAUGH
p87
ssI9
(dp88
g60
VTRANSITIVE
p89
ssI10
(dp90
g60
VHIT
p91
ssI11
(dp92
g60
VWATCH
p93
ssI12
(dp94
g60
VPUNCH
p95
ssI13
(dp96
g60
VSPLASH
p97
ssI14
(dp98
g60
VTALK
p99
ssI15
(dp100
g60
VKISS
p101
ssI16
(dp102
g60
VSQUIRT
p103
ssI17
(dp104
g60
VKICK
p105
ssI18
(dp106
g60
VWEAR
p107
ssI19
(dp108
g60
VDITRANSITIVE
p109
ssI20
(dp110
g60
VSEND
p111
ssI21
(dp112
g60
VGIVE
p113
ssI22
(dp114
g60
VPROPERTY
p115
ssI23
(dp116
g60
VCOLOR
p117
ssI24
(dp118
g60
VBLUE
p119
ssI25
(dp120
g60
VGREEN
p121
ssI26
(dp122
g60
VWHITE
p123
ssI27
(dp124
g60
VBLACK
p125
ssI28
(dp126
g60
VRED
p127
ssI29
(dp128
g60
VAPPEARANCE
p129
ssI30
(dp130
g60
VYOUNG
p131
ssI31
(dp132
g60
VPRETTY
p133
ssI32
(dp134
g60
VHANDSOME
p135
ssI33
(dp136
g60
VSIZE
p137
ssI34
(dp138
g60
VSMALL
p139
ssI35
(dp140
g60
VBIG
p141
ssI36
(dp142
g60
VRELATION
p143
ssI37
(dp144
g60
VACTION_FRAME
p145
ssI38
(dp146
g60
VMODIFY
p147
ssI39
(dp148
g60
VTHEME
p149
ssI40
(dp150
g60
VRECIPIENT
p151
ssI41
(dp152
g60
VATTR
p153
ssI42
(dp154
g60
VAGT_PT
p155
ssI43
(dp156
g60
VPATIENT
p157
ssI44
(dp158
g60
VAGT+PT
p159
ssI45
(dp160
g60
VAGENT
p161
ssI46
(dp162
g60
VEVENT_FRAME
p163
ssI47
(dp164
g60
VTEMPORAL
p165
ssI48
(dp166
g60
VCONCURRENT
p167
ssI49
(dp168
g60
VSUCCESSIVE
p169
ssI50
(dp170
g60
VSPATIAL
p171
ssI51
(dp172
g60
VIN
p173
ssI52
(dp174
g60
VIS
p175
ssI53
(dp176
g60
VOBJECT_FRAME
p177
ssI54
(dp178
g60
VEVENT
p179
ssI55
(dp180
g60
VENTITY
p181
ssI56
(dp182
g60
VANIMATE
p183
ssI57
(dp184
g60
VANIMAL
p185
ssI58
(dp186
g60
VHUMAN
p187
ssI59
(dp188
g60
VOBJECT
p189
ssI60
(dp190
g60
VITEM
p191
ssI61
(dp192
g60
VWAGON
p193
ssI62
(dp194
g60
VWATERING_CAN
p195
ssI63
(dp196
g60
VBAG
p197
ssI64
(dp198
g60
VTREE
p199
ssI65
(dp200
g60
VHOOK
p201
ssI66
(dp202
g60
VCELLO
p203
ssI67
(dp204
g60
VBOOKSHELF
p205
ssI68
(dp206
g60
VCLOTHING
p207
ssI69
(dp208
g60
VTSHIRT
p209
ssI70
(dp210
g60
VDRESS
p211
ssI71
(dp212
g60
VSHIRT
p213
ssI72
(dp214
g60
VSUIT
p215
ssI73
(dp216
g60
VTURTLE
p217
ssI74
(dp218
g60
VMOUSE
p219
ssI75
(dp220
g60
VDOG
p221
ssI76
(dp222
g60
VBOY
p223
ssI77
(dp224
g60
VWOMAN
p225
ssI78
(dp226
g60
VPEOPLE
p227
ssI79
(dp228
g60
VPOLICEMAN
p229
ssI80
(dp230
g60
VHUNTER
p231
ssI81
(dp232
g60
VBALLERINA
p233
ssI82
(dp234
g60
VCELLIST
p235
ssI83
(dp236
g60
VGIRL
p237
ssI84
(dp238
g60
VFENCER
p239
ssI85
(dp240
g60
VROBBER
p241
ssI86
(dp242
g60
VMAN
p243
ssI87
(dp244
g60
VPLACE
p245
ssI88
(dp246
g60
VBOXINGRING
p247
ssI89
(dp248
g60
VPARK
p249
ssI90
(dp250
g60
VMALE
p251
ssI91
(dp252
g60
VFEMALE
p253
sssS'node_dict_factory'
p254
c__builtin__
dict
p255
sS'edge_attr_dict_factory'
p256
g255
sS'succ'
p257
(dp258
I1
(dp259
sI2
(dp260
sI3
(dp261
I2
(dp262
S'type'
p263
S'is_a'
p264
sssI4
(dp265
I3
(dp266
g263
g264
sssI5
(dp267
I4
(dp268
g263
g264
sssI6
(dp269
I4
(dp270
g263
g264
sssI7
(dp271
I3
(dp272
g263
g264
sssI8
(dp273
I7
(dp274
g263
g264
sssI9
(dp275
I3
(dp276
g263
g264
sssI10
(dp277
I9
(dp278
g263
g264
sssI11
(dp279
I9
(dp280
g263
g264
sssI12
(dp281
I9
(dp282
g263
g264
sssI13
(dp283
I9
(dp284
g263
g264
sssI14
(dp285
I9
(dp286
g263
g264
sssI15
(dp287
I9
(dp288
g263
g264
sssI16
(dp289
I9
(dp290
g263
g264
sssI17
(dp291
I9
(dp292
g263
g264
sssI18
(dp293
I9
(dp294
g263
g264
sssI19
(dp295
I3
(dp296
g263
g264
sssI20
(dp297
I19
(dp298
g263
g264
sssI21
(dp299
I19
(dp300
g263
g264
sssI22
(dp301
I2
(dp302
g263
g264
sssI23
(dp303
I22
(dp304
g263
g264
sssI24
(dp305
I23
(dp306
g263
g264
sssI25
(dp307
I23
(dp308
g263
g264
sssI26
(dp309
I23
(dp310
g263
g264
sssI27
(dp311
I23
(dp312
g263
g264
sssI28
(dp313
I23
(dp314
g263
g264
sssI29
(dp315
I22
(dp316
g263
g264
sssI30
(dp317
I29
(dp318
g263
g264
sssI31
(dp319
I29
(dp320
g263
g264
sssI32
(dp321
I29
(dp322
g263
g264
sssI33
(dp323
I22
(dp324
g263
g264
sssI34
(dp325
I33
(dp326
g263
g264
sssI35
(dp327
I33
(dp328
g263
g264
sssI36
(dp329
I2
(dp330
g263
g264
sssI37
(dp331
I36
(dp332
g263
g264
sssI38
(dp333
I37
(dp334
g263
g264
ssI53
(dp335
g263
g264
sssI39
(dp336
I37
(dp337
g263
g264
sssI40
(dp338
I37
(dp339
g263
g264
sssI41
(dp340
I37
(dp341
g263
g264
ssI53
(dp342
g263
g264
sssI42
(dp343
I37
(dp344
g263
g264
sssI43
(dp345
I42
(dp346
g263
g264
sssI44
(dp347
I43
(dp348
g263
g264
ssI45
(dp349
g263
g264
sssI45
(dp350
I42
(dp351
g263
g264
sssI46
(dp352
I36
(dp353
g263
g264
sssI47
(dp354
I46
(dp355
g263
g264
sssI48
(dp356
I47
(dp357
g263
g264
sssI49
(dp358
I47
(dp359
g263
g264
sssI50
(dp360
I46
(dp361
g263
g264
sssI51
(dp362
I50
(dp363
g263
g264
sssI52
(dp364
I36
(dp365
g263
g264
sssI53
(dp366
I36
(dp367
g263
g264
sssI54
(dp368
I2
(dp369
g263
g264
sssI55
(dp370
I2
(dp371
g263
g264
sssI56
(dp372
I55
(dp373
g263
g264
sssI57
(dp374
I56
(dp375
g263
g264
ssI59
(dp376
g263
g264
sssI58
(dp377
I56
(dp378
g263
g264
ssI59
(dp379
g263
g264
sssI59
(dp380
I55
(dp381
g263
g264
sssI60
(dp382
I59
(dp383
g263
g264
sssI61
(dp384
I60
(dp385
g263
g264
sssI62
(dp386
I60
(dp387
g263
g264
sssI63
(dp388
I60
(dp389
g263
g264
sssI64
(dp390
I60
(dp391
g263
g264
sssI65
(dp392
I60
(dp393
g263
g264
sssI66
(dp394
I60
(dp395
g263
g264
sssI67
(dp396
I60
(dp397
g263
g264
sssI68
(dp398
I60
(dp399
g263
g264
sssI69
(dp400
I68
(dp401
g263
g264
sssI70
(dp402
I68
(dp403
g263
g264
sssI71
(dp404
I68
(dp405
g263
g264
sssI72
(dp406
I68
(dp407
g263
g264
sssI73
(dp408
I57
(dp409
g263
g264
sssI74
(dp410
I57
(dp411
g263
g264
sssI75
(dp412
I57
(dp413
g263
g264
sssI76
(dp414
I58
(dp415
g263
g264
ssI90
(dp416
g263
g264
sssI77
(dp417
I58
(dp418
g263
g264
ssI91
(dp419
g263
g264
sssI78
(dp420
I58
(dp421
g263
g264
sssI79
(dp422
I58
(dp423
g263
g264
sssI80
(dp424
I58
(dp425
g263
g264
sssI81
(dp426
I58
(dp427
g263
g264
ssI91
(dp428
g263
g264
sssI82
(dp429
I58
(dp430
g263
g264
sssI83
(dp431
I58
(dp432
g263
g264
ssI91
(dp433
g263
g264
sssI84
(dp434
I58
(dp435
g263
g264
sssI85
(dp436
I58
(dp437
g263
g264
sssI86
(dp438
I58
(dp439
g263
g264
ssI90
(dp440
g263
g264
sssI87
(dp441
I55
(dp442
g263
g264
sssI88
(dp443
I87
(dp444
g263
g264
sssI89
(dp445
I87
(dp446
g263
g264
sssI90
(dp447
I55
(dp448
g263
g264
sssI91
(dp449
I55
(dp450
g263
g264
ssssS'edge'
p451
g258
sg66
(dp452
sS'adjlist_dict_factory'
p453
g255
sS'adj'
p454
g258
sS'pred'
p455
(dp456
I1
(dp457
sI2
(dp458
I3
g262
sI36
g330
sI54
g369
sI22
g302
sI55
g371
ssI3
(dp459
I9
g276
sI19
g296
sI4
g266
sI7
g272
ssI4
(dp460
I5
g268
sI6
g270
ssI5
(dp461
sI6
(dp462
sI7
(dp463
I8
g274
ssI8
(dp464
sI9
(dp465
I10
g278
sI11
g280
sI12
g282
sI13
g284
sI14
g286
sI15
g288
sI16
g290
sI17
g292
sI18
g294
ssI10
(dp466
sI11
(dp467
sI12
(dp468
sI13
(dp469
sI14
(dp470
sI15
(dp471
sI16
(dp472
sI17
(dp473
sI18
(dp474
sI19
(dp475
I20
g298
sI21
g300
ssI20
(dp476
sI21
(dp477
sI22
(dp478
I33
g324
sI29
g316
sI23
g304
ssI23
(dp479
I24
g306
sI25
g308
sI26
g310
sI27
g312
sI28
g314
ssI24
(dp480
sI25
(dp481
sI26
(dp482
sI27
(dp483
sI28
(dp484
sI29
(dp485
I32
g322
sI30
g318
sI31
g320
ssI30
(dp486
sI31
(dp487
sI32
(dp488
sI33
(dp489
I34
g326
sI35
g328
ssI34
(dp490
sI35
(dp491
sI36
(dp492
I52
g365
sI37
g332
sI46
g353
sI53
g367
ssI37
(dp493
I40
g339
sI41
g341
sI42
g344
sI38
g334
sI39
g337
ssI38
(dp494
sI39
(dp495
sI40
(dp496
sI41
(dp497
sI42
(dp498
I43
g346
sI45
g351
ssI43
(dp499
I44
g348
ssI44
(dp500
sI45
(dp501
I44
g349
ssI46
(dp502
I50
g361
sI47
g355
ssI47
(dp503
I48
g357
sI49
g359
ssI48
(dp504
sI49
(dp505
sI50
(dp506
I51
g363
ssI51
(dp507
sI52
(dp508
sI53
(dp509
I41
g342
sI38
g335
ssI54
(dp510
sI55
(dp511
I56
g373
sI91
g450
sI90
g448
sI59
g381
sI87
g442
ssI56
(dp512
I57
g375
sI58
g378
ssI57
(dp513
I73
g409
sI74
g411
sI75
g413
ssI58
(dp514
I76
g415
sI77
g418
sI78
g421
sI79
g423
sI80
g425
sI81
g427
sI82
g430
sI83
g432
sI84
g435
sI85
g437
sI86
g439
ssI59
(dp515
I57
g376
sI58
g379
sI60
g383
ssI60
(dp516
I64
g391
sI65
g393
sI66
g395
sI67
g397
sI68
g399
sI61
g385
sI62
g387
sI63
g389
ssI61
(dp517
sI62
(dp518
sI63
(dp519
sI64
(dp520
sI65
(dp521
sI66
(dp522
sI67
(dp523
sI68
(dp524
I72
g407
sI69
g401
sI70
g403
sI71
g405
ssI69
(dp525
sI70
(dp526
sI71
(dp527
sI72
(dp528
sI73
(dp529
sI74
(dp530
sI75
(dp531
sI76
(dp532
sI77
(dp533
sI78
(dp534
sI79
(dp535
sI80
(dp536
sI81
(dp537
sI82
(dp538
sI83
(dp539
sI84
(dp540
sI85
(dp541
sI86
(dp542
sI87
(dp543
I88
g444
sI89
g446
ssI88
(dp544
sI89
(dp545
sI90
(dp546
I76
g416
sI86
g440
ssI91
(dp547
I81
g428
sI83
g433
sI77
g419
sssbsS'nodes'
p548
(lp549
g58
ag0
(g56
g2
Ntp550
Rp551
(dp552
g60
g75
sg61
g64
sS'id'
p553
I2
sg36
g75
sbag0
(g56
g2
Ntp554
Rp555
(dp556
g60
g77
sg61
g64
sg553
I3
sg36
g77
sbag0
(g56
g2
Ntp557
Rp558
(dp559
g60
g79
sg61
g64
sg553
I4
sg36
g79
sbag0
(g56
g2
Ntp560
Rp561
(dp562
g60
g81
sg61
g64
sg553
I5
sg36
g81
sbag0
(g56
g2
Ntp563
Rp564
(dp565
g60
g83
sg61
g64
sg553
I6
sg36
g83
sbag0
(g56
g2
Ntp566
Rp567
(dp568
g60
g85
sg61
g64
sg553
I7
sg36
g85
sbag0
(g56
g2
Ntp569
Rp570
(dp571
g60
g87
sg61
g64
sg553
I8
sg36
g87
sbag0
(g56
g2
Ntp572
Rp573
(dp574
g60
g89
sg61
g64
sg553
I9
sg36
g89
sbag0
(g56
g2
Ntp575
Rp576
(dp577
g60
g91
sg61
g64
sg553
I10
sg36
g91
sbag0
(g56
g2
Ntp578
Rp579
(dp580
g60
g93
sg61
g64
sg553
I11
sg36
g93
sbag0
(g56
g2
Ntp581
Rp582
(dp583
g60
g95
sg61
g64
sg553
I12
sg36
g95
sbag0
(g56
g2
Ntp584
Rp585
(dp586
g60
g97
sg61
g64
sg553
I13
sg36
g97
sbag0
(g56
g2
Ntp587
Rp588
(dp589
g60
g99
sg61
g64
sg553
I14
sg36
g99
sbag0
(g56
g2
Ntp590
Rp591
(dp592
g60
g101
sg61
g64
sg553
I15
sg36
g101
sbag0
(g56
g2
Ntp593
Rp594
(dp595
g60
g103
sg61
g64
sg553
I16
sg36
g103
sbag0
(g56
g2
Ntp596
Rp597
(dp598
g60
g105
sg61
g64
sg553
I17
sg36
g105
sbag0
(g56
g2
Ntp599
Rp600
(dp601
g60
g107
sg61
g64
sg553
I18
sg36
g107
sbag0
(g56
g2
Ntp602
Rp603
(dp604
g60
g109
sg61
g64
sg553
I19
sg36
g109
sbag0
(g56
g2
Ntp605
Rp606
(dp607
g60
g111
sg61
g64
sg553
I20
sg36
g111
sbag0
(g56
g2
Ntp608
Rp609
(dp610
g60
g113
sg61
g64
sg553
I21
sg36
g113
sbag0
(g56
g2
Ntp611
Rp612
(dp613
g60
g115
sg61
g64
sg553
I22
sg36
g115
sbag0
(g56
g2
Ntp614
Rp615
(dp616
g60
g117
sg61
g64
sg553
I23
sg36
g117
sbag0
(g56
g2
Ntp617
Rp618
(dp619
g60
g119
sg61
g64
sg553
I24
sg36
g119
sbag0
(g56
g2
Ntp620
Rp621
(dp622
g60
g121
sg61
g64
sg553
I25
sg36
g121
sbag0
(g56
g2
Ntp623
Rp624
(dp625
g60
g123
sg61
g64
sg553
I26
sg36
g123
sbag0
(g56
g2
Ntp626
Rp627
(dp628
g60
g125
sg61
g64
sg553
I27
sg36
g125
sbag0
(g56
g2
Ntp629
Rp630
(dp631
g60
g127
sg61
g64
sg553
I28
sg36
g127
sbag0
(g56
g2
Ntp632
Rp633
(dp634
g60
g129
sg61
g64
sg553
I29
sg36
g129
sbag0
(g56
g2
Ntp635
Rp636
(dp637
g60
g131
sg61
g64
sg553
I30
sg36
g131
sbag0
(g56
g2
Ntp638
Rp639
(dp640
g60
g133
sg61
g64
sg553
I31
sg36
g133
sbag0
(g56
g2
Ntp641
Rp642
(dp643
g60
g135
sg61
g64
sg553
I32
sg36
g135
sbag0
(g56
g2
Ntp644
Rp645
(dp646
g60
g137
sg61
g64
sg553
I33
sg36
g137
sbag0
(g56
g2
Ntp647
Rp648
(dp649
g60
g139
sg61
g64
sg553
I34
sg36
g139
sbag0
(g56
g2
Ntp650
Rp651
(dp652
g60
g141
sg61
g64
sg553
I35
sg36
g141
sbag0
(g56
g2
Ntp653
Rp654
(dp655
g60
g143
sg61
g64
sg553
I36
sg36
g143
sbag0
(g56
g2
Ntp656
Rp657
(dp658
g60
g145
sg61
g64
sg553
I37
sg36
g145
sbag0
(g56
g2
Ntp659
Rp660
(dp661
g60
g147
sg61
g64
sg553
I38
sg36
g147
sbag0
(g56
g2
Ntp662
Rp663
(dp664
g60
g149
sg61
g64
sg553
I39
sg36
g149
sbag0
(g56
g2
Ntp665
Rp666
(dp667
g60
g151
sg61
g64
sg553
I40
sg36
g151
sbag0
(g56
g2
Ntp668
Rp669
(dp670
g60
g153
sg61
g64
sg553
I41
sg36
g153
sbag0
(g56
g2
Ntp671
Rp672
(dp673
g60
g155
sg61
g64
sg553
I42
sg36
g155
sbag0
(g56
g2
Ntp674
Rp675
(dp676
g60
g157
sg61
g64
sg553
I43
sg36
g157
sbag0
(g56
g2
Ntp677
Rp678
(dp679
g60
g159
sg61
g64
sg553
I44
sg36
g159
sbag0
(g56
g2
Ntp680
Rp681
(dp682
g60
g161
sg61
g64
sg553
I45
sg36
g161
sbag0
(g56
g2
Ntp683
Rp684
(dp685
g60
g163
sg61
g64
sg553
I46
sg36
g163
sbag0
(g56
g2
Ntp686
Rp687
(dp688
g60
g165
sg61
g64
sg553
I47
sg36
g165
sbag0
(g56
g2
Ntp689
Rp690
(dp691
g60
g167
sg61
g64
sg553
I48
sg36
g167
sbag0
(g56
g2
Ntp692
Rp693
(dp694
g60
g169
sg61
g64
sg553
I49
sg36
g169
sbag0
(g56
g2
Ntp695
Rp696
(dp697
g60
g171
sg61
g64
sg553
I50
sg36
g171
sbag0
(g56
g2
Ntp698
Rp699
(dp700
g60
g173
sg61
g64
sg553
I51
sg36
g173
sbag0
(g56
g2
Ntp701
Rp702
(dp703
g60
g175
sg61
g64
sg553
I52
sg36
g175
sbag0
(g56
g2
Ntp704
Rp705
(dp706
g60
g177
sg61
g64
sg553
I53
sg36
g177
sbag0
(g56
g2
Ntp707
Rp708
(dp709
g60
g179
sg61
g64
sg553
I54
sg36
g179
sbag0
(g56
g2
Ntp710
Rp711
(dp712
g60
g181
sg61
g64
sg553
I55
sg36
g181
sbag0
(g56
g2
Ntp713
Rp714
(dp715
g60
g183
sg61
g64
sg553
I56
sg36
g183
sbag0
(g56
g2
Ntp716
Rp717
(dp718
g60
g185
sg61
g64
sg553
I57
sg36
g185
sbag0
(g56
g2
Ntp719
Rp720
(dp721
g60
g187
sg61
g64
sg553
I58
sg36
g187
sbag0
(g56
g2
Ntp722
Rp723
(dp724
g60
g189
sg61
g64
sg553
I59
sg36
g189
sbag0
(g56
g2
Ntp725
Rp726
(dp727
g60
g191
sg61
g64
sg553
I60
sg36
g191
sbag0
(g56
g2
Ntp728
Rp729
(dp730
g60
g193
sg61
g64
sg553
I61
sg36
g193
sbag0
(g56
g2
Ntp731
Rp732
(dp733
g60
g195
sg61
g64
sg553
I62
sg36
g195
sbag0
(g56
g2
Ntp734
Rp735
(dp736
g60
g197
sg61
g64
sg553
I63
sg36
g197
sbag0
(g56
g2
Ntp737
Rp738
(dp739
g60
g199
sg61
g64
sg553
I64
sg36
g199
sbag0
(g56
g2
Ntp740
Rp741
(dp742
g60
g201
sg61
g64
sg553
I65
sg36
g201
sbag0
(g56
g2
Ntp743
Rp744
(dp745
g60
g203
sg61
g64
sg553
I66
sg36
g203
sbag0
(g56
g2
Ntp746
Rp747
(dp748
g60
g205
sg61
g64
sg553
I67
sg36
g205
sbag0
(g56
g2
Ntp749
Rp750
(dp751
g60
g207
sg61
g64
sg553
I68
sg36
g207
sbag0
(g56
g2
Ntp752
Rp753
(dp754
g60
g209
sg61
g64
sg553
I69
sg36
g209
sbag0
(g56
g2
Ntp755
Rp756
(dp757
g60
g211
sg61
g64
sg553
I70
sg36
g211
sbag0
(g56
g2
Ntp758
Rp759
(dp760
g60
g213
sg61
g64
sg553
I71
sg36
g213
sbag0
(g56
g2
Ntp761
Rp762
(dp763
g60
g215
sg61
g64
sg553
I72
sg36
g215
sbag0
(g56
g2
Ntp764
Rp765
(dp766
g60
g217
sg61
g64
sg553
I73
sg36
g217
sbag0
(g56
g2
Ntp767
Rp768
(dp769
g60
g219
sg61
g64
sg553
I74
sg36
g219
sbag0
(g56
g2
Ntp770
Rp771
(dp772
g60
g221
sg61
g64
sg553
I75
sg36
g221
sbag0
(g56
g2
Ntp773
Rp774
(dp775
g60
g223
sg61
g64
sg553
I76
sg36
g223
sbag0
(g56
g2
Ntp776
Rp777
(dp778
g60
g225
sg61
g64
sg553
I77
sg36
g225
sbag0
(g56
g2
Ntp779
Rp780
(dp781
g60
g227
sg61
g64
sg553
I78
sg36
g227
sbag0
(g56
g2
Ntp782
Rp783
(dp784
g60
g229
sg61
g64
sg553
I79
sg36
g229
sbag0
(g56
g2
Ntp785
Rp786
(dp787
g60
g231
sg61
g64
sg553
I80
sg36
g231
sbag0
(g56
g2
Ntp788
Rp789
(dp790
g60
g233
sg61
g64
sg553
I81
sg36
g233
sbag0
(g56
g2
Ntp791
Rp792
(dp793
g60
g235
sg61
g64
sg553
I82
sg36
g235
sbag0
(g56
g2
Ntp794
Rp795
(dp796
g60
g237
sg61
g64
sg553
I83
sg36
g237
sbag0
(g56
g2
Ntp797
Rp798
(dp799
g60
g239
sg61
g64
sg553
I84
sg36
g239
sbag0
(g56
g2
Ntp800
Rp801
(dp802
g60
g241
sg61
g64
sg553
I85
sg36
g241
sbag0
(g56
g2
Ntp803
Rp804
(dp805
g60
g243
sg61
g64
sg553
I86
sg36
g243
sbag0
(g56
g2
Ntp806
Rp807
(dp808
g60
g245
sg61
g64
sg553
I87
sg36
g245
sbag0
(g56
g2
Ntp809
Rp810
(dp811
g60
g247
sg61
g64
sg553
I88
sg36
g247
sbag0
(g56
g2
Ntp812
Rp813
(dp814
g60
g249
sg61
g64
sg553
I89
sg36
g249
sbag0
(g56
g2
Ntp815
Rp816
(dp817
g60
g251
sg61
g64
sg553
I90
sg36
g251
sbag0
(g56
g2
Ntp818
Rp819
(dp820
g60
g253
sg61
g64
sg553
I91
sg36
g253
sbasS'edges'
p821
(lp822
g0
(cconcept
SEM_REL
p823
g2
Ntp824
Rp825
(dp826
S'pTo'
p827
g551
sg263
g264
sS'pFrom'
p828
g555
sbag0
(g823
g2
Ntp829
Rp830
(dp831
g827
g555
sg263
g264
sg828
g558
sbag0
(g823
g2
Ntp832
Rp833
(dp834
g827
g558
sg263
g264
sg828
g561
sbag0
(g823
g2
Ntp835
Rp836
(dp837
g827
g558
sg263
g264
sg828
g564
sbag0
(g823
g2
Ntp838
Rp839
(dp840
g827
g555
sg263
g264
sg828
g567
sbag0
(g823
g2
Ntp841
Rp842
(dp843
g827
g567
sg263
g264
sg828
g570
sbag0
(g823
g2
Ntp844
Rp845
(dp846
g827
g555
sg263
g264
sg828
g573
sbag0
(g823
g2
Ntp847
Rp848
(dp849
g827
g573
sg263
g264
sg828
g576
sbag0
(g823
g2
Ntp850
Rp851
(dp852
g827
g573
sg263
g264
sg828
g579
sbag0
(g823
g2
Ntp853
Rp854
(dp855
g827
g573
sg263
g264
sg828
g582
sbag0
(g823
g2
Ntp856
Rp857
(dp858
g827
g573
sg263
g264
sg828
g585
sbag0
(g823
g2
Ntp859
Rp860
(dp861
g827
g573
sg263
g264
sg828
g588
sbag0
(g823
g2
Ntp862
Rp863
(dp864
g827
g573
sg263
g264
sg828
g591
sbag0
(g823
g2
Ntp865
Rp866
(dp867
g827
g573
sg263
g264
sg828
g594
sbag0
(g823
g2
Ntp868
Rp869
(dp870
g827
g573
sg263
g264
sg828
g597
sbag0
(g823
g2
Ntp871
Rp872
(dp873
g827
g573
sg263
g264
sg828
g600
sbag0
(g823
g2
Ntp874
Rp875
(dp876
g827
g555
sg263
g264
sg828
g603
sbag0
(g823
g2
Ntp877
Rp878
(dp879
g827
g603
sg263
g264
sg828
g606
sbag0
(g823
g2
Ntp880
Rp881
(dp882
g827
g603
sg263
g264
sg828
g609
sbag0
(g823
g2
Ntp883
Rp884
(dp885
g827
g551
sg263
g264
sg828
g612
sbag0
(g823
g2
Ntp886
Rp887
(dp888
g827
g612
sg263
g264
sg828
g615
sbag0
(g823
g2
Ntp889
Rp890
(dp891
g827
g615
sg263
g264
sg828
g618
sbag0
(g823
g2
Ntp892
Rp893
(dp894
g827
g615
sg263
g264
sg828
g621
sbag0
(g823
g2
Ntp895
Rp896
(dp897
g827
g615
sg263
g264
sg828
g624
sbag0
(g823
g2
Ntp898
Rp899
(dp900
g827
g615
sg263
g264
sg828
g627
sbag0
(g823
g2
Ntp901
Rp902
(dp903
g827
g615
sg263
g264
sg828
g630
sbag0
(g823
g2
Ntp904
Rp905
(dp906
g827
g612
sg263
g264
sg828
g633
sbag0
(g823
g2
Ntp907
Rp908
(dp909
g827
g633
sg263
g264
sg828
g636
sbag0
(g823
g2
Ntp910
Rp911
(dp912
g827
g633
sg263
g264
sg828
g639
sbag0
(g823
g2
Ntp913
Rp914
(dp915
g827
g633
sg263
g264
sg828
g642
sbag0
(g823
g2
Ntp916
Rp917
(dp918
g827
g612
sg263
g264
sg828
g645
sbag0
(g823
g2
Ntp919
Rp920
(dp921
g827
g645
sg263
g264
sg828
g648
sbag0
(g823
g2
Ntp922
Rp923
(dp924
g827
g645
sg263
g264
sg828
g651
sbag0
(g823
g2
Ntp925
Rp926
(dp927
g827
g551
sg263
g264
sg828
g654
sbag0
(g823
g2
Ntp928
Rp929
(dp930
g827
g654
sg263
g264
sg828
g657
sbag0
(g823
g2
Ntp931
Rp932
(dp933
g827
g657
sg263
g264
sg828
g660
sbag0
(g823
g2
Ntp934
Rp935
(dp936
g827
g657
sg263
g264
sg828
g663
sbag0
(g823
g2
Ntp937
Rp938
(dp939
g827
g657
sg263
g264
sg828
g666
sbag0
(g823
g2
Ntp940
Rp941
(dp942
g827
g657
sg263
g264
sg828
g669
sbag0
(g823
g2
Ntp943
Rp944
(dp945
g827
g657
sg263
g264
sg828
g672
sbag0
(g823
g2
Ntp946
Rp947
(dp948
g827
g672
sg263
g264
sg828
g675
sbag0
(g823
g2
Ntp949
Rp950
(dp951
g827
g675
sg263
g264
sg828
g678
sbag0
(g823
g2
Ntp952
Rp953
(dp954
g827
g672
sg263
g264
sg828
g681
sbag0
(g823
g2
Ntp955
Rp956
(dp957
g827
g681
sg263
g264
sg828
g678
sbag0
(g823
g2
Ntp958
Rp959
(dp960
g827
g654
sg263
g264
sg828
g684
sbag0
(g823
g2
Ntp961
Rp962
(dp963
g827
g684
sg263
g264
sg828
g687
sbag0
(g823
g2
Ntp964
Rp965
(dp966
g827
g687
sg263
g264
sg828
g690
sbag0
(g823
g2
Ntp967
Rp968
(dp969
g827
g687
sg263
g264
sg828
g693
sbag0
(g823
g2
Ntp970
Rp971
(dp972
g827
g684
sg263
g264
sg828
g696
sbag0
(g823
g2
Ntp973
Rp974
(dp975
g827
g696
sg263
g264
sg828
g699
sbag0
(g823
g2
Ntp976
Rp977
(dp978
g827
g654
sg263
g264
sg828
g702
sbag0
(g823
g2
Ntp979
Rp980
(dp981
g827
g654
sg263
g264
sg828
g705
sbag0
(g823
g2
Ntp982
Rp983
(dp984
g827
g705
sg263
g264
sg828
g660
sbag0
(g823
g2
Ntp985
Rp986
(dp987
g827
g705
sg263
g264
sg828
g669
sbag0
(g823
g2
Ntp988
Rp989
(dp990
g827
g551
sg263
g264
sg828
g708
sbag0
(g823
g2
Ntp991
Rp992
(dp993
g827
g551
sg263
g264
sg828
g711
sbag0
(g823
g2
Ntp994
Rp995
(dp996
g827
g711
sg263
g264
sg828
g714
sbag0
(g823
g2
Ntp997
Rp998
(dp999
g827
g714
sg263
g264
sg828
g717
sbag0
(g823
g2
Ntp1000
Rp1001
(dp1002
g827
g714
sg263
g264
sg828
g720
sbag0
(g823
g2
Ntp1003
Rp1004
(dp1005
g827
g711
sg263
g264
sg828
g723
sbag0
(g823
g2
Ntp1006
Rp1007
(dp1008
g827
g723
sg263
g264
sg828
g726
sbag0
(g823
g2
Ntp1009
Rp1010
(dp1011
g827
g726
sg263
g264
sg828
g729
sbag0
(g823
g2
Ntp1012
Rp1013
(dp1014
g827
g726
sg263
g264
sg828
g732
sbag0
(g823
g2
Ntp1015
Rp1016
(dp1017
g827
g726
sg263
g264
sg828
g735
sbag0
(g823
g2
Ntp1018
Rp1019
(dp1020
g827
g726
sg263
g264
sg828
g738
sbag0
(g823
g2
Ntp1021
Rp1022
(dp1023
g827
g726
sg263
g264
sg828
g741
sbag0
(g823
g2
Ntp1024
Rp1025
(dp1026
g827
g726
sg263
g264
sg828
g744
sbag0
(g823
g2
Ntp1027
Rp1028
(dp1029
g827
g726
sg263
g264
sg828
g747
sbag0
(g823
g2
Ntp1030
Rp1031
(dp1032
g827
g726
sg263
g264
sg828
g750
sbag0
(g823
g2
Ntp1033
Rp1034
(dp1035
g827
g750
sg263
g264
sg828
g753
sbag0
(g823
g2
Ntp1036
Rp1037
(dp1038
g827
g750
sg263
g264
sg828
g756
sbag0
(g823
g2
Ntp1039
Rp1040
(dp1041
g827
g750
sg263
g264
sg828
g759
sbag0
(g823
g2
Ntp1042
Rp1043
(dp1044
g827
g750
sg263
g264
sg828
g762
sbag0
(g823
g2
Ntp1045
Rp1046
(dp1047
g827
g723
sg263
g264
sg828
g717
sbag0
(g823
g2
Ntp1048
Rp1049
(dp1050
g827
g717
sg263
g264
sg828
g765
sbag0
(g823
g2
Ntp1051
Rp1052
(dp1053
g827
g717
sg263
g264
sg828
g768
sbag0
(g823
g2
Ntp1054
Rp1055
(dp1056
g827
g717
sg263
g264
sg828
g771
sbag0
(g823
g2
Ntp1057
Rp1058
(dp1059
g827
g723
sg263
g264
sg828
g720
sbag0
(g823
g2
Ntp1060
Rp1061
(dp1062
g827
g720
sg263
g264
sg828
g774
sbag0
(g823
g2
Ntp1063
Rp1064
(dp1065
g827
g720
sg263
g264
sg828
g777
sbag0
(g823
g2
Ntp1066
Rp1067
(dp1068
g827
g720
sg263
g264
sg828
g780
sbag0
(g823
g2
Ntp1069
Rp1070
(dp1071
g827
g720
sg263
g264
sg828
g783
sbag0
(g823
g2
Ntp1072
Rp1073
(dp1074
g827
g720
sg263
g264
sg828
g786
sbag0
(g823
g2
Ntp1075
Rp1076
(dp1077
g827
g720
sg263
g264
sg828
g789
sbag0
(g823
g2
Ntp1078
Rp1079
(dp1080
g827
g720
sg263
g264
sg828
g792
sbag0
(g823
g2
Ntp1081
Rp1082
(dp1083
g827
g720
sg263
g264
sg828
g795
sbag0
(g823
g2
Ntp1084
Rp1085
(dp1086
g827
g720
sg263
g264
sg828
g798
sbag0
(g823
g2
Ntp1087
Rp1088
(dp1089
g827
g720
sg263
g264
sg828
g801
sbag0
(g823
g2
Ntp1090
Rp1091
(dp1092
g827
g720
sg263
g264
sg828
g804
sbag0
(g823
g2
Ntp1093
Rp1094
(dp1095
g827
g711
sg263
g264
sg828
g807
sbag0
(g823
g2
Ntp1096
Rp1097
(dp1098
g827
g807
sg263
g264
sg828
g810
sbag0
(g823
g2
Ntp1099
Rp1100
(dp1101
g827
g807
sg263
g264
sg828
g813
sbag0
(g823
g2
Ntp1102
Rp1103
(dp1104
g827
g711
sg263
g264
sg828
g816
sbag0
(g823
g2
Ntp1105
Rp1106
(dp1107
g827
g816
sg263
g264
sg828
g774
sbag0
(g823
g2
Ntp1108
Rp1109
(dp1110
g827
g816
sg263
g264
sg828
g804
sbag0
(g823
g2
Ntp1111
Rp1112
(dp1113
g827
g711
sg263
g264
sg828
g819
sbag0
(g823
g2
Ntp1114
Rp1115
(dp1116
g827
g819
sg263
g264
sg828
g789
sbag0
(g823
g2
Ntp1117
Rp1118
(dp1119
g827
g819
sg263
g264
sg828
g795
sbag0
(g823
g2
Ntp1120
Rp1121
(dp1122
g827
g819
sg263
g264
sg828
g777
sbasS'neutral'
p1123
g58
sbsg553
I1
sg36
g52
sbssS'model'
p1124
Nsg553
I9
sS'LTM'
p1125
g32
sS'init_act'
p1126
F1.0
sbag0
(clanguage_schemas
CPT_ACTION_SCHEMA
p1127
g2
Ntp1128
Rp1129
(dp1130
g36
g77
sg53
(dp1131
g55
g555
ssg1124
Nsg553
I10
sg1125
g32
sg1126
F1.0
sbag0
(g1127
g2
Ntp1132
Rp1133
(dp1134
g36
g79
sg53
(dp1135
g55
g558
ssg1124
Nsg553
I11
sg1125
g32
sg1126
F1.0
sbag0
(g1127
g2
Ntp1136
Rp1137
(dp1138
g36
g81
sg53
(dp1139
g55
g561
ssg1124
Nsg553
I12
sg1125
g32
sg1126
F1.0
sbag0
(g1127
g2
Ntp1140
Rp1141
(dp1142
g36
g83
sg53
(dp1143
g55
g564
ssg1124
Nsg553
I13
sg1125
g32
sg1126
F1.0
sbag0
(g1127
g2
Ntp1144
Rp1145
(dp1146
g36
g85
sg53
(dp1147
g55
g567
ssg1124
Nsg553
I14
sg1125
g32
sg1126
F1.0
sbag0
(g1127
g2
Ntp1148
Rp1149
(dp1150
g36
g87
sg53
(dp1151
g55
g570
ssg1124
Nsg553
I15
sg1125
g32
sg1126
F1.0
sbag0
(g1127
g2
Ntp1152
Rp1153
(dp1154
g36
g89
sg53
(dp1155
g55
g573
ssg1124
Nsg553
I16
sg1125
g32
sg1126
F1.0
sbag0
(g1127
g2
Ntp1156
Rp1157
(dp1158
g36
g91
sg53
(dp1159
g55
g576
ssg1124
Nsg553
I17
sg1125
g32
sg1126
F1.0
sbag0
(g1127
g2
Ntp1160
Rp1161
(dp1162
g36
g93
sg53
(dp1163
g55
g579
ssg1124
Nsg553
I18
sg1125
g32
sg1126
F1.0
sbag0
(g1127
g2
Ntp1164
Rp1165
(dp1166
g36
g95
sg53
(dp1167
g55
g582
ssg1124
Nsg553
I19
sg1125
g32
sg1126
F1.0
sbag0
(g1127
g2
Ntp1168
Rp1169
(dp1170
g36
g97
sg53
(dp1171
g55
g585
ssg1124
Nsg553
I20
sg1125
g32
sg1126
F1.0
sbag0
(g1127
g2
Ntp1172
Rp1173
(dp1174
g36
g99
sg53
(dp1175
g55
g588
ssg1124
Nsg553
I21
sg1125
g32
sg1126
F1.0
sbag0
(g1127
g2
Ntp1176
Rp1177
(dp1178
g36
g101
sg53
(dp1179
g55
g591
ssg1124
Nsg553
I22
sg1125
g32
sg1126
F1.0
sbag0
(g1127
g2
Ntp1180
Rp1181
(dp1182
g36
g103
sg53
(dp1183
g55
g594
ssg1124
Nsg553
I23
sg1125
g32
sg1126
F1.0
sbag0
(g1127
g2
Ntp1184
Rp1185
(dp1186
g36
g105
sg53
(dp1187
g55
g597
ssg1124
Nsg553
I24
sg1125
g32
sg1126
F1.0
sbag0
(g1127
g2
Ntp1188
Rp1189
(dp1190
g36
g107
sg53
(dp1191
g55
g600
ssg1124
Nsg553
I25
sg1125
g32
sg1126
F1.0
sbag0
(g1127
g2
Ntp1192
Rp1193
(dp1194
g36
g109
sg53
(dp1195
g55
g603
ssg1124
Nsg553
I26
sg1125
g32
sg1126
F1.0
sbag0
(g1127
g2
Ntp1196
Rp1197
(dp1198
g36
g111
sg53
(dp1199
g55
g606
ssg1124
Nsg553
I27
sg1125
g32
sg1126
F1.0
sbag0
(g1127
g2
Ntp1200
Rp1201
(dp1202
g36
g113
sg53
(dp1203
g55
g609
ssg1124
Nsg553
I28
sg1125
g32
sg1126
F1.0
sbag0
(clanguage_schemas
CPT_PROPERTY_SCHEMA
p1204
g2
Ntp1205
Rp1206
(dp1207
g36
g115
sg53
(dp1208
g55
g612
ssg1124
Nsg553
I29
sg1125
g32
sg1126
F1.0
sbag0
(g1204
g2
Ntp1209
Rp1210
(dp1211
g36
g117
sg53
(dp1212
g55
g615
ssg1124
Nsg553
I30
sg1125
g32
sg1126
F1.0
sbag0
(g1204
g2
Ntp1213
Rp1214
(dp1215
g36
g119
sg53
(dp1216
g55
g618
ssg1124
Nsg553
I31
sg1125
g32
sg1126
F1.0
sbag0
(g1204
g2
Ntp1217
Rp1218
(dp1219
g36
g121
sg53
(dp1220
g55
g621
ssg1124
Nsg553
I32
sg1125
g32
sg1126
F1.0
sbag0
(g1204
g2
Ntp1221
Rp1222
(dp1223
g36
g123
sg53
(dp1224
g55
g624
ssg1124
Nsg553
I33
sg1125
g32
sg1126
F1.0
sbag0
(g1204
g2
Ntp1225
Rp1226
(dp1227
g36
g125
sg53
(dp1228
g55
g627
ssg1124
Nsg553
I34
sg1125
g32
sg1126
F1.0
sbag0
(g1204
g2
Ntp1229
Rp1230
(dp1231
g36
g127
sg53
(dp1232
g55
g630
ssg1124
Nsg553
I35
sg1125
g32
sg1126
F1.0
sbag0
(g1204
g2
Ntp1233
Rp1234
(dp1235
g36
g129
sg53
(dp1236
g55
g633
ssg1124
Nsg553
I36
sg1125
g32
sg1126
F1.0
sbag0
(g1204
g2
Ntp1237
Rp1238
(dp1239
g36
g131
sg53
(dp1240
g55
g636
ssg1124
Nsg553
I37
sg1125
g32
sg1126
F1.0
sbag0
(g1204
g2
Ntp1241
Rp1242
(dp1243
g36
g133
sg53
(dp1244
g55
g639
ssg1124
Nsg553
I38
sg1125
g32
sg1126
F1.0
sbag0
(g1204
g2
Ntp1245
Rp1246
(dp1247
g36
g135
sg53
(dp1248
g55
g642
ssg1124
Nsg553
I39
sg1125
g32
sg1126
F1.0
sbag0
(g1204
g2
Ntp1249
Rp1250
(dp1251
g36
g137
sg53
(dp1252
g55
g645
ssg1124
Nsg553
I40
sg1125
g32
sg1126
F1.0
sbag0
(g1204
g2
Ntp1253
Rp1254
(dp1255
g36
g139
sg53
(dp1256
g55
g648
ssg1124
Nsg553
I41
sg1125
g32
sg1126
F1.0
sbag0
(g1204
g2
Ntp1257
Rp1258
(dp1259
g36
g141
sg53
(dp1260
g55
g651
ssg1124
Nsg553
I42
sg1125
g32
sg1126
F1.0
sbag0
(clanguage_schemas
CPT_RELATION_SCHEMA
p1261
g2
Ntp1262
Rp1263
(dp1264
g36
g143
sg53
(dp1265
g827
Nsg55
g654
sg828
Nssg1124
Nsg553
I43
sg1125
g32
sg1126
F1.0
sbag0
(g1261
g2
Ntp1266
Rp1267
(dp1268
g36
g145
sg53
(dp1269
g827
Nsg55
g657
sg828
Nssg1124
Nsg553
I44
sg1125
g32
sg1126
F1.0
sbag0
(g1261
g2
Ntp1270
Rp1271
(dp1272
g36
g147
sg53
(dp1273
g827
Nsg55
g660
sg828
Nssg1124
Nsg553
I45
sg1125
g32
sg1126
F1.0
sbag0
(g1261
g2
Ntp1274
Rp1275
(dp1276
g36
g149
sg53
(dp1277
g827
Nsg55
g663
sg828
Nssg1124
Nsg553
I46
sg1125
g32
sg1126
F1.0
sbag0
(g1261
g2
Ntp1278
Rp1279
(dp1280
g36
g151
sg53
(dp1281
g827
Nsg55
g666
sg828
Nssg1124
Nsg553
I47
sg1125
g32
sg1126
F1.0
sbag0
(g1261
g2
Ntp1282
Rp1283
(dp1284
g36
g153
sg53
(dp1285
g827
Nsg55
g669
sg828
Nssg1124
Nsg553
I48
sg1125
g32
sg1126
F1.0
sbag0
(g1261
g2
Ntp1286
Rp1287
(dp1288
g36
g155
sg53
(dp1289
g827
Nsg55
g672
sg828
Nssg1124
Nsg553
I49
sg1125
g32
sg1126
F1.0
sbag0
(g1261
g2
Ntp1290
Rp1291
(dp1292
g36
g157
sg53
(dp1293
g827
Nsg55
g675
sg828
Nssg1124
Nsg553
I50
sg1125
g32
sg1126
F1.0
sbag0
(g1261
g2
Ntp1294
Rp1295
(dp1296
g36
g159
sg53
(dp1297
g827
Nsg55
g678
sg828
Nssg1124
Nsg553
I51
sg1125
g32
sg1126
F1.0
sbag0
(g1261
g2
Ntp1298
Rp1299
(dp1300
g36
g161
sg53
(dp1301
g827
Nsg55
g681
sg828
Nssg1124
Nsg553
I52
sg1125
g32
sg1126
F1.0
sbag0
(g1261
g2
Ntp1302
Rp1303
(dp1304
g36
g163
sg53
(dp1305
g827
Nsg55
g684
sg828
Nssg1124
Nsg553
I53
sg1125
g32
sg1126
F1.0
sbag0
(g1261
g2
Ntp1306
Rp1307
(dp1308
g36
g165
sg53
(dp1309
g827
Nsg55
g687
sg828
Nssg1124
Nsg553
I54
sg1125
g32
sg1126
F1.0
sbag0
(g1261
g2
Ntp1310
Rp1311
(dp1312
g36
g167
sg53
(dp1313
g827
Nsg55
g690
sg828
Nssg1124
Nsg553
I55
sg1125
g32
sg1126
F1.0
sbag0
(g1261
g2
Ntp1314
Rp1315
(dp1316
g36
g169
sg53
(dp1317
g827
Nsg55
g693
sg828
Nssg1124
Nsg553
I56
sg1125
g32
sg1126
F1.0
sbag0
(g1261
g2
Ntp1318
Rp1319
(dp1320
g36
g171
sg53
(dp1321
g827
Nsg55
g696
sg828
Nssg1124
Nsg553
I57
sg1125
g32
sg1126
F1.0
sbag0
(g1261
g2
Ntp1322
Rp1323
(dp1324
g36
g173
sg53
(dp1325
g827
Nsg55
g699
sg828
Nssg1124
Nsg553
I58
sg1125
g32
sg1126
F1.0
sbag0
(g1261
g2
Ntp1326
Rp1327
(dp1328
g36
g175
sg53
(dp1329
g827
Nsg55
g702
sg828
Nssg1124
Nsg553
I59
sg1125
g32
sg1126
F1.0
sbag0
(g1261
g2
Ntp1330
Rp1331
(dp1332
g36
g177
sg53
(dp1333
g827
Nsg55
g705
sg828
Nssg1124
Nsg553
I60
sg1125
g32
sg1126
F1.0
sbag0
(g48
g2
Ntp1334
Rp1335
(dp1336
g36
g179
sg53
(dp1337
g55
g708
ssg1124
Nsg553
I61
sg1125
g32
sg1126
F1.0
sbag0
(clanguage_schemas
CPT_ENTITY_SCHEMA
p1338
g2
Ntp1339
Rp1340
(dp1341
g36
g181
sg53
(dp1342
g55
g711
ssg1124
Nsg553
I62
sg1125
g32
sg1126
F1.0
sbag0
(g1338
g2
Ntp1343
Rp1344
(dp1345
g36
g183
sg53
(dp1346
g55
g714
ssg1124
Nsg553
I63
sg1125
g32
sg1126
F1.0
sbag0
(g1338
g2
Ntp1347
Rp1348
(dp1349
g36
g185
sg53
(dp1350
g55
g717
ssg1124
Nsg553
I64
sg1125
g32
sg1126
F1.0
sbag0
(g1338
g2
Ntp1351
Rp1352
(dp1353
g36
g187
sg53
(dp1354
g55
g720
ssg1124
Nsg553
I65
sg1125
g32
sg1126
F1.0
sbag0
(g1338
g2
Ntp1355
Rp1356
(dp1357
g36
g189
sg53
(dp1358
g55
g723
ssg1124
Nsg553
I66
sg1125
g32
sg1126
F1.0
sbag0
(g1338
g2
Ntp1359
Rp1360
(dp1361
g36
g191
sg53
(dp1362
g55
g726
ssg1124
Nsg553
I67
sg1125
g32
sg1126
F1.0
sbag0
(g1338
g2
Ntp1363
Rp1364
(dp1365
g36
g193
sg53
(dp1366
g55
g729
ssg1124
Nsg553
I68
sg1125
g32
sg1126
F1.0
sbag0
(g1338
g2
Ntp1367
Rp1368
(dp1369
g36
g195
sg53
(dp1370
g55
g732
ssg1124
Nsg553
I69
sg1125
g32
sg1126
F1.0
sbag0
(g1338
g2
Ntp1371
Rp1372
(dp1373
g36
g197
sg53
(dp1374
g55
g735
ssg1124
Nsg553
I70
sg1125
g32
sg1126
F1.0
sbag0
(g1338
g2
Ntp1375
Rp1376
(dp1377
g36
g199
sg53
(dp1378
g55
g738
ssg1124
Nsg553
I71
sg1125
g32
sg1126
F1.0
sbag0
(g1338
g2
Ntp1379
Rp1380
(dp1381
g36
g201
sg53
(dp1382
g55
g741
ssg1124
Nsg553
I72
sg1125
g32
sg1126
F1.0
sbag0
(g1338
g2
Ntp1383
Rp1384
(dp1385
g36
g203
sg53
(dp1386
g55
g744
ssg1124
Nsg553
I73
sg1125
g32
sg1126
F1.0
sbag0
(g1338
g2
Ntp1387
Rp1388
(dp1389
g36
g205
sg53
(dp1390
g55
g747
ssg1124
Nsg553
I74
sg1125
g32
sg1126
F1.0
sbag0
(g1338
g2
Ntp1391
Rp1392
(dp1393
g36
g207
sg53
(dp1394
g55
g750
ssg1124
Nsg553
I75
sg1125
g32
sg1126
F1.0
sbag0
(g1338
g2
Ntp1395
Rp1396
(dp1397
g36
g209
sg53
(dp1398
g55
g753
ssg1124
Nsg553
I76
sg1125
g32
sg1126
F1.0
sbag0
(g1338
g2
Ntp1399
Rp1400
(dp1401
g36
g211
sg53
(dp1402
g55
g756
ssg1124
Nsg553
I77
sg1125
g32
sg1126
F1.0
sbag0
(g1338
g2
Ntp1403
Rp1404
(dp1405
g36
g213
sg53
(dp1406
g55
g759
ssg1124
Nsg553
I78
sg1125
g32
sg1126
F1.0
sbag0
(g1338
g2
Ntp1407
Rp1408
(dp1409
g36
g215
sg53
(dp1410
g55
g762
ssg1124
Nsg553
I79
sg1125
g32
sg1126
F1.0
sbag0
(g1338
g2
Ntp1411
Rp1412
(dp1413
g36
g217
sg53
(dp1414
g55
g765
ssg1124
Nsg553
I80
sg1125
g32
sg1126
F1.0
sbag0
(g1338
g2
Ntp1415
Rp1416
(dp1417
g36
g219
sg53
(dp1418
g55
g768
ssg1124
Nsg553
I81
sg1125
g32
sg1126
F1.0
sbag0
(g1338
g2
Ntp1419
Rp1420
(dp1421
g36
g221
sg53
(dp1422
g55
g771
ssg1124
Nsg553
I82
sg1125
g32
sg1126
F1.0
sbag0
(g1338
g2
Ntp1423
Rp1424
(dp1425
g36
g223
sg53
(dp1426
g55
g774
ssg1124
Nsg553
I83
sg1125
g32
sg1126
F1.0
sbag0
(g1338
g2
Ntp1427
Rp1428
(dp1429
g36
g225
sg53
(dp1430
g55
g777
ssg1124
Nsg553
I84
sg1125
g32
sg1126
F1.0
sbag0
(g1338
g2
Ntp1431
Rp1432
(dp1433
g36
g227
sg53
(dp1434
g55
g780
ssg1124
Nsg553
I85
sg1125
g32
sg1126
F1.0
sbag0
(g1338
g2
Ntp1435
Rp1436
(dp1437
g36
g229
sg53
(dp1438
g55
g783
ssg1124
Nsg553
I86
sg1125
g32
sg1126
F1.0
sbag0
(g1338
g2
Ntp1439
Rp1440
(dp1441
g36
g231
sg53
(dp1442
g55
g786
ssg1124
Nsg553
I87
sg1125
g32
sg1126
F1.0
sbag0
(g1338
g2
Ntp1443
Rp1444
(dp1445
g36
g233
sg53
(dp1446
g55
g789
ssg1124
Nsg553
I88
sg1125
g32
sg1126
F1.0
sbag0
(g1338
g2
Ntp1447
Rp1448
(dp1449
g36
g235
sg53
(dp1450
g55
g792
ssg1124
Nsg553
I89
sg1125
g32
sg1126
F1.0
sbag0
(g1338
g2
Ntp1451
Rp1452
(dp1453
g36
g237
sg53
(dp1454
g55
g795
ssg1124
Nsg553
I90
sg1125
g32
sg1126
F1.0
sbag0
(g1338
g2
Ntp1455
Rp1456
(dp1457
g36
g239
sg53
(dp1458
g55
g798
ssg1124
Nsg553
I91
sg1125
g32
sg1126
F1.0
sbag0
(g1338
g2
Ntp1459
Rp1460
(dp1461
g36
g241
sg53
(dp1462
g55
g801
ssg1124
Nsg553
I92
sg1125
g32
sg1126
F1.0
sbag0
(g1338
g2
Ntp1463
Rp1464
(dp1465
g36
g243
sg53
(dp1466
g55
g804
ssg1124
Nsg553
I93
sg1125
g32
sg1126
F1.0
sbag0
(g1338
g2
Ntp1467
Rp1468
(dp1469
g36
g245
sg53
(dp1470
g55
g807
ssg1124
Nsg553
I94
sg1125
g32
sg1126
F1.0
sbag0
(g1338
g2
Ntp1471
Rp1472
(dp1473
g36
g247
sg53
(dp1474
g55
g810
ssg1124
Nsg553
I95
sg1125
g32
sg1126
F1.0
sbag0
(g1338
g2
Ntp1475
Rp1476
(dp1477
g36
g249
sg53
(dp1478
g55
g813
ssg1124
Nsg553
I96
sg1125
g32
sg1126
F1.0
sbag0
(g1338
g2
Ntp1479
Rp1480
(dp1481
g36
g251
sg53
(dp1482
g55
g816
ssg1124
Nsg553
I97
sg1125
g32
sg1126
F1.0
sbag0
(g1338
g2
Ntp1483
Rp1484
(dp1485
g36
g253
sg53
(dp1486
g55
g819
ssg1124
Nsg553
I98
sg1125
g32
sg1126
F1.0
sbasg263
S'OUT'
p1487
sg553
I11
sS'schema'
p1488
g32
sbag0
(g40
g2
Ntp1489
Rp1490
(dp1491
g36
S'to_semantic_WM'
p1492
sg45
Nsg46
g47
sg263
g1487
sg553
I12
sg1488
g32
sbasS'outputs'
p1493
(dp1494
g44
Nsg1492
NssS'connections'
p1495
(lp1496
sS'cpt_knowledge'
p1497
g64
sS'dt'
p1498
F1.0
sS'in_ports'
p1499
(lp1500
sS'params'
p1501
(dp1502
g1126
F1.0
ssS't'
p1503
I0
sS'activity'
p1504
I0
sg1124
g0
(cschema_theory
MODEL
p1505
g2
Ntp1506
Rp1507
(dp1508
S'verbose'
p1509
I00
sg36
S'language_system_P'
p1510
sS'sim_data'
p1511
(dp1512
S'system_states'
p1513
(dp1514
sg1124
(dp1515
ssg1493
(dp1516
sS'input_ports'
p1517
(lp1518
g0
(g40
g2
Ntp1519
Rp1520
(dp1521
g36
S'from_conceptualizer'
p1522
sg45
Nsg46
Nsg263
S'IN'
p1523
sg553
I1
sg1488
g0
(clanguage_schemas
SEMANTIC_WM
p1524
g2
Ntp1525
Rp1526
(dp1527
g34
(dp1528
S'from_grammatical_WM_P'
p1529
NsS'from_concept_LTM'
p1530
NsS'from_control'
p1531
NsS'from_grammatical_WM_C'
p1532
Nsg1522
NssS'schema_insts'
p1533
(lp1534
sg36
S'Semantic_WM'
p1535
sS'comp_links'
p1536
(lp1537
sg38
(lp1538
g0
(g40
g2
Ntp1539
Rp1540
(dp1541
S'port_data'
p1542
Nsg36
S'to_grammatical_WM_P'
p1543
sg45
Nsg46
NsS'port_value'
p1544
Nsg263
g1487
sg553
I6
sg1488
g1526
sbag0
(g40
g2
Ntp1545
Rp1546
(dp1547
g1542
Nsg36
S'to_cxn_retrieval_P'
p1548
sg45
Nsg46
Nsg1544
Nsg263
g1487
sg553
I7
sg1488
g1526
sbag0
(g40
g2
Ntp1549
Rp1550
(dp1551
g1542
Nsg36
S'to_control'
p1552
sg45
Nsg46
Nsg1544
Nsg263
g1487
sg553
I8
sg1488
g1526
sbag0
(g40
g2
Ntp1553
Rp1554
(dp1555
g36
S'to_visual_WM'
p1556
sg45
Nsg46
Nsg263
g1487
sg553
I9
sg1488
g1526
sbag0
(g40
g2
Ntp1557
Rp1558
(dp1559
g36
S'to_output'
p1560
sg45
Nsg46
Nsg263
g1487
sg553
I10
sg1488
g1526
sbasg1493
(dp1561
g1560
Nsg1543
Nsg1556
Nsg1548
Nsg1552
Nssg1498
F1.0
sS'coop_links'
p1562
(lp1563
sg1499
(lp1564
g1520
ag0
(g40
g2
Ntp1565
Rp1566
(dp1567
g36
g1530
sg45
Nsg46
Nsg263
g1523
sg553
I2
sg1488
g1526
sbag0
(g40
g2
Ntp1568
Rp1569
(dp1570
g36
g1532
sg45
Nsg46
Nsg263
g1523
sg553
I3
sg1488
g1526
sbag0
(g40
g2
Ntp1571
Rp1572
(dp1573
g1542
Nsg36
g1529
sg45
Nsg46
Nsg1544
Nsg263
g1523
sg553
I4
sg1488
g1526
sbag0
(g40
g2
Ntp1574
Rp1575
(dp1576
g1542
Nsg36
g1531
sg45
Nsg46
S'produce'
p1577
sg1544
Nsg263
g1523
sg553
I5
sg1488
g1526
sbasS'save_state'
p1578
(dp1579
S'insts'
p1580
(dp1581
sS'WM_activity'
p1582
(dp1583
S'comp'
p1584
(lp1585
sS'c2_network'
p1586
(dp1587
S'num_insts'
p1588
(lp1589
sS'num_coop_links'
p1590
(lp1591
sS'num_comp_links'
p1592
(lp1593
ssS'coop'
p1594
(lp1595
sg1503
(lp1596
sS'act'
p1597
(lp1598
sssg1501
(dp1599
S'C2'
p1600
(dp1601
S'P_comp'
p1602
F1.0
sS'comp_weight'
p1603
F0.0
sS'P_coop'
p1604
F1.0
sS'coop_asymmetry'
p1605
F1.0
sS'coop_weight'
p1606
F0.0
sS'confidence_threshold'
p1607
F0.0
sS'comp_asymmetry'
p1608
F0.0
sS'prune_threshold'
p1609
F0.01
ssS'dyn'
p1610
(dp1611
S'tau'
p1612
F10000.0
sS'k'
p1613
F10.0
sS'act_rest'
p1614
F0.001
sS'noise_mean'
p1615
F0.0
sS'noise_std'
p1616
F1.0
sS'ext_weight'
p1617
F1.0
sS'int_weight'
p1618
F1.0
sssg1503
I0
sg1504
I0
sg1124
g1507
sS'SemRep'
p1619
g0
(g67
g2
Ntp1620
Rp1621
(dp1622
g71
(dp1623
sg254
g255
sg256
g255
sg257
(dp1624
sg451
g1624
sg66
(dp1625
sg453
g255
sg454
g1624
sg455
(dp1626
sbsg553
I1
sbsbasS'brain_mapping'
p1627
g0
(cschema_theory
BRAIN_MAPPING
p1628
g2
Ntp1629
Rp1630
(dp1631
S'schema_mapping'
p1632
(dp1633
S'Control'
p1634
(lp1635
S'DLPFC'
p1636
asS'Utter'
p1637
(lp1638
S''
p1639
asg1535
(lp1640
S'left_SFG'
p1641
aS'LIP'
p1642
aS'Hippocampus'
p1643
asS'Phonological_WM_P'
p1644
(lp1645
S'left_BA6'
p1646
asg37
(lp1647
g1639
asS'Grammatical_WM_P'
p1648
(lp1649
S'left_BA45'
p1650
aS'leftBA44'
p1651
asS'Grammatical_LTM'
p1652
(lp1653
S'left_STG'
p1654
aS'left_MTG'
p1655
asS'Cxn_retrieval_P'
p1656
(lp1657
ssS'connect_mapping'
p1658
(dp1659
sbsg1495
(lp1660
g0
(cschema_theory
CONNECT
p1661
g2
Ntp1662
Rp1663
(dp1664
S'delay'
p1665
I0
sg36
g1639
sS'weight'
p1666
I0
sS'port_to'
p1667
g0
(g40
g2
Ntp1668
Rp1669
(dp1670
g1542
Nsg36
S'from_semantic_WM'
p1671
sg45
Nsg46
Nsg1544
Nsg263
g1523
sg553
I23
sg1488
g0
(clanguage_schemas
CXN_RETRIEVAL_P
p1672
g2
Ntp1673
Rp1674
(dp1675
g34
(dp1676
g1671
NsS'from_grammatical_LTM'
p1677
Nssg36
g1656
sg38
(lp1678
g0
(g40
g2
Ntp1679
Rp1680
(dp1681
g1542
Nsg36
g1543
sg45
Nsg46
Nsg1544
Nsg263
g1487
sg553
I24
sg1488
g1674
sbasg1493
(dp1682
g1543
NssS'cxn_instances'
p1683
(lp1684
sg1498
F1.0
sg1499
(lp1685
g0
(g40
g2
Ntp1686
Rp1687
(dp1688
g1542
Nsg36
g1677
sg45
Nsg46
(lp1689
g0
(clanguage_schemas
CXN_SCHEMA
p1690
g2
Ntp1691
Rp1692
(dp1693
g36
VCNJ_AND
p1694
sg53
(iconstruction
CXN
p1695
(dp1696
S'SymLinks'
p1697
(iconstruction
TP_SYMLINKS
p1698
(dp1699
S'SL'
p1700
(dp1701
VEVT1_4
p1702
VS1_6
p1703
sVEVT2_5
p1704
VS3_8
p1705
ssg553
I3
sg36
g1639
sbsS'clss'
p1706
VD
p1707
sS'group'
p1708
I3
sg36
g1694
sS'SemFrame'
p1709
(iconstruction
TP_SEMFRAME
p1710
(dp1711
g66
g0
(g67
g2
Ntp1712
Rp1713
(dp1714
g71
(dp1715
(iconstruction
TP_NODE
p1716
(dp1717
S'head'
p1718
I00
sg55
g708
sg36
g1704
sS'frame'
p1719
I00
sS'focus'
p1720
I00
sg553
I5
sb(dp1721
g1719
I00
sg55
g708
ss(iconstruction
TP_NODE
p1722
(dp1723
g1718
I00
sg55
g708
sg36
g1702
sg1719
I00
sg1720
I01
sg553
I4
sb(dp1724
g1719
I00
sg55
g708
sssg254
g255
sg256
g255
sg257
(dp1725
g1716
(dp1726
sg1722
(dp1727
ssg451
g1725
sg66
(dp1728
sg453
g255
sg454
g1725
sg455
(dp1729
g1716
(dp1730
sg1722
(dp1731
ssbsg548
(lp1732
g1722
ag1716
asg821
(lp1733
sg553
I1
sg36
g1639
sbsS'SynForm'
p1734
(iconstruction
TP_SYNFORM
p1735
(dp1736
g553
I2
sS'form'
p1737
(lp1738
(iconstruction
TP_SLOT
p1739
(dp1740
S'cxn_classes'
p1741
(lp1742
VS
p1743
asS'order'
p1744
I0
sg553
I6
sg36
g1703
sba(iconstruction
TP_PHON
p1745
(dp1746
S'num_syllables'
p1747
I3
sg1744
I1
sg553
I7
sS'cxn_phonetics'
p1748
Vand
p1749
sg36
VS2_7
p1750
sba(iconstruction
TP_SLOT
p1751
(dp1752
g1741
(lp1753
VS
p1754
asg1744
I2
sg553
I8
sg36
g1705
sbasg36
g1639
sbsS'preference'
p1755
I1
sbsg1124
Nsg553
I99
sg1125
g0
(clanguage_schemas
GRAMMATICAL_LTM
p1756
g2
Ntp1757
Rp1758
(dp1759
g34
(dp1760
sS'grammar'
p1761
(iconstruction
GRAMMAR
p1762
(dp1763
S'constructions'
p1764
(lp1765
g1695
a(iconstruction
CXN
p1766
(dp1767
g1697
(iconstruction
TP_SYMLINKS
p1768
(dp1769
g1700
(dp1770
VEVT2_13
p1771
VS3_17
p1772
sVEVT1_12
p1773
VS1_15
p1774
ssg553
I11
sg36
g1639
sbsg1706
VD
p1775
sg1708
I3
sg36
VCNJ_THEN
p1776
sg1709
(iconstruction
TP_SEMFRAME
p1777
(dp1778
g66
g0
(g67
g2
Ntp1779
Rp1780
(dp1781
g71
(dp1782
(iconstruction
TP_NODE
p1783
(dp1784
g1718
I00
sg55
g708
sg36
g1771
sg1719
I00
sg1720
I00
sg553
I13
sb(dp1785
g1719
I00
sg55
g708
ss(iconstruction
TP_NODE
p1786
(dp1787
g1718
I00
sg55
g708
sg36
g1773
sg1719
I00
sg1720
I00
sg553
I12
sb(dp1788
g1719
I00
sg55
g708
sssg254
g255
sg256
g255
sg257
(dp1789
g1783
(dp1790
sg1786
(dp1791
g1783
(dp1792
g55
g693
ssssg451
g1789
sg66
(dp1793
sg453
g255
sg454
g1789
sg455
(dp1794
g1783
(dp1795
g1786
g1792
ssg1786
(dp1796
ssbsg548
(lp1797
g1786
ag1783
asg821
(lp1798
(iconstruction
TP_REL
p1799
(dp1800
g827
g1783
sg55
g693
sg553
I14
sg828
g1786
sg36
VEVT1_EVT2_14
p1801
sbasg553
I9
sg36
g1639
sbsg1734
(iconstruction
TP_SYNFORM
p1802
(dp1803
g553
I10
sg1737
(lp1804
(iconstruction
TP_SLOT
p1805
(dp1806
g1741
(lp1807
VS
p1808
asg1744
I0
sg553
I15
sg36
g1774
sba(iconstruction
TP_PHON
p1809
(dp1810
g1747
I4
sg1744
I1
sg553
I16
sg1748
Vthen
p1811
sg36
VS2_16
p1812
sba(iconstruction
TP_SLOT
p1813
(dp1814
g1741
(lp1815
VS
p1816
asg1744
I2
sg553
I17
sg36
g1772
sbasg36
g1639
sbsg1755
I1
sba(iconstruction
CXN
p1817
(dp1818
g1697
(iconstruction
TP_SYMLINKS
p1819
(dp1820
g1700
(dp1821
VEVT2_22
p1822
VS3_26
p1823
sVEVT1_21
p1824
VS1_24
p1825
ssg553
I20
sg36
g1639
sbsg1706
VD
p1826
sg1708
I3
sg36
VCNJ_WHILE
p1827
sg1709
(iconstruction
TP_SEMFRAME
p1828
(dp1829
g66
g0
(g67
g2
Ntp1830
Rp1831
(dp1832
g71
(dp1833
(iconstruction
TP_NODE
p1834
(dp1835
g1718
I00
sg55
g708
sg36
g1822
sg1719
I00
sg1720
I00
sg553
I22
sb(dp1836
g1719
I00
sg55
g708
ss(iconstruction
TP_NODE
p1837
(dp1838
g1718
I00
sg55
g708
sg36
g1824
sg1719
I00
sg1720
I01
sg553
I21
sb(dp1839
g1719
I00
sg55
g708
sssg254
g255
sg256
g255
sg257
(dp1840
g1834
(dp1841
sg1837
(dp1842
g1834
(dp1843
g55
g690
ssssg451
g1840
sg66
(dp1844
sg453
g255
sg454
g1840
sg455
(dp1845
g1834
(dp1846
g1837
g1843
ssg1837
(dp1847
ssbsg548
(lp1848
g1837
ag1834
asg821
(lp1849
(iconstruction
TP_REL
p1850
(dp1851
g827
g1834
sg55
g690
sg553
I23
sg828
g1837
sg36
VEVT1_EVT2_23
p1852
sbasg553
I18
sg36
g1639
sbsg1734
(iconstruction
TP_SYNFORM
p1853
(dp1854
g553
I19
sg1737
(lp1855
(iconstruction
TP_SLOT
p1856
(dp1857
g1741
(lp1858
VS
p1859
asg1744
I0
sg553
I24
sg36
g1825
sba(iconstruction
TP_PHON
p1860
(dp1861
g1747
I5
sg1744
I1
sg553
I25
sg1748
Vwhile
p1862
sg36
VS2_25
p1863
sba(iconstruction
TP_SLOT
p1864
(dp1865
g1741
(lp1866
VS
p1867
asg1744
I2
sg553
I26
sg36
g1823
sbasg36
g1639
sbsg1755
I1
sba(iconstruction
CXN
p1868
(dp1869
g1697
(iconstruction
TP_SYMLINKS
p1870
(dp1871
g1700
(dp1872
VACT_31
p1873
VS4_40
p1874
sVACTOR_1_32
p1875
VS1_37
p1876
sVACTOR_2_33
p1877
VS3_39
p1878
ssg553
I29
sg36
g1639
sbsg1706
VS
p1879
sg1708
Nsg36
VSYMMETRIC_TRANS
p1880
sg1709
(iconstruction
TP_SEMFRAME
p1881
(dp1882
g66
g0
(g67
g2
Ntp1883
Rp1884
(dp1885
g71
(dp1886
(iconstruction
TP_NODE
p1887
(dp1888
g1718
I01
sg55
g708
sg36
VEVT_30
p1889
sg1719
I01
sg1720
I00
sg553
I30
sb(dp1890
g1719
I01
sg55
g708
ss(iconstruction
TP_NODE
p1891
(dp1892
g1718
I00
sg55
g711
sg36
g1875
sg1719
I01
sg1720
I01
sg553
I32
sb(dp1893
g1719
I01
sg55
g711
ss(iconstruction
TP_NODE
p1894
(dp1895
g1718
I00
sg55
g555
sg36
g1873
sg1719
I01
sg1720
I00
sg553
I31
sb(dp1896
g1719
I01
sg55
g555
ss(iconstruction
TP_NODE
p1897
(dp1898
g1718
I00
sg55
g711
sg36
g1877
sg1719
I01
sg1720
I00
sg553
I33
sb(dp1899
g1719
I01
sg55
g711
sssg254
g255
sg256
g255
sg257
(dp1900
g1887
(dp1901
g1894
(dp1902
g55
g702
sssg1891
(dp1903
sg1894
(dp1904
g1891
(dp1905
g55
g678
ssg1897
(dp1906
g55
g678
sssg1897
(dp1907
ssg451
g1900
sg66
(dp1908
sg453
g255
sg454
g1900
sg455
(dp1909
g1887
(dp1910
sg1891
(dp1911
g1894
g1905
ssg1894
(dp1912
g1887
g1902
ssg1897
(dp1913
g1894
g1906
sssbsg548
(lp1914
g1887
ag1894
ag1891
ag1897
asg821
(lp1915
(iconstruction
TP_REL
p1916
(dp1917
g827
g1894
sg55
g702
sg553
I34
sg828
g1887
sg36
VIS_34
p1918
sba(iconstruction
TP_REL
p1919
(dp1920
g827
g1891
sg55
g678
sg553
I35
sg828
g1894
sg36
VAGT_PT_1_35
p1921
sba(iconstruction
TP_REL
p1922
(dp1923
g827
g1897
sg55
g678
sg553
I36
sg828
g1894
sg36
VAGT_PT_2_36
p1924
sbasg553
I27
sg36
g1639
sbsg1734
(iconstruction
TP_SYNFORM
p1925
(dp1926
g553
I28
sg1737
(lp1927
(iconstruction
TP_SLOT
p1928
(dp1929
g1741
(lp1930
VNP
p1931
aVN
p1932
asg1744
I0
sg553
I37
sg36
g1876
sba(iconstruction
TP_PHON
p1933
(dp1934
g1747
I3
sg1744
I1
sg553
I38
sg1748
Vand
p1935
sg36
VS2_38
p1936
sba(iconstruction
TP_SLOT
p1937
(dp1938
g1741
(lp1939
VNP
p1940
aVN
p1941
asg1744
I2
sg553
I39
sg36
g1878
sba(iconstruction
TP_SLOT
p1942
(dp1943
g1741
(lp1944
VVP
p1945
aVV
p1946
asg1744
I3
sg553
I40
sg36
g1874
sbasg36
g1639
sbsg1755
I1
sba(iconstruction
CXN
p1947
(dp1948
g1697
(iconstruction
TP_SYMLINKS
p1949
(dp1950
g1700
(dp1951
VAGT_46
p1952
VS1_51
p1953
sVACT_45
p1954
VS2_52
p1955
sVPT_47
p1956
VS3_53
p1957
ssg553
I43
sg36
g1639
sbsg1706
VS
p1958
sg1708
I2
sg36
VSVO
p1959
sg1709
(iconstruction
TP_SEMFRAME
p1960
(dp1961
g66
g0
(g67
g2
Ntp1962
Rp1963
(dp1964
g71
(dp1965
(iconstruction
TP_NODE
p1966
(dp1967
g1718
I01
sg55
g708
sg36
VEVT_44
p1968
sg1719
I01
sg1720
I00
sg553
I44
sb(dp1969
g1719
I01
sg55
g708
ss(iconstruction
TP_NODE
p1970
(dp1971
g1718
I00
sg55
g711
sg36
g1952
sg1719
I01
sg1720
I01
sg553
I46
sb(dp1972
g1719
I01
sg55
g711
ss(iconstruction
TP_NODE
p1973
(dp1974
g1718
I00
sg55
g711
sg36
g1956
sg1719
I01
sg1720
I00
sg553
I47
sb(dp1975
g1719
I01
sg55
g711
ss(iconstruction
TP_NODE
p1976
(dp1977
g1718
I00
sg55
g555
sg36
g1954
sg1719
I01
sg1720
I00
sg553
I45
sb(dp1978
g1719
I01
sg55
g555
sssg254
g255
sg256
g255
sg257
(dp1979
g1966
(dp1980
g1976
(dp1981
g55
g702
sssg1970
(dp1982
sg1973
(dp1983
sg1976
(dp1984
g1970
(dp1985
g55
g681
ssg1973
(dp1986
g55
g675
ssssg451
g1979
sg66
(dp1987
sg453
g255
sg454
g1979
sg455
(dp1988
g1966
(dp1989
sg1970
(dp1990
g1976
g1985
ssg1973
(dp1991
g1976
g1986
ssg1976
(dp1992
g1966
g1981
sssbsg548
(lp1993
g1966
ag1976
ag1970
ag1973
asg821
(lp1994
(iconstruction
TP_REL
p1995
(dp1996
g827
g1976
sg55
g702
sg553
I48
sg828
g1966
sg36
VIS_48
p1997
sba(iconstruction
TP_REL
p1998
(dp1999
g827
g1970
sg55
g681
sg553
I49
sg828
g1976
sg36
VACT_AGT_49
p2000
sba(iconstruction
TP_REL
p2001
(dp2002
g827
g1973
sg55
g675
sg553
I50
sg828
g1976
sg36
VACT_PT_50
p2003
sbasg553
I41
sg36
g1639
sbsg1734
(iconstruction
TP_SYNFORM
p2004
(dp2005
g553
I42
sg1737
(lp2006
(iconstruction
TP_SLOT
p2007
(dp2008
g1741
(lp2009
VNP
p2010
aVN
p2011
asg1744
I0
sg553
I51
sg36
g1953
sba(iconstruction
TP_SLOT
p2012
(dp2013
g1741
(lp2014
VVP
p2015
aVV
p2016
asg1744
I1
sg553
I52
sg36
g1955
sba(iconstruction
TP_SLOT
p2017
(dp2018
g1741
(lp2019
VNP
p2020
aVN
p2021
asg1744
I2
sg553
I53
sg36
g1957
sbasg36
g1639
sbsg1755
I1
sba(iconstruction
CXN
p2022
(dp2023
g1697
(iconstruction
TP_SYMLINKS
p2024
(dp2025
g1700
(dp2026
VPT_60
p2027
VS1_64
p2028
sVACT_58
p2029
VS3_66
p2030
sVAGT_59
p2031
VS6_69
p2032
ssg553
I56
sg36
g1639
sbsg1706
VS
p2033
sg1708
I2
sg36
VPAS_SVO
p2034
sg1709
(iconstruction
TP_SEMFRAME
p2035
(dp2036
g66
g0
(g67
g2
Ntp2037
Rp2038
(dp2039
g71
(dp2040
(iconstruction
TP_NODE
p2041
(dp2042
g1718
I00
sg55
g555
sg36
g2029
sg1719
I01
sg1720
I00
sg553
I58
sb(dp2043
g1719
I01
sg55
g555
ss(iconstruction
TP_NODE
p2044
(dp2045
g1718
I00
sg55
g711
sg36
g2031
sg1719
I01
sg1720
I00
sg553
I59
sb(dp2046
g1719
I01
sg55
g711
ss(iconstruction
TP_NODE
p2047
(dp2048
g1718
I01
sg55
g708
sg36
VEVT_57
p2049
sg1719
I01
sg1720
I00
sg553
I57
sb(dp2050
g1719
I01
sg55
g708
ss(iconstruction
TP_NODE
p2051
(dp2052
g1718
I00
sg55
g711
sg36
g2027
sg1719
I01
sg1720
I01
sg553
I60
sb(dp2053
g1719
I01
sg55
g711
sssg254
g255
sg256
g255
sg257
(dp2054
g2041
(dp2055
g2051
(dp2056
g55
g675
ssg2044
(dp2057
g55
g681
sssg2044
(dp2058
sg2047
(dp2059
g2041
(dp2060
g55
g702
sssg2051
(dp2061
ssg451
g2054
sg66
(dp2062
sg453
g255
sg454
g2054
sg455
(dp2063
g2041
(dp2064
g2047
g2060
ssg2044
(dp2065
g2041
g2057
ssg2047
(dp2066
sg2051
(dp2067
g2041
g2056
sssbsg548
(lp2068
g2047
ag2041
ag2044
ag2051
asg821
(lp2069
(iconstruction
TP_REL
p2070
(dp2071
g827
g2041
sg55
g702
sg553
I61
sg828
g2047
sg36
VIS_61
p2072
sba(iconstruction
TP_REL
p2073
(dp2074
g827
g2044
sg55
g681
sg553
I62
sg828
g2041
sg36
VACT_AGT_62
p2075
sba(iconstruction
TP_REL
p2076
(dp2077
g827
g2051
sg55
g675
sg553
I63
sg828
g2041
sg36
VACT_PT_63
p2078
sbasg553
I54
sg36
g1639
sbsg1734
(iconstruction
TP_SYNFORM
p2079
(dp2080
g553
I55
sg1737
(lp2081
(iconstruction
TP_SLOT
p2082
(dp2083
g1741
(lp2084
VNP
p2085
aVN
p2086
asg1744
I0
sg553
I64
sg36
g2028
sba(iconstruction
TP_PHON
p2087
(dp2088
g1747
I2
sg1744
I1
sg553
I65
sg1748
Vis
p2089
sg36
VS2_65
p2090
sba(iconstruction
TP_SLOT
p2091
(dp2092
g1741
(lp2093
VVP
p2094
aVV
p2095
asg1744
I2
sg553
I66
sg36
g2030
sba(iconstruction
TP_PHON
p2096
(dp2097
g1747
I2
sg1744
I3
sg553
I67
sg1748
V-ed
p2098
sg36
VS4_67
p2099
sba(iconstruction
TP_PHON
p2100
(dp2101
g1747
I2
sg1744
I4
sg553
I68
sg1748
Vby
p2102
sg36
VS5_68
p2103
sba(iconstruction
TP_SLOT
p2104
(dp2105
g1741
(lp2106
VNP
p2107
aVN
p2108
asg1744
I5
sg553
I69
sg36
g2032
sbasg36
g1639
sbsg1755
I1
sba(iconstruction
CXN
p2109
(dp2110
g1697
(iconstruction
TP_SYMLINKS
p2111
(dp2112
g1700
(dp2113
VACT_74
p2114
VS2_83
p2115
sVRCPT_77
p2116
VS3_84
p2117
sVTHEME_76
p2118
VS4_85
p2119
sVAGT_75
p2120
VS1_82
p2121
ssg553
I72
sg36
g1639
sbsg1706
VS
p2122
sg1708
I2
sg36
VDOUBLE_OBJ
p2123
sg1709
(iconstruction
TP_SEMFRAME
p2124
(dp2125
g66
g0
(g67
g2
Ntp2126
Rp2127
(dp2128
g71
(dp2129
(iconstruction
TP_NODE
p2130
(dp2131
g1718
I01
sg55
g708
sg36
VEVT_73
p2132
sg1719
I01
sg1720
I00
sg553
I73
sb(dp2133
g1719
I01
sg55
g708
ss(iconstruction
TP_NODE
p2134
(dp2135
g1718
I00
sg55
g711
sg36
g2120
sg1719
I01
sg1720
I01
sg553
I75
sb(dp2136
g1719
I01
sg55
g711
ss(iconstruction
TP_NODE
p2137
(dp2138
g1718
I00
sg55
g555
sg36
g2114
sg1719
I01
sg1720
I00
sg553
I74
sb(dp2139
g1719
I01
sg55
g555
ss(iconstruction
TP_NODE
p2140
(dp2141
g1718
I00
sg55
g711
sg36
g2116
sg1719
I01
sg1720
I00
sg553
I77
sb(dp2142
g1719
I01
sg55
g711
ss(iconstruction
TP_NODE
p2143
(dp2144
g1718
I00
sg55
g711
sg36
g2118
sg1719
I01
sg1720
I00
sg553
I76
sb(dp2145
g1719
I01
sg55
g711
sssg254
g255
sg256
g255
sg257
(dp2146
g2130
(dp2147
g2137
(dp2148
g55
g702
sssg2134
(dp2149
sg2137
(dp2150
g2134
(dp2151
g55
g681
ssg2140
(dp2152
g55
g666
ssg2143
(dp2153
g55
g663
sssg2140
(dp2154
sg2143
(dp2155
ssg451
g2146
sg66
(dp2156
sg453
g255
sg454
g2146
sg455
(dp2157
g2130
(dp2158
sg2134
(dp2159
g2137
g2151
ssg2137
(dp2160
g2130
g2148
ssg2140
(dp2161
g2137
g2152
ssg2143
(dp2162
g2137
g2153
sssbsg548
(lp2163
g2130
ag2137
ag2134
ag2143
ag2140
asg821
(lp2164
(iconstruction
TP_REL
p2165
(dp2166
g827
g2137
sg55
g702
sg553
I78
sg828
g2130
sg36
VIS_78
p2167
sba(iconstruction
TP_REL
p2168
(dp2169
g827
g2134
sg55
g681
sg553
I79
sg828
g2137
sg36
VACT_AGT_79
p2170
sba(iconstruction
TP_REL
p2171
(dp2172
g827
g2143
sg55
g663
sg553
I80
sg828
g2137
sg36
VACT_THEME_80
p2173
sba(iconstruction
TP_REL
p2174
(dp2175
g827
g2140
sg55
g666
sg553
I81
sg828
g2137
sg36
VACT_RCPT_81
p2176
sbasg553
I70
sg36
g1639
sbsg1734
(iconstruction
TP_SYNFORM
p2177
(dp2178
g553
I71
sg1737
(lp2179
(iconstruction
TP_SLOT
p2180
(dp2181
g1741
(lp2182
VNP
p2183
aVN
p2184
asg1744
I0
sg553
I82
sg36
g2121
sba(iconstruction
TP_SLOT
p2185
(dp2186
g1741
(lp2187
VVP
p2188
aVV
p2189
asg1744
I1
sg553
I83
sg36
g2115
sba(iconstruction
TP_SLOT
p2190
(dp2191
g1741
(lp2192
VNP
p2193
aVN
p2194
asg1744
I2
sg553
I84
sg36
g2117
sba(iconstruction
TP_SLOT
p2195
(dp2196
g1741
(lp2197
VNP
p2198
aVN
p2199
asg1744
I3
sg553
I85
sg36
g2119
sbasg36
g1639
sbsg1755
I1
sba(iconstruction
CXN
p2200
(dp2201
g1697
(iconstruction
TP_SYMLINKS
p2202
(dp2203
g1700
(dp2204
VAGT_91
p2205
VS1_98
p2206
sVRCPT_93
p2207
VS5_102
p2208
sVACT_90
p2209
VS2_99
p2210
sVTHEME_92
p2211
VS3_100
p2212
ssg553
I88
sg36
g1639
sbsg1706
VS
p2213
sg1708
I2
sg36
VOBLIQUE_DATIVE
p2214
sg1709
(iconstruction
TP_SEMFRAME
p2215
(dp2216
g66
g0
(g67
g2
Ntp2217
Rp2218
(dp2219
g71
(dp2220
(iconstruction
TP_NODE
p2221
(dp2222
g1718
I01
sg55
g708
sg36
VEVT_89
p2223
sg1719
I01
sg1720
I00
sg553
I89
sb(dp2224
g1719
I01
sg55
g708
ss(iconstruction
TP_NODE
p2225
(dp2226
g1718
I00
sg55
g711
sg36
g2205
sg1719
I01
sg1720
I01
sg553
I91
sb(dp2227
g1719
I01
sg55
g711
ss(iconstruction
TP_NODE
p2228
(dp2229
g1718
I00
sg55
g711
sg36
g2211
sg1719
I01
sg1720
I00
sg553
I92
sb(dp2230
g1719
I01
sg55
g711
ss(iconstruction
TP_NODE
p2231
(dp2232
g1718
I00
sg55
g603
sg36
g2209
sg1719
I01
sg1720
I00
sg553
I90
sb(dp2233
g1719
I01
sg55
g603
ss(iconstruction
TP_NODE
p2234
(dp2235
g1718
I00
sg55
g711
sg36
g2207
sg1719
I01
sg1720
I00
sg553
I93
sb(dp2236
g1719
I01
sg55
g711
sssg254
g255
sg256
g255
sg257
(dp2237
g2221
(dp2238
g2231
(dp2239
g55
g702
sssg2225
(dp2240
sg2228
(dp2241
sg2231
(dp2242
g2225
(dp2243
g55
g681
ssg2234
(dp2244
g55
g666
ssg2228
(dp2245
g55
g663
sssg2234
(dp2246
ssg451
g2237
sg66
(dp2247
sg453
g255
sg454
g2237
sg455
(dp2248
g2221
(dp2249
sg2225
(dp2250
g2231
g2243
ssg2228
(dp2251
g2231
g2245
ssg2231
(dp2252
g2221
g2239
ssg2234
(dp2253
g2231
g2244
sssbsg548
(lp2254
g2221
ag2231
ag2225
ag2228
ag2234
asg821
(lp2255
(iconstruction
TP_REL
p2256
(dp2257
g827
g2231
sg55
g702
sg553
I94
sg828
g2221
sg36
VIS_94
p2258
sba(iconstruction
TP_REL
p2259
(dp2260
g827
g2225
sg55
g681
sg553
I95
sg828
g2231
sg36
VACT_AGT_95
p2261
sba(iconstruction
TP_REL
p2262
(dp2263
g827
g2228
sg55
g663
sg553
I96
sg828
g2231
sg36
VACT_THEME_96
p2264
sba(iconstruction
TP_REL
p2265
(dp2266
g827
g2234
sg55
g666
sg553
I97
sg828
g2231
sg36
VACT_RCPT_97
p2267
sbasg553
I86
sg36
g1639
sbsg1734
(iconstruction
TP_SYNFORM
p2268
(dp2269
g553
I87
sg1737
(lp2270
(iconstruction
TP_SLOT
p2271
(dp2272
g1741
(lp2273
VNP
p2274
aVN
p2275
asg1744
I0
sg553
I98
sg36
g2206
sba(iconstruction
TP_SLOT
p2276
(dp2277
g1741
(lp2278
VVP
p2279
aVV
p2280
asg1744
I1
sg553
I99
sg36
g2210
sba(iconstruction
TP_SLOT
p2281
(dp2282
g1741
(lp2283
VNP
p2284
aVN
p2285
asg1744
I2
sg553
I100
sg36
g2212
sba(iconstruction
TP_PHON
p2286
(dp2287
g1747
I2
sg1744
I3
sg553
I101
sg1748
Vto
p2288
sg36
VS4_101
p2289
sba(iconstruction
TP_SLOT
p2290
(dp2291
g1741
(lp2292
VNP
p2293
aVN
p2294
asg1744
I4
sg553
I102
sg36
g2208
sbasg36
g1639
sbsg1755
I1
sba(iconstruction
CXN
p2295
(dp2296
g1697
(iconstruction
TP_SYMLINKS
p2297
(dp2298
g1700
(dp2299
VATTR_108
p2300
VS3_113
p2301
sVENT_107
p2302
VS1_111
p2303
ssg553
I105
sg36
g1639
sbsg1706
VS
p2304
sg1708
I2
sg36
VSPA
p2305
sg1709
(iconstruction
TP_SEMFRAME
p2306
(dp2307
g66
g0
(g67
g2
Ntp2308
Rp2309
(dp2310
g71
(dp2311
(iconstruction
TP_NODE
p2312
(dp2313
g1718
I00
sg55
g711
sg36
g2302
sg1719
I01
sg1720
I01
sg553
I107
sb(dp2314
g1719
I01
sg55
g711
ss(iconstruction
TP_NODE
p2315
(dp2316
g1718
I00
sg55
g612
sg36
g2300
sg1719
I00
sg1720
I00
sg553
I108
sb(dp2317
g1719
I00
sg55
g612
ss(iconstruction
TP_NODE
p2318
(dp2319
g1718
I01
sg55
g708
sg36
VEVT_106
p2320
sg1719
I01
sg1720
I00
sg553
I106
sb(dp2321
g1719
I01
sg55
g708
sssg254
g255
sg256
g255
sg257
(dp2322
g2312
(dp2323
sg2315
(dp2324
sg2318
(dp2325
g2312
(dp2326
g55
g702
ssg2315
(dp2327
g55
g660
ssssg451
g2322
sg66
(dp2328
sg453
g255
sg454
g2322
sg455
(dp2329
g2312
(dp2330
g2318
g2326
ssg2315
(dp2331
g2318
g2327
ssg2318
(dp2332
ssbsg548
(lp2333
g2318
ag2312
ag2315
asg821
(lp2334
(iconstruction
TP_REL
p2335
(dp2336
g827
g2312
sg55
g702
sg553
I109
sg828
g2318
sg36
VIS_109
p2337
sba(iconstruction
TP_REL
p2338
(dp2339
g827
g2315
sg55
g660
sg553
I110
sg828
g2318
sg36
VEVT_ATTR_110
p2340
sbasg553
I103
sg36
g1639
sbsg1734
(iconstruction
TP_SYNFORM
p2341
(dp2342
g553
I104
sg1737
(lp2343
(iconstruction
TP_SLOT
p2344
(dp2345
g1741
(lp2346
VNP
p2347
aVN
p2348
asg1744
I0
sg553
I111
sg36
g2303
sba(iconstruction
TP_PHON
p2349
(dp2350
g1747
I2
sg1744
I1
sg553
I112
sg1748
Vis
p2351
sg36
VS2_112
p2352
sba(iconstruction
TP_SLOT
p2353
(dp2354
g1741
(lp2355
VA
p2356
asg1744
I2
sg553
I113
sg36
g2301
sbasg36
g1639
sbsg1755
I1
sba(iconstruction
CXN
p2357
(dp2358
g1697
(iconstruction
TP_SYMLINKS
p2359
(dp2360
g1700
(dp2361
VAGT_119
p2362
VS1_122
p2363
sVACT_118
p2364
VS2_123
p2365
ssg553
I116
sg36
g1639
sbsg1706
VS
p2366
sg1708
I2
sg36
VSV
p2367
sg1709
(iconstruction
TP_SEMFRAME
p2368
(dp2369
g66
g0
(g67
g2
Ntp2370
Rp2371
(dp2372
g71
(dp2373
(iconstruction
TP_NODE
p2374
(dp2375
g1718
I00
sg55
g567
sg36
g2364
sg1719
I01
sg1720
I00
sg553
I118
sb(dp2376
g1719
I01
sg55
g567
ss(iconstruction
TP_NODE
p2377
(dp2378
g1718
I00
sg55
g711
sg36
g2362
sg1719
I01
sg1720
I01
sg553
I119
sb(dp2379
g1719
I01
sg55
g711
ss(iconstruction
TP_NODE
p2380
(dp2381
g1718
I01
sg55
g708
sg36
VEVT_117
p2382
sg1719
I01
sg1720
I00
sg553
I117
sb(dp2383
g1719
I01
sg55
g708
sssg254
g255
sg256
g255
sg257
(dp2384
g2374
(dp2385
g2377
(dp2386
g55
g681
sssg2377
(dp2387
sg2380
(dp2388
g2374
(dp2389
g55
g702
ssssg451
g2384
sg66
(dp2390
sg453
g255
sg454
g2384
sg455
(dp2391
g2374
(dp2392
g2380
g2389
ssg2377
(dp2393
g2374
g2386
ssg2380
(dp2394
ssbsg548
(lp2395
g2380
ag2374
ag2377
asg821
(lp2396
(iconstruction
TP_REL
p2397
(dp2398
g827
g2374
sg55
g702
sg553
I120
sg828
g2380
sg36
VIS_120
p2399
sba(iconstruction
TP_REL
p2400
(dp2401
g827
g2377
sg55
g681
sg553
I121
sg828
g2374
sg36
VACT_AGT_121
p2402
sbasg553
I114
sg36
g1639
sbsg1734
(iconstruction
TP_SYNFORM
p2403
(dp2404
g553
I115
sg1737
(lp2405
(iconstruction
TP_SLOT
p2406
(dp2407
g1741
(lp2408
VNP
p2409
aVN
p2410
asg1744
I0
sg553
I122
sg36
g2363
sba(iconstruction
TP_SLOT
p2411
(dp2412
g1741
(lp2413
VVP
p2414
aVV
p2415
asg1744
I1
sg553
I123
sg36
g2365
sbasg36
g1639
sbsg1755
I1
sba(iconstruction
CXN
p2416
(dp2417
g1697
(iconstruction
TP_SYMLINKS
p2418
(dp2419
g1700
(dp2420
VEVT_127
p2421
VS1_130
p2422
sVPLACE_128
p2423
VS3_132
p2424
ssg553
I126
sg36
g1639
sbsg1706
VS
p2425
sg1708
I2
sg36
VPP_IN
p2426
sg1709
(iconstruction
TP_SEMFRAME
p2427
(dp2428
g66
g0
(g67
g2
Ntp2429
Rp2430
(dp2431
g71
(dp2432
(iconstruction
TP_NODE
p2433
(dp2434
g1718
I00
sg55
g711
sg36
g2423
sg1719
I01
sg1720
I00
sg553
I128
sb(dp2435
g1719
I01
sg55
g711
ss(iconstruction
TP_NODE
p2436
(dp2437
g1718
I01
sg55
g708
sg36
g2421
sg1719
I01
sg1720
I00
sg553
I127
sb(dp2438
g1719
I01
sg55
g708
sssg254
g255
sg256
g255
sg257
(dp2439
g2433
(dp2440
sg2436
(dp2441
g2433
(dp2442
g55
g699
ssssg451
g2439
sg66
(dp2443
sg453
g255
sg454
g2439
sg455
(dp2444
g2433
(dp2445
g2436
g2442
ssg2436
(dp2446
ssbsg548
(lp2447
g2436
ag2433
asg821
(lp2448
(iconstruction
TP_REL
p2449
(dp2450
g827
g2433
sg55
g699
sg553
I129
sg828
g2436
sg36
VEVT_PP_129
p2451
sbasg553
I124
sg36
g1639
sbsg1734
(iconstruction
TP_SYNFORM
p2452
(dp2453
g553
I125
sg1737
(lp2454
(iconstruction
TP_SLOT
p2455
(dp2456
g1741
(lp2457
VS
p2458
asg1744
I0
sg553
I130
sg36
g2422
sba(iconstruction
TP_PHON
p2459
(dp2460
g1747
I2
sg1744
I1
sg553
I131
sg1748
Vin
p2461
sg36
VS2_131
p2462
sba(iconstruction
TP_SLOT
p2463
(dp2464
g1741
(lp2465
VNP
p2466
aVN
p2467
asg1744
I2
sg553
I132
sg36
g2424
sbasg36
g1639
sbsg1755
I1
sba(iconstruction
CXN
p2468
(dp2469
g1697
(iconstruction
TP_SYMLINKS
p2470
(dp2471
g1700
(dp2472
VEVT2_137
p2473
VS2_140
p2474
sVEVT1_136
p2475
VS1_139
p2476
ssg553
I135
sg36
g1639
sbsg1706
VS
p2477
sg1708
I2
sg36
VS_PP
p2478
sg1709
(iconstruction
TP_SEMFRAME
p2479
(dp2480
g66
g0
(g67
g2
Ntp2481
Rp2482
(dp2483
g71
(dp2484
(iconstruction
TP_NODE
p2485
(dp2486
g1718
I01
sg55
g708
sg36
g2475
sg1719
I01
sg1720
I01
sg553
I136
sb(dp2487
g1719
I01
sg55
g708
ss(iconstruction
TP_NODE
p2488
(dp2489
g1718
I00
sg55
g708
sg36
g2473
sg1719
I01
sg1720
I00
sg553
I137
sb(dp2490
g1719
I01
sg55
g708
sssg254
g255
sg256
g255
sg257
(dp2491
g2485
(dp2492
g2488
(dp2493
g55
g660
sssg2488
(dp2494
ssg451
g2491
sg66
(dp2495
sg453
g255
sg454
g2491
sg455
(dp2496
g2485
(dp2497
sg2488
(dp2498
g2485
g2493
sssbsg548
(lp2499
g2485
ag2488
asg821
(lp2500
(iconstruction
TP_REL
p2501
(dp2502
g827
g2488
sg55
g660
sg553
I138
sg828
g2485
sg36
VMOD_138
p2503
sbasg553
I133
sg36
g1639
sbsg1734
(iconstruction
TP_SYNFORM
p2504
(dp2505
g553
I134
sg1737
(lp2506
(iconstruction
TP_SLOT
p2507
(dp2508
g1741
(lp2509
VS
p2510
asg1744
I0
sg553
I139
sg36
g2476
sba(iconstruction
TP_SLOT
p2511
(dp2512
g1741
(lp2513
VPP
p2514
asg1744
I1
sg553
I140
sg36
g2474
sbasg36
g1639
sbsg1755
I1
sba(iconstruction
CXN
p2515
(dp2516
g1697
(iconstruction
TP_SYMLINKS
p2517
(dp2518
g1700
(dp2519
VENT_144
p2520
VS2_148
p2521
sVATTR_145
p2522
VS1_147
p2523
ssg553
I143
sg36
g1639
sbsg1706
VN
p2524
sg1708
I2
sg36
VADJUNCT_N
p2525
sg1709
(iconstruction
TP_SEMFRAME
p2526
(dp2527
g66
g0
(g67
g2
Ntp2528
Rp2529
(dp2530
g71
(dp2531
(iconstruction
TP_NODE
p2532
(dp2533
g1718
I01
sg55
g711
sg36
g2520
sg1719
I01
sg1720
I00
sg553
I144
sb(dp2534
g1719
I01
sg55
g711
ss(iconstruction
TP_NODE
p2535
(dp2536
g1718
I00
sg55
g612
sg36
g2522
sg1719
I00
sg1720
I00
sg553
I145
sb(dp2537
g1719
I00
sg55
g612
sssg254
g255
sg256
g255
sg257
(dp2538
g2532
(dp2539
g2535
(dp2540
g55
g660
sssg2535
(dp2541
ssg451
g2538
sg66
(dp2542
sg453
g255
sg454
g2538
sg455
(dp2543
g2532
(dp2544
sg2535
(dp2545
g2532
g2540
sssbsg548
(lp2546
g2532
ag2535
asg821
(lp2547
(iconstruction
TP_REL
p2548
(dp2549
g827
g2535
sg55
g660
sg553
I146
sg828
g2532
sg36
VENT_ATTR_146
p2550
sbasg553
I141
sg36
g1639
sbsg1734
(iconstruction
TP_SYNFORM
p2551
(dp2552
g553
I142
sg1737
(lp2553
(iconstruction
TP_SLOT
p2554
(dp2555
g1741
(lp2556
VA
p2557
asg1744
I0
sg553
I147
sg36
g2523
sba(iconstruction
TP_SLOT
p2558
(dp2559
g1741
(lp2560
VN
p2561
asg1744
I1
sg553
I148
sg36
g2521
sbasg36
g1639
sbsg1755
I1
sba(iconstruction
CXN
p2562
(dp2563
g1697
(iconstruction
TP_SYMLINKS
p2564
(dp2565
g1700
(dp2566
VAGT_154
p2567
VS1_160
p2568
sVACT_153
p2569
VS3_162
p2570
sVPT_155
p2571
VS4_163
p2572
ssg553
I151
sg36
g1639
sbsg1706
VN
p2573
sg1708
I2
sg36
VSUBJ_REL_SVO
p2574
sg1709
(iconstruction
TP_SEMFRAME
p2575
(dp2576
g66
g0
(g67
g2
Ntp2577
Rp2578
(dp2579
g71
(dp2580
(iconstruction
TP_NODE
p2581
(dp2582
g1718
I00
sg55
g708
sg36
VEVT_152
p2583
sg1719
I01
sg1720
I00
sg553
I152
sb(dp2584
g1719
I01
sg55
g708
ss(iconstruction
TP_NODE
p2585
(dp2586
g1718
I01
sg55
g711
sg36
g2567
sg1719
I01
sg1720
I00
sg553
I154
sb(dp2587
g1719
I01
sg55
g711
ss(iconstruction
TP_NODE
p2588
(dp2589
g1718
I00
sg55
g573
sg36
g2569
sg1719
I01
sg1720
I01
sg553
I153
sb(dp2590
g1719
I01
sg55
g573
ss(iconstruction
TP_NODE
p2591
(dp2592
g1718
I00
sg55
g711
sg36
g2571
sg1719
I01
sg1720
I00
sg553
I155
sb(dp2593
g1719
I01
sg55
g711
sssg254
g255
sg256
g255
sg257
(dp2594
g2581
(dp2595
g2588
(dp2596
g55
g702
sssg2585
(dp2597
g2581
(dp2598
g55
g660
sssg2588
(dp2599
g2585
(dp2600
g55
g681
ssg2591
(dp2601
g55
g675
sssg2591
(dp2602
ssg451
g2594
sg66
(dp2603
sg453
g255
sg454
g2594
sg455
(dp2604
g2581
(dp2605
g2585
g2598
ssg2585
(dp2606
g2588
g2600
ssg2588
(dp2607
g2581
g2596
ssg2591
(dp2608
g2588
g2601
sssbsg548
(lp2609
g2581
ag2588
ag2585
ag2591
asg821
(lp2610
(iconstruction
TP_REL
p2611
(dp2612
g827
g2588
sg55
g702
sg553
I156
sg828
g2581
sg36
VIS_156
p2613
sba(iconstruction
TP_REL
p2614
(dp2615
g827
g2585
sg55
g681
sg553
I157
sg828
g2588
sg36
VACT_AGT_157
p2616
sba(iconstruction
TP_REL
p2617
(dp2618
g827
g2591
sg55
g675
sg553
I158
sg828
g2588
sg36
VACT_PT_158
p2619
sba(iconstruction
TP_REL
p2620
(dp2621
g827
g2581
sg55
g660
sg553
I159
sg828
g2585
sg36
VAGT_EVT_159
p2622
sbasg553
I149
sg36
g1639
sbsg1734
(iconstruction
TP_SYNFORM
p2623
(dp2624
g553
I150
sg1737
(lp2625
(iconstruction
TP_SLOT
p2626
(dp2627
g1741
(lp2628
VN
p2629
asg1744
I0
sg553
I160
sg36
g2568
sba(iconstruction
TP_PHON
p2630
(dp2631
g1747
I4
sg1744
I1
sg553
I161
sg1748
Vthat
p2632
sg36
VS2_161
p2633
sba(iconstruction
TP_SLOT
p2634
(dp2635
g1741
(lp2636
VVP
p2637
aVV
p2638
asg1744
I2
sg553
I162
sg36
g2570
sba(iconstruction
TP_SLOT
p2639
(dp2640
g1741
(lp2641
VNP
p2642
aVN
p2643
asg1744
I3
sg553
I163
sg36
g2572
sbasg36
g1639
sbsg1755
I1
sba(iconstruction
CXN
p2644
(dp2645
g1697
(iconstruction
TP_SYMLINKS
p2646
(dp2647
g1700
(dp2648
VAGT_169
p2649
VS1_173
p2650
sVACT_168
p2651
VS3_175
p2652
ssg553
I166
sg36
g1639
sbsg1706
VN
p2653
sg1708
I2
sg36
VSUBJ_REL_SV
p2654
sg1709
(iconstruction
TP_SEMFRAME
p2655
(dp2656
g66
g0
(g67
g2
Ntp2657
Rp2658
(dp2659
g71
(dp2660
(iconstruction
TP_NODE
p2661
(dp2662
g1718
I00
sg55
g708
sg36
VEVT_167
p2663
sg1719
I01
sg1720
I00
sg553
I167
sb(dp2664
g1719
I01
sg55
g708
ss(iconstruction
TP_NODE
p2665
(dp2666
g1718
I01
sg55
g711
sg36
g2649
sg1719
I01
sg1720
I00
sg553
I169
sb(dp2667
g1719
I01
sg55
g711
ss(iconstruction
TP_NODE
p2668
(dp2669
g1718
I00
sg55
g555
sg36
g2651
sg1719
I01
sg1720
I01
sg553
I168
sb(dp2670
g1719
I01
sg55
g555
sssg254
g255
sg256
g255
sg257
(dp2671
g2661
(dp2672
g2668
(dp2673
g55
g702
sssg2665
(dp2674
g2661
(dp2675
g55
g660
sssg2668
(dp2676
g2665
(dp2677
g55
g681
ssssg451
g2671
sg66
(dp2678
sg453
g255
sg454
g2671
sg455
(dp2679
g2661
(dp2680
g2665
g2675
ssg2665
(dp2681
g2668
g2677
ssg2668
(dp2682
g2661
g2673
sssbsg548
(lp2683
g2661
ag2668
ag2665
asg821
(lp2684
(iconstruction
TP_REL
p2685
(dp2686
g827
g2668
sg55
g702
sg553
I170
sg828
g2661
sg36
VIS_170
p2687
sba(iconstruction
TP_REL
p2688
(dp2689
g827
g2665
sg55
g681
sg553
I171
sg828
g2668
sg36
VACT_AGT_171
p2690
sba(iconstruction
TP_REL
p2691
(dp2692
g827
g2661
sg55
g660
sg553
I172
sg828
g2665
sg36
VAGT_EVT_172
p2693
sbasg553
I164
sg36
g1639
sbsg1734
(iconstruction
TP_SYNFORM
p2694
(dp2695
g553
I165
sg1737
(lp2696
(iconstruction
TP_SLOT
p2697
(dp2698
g1741
(lp2699
VN
p2700
asg1744
I0
sg553
I173
sg36
g2650
sba(iconstruction
TP_PHON
p2701
(dp2702
g1747
I4
sg1744
I1
sg553
I174
sg1748
Vthat
p2703
sg36
VS2_174
p2704
sba(iconstruction
TP_SLOT
p2705
(dp2706
g1741
(lp2707
VVP
p2708
aVV
p2709
asg1744
I2
sg553
I175
sg36
g2652
sbasg36
g1639
sbsg1755
I1
sba(iconstruction
CXN
p2710
(dp2711
g1697
(iconstruction
TP_SYMLINKS
p2712
(dp2713
g1700
(dp2714
VAGT_181
p2715
VS7_193
p2716
sVPT_182
p2717
VS1_187
p2718
sVACT_180
p2719
VS4_190
p2720
ssg553
I178
sg36
g1639
sbsg1706
VN
p2721
sg1708
I2
sg36
VSUBJ_REL_PAS_SVO
p2722
sg1709
(iconstruction
TP_SEMFRAME
p2723
(dp2724
g66
g0
(g67
g2
Ntp2725
Rp2726
(dp2727
g71
(dp2728
(iconstruction
TP_NODE
p2729
(dp2730
g1718
I00
sg55
g708
sg36
VEVT_179
p2731
sg1719
I01
sg1720
I00
sg553
I179
sb(dp2732
g1719
I01
sg55
g708
ss(iconstruction
TP_NODE
p2733
(dp2734
g1718
I00
sg55
g711
sg36
g2715
sg1719
I01
sg1720
I00
sg553
I181
sb(dp2735
g1719
I01
sg55
g711
ss(iconstruction
TP_NODE
p2736
(dp2737
g1718
I01
sg55
g711
sg36
g2717
sg1719
I01
sg1720
I00
sg553
I182
sb(dp2738
g1719
I01
sg55
g711
ss(iconstruction
TP_NODE
p2739
(dp2740
g1718
I00
sg55
g555
sg36
g2719
sg1719
I01
sg1720
I01
sg553
I180
sb(dp2741
g1719
I01
sg55
g555
sssg254
g255
sg256
g255
sg257
(dp2742
g2729
(dp2743
g2739
(dp2744
g55
g702
sssg2733
(dp2745
sg2736
(dp2746
g2729
(dp2747
g55
g660
sssg2739
(dp2748
g2733
(dp2749
g55
g681
ssg2736
(dp2750
g55
g675
ssssg451
g2742
sg66
(dp2751
sg453
g255
sg454
g2742
sg455
(dp2752
g2729
(dp2753
g2736
g2747
ssg2733
(dp2754
g2739
g2749
ssg2736
(dp2755
g2739
g2750
ssg2739
(dp2756
g2729
g2744
sssbsg548
(lp2757
g2729
ag2739
ag2733
ag2736
asg821
(lp2758
(iconstruction
TP_REL
p2759
(dp2760
g827
g2739
sg55
g702
sg553
I183
sg828
g2729
sg36
VIS_183
p2761
sba(iconstruction
TP_REL
p2762
(dp2763
g827
g2733
sg55
g681
sg553
I184
sg828
g2739
sg36
VACT_AGT_184
p2764
sba(iconstruction
TP_REL
p2765
(dp2766
g827
g2736
sg55
g675
sg553
I185
sg828
g2739
sg36
VACT_PT_185
p2767
sba(iconstruction
TP_REL
p2768
(dp2769
g827
g2729
sg55
g660
sg553
I186
sg828
g2736
sg36
VPT_EVT_186
p2770
sbasg553
I176
sg36
g1639
sbsg1734
(iconstruction
TP_SYNFORM
p2771
(dp2772
g553
I177
sg1737
(lp2773
(iconstruction
TP_SLOT
p2774
(dp2775
g1741
(lp2776
VN
p2777
asg1744
I0
sg553
I187
sg36
g2718
sba(iconstruction
TP_PHON
p2778
(dp2779
g1747
I4
sg1744
I1
sg553
I188
sg1748
Vthat
p2780
sg36
VS2_188
p2781
sba(iconstruction
TP_PHON
p2782
(dp2783
g1747
I2
sg1744
I2
sg553
I189
sg1748
Vis
p2784
sg36
VS3_189
p2785
sba(iconstruction
TP_SLOT
p2786
(dp2787
g1741
(lp2788
VVP
p2789
aVV
p2790
asg1744
I3
sg553
I190
sg36
g2720
sba(iconstruction
TP_PHON
p2791
(dp2792
g1747
I2
sg1744
I4
sg553
I191
sg1748
V-ed
p2793
sg36
VS5_191
p2794
sba(iconstruction
TP_PHON
p2795
(dp2796
g1747
I2
sg1744
I5
sg553
I192
sg1748
Vby
p2797
sg36
VS6_192
p2798
sba(iconstruction
TP_SLOT
p2799
(dp2800
g1741
(lp2801
VNP
p2802
aVN
p2803
asg1744
I6
sg553
I193
sg36
g2716
sbasg36
g1639
sbsg1755
I1
sba(iconstruction
CXN
p2804
(dp2805
g1697
(iconstruction
TP_SYMLINKS
p2806
(dp2807
g1700
(dp2808
VAGT_199
p2809
VS3_207
p2810
sVACT_198
p2811
VS4_208
p2812
sVPT_200
p2813
VS1_205
p2814
ssg553
I196
sg36
g1639
sbsg1706
VN
p2815
sg1708
I2
sg36
VOBJ_REL_SVO
p2816
sg1709
(iconstruction
TP_SEMFRAME
p2817
(dp2818
g66
g0
(g67
g2
Ntp2819
Rp2820
(dp2821
g71
(dp2822
(iconstruction
TP_NODE
p2823
(dp2824
g1718
I00
sg55
g708
sg36
VEVT_197
p2825
sg1719
I01
sg1720
I00
sg553
I197
sb(dp2826
g1719
I01
sg55
g708
ss(iconstruction
TP_NODE
p2827
(dp2828
g1718
I00
sg55
g711
sg36
g2809
sg1719
I01
sg1720
I00
sg553
I199
sb(dp2829
g1719
I01
sg55
g711
ss(iconstruction
TP_NODE
p2830
(dp2831
g1718
I01
sg55
g711
sg36
g2813
sg1719
I01
sg1720
I00
sg553
I200
sb(dp2832
g1719
I01
sg55
g711
ss(iconstruction
TP_NODE
p2833
(dp2834
g1718
I00
sg55
g555
sg36
g2811
sg1719
I01
sg1720
I01
sg553
I198
sb(dp2835
g1719
I01
sg55
g555
sssg254
g255
sg256
g255
sg257
(dp2836
g2823
(dp2837
g2833
(dp2838
g55
g702
sssg2827
(dp2839
sg2830
(dp2840
g2823
(dp2841
g55
g660
sssg2833
(dp2842
g2827
(dp2843
g55
g681
ssg2830
(dp2844
g55
g675
ssssg451
g2836
sg66
(dp2845
sg453
g255
sg454
g2836
sg455
(dp2846
g2823
(dp2847
g2830
g2841
ssg2827
(dp2848
g2833
g2843
ssg2830
(dp2849
g2833
g2844
ssg2833
(dp2850
g2823
g2838
sssbsg548
(lp2851
g2823
ag2833
ag2827
ag2830
asg821
(lp2852
(iconstruction
TP_REL
p2853
(dp2854
g827
g2833
sg55
g702
sg553
I201
sg828
g2823
sg36
VIS_201
p2855
sba(iconstruction
TP_REL
p2856
(dp2857
g827
g2827
sg55
g681
sg553
I202
sg828
g2833
sg36
VACT_AGT_202
p2858
sba(iconstruction
TP_REL
p2859
(dp2860
g827
g2830
sg55
g675
sg553
I203
sg828
g2833
sg36
VACT_PT_203
p2861
sba(iconstruction
TP_REL
p2862
(dp2863
g827
g2823
sg55
g660
sg553
I204
sg828
g2830
sg36
VPT_EVT_204
p2864
sbasg553
I194
sg36
g1639
sbsg1734
(iconstruction
TP_SYNFORM
p2865
(dp2866
g553
I195
sg1737
(lp2867
(iconstruction
TP_SLOT
p2868
(dp2869
g1741
(lp2870
VN
p2871
asg1744
I0
sg553
I205
sg36
g2814
sba(iconstruction
TP_PHON
p2872
(dp2873
g1747
I4
sg1744
I1
sg553
I206
sg1748
Vthat
p2874
sg36
VS2_206
p2875
sba(iconstruction
TP_SLOT
p2876
(dp2877
g1741
(lp2878
VNP
p2879
aVN
p2880
asg1744
I2
sg553
I207
sg36
g2810
sba(iconstruction
TP_SLOT
p2881
(dp2882
g1741
(lp2883
VVP
p2884
aVV
p2885
asg1744
I3
sg553
I208
sg36
g2812
sbasg36
g1639
sbsg1755
I1
sba(iconstruction
CXN
p2886
(dp2887
g1697
(iconstruction
TP_SYMLINKS
p2888
(dp2889
g1700
(dp2890
VPT_215
p2891
VS3_222
p2892
sVACT_213
p2893
VS5_224
p2894
sVAGT_214
p2895
VS1_220
p2896
ssg553
I211
sg36
g1639
sbsg1706
VN
p2897
sg1708
I2
sg36
VOBJ_REL_PAS_SVO
p2898
sg1709
(iconstruction
TP_SEMFRAME
p2899
(dp2900
g66
g0
(g67
g2
Ntp2901
Rp2902
(dp2903
g71
(dp2904
(iconstruction
TP_NODE
p2905
(dp2906
g1718
I00
sg55
g708
sg36
VEVT_212
p2907
sg1719
I01
sg1720
I00
sg553
I212
sb(dp2908
g1719
I01
sg55
g708
ss(iconstruction
TP_NODE
p2909
(dp2910
g1718
I01
sg55
g711
sg36
g2895
sg1719
I01
sg1720
I00
sg553
I214
sb(dp2911
g1719
I01
sg55
g711
ss(iconstruction
TP_NODE
p2912
(dp2913
g1718
I00
sg55
g555
sg36
g2893
sg1719
I01
sg1720
I01
sg553
I213
sb(dp2914
g1719
I01
sg55
g555
ss(iconstruction
TP_NODE
p2915
(dp2916
g1718
I00
sg55
g711
sg36
g2891
sg1719
I01
sg1720
I00
sg553
I215
sb(dp2917
g1719
I01
sg55
g711
sssg254
g255
sg256
g255
sg257
(dp2918
g2905
(dp2919
g2912
(dp2920
g55
g702
sssg2909
(dp2921
g2905
(dp2922
g55
g660
sssg2912
(dp2923
g2909
(dp2924
g55
g681
ssg2915
(dp2925
g55
g675
sssg2915
(dp2926
ssg451
g2918
sg66
(dp2927
sg453
g255
sg454
g2918
sg455
(dp2928
g2905
(dp2929
g2909
g2922
ssg2909
(dp2930
g2912
g2924
ssg2912
(dp2931
g2905
g2920
ssg2915
(dp2932
g2912
g2925
sssbsg548
(lp2933
g2905
ag2912
ag2909
ag2915
asg821
(lp2934
(iconstruction
TP_REL
p2935
(dp2936
g827
g2912
sg55
g702
sg553
I216
sg828
g2905
sg36
VIS_216
p2937
sba(iconstruction
TP_REL
p2938
(dp2939
g827
g2909
sg55
g681
sg553
I217
sg828
g2912
sg36
VACT_AGT_217
p2940
sba(iconstruction
TP_REL
p2941
(dp2942
g827
g2915
sg55
g675
sg553
I218
sg828
g2912
sg36
VACT_PT_218
p2943
sba(iconstruction
TP_REL
p2944
(dp2945
g827
g2905
sg55
g660
sg553
I219
sg828
g2909
sg36
VAGT_EVT_219
p2946
sbasg553
I209
sg36
g1639
sbsg1734
(iconstruction
TP_SYNFORM
p2947
(dp2948
g553
I210
sg1737
(lp2949
(iconstruction
TP_SLOT
p2950
(dp2951
g1741
(lp2952
VN
p2953
asg1744
I0
sg553
I220
sg36
g2896
sba(iconstruction
TP_PHON
p2954
(dp2955
g1747
I4
sg1744
I1
sg553
I221
sg1748
Vthat
p2956
sg36
VS2_221
p2957
sba(iconstruction
TP_SLOT
p2958
(dp2959
g1741
(lp2960
VNP
p2961
aVN
p2962
asg1744
I2
sg553
I222
sg36
g2892
sba(iconstruction
TP_PHON
p2963
(dp2964
g1747
I2
sg1744
I3
sg553
I223
sg1748
Vis
p2965
sg36
VS4_223
p2966
sba(iconstruction
TP_SLOT
p2967
(dp2968
g1741
(lp2969
VVP
p2970
aVV
p2971
asg1744
I4
sg553
I224
sg36
g2894
sba(iconstruction
TP_PHON
p2972
(dp2973
g1747
I2
sg1744
I5
sg553
I225
sg1748
V-ed
p2974
sg36
VS6_225
p2975
sba(iconstruction
TP_PHON
p2976
(dp2977
g1747
I2
sg1744
I6
sg553
I226
sg1748
Vby
p2978
sg36
VS7_226
p2979
sbasg36
g1639
sbsg1755
I1
sba(iconstruction
CXN
p2980
(dp2981
g1697
(iconstruction
TP_SYMLINKS
p2982
(dp2983
g1700
(dp2984
VATTR_232
p2985
VS4_238
p2986
sVENT_231
p2987
VS1_235
p2988
ssg553
I229
sg36
g1639
sbsg1706
VN
p2989
sg1708
I2
sg36
VREL_SPA
p2990
sg1709
(iconstruction
TP_SEMFRAME
p2991
(dp2992
g66
g0
(g67
g2
Ntp2993
Rp2994
(dp2995
g71
(dp2996
(iconstruction
TP_NODE
p2997
(dp2998
g1718
I00
sg55
g708
sg36
VEVT_230
p2999
sg1719
I01
sg1720
I00
sg553
I230
sb(dp3000
g1719
I01
sg55
g708
ss(iconstruction
TP_NODE
p3001
(dp3002
g1718
I00
sg55
g612
sg36
g2985
sg1719
I00
sg1720
I00
sg553
I232
sb(dp3003
g1719
I00
sg55
g612
ss(iconstruction
TP_NODE
p3004
(dp3005
g1718
I01
sg55
g711
sg36
g2987
sg1719
I01
sg1720
I01
sg553
I231
sb(dp3006
g1719
I01
sg55
g711
sssg254
g255
sg256
g255
sg257
(dp3007
g2997
(dp3008
g3001
(dp3009
g55
g660
ssg3004
(dp3010
g55
g702
sssg3001
(dp3011
sg3004
(dp3012
ssg451
g3007
sg66
(dp3013
sg453
g255
sg454
g3007
sg455
(dp3014
g2997
(dp3015
sg3001
(dp3016
g2997
g3009
ssg3004
(dp3017
g2997
g3010
sssbsg548
(lp3018
g2997
ag3004
ag3001
asg821
(lp3019
(iconstruction
TP_REL
p3020
(dp3021
g827
g3004
sg55
g702
sg553
I233
sg828
g2997
sg36
VIS_233
p3022
sba(iconstruction
TP_REL
p3023
(dp3024
g827
g3001
sg55
g660
sg553
I234
sg828
g2997
sg36
VEVT_ATTR_234
p3025
sbasg553
I227
sg36
g1639
sbsg1734
(iconstruction
TP_SYNFORM
p3026
(dp3027
g553
I228
sg1737
(lp3028
(iconstruction
TP_SLOT
p3029
(dp3030
g1741
(lp3031
VN
p3032
asg1744
I0
sg553
I235
sg36
g2988
sba(iconstruction
TP_PHON
p3033
(dp3034
g1747
I4
sg1744
I1
sg553
I236
sg1748
Vthat
p3035
sg36
VS2_236
p3036
sba(iconstruction
TP_PHON
p3037
(dp3038
g1747
I2
sg1744
I2
sg553
I237
sg1748
Vis
p3039
sg36
VS3_237
p3040
sba(iconstruction
TP_SLOT
p3041
(dp3042
g1741
(lp3043
VA
p3044
asg1744
I3
sg553
I238
sg36
g2986
sbasg36
g1639
sbsg1755
I1
sba(iconstruction
CXN
p3045
(dp3046
g1697
(iconstruction
TP_SYMLINKS
p3047
(dp3048
g1700
(dp3049
VAGT_244
p3050
VS1_251
p3051
sVCOLOR_246
p3052
VS3_253
p3053
ssg553
I241
sg36
g1639
sbsg1706
VN
p3054
sg1708
I2
sg36
VIN_COLOR
p3055
sg1709
(iconstruction
TP_SEMFRAME
p3056
(dp3057
g66
g0
(g67
g2
Ntp3058
Rp3059
(dp3060
g71
(dp3061
(iconstruction
TP_NODE
p3062
(dp3063
g1718
I00
sg55
g708
sg36
VEVT_242
p3064
sg1719
I01
sg1720
I00
sg553
I242
sb(dp3065
g1719
I01
sg55
g708
ss(iconstruction
TP_NODE
p3066
(dp3067
g1718
I01
sg55
g720
sg36
g3050
sg1719
I01
sg1720
I00
sg553
I244
sb(dp3068
g1719
I01
sg55
g720
ss(iconstruction
TP_NODE
p3069
(dp3070
g1718
I00
sg55
g600
sg36
VACT_243
p3071
sg1719
I01
sg1720
I00
sg553
I243
sb(dp3072
g1719
I01
sg55
g600
ss(iconstruction
TP_NODE
p3073
(dp3074
g1718
I00
sg55
g615
sg36
g3052
sg1719
I00
sg1720
I01
sg553
I246
sb(dp3075
g1719
I00
sg55
g615
ss(iconstruction
TP_NODE
p3076
(dp3077
g1718
I00
sg55
g750
sg36
VPT_245
p3078
sg1719
I01
sg1720
I00
sg553
I245
sb(dp3079
g1719
I01
sg55
g750
sssg254
g255
sg256
g255
sg257
(dp3080
g3062
(dp3081
g3069
(dp3082
g55
g702
sssg3066
(dp3083
sg3069
(dp3084
g3066
(dp3085
g55
g681
ssg3076
(dp3086
g55
g675
sssg3073
(dp3087
sg3076
(dp3088
g3073
(dp3089
g55
g660
ssssg451
g3080
sg66
(dp3090
sg453
g255
sg454
g3080
sg455
(dp3091
g3062
(dp3092
sg3066
(dp3093
g3069
g3085
ssg3069
(dp3094
g3062
g3082
ssg3073
(dp3095
g3076
g3089
ssg3076
(dp3096
g3069
g3086
sssbsg548
(lp3097
g3062
ag3069
ag3066
ag3076
ag3073
asg821
(lp3098
(iconstruction
TP_REL
p3099
(dp3100
g827
g3069
sg55
g702
sg553
I247
sg828
g3062
sg36
VIS_247
p3101
sba(iconstruction
TP_REL
p3102
(dp3103
g827
g3066
sg55
g681
sg553
I248
sg828
g3069
sg36
VACT_AGT_248
p3104
sba(iconstruction
TP_REL
p3105
(dp3106
g827
g3076
sg55
g675
sg553
I249
sg828
g3069
sg36
VACT_PT_249
p3107
sba(iconstruction
TP_REL
p3108
(dp3109
g827
g3073
sg55
g660
sg553
I250
sg828
g3076
sg36
VPT_COLOR_250
p3110
sbasg553
I239
sg36
g1639
sbsg1734
(iconstruction
TP_SYNFORM
p3111
(dp3112
g553
I240
sg1737
(lp3113
(iconstruction
TP_SLOT
p3114
(dp3115
g1741
(lp3116
VN
p3117
asg1744
I0
sg553
I251
sg36
g3051
sba(iconstruction
TP_PHON
p3118
(dp3119
g1747
I2
sg1744
I1
sg553
I252
sg1748
Vin
p3120
sg36
VS2_252
p3121
sba(iconstruction
TP_SLOT
p3122
(dp3123
g1741
(lp3124
VA
p3125
asg1744
I2
sg553
I253
sg36
g3053
sbasg36
g1639
sbsg1755
I1
sba(iconstruction
CXN
p3126
(dp3127
g1697
(iconstruction
TP_SYMLINKS
p3128
(dp3129
g1700
(dp3130
VN1_258
p3131
VS1_260
p3132
ssg553
I256
sg36
g1639
sbsg1706
VV
p3133
sg1708
I1
sg36
VHIT
p3134
sg1709
(iconstruction
TP_SEMFRAME
p3135
(dp3136
g66
g0
(g67
g2
Ntp3137
Rp3138
(dp3139
g71
(dp3140
(iconstruction
TP_NODE
p3141
(dp3142
g1718
I00
sg55
g576
sg36
g3131
sg1719
I00
sg1720
I00
sg553
I258
sb(dp3143
g1719
I00
sg55
g576
ss(iconstruction
TP_NODE
p3144
(dp3145
g1718
I01
sg55
g555
sg36
VACT_257
p3146
sg1719
I01
sg1720
I00
sg553
I257
sb(dp3147
g1719
I01
sg55
g555
sssg254
g255
sg256
g255
sg257
(dp3148
g3141
(dp3149
sg3144
(dp3150
g3141
(dp3151
g55
g702
ssssg451
g3148
sg66
(dp3152
sg453
g255
sg454
g3148
sg455
(dp3153
g3141
(dp3154
g3144
g3151
ssg3144
(dp3155
ssbsg548
(lp3156
g3144
ag3141
asg821
(lp3157
(iconstruction
TP_REL
p3158
(dp3159
g827
g3141
sg55
g702
sg553
I259
sg828
g3144
sg36
VIS_259
p3160
sbasg553
I254
sg36
g1639
sbsg1734
(iconstruction
TP_SYNFORM
p3161
(dp3162
g553
I255
sg1737
(lp3163
(iconstruction
TP_PHON
p3164
(dp3165
g1747
I3
sg1744
I0
sg553
I260
sg1748
Vhit
p3166
sg36
g3132
sbasg36
g1639
sbsg1755
I1
sba(iconstruction
CXN
p3167
(dp3168
g1697
(iconstruction
TP_SYMLINKS
p3169
(dp3170
g1700
(dp3171
VN1_265
p3172
VS1_267
p3173
ssg553
I263
sg36
g1639
sbsg1706
VV
p3174
sg1708
I1
sg36
VKICK
p3175
sg1709
(iconstruction
TP_SEMFRAME
p3176
(dp3177
g66
g0
(g67
g2
Ntp3178
Rp3179
(dp3180
g71
(dp3181
(iconstruction
TP_NODE
p3182
(dp3183
g1718
I00
sg55
g597
sg36
g3172
sg1719
I00
sg1720
I00
sg553
I265
sb(dp3184
g1719
I00
sg55
g597
ss(iconstruction
TP_NODE
p3185
(dp3186
g1718
I01
sg55
g555
sg36
VACT_264
p3187
sg1719
I01
sg1720
I00
sg553
I264
sb(dp3188
g1719
I01
sg55
g555
sssg254
g255
sg256
g255
sg257
(dp3189
g3182
(dp3190
sg3185
(dp3191
g3182
(dp3192
g55
g702
ssssg451
g3189
sg66
(dp3193
sg453
g255
sg454
g3189
sg455
(dp3194
g3182
(dp3195
g3185
g3192
ssg3185
(dp3196
ssbsg548
(lp3197
g3185
ag3182
asg821
(lp3198
(iconstruction
TP_REL
p3199
(dp3200
g827
g3182
sg55
g702
sg553
I266
sg828
g3185
sg36
VIS_266
p3201
sbasg553
I261
sg36
g1639
sbsg1734
(iconstruction
TP_SYNFORM
p3202
(dp3203
g553
I262
sg1737
(lp3204
(iconstruction
TP_PHON
p3205
(dp3206
g1747
I4
sg1744
I0
sg553
I267
sg1748
Vkick
p3207
sg36
g3173
sbasg36
g1639
sbsg1755
I1
sba(iconstruction
CXN
p3208
(dp3209
g1697
(iconstruction
TP_SYMLINKS
p3210
(dp3211
g1700
(dp3212
VN1_272
p3213
VS1_274
p3214
ssg553
I270
sg36
g1639
sbsg1706
VV
p3215
sg1708
I1
sg36
VPUNCH
p3216
sg1709
(iconstruction
TP_SEMFRAME
p3217
(dp3218
g66
g0
(g67
g2
Ntp3219
Rp3220
(dp3221
g71
(dp3222
(iconstruction
TP_NODE
p3223
(dp3224
g1718
I01
sg55
g555
sg36
VACT_271
p3225
sg1719
I01
sg1720
I00
sg553
I271
sb(dp3226
g1719
I01
sg55
g555
ss(iconstruction
TP_NODE
p3227
(dp3228
g1718
I00
sg55
g582
sg36
g3213
sg1719
I00
sg1720
I00
sg553
I272
sb(dp3229
g1719
I00
sg55
g582
sssg254
g255
sg256
g255
sg257
(dp3230
g3223
(dp3231
g3227
(dp3232
g55
g702
sssg3227
(dp3233
ssg451
g3230
sg66
(dp3234
sg453
g255
sg454
g3230
sg455
(dp3235
g3223
(dp3236
sg3227
(dp3237
g3223
g3232
sssbsg548
(lp3238
g3223
ag3227
asg821
(lp3239
(iconstruction
TP_REL
p3240
(dp3241
g827
g3227
sg55
g702
sg553
I273
sg828
g3223
sg36
VIS_273
p3242
sbasg553
I268
sg36
g1639
sbsg1734
(iconstruction
TP_SYNFORM
p3243
(dp3244
g553
I269
sg1737
(lp3245
(iconstruction
TP_PHON
p3246
(dp3247
g1747
I5
sg1744
I0
sg553
I274
sg1748
Vpunch
p3248
sg36
g3214
sbasg36
g1639
sbsg1755
I1
sba(iconstruction
CXN
p3249
(dp3250
g1697
(iconstruction
TP_SYMLINKS
p3251
(dp3252
g1700
(dp3253
VN1_279
p3254
VS1_281
p3255
ssg553
I277
sg36
g1639
sbsg1706
VV
p3256
sg1708
I1
sg36
VWEAR
p3257
sg1709
(iconstruction
TP_SEMFRAME
p3258
(dp3259
g66
g0
(g67
g2
Ntp3260
Rp3261
(dp3262
g71
(dp3263
(iconstruction
TP_NODE
p3264
(dp3265
g1718
I00
sg55
g600
sg36
g3254
sg1719
I00
sg1720
I00
sg553
I279
sb(dp3266
g1719
I00
sg55
g600
ss(iconstruction
TP_NODE
p3267
(dp3268
g1718
I01
sg55
g555
sg36
VACT_278
p3269
sg1719
I01
sg1720
I00
sg553
I278
sb(dp3270
g1719
I01
sg55
g555
sssg254
g255
sg256
g255
sg257
(dp3271
g3264
(dp3272
sg3267
(dp3273
g3264
(dp3274
g55
g702
ssssg451
g3271
sg66
(dp3275
sg453
g255
sg454
g3271
sg455
(dp3276
g3264
(dp3277
g3267
g3274
ssg3267
(dp3278
ssbsg548
(lp3279
g3267
ag3264
asg821
(lp3280
(iconstruction
TP_REL
p3281
(dp3282
g827
g3264
sg55
g702
sg553
I280
sg828
g3267
sg36
VIS_280
p3283
sbasg553
I275
sg36
g1639
sbsg1734
(iconstruction
TP_SYNFORM
p3284
(dp3285
g553
I276
sg1737
(lp3286
(iconstruction
TP_PHON
p3287
(dp3288
g1747
I4
sg1744
I0
sg553
I281
sg1748
Vwear
p3289
sg36
g3255
sbasg36
g1639
sbsg1755
I1
sba(iconstruction
CXN
p3290
(dp3291
g1697
(iconstruction
TP_SYMLINKS
p3292
(dp3293
g1700
(dp3294
VN1_286
p3295
VS1_288
p3296
ssg553
I284
sg36
g1639
sbsg1706
VV
p3297
sg1708
I1
sg36
VLAUGH
p3298
sg1709
(iconstruction
TP_SEMFRAME
p3299
(dp3300
g66
g0
(g67
g2
Ntp3301
Rp3302
(dp3303
g71
(dp3304
(iconstruction
TP_NODE
p3305
(dp3306
g1718
I01
sg55
g555
sg36
VACT_285
p3307
sg1719
I01
sg1720
I00
sg553
I285
sb(dp3308
g1719
I01
sg55
g555
ss(iconstruction
TP_NODE
p3309
(dp3310
g1718
I00
sg55
g570
sg36
g3295
sg1719
I00
sg1720
I00
sg553
I286
sb(dp3311
g1719
I00
sg55
g570
sssg254
g255
sg256
g255
sg257
(dp3312
g3305
(dp3313
g3309
(dp3314
g55
g702
sssg3309
(dp3315
ssg451
g3312
sg66
(dp3316
sg453
g255
sg454
g3312
sg455
(dp3317
g3305
(dp3318
sg3309
(dp3319
g3305
g3314
sssbsg548
(lp3320
g3305
ag3309
asg821
(lp3321
(iconstruction
TP_REL
p3322
(dp3323
g827
g3309
sg55
g702
sg553
I287
sg828
g3305
sg36
VIS_287
p3324
sbasg553
I282
sg36
g1639
sbsg1734
(iconstruction
TP_SYNFORM
p3325
(dp3326
g553
I283
sg1737
(lp3327
(iconstruction
TP_PHON
p3328
(dp3329
g1747
I5
sg1744
I0
sg553
I288
sg1748
Vlaugh
p3330
sg36
g3296
sbasg36
g1639
sbsg1755
I1
sba(iconstruction
CXN
p3331
(dp3332
g1697
(iconstruction
TP_SYMLINKS
p3333
(dp3334
g1700
(dp3335
VN1_293
p3336
VS1_295
p3337
ssg553
I291
sg36
g1639
sbsg1706
VV
p3338
sg1708
I1
sg36
VWATCH
p3339
sg1709
(iconstruction
TP_SEMFRAME
p3340
(dp3341
g66
g0
(g67
g2
Ntp3342
Rp3343
(dp3344
g71
(dp3345
(iconstruction
TP_NODE
p3346
(dp3347
g1718
I00
sg55
g579
sg36
g3336
sg1719
I00
sg1720
I00
sg553
I293
sb(dp3348
g1719
I00
sg55
g579
ss(iconstruction
TP_NODE
p3349
(dp3350
g1718
I01
sg55
g555
sg36
VACT_292
p3351
sg1719
I01
sg1720
I00
sg553
I292
sb(dp3352
g1719
I01
sg55
g555
sssg254
g255
sg256
g255
sg257
(dp3353
g3346
(dp3354
sg3349
(dp3355
g3346
(dp3356
g55
g702
ssssg451
g3353
sg66
(dp3357
sg453
g255
sg454
g3353
sg455
(dp3358
g3346
(dp3359
g3349
g3356
ssg3349
(dp3360
ssbsg548
(lp3361
g3349
ag3346
asg821
(lp3362
(iconstruction
TP_REL
p3363
(dp3364
g827
g3346
sg55
g702
sg553
I294
sg828
g3349
sg36
VIS_294
p3365
sbasg553
I289
sg36
g1639
sbsg1734
(iconstruction
TP_SYNFORM
p3366
(dp3367
g553
I290
sg1737
(lp3368
(iconstruction
TP_PHON
p3369
(dp3370
g1747
I5
sg1744
I0
sg553
I295
sg1748
Vwatch
p3371
sg36
g3337
sbasg36
g1639
sbsg1755
I1
sba(iconstruction
CXN
p3372
(dp3373
g1697
(iconstruction
TP_SYMLINKS
p3374
(dp3375
g1700
(dp3376
VN1_300
p3377
VS1_302
p3378
ssg553
I298
sg36
g1639
sbsg1706
VV
p3379
sg1708
I1
sg36
VTALK
p3380
sg1709
(iconstruction
TP_SEMFRAME
p3381
(dp3382
g66
g0
(g67
g2
Ntp3383
Rp3384
(dp3385
g71
(dp3386
(iconstruction
TP_NODE
p3387
(dp3388
g1718
I00
sg55
g588
sg36
g3377
sg1719
I00
sg1720
I00
sg553
I300
sb(dp3389
g1719
I00
sg55
g588
ss(iconstruction
TP_NODE
p3390
(dp3391
g1718
I01
sg55
g555
sg36
VACT_299
p3392
sg1719
I01
sg1720
I00
sg553
I299
sb(dp3393
g1719
I01
sg55
g555
sssg254
g255
sg256
g255
sg257
(dp3394
g3387
(dp3395
sg3390
(dp3396
g3387
(dp3397
g55
g702
ssssg451
g3394
sg66
(dp3398
sg453
g255
sg454
g3394
sg455
(dp3399
g3387
(dp3400
g3390
g3397
ssg3390
(dp3401
ssbsg548
(lp3402
g3390
ag3387
asg821
(lp3403
(iconstruction
TP_REL
p3404
(dp3405
g827
g3387
sg55
g702
sg553
I301
sg828
g3390
sg36
VIS_301
p3406
sbasg553
I296
sg36
g1639
sbsg1734
(iconstruction
TP_SYNFORM
p3407
(dp3408
g553
I297
sg1737
(lp3409
(iconstruction
TP_PHON
p3410
(dp3411
g1747
I4
sg1744
I0
sg553
I302
sg1748
Vtalk
p3412
sg36
g3378
sba(iconstruction
TP_PHON
p3413
(dp3414
g1747
I2
sg1744
I1
sg553
I303
sg1748
Vto
p3415
sg36
VS2_303
p3416
sbasg36
g1639
sbsg1755
I1
sba(iconstruction
CXN
p3417
(dp3418
g1697
(iconstruction
TP_SYMLINKS
p3419
(dp3420
g1700
(dp3421
VN1_308
p3422
VS1_310
p3423
ssg553
I306
sg36
g1639
sbsg1706
VV
p3424
sg1708
I1
sg36
VSQUIRT
p3425
sg1709
(iconstruction
TP_SEMFRAME
p3426
(dp3427
g66
g0
(g67
g2
Ntp3428
Rp3429
(dp3430
g71
(dp3431
(iconstruction
TP_NODE
p3432
(dp3433
g1718
I00
sg55
g594
sg36
g3422
sg1719
I00
sg1720
I00
sg553
I308
sb(dp3434
g1719
I00
sg55
g594
ss(iconstruction
TP_NODE
p3435
(dp3436
g1718
I01
sg55
g555
sg36
VACT_307
p3437
sg1719
I01
sg1720
I00
sg553
I307
sb(dp3438
g1719
I01
sg55
g555
sssg254
g255
sg256
g255
sg257
(dp3439
g3432
(dp3440
sg3435
(dp3441
g3432
(dp3442
g55
g702
ssssg451
g3439
sg66
(dp3443
sg453
g255
sg454
g3439
sg455
(dp3444
g3432
(dp3445
g3435
g3442
ssg3435
(dp3446
ssbsg548
(lp3447
g3435
ag3432
asg821
(lp3448
(iconstruction
TP_REL
p3449
(dp3450
g827
g3432
sg55
g702
sg553
I309
sg828
g3435
sg36
VIS_309
p3451
sbasg553
I304
sg36
g1639
sbsg1734
(iconstruction
TP_SYNFORM
p3452
(dp3453
g553
I305
sg1737
(lp3454
(iconstruction
TP_PHON
p3455
(dp3456
g1747
I6
sg1744
I0
sg553
I310
sg1748
Vsquirt
p3457
sg36
g3423
sba(iconstruction
TP_PHON
p3458
(dp3459
g1747
I2
sg1744
I1
sg553
I311
sg1748
Vat
p3460
sg36
VS2_311
p3461
sbasg36
g1639
sbsg1755
I1
sba(iconstruction
CXN
p3462
(dp3463
g1697
(iconstruction
TP_SYMLINKS
p3464
(dp3465
g1700
(dp3466
VN1_316
p3467
VS1_318
p3468
ssg553
I314
sg36
g1639
sbsg1706
VV
p3469
sg1708
I1
sg36
VSPLASH
p3470
sg1709
(iconstruction
TP_SEMFRAME
p3471
(dp3472
g66
g0
(g67
g2
Ntp3473
Rp3474
(dp3475
g71
(dp3476
(iconstruction
TP_NODE
p3477
(dp3478
g1718
I00
sg55
g585
sg36
g3467
sg1719
I00
sg1720
I00
sg553
I316
sb(dp3479
g1719
I00
sg55
g585
ss(iconstruction
TP_NODE
p3480
(dp3481
g1718
I01
sg55
g555
sg36
VACT_315
p3482
sg1719
I01
sg1720
I00
sg553
I315
sb(dp3483
g1719
I01
sg55
g555
sssg254
g255
sg256
g255
sg257
(dp3484
g3477
(dp3485
sg3480
(dp3486
g3477
(dp3487
g55
g702
ssssg451
g3484
sg66
(dp3488
sg453
g255
sg454
g3484
sg455
(dp3489
g3477
(dp3490
g3480
g3487
ssg3480
(dp3491
ssbsg548
(lp3492
g3480
ag3477
asg821
(lp3493
(iconstruction
TP_REL
p3494
(dp3495
g827
g3477
sg55
g702
sg553
I317
sg828
g3480
sg36
VIS_317
p3496
sbasg553
I312
sg36
g1639
sbsg1734
(iconstruction
TP_SYNFORM
p3497
(dp3498
g553
I313
sg1737
(lp3499
(iconstruction
TP_PHON
p3500
(dp3501
g1747
I6
sg1744
I0
sg553
I318
sg1748
Vsplash
p3502
sg36
g3468
sbasg36
g1639
sbsg1755
I1
sba(iconstruction
CXN
p3503
(dp3504
g1697
(iconstruction
TP_SYMLINKS
p3505
(dp3506
g1700
(dp3507
VN1_323
p3508
VS1_325
p3509
ssg553
I321
sg36
g1639
sbsg1706
VV
p3510
sg1708
I1
sg36
VGIVE
p3511
sg1709
(iconstruction
TP_SEMFRAME
p3512
(dp3513
g66
g0
(g67
g2
Ntp3514
Rp3515
(dp3516
g71
(dp3517
(iconstruction
TP_NODE
p3518
(dp3519
g1718
I01
sg55
g555
sg36
VACT_322
p3520
sg1719
I01
sg1720
I00
sg553
I322
sb(dp3521
g1719
I01
sg55
g555
ss(iconstruction
TP_NODE
p3522
(dp3523
g1718
I00
sg55
g609
sg36
g3508
sg1719
I00
sg1720
I00
sg553
I323
sb(dp3524
g1719
I00
sg55
g609
sssg254
g255
sg256
g255
sg257
(dp3525
g3518
(dp3526
g3522
(dp3527
g55
g702
sssg3522
(dp3528
ssg451
g3525
sg66
(dp3529
sg453
g255
sg454
g3525
sg455
(dp3530
g3518
(dp3531
sg3522
(dp3532
g3518
g3527
sssbsg548
(lp3533
g3518
ag3522
asg821
(lp3534
(iconstruction
TP_REL
p3535
(dp3536
g827
g3522
sg55
g702
sg553
I324
sg828
g3518
sg36
VIS_324
p3537
sbasg553
I319
sg36
g1639
sbsg1734
(iconstruction
TP_SYNFORM
p3538
(dp3539
g553
I320
sg1737
(lp3540
(iconstruction
TP_PHON
p3541
(dp3542
g1747
I4
sg1744
I0
sg553
I325
sg1748
Vgive
p3543
sg36
g3509
sbasg36
g1639
sbsg1755
I1
sba(iconstruction
CXN
p3544
(dp3545
g1697
(iconstruction
TP_SYMLINKS
p3546
(dp3547
g1700
(dp3548
VN1_330
p3549
VS1_332
p3550
ssg553
I328
sg36
g1639
sbsg1706
VV
p3551
sg1708
I1
sg36
VSEND
p3552
sg1709
(iconstruction
TP_SEMFRAME
p3553
(dp3554
g66
g0
(g67
g2
Ntp3555
Rp3556
(dp3557
g71
(dp3558
(iconstruction
TP_NODE
p3559
(dp3560
g1718
I00
sg55
g606
sg36
g3549
sg1719
I00
sg1720
I00
sg553
I330
sb(dp3561
g1719
I00
sg55
g606
ss(iconstruction
TP_NODE
p3562
(dp3563
g1718
I01
sg55
g555
sg36
VACT_329
p3564
sg1719
I01
sg1720
I00
sg553
I329
sb(dp3565
g1719
I01
sg55
g555
sssg254
g255
sg256
g255
sg257
(dp3566
g3559
(dp3567
sg3562
(dp3568
g3559
(dp3569
g55
g702
ssssg451
g3566
sg66
(dp3570
sg453
g255
sg454
g3566
sg455
(dp3571
g3559
(dp3572
g3562
g3569
ssg3562
(dp3573
ssbsg548
(lp3574
g3562
ag3559
asg821
(lp3575
(iconstruction
TP_REL
p3576
(dp3577
g827
g3559
sg55
g702
sg553
I331
sg828
g3562
sg36
VIS_331
p3578
sbasg553
I326
sg36
g1639
sbsg1734
(iconstruction
TP_SYNFORM
p3579
(dp3580
g553
I327
sg1737
(lp3581
(iconstruction
TP_PHON
p3582
(dp3583
g1747
I4
sg1744
I0
sg553
I332
sg1748
Vsend
p3584
sg36
g3550
sbasg36
g1639
sbsg1755
I1
sba(iconstruction
CXN
p3585
(dp3586
g1697
(iconstruction
TP_SYMLINKS
p3587
(dp3588
g1700
(dp3589
VN1_337
p3590
VS1_339
p3591
ssg553
I335
sg36
g1639
sbsg1706
VV
p3592
sg1708
I1
sg36
VMEET
p3593
sg1709
(iconstruction
TP_SEMFRAME
p3594
(dp3595
g66
g0
(g67
g2
Ntp3596
Rp3597
(dp3598
g71
(dp3599
(iconstruction
TP_NODE
p3600
(dp3601
g1718
I01
sg55
g555
sg36
VACT_336
p3602
sg1719
I01
sg1720
I00
sg553
I336
sb(dp3603
g1719
I01
sg55
g555
ss(iconstruction
TP_NODE
p3604
(dp3605
g1718
I00
sg55
g561
sg36
g3590
sg1719
I00
sg1720
I00
sg553
I337
sb(dp3606
g1719
I00
sg55
g561
sssg254
g255
sg256
g255
sg257
(dp3607
g3600
(dp3608
g3604
(dp3609
g55
g702
sssg3604
(dp3610
ssg451
g3607
sg66
(dp3611
sg453
g255
sg454
g3607
sg455
(dp3612
g3600
(dp3613
sg3604
(dp3614
g3600
g3609
sssbsg548
(lp3615
g3600
ag3604
asg821
(lp3616
(iconstruction
TP_REL
p3617
(dp3618
g827
g3604
sg55
g702
sg553
I338
sg828
g3600
sg36
VIS_338
p3619
sbasg553
I333
sg36
g1639
sbsg1734
(iconstruction
TP_SYNFORM
p3620
(dp3621
g553
I334
sg1737
(lp3622
(iconstruction
TP_PHON
p3623
(dp3624
g1747
I4
sg1744
I0
sg553
I339
sg1748
Vmeet
p3625
sg36
g3591
sbasg36
g1639
sbsg1755
I1
sba(iconstruction
CXN
p3626
(dp3627
g1697
(iconstruction
TP_SYMLINKS
p3628
(dp3629
g1700
(dp3630
VN1_344
p3631
VS1_346
p3632
ssg553
I342
sg36
g1639
sbsg1706
VV
p3633
sg1708
I1
sg36
VKISS
p3634
sg1709
(iconstruction
TP_SEMFRAME
p3635
(dp3636
g66
g0
(g67
g2
Ntp3637
Rp3638
(dp3639
g71
(dp3640
(iconstruction
TP_NODE
p3641
(dp3642
g1718
I01
sg55
g555
sg36
VACT_343
p3643
sg1719
I01
sg1720
I00
sg553
I343
sb(dp3644
g1719
I01
sg55
g555
ss(iconstruction
TP_NODE
p3645
(dp3646
g1718
I00
sg55
g591
sg36
g3631
sg1719
I00
sg1720
I00
sg553
I344
sb(dp3647
g1719
I00
sg55
g591
sssg254
g255
sg256
g255
sg257
(dp3648
g3641
(dp3649
g3645
(dp3650
g55
g702
sssg3645
(dp3651
ssg451
g3648
sg66
(dp3652
sg453
g255
sg454
g3648
sg455
(dp3653
g3641
(dp3654
sg3645
(dp3655
g3641
g3650
sssbsg548
(lp3656
g3641
ag3645
asg821
(lp3657
(iconstruction
TP_REL
p3658
(dp3659
g827
g3645
sg55
g702
sg553
I345
sg828
g3641
sg36
VIS_345
p3660
sbasg553
I340
sg36
g1639
sbsg1734
(iconstruction
TP_SYNFORM
p3661
(dp3662
g553
I341
sg1737
(lp3663
(iconstruction
TP_PHON
p3664
(dp3665
g1747
I4
sg1744
I0
sg553
I346
sg1748
Vkiss
p3666
sg36
g3632
sbasg36
g1639
sbsg1755
I1
sba(iconstruction
CXN
p3667
(dp3668
g1697
(iconstruction
TP_SYMLINKS
p3669
(dp3670
g1700
(dp3671
VN1_351
p3672
VS1_353
p3673
ssg553
I349
sg36
g1639
sbsg1706
VV
p3674
sg1708
I1
sg36
VSHAKE_HANDS
p3675
sg1709
(iconstruction
TP_SEMFRAME
p3676
(dp3677
g66
g0
(g67
g2
Ntp3678
Rp3679
(dp3680
g71
(dp3681
(iconstruction
TP_NODE
p3682
(dp3683
g1718
I00
sg55
g564
sg36
g3672
sg1719
I00
sg1720
I00
sg553
I351
sb(dp3684
g1719
I00
sg55
g564
ss(iconstruction
TP_NODE
p3685
(dp3686
g1718
I01
sg55
g555
sg36
VACT_350
p3687
sg1719
I01
sg1720
I00
sg553
I350
sb(dp3688
g1719
I01
sg55
g555
sssg254
g255
sg256
g255
sg257
(dp3689
g3682
(dp3690
sg3685
(dp3691
g3682
(dp3692
g55
g702
ssssg451
g3689
sg66
(dp3693
sg453
g255
sg454
g3689
sg455
(dp3694
g3682
(dp3695
g3685
g3692
ssg3685
(dp3696
ssbsg548
(lp3697
g3685
ag3682
asg821
(lp3698
(iconstruction
TP_REL
p3699
(dp3700
g827
g3682
sg55
g702
sg553
I352
sg828
g3685
sg36
VIS_352
p3701
sbasg553
I347
sg36
g1639
sbsg1734
(iconstruction
TP_SYNFORM
p3702
(dp3703
g553
I348
sg1737
(lp3704
(iconstruction
TP_PHON
p3705
(dp3706
g1747
I10
sg1744
I0
sg553
I353
sg1748
Vshake hands
p3707
sg36
g3673
sbasg36
g1639
sbsg1755
I1
sba(iconstruction
CXN
p3708
(dp3709
g1697
(iconstruction
TP_SYMLINKS
p3710
(dp3711
g1700
(dp3712
VN1_357
p3713
VS1_358
p3714
ssg553
I356
sg36
g1639
sbsg1706
VA
p3715
sg1708
I1
sg36
VBLUE
p3716
sg1709
(iconstruction
TP_SEMFRAME
p3717
(dp3718
g66
g0
(g67
g2
Ntp3719
Rp3720
(dp3721
g71
(dp3722
(iconstruction
TP_NODE
p3723
(dp3724
g1718
I01
sg55
g618
sg36
g3713
sg1719
I00
sg1720
I00
sg553
I357
sb(dp3725
g1719
I00
sg55
g618
sssg254
g255
sg256
g255
sg257
(dp3726
g3723
(dp3727
ssg451
g3726
sg66
(dp3728
sg453
g255
sg454
g3726
sg455
(dp3729
g3723
(dp3730
ssbsg548
(lp3731
g3723
asg821
(lp3732
sg553
I354
sg36
g1639
sbsg1734
(iconstruction
TP_SYNFORM
p3733
(dp3734
g553
I355
sg1737
(lp3735
(iconstruction
TP_PHON
p3736
(dp3737
g1747
I4
sg1744
I0
sg553
I358
sg1748
Vblue
p3738
sg36
g3714
sbasg36
g1639
sbsg1755
I1
sba(iconstruction
CXN
p3739
(dp3740
g1697
(iconstruction
TP_SYMLINKS
p3741
(dp3742
g1700
(dp3743
VN1_362
p3744
VS1_363
p3745
ssg553
I361
sg36
g1639
sbsg1706
VA
p3746
sg1708
I1
sg36
VBLACK
p3747
sg1709
(iconstruction
TP_SEMFRAME
p3748
(dp3749
g66
g0
(g67
g2
Ntp3750
Rp3751
(dp3752
g71
(dp3753
(iconstruction
TP_NODE
p3754
(dp3755
g1718
I01
sg55
g627
sg36
g3744
sg1719
I00
sg1720
I00
sg553
I362
sb(dp3756
g1719
I00
sg55
g627
sssg254
g255
sg256
g255
sg257
(dp3757
g3754
(dp3758
ssg451
g3757
sg66
(dp3759
sg453
g255
sg454
g3757
sg455
(dp3760
g3754
(dp3761
ssbsg548
(lp3762
g3754
asg821
(lp3763
sg553
I359
sg36
g1639
sbsg1734
(iconstruction
TP_SYNFORM
p3764
(dp3765
g553
I360
sg1737
(lp3766
(iconstruction
TP_PHON
p3767
(dp3768
g1747
I5
sg1744
I0
sg553
I363
sg1748
Vblack
p3769
sg36
g3745
sbasg36
g1639
sbsg1755
I1
sba(iconstruction
CXN
p3770
(dp3771
g1697
(iconstruction
TP_SYMLINKS
p3772
(dp3773
g1700
(dp3774
VN1_367
p3775
VS1_368
p3776
ssg553
I366
sg36
g1639
sbsg1706
VA
p3777
sg1708
I1
sg36
VGREEN
p3778
sg1709
(iconstruction
TP_SEMFRAME
p3779
(dp3780
g66
g0
(g67
g2
Ntp3781
Rp3782
(dp3783
g71
(dp3784
(iconstruction
TP_NODE
p3785
(dp3786
g1718
I01
sg55
g621
sg36
g3775
sg1719
I00
sg1720
I00
sg553
I367
sb(dp3787
g1719
I00
sg55
g621
sssg254
g255
sg256
g255
sg257
(dp3788
g3785
(dp3789
ssg451
g3788
sg66
(dp3790
sg453
g255
sg454
g3788
sg455
(dp3791
g3785
(dp3792
ssbsg548
(lp3793
g3785
asg821
(lp3794
sg553
I364
sg36
g1639
sbsg1734
(iconstruction
TP_SYNFORM
p3795
(dp3796
g553
I365
sg1737
(lp3797
(iconstruction
TP_PHON
p3798
(dp3799
g1747
I5
sg1744
I0
sg553
I368
sg1748
Vgreen
p3800
sg36
g3776
sbasg36
g1639
sbsg1755
I1
sba(iconstruction
CXN
p3801
(dp3802
g1697
(iconstruction
TP_SYMLINKS
p3803
(dp3804
g1700
(dp3805
VN1_372
p3806
VS1_373
p3807
ssg553
I371
sg36
g1639
sbsg1706
VA
p3808
sg1708
I1
sg36
VSMALL
p3809
sg1709
(iconstruction
TP_SEMFRAME
p3810
(dp3811
g66
g0
(g67
g2
Ntp3812
Rp3813
(dp3814
g71
(dp3815
(iconstruction
TP_NODE
p3816
(dp3817
g1718
I01
sg55
g648
sg36
g3806
sg1719
I00
sg1720
I00
sg553
I372
sb(dp3818
g1719
I00
sg55
g648
sssg254
g255
sg256
g255
sg257
(dp3819
g3816
(dp3820
ssg451
g3819
sg66
(dp3821
sg453
g255
sg454
g3819
sg455
(dp3822
g3816
(dp3823
ssbsg548
(lp3824
g3816
asg821
(lp3825
sg553
I369
sg36
g1639
sbsg1734
(iconstruction
TP_SYNFORM
p3826
(dp3827
g553
I370
sg1737
(lp3828
(iconstruction
TP_PHON
p3829
(dp3830
g1747
I5
sg1744
I0
sg553
I373
sg1748
Vsmall
p3831
sg36
g3807
sbasg36
g1639
sbsg1755
I1
sba(iconstruction
CXN
p3832
(dp3833
g1697
(iconstruction
TP_SYMLINKS
p3834
(dp3835
g1700
(dp3836
VN1_377
p3837
VS1_378
p3838
ssg553
I376
sg36
g1639
sbsg1706
VA
p3839
sg1708
I1
sg36
VBIG
p3840
sg1709
(iconstruction
TP_SEMFRAME
p3841
(dp3842
g66
g0
(g67
g2
Ntp3843
Rp3844
(dp3845
g71
(dp3846
(iconstruction
TP_NODE
p3847
(dp3848
g1718
I01
sg55
g651
sg36
g3837
sg1719
I00
sg1720
I00
sg553
I377
sb(dp3849
g1719
I00
sg55
g651
sssg254
g255
sg256
g255
sg257
(dp3850
g3847
(dp3851
ssg451
g3850
sg66
(dp3852
sg453
g255
sg454
g3850
sg455
(dp3853
g3847
(dp3854
ssbsg548
(lp3855
g3847
asg821
(lp3856
sg553
I374
sg36
g1639
sbsg1734
(iconstruction
TP_SYNFORM
p3857
(dp3858
g553
I375
sg1737
(lp3859
(iconstruction
TP_PHON
p3860
(dp3861
g1747
I3
sg1744
I0
sg553
I378
sg1748
Vbig
p3862
sg36
g3838
sbasg36
g1639
sbsg1755
I1
sba(iconstruction
CXN
p3863
(dp3864
g1697
(iconstruction
TP_SYMLINKS
p3865
(dp3866
g1700
(dp3867
VN1_382
p3868
VS1_383
p3869
ssg553
I381
sg36
g1639
sbsg1706
VA
p3870
sg1708
I1
sg36
VHANDSOME
p3871
sg1709
(iconstruction
TP_SEMFRAME
p3872
(dp3873
g66
g0
(g67
g2
Ntp3874
Rp3875
(dp3876
g71
(dp3877
(iconstruction
TP_NODE
p3878
(dp3879
g1718
I01
sg55
g642
sg36
g3868
sg1719
I00
sg1720
I00
sg553
I382
sb(dp3880
g1719
I00
sg55
g642
sssg254
g255
sg256
g255
sg257
(dp3881
g3878
(dp3882
ssg451
g3881
sg66
(dp3883
sg453
g255
sg454
g3881
sg455
(dp3884
g3878
(dp3885
ssbsg548
(lp3886
g3878
asg821
(lp3887
sg553
I379
sg36
g1639
sbsg1734
(iconstruction
TP_SYNFORM
p3888
(dp3889
g553
I380
sg1737
(lp3890
(iconstruction
TP_PHON
p3891
(dp3892
g1747
I8
sg1744
I0
sg553
I383
sg1748
Vhandsome
p3893
sg36
g3869
sbasg36
g1639
sbsg1755
I1
sba(iconstruction
CXN
p3894
(dp3895
g1697
(iconstruction
TP_SYMLINKS
p3896
(dp3897
g1700
(dp3898
VN1_387
p3899
VS1_388
p3900
ssg553
I386
sg36
g1639
sbsg1706
VA
p3901
sg1708
I1
sg36
VPRETTY
p3902
sg1709
(iconstruction
TP_SEMFRAME
p3903
(dp3904
g66
g0
(g67
g2
Ntp3905
Rp3906
(dp3907
g71
(dp3908
(iconstruction
TP_NODE
p3909
(dp3910
g1718
I01
sg55
g639
sg36
g3899
sg1719
I00
sg1720
I00
sg553
I387
sb(dp3911
g1719
I00
sg55
g639
sssg254
g255
sg256
g255
sg257
(dp3912
g3909
(dp3913
ssg451
g3912
sg66
(dp3914
sg453
g255
sg454
g3912
sg455
(dp3915
g3909
(dp3916
ssbsg548
(lp3917
g3909
asg821
(lp3918
sg553
I384
sg36
g1639
sbsg1734
(iconstruction
TP_SYNFORM
p3919
(dp3920
g553
I385
sg1737
(lp3921
(iconstruction
TP_PHON
p3922
(dp3923
g1747
I6
sg1744
I0
sg553
I388
sg1748
Vpretty
p3924
sg36
g3900
sbasg36
g1639
sbsg1755
I1
sba(iconstruction
CXN
p3925
(dp3926
g1697
(iconstruction
TP_SYMLINKS
p3927
(dp3928
g1700
(dp3929
VN1_392
p3930
VS1_393
p3931
ssg553
I391
sg36
g1639
sbsg1706
VA
p3932
sg1708
I1
sg36
VYOUNG
p3933
sg1709
(iconstruction
TP_SEMFRAME
p3934
(dp3935
g66
g0
(g67
g2
Ntp3936
Rp3937
(dp3938
g71
(dp3939
(iconstruction
TP_NODE
p3940
(dp3941
g1718
I01
sg55
g636
sg36
g3930
sg1719
I00
sg1720
I00
sg553
I392
sb(dp3942
g1719
I00
sg55
g636
sssg254
g255
sg256
g255
sg257
(dp3943
g3940
(dp3944
ssg451
g3943
sg66
(dp3945
sg453
g255
sg454
g3943
sg455
(dp3946
g3940
(dp3947
ssbsg548
(lp3948
g3940
asg821
(lp3949
sg553
I389
sg36
g1639
sbsg1734
(iconstruction
TP_SYNFORM
p3950
(dp3951
g553
I390
sg1737
(lp3952
(iconstruction
TP_PHON
p3953
(dp3954
g1747
I5
sg1744
I0
sg553
I393
sg1748
Vyoung
p3955
sg36
g3931
sbasg36
g1639
sbsg1755
I1
sba(iconstruction
CXN
p3956
(dp3957
g1697
(iconstruction
TP_SYMLINKS
p3958
(dp3959
g1700
(dp3960
VN1_398
p3961
VS1_400
p3962
ssg553
I396
sg36
g1639
sbsg1706
VN
p3963
sg1708
I1
sg36
VWOMAN
p3964
sg1709
(iconstruction
TP_SEMFRAME
p3965
(dp3966
g66
g0
(g67
g2
Ntp3967
Rp3968
(dp3969
g71
(dp3970
(iconstruction
TP_NODE
p3971
(dp3972
g1718
I00
sg55
g777
sg36
g3961
sg1719
I00
sg1720
I00
sg553
I398
sb(dp3973
g1719
I00
sg55
g777
ss(iconstruction
TP_NODE
p3974
(dp3975
g1718
I01
sg55
g711
sg36
VENT_397
p3976
sg1719
I01
sg1720
I00
sg553
I397
sb(dp3977
g1719
I01
sg55
g711
sssg254
g255
sg256
g255
sg257
(dp3978
g3971
(dp3979
sg3974
(dp3980
g3971
(dp3981
g55
g702
ssssg451
g3978
sg66
(dp3982
sg453
g255
sg454
g3978
sg455
(dp3983
g3971
(dp3984
g3974
g3981
ssg3974
(dp3985
ssbsg548
(lp3986
g3974
ag3971
asg821
(lp3987
(iconstruction
TP_REL
p3988
(dp3989
g827
g3971
sg55
g702
sg553
I399
sg828
g3974
sg36
VIS_399
p3990
sbasg553
I394
sg36
g1639
sbsg1734
(iconstruction
TP_SYNFORM
p3991
(dp3992
g553
I395
sg1737
(lp3993
(iconstruction
TP_PHON
p3994
(dp3995
g1747
I5
sg1744
I0
sg553
I400
sg1748
Vwoman
p3996
sg36
g3962
sbasg36
g1639
sbsg1755
I1
sba(iconstruction
CXN
p3997
(dp3998
g1697
(iconstruction
TP_SYMLINKS
p3999
(dp4000
g1700
(dp4001
VN1_405
p4002
VS1_407
p4003
ssg553
I403
sg36
g1639
sbsg1706
VN
p4004
sg1708
I1
sg36
VWOMAN2
p4005
sg1709
(iconstruction
TP_SEMFRAME
p4006
(dp4007
g66
g0
(g67
g2
Ntp4008
Rp4009
(dp4010
g71
(dp4011
(iconstruction
TP_NODE
p4012
(dp4013
g1718
I01
sg55
g711
sg36
VENT_404
p4014
sg1719
I01
sg1720
I00
sg553
I404
sb(dp4015
g1719
I01
sg55
g711
ss(iconstruction
TP_NODE
p4016
(dp4017
g1718
I00
sg55
g777
sg36
g4002
sg1719
I00
sg1720
I00
sg553
I405
sb(dp4018
g1719
I00
sg55
g777
sssg254
g255
sg256
g255
sg257
(dp4019
g4012
(dp4020
g4016
(dp4021
g55
g702
sssg4016
(dp4022
ssg451
g4019
sg66
(dp4023
sg453
g255
sg454
g4019
sg455
(dp4024
g4012
(dp4025
sg4016
(dp4026
g4012
g4021
sssbsg548
(lp4027
g4012
ag4016
asg821
(lp4028
(iconstruction
TP_REL
p4029
(dp4030
g827
g4016
sg55
g702
sg553
I406
sg828
g4012
sg36
VIS_406
p4031
sbasg553
I401
sg36
g1639
sbsg1734
(iconstruction
TP_SYNFORM
p4032
(dp4033
g553
I402
sg1737
(lp4034
(iconstruction
TP_PHON
p4035
(dp4036
g1747
I4
sg1744
I0
sg553
I407
sg1748
Vlady
p4037
sg36
g4003
sbasg36
g1639
sbsg1755
I1
sba(iconstruction
CXN
p4038
(dp4039
g1697
(iconstruction
TP_SYMLINKS
p4040
(dp4041
g1700
(dp4042
VN1_412
p4043
VS1_414
p4044
ssg553
I410
sg36
g1639
sbsg1706
VN
p4045
sg1708
I1
sg36
VMAN
p4046
sg1709
(iconstruction
TP_SEMFRAME
p4047
(dp4048
g66
g0
(g67
g2
Ntp4049
Rp4050
(dp4051
g71
(dp4052
(iconstruction
TP_NODE
p4053
(dp4054
g1718
I00
sg55
g804
sg36
g4043
sg1719
I00
sg1720
I00
sg553
I412
sb(dp4055
g1719
I00
sg55
g804
ss(iconstruction
TP_NODE
p4056
(dp4057
g1718
I01
sg55
g711
sg36
VENT_411
p4058
sg1719
I01
sg1720
I00
sg553
I411
sb(dp4059
g1719
I01
sg55
g711
sssg254
g255
sg256
g255
sg257
(dp4060
g4053
(dp4061
sg4056
(dp4062
g4053
(dp4063
g55
g702
ssssg451
g4060
sg66
(dp4064
sg453
g255
sg454
g4060
sg455
(dp4065
g4053
(dp4066
g4056
g4063
ssg4056
(dp4067
ssbsg548
(lp4068
g4056
ag4053
asg821
(lp4069
(iconstruction
TP_REL
p4070
(dp4071
g827
g4053
sg55
g702
sg553
I413
sg828
g4056
sg36
VIS_413
p4072
sbasg553
I408
sg36
g1639
sbsg1734
(iconstruction
TP_SYNFORM
p4073
(dp4074
g553
I409
sg1737
(lp4075
(iconstruction
TP_PHON
p4076
(dp4077
g1747
I3
sg1744
I0
sg553
I414
sg1748
Vman
p4078
sg36
g4044
sbasg36
g1639
sbsg1755
I1
sba(iconstruction
CXN
p4079
(dp4080
g1697
(iconstruction
TP_SYMLINKS
p4081
(dp4082
g1700
(dp4083
VN1_419
p4084
VS1_421
p4085
ssg553
I417
sg36
g1639
sbsg1706
VN
p4086
sg1708
I1
sg36
VGIRL
p4087
sg1709
(iconstruction
TP_SEMFRAME
p4088
(dp4089
g66
g0
(g67
g2
Ntp4090
Rp4091
(dp4092
g71
(dp4093
(iconstruction
TP_NODE
p4094
(dp4095
g1718
I00
sg55
g795
sg36
g4084
sg1719
I00
sg1720
I00
sg553
I419
sb(dp4096
g1719
I00
sg55
g795
ss(iconstruction
TP_NODE
p4097
(dp4098
g1718
I01
sg55
g711
sg36
VENT_418
p4099
sg1719
I01
sg1720
I00
sg553
I418
sb(dp4100
g1719
I01
sg55
g711
sssg254
g255
sg256
g255
sg257
(dp4101
g4094
(dp4102
sg4097
(dp4103
g4094
(dp4104
g55
g702
ssssg451
g4101
sg66
(dp4105
sg453
g255
sg454
g4101
sg455
(dp4106
g4094
(dp4107
g4097
g4104
ssg4097
(dp4108
ssbsg548
(lp4109
g4097
ag4094
asg821
(lp4110
(iconstruction
TP_REL
p4111
(dp4112
g827
g4094
sg55
g702
sg553
I420
sg828
g4097
sg36
VIS_420
p4113
sbasg553
I415
sg36
g1639
sbsg1734
(iconstruction
TP_SYNFORM
p4114
(dp4115
g553
I416
sg1737
(lp4116
(iconstruction
TP_PHON
p4117
(dp4118
g1747
I4
sg1744
I0
sg553
I421
sg1748
Vgirl
p4119
sg36
g4085
sbasg36
g1639
sbsg1755
I1
sba(iconstruction
CXN
p4120
(dp4121
g1697
(iconstruction
TP_SYMLINKS
p4122
(dp4123
g1700
(dp4124
VN1_426
p4125
VS1_428
p4126
ssg553
I424
sg36
g1639
sbsg1706
VN
p4127
sg1708
I1
sg36
VBOY
p4128
sg1709
(iconstruction
TP_SEMFRAME
p4129
(dp4130
g66
g0
(g67
g2
Ntp4131
Rp4132
(dp4133
g71
(dp4134
(iconstruction
TP_NODE
p4135
(dp4136
g1718
I01
sg55
g711
sg36
VENT_425
p4137
sg1719
I01
sg1720
I00
sg553
I425
sb(dp4138
g1719
I01
sg55
g711
ss(iconstruction
TP_NODE
p4139
(dp4140
g1718
I00
sg55
g774
sg36
g4125
sg1719
I00
sg1720
I00
sg553
I426
sb(dp4141
g1719
I00
sg55
g774
sssg254
g255
sg256
g255
sg257
(dp4142
g4135
(dp4143
g4139
(dp4144
g55
g702
sssg4139
(dp4145
ssg451
g4142
sg66
(dp4146
sg453
g255
sg454
g4142
sg455
(dp4147
g4135
(dp4148
sg4139
(dp4149
g4135
g4144
sssbsg548
(lp4150
g4135
ag4139
asg821
(lp4151
(iconstruction
TP_REL
p4152
(dp4153
g827
g4139
sg55
g702
sg553
I427
sg828
g4135
sg36
VIS_427
p4154
sbasg553
I422
sg36
g1639
sbsg1734
(iconstruction
TP_SYNFORM
p4155
(dp4156
g553
I423
sg1737
(lp4157
(iconstruction
TP_PHON
p4158
(dp4159
g1747
I3
sg1744
I0
sg553
I428
sg1748
Vboy
p4160
sg36
g4126
sbasg36
g1639
sbsg1755
I1
sba(iconstruction
CXN
p4161
(dp4162
g1697
(iconstruction
TP_SYMLINKS
p4163
(dp4164
g1700
(dp4165
VN1_433
p4166
VS1_435
p4167
ssg553
I431
sg36
g1639
sbsg1706
VN
p4168
sg1708
I1
sg36
VPEOPLE
p4169
sg1709
(iconstruction
TP_SEMFRAME
p4170
(dp4171
g66
g0
(g67
g2
Ntp4172
Rp4173
(dp4174
g71
(dp4175
(iconstruction
TP_NODE
p4176
(dp4177
g1718
I00
sg55
g780
sg36
g4166
sg1719
I00
sg1720
I00
sg553
I433
sb(dp4178
g1719
I00
sg55
g780
ss(iconstruction
TP_NODE
p4179
(dp4180
g1718
I01
sg55
g711
sg36
VENT_432
p4181
sg1719
I01
sg1720
I00
sg553
I432
sb(dp4182
g1719
I01
sg55
g711
sssg254
g255
sg256
g255
sg257
(dp4183
g4176
(dp4184
sg4179
(dp4185
g4176
(dp4186
g55
g702
ssssg451
g4183
sg66
(dp4187
sg453
g255
sg454
g4183
sg455
(dp4188
g4176
(dp4189
g4179
g4186
ssg4179
(dp4190
ssbsg548
(lp4191
g4179
ag4176
asg821
(lp4192
(iconstruction
TP_REL
p4193
(dp4194
g827
g4176
sg55
g702
sg553
I434
sg828
g4179
sg36
VIS_434
p4195
sbasg553
I429
sg36
g1639
sbsg1734
(iconstruction
TP_SYNFORM
p4196
(dp4197
g553
I430
sg1737
(lp4198
(iconstruction
TP_PHON
p4199
(dp4200
g1747
I6
sg1744
I0
sg553
I435
sg1748
Vpeople
p4201
sg36
g4167
sbasg36
g1639
sbsg1755
I1
sba(iconstruction
CXN
p4202
(dp4203
g1697
(iconstruction
TP_SYMLINKS
p4204
(dp4205
g1700
(dp4206
VN1_440
p4207
VS1_442
p4208
ssg553
I438
sg36
g1639
sbsg1706
VN
p4209
sg1708
I1
sg36
VMOUSE
p4210
sg1709
(iconstruction
TP_SEMFRAME
p4211
(dp4212
g66
g0
(g67
g2
Ntp4213
Rp4214
(dp4215
g71
(dp4216
(iconstruction
TP_NODE
p4217
(dp4218
g1718
I01
sg55
g711
sg36
VENT_439
p4219
sg1719
I01
sg1720
I00
sg553
I439
sb(dp4220
g1719
I01
sg55
g711
ss(iconstruction
TP_NODE
p4221
(dp4222
g1718
I00
sg55
g768
sg36
g4207
sg1719
I00
sg1720
I00
sg553
I440
sb(dp4223
g1719
I00
sg55
g768
sssg254
g255
sg256
g255
sg257
(dp4224
g4217
(dp4225
g4221
(dp4226
g55
g702
sssg4221
(dp4227
ssg451
g4224
sg66
(dp4228
sg453
g255
sg454
g4224
sg455
(dp4229
g4217
(dp4230
sg4221
(dp4231
g4217
g4226
sssbsg548
(lp4232
g4217
ag4221
asg821
(lp4233
(iconstruction
TP_REL
p4234
(dp4235
g827
g4221
sg55
g702
sg553
I441
sg828
g4217
sg36
VIS_441
p4236
sbasg553
I436
sg36
g1639
sbsg1734
(iconstruction
TP_SYNFORM
p4237
(dp4238
g553
I437
sg1737
(lp4239
(iconstruction
TP_PHON
p4240
(dp4241
g1747
I5
sg1744
I0
sg553
I442
sg1748
Vmouse
p4242
sg36
g4208
sbasg36
g1639
sbsg1755
I1
sba(iconstruction
CXN
p4243
(dp4244
g1697
(iconstruction
TP_SYMLINKS
p4245
(dp4246
g1700
(dp4247
VN1_447
p4248
VS1_449
p4249
ssg553
I445
sg36
g1639
sbsg1706
VN
p4250
sg1708
I1
sg36
VTURTLE
p4251
sg1709
(iconstruction
TP_SEMFRAME
p4252
(dp4253
g66
g0
(g67
g2
Ntp4254
Rp4255
(dp4256
g71
(dp4257
(iconstruction
TP_NODE
p4258
(dp4259
g1718
I00
sg55
g765
sg36
g4248
sg1719
I00
sg1720
I00
sg553
I447
sb(dp4260
g1719
I00
sg55
g765
ss(iconstruction
TP_NODE
p4261
(dp4262
g1718
I01
sg55
g711
sg36
VENT_446
p4263
sg1719
I01
sg1720
I00
sg553
I446
sb(dp4264
g1719
I01
sg55
g711
sssg254
g255
sg256
g255
sg257
(dp4265
g4258
(dp4266
sg4261
(dp4267
g4258
(dp4268
g55
g702
ssssg451
g4265
sg66
(dp4269
sg453
g255
sg454
g4265
sg455
(dp4270
g4258
(dp4271
g4261
g4268
ssg4261
(dp4272
ssbsg548
(lp4273
g4261
ag4258
asg821
(lp4274
(iconstruction
TP_REL
p4275
(dp4276
g827
g4258
sg55
g702
sg553
I448
sg828
g4261
sg36
VIS_448
p4277
sbasg553
I443
sg36
g1639
sbsg1734
(iconstruction
TP_SYNFORM
p4278
(dp4279
g553
I444
sg1737
(lp4280
(iconstruction
TP_PHON
p4281
(dp4282
g1747
I6
sg1744
I0
sg553
I449
sg1748
Vturtle
p4283
sg36
g4249
sbasg36
g1639
sbsg1755
I1
sba(iconstruction
CXN
p4284
(dp4285
g1697
(iconstruction
TP_SYMLINKS
p4286
(dp4287
g1700
(dp4288
VN1_454
p4289
VS1_456
p4290
ssg553
I452
sg36
g1639
sbsg1706
VN
p4291
sg1708
I1
sg36
VDRESS
p4292
sg1709
(iconstruction
TP_SEMFRAME
p4293
(dp4294
g66
g0
(g67
g2
Ntp4295
Rp4296
(dp4297
g71
(dp4298
(iconstruction
TP_NODE
p4299
(dp4300
g1718
I00
sg55
g756
sg36
g4289
sg1719
I00
sg1720
I00
sg553
I454
sb(dp4301
g1719
I00
sg55
g756
ss(iconstruction
TP_NODE
p4302
(dp4303
g1718
I01
sg55
g711
sg36
VENT_453
p4304
sg1719
I01
sg1720
I00
sg553
I453
sb(dp4305
g1719
I01
sg55
g711
sssg254
g255
sg256
g255
sg257
(dp4306
g4299
(dp4307
sg4302
(dp4308
g4299
(dp4309
g55
g702
ssssg451
g4306
sg66
(dp4310
sg453
g255
sg454
g4306
sg455
(dp4311
g4299
(dp4312
g4302
g4309
ssg4302
(dp4313
ssbsg548
(lp4314
g4302
ag4299
asg821
(lp4315
(iconstruction
TP_REL
p4316
(dp4317
g827
g4299
sg55
g702
sg553
I455
sg828
g4302
sg36
VIS_455
p4318
sbasg553
I450
sg36
g1639
sbsg1734
(iconstruction
TP_SYNFORM
p4319
(dp4320
g553
I451
sg1737
(lp4321
(iconstruction
TP_PHON
p4322
(dp4323
g1747
I5
sg1744
I0
sg553
I456
sg1748
Vdress
p4324
sg36
g4290
sbasg36
g1639
sbsg1755
I1
sba(iconstruction
CXN
p4325
(dp4326
g1697
(iconstruction
TP_SYMLINKS
p4327
(dp4328
g1700
(dp4329
VN1_461
p4330
VS1_463
p4331
ssg553
I459
sg36
g1639
sbsg1706
VN
p4332
sg1708
I1
sg36
VTSHIRT
p4333
sg1709
(iconstruction
TP_SEMFRAME
p4334
(dp4335
g66
g0
(g67
g2
Ntp4336
Rp4337
(dp4338
g71
(dp4339
(iconstruction
TP_NODE
p4340
(dp4341
g1718
I01
sg55
g711
sg36
VENT_460
p4342
sg1719
I01
sg1720
I00
sg553
I460
sb(dp4343
g1719
I01
sg55
g711
ss(iconstruction
TP_NODE
p4344
(dp4345
g1718
I00
sg55
g753
sg36
g4330
sg1719
I00
sg1720
I00
sg553
I461
sb(dp4346
g1719
I00
sg55
g753
sssg254
g255
sg256
g255
sg257
(dp4347
g4340
(dp4348
g4344
(dp4349
g55
g702
sssg4344
(dp4350
ssg451
g4347
sg66
(dp4351
sg453
g255
sg454
g4347
sg455
(dp4352
g4340
(dp4353
sg4344
(dp4354
g4340
g4349
sssbsg548
(lp4355
g4340
ag4344
asg821
(lp4356
(iconstruction
TP_REL
p4357
(dp4358
g827
g4344
sg55
g702
sg553
I462
sg828
g4340
sg36
VIS_462
p4359
sbasg553
I457
sg36
g1639
sbsg1734
(iconstruction
TP_SYNFORM
p4360
(dp4361
g553
I458
sg1737
(lp4362
(iconstruction
TP_PHON
p4363
(dp4364
g1747
I6
sg1744
I0
sg553
I463
sg1748
Vt-shirt
p4365
sg36
g4331
sbasg36
g1639
sbsg1755
I1
sba(iconstruction
CXN
p4366
(dp4367
g1697
(iconstruction
TP_SYMLINKS
p4368
(dp4369
g1700
(dp4370
VN1_468
p4371
VS2_471
p4372
ssg553
I466
sg36
g1639
sbsg1706
VN
p4373
sg1708
I1
sg36
VBOXINGRING
p4374
sg1709
(iconstruction
TP_SEMFRAME
p4375
(dp4376
g66
g0
(g67
g2
Ntp4377
Rp4378
(dp4379
g71
(dp4380
(iconstruction
TP_NODE
p4381
(dp4382
g1718
I00
sg55
g810
sg36
g4371
sg1719
I00
sg1720
I00
sg553
I468
sb(dp4383
g1719
I00
sg55
g810
ss(iconstruction
TP_NODE
p4384
(dp4385
g1718
I01
sg55
g711
sg36
VENT_467
p4386
sg1719
I01
sg1720
I00
sg553
I467
sb(dp4387
g1719
I01
sg55
g711
sssg254
g255
sg256
g255
sg257
(dp4388
g4381
(dp4389
sg4384
(dp4390
g4381
(dp4391
g55
g702
ssssg451
g4388
sg66
(dp4392
sg453
g255
sg454
g4388
sg455
(dp4393
g4381
(dp4394
g4384
g4391
ssg4384
(dp4395
ssbsg548
(lp4396
g4384
ag4381
asg821
(lp4397
(iconstruction
TP_REL
p4398
(dp4399
g827
g4381
sg55
g702
sg553
I469
sg828
g4384
sg36
VIS_469
p4400
sbasg553
I464
sg36
g1639
sbsg1734
(iconstruction
TP_SYNFORM
p4401
(dp4402
g553
I465
sg1737
(lp4403
(iconstruction
TP_PHON
p4404
(dp4405
g1747
I6
sg1744
I0
sg553
I470
sg1748
Vboxing
p4406
sg36
VS1_470
p4407
sba(iconstruction
TP_PHON
p4408
(dp4409
g1747
I4
sg1744
I1
sg553
I471
sg1748
Vring
p4410
sg36
g4372
sbasg36
g1639
sbsg1755
I1
sba(iconstruction
CXN
p4411
(dp4412
g1697
(iconstruction
TP_SYMLINKS
p4413
(dp4414
g1700
(dp4415
VN1_476
p4416
VS1_478
p4417
ssg553
I474
sg36
g1639
sbsg1706
VN
p4418
sg1708
I1
sg36
VPARK
p4419
sg1709
(iconstruction
TP_SEMFRAME
p4420
(dp4421
g66
g0
(g67
g2
Ntp4422
Rp4423
(dp4424
g71
(dp4425
(iconstruction
TP_NODE
p4426
(dp4427
g1718
I00
sg55
g813
sg36
g4416
sg1719
I00
sg1720
I00
sg553
I476
sb(dp4428
g1719
I00
sg55
g813
ss(iconstruction
TP_NODE
p4429
(dp4430
g1718
I01
sg55
g711
sg36
VENT_475
p4431
sg1719
I01
sg1720
I00
sg553
I475
sb(dp4432
g1719
I01
sg55
g711
sssg254
g255
sg256
g255
sg257
(dp4433
g4426
(dp4434
sg4429
(dp4435
g4426
(dp4436
g55
g702
ssssg451
g4433
sg66
(dp4437
sg453
g255
sg454
g4433
sg455
(dp4438
g4426
(dp4439
g4429
g4436
ssg4429
(dp4440
ssbsg548
(lp4441
g4429
ag4426
asg821
(lp4442
(iconstruction
TP_REL
p4443
(dp4444
g827
g4426
sg55
g702
sg553
I477
sg828
g4429
sg36
VIS_477
p4445
sbasg553
I472
sg36
g1639
sbsg1734
(iconstruction
TP_SYNFORM
p4446
(dp4447
g553
I473
sg1737
(lp4448
(iconstruction
TP_PHON
p4449
(dp4450
g1747
I4
sg1744
I0
sg553
I478
sg1748
Vpark
p4451
sg36
g4417
sbasg36
g1639
sbsg1755
I1
sba(iconstruction
CXN
p4452
(dp4453
g1697
(iconstruction
TP_SYMLINKS
p4454
(dp4455
g1700
(dp4456
VN1_483
p4457
VS1_485
p4458
ssg553
I481
sg36
g1639
sbsg1706
VN
p4459
sg1708
I1
sg36
VSHIRT
p4460
sg1709
(iconstruction
TP_SEMFRAME
p4461
(dp4462
g66
g0
(g67
g2
Ntp4463
Rp4464
(dp4465
g71
(dp4466
(iconstruction
TP_NODE
p4467
(dp4468
g1718
I01
sg55
g711
sg36
VENT_482
p4469
sg1719
I01
sg1720
I00
sg553
I482
sb(dp4470
g1719
I01
sg55
g711
ss(iconstruction
TP_NODE
p4471
(dp4472
g1718
I00
sg55
g759
sg36
g4457
sg1719
I00
sg1720
I00
sg553
I483
sb(dp4473
g1719
I00
sg55
g759
sssg254
g255
sg256
g255
sg257
(dp4474
g4467
(dp4475
g4471
(dp4476
g55
g702
sssg4471
(dp4477
ssg451
g4474
sg66
(dp4478
sg453
g255
sg454
g4474
sg455
(dp4479
g4467
(dp4480
sg4471
(dp4481
g4467
g4476
sssbsg548
(lp4482
g4467
ag4471
asg821
(lp4483
(iconstruction
TP_REL
p4484
(dp4485
g827
g4471
sg55
g702
sg553
I484
sg828
g4467
sg36
VIS_484
p4486
sbasg553
I479
sg36
g1639
sbsg1734
(iconstruction
TP_SYNFORM
p4487
(dp4488
g553
I480
sg1737
(lp4489
(iconstruction
TP_PHON
p4490
(dp4491
g1747
I5
sg1744
I0
sg553
I485
sg1748
Vshirt
p4492
sg36
g4458
sbasg36
g1639
sbsg1755
I1
sba(iconstruction
CXN
p4493
(dp4494
g1697
(iconstruction
TP_SYMLINKS
p4495
(dp4496
g1700
(dp4497
VN1_490
p4498
VS1_492
p4499
ssg553
I488
sg36
g1639
sbsg1706
VN
p4500
sg1708
I1
sg36
VSUIT
p4501
sg1709
(iconstruction
TP_SEMFRAME
p4502
(dp4503
g66
g0
(g67
g2
Ntp4504
Rp4505
(dp4506
g71
(dp4507
(iconstruction
TP_NODE
p4508
(dp4509
g1718
I00
sg55
g762
sg36
g4498
sg1719
I00
sg1720
I00
sg553
I490
sb(dp4510
g1719
I00
sg55
g762
ss(iconstruction
TP_NODE
p4511
(dp4512
g1718
I01
sg55
g711
sg36
VENT_489
p4513
sg1719
I01
sg1720
I00
sg553
I489
sb(dp4514
g1719
I01
sg55
g711
sssg254
g255
sg256
g255
sg257
(dp4515
g4508
(dp4516
sg4511
(dp4517
g4508
(dp4518
g55
g702
ssssg451
g4515
sg66
(dp4519
sg453
g255
sg454
g4515
sg455
(dp4520
g4508
(dp4521
g4511
g4518
ssg4511
(dp4522
ssbsg548
(lp4523
g4511
ag4508
asg821
(lp4524
(iconstruction
TP_REL
p4525
(dp4526
g827
g4508
sg55
g702
sg553
I491
sg828
g4511
sg36
VIS_491
p4527
sbasg553
I486
sg36
g1639
sbsg1734
(iconstruction
TP_SYNFORM
p4528
(dp4529
g553
I487
sg1737
(lp4530
(iconstruction
TP_PHON
p4531
(dp4532
g1747
I4
sg1744
I0
sg553
I492
sg1748
Vsuit
p4533
sg36
g4499
sbasg36
g1639
sbsg1755
I1
sba(iconstruction
CXN
p4534
(dp4535
g1697
(iconstruction
TP_SYMLINKS
p4536
(dp4537
g1700
(dp4538
VN1_497
p4539
VS1_499
p4540
ssg553
I495
sg36
g1639
sbsg1706
VN
p4541
sg1708
I1
sg36
VCELLO
p4542
sg1709
(iconstruction
TP_SEMFRAME
p4543
(dp4544
g66
g0
(g67
g2
Ntp4545
Rp4546
(dp4547
g71
(dp4548
(iconstruction
TP_NODE
p4549
(dp4550
g1718
I00
sg55
g744
sg36
g4539
sg1719
I00
sg1720
I00
sg553
I497
sb(dp4551
g1719
I00
sg55
g744
ss(iconstruction
TP_NODE
p4552
(dp4553
g1718
I01
sg55
g711
sg36
VENT_496
p4554
sg1719
I01
sg1720
I00
sg553
I496
sb(dp4555
g1719
I01
sg55
g711
sssg254
g255
sg256
g255
sg257
(dp4556
g4549
(dp4557
sg4552
(dp4558
g4549
(dp4559
g55
g702
ssssg451
g4556
sg66
(dp4560
sg453
g255
sg454
g4556
sg455
(dp4561
g4549
(dp4562
g4552
g4559
ssg4552
(dp4563
ssbsg548
(lp4564
g4552
ag4549
asg821
(lp4565
(iconstruction
TP_REL
p4566
(dp4567
g827
g4549
sg55
g702
sg553
I498
sg828
g4552
sg36
VIS_498
p4568
sbasg553
I493
sg36
g1639
sbsg1734
(iconstruction
TP_SYNFORM
p4569
(dp4570
g553
I494
sg1737
(lp4571
(iconstruction
TP_PHON
p4572
(dp4573
g1747
I5
sg1744
I0
sg553
I499
sg1748
VCELLO
p4574
sg36
g4540
sbasg36
g1639
sbsg1755
I1
sba(iconstruction
CXN
p4575
(dp4576
g1697
(iconstruction
TP_SYMLINKS
p4577
(dp4578
g1700
(dp4579
VN1_504
p4580
VS1_506
p4581
ssg553
I502
sg36
g1639
sbsg1706
VN
p4582
sg1708
I1
sg36
VBAG
p4583
sg1709
(iconstruction
TP_SEMFRAME
p4584
(dp4585
g66
g0
(g67
g2
Ntp4586
Rp4587
(dp4588
g71
(dp4589
(iconstruction
TP_NODE
p4590
(dp4591
g1718
I01
sg55
g711
sg36
VENT_503
p4592
sg1719
I01
sg1720
I00
sg553
I503
sb(dp4593
g1719
I01
sg55
g711
ss(iconstruction
TP_NODE
p4594
(dp4595
g1718
I00
sg55
g735
sg36
g4580
sg1719
I00
sg1720
I00
sg553
I504
sb(dp4596
g1719
I00
sg55
g735
sssg254
g255
sg256
g255
sg257
(dp4597
g4590
(dp4598
g4594
(dp4599
g55
g702
sssg4594
(dp4600
ssg451
g4597
sg66
(dp4601
sg453
g255
sg454
g4597
sg455
(dp4602
g4590
(dp4603
sg4594
(dp4604
g4590
g4599
sssbsg548
(lp4605
g4590
ag4594
asg821
(lp4606
(iconstruction
TP_REL
p4607
(dp4608
g827
g4594
sg55
g702
sg553
I505
sg828
g4590
sg36
VIS_505
p4609
sbasg553
I500
sg36
g1639
sbsg1734
(iconstruction
TP_SYNFORM
p4610
(dp4611
g553
I501
sg1737
(lp4612
(iconstruction
TP_PHON
p4613
(dp4614
g1747
I3
sg1744
I0
sg553
I506
sg1748
Vbag
p4615
sg36
g4581
sbasg36
g1639
sbsg1755
I1
sba(iconstruction
CXN
p4616
(dp4617
g1697
(iconstruction
TP_SYMLINKS
p4618
(dp4619
g1700
(dp4620
VN1_511
p4621
VS2_514
p4622
ssg553
I509
sg36
g1639
sbsg1706
VN
p4623
sg1708
I1
sg36
VWATERING_CAN
p4624
sg1709
(iconstruction
TP_SEMFRAME
p4625
(dp4626
g66
g0
(g67
g2
Ntp4627
Rp4628
(dp4629
g71
(dp4630
(iconstruction
TP_NODE
p4631
(dp4632
g1718
I00
sg55
g732
sg36
g4621
sg1719
I00
sg1720
I00
sg553
I511
sb(dp4633
g1719
I00
sg55
g732
ss(iconstruction
TP_NODE
p4634
(dp4635
g1718
I01
sg55
g711
sg36
VENT_510
p4636
sg1719
I01
sg1720
I00
sg553
I510
sb(dp4637
g1719
I01
sg55
g711
sssg254
g255
sg256
g255
sg257
(dp4638
g4631
(dp4639
sg4634
(dp4640
g4631
(dp4641
g55
g702
ssssg451
g4638
sg66
(dp4642
sg453
g255
sg454
g4638
sg455
(dp4643
g4631
(dp4644
g4634
g4641
ssg4634
(dp4645
ssbsg548
(lp4646
g4634
ag4631
asg821
(lp4647
(iconstruction
TP_REL
p4648
(dp4649
g827
g4631
sg55
g702
sg553
I512
sg828
g4634
sg36
VIS_512
p4650
sbasg553
I507
sg36
g1639
sbsg1734
(iconstruction
TP_SYNFORM
p4651
(dp4652
g553
I508
sg1737
(lp4653
(iconstruction
TP_PHON
p4654
(dp4655
g1747
I8
sg1744
I0
sg553
I513
sg1748
Vwatering
p4656
sg36
VS1_513
p4657
sba(iconstruction
TP_PHON
p4658
(dp4659
g1747
I3
sg1744
I1
sg553
I514
sg1748
Vcan
p4660
sg36
g4622
sbasg36
g1639
sbsg1755
I1
sba(iconstruction
CXN
p4661
(dp4662
g1697
(iconstruction
TP_SYMLINKS
p4663
(dp4664
g1700
(dp4665
VN1_519
p4666
VS1_521
p4667
ssg553
I517
sg36
g1639
sbsg1706
VN
p4668
sg1708
I1
sg36
VBALLERINA
p4669
sg1709
(iconstruction
TP_SEMFRAME
p4670
(dp4671
g66
g0
(g67
g2
Ntp4672
Rp4673
(dp4674
g71
(dp4675
(iconstruction
TP_NODE
p4676
(dp4677
g1718
I00
sg55
g789
sg36
g4666
sg1719
I00
sg1720
I00
sg553
I519
sb(dp4678
g1719
I00
sg55
g789
ss(iconstruction
TP_NODE
p4679
(dp4680
g1718
I01
sg55
g711
sg36
VENT_518
p4681
sg1719
I01
sg1720
I00
sg553
I518
sb(dp4682
g1719
I01
sg55
g711
sssg254
g255
sg256
g255
sg257
(dp4683
g4676
(dp4684
sg4679
(dp4685
g4676
(dp4686
g55
g702
ssssg451
g4683
sg66
(dp4687
sg453
g255
sg454
g4683
sg455
(dp4688
g4676
(dp4689
g4679
g4686
ssg4679
(dp4690
ssbsg548
(lp4691
g4679
ag4676
asg821
(lp4692
(iconstruction
TP_REL
p4693
(dp4694
g827
g4676
sg55
g702
sg553
I520
sg828
g4679
sg36
VIS_520
p4695
sbasg553
I515
sg36
g1639
sbsg1734
(iconstruction
TP_SYNFORM
p4696
(dp4697
g553
I516
sg1737
(lp4698
(iconstruction
TP_PHON
p4699
(dp4700
g1747
I9
sg1744
I0
sg553
I521
sg1748
Vballerina
p4701
sg36
g4667
sbasg36
g1639
sbsg1755
I1
sba(iconstruction
CXN
p4702
(dp4703
g1697
(iconstruction
TP_SYMLINKS
p4704
(dp4705
g1700
(dp4706
VN1_526
p4707
VS1_528
p4708
ssg553
I524
sg36
g1639
sbsg1706
VN
p4709
sg1708
I1
sg36
VCELLIST
p4710
sg1709
(iconstruction
TP_SEMFRAME
p4711
(dp4712
g66
g0
(g67
g2
Ntp4713
Rp4714
(dp4715
g71
(dp4716
(iconstruction
TP_NODE
p4717
(dp4718
g1718
I01
sg55
g711
sg36
VENT_525
p4719
sg1719
I01
sg1720
I00
sg553
I525
sb(dp4720
g1719
I01
sg55
g711
ss(iconstruction
TP_NODE
p4721
(dp4722
g1718
I00
sg55
g792
sg36
g4707
sg1719
I00
sg1720
I00
sg553
I526
sb(dp4723
g1719
I00
sg55
g792
sssg254
g255
sg256
g255
sg257
(dp4724
g4717
(dp4725
g4721
(dp4726
g55
g702
sssg4721
(dp4727
ssg451
g4724
sg66
(dp4728
sg453
g255
sg454
g4724
sg455
(dp4729
g4717
(dp4730
sg4721
(dp4731
g4717
g4726
sssbsg548
(lp4732
g4717
ag4721
asg821
(lp4733
(iconstruction
TP_REL
p4734
(dp4735
g827
g4721
sg55
g702
sg553
I527
sg828
g4717
sg36
VIS_527
p4736
sbasg553
I522
sg36
g1639
sbsg1734
(iconstruction
TP_SYNFORM
p4737
(dp4738
g553
I523
sg1737
(lp4739
(iconstruction
TP_PHON
p4740
(dp4741
g1747
I7
sg1744
I0
sg553
I528
sg1748
Vcellist
p4742
sg36
g4708
sbasg36
g1639
sbsg1755
I1
sba(iconstruction
CXN
p4743
(dp4744
g1697
(iconstruction
TP_SYMLINKS
p4745
(dp4746
g1700
(dp4747
VN1_533
p4748
VS1_535
p4749
ssg553
I531
sg36
g1639
sbsg1706
VN
p4750
sg1708
I1
sg36
VFENCER
p4751
sg1709
(iconstruction
TP_SEMFRAME
p4752
(dp4753
g66
g0
(g67
g2
Ntp4754
Rp4755
(dp4756
g71
(dp4757
(iconstruction
TP_NODE
p4758
(dp4759
g1718
I00
sg55
g798
sg36
g4748
sg1719
I00
sg1720
I00
sg553
I533
sb(dp4760
g1719
I00
sg55
g798
ss(iconstruction
TP_NODE
p4761
(dp4762
g1718
I01
sg55
g711
sg36
VENT_532
p4763
sg1719
I01
sg1720
I00
sg553
I532
sb(dp4764
g1719
I01
sg55
g711
sssg254
g255
sg256
g255
sg257
(dp4765
g4758
(dp4766
sg4761
(dp4767
g4758
(dp4768
g55
g702
ssssg451
g4765
sg66
(dp4769
sg453
g255
sg454
g4765
sg455
(dp4770
g4758
(dp4771
g4761
g4768
ssg4761
(dp4772
ssbsg548
(lp4773
g4761
ag4758
asg821
(lp4774
(iconstruction
TP_REL
p4775
(dp4776
g827
g4758
sg55
g702
sg553
I534
sg828
g4761
sg36
VIS_534
p4777
sbasg553
I529
sg36
g1639
sbsg1734
(iconstruction
TP_SYNFORM
p4778
(dp4779
g553
I530
sg1737
(lp4780
(iconstruction
TP_PHON
p4781
(dp4782
g1747
I6
sg1744
I0
sg553
I535
sg1748
Vfencer
p4783
sg36
g4749
sbasg36
g1639
sbsg1755
I1
sba(iconstruction
CXN
p4784
(dp4785
g1697
(iconstruction
TP_SYMLINKS
p4786
(dp4787
g1700
(dp4788
VN1_540
p4789
VS1_542
p4790
ssg553
I538
sg36
g1639
sbsg1706
VN
p4791
sg1708
I1
sg36
VROBBER
p4792
sg1709
(iconstruction
TP_SEMFRAME
p4793
(dp4794
g66
g0
(g67
g2
Ntp4795
Rp4796
(dp4797
g71
(dp4798
(iconstruction
TP_NODE
p4799
(dp4800
g1718
I00
sg55
g801
sg36
g4789
sg1719
I00
sg1720
I00
sg553
I540
sb(dp4801
g1719
I00
sg55
g801
ss(iconstruction
TP_NODE
p4802
(dp4803
g1718
I01
sg55
g711
sg36
VENT_539
p4804
sg1719
I01
sg1720
I00
sg553
I539
sb(dp4805
g1719
I01
sg55
g711
sssg254
g255
sg256
g255
sg257
(dp4806
g4799
(dp4807
sg4802
(dp4808
g4799
(dp4809
g55
g702
ssssg451
g4806
sg66
(dp4810
sg453
g255
sg454
g4806
sg455
(dp4811
g4799
(dp4812
g4802
g4809
ssg4802
(dp4813
ssbsg548
(lp4814
g4802
ag4799
asg821
(lp4815
(iconstruction
TP_REL
p4816
(dp4817
g827
g4799
sg55
g702
sg553
I541
sg828
g4802
sg36
VIS_541
p4818
sbasg553
I536
sg36
g1639
sbsg1734
(iconstruction
TP_SYNFORM
p4819
(dp4820
g553
I537
sg1737
(lp4821
(iconstruction
TP_PHON
p4822
(dp4823
g1747
I5
sg1744
I0
sg553
I542
sg1748
Vthief
p4824
sg36
g4790
sbasg36
g1639
sbsg1755
I1
sba(iconstruction
CXN
p4825
(dp4826
g1697
(iconstruction
TP_SYMLINKS
p4827
(dp4828
g1700
(dp4829
VN1_547
p4830
VS1_549
p4831
ssg553
I545
sg36
g1639
sbsg1706
VN
p4832
sg1708
I1
sg36
VPOLICEMAN
p4833
sg1709
(iconstruction
TP_SEMFRAME
p4834
(dp4835
g66
g0
(g67
g2
Ntp4836
Rp4837
(dp4838
g71
(dp4839
(iconstruction
TP_NODE
p4840
(dp4841
g1718
I01
sg55
g711
sg36
VENT_546
p4842
sg1719
I01
sg1720
I00
sg553
I546
sb(dp4843
g1719
I01
sg55
g711
ss(iconstruction
TP_NODE
p4844
(dp4845
g1718
I00
sg55
g783
sg36
g4830
sg1719
I00
sg1720
I00
sg553
I547
sb(dp4846
g1719
I00
sg55
g783
sssg254
g255
sg256
g255
sg257
(dp4847
g4840
(dp4848
g4844
(dp4849
g55
g702
sssg4844
(dp4850
ssg451
g4847
sg66
(dp4851
sg453
g255
sg454
g4847
sg455
(dp4852
g4840
(dp4853
sg4844
(dp4854
g4840
g4849
sssbsg548
(lp4855
g4840
ag4844
asg821
(lp4856
(iconstruction
TP_REL
p4857
(dp4858
g827
g4844
sg55
g702
sg553
I548
sg828
g4840
sg36
VIS_548
p4859
sbasg553
I543
sg36
g1639
sbsg1734
(iconstruction
TP_SYNFORM
p4860
(dp4861
g553
I544
sg1737
(lp4862
(iconstruction
TP_PHON
p4863
(dp4864
g1747
I9
sg1744
I0
sg553
I549
sg1748
Vpoliceman
p4865
sg36
g4831
sbasg36
g1639
sbsg1755
I1
sba(iconstruction
CXN
p4866
(dp4867
g1697
(iconstruction
TP_SYMLINKS
p4868
(dp4869
g1700
(dp4870
VN1_554
p4871
VS1_556
p4872
ssg553
I552
sg36
g1639
sbsg1706
VN
p4873
sg1708
I1
sg36
VHUNTER
p4874
sg1709
(iconstruction
TP_SEMFRAME
p4875
(dp4876
g66
g0
(g67
g2
Ntp4877
Rp4878
(dp4879
g71
(dp4880
(iconstruction
TP_NODE
p4881
(dp4882
g1718
I00
sg55
g786
sg36
g4871
sg1719
I00
sg1720
I00
sg553
I554
sb(dp4883
g1719
I00
sg55
g786
ss(iconstruction
TP_NODE
p4884
(dp4885
g1718
I01
sg55
g711
sg36
VENT_553
p4886
sg1719
I01
sg1720
I00
sg553
I553
sb(dp4887
g1719
I01
sg55
g711
sssg254
g255
sg256
g255
sg257
(dp4888
g4881
(dp4889
sg4884
(dp4890
g4881
(dp4891
g55
g702
ssssg451
g4888
sg66
(dp4892
sg453
g255
sg454
g4888
sg455
(dp4893
g4881
(dp4894
g4884
g4891
ssg4884
(dp4895
ssbsg548
(lp4896
g4884
ag4881
asg821
(lp4897
(iconstruction
TP_REL
p4898
(dp4899
g827
g4881
sg55
g702
sg553
I555
sg828
g4884
sg36
VIS_555
p4900
sbasg553
I550
sg36
g1639
sbsg1734
(iconstruction
TP_SYNFORM
p4901
(dp4902
g553
I551
sg1737
(lp4903
(iconstruction
TP_PHON
p4904
(dp4905
g1747
I6
sg1744
I0
sg553
I556
sg1748
Vhunter
p4906
sg36
g4872
sbasg36
g1639
sbsg1755
I1
sba(iconstruction
CXN
p4907
(dp4908
g1697
(iconstruction
TP_SYMLINKS
p4909
(dp4910
g1700
(dp4911
VN1_561
p4912
VS1_563
p4913
ssg553
I559
sg36
g1639
sbsg1706
VN
p4914
sg1708
I1
sg36
VDOG
p4915
sg1709
(iconstruction
TP_SEMFRAME
p4916
(dp4917
g66
g0
(g67
g2
Ntp4918
Rp4919
(dp4920
g71
(dp4921
(iconstruction
TP_NODE
p4922
(dp4923
g1718
I01
sg55
g711
sg36
VENT_560
p4924
sg1719
I01
sg1720
I00
sg553
I560
sb(dp4925
g1719
I01
sg55
g711
ss(iconstruction
TP_NODE
p4926
(dp4927
g1718
I00
sg55
g771
sg36
g4912
sg1719
I00
sg1720
I00
sg553
I561
sb(dp4928
g1719
I00
sg55
g771
sssg254
g255
sg256
g255
sg257
(dp4929
g4922
(dp4930
g4926
(dp4931
g55
g702
sssg4926
(dp4932
ssg451
g4929
sg66
(dp4933
sg453
g255
sg454
g4929
sg455
(dp4934
g4922
(dp4935
sg4926
(dp4936
g4922
g4931
sssbsg548
(lp4937
g4922
ag4926
asg821
(lp4938
(iconstruction
TP_REL
p4939
(dp4940
g827
g4926
sg55
g702
sg553
I562
sg828
g4922
sg36
VIS_562
p4941
sbasg553
I557
sg36
g1639
sbsg1734
(iconstruction
TP_SYNFORM
p4942
(dp4943
g553
I558
sg1737
(lp4944
(iconstruction
TP_PHON
p4945
(dp4946
g1747
I3
sg1744
I0
sg553
I563
sg1748
Vdog
p4947
sg36
g4913
sbasg36
g1639
sbsg1755
I1
sba(iconstruction
CXN
p4948
(dp4949
g1697
(iconstruction
TP_SYMLINKS
p4950
(dp4951
g1700
(dp4952
VN1_568
p4953
VS1_570
p4954
ssg553
I566
sg36
g1639
sbsg1706
VN
p4955
sg1708
I1
sg36
VHOOK
p4956
sg1709
(iconstruction
TP_SEMFRAME
p4957
(dp4958
g66
g0
(g67
g2
Ntp4959
Rp4960
(dp4961
g71
(dp4962
(iconstruction
TP_NODE
p4963
(dp4964
g1718
I00
sg55
g741
sg36
g4953
sg1719
I00
sg1720
I00
sg553
I568
sb(dp4965
g1719
I00
sg55
g741
ss(iconstruction
TP_NODE
p4966
(dp4967
g1718
I01
sg55
g711
sg36
VENT_567
p4968
sg1719
I01
sg1720
I00
sg553
I567
sb(dp4969
g1719
I01
sg55
g711
sssg254
g255
sg256
g255
sg257
(dp4970
g4963
(dp4971
sg4966
(dp4972
g4963
(dp4973
g55
g702
ssssg451
g4970
sg66
(dp4974
sg453
g255
sg454
g4970
sg455
(dp4975
g4963
(dp4976
g4966
g4973
ssg4966
(dp4977
ssbsg548
(lp4978
g4966
ag4963
asg821
(lp4979
(iconstruction
TP_REL
p4980
(dp4981
g827
g4963
sg55
g702
sg553
I569
sg828
g4966
sg36
VIS_569
p4982
sbasg553
I564
sg36
g1639
sbsg1734
(iconstruction
TP_SYNFORM
p4983
(dp4984
g553
I565
sg1737
(lp4985
(iconstruction
TP_PHON
p4986
(dp4987
g1747
I4
sg1744
I0
sg553
I570
sg1748
Vhook
p4988
sg36
g4954
sbasg36
g1639
sbsg1755
I1
sba(iconstruction
CXN
p4989
(dp4990
g1697
(iconstruction
TP_SYMLINKS
p4991
(dp4992
g1700
(dp4993
VN1_575
p4994
VS1_577
p4995
ssg553
I573
sg36
g1639
sbsg1706
VN
p4996
sg1708
I1
sg36
VBOOKSHELF
p4997
sg1709
(iconstruction
TP_SEMFRAME
p4998
(dp4999
g66
g0
(g67
g2
Ntp5000
Rp5001
(dp5002
g71
(dp5003
(iconstruction
TP_NODE
p5004
(dp5005
g1718
I00
sg55
g747
sg36
g4994
sg1719
I00
sg1720
I00
sg553
I575
sb(dp5006
g1719
I00
sg55
g747
ss(iconstruction
TP_NODE
p5007
(dp5008
g1718
I01
sg55
g711
sg36
VENT_574
p5009
sg1719
I01
sg1720
I00
sg553
I574
sb(dp5010
g1719
I01
sg55
g711
sssg254
g255
sg256
g255
sg257
(dp5011
g5004
(dp5012
sg5007
(dp5013
g5004
(dp5014
g55
g702
ssssg451
g5011
sg66
(dp5015
sg453
g255
sg454
g5011
sg455
(dp5016
g5004
(dp5017
g5007
g5014
ssg5007
(dp5018
ssbsg548
(lp5019
g5007
ag5004
asg821
(lp5020
(iconstruction
TP_REL
p5021
(dp5022
g827
g5004
sg55
g702
sg553
I576
sg828
g5007
sg36
VIS_576
p5023
sbasg553
I571
sg36
g1639
sbsg1734
(iconstruction
TP_SYNFORM
p5024
(dp5025
g553
I572
sg1737
(lp5026
(iconstruction
TP_PHON
p5027
(dp5028
g1747
I9
sg1744
I0
sg553
I577
sg1748
Vbookshelf
p5029
sg36
g4995
sbasg36
g1639
sbsg1755
I1
sba(iconstruction
CXN
p5030
(dp5031
g1697
(iconstruction
TP_SYMLINKS
p5032
(dp5033
g1700
(dp5034
VN1_582
p5035
VS1_584
p5036
ssg553
I580
sg36
g1639
sbsg1706
VN
p5037
sg1708
I1
sg36
VWAGON
p5038
sg1709
(iconstruction
TP_SEMFRAME
p5039
(dp5040
g66
g0
(g67
g2
Ntp5041
Rp5042
(dp5043
g71
(dp5044
(iconstruction
TP_NODE
p5045
(dp5046
g1718
I01
sg55
g711
sg36
VENT_581
p5047
sg1719
I01
sg1720
I00
sg553
I581
sb(dp5048
g1719
I01
sg55
g711
ss(iconstruction
TP_NODE
p5049
(dp5050
g1718
I00
sg55
g729
sg36
g5035
sg1719
I00
sg1720
I00
sg553
I582
sb(dp5051
g1719
I00
sg55
g729
sssg254
g255
sg256
g255
sg257
(dp5052
g5045
(dp5053
g5049
(dp5054
g55
g702
sssg5049
(dp5055
ssg451
g5052
sg66
(dp5056
sg453
g255
sg454
g5052
sg455
(dp5057
g5045
(dp5058
sg5049
(dp5059
g5045
g5054
sssbsg548
(lp5060
g5045
ag5049
asg821
(lp5061
(iconstruction
TP_REL
p5062
(dp5063
g827
g5049
sg55
g702
sg553
I583
sg828
g5045
sg36
VIS_583
p5064
sbasg553
I578
sg36
g1639
sbsg1734
(iconstruction
TP_SYNFORM
p5065
(dp5066
g553
I579
sg1737
(lp5067
(iconstruction
TP_PHON
p5068
(dp5069
g1747
I5
sg1744
I0
sg553
I584
sg1748
Vwagon
p5070
sg36
g5036
sbasg36
g1639
sbsg1755
I1
sba(iconstruction
CXN
p5071
(dp5072
g1697
(iconstruction
TP_SYMLINKS
p5073
(dp5074
g1700
(dp5075
VN1_589
p5076
VS1_591
p5077
ssg553
I587
sg36
g1639
sbsg1706
VN
p5078
sg1708
I1
sg36
VTREE
p5079
sg1709
(iconstruction
TP_SEMFRAME
p5080
(dp5081
g66
g0
(g67
g2
Ntp5082
Rp5083
(dp5084
g71
(dp5085
(iconstruction
TP_NODE
p5086
(dp5087
g1718
I00
sg55
g738
sg36
g5076
sg1719
I00
sg1720
I00
sg553
I589
sb(dp5088
g1719
I00
sg55
g738
ss(iconstruction
TP_NODE
p5089
(dp5090
g1718
I01
sg55
g711
sg36
VENT_588
p5091
sg1719
I01
sg1720
I00
sg553
I588
sb(dp5092
g1719
I01
sg55
g711
sssg254
g255
sg256
g255
sg257
(dp5093
g5086
(dp5094
sg5089
(dp5095
g5086
(dp5096
g55
g702
ssssg451
g5093
sg66
(dp5097
sg453
g255
sg454
g5093
sg455
(dp5098
g5086
(dp5099
g5089
g5096
ssg5089
(dp5100
ssbsg548
(lp5101
g5089
ag5086
asg821
(lp5102
(iconstruction
TP_REL
p5103
(dp5104
g827
g5086
sg55
g702
sg553
I590
sg828
g5089
sg36
VIS_590
p5105
sbasg553
I585
sg36
g1639
sbsg1734
(iconstruction
TP_SYNFORM
p5106
(dp5107
g553
I586
sg1737
(lp5108
(iconstruction
TP_PHON
p5109
(dp5110
g1747
I4
sg1744
I0
sg553
I591
sg1748
Vtree
p5111
sg36
g5077
sbasg36
g1639
sbsg1755
I1
sbasbsg36
g1652
sg38
(lp5112
g0
(g40
g2
Ntp5113
Rp5114
(dp5115
g1542
Nsg36
g1548
sg45
Nsg46
Nsg1544
Nsg263
g1487
sg553
I20
sg1488
g1758
sbag0
(g40
g2
Ntp5116
Rp5117
(dp5118
g36
S'to_cxn_retrieval_C'
p5119
sg45
Nsg46
g1689
sg263
g1487
sg553
I21
sg1488
g1758
sbasg1493
(dp5120
g1548
Nsg5119
Nssg1495
(lp5121
sg1498
F1.0
sg1499
(lp5122
sg1501
(dp5123
g1126
F0.3
ssg1503
I0
sg1504
I0
sg1124
g1507
sg553
I4
sS'schemas'
p5124
g1689
sbsg1126
F0.3
sbag0
(g1690
g2
Ntp5125
Rp5126
(dp5127
g36
g1776
sg53
g1766
sg1124
Nsg553
I100
sg1125
g1758
sg1126
F0.3
sbag0
(g1690
g2
Ntp5128
Rp5129
(dp5130
g36
g1827
sg53
g1817
sg1124
Nsg553
I101
sg1125
g1758
sg1126
F0.3
sbag0
(g1690
g2
Ntp5131
Rp5132
(dp5133
g36
g1880
sg53
g1868
sg1124
Nsg553
I102
sg1125
g1758
sg1126
F0.3
sbag0
(g1690
g2
Ntp5134
Rp5135
(dp5136
g36
g1959
sg53
g1947
sg1124
Nsg553
I103
sg1125
g1758
sg1126
F0.3
sbag0
(g1690
g2
Ntp5137
Rp5138
(dp5139
g36
g2034
sg53
g2022
sg1124
Nsg553
I104
sg1125
g1758
sg1126
F0.3
sbag0
(g1690
g2
Ntp5140
Rp5141
(dp5142
g36
g2123
sg53
g2109
sg1124
Nsg553
I105
sg1125
g1758
sg1126
F0.3
sbag0
(g1690
g2
Ntp5143
Rp5144
(dp5145
g36
g2214
sg53
g2200
sg1124
Nsg553
I106
sg1125
g1758
sg1126
F0.3
sbag0
(g1690
g2
Ntp5146
Rp5147
(dp5148
g36
g2305
sg53
g2295
sg1124
Nsg553
I107
sg1125
g1758
sg1126
F0.3
sbag0
(g1690
g2
Ntp5149
Rp5150
(dp5151
g36
g2367
sg53
g2357
sg1124
Nsg553
I108
sg1125
g1758
sg1126
F0.3
sbag0
(g1690
g2
Ntp5152
Rp5153
(dp5154
g36
g2426
sg53
g2416
sg1124
Nsg553
I109
sg1125
g1758
sg1126
F0.3
sbag0
(g1690
g2
Ntp5155
Rp5156
(dp5157
g36
g2478
sg53
g2468
sg1124
Nsg553
I110
sg1125
g1758
sg1126
F0.3
sbag0
(g1690
g2
Ntp5158
Rp5159
(dp5160
g36
g2525
sg53
g2515
sg1124
Nsg553
I111
sg1125
g1758
sg1126
F0.3
sbag0
(g1690
g2
Ntp5161
Rp5162
(dp5163
g36
g2574
sg53
g2562
sg1124
Nsg553
I112
sg1125
g1758
sg1126
F0.3
sbag0
(g1690
g2
Ntp5164
Rp5165
(dp5166
g36
g2654
sg53
g2644
sg1124
Nsg553
I113
sg1125
g1758
sg1126
F0.3
sbag0
(g1690
g2
Ntp5167
Rp5168
(dp5169
g36
g2722
sg53
g2710
sg1124
Nsg553
I114
sg1125
g1758
sg1126
F0.3
sbag0
(g1690
g2
Ntp5170
Rp5171
(dp5172
g36
g2816
sg53
g2804
sg1124
Nsg553
I115
sg1125
g1758
sg1126
F0.3
sbag0
(g1690
g2
Ntp5173
Rp5174
(dp5175
g36
g2898
sg53
g2886
sg1124
Nsg553
I116
sg1125
g1758
sg1126
F0.3
sbag0
(g1690
g2
Ntp5176
Rp5177
(dp5178
g36
g2990
sg53
g2980
sg1124
Nsg553
I117
sg1125
g1758
sg1126
F0.3
sbag0
(g1690
g2
Ntp5179
Rp5180
(dp5181
g36
g3055
sg53
g3045
sg1124
Nsg553
I118
sg1125
g1758
sg1126
F0.3
sbag0
(g1690
g2
Ntp5182
Rp5183
(dp5184
g36
g3134
sg53
g3126
sg1124
Nsg553
I119
sg1125
g1758
sg1126
F0.3
sbag0
(g1690
g2
Ntp5185
Rp5186
(dp5187
g36
g3175
sg53
g3167
sg1124
Nsg553
I120
sg1125
g1758
sg1126
F0.3
sbag0
(g1690
g2
Ntp5188
Rp5189
(dp5190
g36
g3216
sg53
g3208
sg1124
Nsg553
I121
sg1125
g1758
sg1126
F0.3
sbag0
(g1690
g2
Ntp5191
Rp5192
(dp5193
g36
g3257
sg53
g3249
sg1124
Nsg553
I122
sg1125
g1758
sg1126
F0.3
sbag0
(g1690
g2
Ntp5194
Rp5195
(dp5196
g36
g3298
sg53
g3290
sg1124
Nsg553
I123
sg1125
g1758
sg1126
F0.3
sbag0
(g1690
g2
Ntp5197
Rp5198
(dp5199
g36
g3339
sg53
g3331
sg1124
Nsg553
I124
sg1125
g1758
sg1126
F0.3
sbag0
(g1690
g2
Ntp5200
Rp5201
(dp5202
g36
g3380
sg53
g3372
sg1124
Nsg553
I125
sg1125
g1758
sg1126
F0.3
sbag0
(g1690
g2
Ntp5203
Rp5204
(dp5205
g36
g3425
sg53
g3417
sg1124
Nsg553
I126
sg1125
g1758
sg1126
F0.3
sbag0
(g1690
g2
Ntp5206
Rp5207
(dp5208
g36
g3470
sg53
g3462
sg1124
Nsg553
I127
sg1125
g1758
sg1126
F0.3
sbag0
(g1690
g2
Ntp5209
Rp5210
(dp5211
g36
g3511
sg53
g3503
sg1124
Nsg553
I128
sg1125
g1758
sg1126
F0.3
sbag0
(g1690
g2
Ntp5212
Rp5213
(dp5214
g36
g3552
sg53
g3544
sg1124
Nsg553
I129
sg1125
g1758
sg1126
F0.3
sbag0
(g1690
g2
Ntp5215
Rp5216
(dp5217
g36
g3593
sg53
g3585
sg1124
Nsg553
I130
sg1125
g1758
sg1126
F0.3
sbag0
(g1690
g2
Ntp5218
Rp5219
(dp5220
g36
g3634
sg53
g3626
sg1124
Nsg553
I131
sg1125
g1758
sg1126
F0.3
sbag0
(g1690
g2
Ntp5221
Rp5222
(dp5223
g36
g3675
sg53
g3667
sg1124
Nsg553
I132
sg1125
g1758
sg1126
F0.3
sbag0
(g1690
g2
Ntp5224
Rp5225
(dp5226
g36
g3716
sg53
g3708
sg1124
Nsg553
I133
sg1125
g1758
sg1126
F0.3
sbag0
(g1690
g2
Ntp5227
Rp5228
(dp5229
g36
g3747
sg53
g3739
sg1124
Nsg553
I134
sg1125
g1758
sg1126
F0.3
sbag0
(g1690
g2
Ntp5230
Rp5231
(dp5232
g36
g3778
sg53
g3770
sg1124
Nsg553
I135
sg1125
g1758
sg1126
F0.3
sbag0
(g1690
g2
Ntp5233
Rp5234
(dp5235
g36
g3809
sg53
g3801
sg1124
Nsg553
I136
sg1125
g1758
sg1126
F0.3
sbag0
(g1690
g2
Ntp5236
Rp5237
(dp5238
g36
g3840
sg53
g3832
sg1124
Nsg553
I137
sg1125
g1758
sg1126
F0.3
sbag0
(g1690
g2
Ntp5239
Rp5240
(dp5241
g36
g3871
sg53
g3863
sg1124
Nsg553
I138
sg1125
g1758
sg1126
F0.3
sbag0
(g1690
g2
Ntp5242
Rp5243
(dp5244
g36
g3902
sg53
g3894
sg1124
Nsg553
I139
sg1125
g1758
sg1126
F0.3
sbag0
(g1690
g2
Ntp5245
Rp5246
(dp5247
g36
g3933
sg53
g3925
sg1124
Nsg553
I140
sg1125
g1758
sg1126
F0.3
sbag0
(g1690
g2
Ntp5248
Rp5249
(dp5250
g36
g3964
sg53
g3956
sg1124
Nsg553
I141
sg1125
g1758
sg1126
F0.3
sbag0
(g1690
g2
Ntp5251
Rp5252
(dp5253
g36
g4005
sg53
g3997
sg1124
Nsg553
I142
sg1125
g1758
sg1126
F0.3
sbag0
(g1690
g2
Ntp5254
Rp5255
(dp5256
g36
g4046
sg53
g4038
sg1124
Nsg553
I143
sg1125
g1758
sg1126
F0.3
sbag0
(g1690
g2
Ntp5257
Rp5258
(dp5259
g36
g4087
sg53
g4079
sg1124
Nsg553
I144
sg1125
g1758
sg1126
F0.3
sbag0
(g1690
g2
Ntp5260
Rp5261
(dp5262
g36
g4128
sg53
g4120
sg1124
Nsg553
I145
sg1125
g1758
sg1126
F0.3
sbag0
(g1690
g2
Ntp5263
Rp5264
(dp5265
g36
g4169
sg53
g4161
sg1124
Nsg553
I146
sg1125
g1758
sg1126
F0.3
sbag0
(g1690
g2
Ntp5266
Rp5267
(dp5268
g36
g4210
sg53
g4202
sg1124
Nsg553
I147
sg1125
g1758
sg1126
F0.3
sbag0
(g1690
g2
Ntp5269
Rp5270
(dp5271
g36
g4251
sg53
g4243
sg1124
Nsg553
I148
sg1125
g1758
sg1126
F0.3
sbag0
(g1690
g2
Ntp5272
Rp5273
(dp5274
g36
g4292
sg53
g4284
sg1124
Nsg553
I149
sg1125
g1758
sg1126
F0.3
sbag0
(g1690
g2
Ntp5275
Rp5276
(dp5277
g36
g4333
sg53
g4325
sg1124
Nsg553
I150
sg1125
g1758
sg1126
F0.3
sbag0
(g1690
g2
Ntp5278
Rp5279
(dp5280
g36
g4374
sg53
g4366
sg1124
Nsg553
I151
sg1125
g1758
sg1126
F0.3
sbag0
(g1690
g2
Ntp5281
Rp5282
(dp5283
g36
g4419
sg53
g4411
sg1124
Nsg553
I152
sg1125
g1758
sg1126
F0.3
sbag0
(g1690
g2
Ntp5284
Rp5285
(dp5286
g36
g4460
sg53
g4452
sg1124
Nsg553
I153
sg1125
g1758
sg1126
F0.3
sbag0
(g1690
g2
Ntp5287
Rp5288
(dp5289
g36
g4501
sg53
g4493
sg1124
Nsg553
I154
sg1125
g1758
sg1126
F0.3
sbag0
(g1690
g2
Ntp5290
Rp5291
(dp5292
g36
g4542
sg53
g4534
sg1124
Nsg553
I155
sg1125
g1758
sg1126
F0.3
sbag0
(g1690
g2
Ntp5293
Rp5294
(dp5295
g36
g4583
sg53
g4575
sg1124
Nsg553
I156
sg1125
g1758
sg1126
F0.3
sbag0
(g1690
g2
Ntp5296
Rp5297
(dp5298
g36
g4624
sg53
g4616
sg1124
Nsg553
I157
sg1125
g1758
sg1126
F0.3
sbag0
(g1690
g2
Ntp5299
Rp5300
(dp5301
g36
g4669
sg53
g4661
sg1124
Nsg553
I158
sg1125
g1758
sg1126
F0.3
sbag0
(g1690
g2
Ntp5302
Rp5303
(dp5304
g36
g4710
sg53
g4702
sg1124
Nsg553
I159
sg1125
g1758
sg1126
F0.3
sbag0
(g1690
g2
Ntp5305
Rp5306
(dp5307
g36
g4751
sg53
g4743
sg1124
Nsg553
I160
sg1125
g1758
sg1126
F0.3
sbag0
(g1690
g2
Ntp5308
Rp5309
(dp5310
g36
g4792
sg53
g4784
sg1124
Nsg553
I161
sg1125
g1758
sg1126
F0.3
sbag0
(g1690
g2
Ntp5311
Rp5312
(dp5313
g36
g4833
sg53
g4825
sg1124
Nsg553
I162
sg1125
g1758
sg1126
F0.3
sbag0
(g1690
g2
Ntp5314
Rp5315
(dp5316
g36
g4874
sg53
g4866
sg1124
Nsg553
I163
sg1125
g1758
sg1126
F0.3
sbag0
(g1690
g2
Ntp5317
Rp5318
(dp5319
g36
g4915
sg53
g4907
sg1124
Nsg553
I164
sg1125
g1758
sg1126
F0.3
sbag0
(g1690
g2
Ntp5320
Rp5321
(dp5322
g36
g4956
sg53
g4948
sg1124
Nsg553
I165
sg1125
g1758
sg1126
F0.3
sbag0
(g1690
g2
Ntp5323
Rp5324
(dp5325
g36
g4997
sg53
g4989
sg1124
Nsg553
I166
sg1125
g1758
sg1126
F0.3
sbag0
(g1690
g2
Ntp5326
Rp5327
(dp5328
g36
g5038
sg53
g5030
sg1124
Nsg553
I167
sg1125
g1758
sg1126
F0.3
sbag0
(g1690
g2
Ntp5329
Rp5330
(dp5331
g36
g5079
sg53
g5071
sg1124
Nsg553
I168
sg1125
g1758
sg1126
F0.3
sbasg1544
Nsg263
g1523
sg553
I22
sg1488
g1674
sbag1669
asg1501
(dp5332
sg1503
I0
sg1504
I0
sg1124
g1507
sg553
I5
sbsbsS'port_from'
p5333
g1546
sg1124
g1507
sg553
I1
sbag0
(g1661
g2
Ntp5334
Rp5335
(dp5336
g1665
I0
sg36
g1639
sg1666
I0
sg1667
g1687
sg5333
g5114
sg1124
g1507
sg553
I2
sbag0
(g1661
g2
Ntp5337
Rp5338
(dp5339
g1665
I0
sg36
g1639
sg1666
I0
sg1667
g0
(g40
g2
Ntp5340
Rp5341
(dp5342
g1542
Nsg36
S'from_cxn_retrieval_P'
p5343
sg45
Nsg46
Nsg1544
Nsg263
g1523
sg553
I14
sg1488
g0
(clanguage_schemas
GRAMMATICAL_WM_P
p5344
g2
Ntp5345
Rp5346
(dp5347
g34
(dp5348
g5343
NsS'from_phonological_WM_P'
p5349
Nsg1671
Nsg1531
Nssg1533
(lp5350
sg36
g1648
sg1536
(lp5351
sg38
(lp5352
g0
(g40
g2
Ntp5353
Rp5354
(dp5355
g1542
Nsg36
g1492
sg45
Nsg46
Nsg1544
Nsg263
g1487
sg553
I17
sg1488
g5346
sbag0
(g40
g2
Ntp5356
Rp5357
(dp5358
g1542
Nsg36
S'to_phonological_WM_P'
p5359
sg45
Nsg46
Nsg1544
Nsg263
g1487
sg553
I18
sg1488
g5346
sbag0
(g40
g2
Ntp5360
Rp5361
(dp5362
g36
g1560
sg45
Nsg46
Nsg263
g1487
sg553
I19
sg1488
g5346
sbasg1493
(dp5363
g1560
Nsg5359
Nsg1492
Nssg1498
F1.0
sg1562
(lp5364
sg1499
(lp5365
g0
(g40
g2
Ntp5366
Rp5367
(dp5368
g1542
Nsg36
g1671
sg45
Nsg46
(dp5369
g548
(dp5370
VENTITY_123373
p5371
cnumpy.core.multiarray
scalar
p5372
(cnumpy
dtype
p5373
(S'f8'
p5374
I0
I1
tp5375
Rp5376
(I3
S'<'
p5377
NNNI-1
I-1
I0
tp5378
bS'\xfd6\xde2\x95\xa6\xeb?'
p5379
tp5380
Rp5381
sVMAN_123371
p5382
g5372
(g5376
S'\x8f\xc0\x0bO\xa0\xa0\xeb?'
p5383
tp5384
Rp5385
sVWOMAN_123374
p5386
g5372
(g5376
S'\xb2X~;3\x9a\xeb?'
p5387
tp5388
Rp5389
sVENTITY_123370
p5390
g5372
(g5376
S'\xa0%\x16Z\xe9\x82\xeb?'
p5391
tp5392
Rp5393
ssg821
(dp5394
(g5371
g5386
tp5395
g5372
(g5376
S'b\xd9\r\x02?\xa4\xeb?'
p5396
tp5397
Rp5398
s(g5390
g5382
tp5399
g5372
(g5376
S'P\x87\xdbM\x0e\xa1\xeb?'
p5400
tp5401
Rp5402
sssg1544
Nsg263
g1523
sg553
I13
sg1488
g5346
sbag5341
ag0
(g40
g2
Ntp5403
Rp5404
(dp5405
g1542
Nsg36
g1531
sg45
Nsg46
(dp5406
S'params_style'
p5407
(dp5408
S'continuity'
p5409
F0.1
sS'form_length'
p5410
F0.0
sS'sem_length'
p5411
F0.5
sS'activation'
p5412
F0.7
ssS'pressure'
p5413
g5372
(g5376
S'+\x87\x16\xd9\xce\xf7\xef?'
p5414
tp5415
Rp5416
sg1577
I01
ssg1544
Nsg263
g1523
sg553
I15
sg1488
g5346
sbag0
(g40
g2
Ntp5417
Rp5418
(dp5419
g1542
Nsg36
g5349
sg45
Nsg46
(lp5420
sg1544
Nsg263
g1523
sg553
I16
sg1488
g5346
sbasg1578
(dp5421
g1580
(dp5422
sg1582
(dp5423
g1584
(lp5424
sg1586
(dp5425
g1588
(lp5426
sg1590
(lp5427
sg1592
(lp5428
ssg1594
(lp5429
sg1503
(lp5430
sg1597
(lp5431
sssg1501
(dp5432
g1600
(dp5433
g1602
F1.0
sS'deact_weight'
p5434
F0.0
sg1603
F-10.0
sg1604
F1.0
sg1605
F1.0
sg1606
F1.0
sS'sub_threshold_r'
p5435
F0.8
sg1607
F0.3
sg1608
F0.0
sg1609
F0.01
ssg1610
(dp5436
g1612
g5372
(g5376
S'\x00\x00\x00\x00\x00@\x8f@'
p5437
tp5438
Rp5439
sg1613
g5372
(g5376
S'\x00\x00\x00\x00\x00\x00$@'
p5440
tp5441
Rp5442
sg1614
F0.001
sg1615
F0.0
sg1616
g5372
(g5376
S'\x00\x00\x00\x00\x00\x00\x00@'
p5443
tp5444
Rp5445
sg1617
g5372
(g5376
S'\x00\x00\x00\x00\x00\x00$@'
p5446
tp5447
Rp5448
sg1618
F1.0
ssS'style'
p5449
(dp5450
g5409
F0.1
sg5410
F0.0
sg5411
F0.5
sg5412
F0.7
sssg1503
I0
sg1504
I0
sg1124
g1507
sg553
I3
sbsbsg5333
g1680
sg1124
g1507
sg553
I3
sbag0
(g1661
g2
Ntp5451
Rp5452
(dp5453
g1665
I0
sg36
g1639
sg1666
I0
sg1667
g5367
sg5333
g1540
sg1124
g1507
sg553
I4
sbag0
(g1661
g2
Ntp5454
Rp5455
(dp5456
g1665
I0
sg36
g1639
sg1666
I0
sg1667
g1572
sg5333
g5354
sg1124
g1507
sg553
I5
sbag0
(g1661
g2
Ntp5457
Rp5458
(dp5459
g1665
I0
sg36
g1639
sg1666
I0
sg1667
g0
(g40
g2
Ntp5460
Rp5461
(dp5462
g1542
Nsg36
g1529
sg45
Nsg46
Nsg1544
Nsg263
g1523
sg553
I25
sg1488
g0
(clanguage_schemas
PHON_WM_P
p5463
g2
Ntp5464
Rp5465
(dp5466
g34
(dp5467
g1529
Nssg1533
(lp5468
sg36
g1644
sg1536
(lp5469
sg38
(lp5470
g0
(g40
g2
Ntp5471
Rp5472
(dp5473
g1542
Nsg36
S'to_utter'
p5474
sg45
Nsg46
Nsg1544
Nsg263
g1487
sg553
I26
sg1488
g5465
sbag0
(g40
g2
Ntp5475
Rp5476
(dp5477
g1542
Nsg36
g1543
sg45
Nsg46
Nsg1544
Nsg263
g1487
sg553
I27
sg1488
g5465
sbag0
(g40
g2
Ntp5478
Rp5479
(dp5480
g1542
Nsg36
g1552
sg45
Nsg46
Nsg1544
Nsg263
g1487
sg553
I28
sg1488
g5465
sbag0
(g40
g2
Ntp5481
Rp5482
(dp5483
g36
g1560
sg45
Nsg46
Nsg263
g1487
sg553
I29
sg1488
g5465
sbasg1493
(dp5484
g1560
Nsg1543
Nsg5474
Nsg1552
NssS'needs_filler'
p5485
I01
sg1498
F1.0
sg1562
(lp5486
sg1499
(lp5487
g5461
asS'filler'
p5488
S'....'
p5489
sg1578
(dp5490
g1580
(dp5491
sg1582
(dp5492
g1584
(lp5493
sg1586
(dp5494
g1588
(lp5495
sg1590
(lp5496
sg1592
(lp5497
ssg1594
(lp5498
sg1503
(lp5499
sg1597
(lp5500
sssg1501
(dp5501
g1600
(dp5502
g1602
F1.0
sg1603
F0.0
sg1604
F1.0
sg1605
F1.0
sg1606
F0.0
sg1607
F0.0
sg1608
F0.0
sg1609
F0.01
ssg1610
(dp5503
g1612
F100.0
sg1613
F10.0
sg1614
F0.001
sg1615
F0.0
sg1616
F1.0
sg1617
F1.0
sg1618
F1.0
sssg1503
I0
sg1504
I0
sg1124
g1507
sS'phon_sequence'
p5504
(lp5505
sg553
I6
sbsbsg5333
g5357
sg1124
g1507
sg553
I6
sbag0
(g1661
g2
Ntp5506
Rp5507
(dp5508
g1665
I0
sg36
g1639
sg1666
I0
sg1667
g5418
sg5333
g5476
sg1124
g1507
sg553
I7
sbag0
(g1661
g2
Ntp5509
Rp5510
(dp5511
g1665
I0
sg36
g1639
sg1666
I0
sg1667
g0
(g40
g2
Ntp5512
Rp5513
(dp5514
g1542
Nsg36
g1671
sg45
Nsg46
I01
sg1544
Nsg263
g1523
sg553
I32
sg1488
g0
(clanguage_schemas
CONTROL
p5515
g2
Ntp5516
Rp5517
(dp5518
g34
(dp5519
g5349
Nsg1671
Nssg36
g1634
sg38
(lp5520
g0
(g40
g2
Ntp5521
Rp5522
(dp5523
g1542
Nsg36
g1492
sg45
Nsg46
Nsg1544
Nsg263
g1487
sg553
I34
sg1488
g5517
sbag0
(g40
g2
Ntp5524
Rp5525
(dp5526
g1542
Nsg36
g1543
sg45
Nsg46
Nsg1544
Nsg263
g1487
sg553
I35
sg1488
g5517
sbag0
(g40
g2
Ntp5527
Rp5528
(dp5529
g36
S'to_grammatical_WM_C'
p5530
sg45
Nsg46
I00
sg263
g1487
sg553
I36
sg1488
g5517
sbasg1493
(dp5531
g1543
Nsg5530
Nsg1492
Nssg1498
F1.0
sg1499
(lp5532
g5513
ag0
(g40
g2
Ntp5533
Rp5534
(dp5535
g1542
Nsg36
g5349
sg45
Nsg46
Nsg1544
Nsg263
g1523
sg553
I33
sg1488
g5517
sbasS'state'
p5536
(dp5537
g1577
I00
sS'unexpressed_sem'
p5538
I00
sS'mode'
p5539
g1577
sS'last_prod_time'
p5540
I0
ssg1501
(dp5541
g5449
(dp5542
g5409
F0.1
sg5410
F0.0
sg5412
F0.7
sg5411
F0.5
ssS'task'
p5543
(dp5544
S'time_pressure'
p5545
g5372
(g5376
S'\x00\x00\x00\x00\x00@\x8f@'
p5546
tp5547
Rp5548
sS'start_produce'
p5549
g5372
(g5376
S'\x00\x00\x00\x00\x00@\x8f@'
p5550
tp5551
Rp5552
sssg1503
I0
sg1504
I0
sg1124
g1507
sg553
I8
sbsbsg5333
g1550
sg1124
g1507
sg553
I8
sbag0
(g1661
g2
Ntp5553
Rp5554
(dp5555
g1665
I0
sg36
g1639
sg1666
I0
sg1667
g0
(g40
g2
Ntp5556
Rp5557
(dp5558
g1542
Nsg36
g5349
sg45
Nsg46
Nsg1544
Nsg263
g1523
sg553
I30
sg1488
g0
(clanguage_schemas
UTTER
p5559
g2
Ntp5560
Rp5561
(dp5562
g34
(dp5563
g5349
Nssg36
g1637
sg38
(lp5564
g0
(g40
g2
Ntp5565
Rp5566
(dp5567
g36
g1560
sg45
Nsg46
Nsg263
g1487
sg553
I31
sg1488
g5561
sbasg1493
(dp5568
g1560
NssS'utterance_stack'
p5569
(lp5570
sg1498
F1.0
sg1499
(lp5571
g5557
asg1501
(dp5572
S'speech_rate'
p5573
F1.0
ssg1503
I0
sg1504
I0
sg1124
g1507
sg553
I7
sbsbsg5333
g5472
sg1124
g1507
sg553
I9
sbag0
(g1661
g2
Ntp5574
Rp5575
(dp5576
g1665
I0
sg36
g1639
sg1666
I0
sg1667
g5534
sg5333
g5479
sg1124
g1507
sg553
I10
sbag0
(g1661
g2
Ntp5577
Rp5578
(dp5579
g1665
I0
sg36
g1639
sg1666
I0
sg1667
g5404
sg5333
g5525
sg1124
g1507
sg553
I11
sbag0
(g1661
g2
Ntp5580
Rp5581
(dp5582
g1665
I0
sg36
g1639
sg1666
I0
sg1667
g1575
sg5333
g5522
sg1124
g1507
sg553
I12
sbasg1501
(dp5583
g1634
g5541
sg1644
g5501
sg37
g1502
sg1652
g5123
sg1656
g5332
sg1535
g1599
sg1637
g5572
sg1648
g5432
ssg1503
F0.0
sS'set_up_time'
p5584
I10
sS'input'
p5585
NsS'default_params'
p5586
Nsg1498
F1.0
sS'output_ports'
p5587
(lp5588
g5566
ag5482
ag5361
ag1558
asg5124
(dp5589
g1634
g5517
sg1644
g5465
sg37
g32
sg1656
g1674
sg1648
g5346
sg1535
g1526
sg1637
g5561
sg1652
g1758
ssbsg553
I2
sg5124
g47
sbsS'speed_param'
p5590
I100
sS'ground_truths'
p5591
(lp5592
Vyoung woman
p5593
aVyoung lady
p5594
asS'is_macro'
p5595
I01
sb.