ccopy_reg
_reconstructor
p0
(clanguage_schemas
SEM_GENERATOR
p1
c__builtin__
object
p2
Ntp3
Rp4
(dp5
S'sem_inputs'
p6
(dp7
S'{}'
p8
(dp9
Vtiming
p10
(lp11
F0.0
aF100.0
aF200.0
asVsem_rate
p12
I1
sVpropositions
p13
(dp14
VP2
p15
(lp16
VENTITY(e2,F)
p17
aVWOMAN(woman)
p18
aVIS(is2)
p19
aVis2(e2, woman)
p20
aVEVENT(evt1,F)
p21
aVACTION(a1,F)
p22
aVIS(is3)
p23
aVis3(evt1,a1)
p24
aVPUNCH(punch)
p25
aVIS(is4)
p26
aVis4(a1, punch)
p27
aVAGENT(agt)
p28
aVPATIENT(pt)
p29
aVagt(a1, e2)
p30
aVpt(a1, e1)
p31
asVP3
p32
(lp33
VYOUNG(young)
p34
aVMODIFY(mod)
p35
aVmod(e2, young)
p36
asVP1
p37
(lp38
VENTITY(e1,F)
p39
aVMAN(man)
p40
aVIS(is1)
p41
aVis1(e1, man)
p42
assVcomments
p43
VActions + property modifier dynamic.
p44
sVsequence
p45
(lp46
VP1
p47
aVP2
p48
aVP3
p49
asssS'conceptLTM'
p50
g0
(clanguage_schemas
CONCEPT_LTM
p51
g2
Ntp52
Rp53
(dp54
S'inputs'
p55
(dp56
sS'name'
p57
S'Concept_LTM'
p58
sS'out_ports'
p59
(lp60
g0
(cschema_theory
PORT
p61
g2
Ntp62
Rp63
(dp64
g57
S'to_conceptualizer'
p65
sS'data'
p66
NsS'value'
p67
(lp68
g0
(clanguage_schemas
CPT_EVENT_SCHEMA
p69
g2
Ntp70
Rp71
(dp72
g57
S'?'
p73
sS'content'
p74
(dp75
S'concept'
p76
g0
(cconcept
CONCEPT
p77
g2
Ntp78
Rp79
(dp80
S'meaning'
p81
g73
sS'conceptual_knowledge'
p82
g0
(cconcept
CONCEPTUAL_KNOWLEDGE
p83
g2
Ntp84
Rp85
(dp86
S'graph'
p87
g0
(cnetworkx.classes.digraph
DiGraph
p88
g2
Ntp89
Rp90
(dp91
S'node'
p92
(dp93
I1
(dp94
g81
g73
ssI2
(dp95
g81
S'CONCEPT'
p96
ssI3
(dp97
g81
VACTION
p98
ssI4
(dp99
g81
VSYMMETRIC
p100
ssI5
(dp101
g81
VMEET
p102
ssI6
(dp103
g81
VSHAKE_HANDS
p104
ssI7
(dp105
g81
VINTRANSITIVE
p106
ssI8
(dp107
g81
VLAUGH
p108
ssI9
(dp109
g81
VTRANSITIVE
p110
ssI10
(dp111
g81
VHIT
p112
ssI11
(dp113
g81
VWATCH
p114
ssI12
(dp115
g81
VPUNCH
p116
ssI13
(dp117
g81
VSPLASH
p118
ssI14
(dp119
g81
VTALK
p120
ssI15
(dp121
g81
VKISS
p122
ssI16
(dp123
g81
VSQUIRT
p124
ssI17
(dp125
g81
VKICK
p126
ssI18
(dp127
g81
VWEAR
p128
ssI19
(dp129
g81
VDITRANSITIVE
p130
ssI20
(dp131
g81
VSEND
p132
ssI21
(dp133
g81
VGIVE
p134
ssI22
(dp135
g81
VPROPERTY
p136
ssI23
(dp137
g81
VCOLOR
p138
ssI24
(dp139
g81
VBLUE
p140
ssI25
(dp141
g81
VGREEN
p142
ssI26
(dp143
g81
VWHITE
p144
ssI27
(dp145
g81
VBLACK
p146
ssI28
(dp147
g81
VRED
p148
ssI29
(dp149
g81
VAPPEARANCE
p150
ssI30
(dp151
g81
VYOUNG
p152
ssI31
(dp153
g81
VPRETTY
p154
ssI32
(dp155
g81
VHANDSOME
p156
ssI33
(dp157
g81
VSIZE
p158
ssI34
(dp159
g81
VSMALL
p160
ssI35
(dp161
g81
VBIG
p162
ssI36
(dp163
g81
VRELATION
p164
ssI37
(dp165
g81
VACTION_FRAME
p166
ssI38
(dp167
g81
VMODIFY
p168
ssI39
(dp169
g81
VTHEME
p170
ssI40
(dp171
g81
VRECIPIENT
p172
ssI41
(dp173
g81
VATTR
p174
ssI42
(dp175
g81
VAGT_PT
p176
ssI43
(dp177
g81
VPATIENT
p178
ssI44
(dp179
g81
VAGT+PT
p180
ssI45
(dp181
g81
VAGENT
p182
ssI46
(dp183
g81
VEVENT_FRAME
p184
ssI47
(dp185
g81
VTEMPORAL
p186
ssI48
(dp187
g81
VCONCURRENT
p188
ssI49
(dp189
g81
VSUCCESSIVE
p190
ssI50
(dp191
g81
VSPATIAL
p192
ssI51
(dp193
g81
VIN
p194
ssI52
(dp195
g81
VIS
p196
ssI53
(dp197
g81
VOBJECT_FRAME
p198
ssI54
(dp199
g81
VEVENT
p200
ssI55
(dp201
g81
VENTITY
p202
ssI56
(dp203
g81
VANIMATE
p204
ssI57
(dp205
g81
VANIMAL
p206
ssI58
(dp207
g81
VHUMAN
p208
ssI59
(dp209
g81
VOBJECT
p210
ssI60
(dp211
g81
VITEM
p212
ssI61
(dp213
g81
VWAGON
p214
ssI62
(dp215
g81
VWATERING_CAN
p216
ssI63
(dp217
g81
VBAG
p218
ssI64
(dp219
g81
VTREE
p220
ssI65
(dp221
g81
VHOOK
p222
ssI66
(dp223
g81
VCELLO
p224
ssI67
(dp225
g81
VBOOKSHELF
p226
ssI68
(dp227
g81
VCLOTHING
p228
ssI69
(dp229
g81
VTSHIRT
p230
ssI70
(dp231
g81
VDRESS
p232
ssI71
(dp233
g81
VSHIRT
p234
ssI72
(dp235
g81
VSUIT
p236
ssI73
(dp237
g81
VTURTLE
p238
ssI74
(dp239
g81
VMOUSE
p240
ssI75
(dp241
g81
VDOG
p242
ssI76
(dp243
g81
VBOY
p244
ssI77
(dp245
g81
VWOMAN
p246
ssI78
(dp247
g81
VPEOPLE
p248
ssI79
(dp249
g81
VPOLICEMAN
p250
ssI80
(dp251
g81
VHUNTER
p252
ssI81
(dp253
g81
VBALLERINA
p254
ssI82
(dp255
g81
VCELLIST
p256
ssI83
(dp257
g81
VGIRL
p258
ssI84
(dp259
g81
VFENCER
p260
ssI85
(dp261
g81
VROBBER
p262
ssI86
(dp263
g81
VMAN
p264
ssI87
(dp265
g81
VPLACE
p266
ssI88
(dp267
g81
VBOXINGRING
p268
ssI89
(dp269
g81
VPARK
p270
ssI90
(dp271
g81
VMALE
p272
ssI91
(dp273
g81
VFEMALE
p274
sssS'node_dict_factory'
p275
c__builtin__
dict
p276
sS'edge_attr_dict_factory'
p277
g276
sS'succ'
p278
(dp279
I1
(dp280
sI2
(dp281
sI3
(dp282
I2
(dp283
S'type'
p284
S'is_a'
p285
sssI4
(dp286
I3
(dp287
g284
g285
sssI5
(dp288
I4
(dp289
g284
g285
sssI6
(dp290
I4
(dp291
g284
g285
sssI7
(dp292
I3
(dp293
g284
g285
sssI8
(dp294
I7
(dp295
g284
g285
sssI9
(dp296
I3
(dp297
g284
g285
sssI10
(dp298
I9
(dp299
g284
g285
sssI11
(dp300
I9
(dp301
g284
g285
sssI12
(dp302
I9
(dp303
g284
g285
sssI13
(dp304
I9
(dp305
g284
g285
sssI14
(dp306
I9
(dp307
g284
g285
sssI15
(dp308
I9
(dp309
g284
g285
sssI16
(dp310
I9
(dp311
g284
g285
sssI17
(dp312
I9
(dp313
g284
g285
sssI18
(dp314
I9
(dp315
g284
g285
sssI19
(dp316
I3
(dp317
g284
g285
sssI20
(dp318
I19
(dp319
g284
g285
sssI21
(dp320
I19
(dp321
g284
g285
sssI22
(dp322
I2
(dp323
g284
g285
sssI23
(dp324
I22
(dp325
g284
g285
sssI24
(dp326
I23
(dp327
g284
g285
sssI25
(dp328
I23
(dp329
g284
g285
sssI26
(dp330
I23
(dp331
g284
g285
sssI27
(dp332
I23
(dp333
g284
g285
sssI28
(dp334
I23
(dp335
g284
g285
sssI29
(dp336
I22
(dp337
g284
g285
sssI30
(dp338
I29
(dp339
g284
g285
sssI31
(dp340
I29
(dp341
g284
g285
sssI32
(dp342
I29
(dp343
g284
g285
sssI33
(dp344
I22
(dp345
g284
g285
sssI34
(dp346
I33
(dp347
g284
g285
sssI35
(dp348
I33
(dp349
g284
g285
sssI36
(dp350
I2
(dp351
g284
g285
sssI37
(dp352
I36
(dp353
g284
g285
sssI38
(dp354
I37
(dp355
g284
g285
ssI53
(dp356
g284
g285
sssI39
(dp357
I37
(dp358
g284
g285
sssI40
(dp359
I37
(dp360
g284
g285
sssI41
(dp361
I37
(dp362
g284
g285
ssI53
(dp363
g284
g285
sssI42
(dp364
I37
(dp365
g284
g285
sssI43
(dp366
I42
(dp367
g284
g285
sssI44
(dp368
I43
(dp369
g284
g285
ssI45
(dp370
g284
g285
sssI45
(dp371
I42
(dp372
g284
g285
sssI46
(dp373
I36
(dp374
g284
g285
sssI47
(dp375
I46
(dp376
g284
g285
sssI48
(dp377
I47
(dp378
g284
g285
sssI49
(dp379
I47
(dp380
g284
g285
sssI50
(dp381
I46
(dp382
g284
g285
sssI51
(dp383
I50
(dp384
g284
g285
sssI52
(dp385
I36
(dp386
g284
g285
sssI53
(dp387
I36
(dp388
g284
g285
sssI54
(dp389
I2
(dp390
g284
g285
sssI55
(dp391
I2
(dp392
g284
g285
sssI56
(dp393
I55
(dp394
g284
g285
sssI57
(dp395
I56
(dp396
g284
g285
ssI59
(dp397
g284
g285
sssI58
(dp398
I56
(dp399
g284
g285
ssI59
(dp400
g284
g285
sssI59
(dp401
I55
(dp402
g284
g285
sssI60
(dp403
I59
(dp404
g284
g285
sssI61
(dp405
I60
(dp406
g284
g285
sssI62
(dp407
I60
(dp408
g284
g285
sssI63
(dp409
I60
(dp410
g284
g285
sssI64
(dp411
I60
(dp412
g284
g285
sssI65
(dp413
I60
(dp414
g284
g285
sssI66
(dp415
I60
(dp416
g284
g285
sssI67
(dp417
I60
(dp418
g284
g285
sssI68
(dp419
I60
(dp420
g284
g285
sssI69
(dp421
I68
(dp422
g284
g285
sssI70
(dp423
I68
(dp424
g284
g285
sssI71
(dp425
I68
(dp426
g284
g285
sssI72
(dp427
I68
(dp428
g284
g285
sssI73
(dp429
I57
(dp430
g284
g285
sssI74
(dp431
I57
(dp432
g284
g285
sssI75
(dp433
I57
(dp434
g284
g285
sssI76
(dp435
I58
(dp436
g284
g285
ssI90
(dp437
g284
g285
sssI77
(dp438
I58
(dp439
g284
g285
ssI91
(dp440
g284
g285
sssI78
(dp441
I58
(dp442
g284
g285
sssI79
(dp443
I58
(dp444
g284
g285
sssI80
(dp445
I58
(dp446
g284
g285
sssI81
(dp447
I58
(dp448
g284
g285
ssI91
(dp449
g284
g285
sssI82
(dp450
I58
(dp451
g284
g285
sssI83
(dp452
I58
(dp453
g284
g285
ssI91
(dp454
g284
g285
sssI84
(dp455
I58
(dp456
g284
g285
sssI85
(dp457
I58
(dp458
g284
g285
sssI86
(dp459
I58
(dp460
g284
g285
ssI90
(dp461
g284
g285
sssI87
(dp462
I55
(dp463
g284
g285
sssI88
(dp464
I87
(dp465
g284
g285
sssI89
(dp466
I87
(dp467
g284
g285
sssI90
(dp468
I55
(dp469
g284
g285
sssI91
(dp470
I55
(dp471
g284
g285
ssssS'edge'
p472
g279
sg87
(dp473
sS'adjlist_dict_factory'
p474
g276
sS'adj'
p475
g279
sS'pred'
p476
(dp477
I1
(dp478
sI2
(dp479
I3
g283
sI36
g351
sI54
g390
sI22
g323
sI55
g392
ssI3
(dp480
I9
g297
sI19
g317
sI4
g287
sI7
g293
ssI4
(dp481
I5
g289
sI6
g291
ssI5
(dp482
sI6
(dp483
sI7
(dp484
I8
g295
ssI8
(dp485
sI9
(dp486
I10
g299
sI11
g301
sI12
g303
sI13
g305
sI14
g307
sI15
g309
sI16
g311
sI17
g313
sI18
g315
ssI10
(dp487
sI11
(dp488
sI12
(dp489
sI13
(dp490
sI14
(dp491
sI15
(dp492
sI16
(dp493
sI17
(dp494
sI18
(dp495
sI19
(dp496
I20
g319
sI21
g321
ssI20
(dp497
sI21
(dp498
sI22
(dp499
I33
g345
sI29
g337
sI23
g325
ssI23
(dp500
I24
g327
sI25
g329
sI26
g331
sI27
g333
sI28
g335
ssI24
(dp501
sI25
(dp502
sI26
(dp503
sI27
(dp504
sI28
(dp505
sI29
(dp506
I32
g343
sI30
g339
sI31
g341
ssI30
(dp507
sI31
(dp508
sI32
(dp509
sI33
(dp510
I34
g347
sI35
g349
ssI34
(dp511
sI35
(dp512
sI36
(dp513
I52
g386
sI37
g353
sI46
g374
sI53
g388
ssI37
(dp514
I40
g360
sI41
g362
sI42
g365
sI38
g355
sI39
g358
ssI38
(dp515
sI39
(dp516
sI40
(dp517
sI41
(dp518
sI42
(dp519
I43
g367
sI45
g372
ssI43
(dp520
I44
g369
ssI44
(dp521
sI45
(dp522
I44
g370
ssI46
(dp523
I50
g382
sI47
g376
ssI47
(dp524
I48
g378
sI49
g380
ssI48
(dp525
sI49
(dp526
sI50
(dp527
I51
g384
ssI51
(dp528
sI52
(dp529
sI53
(dp530
I41
g363
sI38
g356
ssI54
(dp531
sI55
(dp532
I56
g394
sI91
g471
sI90
g469
sI59
g402
sI87
g463
ssI56
(dp533
I57
g396
sI58
g399
ssI57
(dp534
I73
g430
sI74
g432
sI75
g434
ssI58
(dp535
I76
g436
sI77
g439
sI78
g442
sI79
g444
sI80
g446
sI81
g448
sI82
g451
sI83
g453
sI84
g456
sI85
g458
sI86
g460
ssI59
(dp536
I57
g397
sI58
g400
sI60
g404
ssI60
(dp537
I64
g412
sI65
g414
sI66
g416
sI67
g418
sI68
g420
sI61
g406
sI62
g408
sI63
g410
ssI61
(dp538
sI62
(dp539
sI63
(dp540
sI64
(dp541
sI65
(dp542
sI66
(dp543
sI67
(dp544
sI68
(dp545
I72
g428
sI69
g422
sI70
g424
sI71
g426
ssI69
(dp546
sI70
(dp547
sI71
(dp548
sI72
(dp549
sI73
(dp550
sI74
(dp551
sI75
(dp552
sI76
(dp553
sI77
(dp554
sI78
(dp555
sI79
(dp556
sI80
(dp557
sI81
(dp558
sI82
(dp559
sI83
(dp560
sI84
(dp561
sI85
(dp562
sI86
(dp563
sI87
(dp564
I88
g465
sI89
g467
ssI88
(dp565
sI89
(dp566
sI90
(dp567
I76
g437
sI86
g461
ssI91
(dp568
I81
g449
sI83
g454
sI77
g440
sssbsS'nodes'
p569
(lp570
g79
ag0
(g77
g2
Ntp571
Rp572
(dp573
g81
g96
sg82
g85
sS'id'
p574
I2
sg57
g96
sbag0
(g77
g2
Ntp575
Rp576
(dp577
g81
g98
sg82
g85
sg574
I3
sg57
g98
sbag0
(g77
g2
Ntp578
Rp579
(dp580
g81
g100
sg82
g85
sg574
I4
sg57
g100
sbag0
(g77
g2
Ntp581
Rp582
(dp583
g81
g102
sg82
g85
sg574
I5
sg57
g102
sbag0
(g77
g2
Ntp584
Rp585
(dp586
g81
g104
sg82
g85
sg574
I6
sg57
g104
sbag0
(g77
g2
Ntp587
Rp588
(dp589
g81
g106
sg82
g85
sg574
I7
sg57
g106
sbag0
(g77
g2
Ntp590
Rp591
(dp592
g81
g108
sg82
g85
sg574
I8
sg57
g108
sbag0
(g77
g2
Ntp593
Rp594
(dp595
g81
g110
sg82
g85
sg574
I9
sg57
g110
sbag0
(g77
g2
Ntp596
Rp597
(dp598
g81
g112
sg82
g85
sg574
I10
sg57
g112
sbag0
(g77
g2
Ntp599
Rp600
(dp601
g81
g114
sg82
g85
sg574
I11
sg57
g114
sbag0
(g77
g2
Ntp602
Rp603
(dp604
g81
g116
sg82
g85
sg574
I12
sg57
g116
sbag0
(g77
g2
Ntp605
Rp606
(dp607
g81
g118
sg82
g85
sg574
I13
sg57
g118
sbag0
(g77
g2
Ntp608
Rp609
(dp610
g81
g120
sg82
g85
sg574
I14
sg57
g120
sbag0
(g77
g2
Ntp611
Rp612
(dp613
g81
g122
sg82
g85
sg574
I15
sg57
g122
sbag0
(g77
g2
Ntp614
Rp615
(dp616
g81
g124
sg82
g85
sg574
I16
sg57
g124
sbag0
(g77
g2
Ntp617
Rp618
(dp619
g81
g126
sg82
g85
sg574
I17
sg57
g126
sbag0
(g77
g2
Ntp620
Rp621
(dp622
g81
g128
sg82
g85
sg574
I18
sg57
g128
sbag0
(g77
g2
Ntp623
Rp624
(dp625
g81
g130
sg82
g85
sg574
I19
sg57
g130
sbag0
(g77
g2
Ntp626
Rp627
(dp628
g81
g132
sg82
g85
sg574
I20
sg57
g132
sbag0
(g77
g2
Ntp629
Rp630
(dp631
g81
g134
sg82
g85
sg574
I21
sg57
g134
sbag0
(g77
g2
Ntp632
Rp633
(dp634
g81
g136
sg82
g85
sg574
I22
sg57
g136
sbag0
(g77
g2
Ntp635
Rp636
(dp637
g81
g138
sg82
g85
sg574
I23
sg57
g138
sbag0
(g77
g2
Ntp638
Rp639
(dp640
g81
g140
sg82
g85
sg574
I24
sg57
g140
sbag0
(g77
g2
Ntp641
Rp642
(dp643
g81
g142
sg82
g85
sg574
I25
sg57
g142
sbag0
(g77
g2
Ntp644
Rp645
(dp646
g81
g144
sg82
g85
sg574
I26
sg57
g144
sbag0
(g77
g2
Ntp647
Rp648
(dp649
g81
g146
sg82
g85
sg574
I27
sg57
g146
sbag0
(g77
g2
Ntp650
Rp651
(dp652
g81
g148
sg82
g85
sg574
I28
sg57
g148
sbag0
(g77
g2
Ntp653
Rp654
(dp655
g81
g150
sg82
g85
sg574
I29
sg57
g150
sbag0
(g77
g2
Ntp656
Rp657
(dp658
g81
g152
sg82
g85
sg574
I30
sg57
g152
sbag0
(g77
g2
Ntp659
Rp660
(dp661
g81
g154
sg82
g85
sg574
I31
sg57
g154
sbag0
(g77
g2
Ntp662
Rp663
(dp664
g81
g156
sg82
g85
sg574
I32
sg57
g156
sbag0
(g77
g2
Ntp665
Rp666
(dp667
g81
g158
sg82
g85
sg574
I33
sg57
g158
sbag0
(g77
g2
Ntp668
Rp669
(dp670
g81
g160
sg82
g85
sg574
I34
sg57
g160
sbag0
(g77
g2
Ntp671
Rp672
(dp673
g81
g162
sg82
g85
sg574
I35
sg57
g162
sbag0
(g77
g2
Ntp674
Rp675
(dp676
g81
g164
sg82
g85
sg574
I36
sg57
g164
sbag0
(g77
g2
Ntp677
Rp678
(dp679
g81
g166
sg82
g85
sg574
I37
sg57
g166
sbag0
(g77
g2
Ntp680
Rp681
(dp682
g81
g168
sg82
g85
sg574
I38
sg57
g168
sbag0
(g77
g2
Ntp683
Rp684
(dp685
g81
g170
sg82
g85
sg574
I39
sg57
g170
sbag0
(g77
g2
Ntp686
Rp687
(dp688
g81
g172
sg82
g85
sg574
I40
sg57
g172
sbag0
(g77
g2
Ntp689
Rp690
(dp691
g81
g174
sg82
g85
sg574
I41
sg57
g174
sbag0
(g77
g2
Ntp692
Rp693
(dp694
g81
g176
sg82
g85
sg574
I42
sg57
g176
sbag0
(g77
g2
Ntp695
Rp696
(dp697
g81
g178
sg82
g85
sg574
I43
sg57
g178
sbag0
(g77
g2
Ntp698
Rp699
(dp700
g81
g180
sg82
g85
sg574
I44
sg57
g180
sbag0
(g77
g2
Ntp701
Rp702
(dp703
g81
g182
sg82
g85
sg574
I45
sg57
g182
sbag0
(g77
g2
Ntp704
Rp705
(dp706
g81
g184
sg82
g85
sg574
I46
sg57
g184
sbag0
(g77
g2
Ntp707
Rp708
(dp709
g81
g186
sg82
g85
sg574
I47
sg57
g186
sbag0
(g77
g2
Ntp710
Rp711
(dp712
g81
g188
sg82
g85
sg574
I48
sg57
g188
sbag0
(g77
g2
Ntp713
Rp714
(dp715
g81
g190
sg82
g85
sg574
I49
sg57
g190
sbag0
(g77
g2
Ntp716
Rp717
(dp718
g81
g192
sg82
g85
sg574
I50
sg57
g192
sbag0
(g77
g2
Ntp719
Rp720
(dp721
g81
g194
sg82
g85
sg574
I51
sg57
g194
sbag0
(g77
g2
Ntp722
Rp723
(dp724
g81
g196
sg82
g85
sg574
I52
sg57
g196
sbag0
(g77
g2
Ntp725
Rp726
(dp727
g81
g198
sg82
g85
sg574
I53
sg57
g198
sbag0
(g77
g2
Ntp728
Rp729
(dp730
g81
g200
sg82
g85
sg574
I54
sg57
g200
sbag0
(g77
g2
Ntp731
Rp732
(dp733
g81
g202
sg82
g85
sg574
I55
sg57
g202
sbag0
(g77
g2
Ntp734
Rp735
(dp736
g81
g204
sg82
g85
sg574
I56
sg57
g204
sbag0
(g77
g2
Ntp737
Rp738
(dp739
g81
g206
sg82
g85
sg574
I57
sg57
g206
sbag0
(g77
g2
Ntp740
Rp741
(dp742
g81
g208
sg82
g85
sg574
I58
sg57
g208
sbag0
(g77
g2
Ntp743
Rp744
(dp745
g81
g210
sg82
g85
sg574
I59
sg57
g210
sbag0
(g77
g2
Ntp746
Rp747
(dp748
g81
g212
sg82
g85
sg574
I60
sg57
g212
sbag0
(g77
g2
Ntp749
Rp750
(dp751
g81
g214
sg82
g85
sg574
I61
sg57
g214
sbag0
(g77
g2
Ntp752
Rp753
(dp754
g81
g216
sg82
g85
sg574
I62
sg57
g216
sbag0
(g77
g2
Ntp755
Rp756
(dp757
g81
g218
sg82
g85
sg574
I63
sg57
g218
sbag0
(g77
g2
Ntp758
Rp759
(dp760
g81
g220
sg82
g85
sg574
I64
sg57
g220
sbag0
(g77
g2
Ntp761
Rp762
(dp763
g81
g222
sg82
g85
sg574
I65
sg57
g222
sbag0
(g77
g2
Ntp764
Rp765
(dp766
g81
g224
sg82
g85
sg574
I66
sg57
g224
sbag0
(g77
g2
Ntp767
Rp768
(dp769
g81
g226
sg82
g85
sg574
I67
sg57
g226
sbag0
(g77
g2
Ntp770
Rp771
(dp772
g81
g228
sg82
g85
sg574
I68
sg57
g228
sbag0
(g77
g2
Ntp773
Rp774
(dp775
g81
g230
sg82
g85
sg574
I69
sg57
g230
sbag0
(g77
g2
Ntp776
Rp777
(dp778
g81
g232
sg82
g85
sg574
I70
sg57
g232
sbag0
(g77
g2
Ntp779
Rp780
(dp781
g81
g234
sg82
g85
sg574
I71
sg57
g234
sbag0
(g77
g2
Ntp782
Rp783
(dp784
g81
g236
sg82
g85
sg574
I72
sg57
g236
sbag0
(g77
g2
Ntp785
Rp786
(dp787
g81
g238
sg82
g85
sg574
I73
sg57
g238
sbag0
(g77
g2
Ntp788
Rp789
(dp790
g81
g240
sg82
g85
sg574
I74
sg57
g240
sbag0
(g77
g2
Ntp791
Rp792
(dp793
g81
g242
sg82
g85
sg574
I75
sg57
g242
sbag0
(g77
g2
Ntp794
Rp795
(dp796
g81
g244
sg82
g85
sg574
I76
sg57
g244
sbag0
(g77
g2
Ntp797
Rp798
(dp799
g81
g246
sg82
g85
sg574
I77
sg57
g246
sbag0
(g77
g2
Ntp800
Rp801
(dp802
g81
g248
sg82
g85
sg574
I78
sg57
g248
sbag0
(g77
g2
Ntp803
Rp804
(dp805
g81
g250
sg82
g85
sg574
I79
sg57
g250
sbag0
(g77
g2
Ntp806
Rp807
(dp808
g81
g252
sg82
g85
sg574
I80
sg57
g252
sbag0
(g77
g2
Ntp809
Rp810
(dp811
g81
g254
sg82
g85
sg574
I81
sg57
g254
sbag0
(g77
g2
Ntp812
Rp813
(dp814
g81
g256
sg82
g85
sg574
I82
sg57
g256
sbag0
(g77
g2
Ntp815
Rp816
(dp817
g81
g258
sg82
g85
sg574
I83
sg57
g258
sbag0
(g77
g2
Ntp818
Rp819
(dp820
g81
g260
sg82
g85
sg574
I84
sg57
g260
sbag0
(g77
g2
Ntp821
Rp822
(dp823
g81
g262
sg82
g85
sg574
I85
sg57
g262
sbag0
(g77
g2
Ntp824
Rp825
(dp826
g81
g264
sg82
g85
sg574
I86
sg57
g264
sbag0
(g77
g2
Ntp827
Rp828
(dp829
g81
g266
sg82
g85
sg574
I87
sg57
g266
sbag0
(g77
g2
Ntp830
Rp831
(dp832
g81
g268
sg82
g85
sg574
I88
sg57
g268
sbag0
(g77
g2
Ntp833
Rp834
(dp835
g81
g270
sg82
g85
sg574
I89
sg57
g270
sbag0
(g77
g2
Ntp836
Rp837
(dp838
g81
g272
sg82
g85
sg574
I90
sg57
g272
sbag0
(g77
g2
Ntp839
Rp840
(dp841
g81
g274
sg82
g85
sg574
I91
sg57
g274
sbasS'edges'
p842
(lp843
g0
(cconcept
SEM_REL
p844
g2
Ntp845
Rp846
(dp847
S'pTo'
p848
g572
sg284
g285
sS'pFrom'
p849
g576
sbag0
(g844
g2
Ntp850
Rp851
(dp852
g848
g576
sg284
g285
sg849
g579
sbag0
(g844
g2
Ntp853
Rp854
(dp855
g848
g579
sg284
g285
sg849
g582
sbag0
(g844
g2
Ntp856
Rp857
(dp858
g848
g579
sg284
g285
sg849
g585
sbag0
(g844
g2
Ntp859
Rp860
(dp861
g848
g576
sg284
g285
sg849
g588
sbag0
(g844
g2
Ntp862
Rp863
(dp864
g848
g588
sg284
g285
sg849
g591
sbag0
(g844
g2
Ntp865
Rp866
(dp867
g848
g576
sg284
g285
sg849
g594
sbag0
(g844
g2
Ntp868
Rp869
(dp870
g848
g594
sg284
g285
sg849
g597
sbag0
(g844
g2
Ntp871
Rp872
(dp873
g848
g594
sg284
g285
sg849
g600
sbag0
(g844
g2
Ntp874
Rp875
(dp876
g848
g594
sg284
g285
sg849
g603
sbag0
(g844
g2
Ntp877
Rp878
(dp879
g848
g594
sg284
g285
sg849
g606
sbag0
(g844
g2
Ntp880
Rp881
(dp882
g848
g594
sg284
g285
sg849
g609
sbag0
(g844
g2
Ntp883
Rp884
(dp885
g848
g594
sg284
g285
sg849
g612
sbag0
(g844
g2
Ntp886
Rp887
(dp888
g848
g594
sg284
g285
sg849
g615
sbag0
(g844
g2
Ntp889
Rp890
(dp891
g848
g594
sg284
g285
sg849
g618
sbag0
(g844
g2
Ntp892
Rp893
(dp894
g848
g594
sg284
g285
sg849
g621
sbag0
(g844
g2
Ntp895
Rp896
(dp897
g848
g576
sg284
g285
sg849
g624
sbag0
(g844
g2
Ntp898
Rp899
(dp900
g848
g624
sg284
g285
sg849
g627
sbag0
(g844
g2
Ntp901
Rp902
(dp903
g848
g624
sg284
g285
sg849
g630
sbag0
(g844
g2
Ntp904
Rp905
(dp906
g848
g572
sg284
g285
sg849
g633
sbag0
(g844
g2
Ntp907
Rp908
(dp909
g848
g633
sg284
g285
sg849
g636
sbag0
(g844
g2
Ntp910
Rp911
(dp912
g848
g636
sg284
g285
sg849
g639
sbag0
(g844
g2
Ntp913
Rp914
(dp915
g848
g636
sg284
g285
sg849
g642
sbag0
(g844
g2
Ntp916
Rp917
(dp918
g848
g636
sg284
g285
sg849
g645
sbag0
(g844
g2
Ntp919
Rp920
(dp921
g848
g636
sg284
g285
sg849
g648
sbag0
(g844
g2
Ntp922
Rp923
(dp924
g848
g636
sg284
g285
sg849
g651
sbag0
(g844
g2
Ntp925
Rp926
(dp927
g848
g633
sg284
g285
sg849
g654
sbag0
(g844
g2
Ntp928
Rp929
(dp930
g848
g654
sg284
g285
sg849
g657
sbag0
(g844
g2
Ntp931
Rp932
(dp933
g848
g654
sg284
g285
sg849
g660
sbag0
(g844
g2
Ntp934
Rp935
(dp936
g848
g654
sg284
g285
sg849
g663
sbag0
(g844
g2
Ntp937
Rp938
(dp939
g848
g633
sg284
g285
sg849
g666
sbag0
(g844
g2
Ntp940
Rp941
(dp942
g848
g666
sg284
g285
sg849
g669
sbag0
(g844
g2
Ntp943
Rp944
(dp945
g848
g666
sg284
g285
sg849
g672
sbag0
(g844
g2
Ntp946
Rp947
(dp948
g848
g572
sg284
g285
sg849
g675
sbag0
(g844
g2
Ntp949
Rp950
(dp951
g848
g675
sg284
g285
sg849
g678
sbag0
(g844
g2
Ntp952
Rp953
(dp954
g848
g678
sg284
g285
sg849
g681
sbag0
(g844
g2
Ntp955
Rp956
(dp957
g848
g678
sg284
g285
sg849
g684
sbag0
(g844
g2
Ntp958
Rp959
(dp960
g848
g678
sg284
g285
sg849
g687
sbag0
(g844
g2
Ntp961
Rp962
(dp963
g848
g678
sg284
g285
sg849
g690
sbag0
(g844
g2
Ntp964
Rp965
(dp966
g848
g678
sg284
g285
sg849
g693
sbag0
(g844
g2
Ntp967
Rp968
(dp969
g848
g693
sg284
g285
sg849
g696
sbag0
(g844
g2
Ntp970
Rp971
(dp972
g848
g696
sg284
g285
sg849
g699
sbag0
(g844
g2
Ntp973
Rp974
(dp975
g848
g693
sg284
g285
sg849
g702
sbag0
(g844
g2
Ntp976
Rp977
(dp978
g848
g702
sg284
g285
sg849
g699
sbag0
(g844
g2
Ntp979
Rp980
(dp981
g848
g675
sg284
g285
sg849
g705
sbag0
(g844
g2
Ntp982
Rp983
(dp984
g848
g705
sg284
g285
sg849
g708
sbag0
(g844
g2
Ntp985
Rp986
(dp987
g848
g708
sg284
g285
sg849
g711
sbag0
(g844
g2
Ntp988
Rp989
(dp990
g848
g708
sg284
g285
sg849
g714
sbag0
(g844
g2
Ntp991
Rp992
(dp993
g848
g705
sg284
g285
sg849
g717
sbag0
(g844
g2
Ntp994
Rp995
(dp996
g848
g717
sg284
g285
sg849
g720
sbag0
(g844
g2
Ntp997
Rp998
(dp999
g848
g675
sg284
g285
sg849
g723
sbag0
(g844
g2
Ntp1000
Rp1001
(dp1002
g848
g675
sg284
g285
sg849
g726
sbag0
(g844
g2
Ntp1003
Rp1004
(dp1005
g848
g726
sg284
g285
sg849
g681
sbag0
(g844
g2
Ntp1006
Rp1007
(dp1008
g848
g726
sg284
g285
sg849
g690
sbag0
(g844
g2
Ntp1009
Rp1010
(dp1011
g848
g572
sg284
g285
sg849
g729
sbag0
(g844
g2
Ntp1012
Rp1013
(dp1014
g848
g572
sg284
g285
sg849
g732
sbag0
(g844
g2
Ntp1015
Rp1016
(dp1017
g848
g732
sg284
g285
sg849
g735
sbag0
(g844
g2
Ntp1018
Rp1019
(dp1020
g848
g735
sg284
g285
sg849
g738
sbag0
(g844
g2
Ntp1021
Rp1022
(dp1023
g848
g735
sg284
g285
sg849
g741
sbag0
(g844
g2
Ntp1024
Rp1025
(dp1026
g848
g732
sg284
g285
sg849
g744
sbag0
(g844
g2
Ntp1027
Rp1028
(dp1029
g848
g744
sg284
g285
sg849
g747
sbag0
(g844
g2
Ntp1030
Rp1031
(dp1032
g848
g747
sg284
g285
sg849
g750
sbag0
(g844
g2
Ntp1033
Rp1034
(dp1035
g848
g747
sg284
g285
sg849
g753
sbag0
(g844
g2
Ntp1036
Rp1037
(dp1038
g848
g747
sg284
g285
sg849
g756
sbag0
(g844
g2
Ntp1039
Rp1040
(dp1041
g848
g747
sg284
g285
sg849
g759
sbag0
(g844
g2
Ntp1042
Rp1043
(dp1044
g848
g747
sg284
g285
sg849
g762
sbag0
(g844
g2
Ntp1045
Rp1046
(dp1047
g848
g747
sg284
g285
sg849
g765
sbag0
(g844
g2
Ntp1048
Rp1049
(dp1050
g848
g747
sg284
g285
sg849
g768
sbag0
(g844
g2
Ntp1051
Rp1052
(dp1053
g848
g747
sg284
g285
sg849
g771
sbag0
(g844
g2
Ntp1054
Rp1055
(dp1056
g848
g771
sg284
g285
sg849
g774
sbag0
(g844
g2
Ntp1057
Rp1058
(dp1059
g848
g771
sg284
g285
sg849
g777
sbag0
(g844
g2
Ntp1060
Rp1061
(dp1062
g848
g771
sg284
g285
sg849
g780
sbag0
(g844
g2
Ntp1063
Rp1064
(dp1065
g848
g771
sg284
g285
sg849
g783
sbag0
(g844
g2
Ntp1066
Rp1067
(dp1068
g848
g744
sg284
g285
sg849
g738
sbag0
(g844
g2
Ntp1069
Rp1070
(dp1071
g848
g738
sg284
g285
sg849
g786
sbag0
(g844
g2
Ntp1072
Rp1073
(dp1074
g848
g738
sg284
g285
sg849
g789
sbag0
(g844
g2
Ntp1075
Rp1076
(dp1077
g848
g738
sg284
g285
sg849
g792
sbag0
(g844
g2
Ntp1078
Rp1079
(dp1080
g848
g744
sg284
g285
sg849
g741
sbag0
(g844
g2
Ntp1081
Rp1082
(dp1083
g848
g741
sg284
g285
sg849
g795
sbag0
(g844
g2
Ntp1084
Rp1085
(dp1086
g848
g741
sg284
g285
sg849
g798
sbag0
(g844
g2
Ntp1087
Rp1088
(dp1089
g848
g741
sg284
g285
sg849
g801
sbag0
(g844
g2
Ntp1090
Rp1091
(dp1092
g848
g741
sg284
g285
sg849
g804
sbag0
(g844
g2
Ntp1093
Rp1094
(dp1095
g848
g741
sg284
g285
sg849
g807
sbag0
(g844
g2
Ntp1096
Rp1097
(dp1098
g848
g741
sg284
g285
sg849
g810
sbag0
(g844
g2
Ntp1099
Rp1100
(dp1101
g848
g741
sg284
g285
sg849
g813
sbag0
(g844
g2
Ntp1102
Rp1103
(dp1104
g848
g741
sg284
g285
sg849
g816
sbag0
(g844
g2
Ntp1105
Rp1106
(dp1107
g848
g741
sg284
g285
sg849
g819
sbag0
(g844
g2
Ntp1108
Rp1109
(dp1110
g848
g741
sg284
g285
sg849
g822
sbag0
(g844
g2
Ntp1111
Rp1112
(dp1113
g848
g741
sg284
g285
sg849
g825
sbag0
(g844
g2
Ntp1114
Rp1115
(dp1116
g848
g732
sg284
g285
sg849
g828
sbag0
(g844
g2
Ntp1117
Rp1118
(dp1119
g848
g828
sg284
g285
sg849
g831
sbag0
(g844
g2
Ntp1120
Rp1121
(dp1122
g848
g828
sg284
g285
sg849
g834
sbag0
(g844
g2
Ntp1123
Rp1124
(dp1125
g848
g732
sg284
g285
sg849
g837
sbag0
(g844
g2
Ntp1126
Rp1127
(dp1128
g848
g837
sg284
g285
sg849
g795
sbag0
(g844
g2
Ntp1129
Rp1130
(dp1131
g848
g837
sg284
g285
sg849
g825
sbag0
(g844
g2
Ntp1132
Rp1133
(dp1134
g848
g732
sg284
g285
sg849
g840
sbag0
(g844
g2
Ntp1135
Rp1136
(dp1137
g848
g840
sg284
g285
sg849
g810
sbag0
(g844
g2
Ntp1138
Rp1139
(dp1140
g848
g840
sg284
g285
sg849
g816
sbag0
(g844
g2
Ntp1141
Rp1142
(dp1143
g848
g840
sg284
g285
sg849
g798
sbasS'neutral'
p1144
g79
sbsg574
I1
sg57
g73
sbssS'model'
p1145
Nsg574
I9
sS'LTM'
p1146
g53
sS'init_act'
p1147
F1.0
sbag0
(clanguage_schemas
CPT_ACTION_SCHEMA
p1148
g2
Ntp1149
Rp1150
(dp1151
g57
g98
sg74
(dp1152
g76
g576
ssg1145
Nsg574
I10
sg1146
g53
sg1147
F1.0
sbag0
(g1148
g2
Ntp1153
Rp1154
(dp1155
g57
g100
sg74
(dp1156
g76
g579
ssg1145
Nsg574
I11
sg1146
g53
sg1147
F1.0
sbag0
(g1148
g2
Ntp1157
Rp1158
(dp1159
g57
g102
sg74
(dp1160
g76
g582
ssg1145
Nsg574
I12
sg1146
g53
sg1147
F1.0
sbag0
(g1148
g2
Ntp1161
Rp1162
(dp1163
g57
g104
sg74
(dp1164
g76
g585
ssg1145
Nsg574
I13
sg1146
g53
sg1147
F1.0
sbag0
(g1148
g2
Ntp1165
Rp1166
(dp1167
g57
g106
sg74
(dp1168
g76
g588
ssg1145
Nsg574
I14
sg1146
g53
sg1147
F1.0
sbag0
(g1148
g2
Ntp1169
Rp1170
(dp1171
g57
g108
sg74
(dp1172
g76
g591
ssg1145
Nsg574
I15
sg1146
g53
sg1147
F1.0
sbag0
(g1148
g2
Ntp1173
Rp1174
(dp1175
g57
g110
sg74
(dp1176
g76
g594
ssg1145
Nsg574
I16
sg1146
g53
sg1147
F1.0
sbag0
(g1148
g2
Ntp1177
Rp1178
(dp1179
g57
g112
sg74
(dp1180
g76
g597
ssg1145
Nsg574
I17
sg1146
g53
sg1147
F1.0
sbag0
(g1148
g2
Ntp1181
Rp1182
(dp1183
g57
g114
sg74
(dp1184
g76
g600
ssg1145
Nsg574
I18
sg1146
g53
sg1147
F1.0
sbag0
(g1148
g2
Ntp1185
Rp1186
(dp1187
g57
g116
sg74
(dp1188
g76
g603
ssg1145
Nsg574
I19
sg1146
g53
sg1147
F1.0
sbag0
(g1148
g2
Ntp1189
Rp1190
(dp1191
g57
g118
sg74
(dp1192
g76
g606
ssg1145
Nsg574
I20
sg1146
g53
sg1147
F1.0
sbag0
(g1148
g2
Ntp1193
Rp1194
(dp1195
g57
g120
sg74
(dp1196
g76
g609
ssg1145
Nsg574
I21
sg1146
g53
sg1147
F1.0
sbag0
(g1148
g2
Ntp1197
Rp1198
(dp1199
g57
g122
sg74
(dp1200
g76
g612
ssg1145
Nsg574
I22
sg1146
g53
sg1147
F1.0
sbag0
(g1148
g2
Ntp1201
Rp1202
(dp1203
g57
g124
sg74
(dp1204
g76
g615
ssg1145
Nsg574
I23
sg1146
g53
sg1147
F1.0
sbag0
(g1148
g2
Ntp1205
Rp1206
(dp1207
g57
g126
sg74
(dp1208
g76
g618
ssg1145
Nsg574
I24
sg1146
g53
sg1147
F1.0
sbag0
(g1148
g2
Ntp1209
Rp1210
(dp1211
g57
g128
sg74
(dp1212
g76
g621
ssg1145
Nsg574
I25
sg1146
g53
sg1147
F1.0
sbag0
(g1148
g2
Ntp1213
Rp1214
(dp1215
g57
g130
sg74
(dp1216
g76
g624
ssg1145
Nsg574
I26
sg1146
g53
sg1147
F1.0
sbag0
(g1148
g2
Ntp1217
Rp1218
(dp1219
g57
g132
sg74
(dp1220
g76
g627
ssg1145
Nsg574
I27
sg1146
g53
sg1147
F1.0
sbag0
(g1148
g2
Ntp1221
Rp1222
(dp1223
g57
g134
sg74
(dp1224
g76
g630
ssg1145
Nsg574
I28
sg1146
g53
sg1147
F1.0
sbag0
(clanguage_schemas
CPT_PROPERTY_SCHEMA
p1225
g2
Ntp1226
Rp1227
(dp1228
g57
g136
sg74
(dp1229
g76
g633
ssg1145
Nsg574
I29
sg1146
g53
sg1147
F1.0
sbag0
(g1225
g2
Ntp1230
Rp1231
(dp1232
g57
g138
sg74
(dp1233
g76
g636
ssg1145
Nsg574
I30
sg1146
g53
sg1147
F1.0
sbag0
(g1225
g2
Ntp1234
Rp1235
(dp1236
g57
g140
sg74
(dp1237
g76
g639
ssg1145
Nsg574
I31
sg1146
g53
sg1147
F1.0
sbag0
(g1225
g2
Ntp1238
Rp1239
(dp1240
g57
g142
sg74
(dp1241
g76
g642
ssg1145
Nsg574
I32
sg1146
g53
sg1147
F1.0
sbag0
(g1225
g2
Ntp1242
Rp1243
(dp1244
g57
g144
sg74
(dp1245
g76
g645
ssg1145
Nsg574
I33
sg1146
g53
sg1147
F1.0
sbag0
(g1225
g2
Ntp1246
Rp1247
(dp1248
g57
g146
sg74
(dp1249
g76
g648
ssg1145
Nsg574
I34
sg1146
g53
sg1147
F1.0
sbag0
(g1225
g2
Ntp1250
Rp1251
(dp1252
g57
g148
sg74
(dp1253
g76
g651
ssg1145
Nsg574
I35
sg1146
g53
sg1147
F1.0
sbag0
(g1225
g2
Ntp1254
Rp1255
(dp1256
g57
g150
sg74
(dp1257
g76
g654
ssg1145
Nsg574
I36
sg1146
g53
sg1147
F1.0
sbag0
(g1225
g2
Ntp1258
Rp1259
(dp1260
g57
g152
sg74
(dp1261
g76
g657
ssg1145
Nsg574
I37
sg1146
g53
sg1147
F1.0
sbag0
(g1225
g2
Ntp1262
Rp1263
(dp1264
g57
g154
sg74
(dp1265
g76
g660
ssg1145
Nsg574
I38
sg1146
g53
sg1147
F1.0
sbag0
(g1225
g2
Ntp1266
Rp1267
(dp1268
g57
g156
sg74
(dp1269
g76
g663
ssg1145
Nsg574
I39
sg1146
g53
sg1147
F1.0
sbag0
(g1225
g2
Ntp1270
Rp1271
(dp1272
g57
g158
sg74
(dp1273
g76
g666
ssg1145
Nsg574
I40
sg1146
g53
sg1147
F1.0
sbag0
(g1225
g2
Ntp1274
Rp1275
(dp1276
g57
g160
sg74
(dp1277
g76
g669
ssg1145
Nsg574
I41
sg1146
g53
sg1147
F1.0
sbag0
(g1225
g2
Ntp1278
Rp1279
(dp1280
g57
g162
sg74
(dp1281
g76
g672
ssg1145
Nsg574
I42
sg1146
g53
sg1147
F1.0
sbag0
(clanguage_schemas
CPT_RELATION_SCHEMA
p1282
g2
Ntp1283
Rp1284
(dp1285
g57
g164
sg74
(dp1286
g848
Nsg76
g675
sg849
Nssg1145
Nsg574
I43
sg1146
g53
sg1147
F1.0
sbag0
(g1282
g2
Ntp1287
Rp1288
(dp1289
g57
g166
sg74
(dp1290
g848
Nsg76
g678
sg849
Nssg1145
Nsg574
I44
sg1146
g53
sg1147
F1.0
sbag0
(g1282
g2
Ntp1291
Rp1292
(dp1293
g57
g168
sg74
(dp1294
g848
Nsg76
g681
sg849
Nssg1145
Nsg574
I45
sg1146
g53
sg1147
F1.0
sbag0
(g1282
g2
Ntp1295
Rp1296
(dp1297
g57
g170
sg74
(dp1298
g848
Nsg76
g684
sg849
Nssg1145
Nsg574
I46
sg1146
g53
sg1147
F1.0
sbag0
(g1282
g2
Ntp1299
Rp1300
(dp1301
g57
g172
sg74
(dp1302
g848
Nsg76
g687
sg849
Nssg1145
Nsg574
I47
sg1146
g53
sg1147
F1.0
sbag0
(g1282
g2
Ntp1303
Rp1304
(dp1305
g57
g174
sg74
(dp1306
g848
Nsg76
g690
sg849
Nssg1145
Nsg574
I48
sg1146
g53
sg1147
F1.0
sbag0
(g1282
g2
Ntp1307
Rp1308
(dp1309
g57
g176
sg74
(dp1310
g848
Nsg76
g693
sg849
Nssg1145
Nsg574
I49
sg1146
g53
sg1147
F1.0
sbag0
(g1282
g2
Ntp1311
Rp1312
(dp1313
g57
g178
sg74
(dp1314
g848
Nsg76
g696
sg849
Nssg1145
Nsg574
I50
sg1146
g53
sg1147
F1.0
sbag0
(g1282
g2
Ntp1315
Rp1316
(dp1317
g57
g180
sg74
(dp1318
g848
Nsg76
g699
sg849
Nssg1145
Nsg574
I51
sg1146
g53
sg1147
F1.0
sbag0
(g1282
g2
Ntp1319
Rp1320
(dp1321
g57
g182
sg74
(dp1322
g848
Nsg76
g702
sg849
Nssg1145
Nsg574
I52
sg1146
g53
sg1147
F1.0
sbag0
(g1282
g2
Ntp1323
Rp1324
(dp1325
g57
g184
sg74
(dp1326
g848
Nsg76
g705
sg849
Nssg1145
Nsg574
I53
sg1146
g53
sg1147
F1.0
sbag0
(g1282
g2
Ntp1327
Rp1328
(dp1329
g57
g186
sg74
(dp1330
g848
Nsg76
g708
sg849
Nssg1145
Nsg574
I54
sg1146
g53
sg1147
F1.0
sbag0
(g1282
g2
Ntp1331
Rp1332
(dp1333
g57
g188
sg74
(dp1334
g848
Nsg76
g711
sg849
Nssg1145
Nsg574
I55
sg1146
g53
sg1147
F1.0
sbag0
(g1282
g2
Ntp1335
Rp1336
(dp1337
g57
g190
sg74
(dp1338
g848
Nsg76
g714
sg849
Nssg1145
Nsg574
I56
sg1146
g53
sg1147
F1.0
sbag0
(g1282
g2
Ntp1339
Rp1340
(dp1341
g57
g192
sg74
(dp1342
g848
Nsg76
g717
sg849
Nssg1145
Nsg574
I57
sg1146
g53
sg1147
F1.0
sbag0
(g1282
g2
Ntp1343
Rp1344
(dp1345
g57
g194
sg74
(dp1346
g848
Nsg76
g720
sg849
Nssg1145
Nsg574
I58
sg1146
g53
sg1147
F1.0
sbag0
(g1282
g2
Ntp1347
Rp1348
(dp1349
g57
g196
sg74
(dp1350
g848
Nsg76
g723
sg849
Nssg1145
Nsg574
I59
sg1146
g53
sg1147
F1.0
sbag0
(g1282
g2
Ntp1351
Rp1352
(dp1353
g57
g198
sg74
(dp1354
g848
Nsg76
g726
sg849
Nssg1145
Nsg574
I60
sg1146
g53
sg1147
F1.0
sbag0
(g69
g2
Ntp1355
Rp1356
(dp1357
g57
g200
sg74
(dp1358
g76
g729
ssg1145
Nsg574
I61
sg1146
g53
sg1147
F1.0
sbag0
(clanguage_schemas
CPT_ENTITY_SCHEMA
p1359
g2
Ntp1360
Rp1361
(dp1362
g57
g202
sg74
(dp1363
g76
g732
ssg1145
Nsg574
I62
sg1146
g53
sg1147
F1.0
sbag0
(g1359
g2
Ntp1364
Rp1365
(dp1366
g57
g204
sg74
(dp1367
g76
g735
ssg1145
Nsg574
I63
sg1146
g53
sg1147
F1.0
sbag0
(g1359
g2
Ntp1368
Rp1369
(dp1370
g57
g206
sg74
(dp1371
g76
g738
ssg1145
Nsg574
I64
sg1146
g53
sg1147
F1.0
sbag0
(g1359
g2
Ntp1372
Rp1373
(dp1374
g57
g208
sg74
(dp1375
g76
g741
ssg1145
Nsg574
I65
sg1146
g53
sg1147
F1.0
sbag0
(g1359
g2
Ntp1376
Rp1377
(dp1378
g57
g210
sg74
(dp1379
g76
g744
ssg1145
Nsg574
I66
sg1146
g53
sg1147
F1.0
sbag0
(g1359
g2
Ntp1380
Rp1381
(dp1382
g57
g212
sg74
(dp1383
g76
g747
ssg1145
Nsg574
I67
sg1146
g53
sg1147
F1.0
sbag0
(g1359
g2
Ntp1384
Rp1385
(dp1386
g57
g214
sg74
(dp1387
g76
g750
ssg1145
Nsg574
I68
sg1146
g53
sg1147
F1.0
sbag0
(g1359
g2
Ntp1388
Rp1389
(dp1390
g57
g216
sg74
(dp1391
g76
g753
ssg1145
Nsg574
I69
sg1146
g53
sg1147
F1.0
sbag0
(g1359
g2
Ntp1392
Rp1393
(dp1394
g57
g218
sg74
(dp1395
g76
g756
ssg1145
Nsg574
I70
sg1146
g53
sg1147
F1.0
sbag0
(g1359
g2
Ntp1396
Rp1397
(dp1398
g57
g220
sg74
(dp1399
g76
g759
ssg1145
Nsg574
I71
sg1146
g53
sg1147
F1.0
sbag0
(g1359
g2
Ntp1400
Rp1401
(dp1402
g57
g222
sg74
(dp1403
g76
g762
ssg1145
Nsg574
I72
sg1146
g53
sg1147
F1.0
sbag0
(g1359
g2
Ntp1404
Rp1405
(dp1406
g57
g224
sg74
(dp1407
g76
g765
ssg1145
Nsg574
I73
sg1146
g53
sg1147
F1.0
sbag0
(g1359
g2
Ntp1408
Rp1409
(dp1410
g57
g226
sg74
(dp1411
g76
g768
ssg1145
Nsg574
I74
sg1146
g53
sg1147
F1.0
sbag0
(g1359
g2
Ntp1412
Rp1413
(dp1414
g57
g228
sg74
(dp1415
g76
g771
ssg1145
Nsg574
I75
sg1146
g53
sg1147
F1.0
sbag0
(g1359
g2
Ntp1416
Rp1417
(dp1418
g57
g230
sg74
(dp1419
g76
g774
ssg1145
Nsg574
I76
sg1146
g53
sg1147
F1.0
sbag0
(g1359
g2
Ntp1420
Rp1421
(dp1422
g57
g232
sg74
(dp1423
g76
g777
ssg1145
Nsg574
I77
sg1146
g53
sg1147
F1.0
sbag0
(g1359
g2
Ntp1424
Rp1425
(dp1426
g57
g234
sg74
(dp1427
g76
g780
ssg1145
Nsg574
I78
sg1146
g53
sg1147
F1.0
sbag0
(g1359
g2
Ntp1428
Rp1429
(dp1430
g57
g236
sg74
(dp1431
g76
g783
ssg1145
Nsg574
I79
sg1146
g53
sg1147
F1.0
sbag0
(g1359
g2
Ntp1432
Rp1433
(dp1434
g57
g238
sg74
(dp1435
g76
g786
ssg1145
Nsg574
I80
sg1146
g53
sg1147
F1.0
sbag0
(g1359
g2
Ntp1436
Rp1437
(dp1438
g57
g240
sg74
(dp1439
g76
g789
ssg1145
Nsg574
I81
sg1146
g53
sg1147
F1.0
sbag0
(g1359
g2
Ntp1440
Rp1441
(dp1442
g57
g242
sg74
(dp1443
g76
g792
ssg1145
Nsg574
I82
sg1146
g53
sg1147
F1.0
sbag0
(g1359
g2
Ntp1444
Rp1445
(dp1446
g57
g244
sg74
(dp1447
g76
g795
ssg1145
Nsg574
I83
sg1146
g53
sg1147
F1.0
sbag0
(g1359
g2
Ntp1448
Rp1449
(dp1450
g57
g246
sg74
(dp1451
g76
g798
ssg1145
Nsg574
I84
sg1146
g53
sg1147
F1.0
sbag0
(g1359
g2
Ntp1452
Rp1453
(dp1454
g57
g248
sg74
(dp1455
g76
g801
ssg1145
Nsg574
I85
sg1146
g53
sg1147
F1.0
sbag0
(g1359
g2
Ntp1456
Rp1457
(dp1458
g57
g250
sg74
(dp1459
g76
g804
ssg1145
Nsg574
I86
sg1146
g53
sg1147
F1.0
sbag0
(g1359
g2
Ntp1460
Rp1461
(dp1462
g57
g252
sg74
(dp1463
g76
g807
ssg1145
Nsg574
I87
sg1146
g53
sg1147
F1.0
sbag0
(g1359
g2
Ntp1464
Rp1465
(dp1466
g57
g254
sg74
(dp1467
g76
g810
ssg1145
Nsg574
I88
sg1146
g53
sg1147
F1.0
sbag0
(g1359
g2
Ntp1468
Rp1469
(dp1470
g57
g256
sg74
(dp1471
g76
g813
ssg1145
Nsg574
I89
sg1146
g53
sg1147
F1.0
sbag0
(g1359
g2
Ntp1472
Rp1473
(dp1474
g57
g258
sg74
(dp1475
g76
g816
ssg1145
Nsg574
I90
sg1146
g53
sg1147
F1.0
sbag0
(g1359
g2
Ntp1476
Rp1477
(dp1478
g57
g260
sg74
(dp1479
g76
g819
ssg1145
Nsg574
I91
sg1146
g53
sg1147
F1.0
sbag0
(g1359
g2
Ntp1480
Rp1481
(dp1482
g57
g262
sg74
(dp1483
g76
g822
ssg1145
Nsg574
I92
sg1146
g53
sg1147
F1.0
sbag0
(g1359
g2
Ntp1484
Rp1485
(dp1486
g57
g264
sg74
(dp1487
g76
g825
ssg1145
Nsg574
I93
sg1146
g53
sg1147
F1.0
sbag0
(g1359
g2
Ntp1488
Rp1489
(dp1490
g57
g266
sg74
(dp1491
g76
g828
ssg1145
Nsg574
I94
sg1146
g53
sg1147
F1.0
sbag0
(g1359
g2
Ntp1492
Rp1493
(dp1494
g57
g268
sg74
(dp1495
g76
g831
ssg1145
Nsg574
I95
sg1146
g53
sg1147
F1.0
sbag0
(g1359
g2
Ntp1496
Rp1497
(dp1498
g57
g270
sg74
(dp1499
g76
g834
ssg1145
Nsg574
I96
sg1146
g53
sg1147
F1.0
sbag0
(g1359
g2
Ntp1500
Rp1501
(dp1502
g57
g272
sg74
(dp1503
g76
g837
ssg1145
Nsg574
I97
sg1146
g53
sg1147
F1.0
sbag0
(g1359
g2
Ntp1504
Rp1505
(dp1506
g57
g274
sg74
(dp1507
g76
g840
ssg1145
Nsg574
I98
sg1146
g53
sg1147
F1.0
sbasg284
S'OUT'
p1508
sg574
I11
sS'schema'
p1509
g53
sbag0
(g61
g2
Ntp1510
Rp1511
(dp1512
g57
S'to_semantic_WM'
p1513
sg66
Nsg67
g68
sg284
g1508
sg574
I12
sg1509
g53
sbasS'outputs'
p1514
(dp1515
g65
Nsg1513
NssS'connections'
p1516
(lp1517
sS'cpt_knowledge'
p1518
g85
sS'dt'
p1519
F1.0
sS'in_ports'
p1520
(lp1521
sS'params'
p1522
(dp1523
g1147
F1.0
ssS't'
p1524
I0
sS'activity'
p1525
I0
sg1145
g0
(cschema_theory
MODEL
p1526
g2
Ntp1527
Rp1528
(dp1529
S'verbose'
p1530
I00
sg57
S'language_system_P'
p1531
sS'sim_data'
p1532
(dp1533
S'system_states'
p1534
(dp1535
sg1145
(dp1536
ssg1514
(dp1537
sS'input_ports'
p1538
(lp1539
g0
(g61
g2
Ntp1540
Rp1541
(dp1542
g57
S'from_conceptualizer'
p1543
sg66
Nsg67
Nsg284
S'IN'
p1544
sg574
I1
sg1509
g0
(clanguage_schemas
SEMANTIC_WM
p1545
g2
Ntp1546
Rp1547
(dp1548
g55
(dp1549
S'from_grammatical_WM_P'
p1550
NsS'from_concept_LTM'
p1551
NsS'from_control'
p1552
NsS'from_grammatical_WM_C'
p1553
Nsg1543
NssS'schema_insts'
p1554
(lp1555
sg57
S'Semantic_WM'
p1556
sS'comp_links'
p1557
(lp1558
sg59
(lp1559
g0
(g61
g2
Ntp1560
Rp1561
(dp1562
S'port_data'
p1563
Nsg57
S'to_grammatical_WM_P'
p1564
sg66
Nsg67
NsS'port_value'
p1565
Nsg284
g1508
sg574
I6
sg1509
g1547
sbag0
(g61
g2
Ntp1566
Rp1567
(dp1568
g1563
Nsg57
S'to_cxn_retrieval_P'
p1569
sg66
Nsg67
Nsg1565
Nsg284
g1508
sg574
I7
sg1509
g1547
sbag0
(g61
g2
Ntp1570
Rp1571
(dp1572
g1563
Nsg57
S'to_control'
p1573
sg66
Nsg67
Nsg1565
Nsg284
g1508
sg574
I8
sg1509
g1547
sbag0
(g61
g2
Ntp1574
Rp1575
(dp1576
g57
S'to_visual_WM'
p1577
sg66
Nsg67
Nsg284
g1508
sg574
I9
sg1509
g1547
sbag0
(g61
g2
Ntp1578
Rp1579
(dp1580
g57
S'to_output'
p1581
sg66
Nsg67
Nsg284
g1508
sg574
I10
sg1509
g1547
sbasg1514
(dp1582
g1581
Nsg1564
Nsg1577
Nsg1569
Nsg1573
Nssg1519
F1.0
sS'coop_links'
p1583
(lp1584
sg1520
(lp1585
g1541
ag0
(g61
g2
Ntp1586
Rp1587
(dp1588
g57
g1551
sg66
Nsg67
Nsg284
g1544
sg574
I2
sg1509
g1547
sbag0
(g61
g2
Ntp1589
Rp1590
(dp1591
g57
g1553
sg66
Nsg67
Nsg284
g1544
sg574
I3
sg1509
g1547
sbag0
(g61
g2
Ntp1592
Rp1593
(dp1594
g1563
Nsg57
g1550
sg66
Nsg67
Nsg1565
Nsg284
g1544
sg574
I4
sg1509
g1547
sbag0
(g61
g2
Ntp1595
Rp1596
(dp1597
g1563
Nsg57
g1552
sg66
Nsg67
S'produce'
p1598
sg1565
Nsg284
g1544
sg574
I5
sg1509
g1547
sbasS'save_state'
p1599
(dp1600
S'insts'
p1601
(dp1602
sS'WM_activity'
p1603
(dp1604
S'comp'
p1605
(lp1606
sS'c2_network'
p1607
(dp1608
S'num_insts'
p1609
(lp1610
sS'num_coop_links'
p1611
(lp1612
sS'num_comp_links'
p1613
(lp1614
ssS'coop'
p1615
(lp1616
sg1524
(lp1617
sS'act'
p1618
(lp1619
sssg1522
(dp1620
S'C2'
p1621
(dp1622
S'P_comp'
p1623
F1.0
sS'comp_weight'
p1624
F0.0
sS'P_coop'
p1625
F1.0
sS'coop_asymmetry'
p1626
F1.0
sS'coop_weight'
p1627
F0.0
sS'confidence_threshold'
p1628
F0.0
sS'comp_asymmetry'
p1629
F0.0
sS'prune_threshold'
p1630
F0.01
ssS'dyn'
p1631
(dp1632
S'tau'
p1633
F10000.0
sS'k'
p1634
F10.0
sS'act_rest'
p1635
F0.001
sS'noise_mean'
p1636
F0.0
sS'noise_std'
p1637
F1.0
sS'ext_weight'
p1638
F1.0
sS'int_weight'
p1639
F1.0
sssg1524
I0
sg1525
I0
sg1145
g1528
sS'SemRep'
p1640
g0
(g88
g2
Ntp1641
Rp1642
(dp1643
g92
(dp1644
sg275
g276
sg277
g276
sg278
(dp1645
sg472
g1645
sg87
(dp1646
sg474
g276
sg475
g1645
sg476
(dp1647
sbsg574
I1
sbsbasS'brain_mapping'
p1648
g0
(cschema_theory
BRAIN_MAPPING
p1649
g2
Ntp1650
Rp1651
(dp1652
S'schema_mapping'
p1653
(dp1654
S'Control'
p1655
(lp1656
S'DLPFC'
p1657
asS'Utter'
p1658
(lp1659
S''
p1660
asg1556
(lp1661
S'left_SFG'
p1662
aS'LIP'
p1663
aS'Hippocampus'
p1664
asS'Phonological_WM_P'
p1665
(lp1666
S'left_BA6'
p1667
asg58
(lp1668
g1660
asS'Grammatical_WM_P'
p1669
(lp1670
S'left_BA45'
p1671
aS'leftBA44'
p1672
asS'Grammatical_LTM'
p1673
(lp1674
S'left_STG'
p1675
aS'left_MTG'
p1676
asS'Cxn_retrieval_P'
p1677
(lp1678
ssS'connect_mapping'
p1679
(dp1680
sbsg1516
(lp1681
g0
(cschema_theory
CONNECT
p1682
g2
Ntp1683
Rp1684
(dp1685
S'delay'
p1686
I0
sg57
g1660
sS'weight'
p1687
I0
sS'port_to'
p1688
g0
(g61
g2
Ntp1689
Rp1690
(dp1691
g1563
Nsg57
S'from_semantic_WM'
p1692
sg66
Nsg67
Nsg1565
Nsg284
g1544
sg574
I23
sg1509
g0
(clanguage_schemas
CXN_RETRIEVAL_P
p1693
g2
Ntp1694
Rp1695
(dp1696
g55
(dp1697
g1692
NsS'from_grammatical_LTM'
p1698
Nssg57
g1677
sg59
(lp1699
g0
(g61
g2
Ntp1700
Rp1701
(dp1702
g1563
Nsg57
g1564
sg66
Nsg67
Nsg1565
Nsg284
g1508
sg574
I24
sg1509
g1695
sbasg1514
(dp1703
g1564
NssS'cxn_instances'
p1704
(lp1705
sg1519
F1.0
sg1520
(lp1706
g0
(g61
g2
Ntp1707
Rp1708
(dp1709
g1563
Nsg57
g1698
sg66
Nsg67
(lp1710
g0
(clanguage_schemas
CXN_SCHEMA
p1711
g2
Ntp1712
Rp1713
(dp1714
g57
VCNJ_AND
p1715
sg74
(iconstruction
CXN
p1716
(dp1717
S'SymLinks'
p1718
(iconstruction
TP_SYMLINKS
p1719
(dp1720
S'SL'
p1721
(dp1722
VEVT1_4
p1723
VS1_6
p1724
sVEVT2_5
p1725
VS3_8
p1726
ssg574
I3
sg57
g1660
sbsS'clss'
p1727
VD
p1728
sS'group'
p1729
I3
sg57
g1715
sS'SemFrame'
p1730
(iconstruction
TP_SEMFRAME
p1731
(dp1732
g87
g0
(g88
g2
Ntp1733
Rp1734
(dp1735
g92
(dp1736
(iconstruction
TP_NODE
p1737
(dp1738
S'head'
p1739
I00
sg76
g729
sg57
g1725
sS'frame'
p1740
I00
sS'focus'
p1741
I00
sg574
I5
sb(dp1742
g1740
I00
sg76
g729
ss(iconstruction
TP_NODE
p1743
(dp1744
g1739
I00
sg76
g729
sg57
g1723
sg1740
I00
sg1741
I01
sg574
I4
sb(dp1745
g1740
I00
sg76
g729
sssg275
g276
sg277
g276
sg278
(dp1746
g1737
(dp1747
sg1743
(dp1748
ssg472
g1746
sg87
(dp1749
sg474
g276
sg475
g1746
sg476
(dp1750
g1737
(dp1751
sg1743
(dp1752
ssbsg569
(lp1753
g1743
ag1737
asg842
(lp1754
sg574
I1
sg57
g1660
sbsS'SynForm'
p1755
(iconstruction
TP_SYNFORM
p1756
(dp1757
g574
I2
sS'form'
p1758
(lp1759
(iconstruction
TP_SLOT
p1760
(dp1761
S'cxn_classes'
p1762
(lp1763
VS
p1764
asS'order'
p1765
I0
sg574
I6
sg57
g1724
sba(iconstruction
TP_PHON
p1766
(dp1767
S'num_syllables'
p1768
I3
sg1765
I1
sg574
I7
sS'cxn_phonetics'
p1769
Vand
p1770
sg57
VS2_7
p1771
sba(iconstruction
TP_SLOT
p1772
(dp1773
g1762
(lp1774
VS
p1775
asg1765
I2
sg574
I8
sg57
g1726
sbasg57
g1660
sbsS'preference'
p1776
I1
sbsg1145
Nsg574
I99
sg1146
g0
(clanguage_schemas
GRAMMATICAL_LTM
p1777
g2
Ntp1778
Rp1779
(dp1780
g55
(dp1781
sS'grammar'
p1782
(iconstruction
GRAMMAR
p1783
(dp1784
S'constructions'
p1785
(lp1786
g1716
a(iconstruction
CXN
p1787
(dp1788
g1718
(iconstruction
TP_SYMLINKS
p1789
(dp1790
g1721
(dp1791
VEVT2_13
p1792
VS3_17
p1793
sVEVT1_12
p1794
VS1_15
p1795
ssg574
I11
sg57
g1660
sbsg1727
VD
p1796
sg1729
I3
sg57
VCNJ_THEN
p1797
sg1730
(iconstruction
TP_SEMFRAME
p1798
(dp1799
g87
g0
(g88
g2
Ntp1800
Rp1801
(dp1802
g92
(dp1803
(iconstruction
TP_NODE
p1804
(dp1805
g1739
I00
sg76
g729
sg57
g1792
sg1740
I00
sg1741
I00
sg574
I13
sb(dp1806
g1740
I00
sg76
g729
ss(iconstruction
TP_NODE
p1807
(dp1808
g1739
I00
sg76
g729
sg57
g1794
sg1740
I00
sg1741
I00
sg574
I12
sb(dp1809
g1740
I00
sg76
g729
sssg275
g276
sg277
g276
sg278
(dp1810
g1804
(dp1811
sg1807
(dp1812
g1804
(dp1813
g76
g714
ssssg472
g1810
sg87
(dp1814
sg474
g276
sg475
g1810
sg476
(dp1815
g1804
(dp1816
g1807
g1813
ssg1807
(dp1817
ssbsg569
(lp1818
g1807
ag1804
asg842
(lp1819
(iconstruction
TP_REL
p1820
(dp1821
g848
g1804
sg76
g714
sg574
I14
sg849
g1807
sg57
VEVT1_EVT2_14
p1822
sbasg574
I9
sg57
g1660
sbsg1755
(iconstruction
TP_SYNFORM
p1823
(dp1824
g574
I10
sg1758
(lp1825
(iconstruction
TP_SLOT
p1826
(dp1827
g1762
(lp1828
VS
p1829
asg1765
I0
sg574
I15
sg57
g1795
sba(iconstruction
TP_PHON
p1830
(dp1831
g1768
I4
sg1765
I1
sg574
I16
sg1769
Vthen
p1832
sg57
VS2_16
p1833
sba(iconstruction
TP_SLOT
p1834
(dp1835
g1762
(lp1836
VS
p1837
asg1765
I2
sg574
I17
sg57
g1793
sbasg57
g1660
sbsg1776
I1
sba(iconstruction
CXN
p1838
(dp1839
g1718
(iconstruction
TP_SYMLINKS
p1840
(dp1841
g1721
(dp1842
VEVT2_22
p1843
VS3_26
p1844
sVEVT1_21
p1845
VS1_24
p1846
ssg574
I20
sg57
g1660
sbsg1727
VD
p1847
sg1729
I3
sg57
VCNJ_WHILE
p1848
sg1730
(iconstruction
TP_SEMFRAME
p1849
(dp1850
g87
g0
(g88
g2
Ntp1851
Rp1852
(dp1853
g92
(dp1854
(iconstruction
TP_NODE
p1855
(dp1856
g1739
I00
sg76
g729
sg57
g1843
sg1740
I00
sg1741
I00
sg574
I22
sb(dp1857
g1740
I00
sg76
g729
ss(iconstruction
TP_NODE
p1858
(dp1859
g1739
I00
sg76
g729
sg57
g1845
sg1740
I00
sg1741
I01
sg574
I21
sb(dp1860
g1740
I00
sg76
g729
sssg275
g276
sg277
g276
sg278
(dp1861
g1855
(dp1862
sg1858
(dp1863
g1855
(dp1864
g76
g711
ssssg472
g1861
sg87
(dp1865
sg474
g276
sg475
g1861
sg476
(dp1866
g1855
(dp1867
g1858
g1864
ssg1858
(dp1868
ssbsg569
(lp1869
g1858
ag1855
asg842
(lp1870
(iconstruction
TP_REL
p1871
(dp1872
g848
g1855
sg76
g711
sg574
I23
sg849
g1858
sg57
VEVT1_EVT2_23
p1873
sbasg574
I18
sg57
g1660
sbsg1755
(iconstruction
TP_SYNFORM
p1874
(dp1875
g574
I19
sg1758
(lp1876
(iconstruction
TP_SLOT
p1877
(dp1878
g1762
(lp1879
VS
p1880
asg1765
I0
sg574
I24
sg57
g1846
sba(iconstruction
TP_PHON
p1881
(dp1882
g1768
I5
sg1765
I1
sg574
I25
sg1769
Vwhile
p1883
sg57
VS2_25
p1884
sba(iconstruction
TP_SLOT
p1885
(dp1886
g1762
(lp1887
VS
p1888
asg1765
I2
sg574
I26
sg57
g1844
sbasg57
g1660
sbsg1776
I1
sba(iconstruction
CXN
p1889
(dp1890
g1718
(iconstruction
TP_SYMLINKS
p1891
(dp1892
g1721
(dp1893
VACT_31
p1894
VS4_40
p1895
sVACTOR_1_32
p1896
VS1_37
p1897
sVACTOR_2_33
p1898
VS3_39
p1899
ssg574
I29
sg57
g1660
sbsg1727
VS
p1900
sg1729
Nsg57
VSYMMETRIC_TRANS
p1901
sg1730
(iconstruction
TP_SEMFRAME
p1902
(dp1903
g87
g0
(g88
g2
Ntp1904
Rp1905
(dp1906
g92
(dp1907
(iconstruction
TP_NODE
p1908
(dp1909
g1739
I01
sg76
g729
sg57
VEVT_30
p1910
sg1740
I01
sg1741
I00
sg574
I30
sb(dp1911
g1740
I01
sg76
g729
ss(iconstruction
TP_NODE
p1912
(dp1913
g1739
I00
sg76
g732
sg57
g1896
sg1740
I01
sg1741
I01
sg574
I32
sb(dp1914
g1740
I01
sg76
g732
ss(iconstruction
TP_NODE
p1915
(dp1916
g1739
I00
sg76
g576
sg57
g1894
sg1740
I01
sg1741
I00
sg574
I31
sb(dp1917
g1740
I01
sg76
g576
ss(iconstruction
TP_NODE
p1918
(dp1919
g1739
I00
sg76
g732
sg57
g1898
sg1740
I01
sg1741
I00
sg574
I33
sb(dp1920
g1740
I01
sg76
g732
sssg275
g276
sg277
g276
sg278
(dp1921
g1908
(dp1922
g1915
(dp1923
g76
g723
sssg1912
(dp1924
sg1915
(dp1925
g1912
(dp1926
g76
g699
ssg1918
(dp1927
g76
g699
sssg1918
(dp1928
ssg472
g1921
sg87
(dp1929
sg474
g276
sg475
g1921
sg476
(dp1930
g1908
(dp1931
sg1912
(dp1932
g1915
g1926
ssg1915
(dp1933
g1908
g1923
ssg1918
(dp1934
g1915
g1927
sssbsg569
(lp1935
g1908
ag1915
ag1912
ag1918
asg842
(lp1936
(iconstruction
TP_REL
p1937
(dp1938
g848
g1915
sg76
g723
sg574
I34
sg849
g1908
sg57
VIS_34
p1939
sba(iconstruction
TP_REL
p1940
(dp1941
g848
g1912
sg76
g699
sg574
I35
sg849
g1915
sg57
VAGT_PT_1_35
p1942
sba(iconstruction
TP_REL
p1943
(dp1944
g848
g1918
sg76
g699
sg574
I36
sg849
g1915
sg57
VAGT_PT_2_36
p1945
sbasg574
I27
sg57
g1660
sbsg1755
(iconstruction
TP_SYNFORM
p1946
(dp1947
g574
I28
sg1758
(lp1948
(iconstruction
TP_SLOT
p1949
(dp1950
g1762
(lp1951
VNP
p1952
aVN
p1953
asg1765
I0
sg574
I37
sg57
g1897
sba(iconstruction
TP_PHON
p1954
(dp1955
g1768
I3
sg1765
I1
sg574
I38
sg1769
Vand
p1956
sg57
VS2_38
p1957
sba(iconstruction
TP_SLOT
p1958
(dp1959
g1762
(lp1960
VNP
p1961
aVN
p1962
asg1765
I2
sg574
I39
sg57
g1899
sba(iconstruction
TP_SLOT
p1963
(dp1964
g1762
(lp1965
VVP
p1966
aVV
p1967
asg1765
I3
sg574
I40
sg57
g1895
sbasg57
g1660
sbsg1776
I1
sba(iconstruction
CXN
p1968
(dp1969
g1718
(iconstruction
TP_SYMLINKS
p1970
(dp1971
g1721
(dp1972
VAGT_46
p1973
VS1_51
p1974
sVACT_45
p1975
VS2_52
p1976
sVPT_47
p1977
VS3_53
p1978
ssg574
I43
sg57
g1660
sbsg1727
VS
p1979
sg1729
I2
sg57
VSVO
p1980
sg1730
(iconstruction
TP_SEMFRAME
p1981
(dp1982
g87
g0
(g88
g2
Ntp1983
Rp1984
(dp1985
g92
(dp1986
(iconstruction
TP_NODE
p1987
(dp1988
g1739
I01
sg76
g729
sg57
VEVT_44
p1989
sg1740
I01
sg1741
I00
sg574
I44
sb(dp1990
g1740
I01
sg76
g729
ss(iconstruction
TP_NODE
p1991
(dp1992
g1739
I00
sg76
g732
sg57
g1973
sg1740
I01
sg1741
I01
sg574
I46
sb(dp1993
g1740
I01
sg76
g732
ss(iconstruction
TP_NODE
p1994
(dp1995
g1739
I00
sg76
g732
sg57
g1977
sg1740
I01
sg1741
I00
sg574
I47
sb(dp1996
g1740
I01
sg76
g732
ss(iconstruction
TP_NODE
p1997
(dp1998
g1739
I00
sg76
g576
sg57
g1975
sg1740
I01
sg1741
I00
sg574
I45
sb(dp1999
g1740
I01
sg76
g576
sssg275
g276
sg277
g276
sg278
(dp2000
g1987
(dp2001
g1997
(dp2002
g76
g723
sssg1991
(dp2003
sg1994
(dp2004
sg1997
(dp2005
g1991
(dp2006
g76
g702
ssg1994
(dp2007
g76
g696
ssssg472
g2000
sg87
(dp2008
sg474
g276
sg475
g2000
sg476
(dp2009
g1987
(dp2010
sg1991
(dp2011
g1997
g2006
ssg1994
(dp2012
g1997
g2007
ssg1997
(dp2013
g1987
g2002
sssbsg569
(lp2014
g1987
ag1997
ag1991
ag1994
asg842
(lp2015
(iconstruction
TP_REL
p2016
(dp2017
g848
g1997
sg76
g723
sg574
I48
sg849
g1987
sg57
VIS_48
p2018
sba(iconstruction
TP_REL
p2019
(dp2020
g848
g1991
sg76
g702
sg574
I49
sg849
g1997
sg57
VACT_AGT_49
p2021
sba(iconstruction
TP_REL
p2022
(dp2023
g848
g1994
sg76
g696
sg574
I50
sg849
g1997
sg57
VACT_PT_50
p2024
sbasg574
I41
sg57
g1660
sbsg1755
(iconstruction
TP_SYNFORM
p2025
(dp2026
g574
I42
sg1758
(lp2027
(iconstruction
TP_SLOT
p2028
(dp2029
g1762
(lp2030
VNP
p2031
aVN
p2032
asg1765
I0
sg574
I51
sg57
g1974
sba(iconstruction
TP_SLOT
p2033
(dp2034
g1762
(lp2035
VVP
p2036
aVV
p2037
asg1765
I1
sg574
I52
sg57
g1976
sba(iconstruction
TP_SLOT
p2038
(dp2039
g1762
(lp2040
VNP
p2041
aVN
p2042
asg1765
I2
sg574
I53
sg57
g1978
sbasg57
g1660
sbsg1776
I1
sba(iconstruction
CXN
p2043
(dp2044
g1718
(iconstruction
TP_SYMLINKS
p2045
(dp2046
g1721
(dp2047
VPT_60
p2048
VS1_64
p2049
sVACT_58
p2050
VS3_66
p2051
sVAGT_59
p2052
VS6_69
p2053
ssg574
I56
sg57
g1660
sbsg1727
VS
p2054
sg1729
I2
sg57
VPAS_SVO
p2055
sg1730
(iconstruction
TP_SEMFRAME
p2056
(dp2057
g87
g0
(g88
g2
Ntp2058
Rp2059
(dp2060
g92
(dp2061
(iconstruction
TP_NODE
p2062
(dp2063
g1739
I00
sg76
g576
sg57
g2050
sg1740
I01
sg1741
I00
sg574
I58
sb(dp2064
g1740
I01
sg76
g576
ss(iconstruction
TP_NODE
p2065
(dp2066
g1739
I00
sg76
g732
sg57
g2052
sg1740
I01
sg1741
I00
sg574
I59
sb(dp2067
g1740
I01
sg76
g732
ss(iconstruction
TP_NODE
p2068
(dp2069
g1739
I01
sg76
g729
sg57
VEVT_57
p2070
sg1740
I01
sg1741
I00
sg574
I57
sb(dp2071
g1740
I01
sg76
g729
ss(iconstruction
TP_NODE
p2072
(dp2073
g1739
I00
sg76
g732
sg57
g2048
sg1740
I01
sg1741
I01
sg574
I60
sb(dp2074
g1740
I01
sg76
g732
sssg275
g276
sg277
g276
sg278
(dp2075
g2062
(dp2076
g2072
(dp2077
g76
g696
ssg2065
(dp2078
g76
g702
sssg2065
(dp2079
sg2068
(dp2080
g2062
(dp2081
g76
g723
sssg2072
(dp2082
ssg472
g2075
sg87
(dp2083
sg474
g276
sg475
g2075
sg476
(dp2084
g2062
(dp2085
g2068
g2081
ssg2065
(dp2086
g2062
g2078
ssg2068
(dp2087
sg2072
(dp2088
g2062
g2077
sssbsg569
(lp2089
g2068
ag2062
ag2065
ag2072
asg842
(lp2090
(iconstruction
TP_REL
p2091
(dp2092
g848
g2062
sg76
g723
sg574
I61
sg849
g2068
sg57
VIS_61
p2093
sba(iconstruction
TP_REL
p2094
(dp2095
g848
g2065
sg76
g702
sg574
I62
sg849
g2062
sg57
VACT_AGT_62
p2096
sba(iconstruction
TP_REL
p2097
(dp2098
g848
g2072
sg76
g696
sg574
I63
sg849
g2062
sg57
VACT_PT_63
p2099
sbasg574
I54
sg57
g1660
sbsg1755
(iconstruction
TP_SYNFORM
p2100
(dp2101
g574
I55
sg1758
(lp2102
(iconstruction
TP_SLOT
p2103
(dp2104
g1762
(lp2105
VNP
p2106
aVN
p2107
asg1765
I0
sg574
I64
sg57
g2049
sba(iconstruction
TP_PHON
p2108
(dp2109
g1768
I2
sg1765
I1
sg574
I65
sg1769
Vis
p2110
sg57
VS2_65
p2111
sba(iconstruction
TP_SLOT
p2112
(dp2113
g1762
(lp2114
VVP
p2115
aVV
p2116
asg1765
I2
sg574
I66
sg57
g2051
sba(iconstruction
TP_PHON
p2117
(dp2118
g1768
I2
sg1765
I3
sg574
I67
sg1769
V-ed
p2119
sg57
VS4_67
p2120
sba(iconstruction
TP_PHON
p2121
(dp2122
g1768
I2
sg1765
I4
sg574
I68
sg1769
Vby
p2123
sg57
VS5_68
p2124
sba(iconstruction
TP_SLOT
p2125
(dp2126
g1762
(lp2127
VNP
p2128
aVN
p2129
asg1765
I5
sg574
I69
sg57
g2053
sbasg57
g1660
sbsg1776
I1
sba(iconstruction
CXN
p2130
(dp2131
g1718
(iconstruction
TP_SYMLINKS
p2132
(dp2133
g1721
(dp2134
VACT_74
p2135
VS2_83
p2136
sVRCPT_77
p2137
VS3_84
p2138
sVTHEME_76
p2139
VS4_85
p2140
sVAGT_75
p2141
VS1_82
p2142
ssg574
I72
sg57
g1660
sbsg1727
VS
p2143
sg1729
I2
sg57
VDOUBLE_OBJ
p2144
sg1730
(iconstruction
TP_SEMFRAME
p2145
(dp2146
g87
g0
(g88
g2
Ntp2147
Rp2148
(dp2149
g92
(dp2150
(iconstruction
TP_NODE
p2151
(dp2152
g1739
I01
sg76
g729
sg57
VEVT_73
p2153
sg1740
I01
sg1741
I00
sg574
I73
sb(dp2154
g1740
I01
sg76
g729
ss(iconstruction
TP_NODE
p2155
(dp2156
g1739
I00
sg76
g732
sg57
g2141
sg1740
I01
sg1741
I01
sg574
I75
sb(dp2157
g1740
I01
sg76
g732
ss(iconstruction
TP_NODE
p2158
(dp2159
g1739
I00
sg76
g576
sg57
g2135
sg1740
I01
sg1741
I00
sg574
I74
sb(dp2160
g1740
I01
sg76
g576
ss(iconstruction
TP_NODE
p2161
(dp2162
g1739
I00
sg76
g732
sg57
g2137
sg1740
I01
sg1741
I00
sg574
I77
sb(dp2163
g1740
I01
sg76
g732
ss(iconstruction
TP_NODE
p2164
(dp2165
g1739
I00
sg76
g732
sg57
g2139
sg1740
I01
sg1741
I00
sg574
I76
sb(dp2166
g1740
I01
sg76
g732
sssg275
g276
sg277
g276
sg278
(dp2167
g2151
(dp2168
g2158
(dp2169
g76
g723
sssg2155
(dp2170
sg2158
(dp2171
g2155
(dp2172
g76
g702
ssg2161
(dp2173
g76
g687
ssg2164
(dp2174
g76
g684
sssg2161
(dp2175
sg2164
(dp2176
ssg472
g2167
sg87
(dp2177
sg474
g276
sg475
g2167
sg476
(dp2178
g2151
(dp2179
sg2155
(dp2180
g2158
g2172
ssg2158
(dp2181
g2151
g2169
ssg2161
(dp2182
g2158
g2173
ssg2164
(dp2183
g2158
g2174
sssbsg569
(lp2184
g2151
ag2158
ag2155
ag2164
ag2161
asg842
(lp2185
(iconstruction
TP_REL
p2186
(dp2187
g848
g2158
sg76
g723
sg574
I78
sg849
g2151
sg57
VIS_78
p2188
sba(iconstruction
TP_REL
p2189
(dp2190
g848
g2155
sg76
g702
sg574
I79
sg849
g2158
sg57
VACT_AGT_79
p2191
sba(iconstruction
TP_REL
p2192
(dp2193
g848
g2164
sg76
g684
sg574
I80
sg849
g2158
sg57
VACT_THEME_80
p2194
sba(iconstruction
TP_REL
p2195
(dp2196
g848
g2161
sg76
g687
sg574
I81
sg849
g2158
sg57
VACT_RCPT_81
p2197
sbasg574
I70
sg57
g1660
sbsg1755
(iconstruction
TP_SYNFORM
p2198
(dp2199
g574
I71
sg1758
(lp2200
(iconstruction
TP_SLOT
p2201
(dp2202
g1762
(lp2203
VNP
p2204
aVN
p2205
asg1765
I0
sg574
I82
sg57
g2142
sba(iconstruction
TP_SLOT
p2206
(dp2207
g1762
(lp2208
VVP
p2209
aVV
p2210
asg1765
I1
sg574
I83
sg57
g2136
sba(iconstruction
TP_SLOT
p2211
(dp2212
g1762
(lp2213
VNP
p2214
aVN
p2215
asg1765
I2
sg574
I84
sg57
g2138
sba(iconstruction
TP_SLOT
p2216
(dp2217
g1762
(lp2218
VNP
p2219
aVN
p2220
asg1765
I3
sg574
I85
sg57
g2140
sbasg57
g1660
sbsg1776
I1
sba(iconstruction
CXN
p2221
(dp2222
g1718
(iconstruction
TP_SYMLINKS
p2223
(dp2224
g1721
(dp2225
VAGT_91
p2226
VS1_98
p2227
sVRCPT_93
p2228
VS5_102
p2229
sVACT_90
p2230
VS2_99
p2231
sVTHEME_92
p2232
VS3_100
p2233
ssg574
I88
sg57
g1660
sbsg1727
VS
p2234
sg1729
I2
sg57
VOBLIQUE_DATIVE
p2235
sg1730
(iconstruction
TP_SEMFRAME
p2236
(dp2237
g87
g0
(g88
g2
Ntp2238
Rp2239
(dp2240
g92
(dp2241
(iconstruction
TP_NODE
p2242
(dp2243
g1739
I01
sg76
g729
sg57
VEVT_89
p2244
sg1740
I01
sg1741
I00
sg574
I89
sb(dp2245
g1740
I01
sg76
g729
ss(iconstruction
TP_NODE
p2246
(dp2247
g1739
I00
sg76
g732
sg57
g2226
sg1740
I01
sg1741
I01
sg574
I91
sb(dp2248
g1740
I01
sg76
g732
ss(iconstruction
TP_NODE
p2249
(dp2250
g1739
I00
sg76
g732
sg57
g2232
sg1740
I01
sg1741
I00
sg574
I92
sb(dp2251
g1740
I01
sg76
g732
ss(iconstruction
TP_NODE
p2252
(dp2253
g1739
I00
sg76
g624
sg57
g2230
sg1740
I01
sg1741
I00
sg574
I90
sb(dp2254
g1740
I01
sg76
g624
ss(iconstruction
TP_NODE
p2255
(dp2256
g1739
I00
sg76
g732
sg57
g2228
sg1740
I01
sg1741
I00
sg574
I93
sb(dp2257
g1740
I01
sg76
g732
sssg275
g276
sg277
g276
sg278
(dp2258
g2242
(dp2259
g2252
(dp2260
g76
g723
sssg2246
(dp2261
sg2249
(dp2262
sg2252
(dp2263
g2246
(dp2264
g76
g702
ssg2255
(dp2265
g76
g687
ssg2249
(dp2266
g76
g684
sssg2255
(dp2267
ssg472
g2258
sg87
(dp2268
sg474
g276
sg475
g2258
sg476
(dp2269
g2242
(dp2270
sg2246
(dp2271
g2252
g2264
ssg2249
(dp2272
g2252
g2266
ssg2252
(dp2273
g2242
g2260
ssg2255
(dp2274
g2252
g2265
sssbsg569
(lp2275
g2242
ag2252
ag2246
ag2249
ag2255
asg842
(lp2276
(iconstruction
TP_REL
p2277
(dp2278
g848
g2252
sg76
g723
sg574
I94
sg849
g2242
sg57
VIS_94
p2279
sba(iconstruction
TP_REL
p2280
(dp2281
g848
g2246
sg76
g702
sg574
I95
sg849
g2252
sg57
VACT_AGT_95
p2282
sba(iconstruction
TP_REL
p2283
(dp2284
g848
g2249
sg76
g684
sg574
I96
sg849
g2252
sg57
VACT_THEME_96
p2285
sba(iconstruction
TP_REL
p2286
(dp2287
g848
g2255
sg76
g687
sg574
I97
sg849
g2252
sg57
VACT_RCPT_97
p2288
sbasg574
I86
sg57
g1660
sbsg1755
(iconstruction
TP_SYNFORM
p2289
(dp2290
g574
I87
sg1758
(lp2291
(iconstruction
TP_SLOT
p2292
(dp2293
g1762
(lp2294
VNP
p2295
aVN
p2296
asg1765
I0
sg574
I98
sg57
g2227
sba(iconstruction
TP_SLOT
p2297
(dp2298
g1762
(lp2299
VVP
p2300
aVV
p2301
asg1765
I1
sg574
I99
sg57
g2231
sba(iconstruction
TP_SLOT
p2302
(dp2303
g1762
(lp2304
VNP
p2305
aVN
p2306
asg1765
I2
sg574
I100
sg57
g2233
sba(iconstruction
TP_PHON
p2307
(dp2308
g1768
I2
sg1765
I3
sg574
I101
sg1769
Vto
p2309
sg57
VS4_101
p2310
sba(iconstruction
TP_SLOT
p2311
(dp2312
g1762
(lp2313
VNP
p2314
aVN
p2315
asg1765
I4
sg574
I102
sg57
g2229
sbasg57
g1660
sbsg1776
I1
sba(iconstruction
CXN
p2316
(dp2317
g1718
(iconstruction
TP_SYMLINKS
p2318
(dp2319
g1721
(dp2320
VATTR_108
p2321
VS3_113
p2322
sVENT_107
p2323
VS1_111
p2324
ssg574
I105
sg57
g1660
sbsg1727
VS
p2325
sg1729
I2
sg57
VSPA
p2326
sg1730
(iconstruction
TP_SEMFRAME
p2327
(dp2328
g87
g0
(g88
g2
Ntp2329
Rp2330
(dp2331
g92
(dp2332
(iconstruction
TP_NODE
p2333
(dp2334
g1739
I00
sg76
g732
sg57
g2323
sg1740
I01
sg1741
I01
sg574
I107
sb(dp2335
g1740
I01
sg76
g732
ss(iconstruction
TP_NODE
p2336
(dp2337
g1739
I00
sg76
g633
sg57
g2321
sg1740
I00
sg1741
I00
sg574
I108
sb(dp2338
g1740
I00
sg76
g633
ss(iconstruction
TP_NODE
p2339
(dp2340
g1739
I01
sg76
g729
sg57
VEVT_106
p2341
sg1740
I01
sg1741
I00
sg574
I106
sb(dp2342
g1740
I01
sg76
g729
sssg275
g276
sg277
g276
sg278
(dp2343
g2333
(dp2344
sg2336
(dp2345
sg2339
(dp2346
g2333
(dp2347
g76
g723
ssg2336
(dp2348
g76
g681
ssssg472
g2343
sg87
(dp2349
sg474
g276
sg475
g2343
sg476
(dp2350
g2333
(dp2351
g2339
g2347
ssg2336
(dp2352
g2339
g2348
ssg2339
(dp2353
ssbsg569
(lp2354
g2339
ag2333
ag2336
asg842
(lp2355
(iconstruction
TP_REL
p2356
(dp2357
g848
g2333
sg76
g723
sg574
I109
sg849
g2339
sg57
VIS_109
p2358
sba(iconstruction
TP_REL
p2359
(dp2360
g848
g2336
sg76
g681
sg574
I110
sg849
g2339
sg57
VEVT_ATTR_110
p2361
sbasg574
I103
sg57
g1660
sbsg1755
(iconstruction
TP_SYNFORM
p2362
(dp2363
g574
I104
sg1758
(lp2364
(iconstruction
TP_SLOT
p2365
(dp2366
g1762
(lp2367
VNP
p2368
aVN
p2369
asg1765
I0
sg574
I111
sg57
g2324
sba(iconstruction
TP_PHON
p2370
(dp2371
g1768
I2
sg1765
I1
sg574
I112
sg1769
Vis
p2372
sg57
VS2_112
p2373
sba(iconstruction
TP_SLOT
p2374
(dp2375
g1762
(lp2376
VA
p2377
asg1765
I2
sg574
I113
sg57
g2322
sbasg57
g1660
sbsg1776
I1
sba(iconstruction
CXN
p2378
(dp2379
g1718
(iconstruction
TP_SYMLINKS
p2380
(dp2381
g1721
(dp2382
VAGT_119
p2383
VS1_122
p2384
sVACT_118
p2385
VS2_123
p2386
ssg574
I116
sg57
g1660
sbsg1727
VS
p2387
sg1729
I2
sg57
VSV
p2388
sg1730
(iconstruction
TP_SEMFRAME
p2389
(dp2390
g87
g0
(g88
g2
Ntp2391
Rp2392
(dp2393
g92
(dp2394
(iconstruction
TP_NODE
p2395
(dp2396
g1739
I00
sg76
g588
sg57
g2385
sg1740
I01
sg1741
I00
sg574
I118
sb(dp2397
g1740
I01
sg76
g588
ss(iconstruction
TP_NODE
p2398
(dp2399
g1739
I00
sg76
g732
sg57
g2383
sg1740
I01
sg1741
I01
sg574
I119
sb(dp2400
g1740
I01
sg76
g732
ss(iconstruction
TP_NODE
p2401
(dp2402
g1739
I01
sg76
g729
sg57
VEVT_117
p2403
sg1740
I01
sg1741
I00
sg574
I117
sb(dp2404
g1740
I01
sg76
g729
sssg275
g276
sg277
g276
sg278
(dp2405
g2395
(dp2406
g2398
(dp2407
g76
g702
sssg2398
(dp2408
sg2401
(dp2409
g2395
(dp2410
g76
g723
ssssg472
g2405
sg87
(dp2411
sg474
g276
sg475
g2405
sg476
(dp2412
g2395
(dp2413
g2401
g2410
ssg2398
(dp2414
g2395
g2407
ssg2401
(dp2415
ssbsg569
(lp2416
g2401
ag2395
ag2398
asg842
(lp2417
(iconstruction
TP_REL
p2418
(dp2419
g848
g2395
sg76
g723
sg574
I120
sg849
g2401
sg57
VIS_120
p2420
sba(iconstruction
TP_REL
p2421
(dp2422
g848
g2398
sg76
g702
sg574
I121
sg849
g2395
sg57
VACT_AGT_121
p2423
sbasg574
I114
sg57
g1660
sbsg1755
(iconstruction
TP_SYNFORM
p2424
(dp2425
g574
I115
sg1758
(lp2426
(iconstruction
TP_SLOT
p2427
(dp2428
g1762
(lp2429
VNP
p2430
aVN
p2431
asg1765
I0
sg574
I122
sg57
g2384
sba(iconstruction
TP_SLOT
p2432
(dp2433
g1762
(lp2434
VVP
p2435
aVV
p2436
asg1765
I1
sg574
I123
sg57
g2386
sbasg57
g1660
sbsg1776
I1
sba(iconstruction
CXN
p2437
(dp2438
g1718
(iconstruction
TP_SYMLINKS
p2439
(dp2440
g1721
(dp2441
VEVT_127
p2442
VS1_130
p2443
sVPLACE_128
p2444
VS3_132
p2445
ssg574
I126
sg57
g1660
sbsg1727
VS
p2446
sg1729
I2
sg57
VPP_IN
p2447
sg1730
(iconstruction
TP_SEMFRAME
p2448
(dp2449
g87
g0
(g88
g2
Ntp2450
Rp2451
(dp2452
g92
(dp2453
(iconstruction
TP_NODE
p2454
(dp2455
g1739
I00
sg76
g732
sg57
g2444
sg1740
I01
sg1741
I00
sg574
I128
sb(dp2456
g1740
I01
sg76
g732
ss(iconstruction
TP_NODE
p2457
(dp2458
g1739
I01
sg76
g729
sg57
g2442
sg1740
I01
sg1741
I00
sg574
I127
sb(dp2459
g1740
I01
sg76
g729
sssg275
g276
sg277
g276
sg278
(dp2460
g2454
(dp2461
sg2457
(dp2462
g2454
(dp2463
g76
g720
ssssg472
g2460
sg87
(dp2464
sg474
g276
sg475
g2460
sg476
(dp2465
g2454
(dp2466
g2457
g2463
ssg2457
(dp2467
ssbsg569
(lp2468
g2457
ag2454
asg842
(lp2469
(iconstruction
TP_REL
p2470
(dp2471
g848
g2454
sg76
g720
sg574
I129
sg849
g2457
sg57
VEVT_PP_129
p2472
sbasg574
I124
sg57
g1660
sbsg1755
(iconstruction
TP_SYNFORM
p2473
(dp2474
g574
I125
sg1758
(lp2475
(iconstruction
TP_SLOT
p2476
(dp2477
g1762
(lp2478
VS
p2479
asg1765
I0
sg574
I130
sg57
g2443
sba(iconstruction
TP_PHON
p2480
(dp2481
g1768
I2
sg1765
I1
sg574
I131
sg1769
Vin
p2482
sg57
VS2_131
p2483
sba(iconstruction
TP_SLOT
p2484
(dp2485
g1762
(lp2486
VNP
p2487
aVN
p2488
asg1765
I2
sg574
I132
sg57
g2445
sbasg57
g1660
sbsg1776
I1
sba(iconstruction
CXN
p2489
(dp2490
g1718
(iconstruction
TP_SYMLINKS
p2491
(dp2492
g1721
(dp2493
VEVT2_137
p2494
VS2_140
p2495
sVEVT1_136
p2496
VS1_139
p2497
ssg574
I135
sg57
g1660
sbsg1727
VS
p2498
sg1729
I2
sg57
VS_PP
p2499
sg1730
(iconstruction
TP_SEMFRAME
p2500
(dp2501
g87
g0
(g88
g2
Ntp2502
Rp2503
(dp2504
g92
(dp2505
(iconstruction
TP_NODE
p2506
(dp2507
g1739
I01
sg76
g729
sg57
g2496
sg1740
I01
sg1741
I01
sg574
I136
sb(dp2508
g1740
I01
sg76
g729
ss(iconstruction
TP_NODE
p2509
(dp2510
g1739
I00
sg76
g729
sg57
g2494
sg1740
I01
sg1741
I00
sg574
I137
sb(dp2511
g1740
I01
sg76
g729
sssg275
g276
sg277
g276
sg278
(dp2512
g2506
(dp2513
g2509
(dp2514
g76
g681
sssg2509
(dp2515
ssg472
g2512
sg87
(dp2516
sg474
g276
sg475
g2512
sg476
(dp2517
g2506
(dp2518
sg2509
(dp2519
g2506
g2514
sssbsg569
(lp2520
g2506
ag2509
asg842
(lp2521
(iconstruction
TP_REL
p2522
(dp2523
g848
g2509
sg76
g681
sg574
I138
sg849
g2506
sg57
VMOD_138
p2524
sbasg574
I133
sg57
g1660
sbsg1755
(iconstruction
TP_SYNFORM
p2525
(dp2526
g574
I134
sg1758
(lp2527
(iconstruction
TP_SLOT
p2528
(dp2529
g1762
(lp2530
VS
p2531
asg1765
I0
sg574
I139
sg57
g2497
sba(iconstruction
TP_SLOT
p2532
(dp2533
g1762
(lp2534
VPP
p2535
asg1765
I1
sg574
I140
sg57
g2495
sbasg57
g1660
sbsg1776
I1
sba(iconstruction
CXN
p2536
(dp2537
g1718
(iconstruction
TP_SYMLINKS
p2538
(dp2539
g1721
(dp2540
VENT_144
p2541
VS2_148
p2542
sVATTR_145
p2543
VS1_147
p2544
ssg574
I143
sg57
g1660
sbsg1727
VN
p2545
sg1729
I2
sg57
VADJUNCT_N
p2546
sg1730
(iconstruction
TP_SEMFRAME
p2547
(dp2548
g87
g0
(g88
g2
Ntp2549
Rp2550
(dp2551
g92
(dp2552
(iconstruction
TP_NODE
p2553
(dp2554
g1739
I01
sg76
g732
sg57
g2541
sg1740
I01
sg1741
I00
sg574
I144
sb(dp2555
g1740
I01
sg76
g732
ss(iconstruction
TP_NODE
p2556
(dp2557
g1739
I00
sg76
g633
sg57
g2543
sg1740
I00
sg1741
I00
sg574
I145
sb(dp2558
g1740
I00
sg76
g633
sssg275
g276
sg277
g276
sg278
(dp2559
g2553
(dp2560
g2556
(dp2561
g76
g681
sssg2556
(dp2562
ssg472
g2559
sg87
(dp2563
sg474
g276
sg475
g2559
sg476
(dp2564
g2553
(dp2565
sg2556
(dp2566
g2553
g2561
sssbsg569
(lp2567
g2553
ag2556
asg842
(lp2568
(iconstruction
TP_REL
p2569
(dp2570
g848
g2556
sg76
g681
sg574
I146
sg849
g2553
sg57
VENT_ATTR_146
p2571
sbasg574
I141
sg57
g1660
sbsg1755
(iconstruction
TP_SYNFORM
p2572
(dp2573
g574
I142
sg1758
(lp2574
(iconstruction
TP_SLOT
p2575
(dp2576
g1762
(lp2577
VA
p2578
asg1765
I0
sg574
I147
sg57
g2544
sba(iconstruction
TP_SLOT
p2579
(dp2580
g1762
(lp2581
VN
p2582
asg1765
I1
sg574
I148
sg57
g2542
sbasg57
g1660
sbsg1776
I1
sba(iconstruction
CXN
p2583
(dp2584
g1718
(iconstruction
TP_SYMLINKS
p2585
(dp2586
g1721
(dp2587
VAGT_154
p2588
VS1_160
p2589
sVACT_153
p2590
VS3_162
p2591
sVPT_155
p2592
VS4_163
p2593
ssg574
I151
sg57
g1660
sbsg1727
VN
p2594
sg1729
I2
sg57
VSUBJ_REL_SVO
p2595
sg1730
(iconstruction
TP_SEMFRAME
p2596
(dp2597
g87
g0
(g88
g2
Ntp2598
Rp2599
(dp2600
g92
(dp2601
(iconstruction
TP_NODE
p2602
(dp2603
g1739
I00
sg76
g729
sg57
VEVT_152
p2604
sg1740
I01
sg1741
I00
sg574
I152
sb(dp2605
g1740
I01
sg76
g729
ss(iconstruction
TP_NODE
p2606
(dp2607
g1739
I01
sg76
g732
sg57
g2588
sg1740
I01
sg1741
I00
sg574
I154
sb(dp2608
g1740
I01
sg76
g732
ss(iconstruction
TP_NODE
p2609
(dp2610
g1739
I00
sg76
g594
sg57
g2590
sg1740
I01
sg1741
I01
sg574
I153
sb(dp2611
g1740
I01
sg76
g594
ss(iconstruction
TP_NODE
p2612
(dp2613
g1739
I00
sg76
g732
sg57
g2592
sg1740
I01
sg1741
I00
sg574
I155
sb(dp2614
g1740
I01
sg76
g732
sssg275
g276
sg277
g276
sg278
(dp2615
g2602
(dp2616
g2609
(dp2617
g76
g723
sssg2606
(dp2618
g2602
(dp2619
g76
g681
sssg2609
(dp2620
g2606
(dp2621
g76
g702
ssg2612
(dp2622
g76
g696
sssg2612
(dp2623
ssg472
g2615
sg87
(dp2624
sg474
g276
sg475
g2615
sg476
(dp2625
g2602
(dp2626
g2606
g2619
ssg2606
(dp2627
g2609
g2621
ssg2609
(dp2628
g2602
g2617
ssg2612
(dp2629
g2609
g2622
sssbsg569
(lp2630
g2602
ag2609
ag2606
ag2612
asg842
(lp2631
(iconstruction
TP_REL
p2632
(dp2633
g848
g2609
sg76
g723
sg574
I156
sg849
g2602
sg57
VIS_156
p2634
sba(iconstruction
TP_REL
p2635
(dp2636
g848
g2606
sg76
g702
sg574
I157
sg849
g2609
sg57
VACT_AGT_157
p2637
sba(iconstruction
TP_REL
p2638
(dp2639
g848
g2612
sg76
g696
sg574
I158
sg849
g2609
sg57
VACT_PT_158
p2640
sba(iconstruction
TP_REL
p2641
(dp2642
g848
g2602
sg76
g681
sg574
I159
sg849
g2606
sg57
VAGT_EVT_159
p2643
sbasg574
I149
sg57
g1660
sbsg1755
(iconstruction
TP_SYNFORM
p2644
(dp2645
g574
I150
sg1758
(lp2646
(iconstruction
TP_SLOT
p2647
(dp2648
g1762
(lp2649
VN
p2650
asg1765
I0
sg574
I160
sg57
g2589
sba(iconstruction
TP_PHON
p2651
(dp2652
g1768
I4
sg1765
I1
sg574
I161
sg1769
Vthat
p2653
sg57
VS2_161
p2654
sba(iconstruction
TP_SLOT
p2655
(dp2656
g1762
(lp2657
VVP
p2658
aVV
p2659
asg1765
I2
sg574
I162
sg57
g2591
sba(iconstruction
TP_SLOT
p2660
(dp2661
g1762
(lp2662
VNP
p2663
aVN
p2664
asg1765
I3
sg574
I163
sg57
g2593
sbasg57
g1660
sbsg1776
I1
sba(iconstruction
CXN
p2665
(dp2666
g1718
(iconstruction
TP_SYMLINKS
p2667
(dp2668
g1721
(dp2669
VAGT_169
p2670
VS1_173
p2671
sVACT_168
p2672
VS3_175
p2673
ssg574
I166
sg57
g1660
sbsg1727
VN
p2674
sg1729
I2
sg57
VSUBJ_REL_SV
p2675
sg1730
(iconstruction
TP_SEMFRAME
p2676
(dp2677
g87
g0
(g88
g2
Ntp2678
Rp2679
(dp2680
g92
(dp2681
(iconstruction
TP_NODE
p2682
(dp2683
g1739
I00
sg76
g729
sg57
VEVT_167
p2684
sg1740
I01
sg1741
I00
sg574
I167
sb(dp2685
g1740
I01
sg76
g729
ss(iconstruction
TP_NODE
p2686
(dp2687
g1739
I01
sg76
g732
sg57
g2670
sg1740
I01
sg1741
I00
sg574
I169
sb(dp2688
g1740
I01
sg76
g732
ss(iconstruction
TP_NODE
p2689
(dp2690
g1739
I00
sg76
g576
sg57
g2672
sg1740
I01
sg1741
I01
sg574
I168
sb(dp2691
g1740
I01
sg76
g576
sssg275
g276
sg277
g276
sg278
(dp2692
g2682
(dp2693
g2689
(dp2694
g76
g723
sssg2686
(dp2695
g2682
(dp2696
g76
g681
sssg2689
(dp2697
g2686
(dp2698
g76
g702
ssssg472
g2692
sg87
(dp2699
sg474
g276
sg475
g2692
sg476
(dp2700
g2682
(dp2701
g2686
g2696
ssg2686
(dp2702
g2689
g2698
ssg2689
(dp2703
g2682
g2694
sssbsg569
(lp2704
g2682
ag2689
ag2686
asg842
(lp2705
(iconstruction
TP_REL
p2706
(dp2707
g848
g2689
sg76
g723
sg574
I170
sg849
g2682
sg57
VIS_170
p2708
sba(iconstruction
TP_REL
p2709
(dp2710
g848
g2686
sg76
g702
sg574
I171
sg849
g2689
sg57
VACT_AGT_171
p2711
sba(iconstruction
TP_REL
p2712
(dp2713
g848
g2682
sg76
g681
sg574
I172
sg849
g2686
sg57
VAGT_EVT_172
p2714
sbasg574
I164
sg57
g1660
sbsg1755
(iconstruction
TP_SYNFORM
p2715
(dp2716
g574
I165
sg1758
(lp2717
(iconstruction
TP_SLOT
p2718
(dp2719
g1762
(lp2720
VN
p2721
asg1765
I0
sg574
I173
sg57
g2671
sba(iconstruction
TP_PHON
p2722
(dp2723
g1768
I4
sg1765
I1
sg574
I174
sg1769
Vthat
p2724
sg57
VS2_174
p2725
sba(iconstruction
TP_SLOT
p2726
(dp2727
g1762
(lp2728
VVP
p2729
aVV
p2730
asg1765
I2
sg574
I175
sg57
g2673
sbasg57
g1660
sbsg1776
I1
sba(iconstruction
CXN
p2731
(dp2732
g1718
(iconstruction
TP_SYMLINKS
p2733
(dp2734
g1721
(dp2735
VAGT_181
p2736
VS7_193
p2737
sVPT_182
p2738
VS1_187
p2739
sVACT_180
p2740
VS4_190
p2741
ssg574
I178
sg57
g1660
sbsg1727
VN
p2742
sg1729
I2
sg57
VSUBJ_REL_PAS_SVO
p2743
sg1730
(iconstruction
TP_SEMFRAME
p2744
(dp2745
g87
g0
(g88
g2
Ntp2746
Rp2747
(dp2748
g92
(dp2749
(iconstruction
TP_NODE
p2750
(dp2751
g1739
I00
sg76
g729
sg57
VEVT_179
p2752
sg1740
I01
sg1741
I00
sg574
I179
sb(dp2753
g1740
I01
sg76
g729
ss(iconstruction
TP_NODE
p2754
(dp2755
g1739
I00
sg76
g732
sg57
g2736
sg1740
I01
sg1741
I00
sg574
I181
sb(dp2756
g1740
I01
sg76
g732
ss(iconstruction
TP_NODE
p2757
(dp2758
g1739
I01
sg76
g732
sg57
g2738
sg1740
I01
sg1741
I00
sg574
I182
sb(dp2759
g1740
I01
sg76
g732
ss(iconstruction
TP_NODE
p2760
(dp2761
g1739
I00
sg76
g576
sg57
g2740
sg1740
I01
sg1741
I01
sg574
I180
sb(dp2762
g1740
I01
sg76
g576
sssg275
g276
sg277
g276
sg278
(dp2763
g2750
(dp2764
g2760
(dp2765
g76
g723
sssg2754
(dp2766
sg2757
(dp2767
g2750
(dp2768
g76
g681
sssg2760
(dp2769
g2754
(dp2770
g76
g702
ssg2757
(dp2771
g76
g696
ssssg472
g2763
sg87
(dp2772
sg474
g276
sg475
g2763
sg476
(dp2773
g2750
(dp2774
g2757
g2768
ssg2754
(dp2775
g2760
g2770
ssg2757
(dp2776
g2760
g2771
ssg2760
(dp2777
g2750
g2765
sssbsg569
(lp2778
g2750
ag2760
ag2754
ag2757
asg842
(lp2779
(iconstruction
TP_REL
p2780
(dp2781
g848
g2760
sg76
g723
sg574
I183
sg849
g2750
sg57
VIS_183
p2782
sba(iconstruction
TP_REL
p2783
(dp2784
g848
g2754
sg76
g702
sg574
I184
sg849
g2760
sg57
VACT_AGT_184
p2785
sba(iconstruction
TP_REL
p2786
(dp2787
g848
g2757
sg76
g696
sg574
I185
sg849
g2760
sg57
VACT_PT_185
p2788
sba(iconstruction
TP_REL
p2789
(dp2790
g848
g2750
sg76
g681
sg574
I186
sg849
g2757
sg57
VPT_EVT_186
p2791
sbasg574
I176
sg57
g1660
sbsg1755
(iconstruction
TP_SYNFORM
p2792
(dp2793
g574
I177
sg1758
(lp2794
(iconstruction
TP_SLOT
p2795
(dp2796
g1762
(lp2797
VN
p2798
asg1765
I0
sg574
I187
sg57
g2739
sba(iconstruction
TP_PHON
p2799
(dp2800
g1768
I4
sg1765
I1
sg574
I188
sg1769
Vthat
p2801
sg57
VS2_188
p2802
sba(iconstruction
TP_PHON
p2803
(dp2804
g1768
I2
sg1765
I2
sg574
I189
sg1769
Vis
p2805
sg57
VS3_189
p2806
sba(iconstruction
TP_SLOT
p2807
(dp2808
g1762
(lp2809
VVP
p2810
aVV
p2811
asg1765
I3
sg574
I190
sg57
g2741
sba(iconstruction
TP_PHON
p2812
(dp2813
g1768
I2
sg1765
I4
sg574
I191
sg1769
V-ed
p2814
sg57
VS5_191
p2815
sba(iconstruction
TP_PHON
p2816
(dp2817
g1768
I2
sg1765
I5
sg574
I192
sg1769
Vby
p2818
sg57
VS6_192
p2819
sba(iconstruction
TP_SLOT
p2820
(dp2821
g1762
(lp2822
VNP
p2823
aVN
p2824
asg1765
I6
sg574
I193
sg57
g2737
sbasg57
g1660
sbsg1776
I1
sba(iconstruction
CXN
p2825
(dp2826
g1718
(iconstruction
TP_SYMLINKS
p2827
(dp2828
g1721
(dp2829
VAGT_199
p2830
VS3_207
p2831
sVACT_198
p2832
VS4_208
p2833
sVPT_200
p2834
VS1_205
p2835
ssg574
I196
sg57
g1660
sbsg1727
VN
p2836
sg1729
I2
sg57
VOBJ_REL_SVO
p2837
sg1730
(iconstruction
TP_SEMFRAME
p2838
(dp2839
g87
g0
(g88
g2
Ntp2840
Rp2841
(dp2842
g92
(dp2843
(iconstruction
TP_NODE
p2844
(dp2845
g1739
I00
sg76
g729
sg57
VEVT_197
p2846
sg1740
I01
sg1741
I00
sg574
I197
sb(dp2847
g1740
I01
sg76
g729
ss(iconstruction
TP_NODE
p2848
(dp2849
g1739
I00
sg76
g732
sg57
g2830
sg1740
I01
sg1741
I00
sg574
I199
sb(dp2850
g1740
I01
sg76
g732
ss(iconstruction
TP_NODE
p2851
(dp2852
g1739
I01
sg76
g732
sg57
g2834
sg1740
I01
sg1741
I00
sg574
I200
sb(dp2853
g1740
I01
sg76
g732
ss(iconstruction
TP_NODE
p2854
(dp2855
g1739
I00
sg76
g576
sg57
g2832
sg1740
I01
sg1741
I01
sg574
I198
sb(dp2856
g1740
I01
sg76
g576
sssg275
g276
sg277
g276
sg278
(dp2857
g2844
(dp2858
g2854
(dp2859
g76
g723
sssg2848
(dp2860
sg2851
(dp2861
g2844
(dp2862
g76
g681
sssg2854
(dp2863
g2848
(dp2864
g76
g702
ssg2851
(dp2865
g76
g696
ssssg472
g2857
sg87
(dp2866
sg474
g276
sg475
g2857
sg476
(dp2867
g2844
(dp2868
g2851
g2862
ssg2848
(dp2869
g2854
g2864
ssg2851
(dp2870
g2854
g2865
ssg2854
(dp2871
g2844
g2859
sssbsg569
(lp2872
g2844
ag2854
ag2848
ag2851
asg842
(lp2873
(iconstruction
TP_REL
p2874
(dp2875
g848
g2854
sg76
g723
sg574
I201
sg849
g2844
sg57
VIS_201
p2876
sba(iconstruction
TP_REL
p2877
(dp2878
g848
g2848
sg76
g702
sg574
I202
sg849
g2854
sg57
VACT_AGT_202
p2879
sba(iconstruction
TP_REL
p2880
(dp2881
g848
g2851
sg76
g696
sg574
I203
sg849
g2854
sg57
VACT_PT_203
p2882
sba(iconstruction
TP_REL
p2883
(dp2884
g848
g2844
sg76
g681
sg574
I204
sg849
g2851
sg57
VPT_EVT_204
p2885
sbasg574
I194
sg57
g1660
sbsg1755
(iconstruction
TP_SYNFORM
p2886
(dp2887
g574
I195
sg1758
(lp2888
(iconstruction
TP_SLOT
p2889
(dp2890
g1762
(lp2891
VN
p2892
asg1765
I0
sg574
I205
sg57
g2835
sba(iconstruction
TP_PHON
p2893
(dp2894
g1768
I4
sg1765
I1
sg574
I206
sg1769
Vthat
p2895
sg57
VS2_206
p2896
sba(iconstruction
TP_SLOT
p2897
(dp2898
g1762
(lp2899
VNP
p2900
aVN
p2901
asg1765
I2
sg574
I207
sg57
g2831
sba(iconstruction
TP_SLOT
p2902
(dp2903
g1762
(lp2904
VVP
p2905
aVV
p2906
asg1765
I3
sg574
I208
sg57
g2833
sbasg57
g1660
sbsg1776
I1
sba(iconstruction
CXN
p2907
(dp2908
g1718
(iconstruction
TP_SYMLINKS
p2909
(dp2910
g1721
(dp2911
VPT_215
p2912
VS3_222
p2913
sVACT_213
p2914
VS5_224
p2915
sVAGT_214
p2916
VS1_220
p2917
ssg574
I211
sg57
g1660
sbsg1727
VN
p2918
sg1729
I2
sg57
VOBJ_REL_PAS_SVO
p2919
sg1730
(iconstruction
TP_SEMFRAME
p2920
(dp2921
g87
g0
(g88
g2
Ntp2922
Rp2923
(dp2924
g92
(dp2925
(iconstruction
TP_NODE
p2926
(dp2927
g1739
I00
sg76
g729
sg57
VEVT_212
p2928
sg1740
I01
sg1741
I00
sg574
I212
sb(dp2929
g1740
I01
sg76
g729
ss(iconstruction
TP_NODE
p2930
(dp2931
g1739
I01
sg76
g732
sg57
g2916
sg1740
I01
sg1741
I00
sg574
I214
sb(dp2932
g1740
I01
sg76
g732
ss(iconstruction
TP_NODE
p2933
(dp2934
g1739
I00
sg76
g576
sg57
g2914
sg1740
I01
sg1741
I01
sg574
I213
sb(dp2935
g1740
I01
sg76
g576
ss(iconstruction
TP_NODE
p2936
(dp2937
g1739
I00
sg76
g732
sg57
g2912
sg1740
I01
sg1741
I00
sg574
I215
sb(dp2938
g1740
I01
sg76
g732
sssg275
g276
sg277
g276
sg278
(dp2939
g2926
(dp2940
g2933
(dp2941
g76
g723
sssg2930
(dp2942
g2926
(dp2943
g76
g681
sssg2933
(dp2944
g2930
(dp2945
g76
g702
ssg2936
(dp2946
g76
g696
sssg2936
(dp2947
ssg472
g2939
sg87
(dp2948
sg474
g276
sg475
g2939
sg476
(dp2949
g2926
(dp2950
g2930
g2943
ssg2930
(dp2951
g2933
g2945
ssg2933
(dp2952
g2926
g2941
ssg2936
(dp2953
g2933
g2946
sssbsg569
(lp2954
g2926
ag2933
ag2930
ag2936
asg842
(lp2955
(iconstruction
TP_REL
p2956
(dp2957
g848
g2933
sg76
g723
sg574
I216
sg849
g2926
sg57
VIS_216
p2958
sba(iconstruction
TP_REL
p2959
(dp2960
g848
g2930
sg76
g702
sg574
I217
sg849
g2933
sg57
VACT_AGT_217
p2961
sba(iconstruction
TP_REL
p2962
(dp2963
g848
g2936
sg76
g696
sg574
I218
sg849
g2933
sg57
VACT_PT_218
p2964
sba(iconstruction
TP_REL
p2965
(dp2966
g848
g2926
sg76
g681
sg574
I219
sg849
g2930
sg57
VAGT_EVT_219
p2967
sbasg574
I209
sg57
g1660
sbsg1755
(iconstruction
TP_SYNFORM
p2968
(dp2969
g574
I210
sg1758
(lp2970
(iconstruction
TP_SLOT
p2971
(dp2972
g1762
(lp2973
VN
p2974
asg1765
I0
sg574
I220
sg57
g2917
sba(iconstruction
TP_PHON
p2975
(dp2976
g1768
I4
sg1765
I1
sg574
I221
sg1769
Vthat
p2977
sg57
VS2_221
p2978
sba(iconstruction
TP_SLOT
p2979
(dp2980
g1762
(lp2981
VNP
p2982
aVN
p2983
asg1765
I2
sg574
I222
sg57
g2913
sba(iconstruction
TP_PHON
p2984
(dp2985
g1768
I2
sg1765
I3
sg574
I223
sg1769
Vis
p2986
sg57
VS4_223
p2987
sba(iconstruction
TP_SLOT
p2988
(dp2989
g1762
(lp2990
VVP
p2991
aVV
p2992
asg1765
I4
sg574
I224
sg57
g2915
sba(iconstruction
TP_PHON
p2993
(dp2994
g1768
I2
sg1765
I5
sg574
I225
sg1769
V-ed
p2995
sg57
VS6_225
p2996
sba(iconstruction
TP_PHON
p2997
(dp2998
g1768
I2
sg1765
I6
sg574
I226
sg1769
Vby
p2999
sg57
VS7_226
p3000
sbasg57
g1660
sbsg1776
I1
sba(iconstruction
CXN
p3001
(dp3002
g1718
(iconstruction
TP_SYMLINKS
p3003
(dp3004
g1721
(dp3005
VATTR_232
p3006
VS4_238
p3007
sVENT_231
p3008
VS1_235
p3009
ssg574
I229
sg57
g1660
sbsg1727
VN
p3010
sg1729
I2
sg57
VREL_SPA
p3011
sg1730
(iconstruction
TP_SEMFRAME
p3012
(dp3013
g87
g0
(g88
g2
Ntp3014
Rp3015
(dp3016
g92
(dp3017
(iconstruction
TP_NODE
p3018
(dp3019
g1739
I00
sg76
g729
sg57
VEVT_230
p3020
sg1740
I01
sg1741
I00
sg574
I230
sb(dp3021
g1740
I01
sg76
g729
ss(iconstruction
TP_NODE
p3022
(dp3023
g1739
I00
sg76
g633
sg57
g3006
sg1740
I00
sg1741
I00
sg574
I232
sb(dp3024
g1740
I00
sg76
g633
ss(iconstruction
TP_NODE
p3025
(dp3026
g1739
I01
sg76
g732
sg57
g3008
sg1740
I01
sg1741
I01
sg574
I231
sb(dp3027
g1740
I01
sg76
g732
sssg275
g276
sg277
g276
sg278
(dp3028
g3018
(dp3029
g3022
(dp3030
g76
g681
ssg3025
(dp3031
g76
g723
sssg3022
(dp3032
sg3025
(dp3033
ssg472
g3028
sg87
(dp3034
sg474
g276
sg475
g3028
sg476
(dp3035
g3018
(dp3036
sg3022
(dp3037
g3018
g3030
ssg3025
(dp3038
g3018
g3031
sssbsg569
(lp3039
g3018
ag3025
ag3022
asg842
(lp3040
(iconstruction
TP_REL
p3041
(dp3042
g848
g3025
sg76
g723
sg574
I233
sg849
g3018
sg57
VIS_233
p3043
sba(iconstruction
TP_REL
p3044
(dp3045
g848
g3022
sg76
g681
sg574
I234
sg849
g3018
sg57
VEVT_ATTR_234
p3046
sbasg574
I227
sg57
g1660
sbsg1755
(iconstruction
TP_SYNFORM
p3047
(dp3048
g574
I228
sg1758
(lp3049
(iconstruction
TP_SLOT
p3050
(dp3051
g1762
(lp3052
VN
p3053
asg1765
I0
sg574
I235
sg57
g3009
sba(iconstruction
TP_PHON
p3054
(dp3055
g1768
I4
sg1765
I1
sg574
I236
sg1769
Vthat
p3056
sg57
VS2_236
p3057
sba(iconstruction
TP_PHON
p3058
(dp3059
g1768
I2
sg1765
I2
sg574
I237
sg1769
Vis
p3060
sg57
VS3_237
p3061
sba(iconstruction
TP_SLOT
p3062
(dp3063
g1762
(lp3064
VA
p3065
asg1765
I3
sg574
I238
sg57
g3007
sbasg57
g1660
sbsg1776
I1
sba(iconstruction
CXN
p3066
(dp3067
g1718
(iconstruction
TP_SYMLINKS
p3068
(dp3069
g1721
(dp3070
VAGT_244
p3071
VS1_251
p3072
sVCOLOR_246
p3073
VS3_253
p3074
ssg574
I241
sg57
g1660
sbsg1727
VN
p3075
sg1729
I2
sg57
VIN_COLOR
p3076
sg1730
(iconstruction
TP_SEMFRAME
p3077
(dp3078
g87
g0
(g88
g2
Ntp3079
Rp3080
(dp3081
g92
(dp3082
(iconstruction
TP_NODE
p3083
(dp3084
g1739
I00
sg76
g729
sg57
VEVT_242
p3085
sg1740
I01
sg1741
I00
sg574
I242
sb(dp3086
g1740
I01
sg76
g729
ss(iconstruction
TP_NODE
p3087
(dp3088
g1739
I01
sg76
g741
sg57
g3071
sg1740
I01
sg1741
I00
sg574
I244
sb(dp3089
g1740
I01
sg76
g741
ss(iconstruction
TP_NODE
p3090
(dp3091
g1739
I00
sg76
g621
sg57
VACT_243
p3092
sg1740
I01
sg1741
I00
sg574
I243
sb(dp3093
g1740
I01
sg76
g621
ss(iconstruction
TP_NODE
p3094
(dp3095
g1739
I00
sg76
g636
sg57
g3073
sg1740
I00
sg1741
I01
sg574
I246
sb(dp3096
g1740
I00
sg76
g636
ss(iconstruction
TP_NODE
p3097
(dp3098
g1739
I00
sg76
g771
sg57
VPT_245
p3099
sg1740
I01
sg1741
I00
sg574
I245
sb(dp3100
g1740
I01
sg76
g771
sssg275
g276
sg277
g276
sg278
(dp3101
g3083
(dp3102
g3090
(dp3103
g76
g723
sssg3087
(dp3104
sg3090
(dp3105
g3087
(dp3106
g76
g702
ssg3097
(dp3107
g76
g696
sssg3094
(dp3108
sg3097
(dp3109
g3094
(dp3110
g76
g681
ssssg472
g3101
sg87
(dp3111
sg474
g276
sg475
g3101
sg476
(dp3112
g3083
(dp3113
sg3087
(dp3114
g3090
g3106
ssg3090
(dp3115
g3083
g3103
ssg3094
(dp3116
g3097
g3110
ssg3097
(dp3117
g3090
g3107
sssbsg569
(lp3118
g3083
ag3090
ag3087
ag3097
ag3094
asg842
(lp3119
(iconstruction
TP_REL
p3120
(dp3121
g848
g3090
sg76
g723
sg574
I247
sg849
g3083
sg57
VIS_247
p3122
sba(iconstruction
TP_REL
p3123
(dp3124
g848
g3087
sg76
g702
sg574
I248
sg849
g3090
sg57
VACT_AGT_248
p3125
sba(iconstruction
TP_REL
p3126
(dp3127
g848
g3097
sg76
g696
sg574
I249
sg849
g3090
sg57
VACT_PT_249
p3128
sba(iconstruction
TP_REL
p3129
(dp3130
g848
g3094
sg76
g681
sg574
I250
sg849
g3097
sg57
VPT_COLOR_250
p3131
sbasg574
I239
sg57
g1660
sbsg1755
(iconstruction
TP_SYNFORM
p3132
(dp3133
g574
I240
sg1758
(lp3134
(iconstruction
TP_SLOT
p3135
(dp3136
g1762
(lp3137
VN
p3138
asg1765
I0
sg574
I251
sg57
g3072
sba(iconstruction
TP_PHON
p3139
(dp3140
g1768
I2
sg1765
I1
sg574
I252
sg1769
Vin
p3141
sg57
VS2_252
p3142
sba(iconstruction
TP_SLOT
p3143
(dp3144
g1762
(lp3145
VA
p3146
asg1765
I2
sg574
I253
sg57
g3074
sbasg57
g1660
sbsg1776
I1
sba(iconstruction
CXN
p3147
(dp3148
g1718
(iconstruction
TP_SYMLINKS
p3149
(dp3150
g1721
(dp3151
VN1_258
p3152
VS1_260
p3153
ssg574
I256
sg57
g1660
sbsg1727
VV
p3154
sg1729
I1
sg57
VHIT
p3155
sg1730
(iconstruction
TP_SEMFRAME
p3156
(dp3157
g87
g0
(g88
g2
Ntp3158
Rp3159
(dp3160
g92
(dp3161
(iconstruction
TP_NODE
p3162
(dp3163
g1739
I00
sg76
g597
sg57
g3152
sg1740
I00
sg1741
I00
sg574
I258
sb(dp3164
g1740
I00
sg76
g597
ss(iconstruction
TP_NODE
p3165
(dp3166
g1739
I01
sg76
g576
sg57
VACT_257
p3167
sg1740
I01
sg1741
I00
sg574
I257
sb(dp3168
g1740
I01
sg76
g576
sssg275
g276
sg277
g276
sg278
(dp3169
g3162
(dp3170
sg3165
(dp3171
g3162
(dp3172
g76
g723
ssssg472
g3169
sg87
(dp3173
sg474
g276
sg475
g3169
sg476
(dp3174
g3162
(dp3175
g3165
g3172
ssg3165
(dp3176
ssbsg569
(lp3177
g3165
ag3162
asg842
(lp3178
(iconstruction
TP_REL
p3179
(dp3180
g848
g3162
sg76
g723
sg574
I259
sg849
g3165
sg57
VIS_259
p3181
sbasg574
I254
sg57
g1660
sbsg1755
(iconstruction
TP_SYNFORM
p3182
(dp3183
g574
I255
sg1758
(lp3184
(iconstruction
TP_PHON
p3185
(dp3186
g1768
I3
sg1765
I0
sg574
I260
sg1769
Vhit
p3187
sg57
g3153
sbasg57
g1660
sbsg1776
I1
sba(iconstruction
CXN
p3188
(dp3189
g1718
(iconstruction
TP_SYMLINKS
p3190
(dp3191
g1721
(dp3192
VN1_265
p3193
VS1_267
p3194
ssg574
I263
sg57
g1660
sbsg1727
VV
p3195
sg1729
I1
sg57
VKICK
p3196
sg1730
(iconstruction
TP_SEMFRAME
p3197
(dp3198
g87
g0
(g88
g2
Ntp3199
Rp3200
(dp3201
g92
(dp3202
(iconstruction
TP_NODE
p3203
(dp3204
g1739
I00
sg76
g618
sg57
g3193
sg1740
I00
sg1741
I00
sg574
I265
sb(dp3205
g1740
I00
sg76
g618
ss(iconstruction
TP_NODE
p3206
(dp3207
g1739
I01
sg76
g576
sg57
VACT_264
p3208
sg1740
I01
sg1741
I00
sg574
I264
sb(dp3209
g1740
I01
sg76
g576
sssg275
g276
sg277
g276
sg278
(dp3210
g3203
(dp3211
sg3206
(dp3212
g3203
(dp3213
g76
g723
ssssg472
g3210
sg87
(dp3214
sg474
g276
sg475
g3210
sg476
(dp3215
g3203
(dp3216
g3206
g3213
ssg3206
(dp3217
ssbsg569
(lp3218
g3206
ag3203
asg842
(lp3219
(iconstruction
TP_REL
p3220
(dp3221
g848
g3203
sg76
g723
sg574
I266
sg849
g3206
sg57
VIS_266
p3222
sbasg574
I261
sg57
g1660
sbsg1755
(iconstruction
TP_SYNFORM
p3223
(dp3224
g574
I262
sg1758
(lp3225
(iconstruction
TP_PHON
p3226
(dp3227
g1768
I4
sg1765
I0
sg574
I267
sg1769
Vkick
p3228
sg57
g3194
sbasg57
g1660
sbsg1776
I1
sba(iconstruction
CXN
p3229
(dp3230
g1718
(iconstruction
TP_SYMLINKS
p3231
(dp3232
g1721
(dp3233
VN1_272
p3234
VS1_274
p3235
ssg574
I270
sg57
g1660
sbsg1727
VV
p3236
sg1729
I1
sg57
VPUNCH
p3237
sg1730
(iconstruction
TP_SEMFRAME
p3238
(dp3239
g87
g0
(g88
g2
Ntp3240
Rp3241
(dp3242
g92
(dp3243
(iconstruction
TP_NODE
p3244
(dp3245
g1739
I01
sg76
g576
sg57
VACT_271
p3246
sg1740
I01
sg1741
I00
sg574
I271
sb(dp3247
g1740
I01
sg76
g576
ss(iconstruction
TP_NODE
p3248
(dp3249
g1739
I00
sg76
g603
sg57
g3234
sg1740
I00
sg1741
I00
sg574
I272
sb(dp3250
g1740
I00
sg76
g603
sssg275
g276
sg277
g276
sg278
(dp3251
g3244
(dp3252
g3248
(dp3253
g76
g723
sssg3248
(dp3254
ssg472
g3251
sg87
(dp3255
sg474
g276
sg475
g3251
sg476
(dp3256
g3244
(dp3257
sg3248
(dp3258
g3244
g3253
sssbsg569
(lp3259
g3244
ag3248
asg842
(lp3260
(iconstruction
TP_REL
p3261
(dp3262
g848
g3248
sg76
g723
sg574
I273
sg849
g3244
sg57
VIS_273
p3263
sbasg574
I268
sg57
g1660
sbsg1755
(iconstruction
TP_SYNFORM
p3264
(dp3265
g574
I269
sg1758
(lp3266
(iconstruction
TP_PHON
p3267
(dp3268
g1768
I5
sg1765
I0
sg574
I274
sg1769
Vpunch
p3269
sg57
g3235
sbasg57
g1660
sbsg1776
I1
sba(iconstruction
CXN
p3270
(dp3271
g1718
(iconstruction
TP_SYMLINKS
p3272
(dp3273
g1721
(dp3274
VN1_279
p3275
VS1_281
p3276
ssg574
I277
sg57
g1660
sbsg1727
VV
p3277
sg1729
I1
sg57
VWEAR
p3278
sg1730
(iconstruction
TP_SEMFRAME
p3279
(dp3280
g87
g0
(g88
g2
Ntp3281
Rp3282
(dp3283
g92
(dp3284
(iconstruction
TP_NODE
p3285
(dp3286
g1739
I00
sg76
g621
sg57
g3275
sg1740
I00
sg1741
I00
sg574
I279
sb(dp3287
g1740
I00
sg76
g621
ss(iconstruction
TP_NODE
p3288
(dp3289
g1739
I01
sg76
g576
sg57
VACT_278
p3290
sg1740
I01
sg1741
I00
sg574
I278
sb(dp3291
g1740
I01
sg76
g576
sssg275
g276
sg277
g276
sg278
(dp3292
g3285
(dp3293
sg3288
(dp3294
g3285
(dp3295
g76
g723
ssssg472
g3292
sg87
(dp3296
sg474
g276
sg475
g3292
sg476
(dp3297
g3285
(dp3298
g3288
g3295
ssg3288
(dp3299
ssbsg569
(lp3300
g3288
ag3285
asg842
(lp3301
(iconstruction
TP_REL
p3302
(dp3303
g848
g3285
sg76
g723
sg574
I280
sg849
g3288
sg57
VIS_280
p3304
sbasg574
I275
sg57
g1660
sbsg1755
(iconstruction
TP_SYNFORM
p3305
(dp3306
g574
I276
sg1758
(lp3307
(iconstruction
TP_PHON
p3308
(dp3309
g1768
I4
sg1765
I0
sg574
I281
sg1769
Vwear
p3310
sg57
g3276
sbasg57
g1660
sbsg1776
I1
sba(iconstruction
CXN
p3311
(dp3312
g1718
(iconstruction
TP_SYMLINKS
p3313
(dp3314
g1721
(dp3315
VN1_286
p3316
VS1_288
p3317
ssg574
I284
sg57
g1660
sbsg1727
VV
p3318
sg1729
I1
sg57
VLAUGH
p3319
sg1730
(iconstruction
TP_SEMFRAME
p3320
(dp3321
g87
g0
(g88
g2
Ntp3322
Rp3323
(dp3324
g92
(dp3325
(iconstruction
TP_NODE
p3326
(dp3327
g1739
I01
sg76
g576
sg57
VACT_285
p3328
sg1740
I01
sg1741
I00
sg574
I285
sb(dp3329
g1740
I01
sg76
g576
ss(iconstruction
TP_NODE
p3330
(dp3331
g1739
I00
sg76
g591
sg57
g3316
sg1740
I00
sg1741
I00
sg574
I286
sb(dp3332
g1740
I00
sg76
g591
sssg275
g276
sg277
g276
sg278
(dp3333
g3326
(dp3334
g3330
(dp3335
g76
g723
sssg3330
(dp3336
ssg472
g3333
sg87
(dp3337
sg474
g276
sg475
g3333
sg476
(dp3338
g3326
(dp3339
sg3330
(dp3340
g3326
g3335
sssbsg569
(lp3341
g3326
ag3330
asg842
(lp3342
(iconstruction
TP_REL
p3343
(dp3344
g848
g3330
sg76
g723
sg574
I287
sg849
g3326
sg57
VIS_287
p3345
sbasg574
I282
sg57
g1660
sbsg1755
(iconstruction
TP_SYNFORM
p3346
(dp3347
g574
I283
sg1758
(lp3348
(iconstruction
TP_PHON
p3349
(dp3350
g1768
I5
sg1765
I0
sg574
I288
sg1769
Vlaugh
p3351
sg57
g3317
sbasg57
g1660
sbsg1776
I1
sba(iconstruction
CXN
p3352
(dp3353
g1718
(iconstruction
TP_SYMLINKS
p3354
(dp3355
g1721
(dp3356
VN1_293
p3357
VS1_295
p3358
ssg574
I291
sg57
g1660
sbsg1727
VV
p3359
sg1729
I1
sg57
VWATCH
p3360
sg1730
(iconstruction
TP_SEMFRAME
p3361
(dp3362
g87
g0
(g88
g2
Ntp3363
Rp3364
(dp3365
g92
(dp3366
(iconstruction
TP_NODE
p3367
(dp3368
g1739
I00
sg76
g600
sg57
g3357
sg1740
I00
sg1741
I00
sg574
I293
sb(dp3369
g1740
I00
sg76
g600
ss(iconstruction
TP_NODE
p3370
(dp3371
g1739
I01
sg76
g576
sg57
VACT_292
p3372
sg1740
I01
sg1741
I00
sg574
I292
sb(dp3373
g1740
I01
sg76
g576
sssg275
g276
sg277
g276
sg278
(dp3374
g3367
(dp3375
sg3370
(dp3376
g3367
(dp3377
g76
g723
ssssg472
g3374
sg87
(dp3378
sg474
g276
sg475
g3374
sg476
(dp3379
g3367
(dp3380
g3370
g3377
ssg3370
(dp3381
ssbsg569
(lp3382
g3370
ag3367
asg842
(lp3383
(iconstruction
TP_REL
p3384
(dp3385
g848
g3367
sg76
g723
sg574
I294
sg849
g3370
sg57
VIS_294
p3386
sbasg574
I289
sg57
g1660
sbsg1755
(iconstruction
TP_SYNFORM
p3387
(dp3388
g574
I290
sg1758
(lp3389
(iconstruction
TP_PHON
p3390
(dp3391
g1768
I5
sg1765
I0
sg574
I295
sg1769
Vwatch
p3392
sg57
g3358
sbasg57
g1660
sbsg1776
I1
sba(iconstruction
CXN
p3393
(dp3394
g1718
(iconstruction
TP_SYMLINKS
p3395
(dp3396
g1721
(dp3397
VN1_300
p3398
VS1_302
p3399
ssg574
I298
sg57
g1660
sbsg1727
VV
p3400
sg1729
I1
sg57
VTALK
p3401
sg1730
(iconstruction
TP_SEMFRAME
p3402
(dp3403
g87
g0
(g88
g2
Ntp3404
Rp3405
(dp3406
g92
(dp3407
(iconstruction
TP_NODE
p3408
(dp3409
g1739
I00
sg76
g609
sg57
g3398
sg1740
I00
sg1741
I00
sg574
I300
sb(dp3410
g1740
I00
sg76
g609
ss(iconstruction
TP_NODE
p3411
(dp3412
g1739
I01
sg76
g576
sg57
VACT_299
p3413
sg1740
I01
sg1741
I00
sg574
I299
sb(dp3414
g1740
I01
sg76
g576
sssg275
g276
sg277
g276
sg278
(dp3415
g3408
(dp3416
sg3411
(dp3417
g3408
(dp3418
g76
g723
ssssg472
g3415
sg87
(dp3419
sg474
g276
sg475
g3415
sg476
(dp3420
g3408
(dp3421
g3411
g3418
ssg3411
(dp3422
ssbsg569
(lp3423
g3411
ag3408
asg842
(lp3424
(iconstruction
TP_REL
p3425
(dp3426
g848
g3408
sg76
g723
sg574
I301
sg849
g3411
sg57
VIS_301
p3427
sbasg574
I296
sg57
g1660
sbsg1755
(iconstruction
TP_SYNFORM
p3428
(dp3429
g574
I297
sg1758
(lp3430
(iconstruction
TP_PHON
p3431
(dp3432
g1768
I4
sg1765
I0
sg574
I302
sg1769
Vtalk
p3433
sg57
g3399
sba(iconstruction
TP_PHON
p3434
(dp3435
g1768
I2
sg1765
I1
sg574
I303
sg1769
Vto
p3436
sg57
VS2_303
p3437
sbasg57
g1660
sbsg1776
I1
sba(iconstruction
CXN
p3438
(dp3439
g1718
(iconstruction
TP_SYMLINKS
p3440
(dp3441
g1721
(dp3442
VN1_308
p3443
VS1_310
p3444
ssg574
I306
sg57
g1660
sbsg1727
VV
p3445
sg1729
I1
sg57
VSQUIRT
p3446
sg1730
(iconstruction
TP_SEMFRAME
p3447
(dp3448
g87
g0
(g88
g2
Ntp3449
Rp3450
(dp3451
g92
(dp3452
(iconstruction
TP_NODE
p3453
(dp3454
g1739
I00
sg76
g615
sg57
g3443
sg1740
I00
sg1741
I00
sg574
I308
sb(dp3455
g1740
I00
sg76
g615
ss(iconstruction
TP_NODE
p3456
(dp3457
g1739
I01
sg76
g576
sg57
VACT_307
p3458
sg1740
I01
sg1741
I00
sg574
I307
sb(dp3459
g1740
I01
sg76
g576
sssg275
g276
sg277
g276
sg278
(dp3460
g3453
(dp3461
sg3456
(dp3462
g3453
(dp3463
g76
g723
ssssg472
g3460
sg87
(dp3464
sg474
g276
sg475
g3460
sg476
(dp3465
g3453
(dp3466
g3456
g3463
ssg3456
(dp3467
ssbsg569
(lp3468
g3456
ag3453
asg842
(lp3469
(iconstruction
TP_REL
p3470
(dp3471
g848
g3453
sg76
g723
sg574
I309
sg849
g3456
sg57
VIS_309
p3472
sbasg574
I304
sg57
g1660
sbsg1755
(iconstruction
TP_SYNFORM
p3473
(dp3474
g574
I305
sg1758
(lp3475
(iconstruction
TP_PHON
p3476
(dp3477
g1768
I6
sg1765
I0
sg574
I310
sg1769
Vsquirt
p3478
sg57
g3444
sba(iconstruction
TP_PHON
p3479
(dp3480
g1768
I2
sg1765
I1
sg574
I311
sg1769
Vat
p3481
sg57
VS2_311
p3482
sbasg57
g1660
sbsg1776
I1
sba(iconstruction
CXN
p3483
(dp3484
g1718
(iconstruction
TP_SYMLINKS
p3485
(dp3486
g1721
(dp3487
VN1_316
p3488
VS1_318
p3489
ssg574
I314
sg57
g1660
sbsg1727
VV
p3490
sg1729
I1
sg57
VSPLASH
p3491
sg1730
(iconstruction
TP_SEMFRAME
p3492
(dp3493
g87
g0
(g88
g2
Ntp3494
Rp3495
(dp3496
g92
(dp3497
(iconstruction
TP_NODE
p3498
(dp3499
g1739
I00
sg76
g606
sg57
g3488
sg1740
I00
sg1741
I00
sg574
I316
sb(dp3500
g1740
I00
sg76
g606
ss(iconstruction
TP_NODE
p3501
(dp3502
g1739
I01
sg76
g576
sg57
VACT_315
p3503
sg1740
I01
sg1741
I00
sg574
I315
sb(dp3504
g1740
I01
sg76
g576
sssg275
g276
sg277
g276
sg278
(dp3505
g3498
(dp3506
sg3501
(dp3507
g3498
(dp3508
g76
g723
ssssg472
g3505
sg87
(dp3509
sg474
g276
sg475
g3505
sg476
(dp3510
g3498
(dp3511
g3501
g3508
ssg3501
(dp3512
ssbsg569
(lp3513
g3501
ag3498
asg842
(lp3514
(iconstruction
TP_REL
p3515
(dp3516
g848
g3498
sg76
g723
sg574
I317
sg849
g3501
sg57
VIS_317
p3517
sbasg574
I312
sg57
g1660
sbsg1755
(iconstruction
TP_SYNFORM
p3518
(dp3519
g574
I313
sg1758
(lp3520
(iconstruction
TP_PHON
p3521
(dp3522
g1768
I6
sg1765
I0
sg574
I318
sg1769
Vsplash
p3523
sg57
g3489
sbasg57
g1660
sbsg1776
I1
sba(iconstruction
CXN
p3524
(dp3525
g1718
(iconstruction
TP_SYMLINKS
p3526
(dp3527
g1721
(dp3528
VN1_323
p3529
VS1_325
p3530
ssg574
I321
sg57
g1660
sbsg1727
VV
p3531
sg1729
I1
sg57
VGIVE
p3532
sg1730
(iconstruction
TP_SEMFRAME
p3533
(dp3534
g87
g0
(g88
g2
Ntp3535
Rp3536
(dp3537
g92
(dp3538
(iconstruction
TP_NODE
p3539
(dp3540
g1739
I01
sg76
g576
sg57
VACT_322
p3541
sg1740
I01
sg1741
I00
sg574
I322
sb(dp3542
g1740
I01
sg76
g576
ss(iconstruction
TP_NODE
p3543
(dp3544
g1739
I00
sg76
g630
sg57
g3529
sg1740
I00
sg1741
I00
sg574
I323
sb(dp3545
g1740
I00
sg76
g630
sssg275
g276
sg277
g276
sg278
(dp3546
g3539
(dp3547
g3543
(dp3548
g76
g723
sssg3543
(dp3549
ssg472
g3546
sg87
(dp3550
sg474
g276
sg475
g3546
sg476
(dp3551
g3539
(dp3552
sg3543
(dp3553
g3539
g3548
sssbsg569
(lp3554
g3539
ag3543
asg842
(lp3555
(iconstruction
TP_REL
p3556
(dp3557
g848
g3543
sg76
g723
sg574
I324
sg849
g3539
sg57
VIS_324
p3558
sbasg574
I319
sg57
g1660
sbsg1755
(iconstruction
TP_SYNFORM
p3559
(dp3560
g574
I320
sg1758
(lp3561
(iconstruction
TP_PHON
p3562
(dp3563
g1768
I4
sg1765
I0
sg574
I325
sg1769
Vgive
p3564
sg57
g3530
sbasg57
g1660
sbsg1776
I1
sba(iconstruction
CXN
p3565
(dp3566
g1718
(iconstruction
TP_SYMLINKS
p3567
(dp3568
g1721
(dp3569
VN1_330
p3570
VS1_332
p3571
ssg574
I328
sg57
g1660
sbsg1727
VV
p3572
sg1729
I1
sg57
VSEND
p3573
sg1730
(iconstruction
TP_SEMFRAME
p3574
(dp3575
g87
g0
(g88
g2
Ntp3576
Rp3577
(dp3578
g92
(dp3579
(iconstruction
TP_NODE
p3580
(dp3581
g1739
I00
sg76
g627
sg57
g3570
sg1740
I00
sg1741
I00
sg574
I330
sb(dp3582
g1740
I00
sg76
g627
ss(iconstruction
TP_NODE
p3583
(dp3584
g1739
I01
sg76
g576
sg57
VACT_329
p3585
sg1740
I01
sg1741
I00
sg574
I329
sb(dp3586
g1740
I01
sg76
g576
sssg275
g276
sg277
g276
sg278
(dp3587
g3580
(dp3588
sg3583
(dp3589
g3580
(dp3590
g76
g723
ssssg472
g3587
sg87
(dp3591
sg474
g276
sg475
g3587
sg476
(dp3592
g3580
(dp3593
g3583
g3590
ssg3583
(dp3594
ssbsg569
(lp3595
g3583
ag3580
asg842
(lp3596
(iconstruction
TP_REL
p3597
(dp3598
g848
g3580
sg76
g723
sg574
I331
sg849
g3583
sg57
VIS_331
p3599
sbasg574
I326
sg57
g1660
sbsg1755
(iconstruction
TP_SYNFORM
p3600
(dp3601
g574
I327
sg1758
(lp3602
(iconstruction
TP_PHON
p3603
(dp3604
g1768
I4
sg1765
I0
sg574
I332
sg1769
Vsend
p3605
sg57
g3571
sbasg57
g1660
sbsg1776
I1
sba(iconstruction
CXN
p3606
(dp3607
g1718
(iconstruction
TP_SYMLINKS
p3608
(dp3609
g1721
(dp3610
VN1_337
p3611
VS1_339
p3612
ssg574
I335
sg57
g1660
sbsg1727
VV
p3613
sg1729
I1
sg57
VMEET
p3614
sg1730
(iconstruction
TP_SEMFRAME
p3615
(dp3616
g87
g0
(g88
g2
Ntp3617
Rp3618
(dp3619
g92
(dp3620
(iconstruction
TP_NODE
p3621
(dp3622
g1739
I01
sg76
g576
sg57
VACT_336
p3623
sg1740
I01
sg1741
I00
sg574
I336
sb(dp3624
g1740
I01
sg76
g576
ss(iconstruction
TP_NODE
p3625
(dp3626
g1739
I00
sg76
g582
sg57
g3611
sg1740
I00
sg1741
I00
sg574
I337
sb(dp3627
g1740
I00
sg76
g582
sssg275
g276
sg277
g276
sg278
(dp3628
g3621
(dp3629
g3625
(dp3630
g76
g723
sssg3625
(dp3631
ssg472
g3628
sg87
(dp3632
sg474
g276
sg475
g3628
sg476
(dp3633
g3621
(dp3634
sg3625
(dp3635
g3621
g3630
sssbsg569
(lp3636
g3621
ag3625
asg842
(lp3637
(iconstruction
TP_REL
p3638
(dp3639
g848
g3625
sg76
g723
sg574
I338
sg849
g3621
sg57
VIS_338
p3640
sbasg574
I333
sg57
g1660
sbsg1755
(iconstruction
TP_SYNFORM
p3641
(dp3642
g574
I334
sg1758
(lp3643
(iconstruction
TP_PHON
p3644
(dp3645
g1768
I4
sg1765
I0
sg574
I339
sg1769
Vmeet
p3646
sg57
g3612
sbasg57
g1660
sbsg1776
I1
sba(iconstruction
CXN
p3647
(dp3648
g1718
(iconstruction
TP_SYMLINKS
p3649
(dp3650
g1721
(dp3651
VN1_344
p3652
VS1_346
p3653
ssg574
I342
sg57
g1660
sbsg1727
VV
p3654
sg1729
I1
sg57
VKISS
p3655
sg1730
(iconstruction
TP_SEMFRAME
p3656
(dp3657
g87
g0
(g88
g2
Ntp3658
Rp3659
(dp3660
g92
(dp3661
(iconstruction
TP_NODE
p3662
(dp3663
g1739
I01
sg76
g576
sg57
VACT_343
p3664
sg1740
I01
sg1741
I00
sg574
I343
sb(dp3665
g1740
I01
sg76
g576
ss(iconstruction
TP_NODE
p3666
(dp3667
g1739
I00
sg76
g612
sg57
g3652
sg1740
I00
sg1741
I00
sg574
I344
sb(dp3668
g1740
I00
sg76
g612
sssg275
g276
sg277
g276
sg278
(dp3669
g3662
(dp3670
g3666
(dp3671
g76
g723
sssg3666
(dp3672
ssg472
g3669
sg87
(dp3673
sg474
g276
sg475
g3669
sg476
(dp3674
g3662
(dp3675
sg3666
(dp3676
g3662
g3671
sssbsg569
(lp3677
g3662
ag3666
asg842
(lp3678
(iconstruction
TP_REL
p3679
(dp3680
g848
g3666
sg76
g723
sg574
I345
sg849
g3662
sg57
VIS_345
p3681
sbasg574
I340
sg57
g1660
sbsg1755
(iconstruction
TP_SYNFORM
p3682
(dp3683
g574
I341
sg1758
(lp3684
(iconstruction
TP_PHON
p3685
(dp3686
g1768
I4
sg1765
I0
sg574
I346
sg1769
Vkiss
p3687
sg57
g3653
sbasg57
g1660
sbsg1776
I1
sba(iconstruction
CXN
p3688
(dp3689
g1718
(iconstruction
TP_SYMLINKS
p3690
(dp3691
g1721
(dp3692
VN1_351
p3693
VS1_353
p3694
ssg574
I349
sg57
g1660
sbsg1727
VV
p3695
sg1729
I1
sg57
VSHAKE_HANDS
p3696
sg1730
(iconstruction
TP_SEMFRAME
p3697
(dp3698
g87
g0
(g88
g2
Ntp3699
Rp3700
(dp3701
g92
(dp3702
(iconstruction
TP_NODE
p3703
(dp3704
g1739
I00
sg76
g585
sg57
g3693
sg1740
I00
sg1741
I00
sg574
I351
sb(dp3705
g1740
I00
sg76
g585
ss(iconstruction
TP_NODE
p3706
(dp3707
g1739
I01
sg76
g576
sg57
VACT_350
p3708
sg1740
I01
sg1741
I00
sg574
I350
sb(dp3709
g1740
I01
sg76
g576
sssg275
g276
sg277
g276
sg278
(dp3710
g3703
(dp3711
sg3706
(dp3712
g3703
(dp3713
g76
g723
ssssg472
g3710
sg87
(dp3714
sg474
g276
sg475
g3710
sg476
(dp3715
g3703
(dp3716
g3706
g3713
ssg3706
(dp3717
ssbsg569
(lp3718
g3706
ag3703
asg842
(lp3719
(iconstruction
TP_REL
p3720
(dp3721
g848
g3703
sg76
g723
sg574
I352
sg849
g3706
sg57
VIS_352
p3722
sbasg574
I347
sg57
g1660
sbsg1755
(iconstruction
TP_SYNFORM
p3723
(dp3724
g574
I348
sg1758
(lp3725
(iconstruction
TP_PHON
p3726
(dp3727
g1768
I10
sg1765
I0
sg574
I353
sg1769
Vshake hands
p3728
sg57
g3694
sbasg57
g1660
sbsg1776
I1
sba(iconstruction
CXN
p3729
(dp3730
g1718
(iconstruction
TP_SYMLINKS
p3731
(dp3732
g1721
(dp3733
VN1_357
p3734
VS1_358
p3735
ssg574
I356
sg57
g1660
sbsg1727
VA
p3736
sg1729
I1
sg57
VBLUE
p3737
sg1730
(iconstruction
TP_SEMFRAME
p3738
(dp3739
g87
g0
(g88
g2
Ntp3740
Rp3741
(dp3742
g92
(dp3743
(iconstruction
TP_NODE
p3744
(dp3745
g1739
I01
sg76
g639
sg57
g3734
sg1740
I00
sg1741
I00
sg574
I357
sb(dp3746
g1740
I00
sg76
g639
sssg275
g276
sg277
g276
sg278
(dp3747
g3744
(dp3748
ssg472
g3747
sg87
(dp3749
sg474
g276
sg475
g3747
sg476
(dp3750
g3744
(dp3751
ssbsg569
(lp3752
g3744
asg842
(lp3753
sg574
I354
sg57
g1660
sbsg1755
(iconstruction
TP_SYNFORM
p3754
(dp3755
g574
I355
sg1758
(lp3756
(iconstruction
TP_PHON
p3757
(dp3758
g1768
I4
sg1765
I0
sg574
I358
sg1769
Vblue
p3759
sg57
g3735
sbasg57
g1660
sbsg1776
I1
sba(iconstruction
CXN
p3760
(dp3761
g1718
(iconstruction
TP_SYMLINKS
p3762
(dp3763
g1721
(dp3764
VN1_362
p3765
VS1_363
p3766
ssg574
I361
sg57
g1660
sbsg1727
VA
p3767
sg1729
I1
sg57
VBLACK
p3768
sg1730
(iconstruction
TP_SEMFRAME
p3769
(dp3770
g87
g0
(g88
g2
Ntp3771
Rp3772
(dp3773
g92
(dp3774
(iconstruction
TP_NODE
p3775
(dp3776
g1739
I01
sg76
g648
sg57
g3765
sg1740
I00
sg1741
I00
sg574
I362
sb(dp3777
g1740
I00
sg76
g648
sssg275
g276
sg277
g276
sg278
(dp3778
g3775
(dp3779
ssg472
g3778
sg87
(dp3780
sg474
g276
sg475
g3778
sg476
(dp3781
g3775
(dp3782
ssbsg569
(lp3783
g3775
asg842
(lp3784
sg574
I359
sg57
g1660
sbsg1755
(iconstruction
TP_SYNFORM
p3785
(dp3786
g574
I360
sg1758
(lp3787
(iconstruction
TP_PHON
p3788
(dp3789
g1768
I5
sg1765
I0
sg574
I363
sg1769
Vblack
p3790
sg57
g3766
sbasg57
g1660
sbsg1776
I1
sba(iconstruction
CXN
p3791
(dp3792
g1718
(iconstruction
TP_SYMLINKS
p3793
(dp3794
g1721
(dp3795
VN1_367
p3796
VS1_368
p3797
ssg574
I366
sg57
g1660
sbsg1727
VA
p3798
sg1729
I1
sg57
VGREEN
p3799
sg1730
(iconstruction
TP_SEMFRAME
p3800
(dp3801
g87
g0
(g88
g2
Ntp3802
Rp3803
(dp3804
g92
(dp3805
(iconstruction
TP_NODE
p3806
(dp3807
g1739
I01
sg76
g642
sg57
g3796
sg1740
I00
sg1741
I00
sg574
I367
sb(dp3808
g1740
I00
sg76
g642
sssg275
g276
sg277
g276
sg278
(dp3809
g3806
(dp3810
ssg472
g3809
sg87
(dp3811
sg474
g276
sg475
g3809
sg476
(dp3812
g3806
(dp3813
ssbsg569
(lp3814
g3806
asg842
(lp3815
sg574
I364
sg57
g1660
sbsg1755
(iconstruction
TP_SYNFORM
p3816
(dp3817
g574
I365
sg1758
(lp3818
(iconstruction
TP_PHON
p3819
(dp3820
g1768
I5
sg1765
I0
sg574
I368
sg1769
Vgreen
p3821
sg57
g3797
sbasg57
g1660
sbsg1776
I1
sba(iconstruction
CXN
p3822
(dp3823
g1718
(iconstruction
TP_SYMLINKS
p3824
(dp3825
g1721
(dp3826
VN1_372
p3827
VS1_373
p3828
ssg574
I371
sg57
g1660
sbsg1727
VA
p3829
sg1729
I1
sg57
VSMALL
p3830
sg1730
(iconstruction
TP_SEMFRAME
p3831
(dp3832
g87
g0
(g88
g2
Ntp3833
Rp3834
(dp3835
g92
(dp3836
(iconstruction
TP_NODE
p3837
(dp3838
g1739
I01
sg76
g669
sg57
g3827
sg1740
I00
sg1741
I00
sg574
I372
sb(dp3839
g1740
I00
sg76
g669
sssg275
g276
sg277
g276
sg278
(dp3840
g3837
(dp3841
ssg472
g3840
sg87
(dp3842
sg474
g276
sg475
g3840
sg476
(dp3843
g3837
(dp3844
ssbsg569
(lp3845
g3837
asg842
(lp3846
sg574
I369
sg57
g1660
sbsg1755
(iconstruction
TP_SYNFORM
p3847
(dp3848
g574
I370
sg1758
(lp3849
(iconstruction
TP_PHON
p3850
(dp3851
g1768
I5
sg1765
I0
sg574
I373
sg1769
Vsmall
p3852
sg57
g3828
sbasg57
g1660
sbsg1776
I1
sba(iconstruction
CXN
p3853
(dp3854
g1718
(iconstruction
TP_SYMLINKS
p3855
(dp3856
g1721
(dp3857
VN1_377
p3858
VS1_378
p3859
ssg574
I376
sg57
g1660
sbsg1727
VA
p3860
sg1729
I1
sg57
VBIG
p3861
sg1730
(iconstruction
TP_SEMFRAME
p3862
(dp3863
g87
g0
(g88
g2
Ntp3864
Rp3865
(dp3866
g92
(dp3867
(iconstruction
TP_NODE
p3868
(dp3869
g1739
I01
sg76
g672
sg57
g3858
sg1740
I00
sg1741
I00
sg574
I377
sb(dp3870
g1740
I00
sg76
g672
sssg275
g276
sg277
g276
sg278
(dp3871
g3868
(dp3872
ssg472
g3871
sg87
(dp3873
sg474
g276
sg475
g3871
sg476
(dp3874
g3868
(dp3875
ssbsg569
(lp3876
g3868
asg842
(lp3877
sg574
I374
sg57
g1660
sbsg1755
(iconstruction
TP_SYNFORM
p3878
(dp3879
g574
I375
sg1758
(lp3880
(iconstruction
TP_PHON
p3881
(dp3882
g1768
I3
sg1765
I0
sg574
I378
sg1769
Vbig
p3883
sg57
g3859
sbasg57
g1660
sbsg1776
I1
sba(iconstruction
CXN
p3884
(dp3885
g1718
(iconstruction
TP_SYMLINKS
p3886
(dp3887
g1721
(dp3888
VN1_382
p3889
VS1_383
p3890
ssg574
I381
sg57
g1660
sbsg1727
VA
p3891
sg1729
I1
sg57
VHANDSOME
p3892
sg1730
(iconstruction
TP_SEMFRAME
p3893
(dp3894
g87
g0
(g88
g2
Ntp3895
Rp3896
(dp3897
g92
(dp3898
(iconstruction
TP_NODE
p3899
(dp3900
g1739
I01
sg76
g663
sg57
g3889
sg1740
I00
sg1741
I00
sg574
I382
sb(dp3901
g1740
I00
sg76
g663
sssg275
g276
sg277
g276
sg278
(dp3902
g3899
(dp3903
ssg472
g3902
sg87
(dp3904
sg474
g276
sg475
g3902
sg476
(dp3905
g3899
(dp3906
ssbsg569
(lp3907
g3899
asg842
(lp3908
sg574
I379
sg57
g1660
sbsg1755
(iconstruction
TP_SYNFORM
p3909
(dp3910
g574
I380
sg1758
(lp3911
(iconstruction
TP_PHON
p3912
(dp3913
g1768
I8
sg1765
I0
sg574
I383
sg1769
Vhandsome
p3914
sg57
g3890
sbasg57
g1660
sbsg1776
I1
sba(iconstruction
CXN
p3915
(dp3916
g1718
(iconstruction
TP_SYMLINKS
p3917
(dp3918
g1721
(dp3919
VN1_387
p3920
VS1_388
p3921
ssg574
I386
sg57
g1660
sbsg1727
VA
p3922
sg1729
I1
sg57
VPRETTY
p3923
sg1730
(iconstruction
TP_SEMFRAME
p3924
(dp3925
g87
g0
(g88
g2
Ntp3926
Rp3927
(dp3928
g92
(dp3929
(iconstruction
TP_NODE
p3930
(dp3931
g1739
I01
sg76
g660
sg57
g3920
sg1740
I00
sg1741
I00
sg574
I387
sb(dp3932
g1740
I00
sg76
g660
sssg275
g276
sg277
g276
sg278
(dp3933
g3930
(dp3934
ssg472
g3933
sg87
(dp3935
sg474
g276
sg475
g3933
sg476
(dp3936
g3930
(dp3937
ssbsg569
(lp3938
g3930
asg842
(lp3939
sg574
I384
sg57
g1660
sbsg1755
(iconstruction
TP_SYNFORM
p3940
(dp3941
g574
I385
sg1758
(lp3942
(iconstruction
TP_PHON
p3943
(dp3944
g1768
I6
sg1765
I0
sg574
I388
sg1769
Vpretty
p3945
sg57
g3921
sbasg57
g1660
sbsg1776
I1
sba(iconstruction
CXN
p3946
(dp3947
g1718
(iconstruction
TP_SYMLINKS
p3948
(dp3949
g1721
(dp3950
VN1_392
p3951
VS1_393
p3952
ssg574
I391
sg57
g1660
sbsg1727
VA
p3953
sg1729
I1
sg57
VYOUNG
p3954
sg1730
(iconstruction
TP_SEMFRAME
p3955
(dp3956
g87
g0
(g88
g2
Ntp3957
Rp3958
(dp3959
g92
(dp3960
(iconstruction
TP_NODE
p3961
(dp3962
g1739
I01
sg76
g657
sg57
g3951
sg1740
I00
sg1741
I00
sg574
I392
sb(dp3963
g1740
I00
sg76
g657
sssg275
g276
sg277
g276
sg278
(dp3964
g3961
(dp3965
ssg472
g3964
sg87
(dp3966
sg474
g276
sg475
g3964
sg476
(dp3967
g3961
(dp3968
ssbsg569
(lp3969
g3961
asg842
(lp3970
sg574
I389
sg57
g1660
sbsg1755
(iconstruction
TP_SYNFORM
p3971
(dp3972
g574
I390
sg1758
(lp3973
(iconstruction
TP_PHON
p3974
(dp3975
g1768
I5
sg1765
I0
sg574
I393
sg1769
Vyoung
p3976
sg57
g3952
sbasg57
g1660
sbsg1776
I1
sba(iconstruction
CXN
p3977
(dp3978
g1718
(iconstruction
TP_SYMLINKS
p3979
(dp3980
g1721
(dp3981
VN1_398
p3982
VS1_400
p3983
ssg574
I396
sg57
g1660
sbsg1727
VN
p3984
sg1729
I1
sg57
VWOMAN
p3985
sg1730
(iconstruction
TP_SEMFRAME
p3986
(dp3987
g87
g0
(g88
g2
Ntp3988
Rp3989
(dp3990
g92
(dp3991
(iconstruction
TP_NODE
p3992
(dp3993
g1739
I00
sg76
g798
sg57
g3982
sg1740
I00
sg1741
I00
sg574
I398
sb(dp3994
g1740
I00
sg76
g798
ss(iconstruction
TP_NODE
p3995
(dp3996
g1739
I01
sg76
g732
sg57
VENT_397
p3997
sg1740
I01
sg1741
I00
sg574
I397
sb(dp3998
g1740
I01
sg76
g732
sssg275
g276
sg277
g276
sg278
(dp3999
g3992
(dp4000
sg3995
(dp4001
g3992
(dp4002
g76
g723
ssssg472
g3999
sg87
(dp4003
sg474
g276
sg475
g3999
sg476
(dp4004
g3992
(dp4005
g3995
g4002
ssg3995
(dp4006
ssbsg569
(lp4007
g3995
ag3992
asg842
(lp4008
(iconstruction
TP_REL
p4009
(dp4010
g848
g3992
sg76
g723
sg574
I399
sg849
g3995
sg57
VIS_399
p4011
sbasg574
I394
sg57
g1660
sbsg1755
(iconstruction
TP_SYNFORM
p4012
(dp4013
g574
I395
sg1758
(lp4014
(iconstruction
TP_PHON
p4015
(dp4016
g1768
I5
sg1765
I0
sg574
I400
sg1769
Vwoman
p4017
sg57
g3983
sbasg57
g1660
sbsg1776
I1
sba(iconstruction
CXN
p4018
(dp4019
g1718
(iconstruction
TP_SYMLINKS
p4020
(dp4021
g1721
(dp4022
VN1_405
p4023
VS1_407
p4024
ssg574
I403
sg57
g1660
sbsg1727
VN
p4025
sg1729
I1
sg57
VWOMAN2
p4026
sg1730
(iconstruction
TP_SEMFRAME
p4027
(dp4028
g87
g0
(g88
g2
Ntp4029
Rp4030
(dp4031
g92
(dp4032
(iconstruction
TP_NODE
p4033
(dp4034
g1739
I01
sg76
g732
sg57
VENT_404
p4035
sg1740
I01
sg1741
I00
sg574
I404
sb(dp4036
g1740
I01
sg76
g732
ss(iconstruction
TP_NODE
p4037
(dp4038
g1739
I00
sg76
g798
sg57
g4023
sg1740
I00
sg1741
I00
sg574
I405
sb(dp4039
g1740
I00
sg76
g798
sssg275
g276
sg277
g276
sg278
(dp4040
g4033
(dp4041
g4037
(dp4042
g76
g723
sssg4037
(dp4043
ssg472
g4040
sg87
(dp4044
sg474
g276
sg475
g4040
sg476
(dp4045
g4033
(dp4046
sg4037
(dp4047
g4033
g4042
sssbsg569
(lp4048
g4033
ag4037
asg842
(lp4049
(iconstruction
TP_REL
p4050
(dp4051
g848
g4037
sg76
g723
sg574
I406
sg849
g4033
sg57
VIS_406
p4052
sbasg574
I401
sg57
g1660
sbsg1755
(iconstruction
TP_SYNFORM
p4053
(dp4054
g574
I402
sg1758
(lp4055
(iconstruction
TP_PHON
p4056
(dp4057
g1768
I4
sg1765
I0
sg574
I407
sg1769
Vlady
p4058
sg57
g4024
sbasg57
g1660
sbsg1776
I1
sba(iconstruction
CXN
p4059
(dp4060
g1718
(iconstruction
TP_SYMLINKS
p4061
(dp4062
g1721
(dp4063
VN1_412
p4064
VS1_414
p4065
ssg574
I410
sg57
g1660
sbsg1727
VN
p4066
sg1729
I1
sg57
VMAN
p4067
sg1730
(iconstruction
TP_SEMFRAME
p4068
(dp4069
g87
g0
(g88
g2
Ntp4070
Rp4071
(dp4072
g92
(dp4073
(iconstruction
TP_NODE
p4074
(dp4075
g1739
I00
sg76
g825
sg57
g4064
sg1740
I00
sg1741
I00
sg574
I412
sb(dp4076
g1740
I00
sg76
g825
ss(iconstruction
TP_NODE
p4077
(dp4078
g1739
I01
sg76
g732
sg57
VENT_411
p4079
sg1740
I01
sg1741
I00
sg574
I411
sb(dp4080
g1740
I01
sg76
g732
sssg275
g276
sg277
g276
sg278
(dp4081
g4074
(dp4082
sg4077
(dp4083
g4074
(dp4084
g76
g723
ssssg472
g4081
sg87
(dp4085
sg474
g276
sg475
g4081
sg476
(dp4086
g4074
(dp4087
g4077
g4084
ssg4077
(dp4088
ssbsg569
(lp4089
g4077
ag4074
asg842
(lp4090
(iconstruction
TP_REL
p4091
(dp4092
g848
g4074
sg76
g723
sg574
I413
sg849
g4077
sg57
VIS_413
p4093
sbasg574
I408
sg57
g1660
sbsg1755
(iconstruction
TP_SYNFORM
p4094
(dp4095
g574
I409
sg1758
(lp4096
(iconstruction
TP_PHON
p4097
(dp4098
g1768
I3
sg1765
I0
sg574
I414
sg1769
Vman
p4099
sg57
g4065
sbasg57
g1660
sbsg1776
I1
sba(iconstruction
CXN
p4100
(dp4101
g1718
(iconstruction
TP_SYMLINKS
p4102
(dp4103
g1721
(dp4104
VN1_419
p4105
VS1_421
p4106
ssg574
I417
sg57
g1660
sbsg1727
VN
p4107
sg1729
I1
sg57
VGIRL
p4108
sg1730
(iconstruction
TP_SEMFRAME
p4109
(dp4110
g87
g0
(g88
g2
Ntp4111
Rp4112
(dp4113
g92
(dp4114
(iconstruction
TP_NODE
p4115
(dp4116
g1739
I00
sg76
g816
sg57
g4105
sg1740
I00
sg1741
I00
sg574
I419
sb(dp4117
g1740
I00
sg76
g816
ss(iconstruction
TP_NODE
p4118
(dp4119
g1739
I01
sg76
g732
sg57
VENT_418
p4120
sg1740
I01
sg1741
I00
sg574
I418
sb(dp4121
g1740
I01
sg76
g732
sssg275
g276
sg277
g276
sg278
(dp4122
g4115
(dp4123
sg4118
(dp4124
g4115
(dp4125
g76
g723
ssssg472
g4122
sg87
(dp4126
sg474
g276
sg475
g4122
sg476
(dp4127
g4115
(dp4128
g4118
g4125
ssg4118
(dp4129
ssbsg569
(lp4130
g4118
ag4115
asg842
(lp4131
(iconstruction
TP_REL
p4132
(dp4133
g848
g4115
sg76
g723
sg574
I420
sg849
g4118
sg57
VIS_420
p4134
sbasg574
I415
sg57
g1660
sbsg1755
(iconstruction
TP_SYNFORM
p4135
(dp4136
g574
I416
sg1758
(lp4137
(iconstruction
TP_PHON
p4138
(dp4139
g1768
I4
sg1765
I0
sg574
I421
sg1769
Vgirl
p4140
sg57
g4106
sbasg57
g1660
sbsg1776
I1
sba(iconstruction
CXN
p4141
(dp4142
g1718
(iconstruction
TP_SYMLINKS
p4143
(dp4144
g1721
(dp4145
VN1_426
p4146
VS1_428
p4147
ssg574
I424
sg57
g1660
sbsg1727
VN
p4148
sg1729
I1
sg57
VBOY
p4149
sg1730
(iconstruction
TP_SEMFRAME
p4150
(dp4151
g87
g0
(g88
g2
Ntp4152
Rp4153
(dp4154
g92
(dp4155
(iconstruction
TP_NODE
p4156
(dp4157
g1739
I01
sg76
g732
sg57
VENT_425
p4158
sg1740
I01
sg1741
I00
sg574
I425
sb(dp4159
g1740
I01
sg76
g732
ss(iconstruction
TP_NODE
p4160
(dp4161
g1739
I00
sg76
g795
sg57
g4146
sg1740
I00
sg1741
I00
sg574
I426
sb(dp4162
g1740
I00
sg76
g795
sssg275
g276
sg277
g276
sg278
(dp4163
g4156
(dp4164
g4160
(dp4165
g76
g723
sssg4160
(dp4166
ssg472
g4163
sg87
(dp4167
sg474
g276
sg475
g4163
sg476
(dp4168
g4156
(dp4169
sg4160
(dp4170
g4156
g4165
sssbsg569
(lp4171
g4156
ag4160
asg842
(lp4172
(iconstruction
TP_REL
p4173
(dp4174
g848
g4160
sg76
g723
sg574
I427
sg849
g4156
sg57
VIS_427
p4175
sbasg574
I422
sg57
g1660
sbsg1755
(iconstruction
TP_SYNFORM
p4176
(dp4177
g574
I423
sg1758
(lp4178
(iconstruction
TP_PHON
p4179
(dp4180
g1768
I3
sg1765
I0
sg574
I428
sg1769
Vboy
p4181
sg57
g4147
sbasg57
g1660
sbsg1776
I1
sba(iconstruction
CXN
p4182
(dp4183
g1718
(iconstruction
TP_SYMLINKS
p4184
(dp4185
g1721
(dp4186
VN1_433
p4187
VS1_435
p4188
ssg574
I431
sg57
g1660
sbsg1727
VN
p4189
sg1729
I1
sg57
VPEOPLE
p4190
sg1730
(iconstruction
TP_SEMFRAME
p4191
(dp4192
g87
g0
(g88
g2
Ntp4193
Rp4194
(dp4195
g92
(dp4196
(iconstruction
TP_NODE
p4197
(dp4198
g1739
I00
sg76
g801
sg57
g4187
sg1740
I00
sg1741
I00
sg574
I433
sb(dp4199
g1740
I00
sg76
g801
ss(iconstruction
TP_NODE
p4200
(dp4201
g1739
I01
sg76
g732
sg57
VENT_432
p4202
sg1740
I01
sg1741
I00
sg574
I432
sb(dp4203
g1740
I01
sg76
g732
sssg275
g276
sg277
g276
sg278
(dp4204
g4197
(dp4205
sg4200
(dp4206
g4197
(dp4207
g76
g723
ssssg472
g4204
sg87
(dp4208
sg474
g276
sg475
g4204
sg476
(dp4209
g4197
(dp4210
g4200
g4207
ssg4200
(dp4211
ssbsg569
(lp4212
g4200
ag4197
asg842
(lp4213
(iconstruction
TP_REL
p4214
(dp4215
g848
g4197
sg76
g723
sg574
I434
sg849
g4200
sg57
VIS_434
p4216
sbasg574
I429
sg57
g1660
sbsg1755
(iconstruction
TP_SYNFORM
p4217
(dp4218
g574
I430
sg1758
(lp4219
(iconstruction
TP_PHON
p4220
(dp4221
g1768
I6
sg1765
I0
sg574
I435
sg1769
Vpeople
p4222
sg57
g4188
sbasg57
g1660
sbsg1776
I1
sba(iconstruction
CXN
p4223
(dp4224
g1718
(iconstruction
TP_SYMLINKS
p4225
(dp4226
g1721
(dp4227
VN1_440
p4228
VS1_442
p4229
ssg574
I438
sg57
g1660
sbsg1727
VN
p4230
sg1729
I1
sg57
VMOUSE
p4231
sg1730
(iconstruction
TP_SEMFRAME
p4232
(dp4233
g87
g0
(g88
g2
Ntp4234
Rp4235
(dp4236
g92
(dp4237
(iconstruction
TP_NODE
p4238
(dp4239
g1739
I01
sg76
g732
sg57
VENT_439
p4240
sg1740
I01
sg1741
I00
sg574
I439
sb(dp4241
g1740
I01
sg76
g732
ss(iconstruction
TP_NODE
p4242
(dp4243
g1739
I00
sg76
g789
sg57
g4228
sg1740
I00
sg1741
I00
sg574
I440
sb(dp4244
g1740
I00
sg76
g789
sssg275
g276
sg277
g276
sg278
(dp4245
g4238
(dp4246
g4242
(dp4247
g76
g723
sssg4242
(dp4248
ssg472
g4245
sg87
(dp4249
sg474
g276
sg475
g4245
sg476
(dp4250
g4238
(dp4251
sg4242
(dp4252
g4238
g4247
sssbsg569
(lp4253
g4238
ag4242
asg842
(lp4254
(iconstruction
TP_REL
p4255
(dp4256
g848
g4242
sg76
g723
sg574
I441
sg849
g4238
sg57
VIS_441
p4257
sbasg574
I436
sg57
g1660
sbsg1755
(iconstruction
TP_SYNFORM
p4258
(dp4259
g574
I437
sg1758
(lp4260
(iconstruction
TP_PHON
p4261
(dp4262
g1768
I5
sg1765
I0
sg574
I442
sg1769
Vmouse
p4263
sg57
g4229
sbasg57
g1660
sbsg1776
I1
sba(iconstruction
CXN
p4264
(dp4265
g1718
(iconstruction
TP_SYMLINKS
p4266
(dp4267
g1721
(dp4268
VN1_447
p4269
VS1_449
p4270
ssg574
I445
sg57
g1660
sbsg1727
VN
p4271
sg1729
I1
sg57
VTURTLE
p4272
sg1730
(iconstruction
TP_SEMFRAME
p4273
(dp4274
g87
g0
(g88
g2
Ntp4275
Rp4276
(dp4277
g92
(dp4278
(iconstruction
TP_NODE
p4279
(dp4280
g1739
I00
sg76
g786
sg57
g4269
sg1740
I00
sg1741
I00
sg574
I447
sb(dp4281
g1740
I00
sg76
g786
ss(iconstruction
TP_NODE
p4282
(dp4283
g1739
I01
sg76
g732
sg57
VENT_446
p4284
sg1740
I01
sg1741
I00
sg574
I446
sb(dp4285
g1740
I01
sg76
g732
sssg275
g276
sg277
g276
sg278
(dp4286
g4279
(dp4287
sg4282
(dp4288
g4279
(dp4289
g76
g723
ssssg472
g4286
sg87
(dp4290
sg474
g276
sg475
g4286
sg476
(dp4291
g4279
(dp4292
g4282
g4289
ssg4282
(dp4293
ssbsg569
(lp4294
g4282
ag4279
asg842
(lp4295
(iconstruction
TP_REL
p4296
(dp4297
g848
g4279
sg76
g723
sg574
I448
sg849
g4282
sg57
VIS_448
p4298
sbasg574
I443
sg57
g1660
sbsg1755
(iconstruction
TP_SYNFORM
p4299
(dp4300
g574
I444
sg1758
(lp4301
(iconstruction
TP_PHON
p4302
(dp4303
g1768
I6
sg1765
I0
sg574
I449
sg1769
Vturtle
p4304
sg57
g4270
sbasg57
g1660
sbsg1776
I1
sba(iconstruction
CXN
p4305
(dp4306
g1718
(iconstruction
TP_SYMLINKS
p4307
(dp4308
g1721
(dp4309
VN1_454
p4310
VS1_456
p4311
ssg574
I452
sg57
g1660
sbsg1727
VN
p4312
sg1729
I1
sg57
VDRESS
p4313
sg1730
(iconstruction
TP_SEMFRAME
p4314
(dp4315
g87
g0
(g88
g2
Ntp4316
Rp4317
(dp4318
g92
(dp4319
(iconstruction
TP_NODE
p4320
(dp4321
g1739
I00
sg76
g777
sg57
g4310
sg1740
I00
sg1741
I00
sg574
I454
sb(dp4322
g1740
I00
sg76
g777
ss(iconstruction
TP_NODE
p4323
(dp4324
g1739
I01
sg76
g732
sg57
VENT_453
p4325
sg1740
I01
sg1741
I00
sg574
I453
sb(dp4326
g1740
I01
sg76
g732
sssg275
g276
sg277
g276
sg278
(dp4327
g4320
(dp4328
sg4323
(dp4329
g4320
(dp4330
g76
g723
ssssg472
g4327
sg87
(dp4331
sg474
g276
sg475
g4327
sg476
(dp4332
g4320
(dp4333
g4323
g4330
ssg4323
(dp4334
ssbsg569
(lp4335
g4323
ag4320
asg842
(lp4336
(iconstruction
TP_REL
p4337
(dp4338
g848
g4320
sg76
g723
sg574
I455
sg849
g4323
sg57
VIS_455
p4339
sbasg574
I450
sg57
g1660
sbsg1755
(iconstruction
TP_SYNFORM
p4340
(dp4341
g574
I451
sg1758
(lp4342
(iconstruction
TP_PHON
p4343
(dp4344
g1768
I5
sg1765
I0
sg574
I456
sg1769
Vdress
p4345
sg57
g4311
sbasg57
g1660
sbsg1776
I1
sba(iconstruction
CXN
p4346
(dp4347
g1718
(iconstruction
TP_SYMLINKS
p4348
(dp4349
g1721
(dp4350
VN1_461
p4351
VS1_463
p4352
ssg574
I459
sg57
g1660
sbsg1727
VN
p4353
sg1729
I1
sg57
VTSHIRT
p4354
sg1730
(iconstruction
TP_SEMFRAME
p4355
(dp4356
g87
g0
(g88
g2
Ntp4357
Rp4358
(dp4359
g92
(dp4360
(iconstruction
TP_NODE
p4361
(dp4362
g1739
I01
sg76
g732
sg57
VENT_460
p4363
sg1740
I01
sg1741
I00
sg574
I460
sb(dp4364
g1740
I01
sg76
g732
ss(iconstruction
TP_NODE
p4365
(dp4366
g1739
I00
sg76
g774
sg57
g4351
sg1740
I00
sg1741
I00
sg574
I461
sb(dp4367
g1740
I00
sg76
g774
sssg275
g276
sg277
g276
sg278
(dp4368
g4361
(dp4369
g4365
(dp4370
g76
g723
sssg4365
(dp4371
ssg472
g4368
sg87
(dp4372
sg474
g276
sg475
g4368
sg476
(dp4373
g4361
(dp4374
sg4365
(dp4375
g4361
g4370
sssbsg569
(lp4376
g4361
ag4365
asg842
(lp4377
(iconstruction
TP_REL
p4378
(dp4379
g848
g4365
sg76
g723
sg574
I462
sg849
g4361
sg57
VIS_462
p4380
sbasg574
I457
sg57
g1660
sbsg1755
(iconstruction
TP_SYNFORM
p4381
(dp4382
g574
I458
sg1758
(lp4383
(iconstruction
TP_PHON
p4384
(dp4385
g1768
I6
sg1765
I0
sg574
I463
sg1769
Vt-shirt
p4386
sg57
g4352
sbasg57
g1660
sbsg1776
I1
sba(iconstruction
CXN
p4387
(dp4388
g1718
(iconstruction
TP_SYMLINKS
p4389
(dp4390
g1721
(dp4391
VN1_468
p4392
VS2_471
p4393
ssg574
I466
sg57
g1660
sbsg1727
VN
p4394
sg1729
I1
sg57
VBOXINGRING
p4395
sg1730
(iconstruction
TP_SEMFRAME
p4396
(dp4397
g87
g0
(g88
g2
Ntp4398
Rp4399
(dp4400
g92
(dp4401
(iconstruction
TP_NODE
p4402
(dp4403
g1739
I00
sg76
g831
sg57
g4392
sg1740
I00
sg1741
I00
sg574
I468
sb(dp4404
g1740
I00
sg76
g831
ss(iconstruction
TP_NODE
p4405
(dp4406
g1739
I01
sg76
g732
sg57
VENT_467
p4407
sg1740
I01
sg1741
I00
sg574
I467
sb(dp4408
g1740
I01
sg76
g732
sssg275
g276
sg277
g276
sg278
(dp4409
g4402
(dp4410
sg4405
(dp4411
g4402
(dp4412
g76
g723
ssssg472
g4409
sg87
(dp4413
sg474
g276
sg475
g4409
sg476
(dp4414
g4402
(dp4415
g4405
g4412
ssg4405
(dp4416
ssbsg569
(lp4417
g4405
ag4402
asg842
(lp4418
(iconstruction
TP_REL
p4419
(dp4420
g848
g4402
sg76
g723
sg574
I469
sg849
g4405
sg57
VIS_469
p4421
sbasg574
I464
sg57
g1660
sbsg1755
(iconstruction
TP_SYNFORM
p4422
(dp4423
g574
I465
sg1758
(lp4424
(iconstruction
TP_PHON
p4425
(dp4426
g1768
I6
sg1765
I0
sg574
I470
sg1769
Vboxing
p4427
sg57
VS1_470
p4428
sba(iconstruction
TP_PHON
p4429
(dp4430
g1768
I4
sg1765
I1
sg574
I471
sg1769
Vring
p4431
sg57
g4393
sbasg57
g1660
sbsg1776
I1
sba(iconstruction
CXN
p4432
(dp4433
g1718
(iconstruction
TP_SYMLINKS
p4434
(dp4435
g1721
(dp4436
VN1_476
p4437
VS1_478
p4438
ssg574
I474
sg57
g1660
sbsg1727
VN
p4439
sg1729
I1
sg57
VPARK
p4440
sg1730
(iconstruction
TP_SEMFRAME
p4441
(dp4442
g87
g0
(g88
g2
Ntp4443
Rp4444
(dp4445
g92
(dp4446
(iconstruction
TP_NODE
p4447
(dp4448
g1739
I00
sg76
g834
sg57
g4437
sg1740
I00
sg1741
I00
sg574
I476
sb(dp4449
g1740
I00
sg76
g834
ss(iconstruction
TP_NODE
p4450
(dp4451
g1739
I01
sg76
g732
sg57
VENT_475
p4452
sg1740
I01
sg1741
I00
sg574
I475
sb(dp4453
g1740
I01
sg76
g732
sssg275
g276
sg277
g276
sg278
(dp4454
g4447
(dp4455
sg4450
(dp4456
g4447
(dp4457
g76
g723
ssssg472
g4454
sg87
(dp4458
sg474
g276
sg475
g4454
sg476
(dp4459
g4447
(dp4460
g4450
g4457
ssg4450
(dp4461
ssbsg569
(lp4462
g4450
ag4447
asg842
(lp4463
(iconstruction
TP_REL
p4464
(dp4465
g848
g4447
sg76
g723
sg574
I477
sg849
g4450
sg57
VIS_477
p4466
sbasg574
I472
sg57
g1660
sbsg1755
(iconstruction
TP_SYNFORM
p4467
(dp4468
g574
I473
sg1758
(lp4469
(iconstruction
TP_PHON
p4470
(dp4471
g1768
I4
sg1765
I0
sg574
I478
sg1769
Vpark
p4472
sg57
g4438
sbasg57
g1660
sbsg1776
I1
sba(iconstruction
CXN
p4473
(dp4474
g1718
(iconstruction
TP_SYMLINKS
p4475
(dp4476
g1721
(dp4477
VN1_483
p4478
VS1_485
p4479
ssg574
I481
sg57
g1660
sbsg1727
VN
p4480
sg1729
I1
sg57
VSHIRT
p4481
sg1730
(iconstruction
TP_SEMFRAME
p4482
(dp4483
g87
g0
(g88
g2
Ntp4484
Rp4485
(dp4486
g92
(dp4487
(iconstruction
TP_NODE
p4488
(dp4489
g1739
I01
sg76
g732
sg57
VENT_482
p4490
sg1740
I01
sg1741
I00
sg574
I482
sb(dp4491
g1740
I01
sg76
g732
ss(iconstruction
TP_NODE
p4492
(dp4493
g1739
I00
sg76
g780
sg57
g4478
sg1740
I00
sg1741
I00
sg574
I483
sb(dp4494
g1740
I00
sg76
g780
sssg275
g276
sg277
g276
sg278
(dp4495
g4488
(dp4496
g4492
(dp4497
g76
g723
sssg4492
(dp4498
ssg472
g4495
sg87
(dp4499
sg474
g276
sg475
g4495
sg476
(dp4500
g4488
(dp4501
sg4492
(dp4502
g4488
g4497
sssbsg569
(lp4503
g4488
ag4492
asg842
(lp4504
(iconstruction
TP_REL
p4505
(dp4506
g848
g4492
sg76
g723
sg574
I484
sg849
g4488
sg57
VIS_484
p4507
sbasg574
I479
sg57
g1660
sbsg1755
(iconstruction
TP_SYNFORM
p4508
(dp4509
g574
I480
sg1758
(lp4510
(iconstruction
TP_PHON
p4511
(dp4512
g1768
I5
sg1765
I0
sg574
I485
sg1769
Vshirt
p4513
sg57
g4479
sbasg57
g1660
sbsg1776
I1
sba(iconstruction
CXN
p4514
(dp4515
g1718
(iconstruction
TP_SYMLINKS
p4516
(dp4517
g1721
(dp4518
VN1_490
p4519
VS1_492
p4520
ssg574
I488
sg57
g1660
sbsg1727
VN
p4521
sg1729
I1
sg57
VSUIT
p4522
sg1730
(iconstruction
TP_SEMFRAME
p4523
(dp4524
g87
g0
(g88
g2
Ntp4525
Rp4526
(dp4527
g92
(dp4528
(iconstruction
TP_NODE
p4529
(dp4530
g1739
I00
sg76
g783
sg57
g4519
sg1740
I00
sg1741
I00
sg574
I490
sb(dp4531
g1740
I00
sg76
g783
ss(iconstruction
TP_NODE
p4532
(dp4533
g1739
I01
sg76
g732
sg57
VENT_489
p4534
sg1740
I01
sg1741
I00
sg574
I489
sb(dp4535
g1740
I01
sg76
g732
sssg275
g276
sg277
g276
sg278
(dp4536
g4529
(dp4537
sg4532
(dp4538
g4529
(dp4539
g76
g723
ssssg472
g4536
sg87
(dp4540
sg474
g276
sg475
g4536
sg476
(dp4541
g4529
(dp4542
g4532
g4539
ssg4532
(dp4543
ssbsg569
(lp4544
g4532
ag4529
asg842
(lp4545
(iconstruction
TP_REL
p4546
(dp4547
g848
g4529
sg76
g723
sg574
I491
sg849
g4532
sg57
VIS_491
p4548
sbasg574
I486
sg57
g1660
sbsg1755
(iconstruction
TP_SYNFORM
p4549
(dp4550
g574
I487
sg1758
(lp4551
(iconstruction
TP_PHON
p4552
(dp4553
g1768
I4
sg1765
I0
sg574
I492
sg1769
Vsuit
p4554
sg57
g4520
sbasg57
g1660
sbsg1776
I1
sba(iconstruction
CXN
p4555
(dp4556
g1718
(iconstruction
TP_SYMLINKS
p4557
(dp4558
g1721
(dp4559
VN1_497
p4560
VS1_499
p4561
ssg574
I495
sg57
g1660
sbsg1727
VN
p4562
sg1729
I1
sg57
VCELLO
p4563
sg1730
(iconstruction
TP_SEMFRAME
p4564
(dp4565
g87
g0
(g88
g2
Ntp4566
Rp4567
(dp4568
g92
(dp4569
(iconstruction
TP_NODE
p4570
(dp4571
g1739
I00
sg76
g765
sg57
g4560
sg1740
I00
sg1741
I00
sg574
I497
sb(dp4572
g1740
I00
sg76
g765
ss(iconstruction
TP_NODE
p4573
(dp4574
g1739
I01
sg76
g732
sg57
VENT_496
p4575
sg1740
I01
sg1741
I00
sg574
I496
sb(dp4576
g1740
I01
sg76
g732
sssg275
g276
sg277
g276
sg278
(dp4577
g4570
(dp4578
sg4573
(dp4579
g4570
(dp4580
g76
g723
ssssg472
g4577
sg87
(dp4581
sg474
g276
sg475
g4577
sg476
(dp4582
g4570
(dp4583
g4573
g4580
ssg4573
(dp4584
ssbsg569
(lp4585
g4573
ag4570
asg842
(lp4586
(iconstruction
TP_REL
p4587
(dp4588
g848
g4570
sg76
g723
sg574
I498
sg849
g4573
sg57
VIS_498
p4589
sbasg574
I493
sg57
g1660
sbsg1755
(iconstruction
TP_SYNFORM
p4590
(dp4591
g574
I494
sg1758
(lp4592
(iconstruction
TP_PHON
p4593
(dp4594
g1768
I5
sg1765
I0
sg574
I499
sg1769
VCELLO
p4595
sg57
g4561
sbasg57
g1660
sbsg1776
I1
sba(iconstruction
CXN
p4596
(dp4597
g1718
(iconstruction
TP_SYMLINKS
p4598
(dp4599
g1721
(dp4600
VN1_504
p4601
VS1_506
p4602
ssg574
I502
sg57
g1660
sbsg1727
VN
p4603
sg1729
I1
sg57
VBAG
p4604
sg1730
(iconstruction
TP_SEMFRAME
p4605
(dp4606
g87
g0
(g88
g2
Ntp4607
Rp4608
(dp4609
g92
(dp4610
(iconstruction
TP_NODE
p4611
(dp4612
g1739
I01
sg76
g732
sg57
VENT_503
p4613
sg1740
I01
sg1741
I00
sg574
I503
sb(dp4614
g1740
I01
sg76
g732
ss(iconstruction
TP_NODE
p4615
(dp4616
g1739
I00
sg76
g756
sg57
g4601
sg1740
I00
sg1741
I00
sg574
I504
sb(dp4617
g1740
I00
sg76
g756
sssg275
g276
sg277
g276
sg278
(dp4618
g4611
(dp4619
g4615
(dp4620
g76
g723
sssg4615
(dp4621
ssg472
g4618
sg87
(dp4622
sg474
g276
sg475
g4618
sg476
(dp4623
g4611
(dp4624
sg4615
(dp4625
g4611
g4620
sssbsg569
(lp4626
g4611
ag4615
asg842
(lp4627
(iconstruction
TP_REL
p4628
(dp4629
g848
g4615
sg76
g723
sg574
I505
sg849
g4611
sg57
VIS_505
p4630
sbasg574
I500
sg57
g1660
sbsg1755
(iconstruction
TP_SYNFORM
p4631
(dp4632
g574
I501
sg1758
(lp4633
(iconstruction
TP_PHON
p4634
(dp4635
g1768
I3
sg1765
I0
sg574
I506
sg1769
Vbag
p4636
sg57
g4602
sbasg57
g1660
sbsg1776
I1
sba(iconstruction
CXN
p4637
(dp4638
g1718
(iconstruction
TP_SYMLINKS
p4639
(dp4640
g1721
(dp4641
VN1_511
p4642
VS2_514
p4643
ssg574
I509
sg57
g1660
sbsg1727
VN
p4644
sg1729
I1
sg57
VWATERING_CAN
p4645
sg1730
(iconstruction
TP_SEMFRAME
p4646
(dp4647
g87
g0
(g88
g2
Ntp4648
Rp4649
(dp4650
g92
(dp4651
(iconstruction
TP_NODE
p4652
(dp4653
g1739
I00
sg76
g753
sg57
g4642
sg1740
I00
sg1741
I00
sg574
I511
sb(dp4654
g1740
I00
sg76
g753
ss(iconstruction
TP_NODE
p4655
(dp4656
g1739
I01
sg76
g732
sg57
VENT_510
p4657
sg1740
I01
sg1741
I00
sg574
I510
sb(dp4658
g1740
I01
sg76
g732
sssg275
g276
sg277
g276
sg278
(dp4659
g4652
(dp4660
sg4655
(dp4661
g4652
(dp4662
g76
g723
ssssg472
g4659
sg87
(dp4663
sg474
g276
sg475
g4659
sg476
(dp4664
g4652
(dp4665
g4655
g4662
ssg4655
(dp4666
ssbsg569
(lp4667
g4655
ag4652
asg842
(lp4668
(iconstruction
TP_REL
p4669
(dp4670
g848
g4652
sg76
g723
sg574
I512
sg849
g4655
sg57
VIS_512
p4671
sbasg574
I507
sg57
g1660
sbsg1755
(iconstruction
TP_SYNFORM
p4672
(dp4673
g574
I508
sg1758
(lp4674
(iconstruction
TP_PHON
p4675
(dp4676
g1768
I8
sg1765
I0
sg574
I513
sg1769
Vwatering
p4677
sg57
VS1_513
p4678
sba(iconstruction
TP_PHON
p4679
(dp4680
g1768
I3
sg1765
I1
sg574
I514
sg1769
Vcan
p4681
sg57
g4643
sbasg57
g1660
sbsg1776
I1
sba(iconstruction
CXN
p4682
(dp4683
g1718
(iconstruction
TP_SYMLINKS
p4684
(dp4685
g1721
(dp4686
VN1_519
p4687
VS1_521
p4688
ssg574
I517
sg57
g1660
sbsg1727
VN
p4689
sg1729
I1
sg57
VBALLERINA
p4690
sg1730
(iconstruction
TP_SEMFRAME
p4691
(dp4692
g87
g0
(g88
g2
Ntp4693
Rp4694
(dp4695
g92
(dp4696
(iconstruction
TP_NODE
p4697
(dp4698
g1739
I00
sg76
g810
sg57
g4687
sg1740
I00
sg1741
I00
sg574
I519
sb(dp4699
g1740
I00
sg76
g810
ss(iconstruction
TP_NODE
p4700
(dp4701
g1739
I01
sg76
g732
sg57
VENT_518
p4702
sg1740
I01
sg1741
I00
sg574
I518
sb(dp4703
g1740
I01
sg76
g732
sssg275
g276
sg277
g276
sg278
(dp4704
g4697
(dp4705
sg4700
(dp4706
g4697
(dp4707
g76
g723
ssssg472
g4704
sg87
(dp4708
sg474
g276
sg475
g4704
sg476
(dp4709
g4697
(dp4710
g4700
g4707
ssg4700
(dp4711
ssbsg569
(lp4712
g4700
ag4697
asg842
(lp4713
(iconstruction
TP_REL
p4714
(dp4715
g848
g4697
sg76
g723
sg574
I520
sg849
g4700
sg57
VIS_520
p4716
sbasg574
I515
sg57
g1660
sbsg1755
(iconstruction
TP_SYNFORM
p4717
(dp4718
g574
I516
sg1758
(lp4719
(iconstruction
TP_PHON
p4720
(dp4721
g1768
I9
sg1765
I0
sg574
I521
sg1769
Vballerina
p4722
sg57
g4688
sbasg57
g1660
sbsg1776
I1
sba(iconstruction
CXN
p4723
(dp4724
g1718
(iconstruction
TP_SYMLINKS
p4725
(dp4726
g1721
(dp4727
VN1_526
p4728
VS1_528
p4729
ssg574
I524
sg57
g1660
sbsg1727
VN
p4730
sg1729
I1
sg57
VCELLIST
p4731
sg1730
(iconstruction
TP_SEMFRAME
p4732
(dp4733
g87
g0
(g88
g2
Ntp4734
Rp4735
(dp4736
g92
(dp4737
(iconstruction
TP_NODE
p4738
(dp4739
g1739
I01
sg76
g732
sg57
VENT_525
p4740
sg1740
I01
sg1741
I00
sg574
I525
sb(dp4741
g1740
I01
sg76
g732
ss(iconstruction
TP_NODE
p4742
(dp4743
g1739
I00
sg76
g813
sg57
g4728
sg1740
I00
sg1741
I00
sg574
I526
sb(dp4744
g1740
I00
sg76
g813
sssg275
g276
sg277
g276
sg278
(dp4745
g4738
(dp4746
g4742
(dp4747
g76
g723
sssg4742
(dp4748
ssg472
g4745
sg87
(dp4749
sg474
g276
sg475
g4745
sg476
(dp4750
g4738
(dp4751
sg4742
(dp4752
g4738
g4747
sssbsg569
(lp4753
g4738
ag4742
asg842
(lp4754
(iconstruction
TP_REL
p4755
(dp4756
g848
g4742
sg76
g723
sg574
I527
sg849
g4738
sg57
VIS_527
p4757
sbasg574
I522
sg57
g1660
sbsg1755
(iconstruction
TP_SYNFORM
p4758
(dp4759
g574
I523
sg1758
(lp4760
(iconstruction
TP_PHON
p4761
(dp4762
g1768
I7
sg1765
I0
sg574
I528
sg1769
Vcellist
p4763
sg57
g4729
sbasg57
g1660
sbsg1776
I1
sba(iconstruction
CXN
p4764
(dp4765
g1718
(iconstruction
TP_SYMLINKS
p4766
(dp4767
g1721
(dp4768
VN1_533
p4769
VS1_535
p4770
ssg574
I531
sg57
g1660
sbsg1727
VN
p4771
sg1729
I1
sg57
VFENCER
p4772
sg1730
(iconstruction
TP_SEMFRAME
p4773
(dp4774
g87
g0
(g88
g2
Ntp4775
Rp4776
(dp4777
g92
(dp4778
(iconstruction
TP_NODE
p4779
(dp4780
g1739
I00
sg76
g819
sg57
g4769
sg1740
I00
sg1741
I00
sg574
I533
sb(dp4781
g1740
I00
sg76
g819
ss(iconstruction
TP_NODE
p4782
(dp4783
g1739
I01
sg76
g732
sg57
VENT_532
p4784
sg1740
I01
sg1741
I00
sg574
I532
sb(dp4785
g1740
I01
sg76
g732
sssg275
g276
sg277
g276
sg278
(dp4786
g4779
(dp4787
sg4782
(dp4788
g4779
(dp4789
g76
g723
ssssg472
g4786
sg87
(dp4790
sg474
g276
sg475
g4786
sg476
(dp4791
g4779
(dp4792
g4782
g4789
ssg4782
(dp4793
ssbsg569
(lp4794
g4782
ag4779
asg842
(lp4795
(iconstruction
TP_REL
p4796
(dp4797
g848
g4779
sg76
g723
sg574
I534
sg849
g4782
sg57
VIS_534
p4798
sbasg574
I529
sg57
g1660
sbsg1755
(iconstruction
TP_SYNFORM
p4799
(dp4800
g574
I530
sg1758
(lp4801
(iconstruction
TP_PHON
p4802
(dp4803
g1768
I6
sg1765
I0
sg574
I535
sg1769
Vfencer
p4804
sg57
g4770
sbasg57
g1660
sbsg1776
I1
sba(iconstruction
CXN
p4805
(dp4806
g1718
(iconstruction
TP_SYMLINKS
p4807
(dp4808
g1721
(dp4809
VN1_540
p4810
VS1_542
p4811
ssg574
I538
sg57
g1660
sbsg1727
VN
p4812
sg1729
I1
sg57
VROBBER
p4813
sg1730
(iconstruction
TP_SEMFRAME
p4814
(dp4815
g87
g0
(g88
g2
Ntp4816
Rp4817
(dp4818
g92
(dp4819
(iconstruction
TP_NODE
p4820
(dp4821
g1739
I00
sg76
g822
sg57
g4810
sg1740
I00
sg1741
I00
sg574
I540
sb(dp4822
g1740
I00
sg76
g822
ss(iconstruction
TP_NODE
p4823
(dp4824
g1739
I01
sg76
g732
sg57
VENT_539
p4825
sg1740
I01
sg1741
I00
sg574
I539
sb(dp4826
g1740
I01
sg76
g732
sssg275
g276
sg277
g276
sg278
(dp4827
g4820
(dp4828
sg4823
(dp4829
g4820
(dp4830
g76
g723
ssssg472
g4827
sg87
(dp4831
sg474
g276
sg475
g4827
sg476
(dp4832
g4820
(dp4833
g4823
g4830
ssg4823
(dp4834
ssbsg569
(lp4835
g4823
ag4820
asg842
(lp4836
(iconstruction
TP_REL
p4837
(dp4838
g848
g4820
sg76
g723
sg574
I541
sg849
g4823
sg57
VIS_541
p4839
sbasg574
I536
sg57
g1660
sbsg1755
(iconstruction
TP_SYNFORM
p4840
(dp4841
g574
I537
sg1758
(lp4842
(iconstruction
TP_PHON
p4843
(dp4844
g1768
I5
sg1765
I0
sg574
I542
sg1769
Vthief
p4845
sg57
g4811
sbasg57
g1660
sbsg1776
I1
sba(iconstruction
CXN
p4846
(dp4847
g1718
(iconstruction
TP_SYMLINKS
p4848
(dp4849
g1721
(dp4850
VN1_547
p4851
VS1_549
p4852
ssg574
I545
sg57
g1660
sbsg1727
VN
p4853
sg1729
I1
sg57
VPOLICEMAN
p4854
sg1730
(iconstruction
TP_SEMFRAME
p4855
(dp4856
g87
g0
(g88
g2
Ntp4857
Rp4858
(dp4859
g92
(dp4860
(iconstruction
TP_NODE
p4861
(dp4862
g1739
I01
sg76
g732
sg57
VENT_546
p4863
sg1740
I01
sg1741
I00
sg574
I546
sb(dp4864
g1740
I01
sg76
g732
ss(iconstruction
TP_NODE
p4865
(dp4866
g1739
I00
sg76
g804
sg57
g4851
sg1740
I00
sg1741
I00
sg574
I547
sb(dp4867
g1740
I00
sg76
g804
sssg275
g276
sg277
g276
sg278
(dp4868
g4861
(dp4869
g4865
(dp4870
g76
g723
sssg4865
(dp4871
ssg472
g4868
sg87
(dp4872
sg474
g276
sg475
g4868
sg476
(dp4873
g4861
(dp4874
sg4865
(dp4875
g4861
g4870
sssbsg569
(lp4876
g4861
ag4865
asg842
(lp4877
(iconstruction
TP_REL
p4878
(dp4879
g848
g4865
sg76
g723
sg574
I548
sg849
g4861
sg57
VIS_548
p4880
sbasg574
I543
sg57
g1660
sbsg1755
(iconstruction
TP_SYNFORM
p4881
(dp4882
g574
I544
sg1758
(lp4883
(iconstruction
TP_PHON
p4884
(dp4885
g1768
I9
sg1765
I0
sg574
I549
sg1769
Vpoliceman
p4886
sg57
g4852
sbasg57
g1660
sbsg1776
I1
sba(iconstruction
CXN
p4887
(dp4888
g1718
(iconstruction
TP_SYMLINKS
p4889
(dp4890
g1721
(dp4891
VN1_554
p4892
VS1_556
p4893
ssg574
I552
sg57
g1660
sbsg1727
VN
p4894
sg1729
I1
sg57
VHUNTER
p4895
sg1730
(iconstruction
TP_SEMFRAME
p4896
(dp4897
g87
g0
(g88
g2
Ntp4898
Rp4899
(dp4900
g92
(dp4901
(iconstruction
TP_NODE
p4902
(dp4903
g1739
I00
sg76
g807
sg57
g4892
sg1740
I00
sg1741
I00
sg574
I554
sb(dp4904
g1740
I00
sg76
g807
ss(iconstruction
TP_NODE
p4905
(dp4906
g1739
I01
sg76
g732
sg57
VENT_553
p4907
sg1740
I01
sg1741
I00
sg574
I553
sb(dp4908
g1740
I01
sg76
g732
sssg275
g276
sg277
g276
sg278
(dp4909
g4902
(dp4910
sg4905
(dp4911
g4902
(dp4912
g76
g723
ssssg472
g4909
sg87
(dp4913
sg474
g276
sg475
g4909
sg476
(dp4914
g4902
(dp4915
g4905
g4912
ssg4905
(dp4916
ssbsg569
(lp4917
g4905
ag4902
asg842
(lp4918
(iconstruction
TP_REL
p4919
(dp4920
g848
g4902
sg76
g723
sg574
I555
sg849
g4905
sg57
VIS_555
p4921
sbasg574
I550
sg57
g1660
sbsg1755
(iconstruction
TP_SYNFORM
p4922
(dp4923
g574
I551
sg1758
(lp4924
(iconstruction
TP_PHON
p4925
(dp4926
g1768
I6
sg1765
I0
sg574
I556
sg1769
Vhunter
p4927
sg57
g4893
sbasg57
g1660
sbsg1776
I1
sba(iconstruction
CXN
p4928
(dp4929
g1718
(iconstruction
TP_SYMLINKS
p4930
(dp4931
g1721
(dp4932
VN1_561
p4933
VS1_563
p4934
ssg574
I559
sg57
g1660
sbsg1727
VN
p4935
sg1729
I1
sg57
VDOG
p4936
sg1730
(iconstruction
TP_SEMFRAME
p4937
(dp4938
g87
g0
(g88
g2
Ntp4939
Rp4940
(dp4941
g92
(dp4942
(iconstruction
TP_NODE
p4943
(dp4944
g1739
I01
sg76
g732
sg57
VENT_560
p4945
sg1740
I01
sg1741
I00
sg574
I560
sb(dp4946
g1740
I01
sg76
g732
ss(iconstruction
TP_NODE
p4947
(dp4948
g1739
I00
sg76
g792
sg57
g4933
sg1740
I00
sg1741
I00
sg574
I561
sb(dp4949
g1740
I00
sg76
g792
sssg275
g276
sg277
g276
sg278
(dp4950
g4943
(dp4951
g4947
(dp4952
g76
g723
sssg4947
(dp4953
ssg472
g4950
sg87
(dp4954
sg474
g276
sg475
g4950
sg476
(dp4955
g4943
(dp4956
sg4947
(dp4957
g4943
g4952
sssbsg569
(lp4958
g4943
ag4947
asg842
(lp4959
(iconstruction
TP_REL
p4960
(dp4961
g848
g4947
sg76
g723
sg574
I562
sg849
g4943
sg57
VIS_562
p4962
sbasg574
I557
sg57
g1660
sbsg1755
(iconstruction
TP_SYNFORM
p4963
(dp4964
g574
I558
sg1758
(lp4965
(iconstruction
TP_PHON
p4966
(dp4967
g1768
I3
sg1765
I0
sg574
I563
sg1769
Vdog
p4968
sg57
g4934
sbasg57
g1660
sbsg1776
I1
sba(iconstruction
CXN
p4969
(dp4970
g1718
(iconstruction
TP_SYMLINKS
p4971
(dp4972
g1721
(dp4973
VN1_568
p4974
VS1_570
p4975
ssg574
I566
sg57
g1660
sbsg1727
VN
p4976
sg1729
I1
sg57
VHOOK
p4977
sg1730
(iconstruction
TP_SEMFRAME
p4978
(dp4979
g87
g0
(g88
g2
Ntp4980
Rp4981
(dp4982
g92
(dp4983
(iconstruction
TP_NODE
p4984
(dp4985
g1739
I00
sg76
g762
sg57
g4974
sg1740
I00
sg1741
I00
sg574
I568
sb(dp4986
g1740
I00
sg76
g762
ss(iconstruction
TP_NODE
p4987
(dp4988
g1739
I01
sg76
g732
sg57
VENT_567
p4989
sg1740
I01
sg1741
I00
sg574
I567
sb(dp4990
g1740
I01
sg76
g732
sssg275
g276
sg277
g276
sg278
(dp4991
g4984
(dp4992
sg4987
(dp4993
g4984
(dp4994
g76
g723
ssssg472
g4991
sg87
(dp4995
sg474
g276
sg475
g4991
sg476
(dp4996
g4984
(dp4997
g4987
g4994
ssg4987
(dp4998
ssbsg569
(lp4999
g4987
ag4984
asg842
(lp5000
(iconstruction
TP_REL
p5001
(dp5002
g848
g4984
sg76
g723
sg574
I569
sg849
g4987
sg57
VIS_569
p5003
sbasg574
I564
sg57
g1660
sbsg1755
(iconstruction
TP_SYNFORM
p5004
(dp5005
g574
I565
sg1758
(lp5006
(iconstruction
TP_PHON
p5007
(dp5008
g1768
I4
sg1765
I0
sg574
I570
sg1769
Vhook
p5009
sg57
g4975
sbasg57
g1660
sbsg1776
I1
sba(iconstruction
CXN
p5010
(dp5011
g1718
(iconstruction
TP_SYMLINKS
p5012
(dp5013
g1721
(dp5014
VN1_575
p5015
VS1_577
p5016
ssg574
I573
sg57
g1660
sbsg1727
VN
p5017
sg1729
I1
sg57
VBOOKSHELF
p5018
sg1730
(iconstruction
TP_SEMFRAME
p5019
(dp5020
g87
g0
(g88
g2
Ntp5021
Rp5022
(dp5023
g92
(dp5024
(iconstruction
TP_NODE
p5025
(dp5026
g1739
I00
sg76
g768
sg57
g5015
sg1740
I00
sg1741
I00
sg574
I575
sb(dp5027
g1740
I00
sg76
g768
ss(iconstruction
TP_NODE
p5028
(dp5029
g1739
I01
sg76
g732
sg57
VENT_574
p5030
sg1740
I01
sg1741
I00
sg574
I574
sb(dp5031
g1740
I01
sg76
g732
sssg275
g276
sg277
g276
sg278
(dp5032
g5025
(dp5033
sg5028
(dp5034
g5025
(dp5035
g76
g723
ssssg472
g5032
sg87
(dp5036
sg474
g276
sg475
g5032
sg476
(dp5037
g5025
(dp5038
g5028
g5035
ssg5028
(dp5039
ssbsg569
(lp5040
g5028
ag5025
asg842
(lp5041
(iconstruction
TP_REL
p5042
(dp5043
g848
g5025
sg76
g723
sg574
I576
sg849
g5028
sg57
VIS_576
p5044
sbasg574
I571
sg57
g1660
sbsg1755
(iconstruction
TP_SYNFORM
p5045
(dp5046
g574
I572
sg1758
(lp5047
(iconstruction
TP_PHON
p5048
(dp5049
g1768
I9
sg1765
I0
sg574
I577
sg1769
Vbookshelf
p5050
sg57
g5016
sbasg57
g1660
sbsg1776
I1
sba(iconstruction
CXN
p5051
(dp5052
g1718
(iconstruction
TP_SYMLINKS
p5053
(dp5054
g1721
(dp5055
VN1_582
p5056
VS1_584
p5057
ssg574
I580
sg57
g1660
sbsg1727
VN
p5058
sg1729
I1
sg57
VWAGON
p5059
sg1730
(iconstruction
TP_SEMFRAME
p5060
(dp5061
g87
g0
(g88
g2
Ntp5062
Rp5063
(dp5064
g92
(dp5065
(iconstruction
TP_NODE
p5066
(dp5067
g1739
I01
sg76
g732
sg57
VENT_581
p5068
sg1740
I01
sg1741
I00
sg574
I581
sb(dp5069
g1740
I01
sg76
g732
ss(iconstruction
TP_NODE
p5070
(dp5071
g1739
I00
sg76
g750
sg57
g5056
sg1740
I00
sg1741
I00
sg574
I582
sb(dp5072
g1740
I00
sg76
g750
sssg275
g276
sg277
g276
sg278
(dp5073
g5066
(dp5074
g5070
(dp5075
g76
g723
sssg5070
(dp5076
ssg472
g5073
sg87
(dp5077
sg474
g276
sg475
g5073
sg476
(dp5078
g5066
(dp5079
sg5070
(dp5080
g5066
g5075
sssbsg569
(lp5081
g5066
ag5070
asg842
(lp5082
(iconstruction
TP_REL
p5083
(dp5084
g848
g5070
sg76
g723
sg574
I583
sg849
g5066
sg57
VIS_583
p5085
sbasg574
I578
sg57
g1660
sbsg1755
(iconstruction
TP_SYNFORM
p5086
(dp5087
g574
I579
sg1758
(lp5088
(iconstruction
TP_PHON
p5089
(dp5090
g1768
I5
sg1765
I0
sg574
I584
sg1769
Vwagon
p5091
sg57
g5057
sbasg57
g1660
sbsg1776
I1
sba(iconstruction
CXN
p5092
(dp5093
g1718
(iconstruction
TP_SYMLINKS
p5094
(dp5095
g1721
(dp5096
VN1_589
p5097
VS1_591
p5098
ssg574
I587
sg57
g1660
sbsg1727
VN
p5099
sg1729
I1
sg57
VTREE
p5100
sg1730
(iconstruction
TP_SEMFRAME
p5101
(dp5102
g87
g0
(g88
g2
Ntp5103
Rp5104
(dp5105
g92
(dp5106
(iconstruction
TP_NODE
p5107
(dp5108
g1739
I00
sg76
g759
sg57
g5097
sg1740
I00
sg1741
I00
sg574
I589
sb(dp5109
g1740
I00
sg76
g759
ss(iconstruction
TP_NODE
p5110
(dp5111
g1739
I01
sg76
g732
sg57
VENT_588
p5112
sg1740
I01
sg1741
I00
sg574
I588
sb(dp5113
g1740
I01
sg76
g732
sssg275
g276
sg277
g276
sg278
(dp5114
g5107
(dp5115
sg5110
(dp5116
g5107
(dp5117
g76
g723
ssssg472
g5114
sg87
(dp5118
sg474
g276
sg475
g5114
sg476
(dp5119
g5107
(dp5120
g5110
g5117
ssg5110
(dp5121
ssbsg569
(lp5122
g5110
ag5107
asg842
(lp5123
(iconstruction
TP_REL
p5124
(dp5125
g848
g5107
sg76
g723
sg574
I590
sg849
g5110
sg57
VIS_590
p5126
sbasg574
I585
sg57
g1660
sbsg1755
(iconstruction
TP_SYNFORM
p5127
(dp5128
g574
I586
sg1758
(lp5129
(iconstruction
TP_PHON
p5130
(dp5131
g1768
I4
sg1765
I0
sg574
I591
sg1769
Vtree
p5132
sg57
g5098
sbasg57
g1660
sbsg1776
I1
sbasbsg57
g1673
sg59
(lp5133
g0
(g61
g2
Ntp5134
Rp5135
(dp5136
g1563
Nsg57
g1569
sg66
Nsg67
Nsg1565
Nsg284
g1508
sg574
I20
sg1509
g1779
sbag0
(g61
g2
Ntp5137
Rp5138
(dp5139
g57
S'to_cxn_retrieval_C'
p5140
sg66
Nsg67
g1710
sg284
g1508
sg574
I21
sg1509
g1779
sbasg1514
(dp5141
g1569
Nsg5140
Nssg1516
(lp5142
sg1519
F1.0
sg1520
(lp5143
sg1522
(dp5144
g1147
F0.3
ssg1524
I0
sg1525
I0
sg1145
g1528
sg574
I4
sS'schemas'
p5145
g1710
sbsg1147
F0.3
sbag0
(g1711
g2
Ntp5146
Rp5147
(dp5148
g57
g1797
sg74
g1787
sg1145
Nsg574
I100
sg1146
g1779
sg1147
F0.3
sbag0
(g1711
g2
Ntp5149
Rp5150
(dp5151
g57
g1848
sg74
g1838
sg1145
Nsg574
I101
sg1146
g1779
sg1147
F0.3
sbag0
(g1711
g2
Ntp5152
Rp5153
(dp5154
g57
g1901
sg74
g1889
sg1145
Nsg574
I102
sg1146
g1779
sg1147
F0.3
sbag0
(g1711
g2
Ntp5155
Rp5156
(dp5157
g57
g1980
sg74
g1968
sg1145
Nsg574
I103
sg1146
g1779
sg1147
F0.3
sbag0
(g1711
g2
Ntp5158
Rp5159
(dp5160
g57
g2055
sg74
g2043
sg1145
Nsg574
I104
sg1146
g1779
sg1147
F0.3
sbag0
(g1711
g2
Ntp5161
Rp5162
(dp5163
g57
g2144
sg74
g2130
sg1145
Nsg574
I105
sg1146
g1779
sg1147
F0.3
sbag0
(g1711
g2
Ntp5164
Rp5165
(dp5166
g57
g2235
sg74
g2221
sg1145
Nsg574
I106
sg1146
g1779
sg1147
F0.3
sbag0
(g1711
g2
Ntp5167
Rp5168
(dp5169
g57
g2326
sg74
g2316
sg1145
Nsg574
I107
sg1146
g1779
sg1147
F0.3
sbag0
(g1711
g2
Ntp5170
Rp5171
(dp5172
g57
g2388
sg74
g2378
sg1145
Nsg574
I108
sg1146
g1779
sg1147
F0.3
sbag0
(g1711
g2
Ntp5173
Rp5174
(dp5175
g57
g2447
sg74
g2437
sg1145
Nsg574
I109
sg1146
g1779
sg1147
F0.3
sbag0
(g1711
g2
Ntp5176
Rp5177
(dp5178
g57
g2499
sg74
g2489
sg1145
Nsg574
I110
sg1146
g1779
sg1147
F0.3
sbag0
(g1711
g2
Ntp5179
Rp5180
(dp5181
g57
g2546
sg74
g2536
sg1145
Nsg574
I111
sg1146
g1779
sg1147
F0.3
sbag0
(g1711
g2
Ntp5182
Rp5183
(dp5184
g57
g2595
sg74
g2583
sg1145
Nsg574
I112
sg1146
g1779
sg1147
F0.3
sbag0
(g1711
g2
Ntp5185
Rp5186
(dp5187
g57
g2675
sg74
g2665
sg1145
Nsg574
I113
sg1146
g1779
sg1147
F0.3
sbag0
(g1711
g2
Ntp5188
Rp5189
(dp5190
g57
g2743
sg74
g2731
sg1145
Nsg574
I114
sg1146
g1779
sg1147
F0.3
sbag0
(g1711
g2
Ntp5191
Rp5192
(dp5193
g57
g2837
sg74
g2825
sg1145
Nsg574
I115
sg1146
g1779
sg1147
F0.3
sbag0
(g1711
g2
Ntp5194
Rp5195
(dp5196
g57
g2919
sg74
g2907
sg1145
Nsg574
I116
sg1146
g1779
sg1147
F0.3
sbag0
(g1711
g2
Ntp5197
Rp5198
(dp5199
g57
g3011
sg74
g3001
sg1145
Nsg574
I117
sg1146
g1779
sg1147
F0.3
sbag0
(g1711
g2
Ntp5200
Rp5201
(dp5202
g57
g3076
sg74
g3066
sg1145
Nsg574
I118
sg1146
g1779
sg1147
F0.3
sbag0
(g1711
g2
Ntp5203
Rp5204
(dp5205
g57
g3155
sg74
g3147
sg1145
Nsg574
I119
sg1146
g1779
sg1147
F0.3
sbag0
(g1711
g2
Ntp5206
Rp5207
(dp5208
g57
g3196
sg74
g3188
sg1145
Nsg574
I120
sg1146
g1779
sg1147
F0.3
sbag0
(g1711
g2
Ntp5209
Rp5210
(dp5211
g57
g3237
sg74
g3229
sg1145
Nsg574
I121
sg1146
g1779
sg1147
F0.3
sbag0
(g1711
g2
Ntp5212
Rp5213
(dp5214
g57
g3278
sg74
g3270
sg1145
Nsg574
I122
sg1146
g1779
sg1147
F0.3
sbag0
(g1711
g2
Ntp5215
Rp5216
(dp5217
g57
g3319
sg74
g3311
sg1145
Nsg574
I123
sg1146
g1779
sg1147
F0.3
sbag0
(g1711
g2
Ntp5218
Rp5219
(dp5220
g57
g3360
sg74
g3352
sg1145
Nsg574
I124
sg1146
g1779
sg1147
F0.3
sbag0
(g1711
g2
Ntp5221
Rp5222
(dp5223
g57
g3401
sg74
g3393
sg1145
Nsg574
I125
sg1146
g1779
sg1147
F0.3
sbag0
(g1711
g2
Ntp5224
Rp5225
(dp5226
g57
g3446
sg74
g3438
sg1145
Nsg574
I126
sg1146
g1779
sg1147
F0.3
sbag0
(g1711
g2
Ntp5227
Rp5228
(dp5229
g57
g3491
sg74
g3483
sg1145
Nsg574
I127
sg1146
g1779
sg1147
F0.3
sbag0
(g1711
g2
Ntp5230
Rp5231
(dp5232
g57
g3532
sg74
g3524
sg1145
Nsg574
I128
sg1146
g1779
sg1147
F0.3
sbag0
(g1711
g2
Ntp5233
Rp5234
(dp5235
g57
g3573
sg74
g3565
sg1145
Nsg574
I129
sg1146
g1779
sg1147
F0.3
sbag0
(g1711
g2
Ntp5236
Rp5237
(dp5238
g57
g3614
sg74
g3606
sg1145
Nsg574
I130
sg1146
g1779
sg1147
F0.3
sbag0
(g1711
g2
Ntp5239
Rp5240
(dp5241
g57
g3655
sg74
g3647
sg1145
Nsg574
I131
sg1146
g1779
sg1147
F0.3
sbag0
(g1711
g2
Ntp5242
Rp5243
(dp5244
g57
g3696
sg74
g3688
sg1145
Nsg574
I132
sg1146
g1779
sg1147
F0.3
sbag0
(g1711
g2
Ntp5245
Rp5246
(dp5247
g57
g3737
sg74
g3729
sg1145
Nsg574
I133
sg1146
g1779
sg1147
F0.3
sbag0
(g1711
g2
Ntp5248
Rp5249
(dp5250
g57
g3768
sg74
g3760
sg1145
Nsg574
I134
sg1146
g1779
sg1147
F0.3
sbag0
(g1711
g2
Ntp5251
Rp5252
(dp5253
g57
g3799
sg74
g3791
sg1145
Nsg574
I135
sg1146
g1779
sg1147
F0.3
sbag0
(g1711
g2
Ntp5254
Rp5255
(dp5256
g57
g3830
sg74
g3822
sg1145
Nsg574
I136
sg1146
g1779
sg1147
F0.3
sbag0
(g1711
g2
Ntp5257
Rp5258
(dp5259
g57
g3861
sg74
g3853
sg1145
Nsg574
I137
sg1146
g1779
sg1147
F0.3
sbag0
(g1711
g2
Ntp5260
Rp5261
(dp5262
g57
g3892
sg74
g3884
sg1145
Nsg574
I138
sg1146
g1779
sg1147
F0.3
sbag0
(g1711
g2
Ntp5263
Rp5264
(dp5265
g57
g3923
sg74
g3915
sg1145
Nsg574
I139
sg1146
g1779
sg1147
F0.3
sbag0
(g1711
g2
Ntp5266
Rp5267
(dp5268
g57
g3954
sg74
g3946
sg1145
Nsg574
I140
sg1146
g1779
sg1147
F0.3
sbag0
(g1711
g2
Ntp5269
Rp5270
(dp5271
g57
g3985
sg74
g3977
sg1145
Nsg574
I141
sg1146
g1779
sg1147
F0.3
sbag0
(g1711
g2
Ntp5272
Rp5273
(dp5274
g57
g4026
sg74
g4018
sg1145
Nsg574
I142
sg1146
g1779
sg1147
F0.3
sbag0
(g1711
g2
Ntp5275
Rp5276
(dp5277
g57
g4067
sg74
g4059
sg1145
Nsg574
I143
sg1146
g1779
sg1147
F0.3
sbag0
(g1711
g2
Ntp5278
Rp5279
(dp5280
g57
g4108
sg74
g4100
sg1145
Nsg574
I144
sg1146
g1779
sg1147
F0.3
sbag0
(g1711
g2
Ntp5281
Rp5282
(dp5283
g57
g4149
sg74
g4141
sg1145
Nsg574
I145
sg1146
g1779
sg1147
F0.3
sbag0
(g1711
g2
Ntp5284
Rp5285
(dp5286
g57
g4190
sg74
g4182
sg1145
Nsg574
I146
sg1146
g1779
sg1147
F0.3
sbag0
(g1711
g2
Ntp5287
Rp5288
(dp5289
g57
g4231
sg74
g4223
sg1145
Nsg574
I147
sg1146
g1779
sg1147
F0.3
sbag0
(g1711
g2
Ntp5290
Rp5291
(dp5292
g57
g4272
sg74
g4264
sg1145
Nsg574
I148
sg1146
g1779
sg1147
F0.3
sbag0
(g1711
g2
Ntp5293
Rp5294
(dp5295
g57
g4313
sg74
g4305
sg1145
Nsg574
I149
sg1146
g1779
sg1147
F0.3
sbag0
(g1711
g2
Ntp5296
Rp5297
(dp5298
g57
g4354
sg74
g4346
sg1145
Nsg574
I150
sg1146
g1779
sg1147
F0.3
sbag0
(g1711
g2
Ntp5299
Rp5300
(dp5301
g57
g4395
sg74
g4387
sg1145
Nsg574
I151
sg1146
g1779
sg1147
F0.3
sbag0
(g1711
g2
Ntp5302
Rp5303
(dp5304
g57
g4440
sg74
g4432
sg1145
Nsg574
I152
sg1146
g1779
sg1147
F0.3
sbag0
(g1711
g2
Ntp5305
Rp5306
(dp5307
g57
g4481
sg74
g4473
sg1145
Nsg574
I153
sg1146
g1779
sg1147
F0.3
sbag0
(g1711
g2
Ntp5308
Rp5309
(dp5310
g57
g4522
sg74
g4514
sg1145
Nsg574
I154
sg1146
g1779
sg1147
F0.3
sbag0
(g1711
g2
Ntp5311
Rp5312
(dp5313
g57
g4563
sg74
g4555
sg1145
Nsg574
I155
sg1146
g1779
sg1147
F0.3
sbag0
(g1711
g2
Ntp5314
Rp5315
(dp5316
g57
g4604
sg74
g4596
sg1145
Nsg574
I156
sg1146
g1779
sg1147
F0.3
sbag0
(g1711
g2
Ntp5317
Rp5318
(dp5319
g57
g4645
sg74
g4637
sg1145
Nsg574
I157
sg1146
g1779
sg1147
F0.3
sbag0
(g1711
g2
Ntp5320
Rp5321
(dp5322
g57
g4690
sg74
g4682
sg1145
Nsg574
I158
sg1146
g1779
sg1147
F0.3
sbag0
(g1711
g2
Ntp5323
Rp5324
(dp5325
g57
g4731
sg74
g4723
sg1145
Nsg574
I159
sg1146
g1779
sg1147
F0.3
sbag0
(g1711
g2
Ntp5326
Rp5327
(dp5328
g57
g4772
sg74
g4764
sg1145
Nsg574
I160
sg1146
g1779
sg1147
F0.3
sbag0
(g1711
g2
Ntp5329
Rp5330
(dp5331
g57
g4813
sg74
g4805
sg1145
Nsg574
I161
sg1146
g1779
sg1147
F0.3
sbag0
(g1711
g2
Ntp5332
Rp5333
(dp5334
g57
g4854
sg74
g4846
sg1145
Nsg574
I162
sg1146
g1779
sg1147
F0.3
sbag0
(g1711
g2
Ntp5335
Rp5336
(dp5337
g57
g4895
sg74
g4887
sg1145
Nsg574
I163
sg1146
g1779
sg1147
F0.3
sbag0
(g1711
g2
Ntp5338
Rp5339
(dp5340
g57
g4936
sg74
g4928
sg1145
Nsg574
I164
sg1146
g1779
sg1147
F0.3
sbag0
(g1711
g2
Ntp5341
Rp5342
(dp5343
g57
g4977
sg74
g4969
sg1145
Nsg574
I165
sg1146
g1779
sg1147
F0.3
sbag0
(g1711
g2
Ntp5344
Rp5345
(dp5346
g57
g5018
sg74
g5010
sg1145
Nsg574
I166
sg1146
g1779
sg1147
F0.3
sbag0
(g1711
g2
Ntp5347
Rp5348
(dp5349
g57
g5059
sg74
g5051
sg1145
Nsg574
I167
sg1146
g1779
sg1147
F0.3
sbag0
(g1711
g2
Ntp5350
Rp5351
(dp5352
g57
g5100
sg74
g5092
sg1145
Nsg574
I168
sg1146
g1779
sg1147
F0.3
sbasg1565
Nsg284
g1544
sg574
I22
sg1509
g1695
sbag1690
asg1522
(dp5353
sg1524
I0
sg1525
I0
sg1145
g1528
sg574
I5
sbsbsS'port_from'
p5354
g1567
sg1145
g1528
sg574
I1
sbag0
(g1682
g2
Ntp5355
Rp5356
(dp5357
g1686
I0
sg57
g1660
sg1687
I0
sg1688
g1708
sg5354
g5135
sg1145
g1528
sg574
I2
sbag0
(g1682
g2
Ntp5358
Rp5359
(dp5360
g1686
I0
sg57
g1660
sg1687
I0
sg1688
g0
(g61
g2
Ntp5361
Rp5362
(dp5363
g1563
Nsg57
S'from_cxn_retrieval_P'
p5364
sg66
Nsg67
Nsg1565
Nsg284
g1544
sg574
I14
sg1509
g0
(clanguage_schemas
GRAMMATICAL_WM_P
p5365
g2
Ntp5366
Rp5367
(dp5368
g55
(dp5369
g5364
NsS'from_phonological_WM_P'
p5370
Nsg1692
Nsg1552
Nssg1554
(lp5371
sg57
g1669
sg1557
(lp5372
sg59
(lp5373
g0
(g61
g2
Ntp5374
Rp5375
(dp5376
g1563
Nsg57
g1513
sg66
Nsg67
Nsg1565
Nsg284
g1508
sg574
I17
sg1509
g5367
sbag0
(g61
g2
Ntp5377
Rp5378
(dp5379
g1563
Nsg57
S'to_phonological_WM_P'
p5380
sg66
Nsg67
Nsg1565
Nsg284
g1508
sg574
I18
sg1509
g5367
sbag0
(g61
g2
Ntp5381
Rp5382
(dp5383
g57
g1581
sg66
Nsg67
Nsg284
g1508
sg574
I19
sg1509
g5367
sbasg1514
(dp5384
g1581
Nsg5380
Nsg1513
Nssg1519
F1.0
sg1583
(lp5385
sg1520
(lp5386
g0
(g61
g2
Ntp5387
Rp5388
(dp5389
g1563
Nsg57
g1692
sg66
Nsg67
(dp5390
g569
(dp5391
VEVENT_1107559
p5392
cnumpy.core.multiarray
scalar
p5393
(cnumpy
dtype
p5394
(S'f8'
p5395
I0
I1
tp5396
Rp5397
(I3
S'<'
p5398
NNNI-1
I-1
I0
tp5399
bS'\x0eW\x93f\xf0\x9e\xeb?'
p5400
tp5401
Rp5402
sVMAN_1107552
p5403
g5393
(g5397
S'\xc6V\xe4\xabi\x93\xeb?'
p5404
tp5405
Rp5406
sVACTION_1107560
p5407
g5393
(g5397
S'\xa0\xd6I5<\xac\xeb?'
p5408
tp5409
Rp5410
sVENTITY_1107551
p5411
g5393
(g5397
S'_\xd7\xa9\x9d;\xa4\xeb?'
p5412
tp5413
Rp5414
sVENTITY_1107554
p5415
g5393
(g5397
S'\xfc\xf8\x16\x9a,\xc1\xeb?'
p5416
tp5417
Rp5418
sVPUNCH_1107562
p5419
g5393
(g5397
S'/\xac\xa1\x8b\xe2\xb0\xeb?'
p5420
tp5421
Rp5422
sVWOMAN_1107555
p5423
g5393
(g5397
S']\xa2\xd6\xdc\xe9\xb7\xeb?'
p5424
tp5425
Rp5426
sVYOUNG_1107557
p5427
g5393
(g5397
S'v\xf3\x0f!N\xb8\xeb?'
p5428
tp5429
Rp5430
ssg842
(dp5431
(g5407
g5415
tp5432
g5393
(g5397
S'_Gg\xb1\xb7\xa5\xeb?'
p5433
tp5434
Rp5435
s(g5415
g5427
tp5436
g5393
(g5397
S'\xc4\xc4?\xafK\x9c\xeb?'
p5437
tp5438
Rp5439
s(g5415
g5423
tp5440
g5393
(g5397
S'\xb3\xbb\r\x88\xf6\x89\xeb?'
p5441
tp5442
Rp5443
s(g5407
g5411
tp5444
g5393
(g5397
S'\xa8+\x07\x99L\xa2\xeb?'
p5445
tp5446
Rp5447
s(g5407
g5419
tp5448
g5393
(g5397
S'\x00\xceo\xb7V\x9f\xeb?'
p5449
tp5450
Rp5451
s(g5411
g5403
tp5452
g5393
(g5397
S'\x82\xc6j\x88_\xa1\xeb?'
p5453
tp5454
Rp5455
s(g5392
g5407
tp5456
g5393
(g5397
S'\x10\xacv\x19\n\xaf\xeb?'
p5457
tp5458
Rp5459
sssg1565
Nsg284
g1544
sg574
I13
sg1509
g5367
sbag5362
ag0
(g61
g2
Ntp5460
Rp5461
(dp5462
g1563
Nsg57
g1552
sg66
Nsg67
(dp5463
S'params_style'
p5464
(dp5465
S'continuity'
p5466
F0.1
sS'form_length'
p5467
F0.0
sS'sem_length'
p5468
F0.5
sS'activation'
p5469
F0.7
ssS'pressure'
p5470
g5393
(g5397
S'+\x87\x16\xd9\xce\xf7\xef?'
p5471
tp5472
Rp5473
sg1598
I01
ssg1565
Nsg284
g1544
sg574
I15
sg1509
g5367
sbag0
(g61
g2
Ntp5474
Rp5475
(dp5476
g1563
Nsg57
g5370
sg66
Nsg67
(lp5477
sg1565
Nsg284
g1544
sg574
I16
sg1509
g5367
sbasg1599
(dp5478
g1601
(dp5479
sg1603
(dp5480
g1605
(lp5481
sg1607
(dp5482
g1609
(lp5483
sg1611
(lp5484
sg1613
(lp5485
ssg1615
(lp5486
sg1524
(lp5487
sg1618
(lp5488
sssg1522
(dp5489
g1621
(dp5490
g1623
F1.0
sS'deact_weight'
p5491
F0.0
sg1624
F-10.0
sg1625
F1.0
sg1626
F1.0
sg1627
F1.0
sS'sub_threshold_r'
p5492
F0.8
sg1628
F0.3
sg1629
F0.0
sg1630
F0.01
ssg1631
(dp5493
g1633
g5393
(g5397
S'\x00\x00\x00\x00\x00@\x8f@'
p5494
tp5495
Rp5496
sg1634
g5393
(g5397
S'\x00\x00\x00\x00\x00\x00$@'
p5497
tp5498
Rp5499
sg1635
F0.001
sg1636
F0.0
sg1637
g5393
(g5397
S'\x00\x00\x00\x00\x00\x00\x00@'
p5500
tp5501
Rp5502
sg1638
g5393
(g5397
S'\x00\x00\x00\x00\x00\x00$@'
p5503
tp5504
Rp5505
sg1639
F1.0
ssS'style'
p5506
(dp5507
g5466
F0.1
sg5467
F0.0
sg5468
F0.5
sg5469
F0.7
sssg1524
I0
sg1525
I0
sg1145
g1528
sg574
I3
sbsbsg5354
g1701
sg1145
g1528
sg574
I3
sbag0
(g1682
g2
Ntp5508
Rp5509
(dp5510
g1686
I0
sg57
g1660
sg1687
I0
sg1688
g5388
sg5354
g1561
sg1145
g1528
sg574
I4
sbag0
(g1682
g2
Ntp5511
Rp5512
(dp5513
g1686
I0
sg57
g1660
sg1687
I0
sg1688
g1593
sg5354
g5375
sg1145
g1528
sg574
I5
sbag0
(g1682
g2
Ntp5514
Rp5515
(dp5516
g1686
I0
sg57
g1660
sg1687
I0
sg1688
g0
(g61
g2
Ntp5517
Rp5518
(dp5519
g1563
Nsg57
g1550
sg66
Nsg67
Nsg1565
Nsg284
g1544
sg574
I25
sg1509
g0
(clanguage_schemas
PHON_WM_P
p5520
g2
Ntp5521
Rp5522
(dp5523
g55
(dp5524
g1550
Nssg1554
(lp5525
sg57
g1665
sg1557
(lp5526
sg59
(lp5527
g0
(g61
g2
Ntp5528
Rp5529
(dp5530
g1563
Nsg57
S'to_utter'
p5531
sg66
Nsg67
Nsg1565
Nsg284
g1508
sg574
I26
sg1509
g5522
sbag0
(g61
g2
Ntp5532
Rp5533
(dp5534
g1563
Nsg57
g1564
sg66
Nsg67
Nsg1565
Nsg284
g1508
sg574
I27
sg1509
g5522
sbag0
(g61
g2
Ntp5535
Rp5536
(dp5537
g1563
Nsg57
g1573
sg66
Nsg67
Nsg1565
Nsg284
g1508
sg574
I28
sg1509
g5522
sbag0
(g61
g2
Ntp5538
Rp5539
(dp5540
g57
g1581
sg66
Nsg67
Nsg284
g1508
sg574
I29
sg1509
g5522
sbasg1514
(dp5541
g1581
Nsg1564
Nsg5531
Nsg1573
NssS'needs_filler'
p5542
I01
sg1519
F1.0
sg1583
(lp5543
sg1520
(lp5544
g5518
asS'filler'
p5545
S'....'
p5546
sg1599
(dp5547
g1601
(dp5548
sg1603
(dp5549
g1605
(lp5550
sg1607
(dp5551
g1609
(lp5552
sg1611
(lp5553
sg1613
(lp5554
ssg1615
(lp5555
sg1524
(lp5556
sg1618
(lp5557
sssg1522
(dp5558
g1621
(dp5559
g1623
F1.0
sg1624
F0.0
sg1625
F1.0
sg1626
F1.0
sg1627
F0.0
sg1628
F0.0
sg1629
F0.0
sg1630
F0.01
ssg1631
(dp5560
g1633
F100.0
sg1634
F10.0
sg1635
F0.001
sg1636
F0.0
sg1637
F1.0
sg1638
F1.0
sg1639
F1.0
sssg1524
I0
sg1525
I0
sg1145
g1528
sS'phon_sequence'
p5561
(lp5562
sg574
I6
sbsbsg5354
g5378
sg1145
g1528
sg574
I6
sbag0
(g1682
g2
Ntp5563
Rp5564
(dp5565
g1686
I0
sg57
g1660
sg1687
I0
sg1688
g5475
sg5354
g5533
sg1145
g1528
sg574
I7
sbag0
(g1682
g2
Ntp5566
Rp5567
(dp5568
g1686
I0
sg57
g1660
sg1687
I0
sg1688
g0
(g61
g2
Ntp5569
Rp5570
(dp5571
g1563
Nsg57
g1692
sg66
Nsg67
I01
sg1565
Nsg284
g1544
sg574
I32
sg1509
g0
(clanguage_schemas
CONTROL
p5572
g2
Ntp5573
Rp5574
(dp5575
g55
(dp5576
g5370
Nsg1692
Nssg57
g1655
sg59
(lp5577
g0
(g61
g2
Ntp5578
Rp5579
(dp5580
g1563
Nsg57
g1513
sg66
Nsg67
Nsg1565
Nsg284
g1508
sg574
I34
sg1509
g5574
sbag0
(g61
g2
Ntp5581
Rp5582
(dp5583
g1563
Nsg57
g1564
sg66
Nsg67
Nsg1565
Nsg284
g1508
sg574
I35
sg1509
g5574
sbag0
(g61
g2
Ntp5584
Rp5585
(dp5586
g57
S'to_grammatical_WM_C'
p5587
sg66
Nsg67
I00
sg284
g1508
sg574
I36
sg1509
g5574
sbasg1514
(dp5588
g1564
Nsg5587
Nsg1513
Nssg1519
F1.0
sg1520
(lp5589
g5570
ag0
(g61
g2
Ntp5590
Rp5591
(dp5592
g1563
Nsg57
g5370
sg66
Nsg67
Nsg1565
Nsg284
g1544
sg574
I33
sg1509
g5574
sbasS'state'
p5593
(dp5594
g1598
I00
sS'unexpressed_sem'
p5595
I00
sS'mode'
p5596
g1598
sS'last_prod_time'
p5597
I0
ssg1522
(dp5598
g5506
(dp5599
g5466
F0.1
sg5467
F0.0
sg5469
F0.7
sg5468
F0.5
ssS'task'
p5600
(dp5601
S'time_pressure'
p5602
g5393
(g5397
S'\x00\x00\x00\x00\x00@\x8f@'
p5603
tp5604
Rp5605
sS'start_produce'
p5606
g5393
(g5397
S'\x00\x00\x00\x00\x00@\x8f@'
p5607
tp5608
Rp5609
sssg1524
I0
sg1525
I0
sg1145
g1528
sg574
I8
sbsbsg5354
g1571
sg1145
g1528
sg574
I8
sbag0
(g1682
g2
Ntp5610
Rp5611
(dp5612
g1686
I0
sg57
g1660
sg1687
I0
sg1688
g0
(g61
g2
Ntp5613
Rp5614
(dp5615
g1563
Nsg57
g5370
sg66
Nsg67
Nsg1565
Nsg284
g1544
sg574
I30
sg1509
g0
(clanguage_schemas
UTTER
p5616
g2
Ntp5617
Rp5618
(dp5619
g55
(dp5620
g5370
Nssg57
g1658
sg59
(lp5621
g0
(g61
g2
Ntp5622
Rp5623
(dp5624
g57
g1581
sg66
Nsg67
Nsg284
g1508
sg574
I31
sg1509
g5618
sbasg1514
(dp5625
g1581
NssS'utterance_stack'
p5626
(lp5627
sg1519
F1.0
sg1520
(lp5628
g5614
asg1522
(dp5629
S'speech_rate'
p5630
F1.0
ssg1524
I0
sg1525
I0
sg1145
g1528
sg574
I7
sbsbsg5354
g5529
sg1145
g1528
sg574
I9
sbag0
(g1682
g2
Ntp5631
Rp5632
(dp5633
g1686
I0
sg57
g1660
sg1687
I0
sg1688
g5591
sg5354
g5536
sg1145
g1528
sg574
I10
sbag0
(g1682
g2
Ntp5634
Rp5635
(dp5636
g1686
I0
sg57
g1660
sg1687
I0
sg1688
g5461
sg5354
g5582
sg1145
g1528
sg574
I11
sbag0
(g1682
g2
Ntp5637
Rp5638
(dp5639
g1686
I0
sg57
g1660
sg1687
I0
sg1688
g1596
sg5354
g5579
sg1145
g1528
sg574
I12
sbasg1522
(dp5640
g1655
g5598
sg1665
g5558
sg58
g1523
sg1673
g5144
sg1677
g5353
sg1556
g1620
sg1658
g5629
sg1669
g5489
ssg1524
F0.0
sS'set_up_time'
p5641
I10
sS'input'
p5642
NsS'default_params'
p5643
Nsg1519
F1.0
sS'output_ports'
p5644
(lp5645
g5623
ag5539
ag5382
ag1579
asg5145
(dp5646
g1655
g5574
sg1665
g5522
sg58
g53
sg1677
g1695
sg1669
g5367
sg1556
g1547
sg1658
g5618
sg1673
g1779
ssbsg574
I2
sg5145
g68
sbsS'speed_param'
p5647
I100
sS'ground_truths'
p5648
(lp5649
Vyoung woman punch man
p5650
aVman is punch -ed by woman who is young
p5651
aVwoman who is young punch man
p5652
aVman is punch -ed by young woman
p5653
aVyoung lady punch man
p5654
aVman is punch -ed by lady who is young
p5655
aVlady who is young punch man
p5656
aVman is punch -ed by young lady
p5657
asS'is_macro'
p5658
I01
sb.