ccopy_reg
_reconstructor
p0
(clanguage_schemas
SEM_GENERATOR
p1
c__builtin__
object
p2
Ntp3
Rp4
(dp5
S'sem_inputs'
p6
(dp7
S'{}'
p8
(dp9
Vtiming
p10
(lp11
F0.0
aF100.0
asVsem_rate
p12
I1
sVpropositions
p13
(dp14
VP2
p15
(lp16
VENTITY(e3,F)
p17
aVWATERING_CAN(can)
p18
aVIS(is5)
p19
aVis5(e3, can)
p20
aVEVENT(evt2,F)
p21
aVACTION(a2,F)
p22
aVIS(is6)
p23
aVis6(evt2,a2)
p24
aVKICK(kick)
p25
aVIS(is7)
p26
aVis7(a2, kick)
p27
aVAGENT(agt2)
p28
aVPATIENT(pt2)
p29
aVagt2(a2, e1)
p30
aVpt2(a2, e3)
p31
aVMODIFY(mod1)
p32
aVmod1(e1, evt2)
p33
asVP1
p34
(lp35
VENTITY(e1,F)
p36
aVMAN(man)
p37
aVIS(is1)
p38
aVis1(e1, man)
p39
aVENTITY(e2,F)
p40
aVWOMAN(woman)
p41
aVIS(is2)
p42
aVis2(e2, woman)
p43
aVEVENT(evt1,F)
p44
aVACTION(a1,F)
p45
aVIS(is3)
p46
aVis3(evt1,a1)
p47
aVPUNCH(punch)
p48
aVIS(is4)
p49
aVis4(a1, punch)
p50
aVAGENT(agt1)
p51
aVPATIENT(pt1)
p52
aVagt1(a1, e2)
p53
aVpt1(a1, e1)
p54
assVcomments
p55
VActions + property modifier dynamic.
p56
sVsequence
p57
(lp58
VP1
p59
aVP2
p60
asssS'conceptLTM'
p61
g0
(clanguage_schemas
CONCEPT_LTM
p62
g2
Ntp63
Rp64
(dp65
S'inputs'
p66
(dp67
sS'name'
p68
S'Concept_LTM'
p69
sS'out_ports'
p70
(lp71
g0
(cschema_theory
PORT
p72
g2
Ntp73
Rp74
(dp75
g68
S'to_conceptualizer'
p76
sS'data'
p77
NsS'value'
p78
(lp79
g0
(clanguage_schemas
CPT_EVENT_SCHEMA
p80
g2
Ntp81
Rp82
(dp83
g68
S'?'
p84
sS'content'
p85
(dp86
S'concept'
p87
g0
(cconcept
CONCEPT
p88
g2
Ntp89
Rp90
(dp91
S'meaning'
p92
g84
sS'conceptual_knowledge'
p93
g0
(cconcept
CONCEPTUAL_KNOWLEDGE
p94
g2
Ntp95
Rp96
(dp97
S'graph'
p98
g0
(cnetworkx.classes.digraph
DiGraph
p99
g2
Ntp100
Rp101
(dp102
S'node'
p103
(dp104
I1
(dp105
g92
g84
ssI2
(dp106
g92
S'CONCEPT'
p107
ssI3
(dp108
g92
VACTION
p109
ssI4
(dp110
g92
VSYMMETRIC
p111
ssI5
(dp112
g92
VMEET
p113
ssI6
(dp114
g92
VSHAKE_HANDS
p115
ssI7
(dp116
g92
VINTRANSITIVE
p117
ssI8
(dp118
g92
VLAUGH
p119
ssI9
(dp120
g92
VTRANSITIVE
p121
ssI10
(dp122
g92
VHIT
p123
ssI11
(dp124
g92
VWATCH
p125
ssI12
(dp126
g92
VPUNCH
p127
ssI13
(dp128
g92
VSPLASH
p129
ssI14
(dp130
g92
VTALK
p131
ssI15
(dp132
g92
VKISS
p133
ssI16
(dp134
g92
VSQUIRT
p135
ssI17
(dp136
g92
VKICK
p137
ssI18
(dp138
g92
VWEAR
p139
ssI19
(dp140
g92
VDITRANSITIVE
p141
ssI20
(dp142
g92
VSEND
p143
ssI21
(dp144
g92
VGIVE
p145
ssI22
(dp146
g92
VPROPERTY
p147
ssI23
(dp148
g92
VCOLOR
p149
ssI24
(dp150
g92
VBLUE
p151
ssI25
(dp152
g92
VGREEN
p153
ssI26
(dp154
g92
VWHITE
p155
ssI27
(dp156
g92
VBLACK
p157
ssI28
(dp158
g92
VRED
p159
ssI29
(dp160
g92
VAPPEARANCE
p161
ssI30
(dp162
g92
VYOUNG
p163
ssI31
(dp164
g92
VPRETTY
p165
ssI32
(dp166
g92
VHANDSOME
p167
ssI33
(dp168
g92
VSIZE
p169
ssI34
(dp170
g92
VSMALL
p171
ssI35
(dp172
g92
VBIG
p173
ssI36
(dp174
g92
VRELATION
p175
ssI37
(dp176
g92
VACTION_FRAME
p177
ssI38
(dp178
g92
VMODIFY
p179
ssI39
(dp180
g92
VTHEME
p181
ssI40
(dp182
g92
VRECIPIENT
p183
ssI41
(dp184
g92
VATTR
p185
ssI42
(dp186
g92
VAGT_PT
p187
ssI43
(dp188
g92
VPATIENT
p189
ssI44
(dp190
g92
VAGT+PT
p191
ssI45
(dp192
g92
VAGENT
p193
ssI46
(dp194
g92
VEVENT_FRAME
p195
ssI47
(dp196
g92
VTEMPORAL
p197
ssI48
(dp198
g92
VCONCURRENT
p199
ssI49
(dp200
g92
VSUCCESSIVE
p201
ssI50
(dp202
g92
VSPATIAL
p203
ssI51
(dp204
g92
VIN
p205
ssI52
(dp206
g92
VIS
p207
ssI53
(dp208
g92
VOBJECT_FRAME
p209
ssI54
(dp210
g92
VEVENT
p211
ssI55
(dp212
g92
VENTITY
p213
ssI56
(dp214
g92
VANIMATE
p215
ssI57
(dp216
g92
VANIMAL
p217
ssI58
(dp218
g92
VHUMAN
p219
ssI59
(dp220
g92
VOBJECT
p221
ssI60
(dp222
g92
VITEM
p223
ssI61
(dp224
g92
VWAGON
p225
ssI62
(dp226
g92
VWATERING_CAN
p227
ssI63
(dp228
g92
VBAG
p229
ssI64
(dp230
g92
VTREE
p231
ssI65
(dp232
g92
VHOOK
p233
ssI66
(dp234
g92
VCELLO
p235
ssI67
(dp236
g92
VBOOKSHELF
p237
ssI68
(dp238
g92
VCLOTHING
p239
ssI69
(dp240
g92
VTSHIRT
p241
ssI70
(dp242
g92
VDRESS
p243
ssI71
(dp244
g92
VSHIRT
p245
ssI72
(dp246
g92
VSUIT
p247
ssI73
(dp248
g92
VTURTLE
p249
ssI74
(dp250
g92
VMOUSE
p251
ssI75
(dp252
g92
VDOG
p253
ssI76
(dp254
g92
VBOY
p255
ssI77
(dp256
g92
VWOMAN
p257
ssI78
(dp258
g92
VPEOPLE
p259
ssI79
(dp260
g92
VPOLICEMAN
p261
ssI80
(dp262
g92
VHUNTER
p263
ssI81
(dp264
g92
VBALLERINA
p265
ssI82
(dp266
g92
VCELLIST
p267
ssI83
(dp268
g92
VGIRL
p269
ssI84
(dp270
g92
VFENCER
p271
ssI85
(dp272
g92
VROBBER
p273
ssI86
(dp274
g92
VMAN
p275
ssI87
(dp276
g92
VPLACE
p277
ssI88
(dp278
g92
VBOXINGRING
p279
ssI89
(dp280
g92
VPARK
p281
ssI90
(dp282
g92
VMALE
p283
ssI91
(dp284
g92
VFEMALE
p285
sssS'node_dict_factory'
p286
c__builtin__
dict
p287
sS'edge_attr_dict_factory'
p288
g287
sS'succ'
p289
(dp290
I1
(dp291
sI2
(dp292
sI3
(dp293
I2
(dp294
S'type'
p295
S'is_a'
p296
sssI4
(dp297
I3
(dp298
g295
g296
sssI5
(dp299
I4
(dp300
g295
g296
sssI6
(dp301
I4
(dp302
g295
g296
sssI7
(dp303
I3
(dp304
g295
g296
sssI8
(dp305
I7
(dp306
g295
g296
sssI9
(dp307
I3
(dp308
g295
g296
sssI10
(dp309
I9
(dp310
g295
g296
sssI11
(dp311
I9
(dp312
g295
g296
sssI12
(dp313
I9
(dp314
g295
g296
sssI13
(dp315
I9
(dp316
g295
g296
sssI14
(dp317
I9
(dp318
g295
g296
sssI15
(dp319
I9
(dp320
g295
g296
sssI16
(dp321
I9
(dp322
g295
g296
sssI17
(dp323
I9
(dp324
g295
g296
sssI18
(dp325
I9
(dp326
g295
g296
sssI19
(dp327
I3
(dp328
g295
g296
sssI20
(dp329
I19
(dp330
g295
g296
sssI21
(dp331
I19
(dp332
g295
g296
sssI22
(dp333
I2
(dp334
g295
g296
sssI23
(dp335
I22
(dp336
g295
g296
sssI24
(dp337
I23
(dp338
g295
g296
sssI25
(dp339
I23
(dp340
g295
g296
sssI26
(dp341
I23
(dp342
g295
g296
sssI27
(dp343
I23
(dp344
g295
g296
sssI28
(dp345
I23
(dp346
g295
g296
sssI29
(dp347
I22
(dp348
g295
g296
sssI30
(dp349
I29
(dp350
g295
g296
sssI31
(dp351
I29
(dp352
g295
g296
sssI32
(dp353
I29
(dp354
g295
g296
sssI33
(dp355
I22
(dp356
g295
g296
sssI34
(dp357
I33
(dp358
g295
g296
sssI35
(dp359
I33
(dp360
g295
g296
sssI36
(dp361
I2
(dp362
g295
g296
sssI37
(dp363
I36
(dp364
g295
g296
sssI38
(dp365
I37
(dp366
g295
g296
ssI53
(dp367
g295
g296
sssI39
(dp368
I37
(dp369
g295
g296
sssI40
(dp370
I37
(dp371
g295
g296
sssI41
(dp372
I37
(dp373
g295
g296
ssI53
(dp374
g295
g296
sssI42
(dp375
I37
(dp376
g295
g296
sssI43
(dp377
I42
(dp378
g295
g296
sssI44
(dp379
I43
(dp380
g295
g296
ssI45
(dp381
g295
g296
sssI45
(dp382
I42
(dp383
g295
g296
sssI46
(dp384
I36
(dp385
g295
g296
sssI47
(dp386
I46
(dp387
g295
g296
sssI48
(dp388
I47
(dp389
g295
g296
sssI49
(dp390
I47
(dp391
g295
g296
sssI50
(dp392
I46
(dp393
g295
g296
sssI51
(dp394
I50
(dp395
g295
g296
sssI52
(dp396
I36
(dp397
g295
g296
sssI53
(dp398
I36
(dp399
g295
g296
sssI54
(dp400
I2
(dp401
g295
g296
sssI55
(dp402
I2
(dp403
g295
g296
sssI56
(dp404
I55
(dp405
g295
g296
sssI57
(dp406
I56
(dp407
g295
g296
ssI59
(dp408
g295
g296
sssI58
(dp409
I56
(dp410
g295
g296
ssI59
(dp411
g295
g296
sssI59
(dp412
I55
(dp413
g295
g296
sssI60
(dp414
I59
(dp415
g295
g296
sssI61
(dp416
I60
(dp417
g295
g296
sssI62
(dp418
I60
(dp419
g295
g296
sssI63
(dp420
I60
(dp421
g295
g296
sssI64
(dp422
I60
(dp423
g295
g296
sssI65
(dp424
I60
(dp425
g295
g296
sssI66
(dp426
I60
(dp427
g295
g296
sssI67
(dp428
I60
(dp429
g295
g296
sssI68
(dp430
I60
(dp431
g295
g296
sssI69
(dp432
I68
(dp433
g295
g296
sssI70
(dp434
I68
(dp435
g295
g296
sssI71
(dp436
I68
(dp437
g295
g296
sssI72
(dp438
I68
(dp439
g295
g296
sssI73
(dp440
I57
(dp441
g295
g296
sssI74
(dp442
I57
(dp443
g295
g296
sssI75
(dp444
I57
(dp445
g295
g296
sssI76
(dp446
I58
(dp447
g295
g296
ssI90
(dp448
g295
g296
sssI77
(dp449
I58
(dp450
g295
g296
ssI91
(dp451
g295
g296
sssI78
(dp452
I58
(dp453
g295
g296
sssI79
(dp454
I58
(dp455
g295
g296
sssI80
(dp456
I58
(dp457
g295
g296
sssI81
(dp458
I58
(dp459
g295
g296
ssI91
(dp460
g295
g296
sssI82
(dp461
I58
(dp462
g295
g296
sssI83
(dp463
I58
(dp464
g295
g296
ssI91
(dp465
g295
g296
sssI84
(dp466
I58
(dp467
g295
g296
sssI85
(dp468
I58
(dp469
g295
g296
sssI86
(dp470
I58
(dp471
g295
g296
ssI90
(dp472
g295
g296
sssI87
(dp473
I55
(dp474
g295
g296
sssI88
(dp475
I87
(dp476
g295
g296
sssI89
(dp477
I87
(dp478
g295
g296
sssI90
(dp479
I55
(dp480
g295
g296
sssI91
(dp481
I55
(dp482
g295
g296
ssssS'edge'
p483
g290
sg98
(dp484
sS'adjlist_dict_factory'
p485
g287
sS'adj'
p486
g290
sS'pred'
p487
(dp488
I1
(dp489
sI2
(dp490
I3
g294
sI36
g362
sI54
g401
sI22
g334
sI55
g403
ssI3
(dp491
I9
g308
sI19
g328
sI4
g298
sI7
g304
ssI4
(dp492
I5
g300
sI6
g302
ssI5
(dp493
sI6
(dp494
sI7
(dp495
I8
g306
ssI8
(dp496
sI9
(dp497
I10
g310
sI11
g312
sI12
g314
sI13
g316
sI14
g318
sI15
g320
sI16
g322
sI17
g324
sI18
g326
ssI10
(dp498
sI11
(dp499
sI12
(dp500
sI13
(dp501
sI14
(dp502
sI15
(dp503
sI16
(dp504
sI17
(dp505
sI18
(dp506
sI19
(dp507
I20
g330
sI21
g332
ssI20
(dp508
sI21
(dp509
sI22
(dp510
I33
g356
sI29
g348
sI23
g336
ssI23
(dp511
I24
g338
sI25
g340
sI26
g342
sI27
g344
sI28
g346
ssI24
(dp512
sI25
(dp513
sI26
(dp514
sI27
(dp515
sI28
(dp516
sI29
(dp517
I32
g354
sI30
g350
sI31
g352
ssI30
(dp518
sI31
(dp519
sI32
(dp520
sI33
(dp521
I34
g358
sI35
g360
ssI34
(dp522
sI35
(dp523
sI36
(dp524
I52
g397
sI37
g364
sI46
g385
sI53
g399
ssI37
(dp525
I40
g371
sI41
g373
sI42
g376
sI38
g366
sI39
g369
ssI38
(dp526
sI39
(dp527
sI40
(dp528
sI41
(dp529
sI42
(dp530
I43
g378
sI45
g383
ssI43
(dp531
I44
g380
ssI44
(dp532
sI45
(dp533
I44
g381
ssI46
(dp534
I50
g393
sI47
g387
ssI47
(dp535
I48
g389
sI49
g391
ssI48
(dp536
sI49
(dp537
sI50
(dp538
I51
g395
ssI51
(dp539
sI52
(dp540
sI53
(dp541
I41
g374
sI38
g367
ssI54
(dp542
sI55
(dp543
I56
g405
sI91
g482
sI90
g480
sI59
g413
sI87
g474
ssI56
(dp544
I57
g407
sI58
g410
ssI57
(dp545
I73
g441
sI74
g443
sI75
g445
ssI58
(dp546
I76
g447
sI77
g450
sI78
g453
sI79
g455
sI80
g457
sI81
g459
sI82
g462
sI83
g464
sI84
g467
sI85
g469
sI86
g471
ssI59
(dp547
I57
g408
sI58
g411
sI60
g415
ssI60
(dp548
I64
g423
sI65
g425
sI66
g427
sI67
g429
sI68
g431
sI61
g417
sI62
g419
sI63
g421
ssI61
(dp549
sI62
(dp550
sI63
(dp551
sI64
(dp552
sI65
(dp553
sI66
(dp554
sI67
(dp555
sI68
(dp556
I72
g439
sI69
g433
sI70
g435
sI71
g437
ssI69
(dp557
sI70
(dp558
sI71
(dp559
sI72
(dp560
sI73
(dp561
sI74
(dp562
sI75
(dp563
sI76
(dp564
sI77
(dp565
sI78
(dp566
sI79
(dp567
sI80
(dp568
sI81
(dp569
sI82
(dp570
sI83
(dp571
sI84
(dp572
sI85
(dp573
sI86
(dp574
sI87
(dp575
I88
g476
sI89
g478
ssI88
(dp576
sI89
(dp577
sI90
(dp578
I76
g448
sI86
g472
ssI91
(dp579
I81
g460
sI83
g465
sI77
g451
sssbsS'nodes'
p580
(lp581
g90
ag0
(g88
g2
Ntp582
Rp583
(dp584
g92
g107
sg93
g96
sS'id'
p585
I2
sg68
g107
sbag0
(g88
g2
Ntp586
Rp587
(dp588
g92
g109
sg93
g96
sg585
I3
sg68
g109
sbag0
(g88
g2
Ntp589
Rp590
(dp591
g92
g111
sg93
g96
sg585
I4
sg68
g111
sbag0
(g88
g2
Ntp592
Rp593
(dp594
g92
g113
sg93
g96
sg585
I5
sg68
g113
sbag0
(g88
g2
Ntp595
Rp596
(dp597
g92
g115
sg93
g96
sg585
I6
sg68
g115
sbag0
(g88
g2
Ntp598
Rp599
(dp600
g92
g117
sg93
g96
sg585
I7
sg68
g117
sbag0
(g88
g2
Ntp601
Rp602
(dp603
g92
g119
sg93
g96
sg585
I8
sg68
g119
sbag0
(g88
g2
Ntp604
Rp605
(dp606
g92
g121
sg93
g96
sg585
I9
sg68
g121
sbag0
(g88
g2
Ntp607
Rp608
(dp609
g92
g123
sg93
g96
sg585
I10
sg68
g123
sbag0
(g88
g2
Ntp610
Rp611
(dp612
g92
g125
sg93
g96
sg585
I11
sg68
g125
sbag0
(g88
g2
Ntp613
Rp614
(dp615
g92
g127
sg93
g96
sg585
I12
sg68
g127
sbag0
(g88
g2
Ntp616
Rp617
(dp618
g92
g129
sg93
g96
sg585
I13
sg68
g129
sbag0
(g88
g2
Ntp619
Rp620
(dp621
g92
g131
sg93
g96
sg585
I14
sg68
g131
sbag0
(g88
g2
Ntp622
Rp623
(dp624
g92
g133
sg93
g96
sg585
I15
sg68
g133
sbag0
(g88
g2
Ntp625
Rp626
(dp627
g92
g135
sg93
g96
sg585
I16
sg68
g135
sbag0
(g88
g2
Ntp628
Rp629
(dp630
g92
g137
sg93
g96
sg585
I17
sg68
g137
sbag0
(g88
g2
Ntp631
Rp632
(dp633
g92
g139
sg93
g96
sg585
I18
sg68
g139
sbag0
(g88
g2
Ntp634
Rp635
(dp636
g92
g141
sg93
g96
sg585
I19
sg68
g141
sbag0
(g88
g2
Ntp637
Rp638
(dp639
g92
g143
sg93
g96
sg585
I20
sg68
g143
sbag0
(g88
g2
Ntp640
Rp641
(dp642
g92
g145
sg93
g96
sg585
I21
sg68
g145
sbag0
(g88
g2
Ntp643
Rp644
(dp645
g92
g147
sg93
g96
sg585
I22
sg68
g147
sbag0
(g88
g2
Ntp646
Rp647
(dp648
g92
g149
sg93
g96
sg585
I23
sg68
g149
sbag0
(g88
g2
Ntp649
Rp650
(dp651
g92
g151
sg93
g96
sg585
I24
sg68
g151
sbag0
(g88
g2
Ntp652
Rp653
(dp654
g92
g153
sg93
g96
sg585
I25
sg68
g153
sbag0
(g88
g2
Ntp655
Rp656
(dp657
g92
g155
sg93
g96
sg585
I26
sg68
g155
sbag0
(g88
g2
Ntp658
Rp659
(dp660
g92
g157
sg93
g96
sg585
I27
sg68
g157
sbag0
(g88
g2
Ntp661
Rp662
(dp663
g92
g159
sg93
g96
sg585
I28
sg68
g159
sbag0
(g88
g2
Ntp664
Rp665
(dp666
g92
g161
sg93
g96
sg585
I29
sg68
g161
sbag0
(g88
g2
Ntp667
Rp668
(dp669
g92
g163
sg93
g96
sg585
I30
sg68
g163
sbag0
(g88
g2
Ntp670
Rp671
(dp672
g92
g165
sg93
g96
sg585
I31
sg68
g165
sbag0
(g88
g2
Ntp673
Rp674
(dp675
g92
g167
sg93
g96
sg585
I32
sg68
g167
sbag0
(g88
g2
Ntp676
Rp677
(dp678
g92
g169
sg93
g96
sg585
I33
sg68
g169
sbag0
(g88
g2
Ntp679
Rp680
(dp681
g92
g171
sg93
g96
sg585
I34
sg68
g171
sbag0
(g88
g2
Ntp682
Rp683
(dp684
g92
g173
sg93
g96
sg585
I35
sg68
g173
sbag0
(g88
g2
Ntp685
Rp686
(dp687
g92
g175
sg93
g96
sg585
I36
sg68
g175
sbag0
(g88
g2
Ntp688
Rp689
(dp690
g92
g177
sg93
g96
sg585
I37
sg68
g177
sbag0
(g88
g2
Ntp691
Rp692
(dp693
g92
g179
sg93
g96
sg585
I38
sg68
g179
sbag0
(g88
g2
Ntp694
Rp695
(dp696
g92
g181
sg93
g96
sg585
I39
sg68
g181
sbag0
(g88
g2
Ntp697
Rp698
(dp699
g92
g183
sg93
g96
sg585
I40
sg68
g183
sbag0
(g88
g2
Ntp700
Rp701
(dp702
g92
g185
sg93
g96
sg585
I41
sg68
g185
sbag0
(g88
g2
Ntp703
Rp704
(dp705
g92
g187
sg93
g96
sg585
I42
sg68
g187
sbag0
(g88
g2
Ntp706
Rp707
(dp708
g92
g189
sg93
g96
sg585
I43
sg68
g189
sbag0
(g88
g2
Ntp709
Rp710
(dp711
g92
g191
sg93
g96
sg585
I44
sg68
g191
sbag0
(g88
g2
Ntp712
Rp713
(dp714
g92
g193
sg93
g96
sg585
I45
sg68
g193
sbag0
(g88
g2
Ntp715
Rp716
(dp717
g92
g195
sg93
g96
sg585
I46
sg68
g195
sbag0
(g88
g2
Ntp718
Rp719
(dp720
g92
g197
sg93
g96
sg585
I47
sg68
g197
sbag0
(g88
g2
Ntp721
Rp722
(dp723
g92
g199
sg93
g96
sg585
I48
sg68
g199
sbag0
(g88
g2
Ntp724
Rp725
(dp726
g92
g201
sg93
g96
sg585
I49
sg68
g201
sbag0
(g88
g2
Ntp727
Rp728
(dp729
g92
g203
sg93
g96
sg585
I50
sg68
g203
sbag0
(g88
g2
Ntp730
Rp731
(dp732
g92
g205
sg93
g96
sg585
I51
sg68
g205
sbag0
(g88
g2
Ntp733
Rp734
(dp735
g92
g207
sg93
g96
sg585
I52
sg68
g207
sbag0
(g88
g2
Ntp736
Rp737
(dp738
g92
g209
sg93
g96
sg585
I53
sg68
g209
sbag0
(g88
g2
Ntp739
Rp740
(dp741
g92
g211
sg93
g96
sg585
I54
sg68
g211
sbag0
(g88
g2
Ntp742
Rp743
(dp744
g92
g213
sg93
g96
sg585
I55
sg68
g213
sbag0
(g88
g2
Ntp745
Rp746
(dp747
g92
g215
sg93
g96
sg585
I56
sg68
g215
sbag0
(g88
g2
Ntp748
Rp749
(dp750
g92
g217
sg93
g96
sg585
I57
sg68
g217
sbag0
(g88
g2
Ntp751
Rp752
(dp753
g92
g219
sg93
g96
sg585
I58
sg68
g219
sbag0
(g88
g2
Ntp754
Rp755
(dp756
g92
g221
sg93
g96
sg585
I59
sg68
g221
sbag0
(g88
g2
Ntp757
Rp758
(dp759
g92
g223
sg93
g96
sg585
I60
sg68
g223
sbag0
(g88
g2
Ntp760
Rp761
(dp762
g92
g225
sg93
g96
sg585
I61
sg68
g225
sbag0
(g88
g2
Ntp763
Rp764
(dp765
g92
g227
sg93
g96
sg585
I62
sg68
g227
sbag0
(g88
g2
Ntp766
Rp767
(dp768
g92
g229
sg93
g96
sg585
I63
sg68
g229
sbag0
(g88
g2
Ntp769
Rp770
(dp771
g92
g231
sg93
g96
sg585
I64
sg68
g231
sbag0
(g88
g2
Ntp772
Rp773
(dp774
g92
g233
sg93
g96
sg585
I65
sg68
g233
sbag0
(g88
g2
Ntp775
Rp776
(dp777
g92
g235
sg93
g96
sg585
I66
sg68
g235
sbag0
(g88
g2
Ntp778
Rp779
(dp780
g92
g237
sg93
g96
sg585
I67
sg68
g237
sbag0
(g88
g2
Ntp781
Rp782
(dp783
g92
g239
sg93
g96
sg585
I68
sg68
g239
sbag0
(g88
g2
Ntp784
Rp785
(dp786
g92
g241
sg93
g96
sg585
I69
sg68
g241
sbag0
(g88
g2
Ntp787
Rp788
(dp789
g92
g243
sg93
g96
sg585
I70
sg68
g243
sbag0
(g88
g2
Ntp790
Rp791
(dp792
g92
g245
sg93
g96
sg585
I71
sg68
g245
sbag0
(g88
g2
Ntp793
Rp794
(dp795
g92
g247
sg93
g96
sg585
I72
sg68
g247
sbag0
(g88
g2
Ntp796
Rp797
(dp798
g92
g249
sg93
g96
sg585
I73
sg68
g249
sbag0
(g88
g2
Ntp799
Rp800
(dp801
g92
g251
sg93
g96
sg585
I74
sg68
g251
sbag0
(g88
g2
Ntp802
Rp803
(dp804
g92
g253
sg93
g96
sg585
I75
sg68
g253
sbag0
(g88
g2
Ntp805
Rp806
(dp807
g92
g255
sg93
g96
sg585
I76
sg68
g255
sbag0
(g88
g2
Ntp808
Rp809
(dp810
g92
g257
sg93
g96
sg585
I77
sg68
g257
sbag0
(g88
g2
Ntp811
Rp812
(dp813
g92
g259
sg93
g96
sg585
I78
sg68
g259
sbag0
(g88
g2
Ntp814
Rp815
(dp816
g92
g261
sg93
g96
sg585
I79
sg68
g261
sbag0
(g88
g2
Ntp817
Rp818
(dp819
g92
g263
sg93
g96
sg585
I80
sg68
g263
sbag0
(g88
g2
Ntp820
Rp821
(dp822
g92
g265
sg93
g96
sg585
I81
sg68
g265
sbag0
(g88
g2
Ntp823
Rp824
(dp825
g92
g267
sg93
g96
sg585
I82
sg68
g267
sbag0
(g88
g2
Ntp826
Rp827
(dp828
g92
g269
sg93
g96
sg585
I83
sg68
g269
sbag0
(g88
g2
Ntp829
Rp830
(dp831
g92
g271
sg93
g96
sg585
I84
sg68
g271
sbag0
(g88
g2
Ntp832
Rp833
(dp834
g92
g273
sg93
g96
sg585
I85
sg68
g273
sbag0
(g88
g2
Ntp835
Rp836
(dp837
g92
g275
sg93
g96
sg585
I86
sg68
g275
sbag0
(g88
g2
Ntp838
Rp839
(dp840
g92
g277
sg93
g96
sg585
I87
sg68
g277
sbag0
(g88
g2
Ntp841
Rp842
(dp843
g92
g279
sg93
g96
sg585
I88
sg68
g279
sbag0
(g88
g2
Ntp844
Rp845
(dp846
g92
g281
sg93
g96
sg585
I89
sg68
g281
sbag0
(g88
g2
Ntp847
Rp848
(dp849
g92
g283
sg93
g96
sg585
I90
sg68
g283
sbag0
(g88
g2
Ntp850
Rp851
(dp852
g92
g285
sg93
g96
sg585
I91
sg68
g285
sbasS'edges'
p853
(lp854
g0
(cconcept
SEM_REL
p855
g2
Ntp856
Rp857
(dp858
S'pTo'
p859
g583
sg295
g296
sS'pFrom'
p860
g587
sbag0
(g855
g2
Ntp861
Rp862
(dp863
g859
g587
sg295
g296
sg860
g590
sbag0
(g855
g2
Ntp864
Rp865
(dp866
g859
g590
sg295
g296
sg860
g593
sbag0
(g855
g2
Ntp867
Rp868
(dp869
g859
g590
sg295
g296
sg860
g596
sbag0
(g855
g2
Ntp870
Rp871
(dp872
g859
g587
sg295
g296
sg860
g599
sbag0
(g855
g2
Ntp873
Rp874
(dp875
g859
g599
sg295
g296
sg860
g602
sbag0
(g855
g2
Ntp876
Rp877
(dp878
g859
g587
sg295
g296
sg860
g605
sbag0
(g855
g2
Ntp879
Rp880
(dp881
g859
g605
sg295
g296
sg860
g608
sbag0
(g855
g2
Ntp882
Rp883
(dp884
g859
g605
sg295
g296
sg860
g611
sbag0
(g855
g2
Ntp885
Rp886
(dp887
g859
g605
sg295
g296
sg860
g614
sbag0
(g855
g2
Ntp888
Rp889
(dp890
g859
g605
sg295
g296
sg860
g617
sbag0
(g855
g2
Ntp891
Rp892
(dp893
g859
g605
sg295
g296
sg860
g620
sbag0
(g855
g2
Ntp894
Rp895
(dp896
g859
g605
sg295
g296
sg860
g623
sbag0
(g855
g2
Ntp897
Rp898
(dp899
g859
g605
sg295
g296
sg860
g626
sbag0
(g855
g2
Ntp900
Rp901
(dp902
g859
g605
sg295
g296
sg860
g629
sbag0
(g855
g2
Ntp903
Rp904
(dp905
g859
g605
sg295
g296
sg860
g632
sbag0
(g855
g2
Ntp906
Rp907
(dp908
g859
g587
sg295
g296
sg860
g635
sbag0
(g855
g2
Ntp909
Rp910
(dp911
g859
g635
sg295
g296
sg860
g638
sbag0
(g855
g2
Ntp912
Rp913
(dp914
g859
g635
sg295
g296
sg860
g641
sbag0
(g855
g2
Ntp915
Rp916
(dp917
g859
g583
sg295
g296
sg860
g644
sbag0
(g855
g2
Ntp918
Rp919
(dp920
g859
g644
sg295
g296
sg860
g647
sbag0
(g855
g2
Ntp921
Rp922
(dp923
g859
g647
sg295
g296
sg860
g650
sbag0
(g855
g2
Ntp924
Rp925
(dp926
g859
g647
sg295
g296
sg860
g653
sbag0
(g855
g2
Ntp927
Rp928
(dp929
g859
g647
sg295
g296
sg860
g656
sbag0
(g855
g2
Ntp930
Rp931
(dp932
g859
g647
sg295
g296
sg860
g659
sbag0
(g855
g2
Ntp933
Rp934
(dp935
g859
g647
sg295
g296
sg860
g662
sbag0
(g855
g2
Ntp936
Rp937
(dp938
g859
g644
sg295
g296
sg860
g665
sbag0
(g855
g2
Ntp939
Rp940
(dp941
g859
g665
sg295
g296
sg860
g668
sbag0
(g855
g2
Ntp942
Rp943
(dp944
g859
g665
sg295
g296
sg860
g671
sbag0
(g855
g2
Ntp945
Rp946
(dp947
g859
g665
sg295
g296
sg860
g674
sbag0
(g855
g2
Ntp948
Rp949
(dp950
g859
g644
sg295
g296
sg860
g677
sbag0
(g855
g2
Ntp951
Rp952
(dp953
g859
g677
sg295
g296
sg860
g680
sbag0
(g855
g2
Ntp954
Rp955
(dp956
g859
g677
sg295
g296
sg860
g683
sbag0
(g855
g2
Ntp957
Rp958
(dp959
g859
g583
sg295
g296
sg860
g686
sbag0
(g855
g2
Ntp960
Rp961
(dp962
g859
g686
sg295
g296
sg860
g689
sbag0
(g855
g2
Ntp963
Rp964
(dp965
g859
g689
sg295
g296
sg860
g692
sbag0
(g855
g2
Ntp966
Rp967
(dp968
g859
g689
sg295
g296
sg860
g695
sbag0
(g855
g2
Ntp969
Rp970
(dp971
g859
g689
sg295
g296
sg860
g698
sbag0
(g855
g2
Ntp972
Rp973
(dp974
g859
g689
sg295
g296
sg860
g701
sbag0
(g855
g2
Ntp975
Rp976
(dp977
g859
g689
sg295
g296
sg860
g704
sbag0
(g855
g2
Ntp978
Rp979
(dp980
g859
g704
sg295
g296
sg860
g707
sbag0
(g855
g2
Ntp981
Rp982
(dp983
g859
g707
sg295
g296
sg860
g710
sbag0
(g855
g2
Ntp984
Rp985
(dp986
g859
g704
sg295
g296
sg860
g713
sbag0
(g855
g2
Ntp987
Rp988
(dp989
g859
g713
sg295
g296
sg860
g710
sbag0
(g855
g2
Ntp990
Rp991
(dp992
g859
g686
sg295
g296
sg860
g716
sbag0
(g855
g2
Ntp993
Rp994
(dp995
g859
g716
sg295
g296
sg860
g719
sbag0
(g855
g2
Ntp996
Rp997
(dp998
g859
g719
sg295
g296
sg860
g722
sbag0
(g855
g2
Ntp999
Rp1000
(dp1001
g859
g719
sg295
g296
sg860
g725
sbag0
(g855
g2
Ntp1002
Rp1003
(dp1004
g859
g716
sg295
g296
sg860
g728
sbag0
(g855
g2
Ntp1005
Rp1006
(dp1007
g859
g728
sg295
g296
sg860
g731
sbag0
(g855
g2
Ntp1008
Rp1009
(dp1010
g859
g686
sg295
g296
sg860
g734
sbag0
(g855
g2
Ntp1011
Rp1012
(dp1013
g859
g686
sg295
g296
sg860
g737
sbag0
(g855
g2
Ntp1014
Rp1015
(dp1016
g859
g737
sg295
g296
sg860
g692
sbag0
(g855
g2
Ntp1017
Rp1018
(dp1019
g859
g737
sg295
g296
sg860
g701
sbag0
(g855
g2
Ntp1020
Rp1021
(dp1022
g859
g583
sg295
g296
sg860
g740
sbag0
(g855
g2
Ntp1023
Rp1024
(dp1025
g859
g583
sg295
g296
sg860
g743
sbag0
(g855
g2
Ntp1026
Rp1027
(dp1028
g859
g743
sg295
g296
sg860
g746
sbag0
(g855
g2
Ntp1029
Rp1030
(dp1031
g859
g746
sg295
g296
sg860
g749
sbag0
(g855
g2
Ntp1032
Rp1033
(dp1034
g859
g746
sg295
g296
sg860
g752
sbag0
(g855
g2
Ntp1035
Rp1036
(dp1037
g859
g743
sg295
g296
sg860
g755
sbag0
(g855
g2
Ntp1038
Rp1039
(dp1040
g859
g755
sg295
g296
sg860
g758
sbag0
(g855
g2
Ntp1041
Rp1042
(dp1043
g859
g758
sg295
g296
sg860
g761
sbag0
(g855
g2
Ntp1044
Rp1045
(dp1046
g859
g758
sg295
g296
sg860
g764
sbag0
(g855
g2
Ntp1047
Rp1048
(dp1049
g859
g758
sg295
g296
sg860
g767
sbag0
(g855
g2
Ntp1050
Rp1051
(dp1052
g859
g758
sg295
g296
sg860
g770
sbag0
(g855
g2
Ntp1053
Rp1054
(dp1055
g859
g758
sg295
g296
sg860
g773
sbag0
(g855
g2
Ntp1056
Rp1057
(dp1058
g859
g758
sg295
g296
sg860
g776
sbag0
(g855
g2
Ntp1059
Rp1060
(dp1061
g859
g758
sg295
g296
sg860
g779
sbag0
(g855
g2
Ntp1062
Rp1063
(dp1064
g859
g758
sg295
g296
sg860
g782
sbag0
(g855
g2
Ntp1065
Rp1066
(dp1067
g859
g782
sg295
g296
sg860
g785
sbag0
(g855
g2
Ntp1068
Rp1069
(dp1070
g859
g782
sg295
g296
sg860
g788
sbag0
(g855
g2
Ntp1071
Rp1072
(dp1073
g859
g782
sg295
g296
sg860
g791
sbag0
(g855
g2
Ntp1074
Rp1075
(dp1076
g859
g782
sg295
g296
sg860
g794
sbag0
(g855
g2
Ntp1077
Rp1078
(dp1079
g859
g755
sg295
g296
sg860
g749
sbag0
(g855
g2
Ntp1080
Rp1081
(dp1082
g859
g749
sg295
g296
sg860
g797
sbag0
(g855
g2
Ntp1083
Rp1084
(dp1085
g859
g749
sg295
g296
sg860
g800
sbag0
(g855
g2
Ntp1086
Rp1087
(dp1088
g859
g749
sg295
g296
sg860
g803
sbag0
(g855
g2
Ntp1089
Rp1090
(dp1091
g859
g755
sg295
g296
sg860
g752
sbag0
(g855
g2
Ntp1092
Rp1093
(dp1094
g859
g752
sg295
g296
sg860
g806
sbag0
(g855
g2
Ntp1095
Rp1096
(dp1097
g859
g752
sg295
g296
sg860
g809
sbag0
(g855
g2
Ntp1098
Rp1099
(dp1100
g859
g752
sg295
g296
sg860
g812
sbag0
(g855
g2
Ntp1101
Rp1102
(dp1103
g859
g752
sg295
g296
sg860
g815
sbag0
(g855
g2
Ntp1104
Rp1105
(dp1106
g859
g752
sg295
g296
sg860
g818
sbag0
(g855
g2
Ntp1107
Rp1108
(dp1109
g859
g752
sg295
g296
sg860
g821
sbag0
(g855
g2
Ntp1110
Rp1111
(dp1112
g859
g752
sg295
g296
sg860
g824
sbag0
(g855
g2
Ntp1113
Rp1114
(dp1115
g859
g752
sg295
g296
sg860
g827
sbag0
(g855
g2
Ntp1116
Rp1117
(dp1118
g859
g752
sg295
g296
sg860
g830
sbag0
(g855
g2
Ntp1119
Rp1120
(dp1121
g859
g752
sg295
g296
sg860
g833
sbag0
(g855
g2
Ntp1122
Rp1123
(dp1124
g859
g752
sg295
g296
sg860
g836
sbag0
(g855
g2
Ntp1125
Rp1126
(dp1127
g859
g743
sg295
g296
sg860
g839
sbag0
(g855
g2
Ntp1128
Rp1129
(dp1130
g859
g839
sg295
g296
sg860
g842
sbag0
(g855
g2
Ntp1131
Rp1132
(dp1133
g859
g839
sg295
g296
sg860
g845
sbag0
(g855
g2
Ntp1134
Rp1135
(dp1136
g859
g743
sg295
g296
sg860
g848
sbag0
(g855
g2
Ntp1137
Rp1138
(dp1139
g859
g848
sg295
g296
sg860
g806
sbag0
(g855
g2
Ntp1140
Rp1141
(dp1142
g859
g848
sg295
g296
sg860
g836
sbag0
(g855
g2
Ntp1143
Rp1144
(dp1145
g859
g743
sg295
g296
sg860
g851
sbag0
(g855
g2
Ntp1146
Rp1147
(dp1148
g859
g851
sg295
g296
sg860
g821
sbag0
(g855
g2
Ntp1149
Rp1150
(dp1151
g859
g851
sg295
g296
sg860
g827
sbag0
(g855
g2
Ntp1152
Rp1153
(dp1154
g859
g851
sg295
g296
sg860
g809
sbasS'neutral'
p1155
g90
sbsg585
I1
sg68
g84
sbssS'model'
p1156
Nsg585
I9
sS'LTM'
p1157
g64
sS'init_act'
p1158
F1.0
sbag0
(clanguage_schemas
CPT_ACTION_SCHEMA
p1159
g2
Ntp1160
Rp1161
(dp1162
g68
g109
sg85
(dp1163
g87
g587
ssg1156
Nsg585
I10
sg1157
g64
sg1158
F1.0
sbag0
(g1159
g2
Ntp1164
Rp1165
(dp1166
g68
g111
sg85
(dp1167
g87
g590
ssg1156
Nsg585
I11
sg1157
g64
sg1158
F1.0
sbag0
(g1159
g2
Ntp1168
Rp1169
(dp1170
g68
g113
sg85
(dp1171
g87
g593
ssg1156
Nsg585
I12
sg1157
g64
sg1158
F1.0
sbag0
(g1159
g2
Ntp1172
Rp1173
(dp1174
g68
g115
sg85
(dp1175
g87
g596
ssg1156
Nsg585
I13
sg1157
g64
sg1158
F1.0
sbag0
(g1159
g2
Ntp1176
Rp1177
(dp1178
g68
g117
sg85
(dp1179
g87
g599
ssg1156
Nsg585
I14
sg1157
g64
sg1158
F1.0
sbag0
(g1159
g2
Ntp1180
Rp1181
(dp1182
g68
g119
sg85
(dp1183
g87
g602
ssg1156
Nsg585
I15
sg1157
g64
sg1158
F1.0
sbag0
(g1159
g2
Ntp1184
Rp1185
(dp1186
g68
g121
sg85
(dp1187
g87
g605
ssg1156
Nsg585
I16
sg1157
g64
sg1158
F1.0
sbag0
(g1159
g2
Ntp1188
Rp1189
(dp1190
g68
g123
sg85
(dp1191
g87
g608
ssg1156
Nsg585
I17
sg1157
g64
sg1158
F1.0
sbag0
(g1159
g2
Ntp1192
Rp1193
(dp1194
g68
g125
sg85
(dp1195
g87
g611
ssg1156
Nsg585
I18
sg1157
g64
sg1158
F1.0
sbag0
(g1159
g2
Ntp1196
Rp1197
(dp1198
g68
g127
sg85
(dp1199
g87
g614
ssg1156
Nsg585
I19
sg1157
g64
sg1158
F1.0
sbag0
(g1159
g2
Ntp1200
Rp1201
(dp1202
g68
g129
sg85
(dp1203
g87
g617
ssg1156
Nsg585
I20
sg1157
g64
sg1158
F1.0
sbag0
(g1159
g2
Ntp1204
Rp1205
(dp1206
g68
g131
sg85
(dp1207
g87
g620
ssg1156
Nsg585
I21
sg1157
g64
sg1158
F1.0
sbag0
(g1159
g2
Ntp1208
Rp1209
(dp1210
g68
g133
sg85
(dp1211
g87
g623
ssg1156
Nsg585
I22
sg1157
g64
sg1158
F1.0
sbag0
(g1159
g2
Ntp1212
Rp1213
(dp1214
g68
g135
sg85
(dp1215
g87
g626
ssg1156
Nsg585
I23
sg1157
g64
sg1158
F1.0
sbag0
(g1159
g2
Ntp1216
Rp1217
(dp1218
g68
g137
sg85
(dp1219
g87
g629
ssg1156
Nsg585
I24
sg1157
g64
sg1158
F1.0
sbag0
(g1159
g2
Ntp1220
Rp1221
(dp1222
g68
g139
sg85
(dp1223
g87
g632
ssg1156
Nsg585
I25
sg1157
g64
sg1158
F1.0
sbag0
(g1159
g2
Ntp1224
Rp1225
(dp1226
g68
g141
sg85
(dp1227
g87
g635
ssg1156
Nsg585
I26
sg1157
g64
sg1158
F1.0
sbag0
(g1159
g2
Ntp1228
Rp1229
(dp1230
g68
g143
sg85
(dp1231
g87
g638
ssg1156
Nsg585
I27
sg1157
g64
sg1158
F1.0
sbag0
(g1159
g2
Ntp1232
Rp1233
(dp1234
g68
g145
sg85
(dp1235
g87
g641
ssg1156
Nsg585
I28
sg1157
g64
sg1158
F1.0
sbag0
(clanguage_schemas
CPT_PROPERTY_SCHEMA
p1236
g2
Ntp1237
Rp1238
(dp1239
g68
g147
sg85
(dp1240
g87
g644
ssg1156
Nsg585
I29
sg1157
g64
sg1158
F1.0
sbag0
(g1236
g2
Ntp1241
Rp1242
(dp1243
g68
g149
sg85
(dp1244
g87
g647
ssg1156
Nsg585
I30
sg1157
g64
sg1158
F1.0
sbag0
(g1236
g2
Ntp1245
Rp1246
(dp1247
g68
g151
sg85
(dp1248
g87
g650
ssg1156
Nsg585
I31
sg1157
g64
sg1158
F1.0
sbag0
(g1236
g2
Ntp1249
Rp1250
(dp1251
g68
g153
sg85
(dp1252
g87
g653
ssg1156
Nsg585
I32
sg1157
g64
sg1158
F1.0
sbag0
(g1236
g2
Ntp1253
Rp1254
(dp1255
g68
g155
sg85
(dp1256
g87
g656
ssg1156
Nsg585
I33
sg1157
g64
sg1158
F1.0
sbag0
(g1236
g2
Ntp1257
Rp1258
(dp1259
g68
g157
sg85
(dp1260
g87
g659
ssg1156
Nsg585
I34
sg1157
g64
sg1158
F1.0
sbag0
(g1236
g2
Ntp1261
Rp1262
(dp1263
g68
g159
sg85
(dp1264
g87
g662
ssg1156
Nsg585
I35
sg1157
g64
sg1158
F1.0
sbag0
(g1236
g2
Ntp1265
Rp1266
(dp1267
g68
g161
sg85
(dp1268
g87
g665
ssg1156
Nsg585
I36
sg1157
g64
sg1158
F1.0
sbag0
(g1236
g2
Ntp1269
Rp1270
(dp1271
g68
g163
sg85
(dp1272
g87
g668
ssg1156
Nsg585
I37
sg1157
g64
sg1158
F1.0
sbag0
(g1236
g2
Ntp1273
Rp1274
(dp1275
g68
g165
sg85
(dp1276
g87
g671
ssg1156
Nsg585
I38
sg1157
g64
sg1158
F1.0
sbag0
(g1236
g2
Ntp1277
Rp1278
(dp1279
g68
g167
sg85
(dp1280
g87
g674
ssg1156
Nsg585
I39
sg1157
g64
sg1158
F1.0
sbag0
(g1236
g2
Ntp1281
Rp1282
(dp1283
g68
g169
sg85
(dp1284
g87
g677
ssg1156
Nsg585
I40
sg1157
g64
sg1158
F1.0
sbag0
(g1236
g2
Ntp1285
Rp1286
(dp1287
g68
g171
sg85
(dp1288
g87
g680
ssg1156
Nsg585
I41
sg1157
g64
sg1158
F1.0
sbag0
(g1236
g2
Ntp1289
Rp1290
(dp1291
g68
g173
sg85
(dp1292
g87
g683
ssg1156
Nsg585
I42
sg1157
g64
sg1158
F1.0
sbag0
(clanguage_schemas
CPT_RELATION_SCHEMA
p1293
g2
Ntp1294
Rp1295
(dp1296
g68
g175
sg85
(dp1297
g859
Nsg87
g686
sg860
Nssg1156
Nsg585
I43
sg1157
g64
sg1158
F1.0
sbag0
(g1293
g2
Ntp1298
Rp1299
(dp1300
g68
g177
sg85
(dp1301
g859
Nsg87
g689
sg860
Nssg1156
Nsg585
I44
sg1157
g64
sg1158
F1.0
sbag0
(g1293
g2
Ntp1302
Rp1303
(dp1304
g68
g179
sg85
(dp1305
g859
Nsg87
g692
sg860
Nssg1156
Nsg585
I45
sg1157
g64
sg1158
F1.0
sbag0
(g1293
g2
Ntp1306
Rp1307
(dp1308
g68
g181
sg85
(dp1309
g859
Nsg87
g695
sg860
Nssg1156
Nsg585
I46
sg1157
g64
sg1158
F1.0
sbag0
(g1293
g2
Ntp1310
Rp1311
(dp1312
g68
g183
sg85
(dp1313
g859
Nsg87
g698
sg860
Nssg1156
Nsg585
I47
sg1157
g64
sg1158
F1.0
sbag0
(g1293
g2
Ntp1314
Rp1315
(dp1316
g68
g185
sg85
(dp1317
g859
Nsg87
g701
sg860
Nssg1156
Nsg585
I48
sg1157
g64
sg1158
F1.0
sbag0
(g1293
g2
Ntp1318
Rp1319
(dp1320
g68
g187
sg85
(dp1321
g859
Nsg87
g704
sg860
Nssg1156
Nsg585
I49
sg1157
g64
sg1158
F1.0
sbag0
(g1293
g2
Ntp1322
Rp1323
(dp1324
g68
g189
sg85
(dp1325
g859
Nsg87
g707
sg860
Nssg1156
Nsg585
I50
sg1157
g64
sg1158
F1.0
sbag0
(g1293
g2
Ntp1326
Rp1327
(dp1328
g68
g191
sg85
(dp1329
g859
Nsg87
g710
sg860
Nssg1156
Nsg585
I51
sg1157
g64
sg1158
F1.0
sbag0
(g1293
g2
Ntp1330
Rp1331
(dp1332
g68
g193
sg85
(dp1333
g859
Nsg87
g713
sg860
Nssg1156
Nsg585
I52
sg1157
g64
sg1158
F1.0
sbag0
(g1293
g2
Ntp1334
Rp1335
(dp1336
g68
g195
sg85
(dp1337
g859
Nsg87
g716
sg860
Nssg1156
Nsg585
I53
sg1157
g64
sg1158
F1.0
sbag0
(g1293
g2
Ntp1338
Rp1339
(dp1340
g68
g197
sg85
(dp1341
g859
Nsg87
g719
sg860
Nssg1156
Nsg585
I54
sg1157
g64
sg1158
F1.0
sbag0
(g1293
g2
Ntp1342
Rp1343
(dp1344
g68
g199
sg85
(dp1345
g859
Nsg87
g722
sg860
Nssg1156
Nsg585
I55
sg1157
g64
sg1158
F1.0
sbag0
(g1293
g2
Ntp1346
Rp1347
(dp1348
g68
g201
sg85
(dp1349
g859
Nsg87
g725
sg860
Nssg1156
Nsg585
I56
sg1157
g64
sg1158
F1.0
sbag0
(g1293
g2
Ntp1350
Rp1351
(dp1352
g68
g203
sg85
(dp1353
g859
Nsg87
g728
sg860
Nssg1156
Nsg585
I57
sg1157
g64
sg1158
F1.0
sbag0
(g1293
g2
Ntp1354
Rp1355
(dp1356
g68
g205
sg85
(dp1357
g859
Nsg87
g731
sg860
Nssg1156
Nsg585
I58
sg1157
g64
sg1158
F1.0
sbag0
(g1293
g2
Ntp1358
Rp1359
(dp1360
g68
g207
sg85
(dp1361
g859
Nsg87
g734
sg860
Nssg1156
Nsg585
I59
sg1157
g64
sg1158
F1.0
sbag0
(g1293
g2
Ntp1362
Rp1363
(dp1364
g68
g209
sg85
(dp1365
g859
Nsg87
g737
sg860
Nssg1156
Nsg585
I60
sg1157
g64
sg1158
F1.0
sbag0
(g80
g2
Ntp1366
Rp1367
(dp1368
g68
g211
sg85
(dp1369
g87
g740
ssg1156
Nsg585
I61
sg1157
g64
sg1158
F1.0
sbag0
(clanguage_schemas
CPT_ENTITY_SCHEMA
p1370
g2
Ntp1371
Rp1372
(dp1373
g68
g213
sg85
(dp1374
g87
g743
ssg1156
Nsg585
I62
sg1157
g64
sg1158
F1.0
sbag0
(g1370
g2
Ntp1375
Rp1376
(dp1377
g68
g215
sg85
(dp1378
g87
g746
ssg1156
Nsg585
I63
sg1157
g64
sg1158
F1.0
sbag0
(g1370
g2
Ntp1379
Rp1380
(dp1381
g68
g217
sg85
(dp1382
g87
g749
ssg1156
Nsg585
I64
sg1157
g64
sg1158
F1.0
sbag0
(g1370
g2
Ntp1383
Rp1384
(dp1385
g68
g219
sg85
(dp1386
g87
g752
ssg1156
Nsg585
I65
sg1157
g64
sg1158
F1.0
sbag0
(g1370
g2
Ntp1387
Rp1388
(dp1389
g68
g221
sg85
(dp1390
g87
g755
ssg1156
Nsg585
I66
sg1157
g64
sg1158
F1.0
sbag0
(g1370
g2
Ntp1391
Rp1392
(dp1393
g68
g223
sg85
(dp1394
g87
g758
ssg1156
Nsg585
I67
sg1157
g64
sg1158
F1.0
sbag0
(g1370
g2
Ntp1395
Rp1396
(dp1397
g68
g225
sg85
(dp1398
g87
g761
ssg1156
Nsg585
I68
sg1157
g64
sg1158
F1.0
sbag0
(g1370
g2
Ntp1399
Rp1400
(dp1401
g68
g227
sg85
(dp1402
g87
g764
ssg1156
Nsg585
I69
sg1157
g64
sg1158
F1.0
sbag0
(g1370
g2
Ntp1403
Rp1404
(dp1405
g68
g229
sg85
(dp1406
g87
g767
ssg1156
Nsg585
I70
sg1157
g64
sg1158
F1.0
sbag0
(g1370
g2
Ntp1407
Rp1408
(dp1409
g68
g231
sg85
(dp1410
g87
g770
ssg1156
Nsg585
I71
sg1157
g64
sg1158
F1.0
sbag0
(g1370
g2
Ntp1411
Rp1412
(dp1413
g68
g233
sg85
(dp1414
g87
g773
ssg1156
Nsg585
I72
sg1157
g64
sg1158
F1.0
sbag0
(g1370
g2
Ntp1415
Rp1416
(dp1417
g68
g235
sg85
(dp1418
g87
g776
ssg1156
Nsg585
I73
sg1157
g64
sg1158
F1.0
sbag0
(g1370
g2
Ntp1419
Rp1420
(dp1421
g68
g237
sg85
(dp1422
g87
g779
ssg1156
Nsg585
I74
sg1157
g64
sg1158
F1.0
sbag0
(g1370
g2
Ntp1423
Rp1424
(dp1425
g68
g239
sg85
(dp1426
g87
g782
ssg1156
Nsg585
I75
sg1157
g64
sg1158
F1.0
sbag0
(g1370
g2
Ntp1427
Rp1428
(dp1429
g68
g241
sg85
(dp1430
g87
g785
ssg1156
Nsg585
I76
sg1157
g64
sg1158
F1.0
sbag0
(g1370
g2
Ntp1431
Rp1432
(dp1433
g68
g243
sg85
(dp1434
g87
g788
ssg1156
Nsg585
I77
sg1157
g64
sg1158
F1.0
sbag0
(g1370
g2
Ntp1435
Rp1436
(dp1437
g68
g245
sg85
(dp1438
g87
g791
ssg1156
Nsg585
I78
sg1157
g64
sg1158
F1.0
sbag0
(g1370
g2
Ntp1439
Rp1440
(dp1441
g68
g247
sg85
(dp1442
g87
g794
ssg1156
Nsg585
I79
sg1157
g64
sg1158
F1.0
sbag0
(g1370
g2
Ntp1443
Rp1444
(dp1445
g68
g249
sg85
(dp1446
g87
g797
ssg1156
Nsg585
I80
sg1157
g64
sg1158
F1.0
sbag0
(g1370
g2
Ntp1447
Rp1448
(dp1449
g68
g251
sg85
(dp1450
g87
g800
ssg1156
Nsg585
I81
sg1157
g64
sg1158
F1.0
sbag0
(g1370
g2
Ntp1451
Rp1452
(dp1453
g68
g253
sg85
(dp1454
g87
g803
ssg1156
Nsg585
I82
sg1157
g64
sg1158
F1.0
sbag0
(g1370
g2
Ntp1455
Rp1456
(dp1457
g68
g255
sg85
(dp1458
g87
g806
ssg1156
Nsg585
I83
sg1157
g64
sg1158
F1.0
sbag0
(g1370
g2
Ntp1459
Rp1460
(dp1461
g68
g257
sg85
(dp1462
g87
g809
ssg1156
Nsg585
I84
sg1157
g64
sg1158
F1.0
sbag0
(g1370
g2
Ntp1463
Rp1464
(dp1465
g68
g259
sg85
(dp1466
g87
g812
ssg1156
Nsg585
I85
sg1157
g64
sg1158
F1.0
sbag0
(g1370
g2
Ntp1467
Rp1468
(dp1469
g68
g261
sg85
(dp1470
g87
g815
ssg1156
Nsg585
I86
sg1157
g64
sg1158
F1.0
sbag0
(g1370
g2
Ntp1471
Rp1472
(dp1473
g68
g263
sg85
(dp1474
g87
g818
ssg1156
Nsg585
I87
sg1157
g64
sg1158
F1.0
sbag0
(g1370
g2
Ntp1475
Rp1476
(dp1477
g68
g265
sg85
(dp1478
g87
g821
ssg1156
Nsg585
I88
sg1157
g64
sg1158
F1.0
sbag0
(g1370
g2
Ntp1479
Rp1480
(dp1481
g68
g267
sg85
(dp1482
g87
g824
ssg1156
Nsg585
I89
sg1157
g64
sg1158
F1.0
sbag0
(g1370
g2
Ntp1483
Rp1484
(dp1485
g68
g269
sg85
(dp1486
g87
g827
ssg1156
Nsg585
I90
sg1157
g64
sg1158
F1.0
sbag0
(g1370
g2
Ntp1487
Rp1488
(dp1489
g68
g271
sg85
(dp1490
g87
g830
ssg1156
Nsg585
I91
sg1157
g64
sg1158
F1.0
sbag0
(g1370
g2
Ntp1491
Rp1492
(dp1493
g68
g273
sg85
(dp1494
g87
g833
ssg1156
Nsg585
I92
sg1157
g64
sg1158
F1.0
sbag0
(g1370
g2
Ntp1495
Rp1496
(dp1497
g68
g275
sg85
(dp1498
g87
g836
ssg1156
Nsg585
I93
sg1157
g64
sg1158
F1.0
sbag0
(g1370
g2
Ntp1499
Rp1500
(dp1501
g68
g277
sg85
(dp1502
g87
g839
ssg1156
Nsg585
I94
sg1157
g64
sg1158
F1.0
sbag0
(g1370
g2
Ntp1503
Rp1504
(dp1505
g68
g279
sg85
(dp1506
g87
g842
ssg1156
Nsg585
I95
sg1157
g64
sg1158
F1.0
sbag0
(g1370
g2
Ntp1507
Rp1508
(dp1509
g68
g281
sg85
(dp1510
g87
g845
ssg1156
Nsg585
I96
sg1157
g64
sg1158
F1.0
sbag0
(g1370
g2
Ntp1511
Rp1512
(dp1513
g68
g283
sg85
(dp1514
g87
g848
ssg1156
Nsg585
I97
sg1157
g64
sg1158
F1.0
sbag0
(g1370
g2
Ntp1515
Rp1516
(dp1517
g68
g285
sg85
(dp1518
g87
g851
ssg1156
Nsg585
I98
sg1157
g64
sg1158
F1.0
sbasg295
S'OUT'
p1519
sg585
I11
sS'schema'
p1520
g64
sbag0
(g72
g2
Ntp1521
Rp1522
(dp1523
g68
S'to_semantic_WM'
p1524
sg77
Nsg78
g79
sg295
g1519
sg585
I12
sg1520
g64
sbasS'outputs'
p1525
(dp1526
g76
Nsg1524
NssS'connections'
p1527
(lp1528
sS'cpt_knowledge'
p1529
g96
sS'dt'
p1530
F1.0
sS'in_ports'
p1531
(lp1532
sS'params'
p1533
(dp1534
g1158
F1.0
ssS't'
p1535
I0
sS'activity'
p1536
I0
sg1156
g0
(cschema_theory
MODEL
p1537
g2
Ntp1538
Rp1539
(dp1540
S'verbose'
p1541
I00
sg68
S'language_system_P'
p1542
sS'sim_data'
p1543
(dp1544
S'system_states'
p1545
(dp1546
sg1156
(dp1547
ssg1525
(dp1548
sS'input_ports'
p1549
(lp1550
g0
(g72
g2
Ntp1551
Rp1552
(dp1553
g68
S'from_conceptualizer'
p1554
sg77
Nsg78
Nsg295
S'IN'
p1555
sg585
I1
sg1520
g0
(clanguage_schemas
SEMANTIC_WM
p1556
g2
Ntp1557
Rp1558
(dp1559
g66
(dp1560
S'from_grammatical_WM_P'
p1561
NsS'from_concept_LTM'
p1562
NsS'from_control'
p1563
NsS'from_grammatical_WM_C'
p1564
Nsg1554
NssS'schema_insts'
p1565
(lp1566
sg68
S'Semantic_WM'
p1567
sS'comp_links'
p1568
(lp1569
sg70
(lp1570
g0
(g72
g2
Ntp1571
Rp1572
(dp1573
S'port_data'
p1574
Nsg68
S'to_grammatical_WM_P'
p1575
sg77
Nsg78
NsS'port_value'
p1576
Nsg295
g1519
sg585
I6
sg1520
g1558
sbag0
(g72
g2
Ntp1577
Rp1578
(dp1579
g1574
Nsg68
S'to_cxn_retrieval_P'
p1580
sg77
Nsg78
Nsg1576
Nsg295
g1519
sg585
I7
sg1520
g1558
sbag0
(g72
g2
Ntp1581
Rp1582
(dp1583
g1574
Nsg68
S'to_control'
p1584
sg77
Nsg78
Nsg1576
Nsg295
g1519
sg585
I8
sg1520
g1558
sbag0
(g72
g2
Ntp1585
Rp1586
(dp1587
g68
S'to_visual_WM'
p1588
sg77
Nsg78
Nsg295
g1519
sg585
I9
sg1520
g1558
sbag0
(g72
g2
Ntp1589
Rp1590
(dp1591
g68
S'to_output'
p1592
sg77
Nsg78
Nsg295
g1519
sg585
I10
sg1520
g1558
sbasg1525
(dp1593
g1592
Nsg1575
Nsg1588
Nsg1580
Nsg1584
Nssg1530
F1.0
sS'coop_links'
p1594
(lp1595
sg1531
(lp1596
g1552
ag0
(g72
g2
Ntp1597
Rp1598
(dp1599
g68
g1562
sg77
Nsg78
Nsg295
g1555
sg585
I2
sg1520
g1558
sbag0
(g72
g2
Ntp1600
Rp1601
(dp1602
g68
g1564
sg77
Nsg78
Nsg295
g1555
sg585
I3
sg1520
g1558
sbag0
(g72
g2
Ntp1603
Rp1604
(dp1605
g1574
Nsg68
g1561
sg77
Nsg78
Nsg1576
Nsg295
g1555
sg585
I4
sg1520
g1558
sbag0
(g72
g2
Ntp1606
Rp1607
(dp1608
g1574
Nsg68
g1563
sg77
Nsg78
S'produce'
p1609
sg1576
Nsg295
g1555
sg585
I5
sg1520
g1558
sbasS'save_state'
p1610
(dp1611
S'insts'
p1612
(dp1613
sS'WM_activity'
p1614
(dp1615
S'comp'
p1616
(lp1617
sS'c2_network'
p1618
(dp1619
S'num_insts'
p1620
(lp1621
sS'num_coop_links'
p1622
(lp1623
sS'num_comp_links'
p1624
(lp1625
ssS'coop'
p1626
(lp1627
sg1535
(lp1628
sS'act'
p1629
(lp1630
sssg1533
(dp1631
S'C2'
p1632
(dp1633
S'P_comp'
p1634
F1.0
sS'comp_weight'
p1635
F0.0
sS'P_coop'
p1636
F1.0
sS'coop_asymmetry'
p1637
F1.0
sS'coop_weight'
p1638
F0.0
sS'confidence_threshold'
p1639
F0.0
sS'comp_asymmetry'
p1640
F0.0
sS'prune_threshold'
p1641
F0.01
ssS'dyn'
p1642
(dp1643
S'tau'
p1644
F10000.0
sS'k'
p1645
F10.0
sS'act_rest'
p1646
F0.001
sS'noise_mean'
p1647
F0.0
sS'noise_std'
p1648
F1.0
sS'ext_weight'
p1649
F1.0
sS'int_weight'
p1650
F1.0
sssg1535
I0
sg1536
I0
sg1156
g1539
sS'SemRep'
p1651
g0
(g99
g2
Ntp1652
Rp1653
(dp1654
g103
(dp1655
sg286
g287
sg288
g287
sg289
(dp1656
sg483
g1656
sg98
(dp1657
sg485
g287
sg486
g1656
sg487
(dp1658
sbsg585
I1
sbsbasS'brain_mapping'
p1659
g0
(cschema_theory
BRAIN_MAPPING
p1660
g2
Ntp1661
Rp1662
(dp1663
S'schema_mapping'
p1664
(dp1665
S'Control'
p1666
(lp1667
S'DLPFC'
p1668
asS'Utter'
p1669
(lp1670
S''
p1671
asg1567
(lp1672
S'left_SFG'
p1673
aS'LIP'
p1674
aS'Hippocampus'
p1675
asS'Phonological_WM_P'
p1676
(lp1677
S'left_BA6'
p1678
asg69
(lp1679
g1671
asS'Grammatical_WM_P'
p1680
(lp1681
S'left_BA45'
p1682
aS'leftBA44'
p1683
asS'Grammatical_LTM'
p1684
(lp1685
S'left_STG'
p1686
aS'left_MTG'
p1687
asS'Cxn_retrieval_P'
p1688
(lp1689
ssS'connect_mapping'
p1690
(dp1691
sbsg1527
(lp1692
g0
(cschema_theory
CONNECT
p1693
g2
Ntp1694
Rp1695
(dp1696
S'delay'
p1697
I0
sg68
g1671
sS'weight'
p1698
I0
sS'port_to'
p1699
g0
(g72
g2
Ntp1700
Rp1701
(dp1702
g1574
Nsg68
S'from_semantic_WM'
p1703
sg77
Nsg78
Nsg1576
Nsg295
g1555
sg585
I23
sg1520
g0
(clanguage_schemas
CXN_RETRIEVAL_P
p1704
g2
Ntp1705
Rp1706
(dp1707
g66
(dp1708
g1703
NsS'from_grammatical_LTM'
p1709
Nssg68
g1688
sg70
(lp1710
g0
(g72
g2
Ntp1711
Rp1712
(dp1713
g1574
Nsg68
g1575
sg77
Nsg78
Nsg1576
Nsg295
g1519
sg585
I24
sg1520
g1706
sbasg1525
(dp1714
g1575
NssS'cxn_instances'
p1715
(lp1716
sg1530
F1.0
sg1531
(lp1717
g0
(g72
g2
Ntp1718
Rp1719
(dp1720
g1574
Nsg68
g1709
sg77
Nsg78
(lp1721
g0
(clanguage_schemas
CXN_SCHEMA
p1722
g2
Ntp1723
Rp1724
(dp1725
g68
VCNJ_AND
p1726
sg85
(iconstruction
CXN
p1727
(dp1728
S'SymLinks'
p1729
(iconstruction
TP_SYMLINKS
p1730
(dp1731
S'SL'
p1732
(dp1733
VEVT1_4
p1734
VS1_6
p1735
sVEVT2_5
p1736
VS3_8
p1737
ssg585
I3
sg68
g1671
sbsS'clss'
p1738
VD
p1739
sS'group'
p1740
I3
sg68
g1726
sS'SemFrame'
p1741
(iconstruction
TP_SEMFRAME
p1742
(dp1743
g98
g0
(g99
g2
Ntp1744
Rp1745
(dp1746
g103
(dp1747
(iconstruction
TP_NODE
p1748
(dp1749
S'head'
p1750
I00
sg87
g740
sg68
g1736
sS'frame'
p1751
I00
sS'focus'
p1752
I00
sg585
I5
sb(dp1753
g1751
I00
sg87
g740
ss(iconstruction
TP_NODE
p1754
(dp1755
g1750
I00
sg87
g740
sg68
g1734
sg1751
I00
sg1752
I01
sg585
I4
sb(dp1756
g1751
I00
sg87
g740
sssg286
g287
sg288
g287
sg289
(dp1757
g1748
(dp1758
sg1754
(dp1759
ssg483
g1757
sg98
(dp1760
sg485
g287
sg486
g1757
sg487
(dp1761
g1748
(dp1762
sg1754
(dp1763
ssbsg580
(lp1764
g1754
ag1748
asg853
(lp1765
sg585
I1
sg68
g1671
sbsS'SynForm'
p1766
(iconstruction
TP_SYNFORM
p1767
(dp1768
g585
I2
sS'form'
p1769
(lp1770
(iconstruction
TP_SLOT
p1771
(dp1772
S'cxn_classes'
p1773
(lp1774
VS
p1775
asS'order'
p1776
I0
sg585
I6
sg68
g1735
sba(iconstruction
TP_PHON
p1777
(dp1778
S'num_syllables'
p1779
I3
sg1776
I1
sg585
I7
sS'cxn_phonetics'
p1780
Vand
p1781
sg68
VS2_7
p1782
sba(iconstruction
TP_SLOT
p1783
(dp1784
g1773
(lp1785
VS
p1786
asg1776
I2
sg585
I8
sg68
g1737
sbasg68
g1671
sbsS'preference'
p1787
I1
sbsg1156
Nsg585
I99
sg1157
g0
(clanguage_schemas
GRAMMATICAL_LTM
p1788
g2
Ntp1789
Rp1790
(dp1791
g66
(dp1792
sS'grammar'
p1793
(iconstruction
GRAMMAR
p1794
(dp1795
S'constructions'
p1796
(lp1797
g1727
a(iconstruction
CXN
p1798
(dp1799
g1729
(iconstruction
TP_SYMLINKS
p1800
(dp1801
g1732
(dp1802
VEVT2_13
p1803
VS3_17
p1804
sVEVT1_12
p1805
VS1_15
p1806
ssg585
I11
sg68
g1671
sbsg1738
VD
p1807
sg1740
I3
sg68
VCNJ_THEN
p1808
sg1741
(iconstruction
TP_SEMFRAME
p1809
(dp1810
g98
g0
(g99
g2
Ntp1811
Rp1812
(dp1813
g103
(dp1814
(iconstruction
TP_NODE
p1815
(dp1816
g1750
I00
sg87
g740
sg68
g1803
sg1751
I00
sg1752
I00
sg585
I13
sb(dp1817
g1751
I00
sg87
g740
ss(iconstruction
TP_NODE
p1818
(dp1819
g1750
I00
sg87
g740
sg68
g1805
sg1751
I00
sg1752
I00
sg585
I12
sb(dp1820
g1751
I00
sg87
g740
sssg286
g287
sg288
g287
sg289
(dp1821
g1815
(dp1822
sg1818
(dp1823
g1815
(dp1824
g87
g725
ssssg483
g1821
sg98
(dp1825
sg485
g287
sg486
g1821
sg487
(dp1826
g1815
(dp1827
g1818
g1824
ssg1818
(dp1828
ssbsg580
(lp1829
g1818
ag1815
asg853
(lp1830
(iconstruction
TP_REL
p1831
(dp1832
g859
g1815
sg87
g725
sg585
I14
sg860
g1818
sg68
VEVT1_EVT2_14
p1833
sbasg585
I9
sg68
g1671
sbsg1766
(iconstruction
TP_SYNFORM
p1834
(dp1835
g585
I10
sg1769
(lp1836
(iconstruction
TP_SLOT
p1837
(dp1838
g1773
(lp1839
VS
p1840
asg1776
I0
sg585
I15
sg68
g1806
sba(iconstruction
TP_PHON
p1841
(dp1842
g1779
I4
sg1776
I1
sg585
I16
sg1780
Vthen
p1843
sg68
VS2_16
p1844
sba(iconstruction
TP_SLOT
p1845
(dp1846
g1773
(lp1847
VS
p1848
asg1776
I2
sg585
I17
sg68
g1804
sbasg68
g1671
sbsg1787
I1
sba(iconstruction
CXN
p1849
(dp1850
g1729
(iconstruction
TP_SYMLINKS
p1851
(dp1852
g1732
(dp1853
VEVT2_22
p1854
VS3_26
p1855
sVEVT1_21
p1856
VS1_24
p1857
ssg585
I20
sg68
g1671
sbsg1738
VD
p1858
sg1740
I3
sg68
VCNJ_WHILE
p1859
sg1741
(iconstruction
TP_SEMFRAME
p1860
(dp1861
g98
g0
(g99
g2
Ntp1862
Rp1863
(dp1864
g103
(dp1865
(iconstruction
TP_NODE
p1866
(dp1867
g1750
I00
sg87
g740
sg68
g1854
sg1751
I00
sg1752
I00
sg585
I22
sb(dp1868
g1751
I00
sg87
g740
ss(iconstruction
TP_NODE
p1869
(dp1870
g1750
I00
sg87
g740
sg68
g1856
sg1751
I00
sg1752
I01
sg585
I21
sb(dp1871
g1751
I00
sg87
g740
sssg286
g287
sg288
g287
sg289
(dp1872
g1866
(dp1873
sg1869
(dp1874
g1866
(dp1875
g87
g722
ssssg483
g1872
sg98
(dp1876
sg485
g287
sg486
g1872
sg487
(dp1877
g1866
(dp1878
g1869
g1875
ssg1869
(dp1879
ssbsg580
(lp1880
g1869
ag1866
asg853
(lp1881
(iconstruction
TP_REL
p1882
(dp1883
g859
g1866
sg87
g722
sg585
I23
sg860
g1869
sg68
VEVT1_EVT2_23
p1884
sbasg585
I18
sg68
g1671
sbsg1766
(iconstruction
TP_SYNFORM
p1885
(dp1886
g585
I19
sg1769
(lp1887
(iconstruction
TP_SLOT
p1888
(dp1889
g1773
(lp1890
VS
p1891
asg1776
I0
sg585
I24
sg68
g1857
sba(iconstruction
TP_PHON
p1892
(dp1893
g1779
I5
sg1776
I1
sg585
I25
sg1780
Vwhile
p1894
sg68
VS2_25
p1895
sba(iconstruction
TP_SLOT
p1896
(dp1897
g1773
(lp1898
VS
p1899
asg1776
I2
sg585
I26
sg68
g1855
sbasg68
g1671
sbsg1787
I1
sba(iconstruction
CXN
p1900
(dp1901
g1729
(iconstruction
TP_SYMLINKS
p1902
(dp1903
g1732
(dp1904
VACT_31
p1905
VS4_40
p1906
sVACTOR_1_32
p1907
VS1_37
p1908
sVACTOR_2_33
p1909
VS3_39
p1910
ssg585
I29
sg68
g1671
sbsg1738
VS
p1911
sg1740
Nsg68
VSYMMETRIC_TRANS
p1912
sg1741
(iconstruction
TP_SEMFRAME
p1913
(dp1914
g98
g0
(g99
g2
Ntp1915
Rp1916
(dp1917
g103
(dp1918
(iconstruction
TP_NODE
p1919
(dp1920
g1750
I01
sg87
g740
sg68
VEVT_30
p1921
sg1751
I01
sg1752
I00
sg585
I30
sb(dp1922
g1751
I01
sg87
g740
ss(iconstruction
TP_NODE
p1923
(dp1924
g1750
I00
sg87
g743
sg68
g1907
sg1751
I01
sg1752
I01
sg585
I32
sb(dp1925
g1751
I01
sg87
g743
ss(iconstruction
TP_NODE
p1926
(dp1927
g1750
I00
sg87
g587
sg68
g1905
sg1751
I01
sg1752
I00
sg585
I31
sb(dp1928
g1751
I01
sg87
g587
ss(iconstruction
TP_NODE
p1929
(dp1930
g1750
I00
sg87
g743
sg68
g1909
sg1751
I01
sg1752
I00
sg585
I33
sb(dp1931
g1751
I01
sg87
g743
sssg286
g287
sg288
g287
sg289
(dp1932
g1919
(dp1933
g1926
(dp1934
g87
g734
sssg1923
(dp1935
sg1926
(dp1936
g1923
(dp1937
g87
g710
ssg1929
(dp1938
g87
g710
sssg1929
(dp1939
ssg483
g1932
sg98
(dp1940
sg485
g287
sg486
g1932
sg487
(dp1941
g1919
(dp1942
sg1923
(dp1943
g1926
g1937
ssg1926
(dp1944
g1919
g1934
ssg1929
(dp1945
g1926
g1938
sssbsg580
(lp1946
g1919
ag1926
ag1923
ag1929
asg853
(lp1947
(iconstruction
TP_REL
p1948
(dp1949
g859
g1926
sg87
g734
sg585
I34
sg860
g1919
sg68
VIS_34
p1950
sba(iconstruction
TP_REL
p1951
(dp1952
g859
g1923
sg87
g710
sg585
I35
sg860
g1926
sg68
VAGT_PT_1_35
p1953
sba(iconstruction
TP_REL
p1954
(dp1955
g859
g1929
sg87
g710
sg585
I36
sg860
g1926
sg68
VAGT_PT_2_36
p1956
sbasg585
I27
sg68
g1671
sbsg1766
(iconstruction
TP_SYNFORM
p1957
(dp1958
g585
I28
sg1769
(lp1959
(iconstruction
TP_SLOT
p1960
(dp1961
g1773
(lp1962
VNP
p1963
aVN
p1964
asg1776
I0
sg585
I37
sg68
g1908
sba(iconstruction
TP_PHON
p1965
(dp1966
g1779
I3
sg1776
I1
sg585
I38
sg1780
Vand
p1967
sg68
VS2_38
p1968
sba(iconstruction
TP_SLOT
p1969
(dp1970
g1773
(lp1971
VNP
p1972
aVN
p1973
asg1776
I2
sg585
I39
sg68
g1910
sba(iconstruction
TP_SLOT
p1974
(dp1975
g1773
(lp1976
VVP
p1977
aVV
p1978
asg1776
I3
sg585
I40
sg68
g1906
sbasg68
g1671
sbsg1787
I1
sba(iconstruction
CXN
p1979
(dp1980
g1729
(iconstruction
TP_SYMLINKS
p1981
(dp1982
g1732
(dp1983
VAGT_46
p1984
VS1_51
p1985
sVACT_45
p1986
VS2_52
p1987
sVPT_47
p1988
VS3_53
p1989
ssg585
I43
sg68
g1671
sbsg1738
VS
p1990
sg1740
I2
sg68
VSVO
p1991
sg1741
(iconstruction
TP_SEMFRAME
p1992
(dp1993
g98
g0
(g99
g2
Ntp1994
Rp1995
(dp1996
g103
(dp1997
(iconstruction
TP_NODE
p1998
(dp1999
g1750
I01
sg87
g740
sg68
VEVT_44
p2000
sg1751
I01
sg1752
I00
sg585
I44
sb(dp2001
g1751
I01
sg87
g740
ss(iconstruction
TP_NODE
p2002
(dp2003
g1750
I00
sg87
g743
sg68
g1984
sg1751
I01
sg1752
I01
sg585
I46
sb(dp2004
g1751
I01
sg87
g743
ss(iconstruction
TP_NODE
p2005
(dp2006
g1750
I00
sg87
g743
sg68
g1988
sg1751
I01
sg1752
I00
sg585
I47
sb(dp2007
g1751
I01
sg87
g743
ss(iconstruction
TP_NODE
p2008
(dp2009
g1750
I00
sg87
g587
sg68
g1986
sg1751
I01
sg1752
I00
sg585
I45
sb(dp2010
g1751
I01
sg87
g587
sssg286
g287
sg288
g287
sg289
(dp2011
g1998
(dp2012
g2008
(dp2013
g87
g734
sssg2002
(dp2014
sg2005
(dp2015
sg2008
(dp2016
g2002
(dp2017
g87
g713
ssg2005
(dp2018
g87
g707
ssssg483
g2011
sg98
(dp2019
sg485
g287
sg486
g2011
sg487
(dp2020
g1998
(dp2021
sg2002
(dp2022
g2008
g2017
ssg2005
(dp2023
g2008
g2018
ssg2008
(dp2024
g1998
g2013
sssbsg580
(lp2025
g1998
ag2008
ag2002
ag2005
asg853
(lp2026
(iconstruction
TP_REL
p2027
(dp2028
g859
g2008
sg87
g734
sg585
I48
sg860
g1998
sg68
VIS_48
p2029
sba(iconstruction
TP_REL
p2030
(dp2031
g859
g2002
sg87
g713
sg585
I49
sg860
g2008
sg68
VACT_AGT_49
p2032
sba(iconstruction
TP_REL
p2033
(dp2034
g859
g2005
sg87
g707
sg585
I50
sg860
g2008
sg68
VACT_PT_50
p2035
sbasg585
I41
sg68
g1671
sbsg1766
(iconstruction
TP_SYNFORM
p2036
(dp2037
g585
I42
sg1769
(lp2038
(iconstruction
TP_SLOT
p2039
(dp2040
g1773
(lp2041
VNP
p2042
aVN
p2043
asg1776
I0
sg585
I51
sg68
g1985
sba(iconstruction
TP_SLOT
p2044
(dp2045
g1773
(lp2046
VVP
p2047
aVV
p2048
asg1776
I1
sg585
I52
sg68
g1987
sba(iconstruction
TP_SLOT
p2049
(dp2050
g1773
(lp2051
VNP
p2052
aVN
p2053
asg1776
I2
sg585
I53
sg68
g1989
sbasg68
g1671
sbsg1787
I1
sba(iconstruction
CXN
p2054
(dp2055
g1729
(iconstruction
TP_SYMLINKS
p2056
(dp2057
g1732
(dp2058
VPT_60
p2059
VS1_64
p2060
sVACT_58
p2061
VS3_66
p2062
sVAGT_59
p2063
VS6_69
p2064
ssg585
I56
sg68
g1671
sbsg1738
VS
p2065
sg1740
I2
sg68
VPAS_SVO
p2066
sg1741
(iconstruction
TP_SEMFRAME
p2067
(dp2068
g98
g0
(g99
g2
Ntp2069
Rp2070
(dp2071
g103
(dp2072
(iconstruction
TP_NODE
p2073
(dp2074
g1750
I00
sg87
g587
sg68
g2061
sg1751
I01
sg1752
I00
sg585
I58
sb(dp2075
g1751
I01
sg87
g587
ss(iconstruction
TP_NODE
p2076
(dp2077
g1750
I00
sg87
g743
sg68
g2063
sg1751
I01
sg1752
I00
sg585
I59
sb(dp2078
g1751
I01
sg87
g743
ss(iconstruction
TP_NODE
p2079
(dp2080
g1750
I01
sg87
g740
sg68
VEVT_57
p2081
sg1751
I01
sg1752
I00
sg585
I57
sb(dp2082
g1751
I01
sg87
g740
ss(iconstruction
TP_NODE
p2083
(dp2084
g1750
I00
sg87
g743
sg68
g2059
sg1751
I01
sg1752
I01
sg585
I60
sb(dp2085
g1751
I01
sg87
g743
sssg286
g287
sg288
g287
sg289
(dp2086
g2073
(dp2087
g2083
(dp2088
g87
g707
ssg2076
(dp2089
g87
g713
sssg2076
(dp2090
sg2079
(dp2091
g2073
(dp2092
g87
g734
sssg2083
(dp2093
ssg483
g2086
sg98
(dp2094
sg485
g287
sg486
g2086
sg487
(dp2095
g2073
(dp2096
g2079
g2092
ssg2076
(dp2097
g2073
g2089
ssg2079
(dp2098
sg2083
(dp2099
g2073
g2088
sssbsg580
(lp2100
g2079
ag2073
ag2076
ag2083
asg853
(lp2101
(iconstruction
TP_REL
p2102
(dp2103
g859
g2073
sg87
g734
sg585
I61
sg860
g2079
sg68
VIS_61
p2104
sba(iconstruction
TP_REL
p2105
(dp2106
g859
g2076
sg87
g713
sg585
I62
sg860
g2073
sg68
VACT_AGT_62
p2107
sba(iconstruction
TP_REL
p2108
(dp2109
g859
g2083
sg87
g707
sg585
I63
sg860
g2073
sg68
VACT_PT_63
p2110
sbasg585
I54
sg68
g1671
sbsg1766
(iconstruction
TP_SYNFORM
p2111
(dp2112
g585
I55
sg1769
(lp2113
(iconstruction
TP_SLOT
p2114
(dp2115
g1773
(lp2116
VNP
p2117
aVN
p2118
asg1776
I0
sg585
I64
sg68
g2060
sba(iconstruction
TP_PHON
p2119
(dp2120
g1779
I2
sg1776
I1
sg585
I65
sg1780
Vis
p2121
sg68
VS2_65
p2122
sba(iconstruction
TP_SLOT
p2123
(dp2124
g1773
(lp2125
VVP
p2126
aVV
p2127
asg1776
I2
sg585
I66
sg68
g2062
sba(iconstruction
TP_PHON
p2128
(dp2129
g1779
I2
sg1776
I3
sg585
I67
sg1780
V-ed
p2130
sg68
VS4_67
p2131
sba(iconstruction
TP_PHON
p2132
(dp2133
g1779
I2
sg1776
I4
sg585
I68
sg1780
Vby
p2134
sg68
VS5_68
p2135
sba(iconstruction
TP_SLOT
p2136
(dp2137
g1773
(lp2138
VNP
p2139
aVN
p2140
asg1776
I5
sg585
I69
sg68
g2064
sbasg68
g1671
sbsg1787
I1
sba(iconstruction
CXN
p2141
(dp2142
g1729
(iconstruction
TP_SYMLINKS
p2143
(dp2144
g1732
(dp2145
VACT_74
p2146
VS2_83
p2147
sVRCPT_77
p2148
VS3_84
p2149
sVTHEME_76
p2150
VS4_85
p2151
sVAGT_75
p2152
VS1_82
p2153
ssg585
I72
sg68
g1671
sbsg1738
VS
p2154
sg1740
I2
sg68
VDOUBLE_OBJ
p2155
sg1741
(iconstruction
TP_SEMFRAME
p2156
(dp2157
g98
g0
(g99
g2
Ntp2158
Rp2159
(dp2160
g103
(dp2161
(iconstruction
TP_NODE
p2162
(dp2163
g1750
I01
sg87
g740
sg68
VEVT_73
p2164
sg1751
I01
sg1752
I00
sg585
I73
sb(dp2165
g1751
I01
sg87
g740
ss(iconstruction
TP_NODE
p2166
(dp2167
g1750
I00
sg87
g743
sg68
g2152
sg1751
I01
sg1752
I01
sg585
I75
sb(dp2168
g1751
I01
sg87
g743
ss(iconstruction
TP_NODE
p2169
(dp2170
g1750
I00
sg87
g587
sg68
g2146
sg1751
I01
sg1752
I00
sg585
I74
sb(dp2171
g1751
I01
sg87
g587
ss(iconstruction
TP_NODE
p2172
(dp2173
g1750
I00
sg87
g743
sg68
g2148
sg1751
I01
sg1752
I00
sg585
I77
sb(dp2174
g1751
I01
sg87
g743
ss(iconstruction
TP_NODE
p2175
(dp2176
g1750
I00
sg87
g743
sg68
g2150
sg1751
I01
sg1752
I00
sg585
I76
sb(dp2177
g1751
I01
sg87
g743
sssg286
g287
sg288
g287
sg289
(dp2178
g2162
(dp2179
g2169
(dp2180
g87
g734
sssg2166
(dp2181
sg2169
(dp2182
g2166
(dp2183
g87
g713
ssg2172
(dp2184
g87
g698
ssg2175
(dp2185
g87
g695
sssg2172
(dp2186
sg2175
(dp2187
ssg483
g2178
sg98
(dp2188
sg485
g287
sg486
g2178
sg487
(dp2189
g2162
(dp2190
sg2166
(dp2191
g2169
g2183
ssg2169
(dp2192
g2162
g2180
ssg2172
(dp2193
g2169
g2184
ssg2175
(dp2194
g2169
g2185
sssbsg580
(lp2195
g2162
ag2169
ag2166
ag2175
ag2172
asg853
(lp2196
(iconstruction
TP_REL
p2197
(dp2198
g859
g2169
sg87
g734
sg585
I78
sg860
g2162
sg68
VIS_78
p2199
sba(iconstruction
TP_REL
p2200
(dp2201
g859
g2166
sg87
g713
sg585
I79
sg860
g2169
sg68
VACT_AGT_79
p2202
sba(iconstruction
TP_REL
p2203
(dp2204
g859
g2175
sg87
g695
sg585
I80
sg860
g2169
sg68
VACT_THEME_80
p2205
sba(iconstruction
TP_REL
p2206
(dp2207
g859
g2172
sg87
g698
sg585
I81
sg860
g2169
sg68
VACT_RCPT_81
p2208
sbasg585
I70
sg68
g1671
sbsg1766
(iconstruction
TP_SYNFORM
p2209
(dp2210
g585
I71
sg1769
(lp2211
(iconstruction
TP_SLOT
p2212
(dp2213
g1773
(lp2214
VNP
p2215
aVN
p2216
asg1776
I0
sg585
I82
sg68
g2153
sba(iconstruction
TP_SLOT
p2217
(dp2218
g1773
(lp2219
VVP
p2220
aVV
p2221
asg1776
I1
sg585
I83
sg68
g2147
sba(iconstruction
TP_SLOT
p2222
(dp2223
g1773
(lp2224
VNP
p2225
aVN
p2226
asg1776
I2
sg585
I84
sg68
g2149
sba(iconstruction
TP_SLOT
p2227
(dp2228
g1773
(lp2229
VNP
p2230
aVN
p2231
asg1776
I3
sg585
I85
sg68
g2151
sbasg68
g1671
sbsg1787
I1
sba(iconstruction
CXN
p2232
(dp2233
g1729
(iconstruction
TP_SYMLINKS
p2234
(dp2235
g1732
(dp2236
VAGT_91
p2237
VS1_98
p2238
sVRCPT_93
p2239
VS5_102
p2240
sVACT_90
p2241
VS2_99
p2242
sVTHEME_92
p2243
VS3_100
p2244
ssg585
I88
sg68
g1671
sbsg1738
VS
p2245
sg1740
I2
sg68
VOBLIQUE_DATIVE
p2246
sg1741
(iconstruction
TP_SEMFRAME
p2247
(dp2248
g98
g0
(g99
g2
Ntp2249
Rp2250
(dp2251
g103
(dp2252
(iconstruction
TP_NODE
p2253
(dp2254
g1750
I01
sg87
g740
sg68
VEVT_89
p2255
sg1751
I01
sg1752
I00
sg585
I89
sb(dp2256
g1751
I01
sg87
g740
ss(iconstruction
TP_NODE
p2257
(dp2258
g1750
I00
sg87
g743
sg68
g2237
sg1751
I01
sg1752
I01
sg585
I91
sb(dp2259
g1751
I01
sg87
g743
ss(iconstruction
TP_NODE
p2260
(dp2261
g1750
I00
sg87
g743
sg68
g2243
sg1751
I01
sg1752
I00
sg585
I92
sb(dp2262
g1751
I01
sg87
g743
ss(iconstruction
TP_NODE
p2263
(dp2264
g1750
I00
sg87
g635
sg68
g2241
sg1751
I01
sg1752
I00
sg585
I90
sb(dp2265
g1751
I01
sg87
g635
ss(iconstruction
TP_NODE
p2266
(dp2267
g1750
I00
sg87
g743
sg68
g2239
sg1751
I01
sg1752
I00
sg585
I93
sb(dp2268
g1751
I01
sg87
g743
sssg286
g287
sg288
g287
sg289
(dp2269
g2253
(dp2270
g2263
(dp2271
g87
g734
sssg2257
(dp2272
sg2260
(dp2273
sg2263
(dp2274
g2257
(dp2275
g87
g713
ssg2266
(dp2276
g87
g698
ssg2260
(dp2277
g87
g695
sssg2266
(dp2278
ssg483
g2269
sg98
(dp2279
sg485
g287
sg486
g2269
sg487
(dp2280
g2253
(dp2281
sg2257
(dp2282
g2263
g2275
ssg2260
(dp2283
g2263
g2277
ssg2263
(dp2284
g2253
g2271
ssg2266
(dp2285
g2263
g2276
sssbsg580
(lp2286
g2253
ag2263
ag2257
ag2260
ag2266
asg853
(lp2287
(iconstruction
TP_REL
p2288
(dp2289
g859
g2263
sg87
g734
sg585
I94
sg860
g2253
sg68
VIS_94
p2290
sba(iconstruction
TP_REL
p2291
(dp2292
g859
g2257
sg87
g713
sg585
I95
sg860
g2263
sg68
VACT_AGT_95
p2293
sba(iconstruction
TP_REL
p2294
(dp2295
g859
g2260
sg87
g695
sg585
I96
sg860
g2263
sg68
VACT_THEME_96
p2296
sba(iconstruction
TP_REL
p2297
(dp2298
g859
g2266
sg87
g698
sg585
I97
sg860
g2263
sg68
VACT_RCPT_97
p2299
sbasg585
I86
sg68
g1671
sbsg1766
(iconstruction
TP_SYNFORM
p2300
(dp2301
g585
I87
sg1769
(lp2302
(iconstruction
TP_SLOT
p2303
(dp2304
g1773
(lp2305
VNP
p2306
aVN
p2307
asg1776
I0
sg585
I98
sg68
g2238
sba(iconstruction
TP_SLOT
p2308
(dp2309
g1773
(lp2310
VVP
p2311
aVV
p2312
asg1776
I1
sg585
I99
sg68
g2242
sba(iconstruction
TP_SLOT
p2313
(dp2314
g1773
(lp2315
VNP
p2316
aVN
p2317
asg1776
I2
sg585
I100
sg68
g2244
sba(iconstruction
TP_PHON
p2318
(dp2319
g1779
I2
sg1776
I3
sg585
I101
sg1780
Vto
p2320
sg68
VS4_101
p2321
sba(iconstruction
TP_SLOT
p2322
(dp2323
g1773
(lp2324
VNP
p2325
aVN
p2326
asg1776
I4
sg585
I102
sg68
g2240
sbasg68
g1671
sbsg1787
I1
sba(iconstruction
CXN
p2327
(dp2328
g1729
(iconstruction
TP_SYMLINKS
p2329
(dp2330
g1732
(dp2331
VATTR_108
p2332
VS3_113
p2333
sVENT_107
p2334
VS1_111
p2335
ssg585
I105
sg68
g1671
sbsg1738
VS
p2336
sg1740
I2
sg68
VSPA
p2337
sg1741
(iconstruction
TP_SEMFRAME
p2338
(dp2339
g98
g0
(g99
g2
Ntp2340
Rp2341
(dp2342
g103
(dp2343
(iconstruction
TP_NODE
p2344
(dp2345
g1750
I00
sg87
g743
sg68
g2334
sg1751
I01
sg1752
I01
sg585
I107
sb(dp2346
g1751
I01
sg87
g743
ss(iconstruction
TP_NODE
p2347
(dp2348
g1750
I00
sg87
g644
sg68
g2332
sg1751
I00
sg1752
I00
sg585
I108
sb(dp2349
g1751
I00
sg87
g644
ss(iconstruction
TP_NODE
p2350
(dp2351
g1750
I01
sg87
g740
sg68
VEVT_106
p2352
sg1751
I01
sg1752
I00
sg585
I106
sb(dp2353
g1751
I01
sg87
g740
sssg286
g287
sg288
g287
sg289
(dp2354
g2344
(dp2355
sg2347
(dp2356
sg2350
(dp2357
g2344
(dp2358
g87
g734
ssg2347
(dp2359
g87
g692
ssssg483
g2354
sg98
(dp2360
sg485
g287
sg486
g2354
sg487
(dp2361
g2344
(dp2362
g2350
g2358
ssg2347
(dp2363
g2350
g2359
ssg2350
(dp2364
ssbsg580
(lp2365
g2350
ag2344
ag2347
asg853
(lp2366
(iconstruction
TP_REL
p2367
(dp2368
g859
g2344
sg87
g734
sg585
I109
sg860
g2350
sg68
VIS_109
p2369
sba(iconstruction
TP_REL
p2370
(dp2371
g859
g2347
sg87
g692
sg585
I110
sg860
g2350
sg68
VEVT_ATTR_110
p2372
sbasg585
I103
sg68
g1671
sbsg1766
(iconstruction
TP_SYNFORM
p2373
(dp2374
g585
I104
sg1769
(lp2375
(iconstruction
TP_SLOT
p2376
(dp2377
g1773
(lp2378
VNP
p2379
aVN
p2380
asg1776
I0
sg585
I111
sg68
g2335
sba(iconstruction
TP_PHON
p2381
(dp2382
g1779
I2
sg1776
I1
sg585
I112
sg1780
Vis
p2383
sg68
VS2_112
p2384
sba(iconstruction
TP_SLOT
p2385
(dp2386
g1773
(lp2387
VA
p2388
asg1776
I2
sg585
I113
sg68
g2333
sbasg68
g1671
sbsg1787
I1
sba(iconstruction
CXN
p2389
(dp2390
g1729
(iconstruction
TP_SYMLINKS
p2391
(dp2392
g1732
(dp2393
VAGT_119
p2394
VS1_122
p2395
sVACT_118
p2396
VS2_123
p2397
ssg585
I116
sg68
g1671
sbsg1738
VS
p2398
sg1740
I2
sg68
VSV
p2399
sg1741
(iconstruction
TP_SEMFRAME
p2400
(dp2401
g98
g0
(g99
g2
Ntp2402
Rp2403
(dp2404
g103
(dp2405
(iconstruction
TP_NODE
p2406
(dp2407
g1750
I00
sg87
g599
sg68
g2396
sg1751
I01
sg1752
I00
sg585
I118
sb(dp2408
g1751
I01
sg87
g599
ss(iconstruction
TP_NODE
p2409
(dp2410
g1750
I00
sg87
g743
sg68
g2394
sg1751
I01
sg1752
I01
sg585
I119
sb(dp2411
g1751
I01
sg87
g743
ss(iconstruction
TP_NODE
p2412
(dp2413
g1750
I01
sg87
g740
sg68
VEVT_117
p2414
sg1751
I01
sg1752
I00
sg585
I117
sb(dp2415
g1751
I01
sg87
g740
sssg286
g287
sg288
g287
sg289
(dp2416
g2406
(dp2417
g2409
(dp2418
g87
g713
sssg2409
(dp2419
sg2412
(dp2420
g2406
(dp2421
g87
g734
ssssg483
g2416
sg98
(dp2422
sg485
g287
sg486
g2416
sg487
(dp2423
g2406
(dp2424
g2412
g2421
ssg2409
(dp2425
g2406
g2418
ssg2412
(dp2426
ssbsg580
(lp2427
g2412
ag2406
ag2409
asg853
(lp2428
(iconstruction
TP_REL
p2429
(dp2430
g859
g2406
sg87
g734
sg585
I120
sg860
g2412
sg68
VIS_120
p2431
sba(iconstruction
TP_REL
p2432
(dp2433
g859
g2409
sg87
g713
sg585
I121
sg860
g2406
sg68
VACT_AGT_121
p2434
sbasg585
I114
sg68
g1671
sbsg1766
(iconstruction
TP_SYNFORM
p2435
(dp2436
g585
I115
sg1769
(lp2437
(iconstruction
TP_SLOT
p2438
(dp2439
g1773
(lp2440
VNP
p2441
aVN
p2442
asg1776
I0
sg585
I122
sg68
g2395
sba(iconstruction
TP_SLOT
p2443
(dp2444
g1773
(lp2445
VVP
p2446
aVV
p2447
asg1776
I1
sg585
I123
sg68
g2397
sbasg68
g1671
sbsg1787
I1
sba(iconstruction
CXN
p2448
(dp2449
g1729
(iconstruction
TP_SYMLINKS
p2450
(dp2451
g1732
(dp2452
VEVT_127
p2453
VS1_130
p2454
sVPLACE_128
p2455
VS3_132
p2456
ssg585
I126
sg68
g1671
sbsg1738
VS
p2457
sg1740
I2
sg68
VPP_IN
p2458
sg1741
(iconstruction
TP_SEMFRAME
p2459
(dp2460
g98
g0
(g99
g2
Ntp2461
Rp2462
(dp2463
g103
(dp2464
(iconstruction
TP_NODE
p2465
(dp2466
g1750
I00
sg87
g743
sg68
g2455
sg1751
I01
sg1752
I00
sg585
I128
sb(dp2467
g1751
I01
sg87
g743
ss(iconstruction
TP_NODE
p2468
(dp2469
g1750
I01
sg87
g740
sg68
g2453
sg1751
I01
sg1752
I00
sg585
I127
sb(dp2470
g1751
I01
sg87
g740
sssg286
g287
sg288
g287
sg289
(dp2471
g2465
(dp2472
sg2468
(dp2473
g2465
(dp2474
g87
g731
ssssg483
g2471
sg98
(dp2475
sg485
g287
sg486
g2471
sg487
(dp2476
g2465
(dp2477
g2468
g2474
ssg2468
(dp2478
ssbsg580
(lp2479
g2468
ag2465
asg853
(lp2480
(iconstruction
TP_REL
p2481
(dp2482
g859
g2465
sg87
g731
sg585
I129
sg860
g2468
sg68
VEVT_PP_129
p2483
sbasg585
I124
sg68
g1671
sbsg1766
(iconstruction
TP_SYNFORM
p2484
(dp2485
g585
I125
sg1769
(lp2486
(iconstruction
TP_SLOT
p2487
(dp2488
g1773
(lp2489
VS
p2490
asg1776
I0
sg585
I130
sg68
g2454
sba(iconstruction
TP_PHON
p2491
(dp2492
g1779
I2
sg1776
I1
sg585
I131
sg1780
Vin
p2493
sg68
VS2_131
p2494
sba(iconstruction
TP_SLOT
p2495
(dp2496
g1773
(lp2497
VNP
p2498
aVN
p2499
asg1776
I2
sg585
I132
sg68
g2456
sbasg68
g1671
sbsg1787
I1
sba(iconstruction
CXN
p2500
(dp2501
g1729
(iconstruction
TP_SYMLINKS
p2502
(dp2503
g1732
(dp2504
VEVT2_137
p2505
VS2_140
p2506
sVEVT1_136
p2507
VS1_139
p2508
ssg585
I135
sg68
g1671
sbsg1738
VS
p2509
sg1740
I2
sg68
VS_PP
p2510
sg1741
(iconstruction
TP_SEMFRAME
p2511
(dp2512
g98
g0
(g99
g2
Ntp2513
Rp2514
(dp2515
g103
(dp2516
(iconstruction
TP_NODE
p2517
(dp2518
g1750
I01
sg87
g740
sg68
g2507
sg1751
I01
sg1752
I01
sg585
I136
sb(dp2519
g1751
I01
sg87
g740
ss(iconstruction
TP_NODE
p2520
(dp2521
g1750
I00
sg87
g740
sg68
g2505
sg1751
I01
sg1752
I00
sg585
I137
sb(dp2522
g1751
I01
sg87
g740
sssg286
g287
sg288
g287
sg289
(dp2523
g2517
(dp2524
g2520
(dp2525
g87
g692
sssg2520
(dp2526
ssg483
g2523
sg98
(dp2527
sg485
g287
sg486
g2523
sg487
(dp2528
g2517
(dp2529
sg2520
(dp2530
g2517
g2525
sssbsg580
(lp2531
g2517
ag2520
asg853
(lp2532
(iconstruction
TP_REL
p2533
(dp2534
g859
g2520
sg87
g692
sg585
I138
sg860
g2517
sg68
VMOD_138
p2535
sbasg585
I133
sg68
g1671
sbsg1766
(iconstruction
TP_SYNFORM
p2536
(dp2537
g585
I134
sg1769
(lp2538
(iconstruction
TP_SLOT
p2539
(dp2540
g1773
(lp2541
VS
p2542
asg1776
I0
sg585
I139
sg68
g2508
sba(iconstruction
TP_SLOT
p2543
(dp2544
g1773
(lp2545
VPP
p2546
asg1776
I1
sg585
I140
sg68
g2506
sbasg68
g1671
sbsg1787
I1
sba(iconstruction
CXN
p2547
(dp2548
g1729
(iconstruction
TP_SYMLINKS
p2549
(dp2550
g1732
(dp2551
VENT_144
p2552
VS2_148
p2553
sVATTR_145
p2554
VS1_147
p2555
ssg585
I143
sg68
g1671
sbsg1738
VN
p2556
sg1740
I2
sg68
VADJUNCT_N
p2557
sg1741
(iconstruction
TP_SEMFRAME
p2558
(dp2559
g98
g0
(g99
g2
Ntp2560
Rp2561
(dp2562
g103
(dp2563
(iconstruction
TP_NODE
p2564
(dp2565
g1750
I01
sg87
g743
sg68
g2552
sg1751
I01
sg1752
I00
sg585
I144
sb(dp2566
g1751
I01
sg87
g743
ss(iconstruction
TP_NODE
p2567
(dp2568
g1750
I00
sg87
g644
sg68
g2554
sg1751
I00
sg1752
I00
sg585
I145
sb(dp2569
g1751
I00
sg87
g644
sssg286
g287
sg288
g287
sg289
(dp2570
g2564
(dp2571
g2567
(dp2572
g87
g692
sssg2567
(dp2573
ssg483
g2570
sg98
(dp2574
sg485
g287
sg486
g2570
sg487
(dp2575
g2564
(dp2576
sg2567
(dp2577
g2564
g2572
sssbsg580
(lp2578
g2564
ag2567
asg853
(lp2579
(iconstruction
TP_REL
p2580
(dp2581
g859
g2567
sg87
g692
sg585
I146
sg860
g2564
sg68
VENT_ATTR_146
p2582
sbasg585
I141
sg68
g1671
sbsg1766
(iconstruction
TP_SYNFORM
p2583
(dp2584
g585
I142
sg1769
(lp2585
(iconstruction
TP_SLOT
p2586
(dp2587
g1773
(lp2588
VA
p2589
asg1776
I0
sg585
I147
sg68
g2555
sba(iconstruction
TP_SLOT
p2590
(dp2591
g1773
(lp2592
VN
p2593
asg1776
I1
sg585
I148
sg68
g2553
sbasg68
g1671
sbsg1787
I1
sba(iconstruction
CXN
p2594
(dp2595
g1729
(iconstruction
TP_SYMLINKS
p2596
(dp2597
g1732
(dp2598
VAGT_154
p2599
VS1_160
p2600
sVACT_153
p2601
VS3_162
p2602
sVPT_155
p2603
VS4_163
p2604
ssg585
I151
sg68
g1671
sbsg1738
VN
p2605
sg1740
I2
sg68
VSUBJ_REL_SVO
p2606
sg1741
(iconstruction
TP_SEMFRAME
p2607
(dp2608
g98
g0
(g99
g2
Ntp2609
Rp2610
(dp2611
g103
(dp2612
(iconstruction
TP_NODE
p2613
(dp2614
g1750
I00
sg87
g740
sg68
VEVT_152
p2615
sg1751
I01
sg1752
I00
sg585
I152
sb(dp2616
g1751
I01
sg87
g740
ss(iconstruction
TP_NODE
p2617
(dp2618
g1750
I01
sg87
g743
sg68
g2599
sg1751
I01
sg1752
I00
sg585
I154
sb(dp2619
g1751
I01
sg87
g743
ss(iconstruction
TP_NODE
p2620
(dp2621
g1750
I00
sg87
g605
sg68
g2601
sg1751
I01
sg1752
I01
sg585
I153
sb(dp2622
g1751
I01
sg87
g605
ss(iconstruction
TP_NODE
p2623
(dp2624
g1750
I00
sg87
g743
sg68
g2603
sg1751
I01
sg1752
I00
sg585
I155
sb(dp2625
g1751
I01
sg87
g743
sssg286
g287
sg288
g287
sg289
(dp2626
g2613
(dp2627
g2620
(dp2628
g87
g734
sssg2617
(dp2629
g2613
(dp2630
g87
g692
sssg2620
(dp2631
g2617
(dp2632
g87
g713
ssg2623
(dp2633
g87
g707
sssg2623
(dp2634
ssg483
g2626
sg98
(dp2635
sg485
g287
sg486
g2626
sg487
(dp2636
g2613
(dp2637
g2617
g2630
ssg2617
(dp2638
g2620
g2632
ssg2620
(dp2639
g2613
g2628
ssg2623
(dp2640
g2620
g2633
sssbsg580
(lp2641
g2613
ag2620
ag2617
ag2623
asg853
(lp2642
(iconstruction
TP_REL
p2643
(dp2644
g859
g2620
sg87
g734
sg585
I156
sg860
g2613
sg68
VIS_156
p2645
sba(iconstruction
TP_REL
p2646
(dp2647
g859
g2617
sg87
g713
sg585
I157
sg860
g2620
sg68
VACT_AGT_157
p2648
sba(iconstruction
TP_REL
p2649
(dp2650
g859
g2623
sg87
g707
sg585
I158
sg860
g2620
sg68
VACT_PT_158
p2651
sba(iconstruction
TP_REL
p2652
(dp2653
g859
g2613
sg87
g692
sg585
I159
sg860
g2617
sg68
VAGT_EVT_159
p2654
sbasg585
I149
sg68
g1671
sbsg1766
(iconstruction
TP_SYNFORM
p2655
(dp2656
g585
I150
sg1769
(lp2657
(iconstruction
TP_SLOT
p2658
(dp2659
g1773
(lp2660
VN
p2661
asg1776
I0
sg585
I160
sg68
g2600
sba(iconstruction
TP_PHON
p2662
(dp2663
g1779
I4
sg1776
I1
sg585
I161
sg1780
Vthat
p2664
sg68
VS2_161
p2665
sba(iconstruction
TP_SLOT
p2666
(dp2667
g1773
(lp2668
VVP
p2669
aVV
p2670
asg1776
I2
sg585
I162
sg68
g2602
sba(iconstruction
TP_SLOT
p2671
(dp2672
g1773
(lp2673
VNP
p2674
aVN
p2675
asg1776
I3
sg585
I163
sg68
g2604
sbasg68
g1671
sbsg1787
I1
sba(iconstruction
CXN
p2676
(dp2677
g1729
(iconstruction
TP_SYMLINKS
p2678
(dp2679
g1732
(dp2680
VAGT_169
p2681
VS1_173
p2682
sVACT_168
p2683
VS3_175
p2684
ssg585
I166
sg68
g1671
sbsg1738
VN
p2685
sg1740
I2
sg68
VSUBJ_REL_SV
p2686
sg1741
(iconstruction
TP_SEMFRAME
p2687
(dp2688
g98
g0
(g99
g2
Ntp2689
Rp2690
(dp2691
g103
(dp2692
(iconstruction
TP_NODE
p2693
(dp2694
g1750
I00
sg87
g740
sg68
VEVT_167
p2695
sg1751
I01
sg1752
I00
sg585
I167
sb(dp2696
g1751
I01
sg87
g740
ss(iconstruction
TP_NODE
p2697
(dp2698
g1750
I01
sg87
g743
sg68
g2681
sg1751
I01
sg1752
I00
sg585
I169
sb(dp2699
g1751
I01
sg87
g743
ss(iconstruction
TP_NODE
p2700
(dp2701
g1750
I00
sg87
g587
sg68
g2683
sg1751
I01
sg1752
I01
sg585
I168
sb(dp2702
g1751
I01
sg87
g587
sssg286
g287
sg288
g287
sg289
(dp2703
g2693
(dp2704
g2700
(dp2705
g87
g734
sssg2697
(dp2706
g2693
(dp2707
g87
g692
sssg2700
(dp2708
g2697
(dp2709
g87
g713
ssssg483
g2703
sg98
(dp2710
sg485
g287
sg486
g2703
sg487
(dp2711
g2693
(dp2712
g2697
g2707
ssg2697
(dp2713
g2700
g2709
ssg2700
(dp2714
g2693
g2705
sssbsg580
(lp2715
g2693
ag2700
ag2697
asg853
(lp2716
(iconstruction
TP_REL
p2717
(dp2718
g859
g2700
sg87
g734
sg585
I170
sg860
g2693
sg68
VIS_170
p2719
sba(iconstruction
TP_REL
p2720
(dp2721
g859
g2697
sg87
g713
sg585
I171
sg860
g2700
sg68
VACT_AGT_171
p2722
sba(iconstruction
TP_REL
p2723
(dp2724
g859
g2693
sg87
g692
sg585
I172
sg860
g2697
sg68
VAGT_EVT_172
p2725
sbasg585
I164
sg68
g1671
sbsg1766
(iconstruction
TP_SYNFORM
p2726
(dp2727
g585
I165
sg1769
(lp2728
(iconstruction
TP_SLOT
p2729
(dp2730
g1773
(lp2731
VN
p2732
asg1776
I0
sg585
I173
sg68
g2682
sba(iconstruction
TP_PHON
p2733
(dp2734
g1779
I4
sg1776
I1
sg585
I174
sg1780
Vthat
p2735
sg68
VS2_174
p2736
sba(iconstruction
TP_SLOT
p2737
(dp2738
g1773
(lp2739
VVP
p2740
aVV
p2741
asg1776
I2
sg585
I175
sg68
g2684
sbasg68
g1671
sbsg1787
I1
sba(iconstruction
CXN
p2742
(dp2743
g1729
(iconstruction
TP_SYMLINKS
p2744
(dp2745
g1732
(dp2746
VAGT_181
p2747
VS7_193
p2748
sVPT_182
p2749
VS1_187
p2750
sVACT_180
p2751
VS4_190
p2752
ssg585
I178
sg68
g1671
sbsg1738
VN
p2753
sg1740
I2
sg68
VSUBJ_REL_PAS_SVO
p2754
sg1741
(iconstruction
TP_SEMFRAME
p2755
(dp2756
g98
g0
(g99
g2
Ntp2757
Rp2758
(dp2759
g103
(dp2760
(iconstruction
TP_NODE
p2761
(dp2762
g1750
I00
sg87
g740
sg68
VEVT_179
p2763
sg1751
I01
sg1752
I00
sg585
I179
sb(dp2764
g1751
I01
sg87
g740
ss(iconstruction
TP_NODE
p2765
(dp2766
g1750
I00
sg87
g743
sg68
g2747
sg1751
I01
sg1752
I00
sg585
I181
sb(dp2767
g1751
I01
sg87
g743
ss(iconstruction
TP_NODE
p2768
(dp2769
g1750
I01
sg87
g743
sg68
g2749
sg1751
I01
sg1752
I00
sg585
I182
sb(dp2770
g1751
I01
sg87
g743
ss(iconstruction
TP_NODE
p2771
(dp2772
g1750
I00
sg87
g587
sg68
g2751
sg1751
I01
sg1752
I01
sg585
I180
sb(dp2773
g1751
I01
sg87
g587
sssg286
g287
sg288
g287
sg289
(dp2774
g2761
(dp2775
g2771
(dp2776
g87
g734
sssg2765
(dp2777
sg2768
(dp2778
g2761
(dp2779
g87
g692
sssg2771
(dp2780
g2765
(dp2781
g87
g713
ssg2768
(dp2782
g87
g707
ssssg483
g2774
sg98
(dp2783
sg485
g287
sg486
g2774
sg487
(dp2784
g2761
(dp2785
g2768
g2779
ssg2765
(dp2786
g2771
g2781
ssg2768
(dp2787
g2771
g2782
ssg2771
(dp2788
g2761
g2776
sssbsg580
(lp2789
g2761
ag2771
ag2765
ag2768
asg853
(lp2790
(iconstruction
TP_REL
p2791
(dp2792
g859
g2771
sg87
g734
sg585
I183
sg860
g2761
sg68
VIS_183
p2793
sba(iconstruction
TP_REL
p2794
(dp2795
g859
g2765
sg87
g713
sg585
I184
sg860
g2771
sg68
VACT_AGT_184
p2796
sba(iconstruction
TP_REL
p2797
(dp2798
g859
g2768
sg87
g707
sg585
I185
sg860
g2771
sg68
VACT_PT_185
p2799
sba(iconstruction
TP_REL
p2800
(dp2801
g859
g2761
sg87
g692
sg585
I186
sg860
g2768
sg68
VPT_EVT_186
p2802
sbasg585
I176
sg68
g1671
sbsg1766
(iconstruction
TP_SYNFORM
p2803
(dp2804
g585
I177
sg1769
(lp2805
(iconstruction
TP_SLOT
p2806
(dp2807
g1773
(lp2808
VN
p2809
asg1776
I0
sg585
I187
sg68
g2750
sba(iconstruction
TP_PHON
p2810
(dp2811
g1779
I4
sg1776
I1
sg585
I188
sg1780
Vthat
p2812
sg68
VS2_188
p2813
sba(iconstruction
TP_PHON
p2814
(dp2815
g1779
I2
sg1776
I2
sg585
I189
sg1780
Vis
p2816
sg68
VS3_189
p2817
sba(iconstruction
TP_SLOT
p2818
(dp2819
g1773
(lp2820
VVP
p2821
aVV
p2822
asg1776
I3
sg585
I190
sg68
g2752
sba(iconstruction
TP_PHON
p2823
(dp2824
g1779
I2
sg1776
I4
sg585
I191
sg1780
V-ed
p2825
sg68
VS5_191
p2826
sba(iconstruction
TP_PHON
p2827
(dp2828
g1779
I2
sg1776
I5
sg585
I192
sg1780
Vby
p2829
sg68
VS6_192
p2830
sba(iconstruction
TP_SLOT
p2831
(dp2832
g1773
(lp2833
VNP
p2834
aVN
p2835
asg1776
I6
sg585
I193
sg68
g2748
sbasg68
g1671
sbsg1787
I1
sba(iconstruction
CXN
p2836
(dp2837
g1729
(iconstruction
TP_SYMLINKS
p2838
(dp2839
g1732
(dp2840
VAGT_199
p2841
VS3_207
p2842
sVACT_198
p2843
VS4_208
p2844
sVPT_200
p2845
VS1_205
p2846
ssg585
I196
sg68
g1671
sbsg1738
VN
p2847
sg1740
I2
sg68
VOBJ_REL_SVO
p2848
sg1741
(iconstruction
TP_SEMFRAME
p2849
(dp2850
g98
g0
(g99
g2
Ntp2851
Rp2852
(dp2853
g103
(dp2854
(iconstruction
TP_NODE
p2855
(dp2856
g1750
I00
sg87
g740
sg68
VEVT_197
p2857
sg1751
I01
sg1752
I00
sg585
I197
sb(dp2858
g1751
I01
sg87
g740
ss(iconstruction
TP_NODE
p2859
(dp2860
g1750
I00
sg87
g743
sg68
g2841
sg1751
I01
sg1752
I00
sg585
I199
sb(dp2861
g1751
I01
sg87
g743
ss(iconstruction
TP_NODE
p2862
(dp2863
g1750
I01
sg87
g743
sg68
g2845
sg1751
I01
sg1752
I00
sg585
I200
sb(dp2864
g1751
I01
sg87
g743
ss(iconstruction
TP_NODE
p2865
(dp2866
g1750
I00
sg87
g587
sg68
g2843
sg1751
I01
sg1752
I01
sg585
I198
sb(dp2867
g1751
I01
sg87
g587
sssg286
g287
sg288
g287
sg289
(dp2868
g2855
(dp2869
g2865
(dp2870
g87
g734
sssg2859
(dp2871
sg2862
(dp2872
g2855
(dp2873
g87
g692
sssg2865
(dp2874
g2859
(dp2875
g87
g713
ssg2862
(dp2876
g87
g707
ssssg483
g2868
sg98
(dp2877
sg485
g287
sg486
g2868
sg487
(dp2878
g2855
(dp2879
g2862
g2873
ssg2859
(dp2880
g2865
g2875
ssg2862
(dp2881
g2865
g2876
ssg2865
(dp2882
g2855
g2870
sssbsg580
(lp2883
g2855
ag2865
ag2859
ag2862
asg853
(lp2884
(iconstruction
TP_REL
p2885
(dp2886
g859
g2865
sg87
g734
sg585
I201
sg860
g2855
sg68
VIS_201
p2887
sba(iconstruction
TP_REL
p2888
(dp2889
g859
g2859
sg87
g713
sg585
I202
sg860
g2865
sg68
VACT_AGT_202
p2890
sba(iconstruction
TP_REL
p2891
(dp2892
g859
g2862
sg87
g707
sg585
I203
sg860
g2865
sg68
VACT_PT_203
p2893
sba(iconstruction
TP_REL
p2894
(dp2895
g859
g2855
sg87
g692
sg585
I204
sg860
g2862
sg68
VPT_EVT_204
p2896
sbasg585
I194
sg68
g1671
sbsg1766
(iconstruction
TP_SYNFORM
p2897
(dp2898
g585
I195
sg1769
(lp2899
(iconstruction
TP_SLOT
p2900
(dp2901
g1773
(lp2902
VN
p2903
asg1776
I0
sg585
I205
sg68
g2846
sba(iconstruction
TP_PHON
p2904
(dp2905
g1779
I4
sg1776
I1
sg585
I206
sg1780
Vthat
p2906
sg68
VS2_206
p2907
sba(iconstruction
TP_SLOT
p2908
(dp2909
g1773
(lp2910
VNP
p2911
aVN
p2912
asg1776
I2
sg585
I207
sg68
g2842
sba(iconstruction
TP_SLOT
p2913
(dp2914
g1773
(lp2915
VVP
p2916
aVV
p2917
asg1776
I3
sg585
I208
sg68
g2844
sbasg68
g1671
sbsg1787
I1
sba(iconstruction
CXN
p2918
(dp2919
g1729
(iconstruction
TP_SYMLINKS
p2920
(dp2921
g1732
(dp2922
VPT_215
p2923
VS3_222
p2924
sVACT_213
p2925
VS5_224
p2926
sVAGT_214
p2927
VS1_220
p2928
ssg585
I211
sg68
g1671
sbsg1738
VN
p2929
sg1740
I2
sg68
VOBJ_REL_PAS_SVO
p2930
sg1741
(iconstruction
TP_SEMFRAME
p2931
(dp2932
g98
g0
(g99
g2
Ntp2933
Rp2934
(dp2935
g103
(dp2936
(iconstruction
TP_NODE
p2937
(dp2938
g1750
I00
sg87
g740
sg68
VEVT_212
p2939
sg1751
I01
sg1752
I00
sg585
I212
sb(dp2940
g1751
I01
sg87
g740
ss(iconstruction
TP_NODE
p2941
(dp2942
g1750
I01
sg87
g743
sg68
g2927
sg1751
I01
sg1752
I00
sg585
I214
sb(dp2943
g1751
I01
sg87
g743
ss(iconstruction
TP_NODE
p2944
(dp2945
g1750
I00
sg87
g587
sg68
g2925
sg1751
I01
sg1752
I01
sg585
I213
sb(dp2946
g1751
I01
sg87
g587
ss(iconstruction
TP_NODE
p2947
(dp2948
g1750
I00
sg87
g743
sg68
g2923
sg1751
I01
sg1752
I00
sg585
I215
sb(dp2949
g1751
I01
sg87
g743
sssg286
g287
sg288
g287
sg289
(dp2950
g2937
(dp2951
g2944
(dp2952
g87
g734
sssg2941
(dp2953
g2937
(dp2954
g87
g692
sssg2944
(dp2955
g2941
(dp2956
g87
g713
ssg2947
(dp2957
g87
g707
sssg2947
(dp2958
ssg483
g2950
sg98
(dp2959
sg485
g287
sg486
g2950
sg487
(dp2960
g2937
(dp2961
g2941
g2954
ssg2941
(dp2962
g2944
g2956
ssg2944
(dp2963
g2937
g2952
ssg2947
(dp2964
g2944
g2957
sssbsg580
(lp2965
g2937
ag2944
ag2941
ag2947
asg853
(lp2966
(iconstruction
TP_REL
p2967
(dp2968
g859
g2944
sg87
g734
sg585
I216
sg860
g2937
sg68
VIS_216
p2969
sba(iconstruction
TP_REL
p2970
(dp2971
g859
g2941
sg87
g713
sg585
I217
sg860
g2944
sg68
VACT_AGT_217
p2972
sba(iconstruction
TP_REL
p2973
(dp2974
g859
g2947
sg87
g707
sg585
I218
sg860
g2944
sg68
VACT_PT_218
p2975
sba(iconstruction
TP_REL
p2976
(dp2977
g859
g2937
sg87
g692
sg585
I219
sg860
g2941
sg68
VAGT_EVT_219
p2978
sbasg585
I209
sg68
g1671
sbsg1766
(iconstruction
TP_SYNFORM
p2979
(dp2980
g585
I210
sg1769
(lp2981
(iconstruction
TP_SLOT
p2982
(dp2983
g1773
(lp2984
VN
p2985
asg1776
I0
sg585
I220
sg68
g2928
sba(iconstruction
TP_PHON
p2986
(dp2987
g1779
I4
sg1776
I1
sg585
I221
sg1780
Vthat
p2988
sg68
VS2_221
p2989
sba(iconstruction
TP_SLOT
p2990
(dp2991
g1773
(lp2992
VNP
p2993
aVN
p2994
asg1776
I2
sg585
I222
sg68
g2924
sba(iconstruction
TP_PHON
p2995
(dp2996
g1779
I2
sg1776
I3
sg585
I223
sg1780
Vis
p2997
sg68
VS4_223
p2998
sba(iconstruction
TP_SLOT
p2999
(dp3000
g1773
(lp3001
VVP
p3002
aVV
p3003
asg1776
I4
sg585
I224
sg68
g2926
sba(iconstruction
TP_PHON
p3004
(dp3005
g1779
I2
sg1776
I5
sg585
I225
sg1780
V-ed
p3006
sg68
VS6_225
p3007
sba(iconstruction
TP_PHON
p3008
(dp3009
g1779
I2
sg1776
I6
sg585
I226
sg1780
Vby
p3010
sg68
VS7_226
p3011
sbasg68
g1671
sbsg1787
I1
sba(iconstruction
CXN
p3012
(dp3013
g1729
(iconstruction
TP_SYMLINKS
p3014
(dp3015
g1732
(dp3016
VATTR_232
p3017
VS4_238
p3018
sVENT_231
p3019
VS1_235
p3020
ssg585
I229
sg68
g1671
sbsg1738
VN
p3021
sg1740
I2
sg68
VREL_SPA
p3022
sg1741
(iconstruction
TP_SEMFRAME
p3023
(dp3024
g98
g0
(g99
g2
Ntp3025
Rp3026
(dp3027
g103
(dp3028
(iconstruction
TP_NODE
p3029
(dp3030
g1750
I00
sg87
g740
sg68
VEVT_230
p3031
sg1751
I01
sg1752
I00
sg585
I230
sb(dp3032
g1751
I01
sg87
g740
ss(iconstruction
TP_NODE
p3033
(dp3034
g1750
I00
sg87
g644
sg68
g3017
sg1751
I00
sg1752
I00
sg585
I232
sb(dp3035
g1751
I00
sg87
g644
ss(iconstruction
TP_NODE
p3036
(dp3037
g1750
I01
sg87
g743
sg68
g3019
sg1751
I01
sg1752
I01
sg585
I231
sb(dp3038
g1751
I01
sg87
g743
sssg286
g287
sg288
g287
sg289
(dp3039
g3029
(dp3040
g3033
(dp3041
g87
g692
ssg3036
(dp3042
g87
g734
sssg3033
(dp3043
sg3036
(dp3044
ssg483
g3039
sg98
(dp3045
sg485
g287
sg486
g3039
sg487
(dp3046
g3029
(dp3047
sg3033
(dp3048
g3029
g3041
ssg3036
(dp3049
g3029
g3042
sssbsg580
(lp3050
g3029
ag3036
ag3033
asg853
(lp3051
(iconstruction
TP_REL
p3052
(dp3053
g859
g3036
sg87
g734
sg585
I233
sg860
g3029
sg68
VIS_233
p3054
sba(iconstruction
TP_REL
p3055
(dp3056
g859
g3033
sg87
g692
sg585
I234
sg860
g3029
sg68
VEVT_ATTR_234
p3057
sbasg585
I227
sg68
g1671
sbsg1766
(iconstruction
TP_SYNFORM
p3058
(dp3059
g585
I228
sg1769
(lp3060
(iconstruction
TP_SLOT
p3061
(dp3062
g1773
(lp3063
VN
p3064
asg1776
I0
sg585
I235
sg68
g3020
sba(iconstruction
TP_PHON
p3065
(dp3066
g1779
I4
sg1776
I1
sg585
I236
sg1780
Vthat
p3067
sg68
VS2_236
p3068
sba(iconstruction
TP_PHON
p3069
(dp3070
g1779
I2
sg1776
I2
sg585
I237
sg1780
Vis
p3071
sg68
VS3_237
p3072
sba(iconstruction
TP_SLOT
p3073
(dp3074
g1773
(lp3075
VA
p3076
asg1776
I3
sg585
I238
sg68
g3018
sbasg68
g1671
sbsg1787
I1
sba(iconstruction
CXN
p3077
(dp3078
g1729
(iconstruction
TP_SYMLINKS
p3079
(dp3080
g1732
(dp3081
VAGT_244
p3082
VS1_251
p3083
sVCOLOR_246
p3084
VS3_253
p3085
ssg585
I241
sg68
g1671
sbsg1738
VN
p3086
sg1740
I2
sg68
VIN_COLOR
p3087
sg1741
(iconstruction
TP_SEMFRAME
p3088
(dp3089
g98
g0
(g99
g2
Ntp3090
Rp3091
(dp3092
g103
(dp3093
(iconstruction
TP_NODE
p3094
(dp3095
g1750
I00
sg87
g740
sg68
VEVT_242
p3096
sg1751
I01
sg1752
I00
sg585
I242
sb(dp3097
g1751
I01
sg87
g740
ss(iconstruction
TP_NODE
p3098
(dp3099
g1750
I01
sg87
g752
sg68
g3082
sg1751
I01
sg1752
I00
sg585
I244
sb(dp3100
g1751
I01
sg87
g752
ss(iconstruction
TP_NODE
p3101
(dp3102
g1750
I00
sg87
g632
sg68
VACT_243
p3103
sg1751
I01
sg1752
I00
sg585
I243
sb(dp3104
g1751
I01
sg87
g632
ss(iconstruction
TP_NODE
p3105
(dp3106
g1750
I00
sg87
g647
sg68
g3084
sg1751
I00
sg1752
I01
sg585
I246
sb(dp3107
g1751
I00
sg87
g647
ss(iconstruction
TP_NODE
p3108
(dp3109
g1750
I00
sg87
g782
sg68
VPT_245
p3110
sg1751
I01
sg1752
I00
sg585
I245
sb(dp3111
g1751
I01
sg87
g782
sssg286
g287
sg288
g287
sg289
(dp3112
g3094
(dp3113
g3101
(dp3114
g87
g734
sssg3098
(dp3115
sg3101
(dp3116
g3098
(dp3117
g87
g713
ssg3108
(dp3118
g87
g707
sssg3105
(dp3119
sg3108
(dp3120
g3105
(dp3121
g87
g692
ssssg483
g3112
sg98
(dp3122
sg485
g287
sg486
g3112
sg487
(dp3123
g3094
(dp3124
sg3098
(dp3125
g3101
g3117
ssg3101
(dp3126
g3094
g3114
ssg3105
(dp3127
g3108
g3121
ssg3108
(dp3128
g3101
g3118
sssbsg580
(lp3129
g3094
ag3101
ag3098
ag3108
ag3105
asg853
(lp3130
(iconstruction
TP_REL
p3131
(dp3132
g859
g3101
sg87
g734
sg585
I247
sg860
g3094
sg68
VIS_247
p3133
sba(iconstruction
TP_REL
p3134
(dp3135
g859
g3098
sg87
g713
sg585
I248
sg860
g3101
sg68
VACT_AGT_248
p3136
sba(iconstruction
TP_REL
p3137
(dp3138
g859
g3108
sg87
g707
sg585
I249
sg860
g3101
sg68
VACT_PT_249
p3139
sba(iconstruction
TP_REL
p3140
(dp3141
g859
g3105
sg87
g692
sg585
I250
sg860
g3108
sg68
VPT_COLOR_250
p3142
sbasg585
I239
sg68
g1671
sbsg1766
(iconstruction
TP_SYNFORM
p3143
(dp3144
g585
I240
sg1769
(lp3145
(iconstruction
TP_SLOT
p3146
(dp3147
g1773
(lp3148
VN
p3149
asg1776
I0
sg585
I251
sg68
g3083
sba(iconstruction
TP_PHON
p3150
(dp3151
g1779
I2
sg1776
I1
sg585
I252
sg1780
Vin
p3152
sg68
VS2_252
p3153
sba(iconstruction
TP_SLOT
p3154
(dp3155
g1773
(lp3156
VA
p3157
asg1776
I2
sg585
I253
sg68
g3085
sbasg68
g1671
sbsg1787
I1
sba(iconstruction
CXN
p3158
(dp3159
g1729
(iconstruction
TP_SYMLINKS
p3160
(dp3161
g1732
(dp3162
VN1_258
p3163
VS1_260
p3164
ssg585
I256
sg68
g1671
sbsg1738
VV
p3165
sg1740
I1
sg68
VHIT
p3166
sg1741
(iconstruction
TP_SEMFRAME
p3167
(dp3168
g98
g0
(g99
g2
Ntp3169
Rp3170
(dp3171
g103
(dp3172
(iconstruction
TP_NODE
p3173
(dp3174
g1750
I00
sg87
g608
sg68
g3163
sg1751
I00
sg1752
I00
sg585
I258
sb(dp3175
g1751
I00
sg87
g608
ss(iconstruction
TP_NODE
p3176
(dp3177
g1750
I01
sg87
g587
sg68
VACT_257
p3178
sg1751
I01
sg1752
I00
sg585
I257
sb(dp3179
g1751
I01
sg87
g587
sssg286
g287
sg288
g287
sg289
(dp3180
g3173
(dp3181
sg3176
(dp3182
g3173
(dp3183
g87
g734
ssssg483
g3180
sg98
(dp3184
sg485
g287
sg486
g3180
sg487
(dp3185
g3173
(dp3186
g3176
g3183
ssg3176
(dp3187
ssbsg580
(lp3188
g3176
ag3173
asg853
(lp3189
(iconstruction
TP_REL
p3190
(dp3191
g859
g3173
sg87
g734
sg585
I259
sg860
g3176
sg68
VIS_259
p3192
sbasg585
I254
sg68
g1671
sbsg1766
(iconstruction
TP_SYNFORM
p3193
(dp3194
g585
I255
sg1769
(lp3195
(iconstruction
TP_PHON
p3196
(dp3197
g1779
I3
sg1776
I0
sg585
I260
sg1780
Vhit
p3198
sg68
g3164
sbasg68
g1671
sbsg1787
I1
sba(iconstruction
CXN
p3199
(dp3200
g1729
(iconstruction
TP_SYMLINKS
p3201
(dp3202
g1732
(dp3203
VN1_265
p3204
VS1_267
p3205
ssg585
I263
sg68
g1671
sbsg1738
VV
p3206
sg1740
I1
sg68
VKICK
p3207
sg1741
(iconstruction
TP_SEMFRAME
p3208
(dp3209
g98
g0
(g99
g2
Ntp3210
Rp3211
(dp3212
g103
(dp3213
(iconstruction
TP_NODE
p3214
(dp3215
g1750
I00
sg87
g629
sg68
g3204
sg1751
I00
sg1752
I00
sg585
I265
sb(dp3216
g1751
I00
sg87
g629
ss(iconstruction
TP_NODE
p3217
(dp3218
g1750
I01
sg87
g587
sg68
VACT_264
p3219
sg1751
I01
sg1752
I00
sg585
I264
sb(dp3220
g1751
I01
sg87
g587
sssg286
g287
sg288
g287
sg289
(dp3221
g3214
(dp3222
sg3217
(dp3223
g3214
(dp3224
g87
g734
ssssg483
g3221
sg98
(dp3225
sg485
g287
sg486
g3221
sg487
(dp3226
g3214
(dp3227
g3217
g3224
ssg3217
(dp3228
ssbsg580
(lp3229
g3217
ag3214
asg853
(lp3230
(iconstruction
TP_REL
p3231
(dp3232
g859
g3214
sg87
g734
sg585
I266
sg860
g3217
sg68
VIS_266
p3233
sbasg585
I261
sg68
g1671
sbsg1766
(iconstruction
TP_SYNFORM
p3234
(dp3235
g585
I262
sg1769
(lp3236
(iconstruction
TP_PHON
p3237
(dp3238
g1779
I4
sg1776
I0
sg585
I267
sg1780
Vkick
p3239
sg68
g3205
sbasg68
g1671
sbsg1787
I1
sba(iconstruction
CXN
p3240
(dp3241
g1729
(iconstruction
TP_SYMLINKS
p3242
(dp3243
g1732
(dp3244
VN1_272
p3245
VS1_274
p3246
ssg585
I270
sg68
g1671
sbsg1738
VV
p3247
sg1740
I1
sg68
VPUNCH
p3248
sg1741
(iconstruction
TP_SEMFRAME
p3249
(dp3250
g98
g0
(g99
g2
Ntp3251
Rp3252
(dp3253
g103
(dp3254
(iconstruction
TP_NODE
p3255
(dp3256
g1750
I01
sg87
g587
sg68
VACT_271
p3257
sg1751
I01
sg1752
I00
sg585
I271
sb(dp3258
g1751
I01
sg87
g587
ss(iconstruction
TP_NODE
p3259
(dp3260
g1750
I00
sg87
g614
sg68
g3245
sg1751
I00
sg1752
I00
sg585
I272
sb(dp3261
g1751
I00
sg87
g614
sssg286
g287
sg288
g287
sg289
(dp3262
g3255
(dp3263
g3259
(dp3264
g87
g734
sssg3259
(dp3265
ssg483
g3262
sg98
(dp3266
sg485
g287
sg486
g3262
sg487
(dp3267
g3255
(dp3268
sg3259
(dp3269
g3255
g3264
sssbsg580
(lp3270
g3255
ag3259
asg853
(lp3271
(iconstruction
TP_REL
p3272
(dp3273
g859
g3259
sg87
g734
sg585
I273
sg860
g3255
sg68
VIS_273
p3274
sbasg585
I268
sg68
g1671
sbsg1766
(iconstruction
TP_SYNFORM
p3275
(dp3276
g585
I269
sg1769
(lp3277
(iconstruction
TP_PHON
p3278
(dp3279
g1779
I5
sg1776
I0
sg585
I274
sg1780
Vpunch
p3280
sg68
g3246
sbasg68
g1671
sbsg1787
I1
sba(iconstruction
CXN
p3281
(dp3282
g1729
(iconstruction
TP_SYMLINKS
p3283
(dp3284
g1732
(dp3285
VN1_279
p3286
VS1_281
p3287
ssg585
I277
sg68
g1671
sbsg1738
VV
p3288
sg1740
I1
sg68
VWEAR
p3289
sg1741
(iconstruction
TP_SEMFRAME
p3290
(dp3291
g98
g0
(g99
g2
Ntp3292
Rp3293
(dp3294
g103
(dp3295
(iconstruction
TP_NODE
p3296
(dp3297
g1750
I00
sg87
g632
sg68
g3286
sg1751
I00
sg1752
I00
sg585
I279
sb(dp3298
g1751
I00
sg87
g632
ss(iconstruction
TP_NODE
p3299
(dp3300
g1750
I01
sg87
g587
sg68
VACT_278
p3301
sg1751
I01
sg1752
I00
sg585
I278
sb(dp3302
g1751
I01
sg87
g587
sssg286
g287
sg288
g287
sg289
(dp3303
g3296
(dp3304
sg3299
(dp3305
g3296
(dp3306
g87
g734
ssssg483
g3303
sg98
(dp3307
sg485
g287
sg486
g3303
sg487
(dp3308
g3296
(dp3309
g3299
g3306
ssg3299
(dp3310
ssbsg580
(lp3311
g3299
ag3296
asg853
(lp3312
(iconstruction
TP_REL
p3313
(dp3314
g859
g3296
sg87
g734
sg585
I280
sg860
g3299
sg68
VIS_280
p3315
sbasg585
I275
sg68
g1671
sbsg1766
(iconstruction
TP_SYNFORM
p3316
(dp3317
g585
I276
sg1769
(lp3318
(iconstruction
TP_PHON
p3319
(dp3320
g1779
I4
sg1776
I0
sg585
I281
sg1780
Vwear
p3321
sg68
g3287
sbasg68
g1671
sbsg1787
I1
sba(iconstruction
CXN
p3322
(dp3323
g1729
(iconstruction
TP_SYMLINKS
p3324
(dp3325
g1732
(dp3326
VN1_286
p3327
VS1_288
p3328
ssg585
I284
sg68
g1671
sbsg1738
VV
p3329
sg1740
I1
sg68
VLAUGH
p3330
sg1741
(iconstruction
TP_SEMFRAME
p3331
(dp3332
g98
g0
(g99
g2
Ntp3333
Rp3334
(dp3335
g103
(dp3336
(iconstruction
TP_NODE
p3337
(dp3338
g1750
I01
sg87
g587
sg68
VACT_285
p3339
sg1751
I01
sg1752
I00
sg585
I285
sb(dp3340
g1751
I01
sg87
g587
ss(iconstruction
TP_NODE
p3341
(dp3342
g1750
I00
sg87
g602
sg68
g3327
sg1751
I00
sg1752
I00
sg585
I286
sb(dp3343
g1751
I00
sg87
g602
sssg286
g287
sg288
g287
sg289
(dp3344
g3337
(dp3345
g3341
(dp3346
g87
g734
sssg3341
(dp3347
ssg483
g3344
sg98
(dp3348
sg485
g287
sg486
g3344
sg487
(dp3349
g3337
(dp3350
sg3341
(dp3351
g3337
g3346
sssbsg580
(lp3352
g3337
ag3341
asg853
(lp3353
(iconstruction
TP_REL
p3354
(dp3355
g859
g3341
sg87
g734
sg585
I287
sg860
g3337
sg68
VIS_287
p3356
sbasg585
I282
sg68
g1671
sbsg1766
(iconstruction
TP_SYNFORM
p3357
(dp3358
g585
I283
sg1769
(lp3359
(iconstruction
TP_PHON
p3360
(dp3361
g1779
I5
sg1776
I0
sg585
I288
sg1780
Vlaugh
p3362
sg68
g3328
sbasg68
g1671
sbsg1787
I1
sba(iconstruction
CXN
p3363
(dp3364
g1729
(iconstruction
TP_SYMLINKS
p3365
(dp3366
g1732
(dp3367
VN1_293
p3368
VS1_295
p3369
ssg585
I291
sg68
g1671
sbsg1738
VV
p3370
sg1740
I1
sg68
VWATCH
p3371
sg1741
(iconstruction
TP_SEMFRAME
p3372
(dp3373
g98
g0
(g99
g2
Ntp3374
Rp3375
(dp3376
g103
(dp3377
(iconstruction
TP_NODE
p3378
(dp3379
g1750
I00
sg87
g611
sg68
g3368
sg1751
I00
sg1752
I00
sg585
I293
sb(dp3380
g1751
I00
sg87
g611
ss(iconstruction
TP_NODE
p3381
(dp3382
g1750
I01
sg87
g587
sg68
VACT_292
p3383
sg1751
I01
sg1752
I00
sg585
I292
sb(dp3384
g1751
I01
sg87
g587
sssg286
g287
sg288
g287
sg289
(dp3385
g3378
(dp3386
sg3381
(dp3387
g3378
(dp3388
g87
g734
ssssg483
g3385
sg98
(dp3389
sg485
g287
sg486
g3385
sg487
(dp3390
g3378
(dp3391
g3381
g3388
ssg3381
(dp3392
ssbsg580
(lp3393
g3381
ag3378
asg853
(lp3394
(iconstruction
TP_REL
p3395
(dp3396
g859
g3378
sg87
g734
sg585
I294
sg860
g3381
sg68
VIS_294
p3397
sbasg585
I289
sg68
g1671
sbsg1766
(iconstruction
TP_SYNFORM
p3398
(dp3399
g585
I290
sg1769
(lp3400
(iconstruction
TP_PHON
p3401
(dp3402
g1779
I5
sg1776
I0
sg585
I295
sg1780
Vwatch
p3403
sg68
g3369
sbasg68
g1671
sbsg1787
I1
sba(iconstruction
CXN
p3404
(dp3405
g1729
(iconstruction
TP_SYMLINKS
p3406
(dp3407
g1732
(dp3408
VN1_300
p3409
VS1_302
p3410
ssg585
I298
sg68
g1671
sbsg1738
VV
p3411
sg1740
I1
sg68
VTALK
p3412
sg1741
(iconstruction
TP_SEMFRAME
p3413
(dp3414
g98
g0
(g99
g2
Ntp3415
Rp3416
(dp3417
g103
(dp3418
(iconstruction
TP_NODE
p3419
(dp3420
g1750
I00
sg87
g620
sg68
g3409
sg1751
I00
sg1752
I00
sg585
I300
sb(dp3421
g1751
I00
sg87
g620
ss(iconstruction
TP_NODE
p3422
(dp3423
g1750
I01
sg87
g587
sg68
VACT_299
p3424
sg1751
I01
sg1752
I00
sg585
I299
sb(dp3425
g1751
I01
sg87
g587
sssg286
g287
sg288
g287
sg289
(dp3426
g3419
(dp3427
sg3422
(dp3428
g3419
(dp3429
g87
g734
ssssg483
g3426
sg98
(dp3430
sg485
g287
sg486
g3426
sg487
(dp3431
g3419
(dp3432
g3422
g3429
ssg3422
(dp3433
ssbsg580
(lp3434
g3422
ag3419
asg853
(lp3435
(iconstruction
TP_REL
p3436
(dp3437
g859
g3419
sg87
g734
sg585
I301
sg860
g3422
sg68
VIS_301
p3438
sbasg585
I296
sg68
g1671
sbsg1766
(iconstruction
TP_SYNFORM
p3439
(dp3440
g585
I297
sg1769
(lp3441
(iconstruction
TP_PHON
p3442
(dp3443
g1779
I4
sg1776
I0
sg585
I302
sg1780
Vtalk
p3444
sg68
g3410
sba(iconstruction
TP_PHON
p3445
(dp3446
g1779
I2
sg1776
I1
sg585
I303
sg1780
Vto
p3447
sg68
VS2_303
p3448
sbasg68
g1671
sbsg1787
I1
sba(iconstruction
CXN
p3449
(dp3450
g1729
(iconstruction
TP_SYMLINKS
p3451
(dp3452
g1732
(dp3453
VN1_308
p3454
VS1_310
p3455
ssg585
I306
sg68
g1671
sbsg1738
VV
p3456
sg1740
I1
sg68
VSQUIRT
p3457
sg1741
(iconstruction
TP_SEMFRAME
p3458
(dp3459
g98
g0
(g99
g2
Ntp3460
Rp3461
(dp3462
g103
(dp3463
(iconstruction
TP_NODE
p3464
(dp3465
g1750
I00
sg87
g626
sg68
g3454
sg1751
I00
sg1752
I00
sg585
I308
sb(dp3466
g1751
I00
sg87
g626
ss(iconstruction
TP_NODE
p3467
(dp3468
g1750
I01
sg87
g587
sg68
VACT_307
p3469
sg1751
I01
sg1752
I00
sg585
I307
sb(dp3470
g1751
I01
sg87
g587
sssg286
g287
sg288
g287
sg289
(dp3471
g3464
(dp3472
sg3467
(dp3473
g3464
(dp3474
g87
g734
ssssg483
g3471
sg98
(dp3475
sg485
g287
sg486
g3471
sg487
(dp3476
g3464
(dp3477
g3467
g3474
ssg3467
(dp3478
ssbsg580
(lp3479
g3467
ag3464
asg853
(lp3480
(iconstruction
TP_REL
p3481
(dp3482
g859
g3464
sg87
g734
sg585
I309
sg860
g3467
sg68
VIS_309
p3483
sbasg585
I304
sg68
g1671
sbsg1766
(iconstruction
TP_SYNFORM
p3484
(dp3485
g585
I305
sg1769
(lp3486
(iconstruction
TP_PHON
p3487
(dp3488
g1779
I6
sg1776
I0
sg585
I310
sg1780
Vsquirt
p3489
sg68
g3455
sba(iconstruction
TP_PHON
p3490
(dp3491
g1779
I2
sg1776
I1
sg585
I311
sg1780
Vat
p3492
sg68
VS2_311
p3493
sbasg68
g1671
sbsg1787
I1
sba(iconstruction
CXN
p3494
(dp3495
g1729
(iconstruction
TP_SYMLINKS
p3496
(dp3497
g1732
(dp3498
VN1_316
p3499
VS1_318
p3500
ssg585
I314
sg68
g1671
sbsg1738
VV
p3501
sg1740
I1
sg68
VSPLASH
p3502
sg1741
(iconstruction
TP_SEMFRAME
p3503
(dp3504
g98
g0
(g99
g2
Ntp3505
Rp3506
(dp3507
g103
(dp3508
(iconstruction
TP_NODE
p3509
(dp3510
g1750
I00
sg87
g617
sg68
g3499
sg1751
I00
sg1752
I00
sg585
I316
sb(dp3511
g1751
I00
sg87
g617
ss(iconstruction
TP_NODE
p3512
(dp3513
g1750
I01
sg87
g587
sg68
VACT_315
p3514
sg1751
I01
sg1752
I00
sg585
I315
sb(dp3515
g1751
I01
sg87
g587
sssg286
g287
sg288
g287
sg289
(dp3516
g3509
(dp3517
sg3512
(dp3518
g3509
(dp3519
g87
g734
ssssg483
g3516
sg98
(dp3520
sg485
g287
sg486
g3516
sg487
(dp3521
g3509
(dp3522
g3512
g3519
ssg3512
(dp3523
ssbsg580
(lp3524
g3512
ag3509
asg853
(lp3525
(iconstruction
TP_REL
p3526
(dp3527
g859
g3509
sg87
g734
sg585
I317
sg860
g3512
sg68
VIS_317
p3528
sbasg585
I312
sg68
g1671
sbsg1766
(iconstruction
TP_SYNFORM
p3529
(dp3530
g585
I313
sg1769
(lp3531
(iconstruction
TP_PHON
p3532
(dp3533
g1779
I6
sg1776
I0
sg585
I318
sg1780
Vsplash
p3534
sg68
g3500
sbasg68
g1671
sbsg1787
I1
sba(iconstruction
CXN
p3535
(dp3536
g1729
(iconstruction
TP_SYMLINKS
p3537
(dp3538
g1732
(dp3539
VN1_323
p3540
VS1_325
p3541
ssg585
I321
sg68
g1671
sbsg1738
VV
p3542
sg1740
I1
sg68
VGIVE
p3543
sg1741
(iconstruction
TP_SEMFRAME
p3544
(dp3545
g98
g0
(g99
g2
Ntp3546
Rp3547
(dp3548
g103
(dp3549
(iconstruction
TP_NODE
p3550
(dp3551
g1750
I01
sg87
g587
sg68
VACT_322
p3552
sg1751
I01
sg1752
I00
sg585
I322
sb(dp3553
g1751
I01
sg87
g587
ss(iconstruction
TP_NODE
p3554
(dp3555
g1750
I00
sg87
g641
sg68
g3540
sg1751
I00
sg1752
I00
sg585
I323
sb(dp3556
g1751
I00
sg87
g641
sssg286
g287
sg288
g287
sg289
(dp3557
g3550
(dp3558
g3554
(dp3559
g87
g734
sssg3554
(dp3560
ssg483
g3557
sg98
(dp3561
sg485
g287
sg486
g3557
sg487
(dp3562
g3550
(dp3563
sg3554
(dp3564
g3550
g3559
sssbsg580
(lp3565
g3550
ag3554
asg853
(lp3566
(iconstruction
TP_REL
p3567
(dp3568
g859
g3554
sg87
g734
sg585
I324
sg860
g3550
sg68
VIS_324
p3569
sbasg585
I319
sg68
g1671
sbsg1766
(iconstruction
TP_SYNFORM
p3570
(dp3571
g585
I320
sg1769
(lp3572
(iconstruction
TP_PHON
p3573
(dp3574
g1779
I4
sg1776
I0
sg585
I325
sg1780
Vgive
p3575
sg68
g3541
sbasg68
g1671
sbsg1787
I1
sba(iconstruction
CXN
p3576
(dp3577
g1729
(iconstruction
TP_SYMLINKS
p3578
(dp3579
g1732
(dp3580
VN1_330
p3581
VS1_332
p3582
ssg585
I328
sg68
g1671
sbsg1738
VV
p3583
sg1740
I1
sg68
VSEND
p3584
sg1741
(iconstruction
TP_SEMFRAME
p3585
(dp3586
g98
g0
(g99
g2
Ntp3587
Rp3588
(dp3589
g103
(dp3590
(iconstruction
TP_NODE
p3591
(dp3592
g1750
I00
sg87
g638
sg68
g3581
sg1751
I00
sg1752
I00
sg585
I330
sb(dp3593
g1751
I00
sg87
g638
ss(iconstruction
TP_NODE
p3594
(dp3595
g1750
I01
sg87
g587
sg68
VACT_329
p3596
sg1751
I01
sg1752
I00
sg585
I329
sb(dp3597
g1751
I01
sg87
g587
sssg286
g287
sg288
g287
sg289
(dp3598
g3591
(dp3599
sg3594
(dp3600
g3591
(dp3601
g87
g734
ssssg483
g3598
sg98
(dp3602
sg485
g287
sg486
g3598
sg487
(dp3603
g3591
(dp3604
g3594
g3601
ssg3594
(dp3605
ssbsg580
(lp3606
g3594
ag3591
asg853
(lp3607
(iconstruction
TP_REL
p3608
(dp3609
g859
g3591
sg87
g734
sg585
I331
sg860
g3594
sg68
VIS_331
p3610
sbasg585
I326
sg68
g1671
sbsg1766
(iconstruction
TP_SYNFORM
p3611
(dp3612
g585
I327
sg1769
(lp3613
(iconstruction
TP_PHON
p3614
(dp3615
g1779
I4
sg1776
I0
sg585
I332
sg1780
Vsend
p3616
sg68
g3582
sbasg68
g1671
sbsg1787
I1
sba(iconstruction
CXN
p3617
(dp3618
g1729
(iconstruction
TP_SYMLINKS
p3619
(dp3620
g1732
(dp3621
VN1_337
p3622
VS1_339
p3623
ssg585
I335
sg68
g1671
sbsg1738
VV
p3624
sg1740
I1
sg68
VMEET
p3625
sg1741
(iconstruction
TP_SEMFRAME
p3626
(dp3627
g98
g0
(g99
g2
Ntp3628
Rp3629
(dp3630
g103
(dp3631
(iconstruction
TP_NODE
p3632
(dp3633
g1750
I01
sg87
g587
sg68
VACT_336
p3634
sg1751
I01
sg1752
I00
sg585
I336
sb(dp3635
g1751
I01
sg87
g587
ss(iconstruction
TP_NODE
p3636
(dp3637
g1750
I00
sg87
g593
sg68
g3622
sg1751
I00
sg1752
I00
sg585
I337
sb(dp3638
g1751
I00
sg87
g593
sssg286
g287
sg288
g287
sg289
(dp3639
g3632
(dp3640
g3636
(dp3641
g87
g734
sssg3636
(dp3642
ssg483
g3639
sg98
(dp3643
sg485
g287
sg486
g3639
sg487
(dp3644
g3632
(dp3645
sg3636
(dp3646
g3632
g3641
sssbsg580
(lp3647
g3632
ag3636
asg853
(lp3648
(iconstruction
TP_REL
p3649
(dp3650
g859
g3636
sg87
g734
sg585
I338
sg860
g3632
sg68
VIS_338
p3651
sbasg585
I333
sg68
g1671
sbsg1766
(iconstruction
TP_SYNFORM
p3652
(dp3653
g585
I334
sg1769
(lp3654
(iconstruction
TP_PHON
p3655
(dp3656
g1779
I4
sg1776
I0
sg585
I339
sg1780
Vmeet
p3657
sg68
g3623
sbasg68
g1671
sbsg1787
I1
sba(iconstruction
CXN
p3658
(dp3659
g1729
(iconstruction
TP_SYMLINKS
p3660
(dp3661
g1732
(dp3662
VN1_344
p3663
VS1_346
p3664
ssg585
I342
sg68
g1671
sbsg1738
VV
p3665
sg1740
I1
sg68
VKISS
p3666
sg1741
(iconstruction
TP_SEMFRAME
p3667
(dp3668
g98
g0
(g99
g2
Ntp3669
Rp3670
(dp3671
g103
(dp3672
(iconstruction
TP_NODE
p3673
(dp3674
g1750
I01
sg87
g587
sg68
VACT_343
p3675
sg1751
I01
sg1752
I00
sg585
I343
sb(dp3676
g1751
I01
sg87
g587
ss(iconstruction
TP_NODE
p3677
(dp3678
g1750
I00
sg87
g623
sg68
g3663
sg1751
I00
sg1752
I00
sg585
I344
sb(dp3679
g1751
I00
sg87
g623
sssg286
g287
sg288
g287
sg289
(dp3680
g3673
(dp3681
g3677
(dp3682
g87
g734
sssg3677
(dp3683
ssg483
g3680
sg98
(dp3684
sg485
g287
sg486
g3680
sg487
(dp3685
g3673
(dp3686
sg3677
(dp3687
g3673
g3682
sssbsg580
(lp3688
g3673
ag3677
asg853
(lp3689
(iconstruction
TP_REL
p3690
(dp3691
g859
g3677
sg87
g734
sg585
I345
sg860
g3673
sg68
VIS_345
p3692
sbasg585
I340
sg68
g1671
sbsg1766
(iconstruction
TP_SYNFORM
p3693
(dp3694
g585
I341
sg1769
(lp3695
(iconstruction
TP_PHON
p3696
(dp3697
g1779
I4
sg1776
I0
sg585
I346
sg1780
Vkiss
p3698
sg68
g3664
sbasg68
g1671
sbsg1787
I1
sba(iconstruction
CXN
p3699
(dp3700
g1729
(iconstruction
TP_SYMLINKS
p3701
(dp3702
g1732
(dp3703
VN1_351
p3704
VS1_353
p3705
ssg585
I349
sg68
g1671
sbsg1738
VV
p3706
sg1740
I1
sg68
VSHAKE_HANDS
p3707
sg1741
(iconstruction
TP_SEMFRAME
p3708
(dp3709
g98
g0
(g99
g2
Ntp3710
Rp3711
(dp3712
g103
(dp3713
(iconstruction
TP_NODE
p3714
(dp3715
g1750
I00
sg87
g596
sg68
g3704
sg1751
I00
sg1752
I00
sg585
I351
sb(dp3716
g1751
I00
sg87
g596
ss(iconstruction
TP_NODE
p3717
(dp3718
g1750
I01
sg87
g587
sg68
VACT_350
p3719
sg1751
I01
sg1752
I00
sg585
I350
sb(dp3720
g1751
I01
sg87
g587
sssg286
g287
sg288
g287
sg289
(dp3721
g3714
(dp3722
sg3717
(dp3723
g3714
(dp3724
g87
g734
ssssg483
g3721
sg98
(dp3725
sg485
g287
sg486
g3721
sg487
(dp3726
g3714
(dp3727
g3717
g3724
ssg3717
(dp3728
ssbsg580
(lp3729
g3717
ag3714
asg853
(lp3730
(iconstruction
TP_REL
p3731
(dp3732
g859
g3714
sg87
g734
sg585
I352
sg860
g3717
sg68
VIS_352
p3733
sbasg585
I347
sg68
g1671
sbsg1766
(iconstruction
TP_SYNFORM
p3734
(dp3735
g585
I348
sg1769
(lp3736
(iconstruction
TP_PHON
p3737
(dp3738
g1779
I10
sg1776
I0
sg585
I353
sg1780
Vshake hands
p3739
sg68
g3705
sbasg68
g1671
sbsg1787
I1
sba(iconstruction
CXN
p3740
(dp3741
g1729
(iconstruction
TP_SYMLINKS
p3742
(dp3743
g1732
(dp3744
VN1_357
p3745
VS1_358
p3746
ssg585
I356
sg68
g1671
sbsg1738
VA
p3747
sg1740
I1
sg68
VBLUE
p3748
sg1741
(iconstruction
TP_SEMFRAME
p3749
(dp3750
g98
g0
(g99
g2
Ntp3751
Rp3752
(dp3753
g103
(dp3754
(iconstruction
TP_NODE
p3755
(dp3756
g1750
I01
sg87
g650
sg68
g3745
sg1751
I00
sg1752
I00
sg585
I357
sb(dp3757
g1751
I00
sg87
g650
sssg286
g287
sg288
g287
sg289
(dp3758
g3755
(dp3759
ssg483
g3758
sg98
(dp3760
sg485
g287
sg486
g3758
sg487
(dp3761
g3755
(dp3762
ssbsg580
(lp3763
g3755
asg853
(lp3764
sg585
I354
sg68
g1671
sbsg1766
(iconstruction
TP_SYNFORM
p3765
(dp3766
g585
I355
sg1769
(lp3767
(iconstruction
TP_PHON
p3768
(dp3769
g1779
I4
sg1776
I0
sg585
I358
sg1780
Vblue
p3770
sg68
g3746
sbasg68
g1671
sbsg1787
I1
sba(iconstruction
CXN
p3771
(dp3772
g1729
(iconstruction
TP_SYMLINKS
p3773
(dp3774
g1732
(dp3775
VN1_362
p3776
VS1_363
p3777
ssg585
I361
sg68
g1671
sbsg1738
VA
p3778
sg1740
I1
sg68
VBLACK
p3779
sg1741
(iconstruction
TP_SEMFRAME
p3780
(dp3781
g98
g0
(g99
g2
Ntp3782
Rp3783
(dp3784
g103
(dp3785
(iconstruction
TP_NODE
p3786
(dp3787
g1750
I01
sg87
g659
sg68
g3776
sg1751
I00
sg1752
I00
sg585
I362
sb(dp3788
g1751
I00
sg87
g659
sssg286
g287
sg288
g287
sg289
(dp3789
g3786
(dp3790
ssg483
g3789
sg98
(dp3791
sg485
g287
sg486
g3789
sg487
(dp3792
g3786
(dp3793
ssbsg580
(lp3794
g3786
asg853
(lp3795
sg585
I359
sg68
g1671
sbsg1766
(iconstruction
TP_SYNFORM
p3796
(dp3797
g585
I360
sg1769
(lp3798
(iconstruction
TP_PHON
p3799
(dp3800
g1779
I5
sg1776
I0
sg585
I363
sg1780
Vblack
p3801
sg68
g3777
sbasg68
g1671
sbsg1787
I1
sba(iconstruction
CXN
p3802
(dp3803
g1729
(iconstruction
TP_SYMLINKS
p3804
(dp3805
g1732
(dp3806
VN1_367
p3807
VS1_368
p3808
ssg585
I366
sg68
g1671
sbsg1738
VA
p3809
sg1740
I1
sg68
VGREEN
p3810
sg1741
(iconstruction
TP_SEMFRAME
p3811
(dp3812
g98
g0
(g99
g2
Ntp3813
Rp3814
(dp3815
g103
(dp3816
(iconstruction
TP_NODE
p3817
(dp3818
g1750
I01
sg87
g653
sg68
g3807
sg1751
I00
sg1752
I00
sg585
I367
sb(dp3819
g1751
I00
sg87
g653
sssg286
g287
sg288
g287
sg289
(dp3820
g3817
(dp3821
ssg483
g3820
sg98
(dp3822
sg485
g287
sg486
g3820
sg487
(dp3823
g3817
(dp3824
ssbsg580
(lp3825
g3817
asg853
(lp3826
sg585
I364
sg68
g1671
sbsg1766
(iconstruction
TP_SYNFORM
p3827
(dp3828
g585
I365
sg1769
(lp3829
(iconstruction
TP_PHON
p3830
(dp3831
g1779
I5
sg1776
I0
sg585
I368
sg1780
Vgreen
p3832
sg68
g3808
sbasg68
g1671
sbsg1787
I1
sba(iconstruction
CXN
p3833
(dp3834
g1729
(iconstruction
TP_SYMLINKS
p3835
(dp3836
g1732
(dp3837
VN1_372
p3838
VS1_373
p3839
ssg585
I371
sg68
g1671
sbsg1738
VA
p3840
sg1740
I1
sg68
VSMALL
p3841
sg1741
(iconstruction
TP_SEMFRAME
p3842
(dp3843
g98
g0
(g99
g2
Ntp3844
Rp3845
(dp3846
g103
(dp3847
(iconstruction
TP_NODE
p3848
(dp3849
g1750
I01
sg87
g680
sg68
g3838
sg1751
I00
sg1752
I00
sg585
I372
sb(dp3850
g1751
I00
sg87
g680
sssg286
g287
sg288
g287
sg289
(dp3851
g3848
(dp3852
ssg483
g3851
sg98
(dp3853
sg485
g287
sg486
g3851
sg487
(dp3854
g3848
(dp3855
ssbsg580
(lp3856
g3848
asg853
(lp3857
sg585
I369
sg68
g1671
sbsg1766
(iconstruction
TP_SYNFORM
p3858
(dp3859
g585
I370
sg1769
(lp3860
(iconstruction
TP_PHON
p3861
(dp3862
g1779
I5
sg1776
I0
sg585
I373
sg1780
Vsmall
p3863
sg68
g3839
sbasg68
g1671
sbsg1787
I1
sba(iconstruction
CXN
p3864
(dp3865
g1729
(iconstruction
TP_SYMLINKS
p3866
(dp3867
g1732
(dp3868
VN1_377
p3869
VS1_378
p3870
ssg585
I376
sg68
g1671
sbsg1738
VA
p3871
sg1740
I1
sg68
VBIG
p3872
sg1741
(iconstruction
TP_SEMFRAME
p3873
(dp3874
g98
g0
(g99
g2
Ntp3875
Rp3876
(dp3877
g103
(dp3878
(iconstruction
TP_NODE
p3879
(dp3880
g1750
I01
sg87
g683
sg68
g3869
sg1751
I00
sg1752
I00
sg585
I377
sb(dp3881
g1751
I00
sg87
g683
sssg286
g287
sg288
g287
sg289
(dp3882
g3879
(dp3883
ssg483
g3882
sg98
(dp3884
sg485
g287
sg486
g3882
sg487
(dp3885
g3879
(dp3886
ssbsg580
(lp3887
g3879
asg853
(lp3888
sg585
I374
sg68
g1671
sbsg1766
(iconstruction
TP_SYNFORM
p3889
(dp3890
g585
I375
sg1769
(lp3891
(iconstruction
TP_PHON
p3892
(dp3893
g1779
I3
sg1776
I0
sg585
I378
sg1780
Vbig
p3894
sg68
g3870
sbasg68
g1671
sbsg1787
I1
sba(iconstruction
CXN
p3895
(dp3896
g1729
(iconstruction
TP_SYMLINKS
p3897
(dp3898
g1732
(dp3899
VN1_382
p3900
VS1_383
p3901
ssg585
I381
sg68
g1671
sbsg1738
VA
p3902
sg1740
I1
sg68
VHANDSOME
p3903
sg1741
(iconstruction
TP_SEMFRAME
p3904
(dp3905
g98
g0
(g99
g2
Ntp3906
Rp3907
(dp3908
g103
(dp3909
(iconstruction
TP_NODE
p3910
(dp3911
g1750
I01
sg87
g674
sg68
g3900
sg1751
I00
sg1752
I00
sg585
I382
sb(dp3912
g1751
I00
sg87
g674
sssg286
g287
sg288
g287
sg289
(dp3913
g3910
(dp3914
ssg483
g3913
sg98
(dp3915
sg485
g287
sg486
g3913
sg487
(dp3916
g3910
(dp3917
ssbsg580
(lp3918
g3910
asg853
(lp3919
sg585
I379
sg68
g1671
sbsg1766
(iconstruction
TP_SYNFORM
p3920
(dp3921
g585
I380
sg1769
(lp3922
(iconstruction
TP_PHON
p3923
(dp3924
g1779
I8
sg1776
I0
sg585
I383
sg1780
Vhandsome
p3925
sg68
g3901
sbasg68
g1671
sbsg1787
I1
sba(iconstruction
CXN
p3926
(dp3927
g1729
(iconstruction
TP_SYMLINKS
p3928
(dp3929
g1732
(dp3930
VN1_387
p3931
VS1_388
p3932
ssg585
I386
sg68
g1671
sbsg1738
VA
p3933
sg1740
I1
sg68
VPRETTY
p3934
sg1741
(iconstruction
TP_SEMFRAME
p3935
(dp3936
g98
g0
(g99
g2
Ntp3937
Rp3938
(dp3939
g103
(dp3940
(iconstruction
TP_NODE
p3941
(dp3942
g1750
I01
sg87
g671
sg68
g3931
sg1751
I00
sg1752
I00
sg585
I387
sb(dp3943
g1751
I00
sg87
g671
sssg286
g287
sg288
g287
sg289
(dp3944
g3941
(dp3945
ssg483
g3944
sg98
(dp3946
sg485
g287
sg486
g3944
sg487
(dp3947
g3941
(dp3948
ssbsg580
(lp3949
g3941
asg853
(lp3950
sg585
I384
sg68
g1671
sbsg1766
(iconstruction
TP_SYNFORM
p3951
(dp3952
g585
I385
sg1769
(lp3953
(iconstruction
TP_PHON
p3954
(dp3955
g1779
I6
sg1776
I0
sg585
I388
sg1780
Vpretty
p3956
sg68
g3932
sbasg68
g1671
sbsg1787
I1
sba(iconstruction
CXN
p3957
(dp3958
g1729
(iconstruction
TP_SYMLINKS
p3959
(dp3960
g1732
(dp3961
VN1_392
p3962
VS1_393
p3963
ssg585
I391
sg68
g1671
sbsg1738
VA
p3964
sg1740
I1
sg68
VYOUNG
p3965
sg1741
(iconstruction
TP_SEMFRAME
p3966
(dp3967
g98
g0
(g99
g2
Ntp3968
Rp3969
(dp3970
g103
(dp3971
(iconstruction
TP_NODE
p3972
(dp3973
g1750
I01
sg87
g668
sg68
g3962
sg1751
I00
sg1752
I00
sg585
I392
sb(dp3974
g1751
I00
sg87
g668
sssg286
g287
sg288
g287
sg289
(dp3975
g3972
(dp3976
ssg483
g3975
sg98
(dp3977
sg485
g287
sg486
g3975
sg487
(dp3978
g3972
(dp3979
ssbsg580
(lp3980
g3972
asg853
(lp3981
sg585
I389
sg68
g1671
sbsg1766
(iconstruction
TP_SYNFORM
p3982
(dp3983
g585
I390
sg1769
(lp3984
(iconstruction
TP_PHON
p3985
(dp3986
g1779
I5
sg1776
I0
sg585
I393
sg1780
Vyoung
p3987
sg68
g3963
sbasg68
g1671
sbsg1787
I1
sba(iconstruction
CXN
p3988
(dp3989
g1729
(iconstruction
TP_SYMLINKS
p3990
(dp3991
g1732
(dp3992
VN1_398
p3993
VS1_400
p3994
ssg585
I396
sg68
g1671
sbsg1738
VN
p3995
sg1740
I1
sg68
VWOMAN
p3996
sg1741
(iconstruction
TP_SEMFRAME
p3997
(dp3998
g98
g0
(g99
g2
Ntp3999
Rp4000
(dp4001
g103
(dp4002
(iconstruction
TP_NODE
p4003
(dp4004
g1750
I00
sg87
g809
sg68
g3993
sg1751
I00
sg1752
I00
sg585
I398
sb(dp4005
g1751
I00
sg87
g809
ss(iconstruction
TP_NODE
p4006
(dp4007
g1750
I01
sg87
g743
sg68
VENT_397
p4008
sg1751
I01
sg1752
I00
sg585
I397
sb(dp4009
g1751
I01
sg87
g743
sssg286
g287
sg288
g287
sg289
(dp4010
g4003
(dp4011
sg4006
(dp4012
g4003
(dp4013
g87
g734
ssssg483
g4010
sg98
(dp4014
sg485
g287
sg486
g4010
sg487
(dp4015
g4003
(dp4016
g4006
g4013
ssg4006
(dp4017
ssbsg580
(lp4018
g4006
ag4003
asg853
(lp4019
(iconstruction
TP_REL
p4020
(dp4021
g859
g4003
sg87
g734
sg585
I399
sg860
g4006
sg68
VIS_399
p4022
sbasg585
I394
sg68
g1671
sbsg1766
(iconstruction
TP_SYNFORM
p4023
(dp4024
g585
I395
sg1769
(lp4025
(iconstruction
TP_PHON
p4026
(dp4027
g1779
I5
sg1776
I0
sg585
I400
sg1780
Vwoman
p4028
sg68
g3994
sbasg68
g1671
sbsg1787
I1
sba(iconstruction
CXN
p4029
(dp4030
g1729
(iconstruction
TP_SYMLINKS
p4031
(dp4032
g1732
(dp4033
VN1_405
p4034
VS1_407
p4035
ssg585
I403
sg68
g1671
sbsg1738
VN
p4036
sg1740
I1
sg68
VWOMAN2
p4037
sg1741
(iconstruction
TP_SEMFRAME
p4038
(dp4039
g98
g0
(g99
g2
Ntp4040
Rp4041
(dp4042
g103
(dp4043
(iconstruction
TP_NODE
p4044
(dp4045
g1750
I01
sg87
g743
sg68
VENT_404
p4046
sg1751
I01
sg1752
I00
sg585
I404
sb(dp4047
g1751
I01
sg87
g743
ss(iconstruction
TP_NODE
p4048
(dp4049
g1750
I00
sg87
g809
sg68
g4034
sg1751
I00
sg1752
I00
sg585
I405
sb(dp4050
g1751
I00
sg87
g809
sssg286
g287
sg288
g287
sg289
(dp4051
g4044
(dp4052
g4048
(dp4053
g87
g734
sssg4048
(dp4054
ssg483
g4051
sg98
(dp4055
sg485
g287
sg486
g4051
sg487
(dp4056
g4044
(dp4057
sg4048
(dp4058
g4044
g4053
sssbsg580
(lp4059
g4044
ag4048
asg853
(lp4060
(iconstruction
TP_REL
p4061
(dp4062
g859
g4048
sg87
g734
sg585
I406
sg860
g4044
sg68
VIS_406
p4063
sbasg585
I401
sg68
g1671
sbsg1766
(iconstruction
TP_SYNFORM
p4064
(dp4065
g585
I402
sg1769
(lp4066
(iconstruction
TP_PHON
p4067
(dp4068
g1779
I4
sg1776
I0
sg585
I407
sg1780
Vlady
p4069
sg68
g4035
sbasg68
g1671
sbsg1787
I1
sba(iconstruction
CXN
p4070
(dp4071
g1729
(iconstruction
TP_SYMLINKS
p4072
(dp4073
g1732
(dp4074
VN1_412
p4075
VS1_414
p4076
ssg585
I410
sg68
g1671
sbsg1738
VN
p4077
sg1740
I1
sg68
VMAN
p4078
sg1741
(iconstruction
TP_SEMFRAME
p4079
(dp4080
g98
g0
(g99
g2
Ntp4081
Rp4082
(dp4083
g103
(dp4084
(iconstruction
TP_NODE
p4085
(dp4086
g1750
I00
sg87
g836
sg68
g4075
sg1751
I00
sg1752
I00
sg585
I412
sb(dp4087
g1751
I00
sg87
g836
ss(iconstruction
TP_NODE
p4088
(dp4089
g1750
I01
sg87
g743
sg68
VENT_411
p4090
sg1751
I01
sg1752
I00
sg585
I411
sb(dp4091
g1751
I01
sg87
g743
sssg286
g287
sg288
g287
sg289
(dp4092
g4085
(dp4093
sg4088
(dp4094
g4085
(dp4095
g87
g734
ssssg483
g4092
sg98
(dp4096
sg485
g287
sg486
g4092
sg487
(dp4097
g4085
(dp4098
g4088
g4095
ssg4088
(dp4099
ssbsg580
(lp4100
g4088
ag4085
asg853
(lp4101
(iconstruction
TP_REL
p4102
(dp4103
g859
g4085
sg87
g734
sg585
I413
sg860
g4088
sg68
VIS_413
p4104
sbasg585
I408
sg68
g1671
sbsg1766
(iconstruction
TP_SYNFORM
p4105
(dp4106
g585
I409
sg1769
(lp4107
(iconstruction
TP_PHON
p4108
(dp4109
g1779
I3
sg1776
I0
sg585
I414
sg1780
Vman
p4110
sg68
g4076
sbasg68
g1671
sbsg1787
I1
sba(iconstruction
CXN
p4111
(dp4112
g1729
(iconstruction
TP_SYMLINKS
p4113
(dp4114
g1732
(dp4115
VN1_419
p4116
VS1_421
p4117
ssg585
I417
sg68
g1671
sbsg1738
VN
p4118
sg1740
I1
sg68
VGIRL
p4119
sg1741
(iconstruction
TP_SEMFRAME
p4120
(dp4121
g98
g0
(g99
g2
Ntp4122
Rp4123
(dp4124
g103
(dp4125
(iconstruction
TP_NODE
p4126
(dp4127
g1750
I00
sg87
g827
sg68
g4116
sg1751
I00
sg1752
I00
sg585
I419
sb(dp4128
g1751
I00
sg87
g827
ss(iconstruction
TP_NODE
p4129
(dp4130
g1750
I01
sg87
g743
sg68
VENT_418
p4131
sg1751
I01
sg1752
I00
sg585
I418
sb(dp4132
g1751
I01
sg87
g743
sssg286
g287
sg288
g287
sg289
(dp4133
g4126
(dp4134
sg4129
(dp4135
g4126
(dp4136
g87
g734
ssssg483
g4133
sg98
(dp4137
sg485
g287
sg486
g4133
sg487
(dp4138
g4126
(dp4139
g4129
g4136
ssg4129
(dp4140
ssbsg580
(lp4141
g4129
ag4126
asg853
(lp4142
(iconstruction
TP_REL
p4143
(dp4144
g859
g4126
sg87
g734
sg585
I420
sg860
g4129
sg68
VIS_420
p4145
sbasg585
I415
sg68
g1671
sbsg1766
(iconstruction
TP_SYNFORM
p4146
(dp4147
g585
I416
sg1769
(lp4148
(iconstruction
TP_PHON
p4149
(dp4150
g1779
I4
sg1776
I0
sg585
I421
sg1780
Vgirl
p4151
sg68
g4117
sbasg68
g1671
sbsg1787
I1
sba(iconstruction
CXN
p4152
(dp4153
g1729
(iconstruction
TP_SYMLINKS
p4154
(dp4155
g1732
(dp4156
VN1_426
p4157
VS1_428
p4158
ssg585
I424
sg68
g1671
sbsg1738
VN
p4159
sg1740
I1
sg68
VBOY
p4160
sg1741
(iconstruction
TP_SEMFRAME
p4161
(dp4162
g98
g0
(g99
g2
Ntp4163
Rp4164
(dp4165
g103
(dp4166
(iconstruction
TP_NODE
p4167
(dp4168
g1750
I01
sg87
g743
sg68
VENT_425
p4169
sg1751
I01
sg1752
I00
sg585
I425
sb(dp4170
g1751
I01
sg87
g743
ss(iconstruction
TP_NODE
p4171
(dp4172
g1750
I00
sg87
g806
sg68
g4157
sg1751
I00
sg1752
I00
sg585
I426
sb(dp4173
g1751
I00
sg87
g806
sssg286
g287
sg288
g287
sg289
(dp4174
g4167
(dp4175
g4171
(dp4176
g87
g734
sssg4171
(dp4177
ssg483
g4174
sg98
(dp4178
sg485
g287
sg486
g4174
sg487
(dp4179
g4167
(dp4180
sg4171
(dp4181
g4167
g4176
sssbsg580
(lp4182
g4167
ag4171
asg853
(lp4183
(iconstruction
TP_REL
p4184
(dp4185
g859
g4171
sg87
g734
sg585
I427
sg860
g4167
sg68
VIS_427
p4186
sbasg585
I422
sg68
g1671
sbsg1766
(iconstruction
TP_SYNFORM
p4187
(dp4188
g585
I423
sg1769
(lp4189
(iconstruction
TP_PHON
p4190
(dp4191
g1779
I3
sg1776
I0
sg585
I428
sg1780
Vboy
p4192
sg68
g4158
sbasg68
g1671
sbsg1787
I1
sba(iconstruction
CXN
p4193
(dp4194
g1729
(iconstruction
TP_SYMLINKS
p4195
(dp4196
g1732
(dp4197
VN1_433
p4198
VS1_435
p4199
ssg585
I431
sg68
g1671
sbsg1738
VN
p4200
sg1740
I1
sg68
VPEOPLE
p4201
sg1741
(iconstruction
TP_SEMFRAME
p4202
(dp4203
g98
g0
(g99
g2
Ntp4204
Rp4205
(dp4206
g103
(dp4207
(iconstruction
TP_NODE
p4208
(dp4209
g1750
I00
sg87
g812
sg68
g4198
sg1751
I00
sg1752
I00
sg585
I433
sb(dp4210
g1751
I00
sg87
g812
ss(iconstruction
TP_NODE
p4211
(dp4212
g1750
I01
sg87
g743
sg68
VENT_432
p4213
sg1751
I01
sg1752
I00
sg585
I432
sb(dp4214
g1751
I01
sg87
g743
sssg286
g287
sg288
g287
sg289
(dp4215
g4208
(dp4216
sg4211
(dp4217
g4208
(dp4218
g87
g734
ssssg483
g4215
sg98
(dp4219
sg485
g287
sg486
g4215
sg487
(dp4220
g4208
(dp4221
g4211
g4218
ssg4211
(dp4222
ssbsg580
(lp4223
g4211
ag4208
asg853
(lp4224
(iconstruction
TP_REL
p4225
(dp4226
g859
g4208
sg87
g734
sg585
I434
sg860
g4211
sg68
VIS_434
p4227
sbasg585
I429
sg68
g1671
sbsg1766
(iconstruction
TP_SYNFORM
p4228
(dp4229
g585
I430
sg1769
(lp4230
(iconstruction
TP_PHON
p4231
(dp4232
g1779
I6
sg1776
I0
sg585
I435
sg1780
Vpeople
p4233
sg68
g4199
sbasg68
g1671
sbsg1787
I1
sba(iconstruction
CXN
p4234
(dp4235
g1729
(iconstruction
TP_SYMLINKS
p4236
(dp4237
g1732
(dp4238
VN1_440
p4239
VS1_442
p4240
ssg585
I438
sg68
g1671
sbsg1738
VN
p4241
sg1740
I1
sg68
VMOUSE
p4242
sg1741
(iconstruction
TP_SEMFRAME
p4243
(dp4244
g98
g0
(g99
g2
Ntp4245
Rp4246
(dp4247
g103
(dp4248
(iconstruction
TP_NODE
p4249
(dp4250
g1750
I01
sg87
g743
sg68
VENT_439
p4251
sg1751
I01
sg1752
I00
sg585
I439
sb(dp4252
g1751
I01
sg87
g743
ss(iconstruction
TP_NODE
p4253
(dp4254
g1750
I00
sg87
g800
sg68
g4239
sg1751
I00
sg1752
I00
sg585
I440
sb(dp4255
g1751
I00
sg87
g800
sssg286
g287
sg288
g287
sg289
(dp4256
g4249
(dp4257
g4253
(dp4258
g87
g734
sssg4253
(dp4259
ssg483
g4256
sg98
(dp4260
sg485
g287
sg486
g4256
sg487
(dp4261
g4249
(dp4262
sg4253
(dp4263
g4249
g4258
sssbsg580
(lp4264
g4249
ag4253
asg853
(lp4265
(iconstruction
TP_REL
p4266
(dp4267
g859
g4253
sg87
g734
sg585
I441
sg860
g4249
sg68
VIS_441
p4268
sbasg585
I436
sg68
g1671
sbsg1766
(iconstruction
TP_SYNFORM
p4269
(dp4270
g585
I437
sg1769
(lp4271
(iconstruction
TP_PHON
p4272
(dp4273
g1779
I5
sg1776
I0
sg585
I442
sg1780
Vmouse
p4274
sg68
g4240
sbasg68
g1671
sbsg1787
I1
sba(iconstruction
CXN
p4275
(dp4276
g1729
(iconstruction
TP_SYMLINKS
p4277
(dp4278
g1732
(dp4279
VN1_447
p4280
VS1_449
p4281
ssg585
I445
sg68
g1671
sbsg1738
VN
p4282
sg1740
I1
sg68
VTURTLE
p4283
sg1741
(iconstruction
TP_SEMFRAME
p4284
(dp4285
g98
g0
(g99
g2
Ntp4286
Rp4287
(dp4288
g103
(dp4289
(iconstruction
TP_NODE
p4290
(dp4291
g1750
I00
sg87
g797
sg68
g4280
sg1751
I00
sg1752
I00
sg585
I447
sb(dp4292
g1751
I00
sg87
g797
ss(iconstruction
TP_NODE
p4293
(dp4294
g1750
I01
sg87
g743
sg68
VENT_446
p4295
sg1751
I01
sg1752
I00
sg585
I446
sb(dp4296
g1751
I01
sg87
g743
sssg286
g287
sg288
g287
sg289
(dp4297
g4290
(dp4298
sg4293
(dp4299
g4290
(dp4300
g87
g734
ssssg483
g4297
sg98
(dp4301
sg485
g287
sg486
g4297
sg487
(dp4302
g4290
(dp4303
g4293
g4300
ssg4293
(dp4304
ssbsg580
(lp4305
g4293
ag4290
asg853
(lp4306
(iconstruction
TP_REL
p4307
(dp4308
g859
g4290
sg87
g734
sg585
I448
sg860
g4293
sg68
VIS_448
p4309
sbasg585
I443
sg68
g1671
sbsg1766
(iconstruction
TP_SYNFORM
p4310
(dp4311
g585
I444
sg1769
(lp4312
(iconstruction
TP_PHON
p4313
(dp4314
g1779
I6
sg1776
I0
sg585
I449
sg1780
Vturtle
p4315
sg68
g4281
sbasg68
g1671
sbsg1787
I1
sba(iconstruction
CXN
p4316
(dp4317
g1729
(iconstruction
TP_SYMLINKS
p4318
(dp4319
g1732
(dp4320
VN1_454
p4321
VS1_456
p4322
ssg585
I452
sg68
g1671
sbsg1738
VN
p4323
sg1740
I1
sg68
VDRESS
p4324
sg1741
(iconstruction
TP_SEMFRAME
p4325
(dp4326
g98
g0
(g99
g2
Ntp4327
Rp4328
(dp4329
g103
(dp4330
(iconstruction
TP_NODE
p4331
(dp4332
g1750
I00
sg87
g788
sg68
g4321
sg1751
I00
sg1752
I00
sg585
I454
sb(dp4333
g1751
I00
sg87
g788
ss(iconstruction
TP_NODE
p4334
(dp4335
g1750
I01
sg87
g743
sg68
VENT_453
p4336
sg1751
I01
sg1752
I00
sg585
I453
sb(dp4337
g1751
I01
sg87
g743
sssg286
g287
sg288
g287
sg289
(dp4338
g4331
(dp4339
sg4334
(dp4340
g4331
(dp4341
g87
g734
ssssg483
g4338
sg98
(dp4342
sg485
g287
sg486
g4338
sg487
(dp4343
g4331
(dp4344
g4334
g4341
ssg4334
(dp4345
ssbsg580
(lp4346
g4334
ag4331
asg853
(lp4347
(iconstruction
TP_REL
p4348
(dp4349
g859
g4331
sg87
g734
sg585
I455
sg860
g4334
sg68
VIS_455
p4350
sbasg585
I450
sg68
g1671
sbsg1766
(iconstruction
TP_SYNFORM
p4351
(dp4352
g585
I451
sg1769
(lp4353
(iconstruction
TP_PHON
p4354
(dp4355
g1779
I5
sg1776
I0
sg585
I456
sg1780
Vdress
p4356
sg68
g4322
sbasg68
g1671
sbsg1787
I1
sba(iconstruction
CXN
p4357
(dp4358
g1729
(iconstruction
TP_SYMLINKS
p4359
(dp4360
g1732
(dp4361
VN1_461
p4362
VS1_463
p4363
ssg585
I459
sg68
g1671
sbsg1738
VN
p4364
sg1740
I1
sg68
VTSHIRT
p4365
sg1741
(iconstruction
TP_SEMFRAME
p4366
(dp4367
g98
g0
(g99
g2
Ntp4368
Rp4369
(dp4370
g103
(dp4371
(iconstruction
TP_NODE
p4372
(dp4373
g1750
I01
sg87
g743
sg68
VENT_460
p4374
sg1751
I01
sg1752
I00
sg585
I460
sb(dp4375
g1751
I01
sg87
g743
ss(iconstruction
TP_NODE
p4376
(dp4377
g1750
I00
sg87
g785
sg68
g4362
sg1751
I00
sg1752
I00
sg585
I461
sb(dp4378
g1751
I00
sg87
g785
sssg286
g287
sg288
g287
sg289
(dp4379
g4372
(dp4380
g4376
(dp4381
g87
g734
sssg4376
(dp4382
ssg483
g4379
sg98
(dp4383
sg485
g287
sg486
g4379
sg487
(dp4384
g4372
(dp4385
sg4376
(dp4386
g4372
g4381
sssbsg580
(lp4387
g4372
ag4376
asg853
(lp4388
(iconstruction
TP_REL
p4389
(dp4390
g859
g4376
sg87
g734
sg585
I462
sg860
g4372
sg68
VIS_462
p4391
sbasg585
I457
sg68
g1671
sbsg1766
(iconstruction
TP_SYNFORM
p4392
(dp4393
g585
I458
sg1769
(lp4394
(iconstruction
TP_PHON
p4395
(dp4396
g1779
I6
sg1776
I0
sg585
I463
sg1780
Vt-shirt
p4397
sg68
g4363
sbasg68
g1671
sbsg1787
I1
sba(iconstruction
CXN
p4398
(dp4399
g1729
(iconstruction
TP_SYMLINKS
p4400
(dp4401
g1732
(dp4402
VN1_468
p4403
VS2_471
p4404
ssg585
I466
sg68
g1671
sbsg1738
VN
p4405
sg1740
I1
sg68
VBOXINGRING
p4406
sg1741
(iconstruction
TP_SEMFRAME
p4407
(dp4408
g98
g0
(g99
g2
Ntp4409
Rp4410
(dp4411
g103
(dp4412
(iconstruction
TP_NODE
p4413
(dp4414
g1750
I00
sg87
g842
sg68
g4403
sg1751
I00
sg1752
I00
sg585
I468
sb(dp4415
g1751
I00
sg87
g842
ss(iconstruction
TP_NODE
p4416
(dp4417
g1750
I01
sg87
g743
sg68
VENT_467
p4418
sg1751
I01
sg1752
I00
sg585
I467
sb(dp4419
g1751
I01
sg87
g743
sssg286
g287
sg288
g287
sg289
(dp4420
g4413
(dp4421
sg4416
(dp4422
g4413
(dp4423
g87
g734
ssssg483
g4420
sg98
(dp4424
sg485
g287
sg486
g4420
sg487
(dp4425
g4413
(dp4426
g4416
g4423
ssg4416
(dp4427
ssbsg580
(lp4428
g4416
ag4413
asg853
(lp4429
(iconstruction
TP_REL
p4430
(dp4431
g859
g4413
sg87
g734
sg585
I469
sg860
g4416
sg68
VIS_469
p4432
sbasg585
I464
sg68
g1671
sbsg1766
(iconstruction
TP_SYNFORM
p4433
(dp4434
g585
I465
sg1769
(lp4435
(iconstruction
TP_PHON
p4436
(dp4437
g1779
I6
sg1776
I0
sg585
I470
sg1780
Vboxing
p4438
sg68
VS1_470
p4439
sba(iconstruction
TP_PHON
p4440
(dp4441
g1779
I4
sg1776
I1
sg585
I471
sg1780
Vring
p4442
sg68
g4404
sbasg68
g1671
sbsg1787
I1
sba(iconstruction
CXN
p4443
(dp4444
g1729
(iconstruction
TP_SYMLINKS
p4445
(dp4446
g1732
(dp4447
VN1_476
p4448
VS1_478
p4449
ssg585
I474
sg68
g1671
sbsg1738
VN
p4450
sg1740
I1
sg68
VPARK
p4451
sg1741
(iconstruction
TP_SEMFRAME
p4452
(dp4453
g98
g0
(g99
g2
Ntp4454
Rp4455
(dp4456
g103
(dp4457
(iconstruction
TP_NODE
p4458
(dp4459
g1750
I00
sg87
g845
sg68
g4448
sg1751
I00
sg1752
I00
sg585
I476
sb(dp4460
g1751
I00
sg87
g845
ss(iconstruction
TP_NODE
p4461
(dp4462
g1750
I01
sg87
g743
sg68
VENT_475
p4463
sg1751
I01
sg1752
I00
sg585
I475
sb(dp4464
g1751
I01
sg87
g743
sssg286
g287
sg288
g287
sg289
(dp4465
g4458
(dp4466
sg4461
(dp4467
g4458
(dp4468
g87
g734
ssssg483
g4465
sg98
(dp4469
sg485
g287
sg486
g4465
sg487
(dp4470
g4458
(dp4471
g4461
g4468
ssg4461
(dp4472
ssbsg580
(lp4473
g4461
ag4458
asg853
(lp4474
(iconstruction
TP_REL
p4475
(dp4476
g859
g4458
sg87
g734
sg585
I477
sg860
g4461
sg68
VIS_477
p4477
sbasg585
I472
sg68
g1671
sbsg1766
(iconstruction
TP_SYNFORM
p4478
(dp4479
g585
I473
sg1769
(lp4480
(iconstruction
TP_PHON
p4481
(dp4482
g1779
I4
sg1776
I0
sg585
I478
sg1780
Vpark
p4483
sg68
g4449
sbasg68
g1671
sbsg1787
I1
sba(iconstruction
CXN
p4484
(dp4485
g1729
(iconstruction
TP_SYMLINKS
p4486
(dp4487
g1732
(dp4488
VN1_483
p4489
VS1_485
p4490
ssg585
I481
sg68
g1671
sbsg1738
VN
p4491
sg1740
I1
sg68
VSHIRT
p4492
sg1741
(iconstruction
TP_SEMFRAME
p4493
(dp4494
g98
g0
(g99
g2
Ntp4495
Rp4496
(dp4497
g103
(dp4498
(iconstruction
TP_NODE
p4499
(dp4500
g1750
I01
sg87
g743
sg68
VENT_482
p4501
sg1751
I01
sg1752
I00
sg585
I482
sb(dp4502
g1751
I01
sg87
g743
ss(iconstruction
TP_NODE
p4503
(dp4504
g1750
I00
sg87
g791
sg68
g4489
sg1751
I00
sg1752
I00
sg585
I483
sb(dp4505
g1751
I00
sg87
g791
sssg286
g287
sg288
g287
sg289
(dp4506
g4499
(dp4507
g4503
(dp4508
g87
g734
sssg4503
(dp4509
ssg483
g4506
sg98
(dp4510
sg485
g287
sg486
g4506
sg487
(dp4511
g4499
(dp4512
sg4503
(dp4513
g4499
g4508
sssbsg580
(lp4514
g4499
ag4503
asg853
(lp4515
(iconstruction
TP_REL
p4516
(dp4517
g859
g4503
sg87
g734
sg585
I484
sg860
g4499
sg68
VIS_484
p4518
sbasg585
I479
sg68
g1671
sbsg1766
(iconstruction
TP_SYNFORM
p4519
(dp4520
g585
I480
sg1769
(lp4521
(iconstruction
TP_PHON
p4522
(dp4523
g1779
I5
sg1776
I0
sg585
I485
sg1780
Vshirt
p4524
sg68
g4490
sbasg68
g1671
sbsg1787
I1
sba(iconstruction
CXN
p4525
(dp4526
g1729
(iconstruction
TP_SYMLINKS
p4527
(dp4528
g1732
(dp4529
VN1_490
p4530
VS1_492
p4531
ssg585
I488
sg68
g1671
sbsg1738
VN
p4532
sg1740
I1
sg68
VSUIT
p4533
sg1741
(iconstruction
TP_SEMFRAME
p4534
(dp4535
g98
g0
(g99
g2
Ntp4536
Rp4537
(dp4538
g103
(dp4539
(iconstruction
TP_NODE
p4540
(dp4541
g1750
I00
sg87
g794
sg68
g4530
sg1751
I00
sg1752
I00
sg585
I490
sb(dp4542
g1751
I00
sg87
g794
ss(iconstruction
TP_NODE
p4543
(dp4544
g1750
I01
sg87
g743
sg68
VENT_489
p4545
sg1751
I01
sg1752
I00
sg585
I489
sb(dp4546
g1751
I01
sg87
g743
sssg286
g287
sg288
g287
sg289
(dp4547
g4540
(dp4548
sg4543
(dp4549
g4540
(dp4550
g87
g734
ssssg483
g4547
sg98
(dp4551
sg485
g287
sg486
g4547
sg487
(dp4552
g4540
(dp4553
g4543
g4550
ssg4543
(dp4554
ssbsg580
(lp4555
g4543
ag4540
asg853
(lp4556
(iconstruction
TP_REL
p4557
(dp4558
g859
g4540
sg87
g734
sg585
I491
sg860
g4543
sg68
VIS_491
p4559
sbasg585
I486
sg68
g1671
sbsg1766
(iconstruction
TP_SYNFORM
p4560
(dp4561
g585
I487
sg1769
(lp4562
(iconstruction
TP_PHON
p4563
(dp4564
g1779
I4
sg1776
I0
sg585
I492
sg1780
Vsuit
p4565
sg68
g4531
sbasg68
g1671
sbsg1787
I1
sba(iconstruction
CXN
p4566
(dp4567
g1729
(iconstruction
TP_SYMLINKS
p4568
(dp4569
g1732
(dp4570
VN1_497
p4571
VS1_499
p4572
ssg585
I495
sg68
g1671
sbsg1738
VN
p4573
sg1740
I1
sg68
VCELLO
p4574
sg1741
(iconstruction
TP_SEMFRAME
p4575
(dp4576
g98
g0
(g99
g2
Ntp4577
Rp4578
(dp4579
g103
(dp4580
(iconstruction
TP_NODE
p4581
(dp4582
g1750
I00
sg87
g776
sg68
g4571
sg1751
I00
sg1752
I00
sg585
I497
sb(dp4583
g1751
I00
sg87
g776
ss(iconstruction
TP_NODE
p4584
(dp4585
g1750
I01
sg87
g743
sg68
VENT_496
p4586
sg1751
I01
sg1752
I00
sg585
I496
sb(dp4587
g1751
I01
sg87
g743
sssg286
g287
sg288
g287
sg289
(dp4588
g4581
(dp4589
sg4584
(dp4590
g4581
(dp4591
g87
g734
ssssg483
g4588
sg98
(dp4592
sg485
g287
sg486
g4588
sg487
(dp4593
g4581
(dp4594
g4584
g4591
ssg4584
(dp4595
ssbsg580
(lp4596
g4584
ag4581
asg853
(lp4597
(iconstruction
TP_REL
p4598
(dp4599
g859
g4581
sg87
g734
sg585
I498
sg860
g4584
sg68
VIS_498
p4600
sbasg585
I493
sg68
g1671
sbsg1766
(iconstruction
TP_SYNFORM
p4601
(dp4602
g585
I494
sg1769
(lp4603
(iconstruction
TP_PHON
p4604
(dp4605
g1779
I5
sg1776
I0
sg585
I499
sg1780
VCELLO
p4606
sg68
g4572
sbasg68
g1671
sbsg1787
I1
sba(iconstruction
CXN
p4607
(dp4608
g1729
(iconstruction
TP_SYMLINKS
p4609
(dp4610
g1732
(dp4611
VN1_504
p4612
VS1_506
p4613
ssg585
I502
sg68
g1671
sbsg1738
VN
p4614
sg1740
I1
sg68
VBAG
p4615
sg1741
(iconstruction
TP_SEMFRAME
p4616
(dp4617
g98
g0
(g99
g2
Ntp4618
Rp4619
(dp4620
g103
(dp4621
(iconstruction
TP_NODE
p4622
(dp4623
g1750
I01
sg87
g743
sg68
VENT_503
p4624
sg1751
I01
sg1752
I00
sg585
I503
sb(dp4625
g1751
I01
sg87
g743
ss(iconstruction
TP_NODE
p4626
(dp4627
g1750
I00
sg87
g767
sg68
g4612
sg1751
I00
sg1752
I00
sg585
I504
sb(dp4628
g1751
I00
sg87
g767
sssg286
g287
sg288
g287
sg289
(dp4629
g4622
(dp4630
g4626
(dp4631
g87
g734
sssg4626
(dp4632
ssg483
g4629
sg98
(dp4633
sg485
g287
sg486
g4629
sg487
(dp4634
g4622
(dp4635
sg4626
(dp4636
g4622
g4631
sssbsg580
(lp4637
g4622
ag4626
asg853
(lp4638
(iconstruction
TP_REL
p4639
(dp4640
g859
g4626
sg87
g734
sg585
I505
sg860
g4622
sg68
VIS_505
p4641
sbasg585
I500
sg68
g1671
sbsg1766
(iconstruction
TP_SYNFORM
p4642
(dp4643
g585
I501
sg1769
(lp4644
(iconstruction
TP_PHON
p4645
(dp4646
g1779
I3
sg1776
I0
sg585
I506
sg1780
Vbag
p4647
sg68
g4613
sbasg68
g1671
sbsg1787
I1
sba(iconstruction
CXN
p4648
(dp4649
g1729
(iconstruction
TP_SYMLINKS
p4650
(dp4651
g1732
(dp4652
VN1_511
p4653
VS2_514
p4654
ssg585
I509
sg68
g1671
sbsg1738
VN
p4655
sg1740
I1
sg68
VWATERING_CAN
p4656
sg1741
(iconstruction
TP_SEMFRAME
p4657
(dp4658
g98
g0
(g99
g2
Ntp4659
Rp4660
(dp4661
g103
(dp4662
(iconstruction
TP_NODE
p4663
(dp4664
g1750
I00
sg87
g764
sg68
g4653
sg1751
I00
sg1752
I00
sg585
I511
sb(dp4665
g1751
I00
sg87
g764
ss(iconstruction
TP_NODE
p4666
(dp4667
g1750
I01
sg87
g743
sg68
VENT_510
p4668
sg1751
I01
sg1752
I00
sg585
I510
sb(dp4669
g1751
I01
sg87
g743
sssg286
g287
sg288
g287
sg289
(dp4670
g4663
(dp4671
sg4666
(dp4672
g4663
(dp4673
g87
g734
ssssg483
g4670
sg98
(dp4674
sg485
g287
sg486
g4670
sg487
(dp4675
g4663
(dp4676
g4666
g4673
ssg4666
(dp4677
ssbsg580
(lp4678
g4666
ag4663
asg853
(lp4679
(iconstruction
TP_REL
p4680
(dp4681
g859
g4663
sg87
g734
sg585
I512
sg860
g4666
sg68
VIS_512
p4682
sbasg585
I507
sg68
g1671
sbsg1766
(iconstruction
TP_SYNFORM
p4683
(dp4684
g585
I508
sg1769
(lp4685
(iconstruction
TP_PHON
p4686
(dp4687
g1779
I8
sg1776
I0
sg585
I513
sg1780
Vwatering
p4688
sg68
VS1_513
p4689
sba(iconstruction
TP_PHON
p4690
(dp4691
g1779
I3
sg1776
I1
sg585
I514
sg1780
Vcan
p4692
sg68
g4654
sbasg68
g1671
sbsg1787
I1
sba(iconstruction
CXN
p4693
(dp4694
g1729
(iconstruction
TP_SYMLINKS
p4695
(dp4696
g1732
(dp4697
VN1_519
p4698
VS1_521
p4699
ssg585
I517
sg68
g1671
sbsg1738
VN
p4700
sg1740
I1
sg68
VBALLERINA
p4701
sg1741
(iconstruction
TP_SEMFRAME
p4702
(dp4703
g98
g0
(g99
g2
Ntp4704
Rp4705
(dp4706
g103
(dp4707
(iconstruction
TP_NODE
p4708
(dp4709
g1750
I00
sg87
g821
sg68
g4698
sg1751
I00
sg1752
I00
sg585
I519
sb(dp4710
g1751
I00
sg87
g821
ss(iconstruction
TP_NODE
p4711
(dp4712
g1750
I01
sg87
g743
sg68
VENT_518
p4713
sg1751
I01
sg1752
I00
sg585
I518
sb(dp4714
g1751
I01
sg87
g743
sssg286
g287
sg288
g287
sg289
(dp4715
g4708
(dp4716
sg4711
(dp4717
g4708
(dp4718
g87
g734
ssssg483
g4715
sg98
(dp4719
sg485
g287
sg486
g4715
sg487
(dp4720
g4708
(dp4721
g4711
g4718
ssg4711
(dp4722
ssbsg580
(lp4723
g4711
ag4708
asg853
(lp4724
(iconstruction
TP_REL
p4725
(dp4726
g859
g4708
sg87
g734
sg585
I520
sg860
g4711
sg68
VIS_520
p4727
sbasg585
I515
sg68
g1671
sbsg1766
(iconstruction
TP_SYNFORM
p4728
(dp4729
g585
I516
sg1769
(lp4730
(iconstruction
TP_PHON
p4731
(dp4732
g1779
I9
sg1776
I0
sg585
I521
sg1780
Vballerina
p4733
sg68
g4699
sbasg68
g1671
sbsg1787
I1
sba(iconstruction
CXN
p4734
(dp4735
g1729
(iconstruction
TP_SYMLINKS
p4736
(dp4737
g1732
(dp4738
VN1_526
p4739
VS1_528
p4740
ssg585
I524
sg68
g1671
sbsg1738
VN
p4741
sg1740
I1
sg68
VCELLIST
p4742
sg1741
(iconstruction
TP_SEMFRAME
p4743
(dp4744
g98
g0
(g99
g2
Ntp4745
Rp4746
(dp4747
g103
(dp4748
(iconstruction
TP_NODE
p4749
(dp4750
g1750
I01
sg87
g743
sg68
VENT_525
p4751
sg1751
I01
sg1752
I00
sg585
I525
sb(dp4752
g1751
I01
sg87
g743
ss(iconstruction
TP_NODE
p4753
(dp4754
g1750
I00
sg87
g824
sg68
g4739
sg1751
I00
sg1752
I00
sg585
I526
sb(dp4755
g1751
I00
sg87
g824
sssg286
g287
sg288
g287
sg289
(dp4756
g4749
(dp4757
g4753
(dp4758
g87
g734
sssg4753
(dp4759
ssg483
g4756
sg98
(dp4760
sg485
g287
sg486
g4756
sg487
(dp4761
g4749
(dp4762
sg4753
(dp4763
g4749
g4758
sssbsg580
(lp4764
g4749
ag4753
asg853
(lp4765
(iconstruction
TP_REL
p4766
(dp4767
g859
g4753
sg87
g734
sg585
I527
sg860
g4749
sg68
VIS_527
p4768
sbasg585
I522
sg68
g1671
sbsg1766
(iconstruction
TP_SYNFORM
p4769
(dp4770
g585
I523
sg1769
(lp4771
(iconstruction
TP_PHON
p4772
(dp4773
g1779
I7
sg1776
I0
sg585
I528
sg1780
Vcellist
p4774
sg68
g4740
sbasg68
g1671
sbsg1787
I1
sba(iconstruction
CXN
p4775
(dp4776
g1729
(iconstruction
TP_SYMLINKS
p4777
(dp4778
g1732
(dp4779
VN1_533
p4780
VS1_535
p4781
ssg585
I531
sg68
g1671
sbsg1738
VN
p4782
sg1740
I1
sg68
VFENCER
p4783
sg1741
(iconstruction
TP_SEMFRAME
p4784
(dp4785
g98
g0
(g99
g2
Ntp4786
Rp4787
(dp4788
g103
(dp4789
(iconstruction
TP_NODE
p4790
(dp4791
g1750
I00
sg87
g830
sg68
g4780
sg1751
I00
sg1752
I00
sg585
I533
sb(dp4792
g1751
I00
sg87
g830
ss(iconstruction
TP_NODE
p4793
(dp4794
g1750
I01
sg87
g743
sg68
VENT_532
p4795
sg1751
I01
sg1752
I00
sg585
I532
sb(dp4796
g1751
I01
sg87
g743
sssg286
g287
sg288
g287
sg289
(dp4797
g4790
(dp4798
sg4793
(dp4799
g4790
(dp4800
g87
g734
ssssg483
g4797
sg98
(dp4801
sg485
g287
sg486
g4797
sg487
(dp4802
g4790
(dp4803
g4793
g4800
ssg4793
(dp4804
ssbsg580
(lp4805
g4793
ag4790
asg853
(lp4806
(iconstruction
TP_REL
p4807
(dp4808
g859
g4790
sg87
g734
sg585
I534
sg860
g4793
sg68
VIS_534
p4809
sbasg585
I529
sg68
g1671
sbsg1766
(iconstruction
TP_SYNFORM
p4810
(dp4811
g585
I530
sg1769
(lp4812
(iconstruction
TP_PHON
p4813
(dp4814
g1779
I6
sg1776
I0
sg585
I535
sg1780
Vfencer
p4815
sg68
g4781
sbasg68
g1671
sbsg1787
I1
sba(iconstruction
CXN
p4816
(dp4817
g1729
(iconstruction
TP_SYMLINKS
p4818
(dp4819
g1732
(dp4820
VN1_540
p4821
VS1_542
p4822
ssg585
I538
sg68
g1671
sbsg1738
VN
p4823
sg1740
I1
sg68
VROBBER
p4824
sg1741
(iconstruction
TP_SEMFRAME
p4825
(dp4826
g98
g0
(g99
g2
Ntp4827
Rp4828
(dp4829
g103
(dp4830
(iconstruction
TP_NODE
p4831
(dp4832
g1750
I00
sg87
g833
sg68
g4821
sg1751
I00
sg1752
I00
sg585
I540
sb(dp4833
g1751
I00
sg87
g833
ss(iconstruction
TP_NODE
p4834
(dp4835
g1750
I01
sg87
g743
sg68
VENT_539
p4836
sg1751
I01
sg1752
I00
sg585
I539
sb(dp4837
g1751
I01
sg87
g743
sssg286
g287
sg288
g287
sg289
(dp4838
g4831
(dp4839
sg4834
(dp4840
g4831
(dp4841
g87
g734
ssssg483
g4838
sg98
(dp4842
sg485
g287
sg486
g4838
sg487
(dp4843
g4831
(dp4844
g4834
g4841
ssg4834
(dp4845
ssbsg580
(lp4846
g4834
ag4831
asg853
(lp4847
(iconstruction
TP_REL
p4848
(dp4849
g859
g4831
sg87
g734
sg585
I541
sg860
g4834
sg68
VIS_541
p4850
sbasg585
I536
sg68
g1671
sbsg1766
(iconstruction
TP_SYNFORM
p4851
(dp4852
g585
I537
sg1769
(lp4853
(iconstruction
TP_PHON
p4854
(dp4855
g1779
I5
sg1776
I0
sg585
I542
sg1780
Vthief
p4856
sg68
g4822
sbasg68
g1671
sbsg1787
I1
sba(iconstruction
CXN
p4857
(dp4858
g1729
(iconstruction
TP_SYMLINKS
p4859
(dp4860
g1732
(dp4861
VN1_547
p4862
VS1_549
p4863
ssg585
I545
sg68
g1671
sbsg1738
VN
p4864
sg1740
I1
sg68
VPOLICEMAN
p4865
sg1741
(iconstruction
TP_SEMFRAME
p4866
(dp4867
g98
g0
(g99
g2
Ntp4868
Rp4869
(dp4870
g103
(dp4871
(iconstruction
TP_NODE
p4872
(dp4873
g1750
I01
sg87
g743
sg68
VENT_546
p4874
sg1751
I01
sg1752
I00
sg585
I546
sb(dp4875
g1751
I01
sg87
g743
ss(iconstruction
TP_NODE
p4876
(dp4877
g1750
I00
sg87
g815
sg68
g4862
sg1751
I00
sg1752
I00
sg585
I547
sb(dp4878
g1751
I00
sg87
g815
sssg286
g287
sg288
g287
sg289
(dp4879
g4872
(dp4880
g4876
(dp4881
g87
g734
sssg4876
(dp4882
ssg483
g4879
sg98
(dp4883
sg485
g287
sg486
g4879
sg487
(dp4884
g4872
(dp4885
sg4876
(dp4886
g4872
g4881
sssbsg580
(lp4887
g4872
ag4876
asg853
(lp4888
(iconstruction
TP_REL
p4889
(dp4890
g859
g4876
sg87
g734
sg585
I548
sg860
g4872
sg68
VIS_548
p4891
sbasg585
I543
sg68
g1671
sbsg1766
(iconstruction
TP_SYNFORM
p4892
(dp4893
g585
I544
sg1769
(lp4894
(iconstruction
TP_PHON
p4895
(dp4896
g1779
I9
sg1776
I0
sg585
I549
sg1780
Vpoliceman
p4897
sg68
g4863
sbasg68
g1671
sbsg1787
I1
sba(iconstruction
CXN
p4898
(dp4899
g1729
(iconstruction
TP_SYMLINKS
p4900
(dp4901
g1732
(dp4902
VN1_554
p4903
VS1_556
p4904
ssg585
I552
sg68
g1671
sbsg1738
VN
p4905
sg1740
I1
sg68
VHUNTER
p4906
sg1741
(iconstruction
TP_SEMFRAME
p4907
(dp4908
g98
g0
(g99
g2
Ntp4909
Rp4910
(dp4911
g103
(dp4912
(iconstruction
TP_NODE
p4913
(dp4914
g1750
I00
sg87
g818
sg68
g4903
sg1751
I00
sg1752
I00
sg585
I554
sb(dp4915
g1751
I00
sg87
g818
ss(iconstruction
TP_NODE
p4916
(dp4917
g1750
I01
sg87
g743
sg68
VENT_553
p4918
sg1751
I01
sg1752
I00
sg585
I553
sb(dp4919
g1751
I01
sg87
g743
sssg286
g287
sg288
g287
sg289
(dp4920
g4913
(dp4921
sg4916
(dp4922
g4913
(dp4923
g87
g734
ssssg483
g4920
sg98
(dp4924
sg485
g287
sg486
g4920
sg487
(dp4925
g4913
(dp4926
g4916
g4923
ssg4916
(dp4927
ssbsg580
(lp4928
g4916
ag4913
asg853
(lp4929
(iconstruction
TP_REL
p4930
(dp4931
g859
g4913
sg87
g734
sg585
I555
sg860
g4916
sg68
VIS_555
p4932
sbasg585
I550
sg68
g1671
sbsg1766
(iconstruction
TP_SYNFORM
p4933
(dp4934
g585
I551
sg1769
(lp4935
(iconstruction
TP_PHON
p4936
(dp4937
g1779
I6
sg1776
I0
sg585
I556
sg1780
Vhunter
p4938
sg68
g4904
sbasg68
g1671
sbsg1787
I1
sba(iconstruction
CXN
p4939
(dp4940
g1729
(iconstruction
TP_SYMLINKS
p4941
(dp4942
g1732
(dp4943
VN1_561
p4944
VS1_563
p4945
ssg585
I559
sg68
g1671
sbsg1738
VN
p4946
sg1740
I1
sg68
VDOG
p4947
sg1741
(iconstruction
TP_SEMFRAME
p4948
(dp4949
g98
g0
(g99
g2
Ntp4950
Rp4951
(dp4952
g103
(dp4953
(iconstruction
TP_NODE
p4954
(dp4955
g1750
I01
sg87
g743
sg68
VENT_560
p4956
sg1751
I01
sg1752
I00
sg585
I560
sb(dp4957
g1751
I01
sg87
g743
ss(iconstruction
TP_NODE
p4958
(dp4959
g1750
I00
sg87
g803
sg68
g4944
sg1751
I00
sg1752
I00
sg585
I561
sb(dp4960
g1751
I00
sg87
g803
sssg286
g287
sg288
g287
sg289
(dp4961
g4954
(dp4962
g4958
(dp4963
g87
g734
sssg4958
(dp4964
ssg483
g4961
sg98
(dp4965
sg485
g287
sg486
g4961
sg487
(dp4966
g4954
(dp4967
sg4958
(dp4968
g4954
g4963
sssbsg580
(lp4969
g4954
ag4958
asg853
(lp4970
(iconstruction
TP_REL
p4971
(dp4972
g859
g4958
sg87
g734
sg585
I562
sg860
g4954
sg68
VIS_562
p4973
sbasg585
I557
sg68
g1671
sbsg1766
(iconstruction
TP_SYNFORM
p4974
(dp4975
g585
I558
sg1769
(lp4976
(iconstruction
TP_PHON
p4977
(dp4978
g1779
I3
sg1776
I0
sg585
I563
sg1780
Vdog
p4979
sg68
g4945
sbasg68
g1671
sbsg1787
I1
sba(iconstruction
CXN
p4980
(dp4981
g1729
(iconstruction
TP_SYMLINKS
p4982
(dp4983
g1732
(dp4984
VN1_568
p4985
VS1_570
p4986
ssg585
I566
sg68
g1671
sbsg1738
VN
p4987
sg1740
I1
sg68
VHOOK
p4988
sg1741
(iconstruction
TP_SEMFRAME
p4989
(dp4990
g98
g0
(g99
g2
Ntp4991
Rp4992
(dp4993
g103
(dp4994
(iconstruction
TP_NODE
p4995
(dp4996
g1750
I00
sg87
g773
sg68
g4985
sg1751
I00
sg1752
I00
sg585
I568
sb(dp4997
g1751
I00
sg87
g773
ss(iconstruction
TP_NODE
p4998
(dp4999
g1750
I01
sg87
g743
sg68
VENT_567
p5000
sg1751
I01
sg1752
I00
sg585
I567
sb(dp5001
g1751
I01
sg87
g743
sssg286
g287
sg288
g287
sg289
(dp5002
g4995
(dp5003
sg4998
(dp5004
g4995
(dp5005
g87
g734
ssssg483
g5002
sg98
(dp5006
sg485
g287
sg486
g5002
sg487
(dp5007
g4995
(dp5008
g4998
g5005
ssg4998
(dp5009
ssbsg580
(lp5010
g4998
ag4995
asg853
(lp5011
(iconstruction
TP_REL
p5012
(dp5013
g859
g4995
sg87
g734
sg585
I569
sg860
g4998
sg68
VIS_569
p5014
sbasg585
I564
sg68
g1671
sbsg1766
(iconstruction
TP_SYNFORM
p5015
(dp5016
g585
I565
sg1769
(lp5017
(iconstruction
TP_PHON
p5018
(dp5019
g1779
I4
sg1776
I0
sg585
I570
sg1780
Vhook
p5020
sg68
g4986
sbasg68
g1671
sbsg1787
I1
sba(iconstruction
CXN
p5021
(dp5022
g1729
(iconstruction
TP_SYMLINKS
p5023
(dp5024
g1732
(dp5025
VN1_575
p5026
VS1_577
p5027
ssg585
I573
sg68
g1671
sbsg1738
VN
p5028
sg1740
I1
sg68
VBOOKSHELF
p5029
sg1741
(iconstruction
TP_SEMFRAME
p5030
(dp5031
g98
g0
(g99
g2
Ntp5032
Rp5033
(dp5034
g103
(dp5035
(iconstruction
TP_NODE
p5036
(dp5037
g1750
I00
sg87
g779
sg68
g5026
sg1751
I00
sg1752
I00
sg585
I575
sb(dp5038
g1751
I00
sg87
g779
ss(iconstruction
TP_NODE
p5039
(dp5040
g1750
I01
sg87
g743
sg68
VENT_574
p5041
sg1751
I01
sg1752
I00
sg585
I574
sb(dp5042
g1751
I01
sg87
g743
sssg286
g287
sg288
g287
sg289
(dp5043
g5036
(dp5044
sg5039
(dp5045
g5036
(dp5046
g87
g734
ssssg483
g5043
sg98
(dp5047
sg485
g287
sg486
g5043
sg487
(dp5048
g5036
(dp5049
g5039
g5046
ssg5039
(dp5050
ssbsg580
(lp5051
g5039
ag5036
asg853
(lp5052
(iconstruction
TP_REL
p5053
(dp5054
g859
g5036
sg87
g734
sg585
I576
sg860
g5039
sg68
VIS_576
p5055
sbasg585
I571
sg68
g1671
sbsg1766
(iconstruction
TP_SYNFORM
p5056
(dp5057
g585
I572
sg1769
(lp5058
(iconstruction
TP_PHON
p5059
(dp5060
g1779
I9
sg1776
I0
sg585
I577
sg1780
Vbookshelf
p5061
sg68
g5027
sbasg68
g1671
sbsg1787
I1
sba(iconstruction
CXN
p5062
(dp5063
g1729
(iconstruction
TP_SYMLINKS
p5064
(dp5065
g1732
(dp5066
VN1_582
p5067
VS1_584
p5068
ssg585
I580
sg68
g1671
sbsg1738
VN
p5069
sg1740
I1
sg68
VWAGON
p5070
sg1741
(iconstruction
TP_SEMFRAME
p5071
(dp5072
g98
g0
(g99
g2
Ntp5073
Rp5074
(dp5075
g103
(dp5076
(iconstruction
TP_NODE
p5077
(dp5078
g1750
I01
sg87
g743
sg68
VENT_581
p5079
sg1751
I01
sg1752
I00
sg585
I581
sb(dp5080
g1751
I01
sg87
g743
ss(iconstruction
TP_NODE
p5081
(dp5082
g1750
I00
sg87
g761
sg68
g5067
sg1751
I00
sg1752
I00
sg585
I582
sb(dp5083
g1751
I00
sg87
g761
sssg286
g287
sg288
g287
sg289
(dp5084
g5077
(dp5085
g5081
(dp5086
g87
g734
sssg5081
(dp5087
ssg483
g5084
sg98
(dp5088
sg485
g287
sg486
g5084
sg487
(dp5089
g5077
(dp5090
sg5081
(dp5091
g5077
g5086
sssbsg580
(lp5092
g5077
ag5081
asg853
(lp5093
(iconstruction
TP_REL
p5094
(dp5095
g859
g5081
sg87
g734
sg585
I583
sg860
g5077
sg68
VIS_583
p5096
sbasg585
I578
sg68
g1671
sbsg1766
(iconstruction
TP_SYNFORM
p5097
(dp5098
g585
I579
sg1769
(lp5099
(iconstruction
TP_PHON
p5100
(dp5101
g1779
I5
sg1776
I0
sg585
I584
sg1780
Vwagon
p5102
sg68
g5068
sbasg68
g1671
sbsg1787
I1
sba(iconstruction
CXN
p5103
(dp5104
g1729
(iconstruction
TP_SYMLINKS
p5105
(dp5106
g1732
(dp5107
VN1_589
p5108
VS1_591
p5109
ssg585
I587
sg68
g1671
sbsg1738
VN
p5110
sg1740
I1
sg68
VTREE
p5111
sg1741
(iconstruction
TP_SEMFRAME
p5112
(dp5113
g98
g0
(g99
g2
Ntp5114
Rp5115
(dp5116
g103
(dp5117
(iconstruction
TP_NODE
p5118
(dp5119
g1750
I00
sg87
g770
sg68
g5108
sg1751
I00
sg1752
I00
sg585
I589
sb(dp5120
g1751
I00
sg87
g770
ss(iconstruction
TP_NODE
p5121
(dp5122
g1750
I01
sg87
g743
sg68
VENT_588
p5123
sg1751
I01
sg1752
I00
sg585
I588
sb(dp5124
g1751
I01
sg87
g743
sssg286
g287
sg288
g287
sg289
(dp5125
g5118
(dp5126
sg5121
(dp5127
g5118
(dp5128
g87
g734
ssssg483
g5125
sg98
(dp5129
sg485
g287
sg486
g5125
sg487
(dp5130
g5118
(dp5131
g5121
g5128
ssg5121
(dp5132
ssbsg580
(lp5133
g5121
ag5118
asg853
(lp5134
(iconstruction
TP_REL
p5135
(dp5136
g859
g5118
sg87
g734
sg585
I590
sg860
g5121
sg68
VIS_590
p5137
sbasg585
I585
sg68
g1671
sbsg1766
(iconstruction
TP_SYNFORM
p5138
(dp5139
g585
I586
sg1769
(lp5140
(iconstruction
TP_PHON
p5141
(dp5142
g1779
I4
sg1776
I0
sg585
I591
sg1780
Vtree
p5143
sg68
g5109
sbasg68
g1671
sbsg1787
I1
sbasbsg68
g1684
sg70
(lp5144
g0
(g72
g2
Ntp5145
Rp5146
(dp5147
g1574
Nsg68
g1580
sg77
Nsg78
Nsg1576
Nsg295
g1519
sg585
I20
sg1520
g1790
sbag0
(g72
g2
Ntp5148
Rp5149
(dp5150
g68
S'to_cxn_retrieval_C'
p5151
sg77
Nsg78
g1721
sg295
g1519
sg585
I21
sg1520
g1790
sbasg1525
(dp5152
g1580
Nsg5151
Nssg1527
(lp5153
sg1530
F1.0
sg1531
(lp5154
sg1533
(dp5155
g1158
F0.3
ssg1535
I0
sg1536
I0
sg1156
g1539
sg585
I4
sS'schemas'
p5156
g1721
sbsg1158
F0.3
sbag0
(g1722
g2
Ntp5157
Rp5158
(dp5159
g68
g1808
sg85
g1798
sg1156
Nsg585
I100
sg1157
g1790
sg1158
F0.3
sbag0
(g1722
g2
Ntp5160
Rp5161
(dp5162
g68
g1859
sg85
g1849
sg1156
Nsg585
I101
sg1157
g1790
sg1158
F0.3
sbag0
(g1722
g2
Ntp5163
Rp5164
(dp5165
g68
g1912
sg85
g1900
sg1156
Nsg585
I102
sg1157
g1790
sg1158
F0.3
sbag0
(g1722
g2
Ntp5166
Rp5167
(dp5168
g68
g1991
sg85
g1979
sg1156
Nsg585
I103
sg1157
g1790
sg1158
F0.3
sbag0
(g1722
g2
Ntp5169
Rp5170
(dp5171
g68
g2066
sg85
g2054
sg1156
Nsg585
I104
sg1157
g1790
sg1158
F0.3
sbag0
(g1722
g2
Ntp5172
Rp5173
(dp5174
g68
g2155
sg85
g2141
sg1156
Nsg585
I105
sg1157
g1790
sg1158
F0.3
sbag0
(g1722
g2
Ntp5175
Rp5176
(dp5177
g68
g2246
sg85
g2232
sg1156
Nsg585
I106
sg1157
g1790
sg1158
F0.3
sbag0
(g1722
g2
Ntp5178
Rp5179
(dp5180
g68
g2337
sg85
g2327
sg1156
Nsg585
I107
sg1157
g1790
sg1158
F0.3
sbag0
(g1722
g2
Ntp5181
Rp5182
(dp5183
g68
g2399
sg85
g2389
sg1156
Nsg585
I108
sg1157
g1790
sg1158
F0.3
sbag0
(g1722
g2
Ntp5184
Rp5185
(dp5186
g68
g2458
sg85
g2448
sg1156
Nsg585
I109
sg1157
g1790
sg1158
F0.3
sbag0
(g1722
g2
Ntp5187
Rp5188
(dp5189
g68
g2510
sg85
g2500
sg1156
Nsg585
I110
sg1157
g1790
sg1158
F0.3
sbag0
(g1722
g2
Ntp5190
Rp5191
(dp5192
g68
g2557
sg85
g2547
sg1156
Nsg585
I111
sg1157
g1790
sg1158
F0.3
sbag0
(g1722
g2
Ntp5193
Rp5194
(dp5195
g68
g2606
sg85
g2594
sg1156
Nsg585
I112
sg1157
g1790
sg1158
F0.3
sbag0
(g1722
g2
Ntp5196
Rp5197
(dp5198
g68
g2686
sg85
g2676
sg1156
Nsg585
I113
sg1157
g1790
sg1158
F0.3
sbag0
(g1722
g2
Ntp5199
Rp5200
(dp5201
g68
g2754
sg85
g2742
sg1156
Nsg585
I114
sg1157
g1790
sg1158
F0.3
sbag0
(g1722
g2
Ntp5202
Rp5203
(dp5204
g68
g2848
sg85
g2836
sg1156
Nsg585
I115
sg1157
g1790
sg1158
F0.3
sbag0
(g1722
g2
Ntp5205
Rp5206
(dp5207
g68
g2930
sg85
g2918
sg1156
Nsg585
I116
sg1157
g1790
sg1158
F0.3
sbag0
(g1722
g2
Ntp5208
Rp5209
(dp5210
g68
g3022
sg85
g3012
sg1156
Nsg585
I117
sg1157
g1790
sg1158
F0.3
sbag0
(g1722
g2
Ntp5211
Rp5212
(dp5213
g68
g3087
sg85
g3077
sg1156
Nsg585
I118
sg1157
g1790
sg1158
F0.3
sbag0
(g1722
g2
Ntp5214
Rp5215
(dp5216
g68
g3166
sg85
g3158
sg1156
Nsg585
I119
sg1157
g1790
sg1158
F0.3
sbag0
(g1722
g2
Ntp5217
Rp5218
(dp5219
g68
g3207
sg85
g3199
sg1156
Nsg585
I120
sg1157
g1790
sg1158
F0.3
sbag0
(g1722
g2
Ntp5220
Rp5221
(dp5222
g68
g3248
sg85
g3240
sg1156
Nsg585
I121
sg1157
g1790
sg1158
F0.3
sbag0
(g1722
g2
Ntp5223
Rp5224
(dp5225
g68
g3289
sg85
g3281
sg1156
Nsg585
I122
sg1157
g1790
sg1158
F0.3
sbag0
(g1722
g2
Ntp5226
Rp5227
(dp5228
g68
g3330
sg85
g3322
sg1156
Nsg585
I123
sg1157
g1790
sg1158
F0.3
sbag0
(g1722
g2
Ntp5229
Rp5230
(dp5231
g68
g3371
sg85
g3363
sg1156
Nsg585
I124
sg1157
g1790
sg1158
F0.3
sbag0
(g1722
g2
Ntp5232
Rp5233
(dp5234
g68
g3412
sg85
g3404
sg1156
Nsg585
I125
sg1157
g1790
sg1158
F0.3
sbag0
(g1722
g2
Ntp5235
Rp5236
(dp5237
g68
g3457
sg85
g3449
sg1156
Nsg585
I126
sg1157
g1790
sg1158
F0.3
sbag0
(g1722
g2
Ntp5238
Rp5239
(dp5240
g68
g3502
sg85
g3494
sg1156
Nsg585
I127
sg1157
g1790
sg1158
F0.3
sbag0
(g1722
g2
Ntp5241
Rp5242
(dp5243
g68
g3543
sg85
g3535
sg1156
Nsg585
I128
sg1157
g1790
sg1158
F0.3
sbag0
(g1722
g2
Ntp5244
Rp5245
(dp5246
g68
g3584
sg85
g3576
sg1156
Nsg585
I129
sg1157
g1790
sg1158
F0.3
sbag0
(g1722
g2
Ntp5247
Rp5248
(dp5249
g68
g3625
sg85
g3617
sg1156
Nsg585
I130
sg1157
g1790
sg1158
F0.3
sbag0
(g1722
g2
Ntp5250
Rp5251
(dp5252
g68
g3666
sg85
g3658
sg1156
Nsg585
I131
sg1157
g1790
sg1158
F0.3
sbag0
(g1722
g2
Ntp5253
Rp5254
(dp5255
g68
g3707
sg85
g3699
sg1156
Nsg585
I132
sg1157
g1790
sg1158
F0.3
sbag0
(g1722
g2
Ntp5256
Rp5257
(dp5258
g68
g3748
sg85
g3740
sg1156
Nsg585
I133
sg1157
g1790
sg1158
F0.3
sbag0
(g1722
g2
Ntp5259
Rp5260
(dp5261
g68
g3779
sg85
g3771
sg1156
Nsg585
I134
sg1157
g1790
sg1158
F0.3
sbag0
(g1722
g2
Ntp5262
Rp5263
(dp5264
g68
g3810
sg85
g3802
sg1156
Nsg585
I135
sg1157
g1790
sg1158
F0.3
sbag0
(g1722
g2
Ntp5265
Rp5266
(dp5267
g68
g3841
sg85
g3833
sg1156
Nsg585
I136
sg1157
g1790
sg1158
F0.3
sbag0
(g1722
g2
Ntp5268
Rp5269
(dp5270
g68
g3872
sg85
g3864
sg1156
Nsg585
I137
sg1157
g1790
sg1158
F0.3
sbag0
(g1722
g2
Ntp5271
Rp5272
(dp5273
g68
g3903
sg85
g3895
sg1156
Nsg585
I138
sg1157
g1790
sg1158
F0.3
sbag0
(g1722
g2
Ntp5274
Rp5275
(dp5276
g68
g3934
sg85
g3926
sg1156
Nsg585
I139
sg1157
g1790
sg1158
F0.3
sbag0
(g1722
g2
Ntp5277
Rp5278
(dp5279
g68
g3965
sg85
g3957
sg1156
Nsg585
I140
sg1157
g1790
sg1158
F0.3
sbag0
(g1722
g2
Ntp5280
Rp5281
(dp5282
g68
g3996
sg85
g3988
sg1156
Nsg585
I141
sg1157
g1790
sg1158
F0.3
sbag0
(g1722
g2
Ntp5283
Rp5284
(dp5285
g68
g4037
sg85
g4029
sg1156
Nsg585
I142
sg1157
g1790
sg1158
F0.3
sbag0
(g1722
g2
Ntp5286
Rp5287
(dp5288
g68
g4078
sg85
g4070
sg1156
Nsg585
I143
sg1157
g1790
sg1158
F0.3
sbag0
(g1722
g2
Ntp5289
Rp5290
(dp5291
g68
g4119
sg85
g4111
sg1156
Nsg585
I144
sg1157
g1790
sg1158
F0.3
sbag0
(g1722
g2
Ntp5292
Rp5293
(dp5294
g68
g4160
sg85
g4152
sg1156
Nsg585
I145
sg1157
g1790
sg1158
F0.3
sbag0
(g1722
g2
Ntp5295
Rp5296
(dp5297
g68
g4201
sg85
g4193
sg1156
Nsg585
I146
sg1157
g1790
sg1158
F0.3
sbag0
(g1722
g2
Ntp5298
Rp5299
(dp5300
g68
g4242
sg85
g4234
sg1156
Nsg585
I147
sg1157
g1790
sg1158
F0.3
sbag0
(g1722
g2
Ntp5301
Rp5302
(dp5303
g68
g4283
sg85
g4275
sg1156
Nsg585
I148
sg1157
g1790
sg1158
F0.3
sbag0
(g1722
g2
Ntp5304
Rp5305
(dp5306
g68
g4324
sg85
g4316
sg1156
Nsg585
I149
sg1157
g1790
sg1158
F0.3
sbag0
(g1722
g2
Ntp5307
Rp5308
(dp5309
g68
g4365
sg85
g4357
sg1156
Nsg585
I150
sg1157
g1790
sg1158
F0.3
sbag0
(g1722
g2
Ntp5310
Rp5311
(dp5312
g68
g4406
sg85
g4398
sg1156
Nsg585
I151
sg1157
g1790
sg1158
F0.3
sbag0
(g1722
g2
Ntp5313
Rp5314
(dp5315
g68
g4451
sg85
g4443
sg1156
Nsg585
I152
sg1157
g1790
sg1158
F0.3
sbag0
(g1722
g2
Ntp5316
Rp5317
(dp5318
g68
g4492
sg85
g4484
sg1156
Nsg585
I153
sg1157
g1790
sg1158
F0.3
sbag0
(g1722
g2
Ntp5319
Rp5320
(dp5321
g68
g4533
sg85
g4525
sg1156
Nsg585
I154
sg1157
g1790
sg1158
F0.3
sbag0
(g1722
g2
Ntp5322
Rp5323
(dp5324
g68
g4574
sg85
g4566
sg1156
Nsg585
I155
sg1157
g1790
sg1158
F0.3
sbag0
(g1722
g2
Ntp5325
Rp5326
(dp5327
g68
g4615
sg85
g4607
sg1156
Nsg585
I156
sg1157
g1790
sg1158
F0.3
sbag0
(g1722
g2
Ntp5328
Rp5329
(dp5330
g68
g4656
sg85
g4648
sg1156
Nsg585
I157
sg1157
g1790
sg1158
F0.3
sbag0
(g1722
g2
Ntp5331
Rp5332
(dp5333
g68
g4701
sg85
g4693
sg1156
Nsg585
I158
sg1157
g1790
sg1158
F0.3
sbag0
(g1722
g2
Ntp5334
Rp5335
(dp5336
g68
g4742
sg85
g4734
sg1156
Nsg585
I159
sg1157
g1790
sg1158
F0.3
sbag0
(g1722
g2
Ntp5337
Rp5338
(dp5339
g68
g4783
sg85
g4775
sg1156
Nsg585
I160
sg1157
g1790
sg1158
F0.3
sbag0
(g1722
g2
Ntp5340
Rp5341
(dp5342
g68
g4824
sg85
g4816
sg1156
Nsg585
I161
sg1157
g1790
sg1158
F0.3
sbag0
(g1722
g2
Ntp5343
Rp5344
(dp5345
g68
g4865
sg85
g4857
sg1156
Nsg585
I162
sg1157
g1790
sg1158
F0.3
sbag0
(g1722
g2
Ntp5346
Rp5347
(dp5348
g68
g4906
sg85
g4898
sg1156
Nsg585
I163
sg1157
g1790
sg1158
F0.3
sbag0
(g1722
g2
Ntp5349
Rp5350
(dp5351
g68
g4947
sg85
g4939
sg1156
Nsg585
I164
sg1157
g1790
sg1158
F0.3
sbag0
(g1722
g2
Ntp5352
Rp5353
(dp5354
g68
g4988
sg85
g4980
sg1156
Nsg585
I165
sg1157
g1790
sg1158
F0.3
sbag0
(g1722
g2
Ntp5355
Rp5356
(dp5357
g68
g5029
sg85
g5021
sg1156
Nsg585
I166
sg1157
g1790
sg1158
F0.3
sbag0
(g1722
g2
Ntp5358
Rp5359
(dp5360
g68
g5070
sg85
g5062
sg1156
Nsg585
I167
sg1157
g1790
sg1158
F0.3
sbag0
(g1722
g2
Ntp5361
Rp5362
(dp5363
g68
g5111
sg85
g5103
sg1156
Nsg585
I168
sg1157
g1790
sg1158
F0.3
sbasg1576
Nsg295
g1555
sg585
I22
sg1520
g1706
sbag1701
asg1533
(dp5364
sg1535
I0
sg1536
I0
sg1156
g1539
sg585
I5
sbsbsS'port_from'
p5365
g1578
sg1156
g1539
sg585
I1
sbag0
(g1693
g2
Ntp5366
Rp5367
(dp5368
g1697
I0
sg68
g1671
sg1698
I0
sg1699
g1719
sg5365
g5146
sg1156
g1539
sg585
I2
sbag0
(g1693
g2
Ntp5369
Rp5370
(dp5371
g1697
I0
sg68
g1671
sg1698
I0
sg1699
g0
(g72
g2
Ntp5372
Rp5373
(dp5374
g1574
Nsg68
S'from_cxn_retrieval_P'
p5375
sg77
Nsg78
Nsg1576
Nsg295
g1555
sg585
I14
sg1520
g0
(clanguage_schemas
GRAMMATICAL_WM_P
p5376
g2
Ntp5377
Rp5378
(dp5379
g66
(dp5380
g5375
NsS'from_phonological_WM_P'
p5381
Nsg1703
Nsg1563
Nssg1565
(lp5382
sg68
g1680
sg1568
(lp5383
sg70
(lp5384
g0
(g72
g2
Ntp5385
Rp5386
(dp5387
g1574
Nsg68
g1524
sg77
Nsg78
Nsg1576
Nsg295
g1519
sg585
I17
sg1520
g5378
sbag0
(g72
g2
Ntp5388
Rp5389
(dp5390
g1574
Nsg68
S'to_phonological_WM_P'
p5391
sg77
Nsg78
Nsg1576
Nsg295
g1519
sg585
I18
sg1520
g5378
sbag0
(g72
g2
Ntp5392
Rp5393
(dp5394
g68
g1592
sg77
Nsg78
Nsg295
g1519
sg585
I19
sg1520
g5378
sbasg1525
(dp5395
g1592
Nsg5391
Nsg1524
Nssg1530
F1.0
sg1594
(lp5396
sg1531
(lp5397
g0
(g72
g2
Ntp5398
Rp5399
(dp5400
g1574
Nsg68
g1703
sg77
Nsg78
(dp5401
g580
(dp5402
VPUNCH_2091934
p5403
cnumpy.core.multiarray
scalar
p5404
(cnumpy
dtype
p5405
(S'f8'
p5406
I0
I1
tp5407
Rp5408
(I3
S'<'
p5409
NNNI-1
I-1
I0
tp5410
bS'\x07\xd9d\xcf\xad\xb1\xeb?'
p5411
tp5412
Rp5413
sVKICK_2091944
p5414
g5404
(g5408
S'\x8a\x92%\xd4\x9c\xb4\xeb?'
p5415
tp5416
Rp5417
sVWOMAN_2091929
p5418
g5404
(g5408
S'\xb1\xd5nAD\xa5\xeb?'
p5419
tp5420
Rp5421
sVACTION_2091942
p5422
g5404
(g5408
S'\x84\xbc\x1d]\xfd\xa7\xeb?'
p5423
tp5424
Rp5425
sVMAN_2091926
p5426
g5404
(g5408
S'\xa4\xdeD\x87$\x92\xeb?'
p5427
tp5428
Rp5429
sVEVENT_2091941
p5430
g5404
(g5408
S'\x19J\xde\x97\xc8\x96\xeb?'
p5431
tp5432
Rp5433
sVENTITY_2091928
p5434
g5404
(g5408
S'\xea\xcc\xe1\x05%\x86\xeb?'
p5435
tp5436
Rp5437
sVENTITY_2091938
p5438
g5404
(g5408
S'] Ay\x87\xa3\xeb?'
p5439
tp5440
Rp5441
sVWATERING_CAN_2091939
p5442
g5404
(g5408
S'\xb5H%\xb5\xeb\xa1\xeb?'
p5443
tp5444
Rp5445
sVEVENT_2091931
p5446
g5404
(g5408
S'\xdc\xf5\xeb\\\xd6\xae\xeb?'
p5447
tp5448
Rp5449
sVENTITY_2091925
p5450
g5404
(g5408
S'\xee\xcd\xde\xbd\xc3\xa8\xeb?'
p5451
tp5452
Rp5453
sVACTION_2091932
p5454
g5404
(g5408
S'\xe5\xb8\\k\xc1\xa4\xeb?'
p5455
tp5456
Rp5457
ssg853
(dp5458
(g5454
g5450
tp5459
g5404
(g5408
S'\xa5\x87\xc3{$\xb1\xeb?'
p5460
tp5461
Rp5462
s(g5422
g5450
tp5463
g5404
(g5408
S'\xb2\x80\x070t\xa4\xeb?'
p5464
tp5465
Rp5466
s(g5450
g5430
tp5467
g5404
(g5408
S'\xd9\xa7\x0e\x9e\x16\x9a\xeb?'
p5468
tp5469
Rp5470
s(g5422
g5438
tp5471
g5404
(g5408
S'{\x95\xbc\xdb\x1a\x85\xeb?'
p5472
tp5473
Rp5474
s(g5422
g5414
tp5475
g5404
(g5408
S'\x93A\x88\xa9\x01\x94\xeb?'
p5476
tp5477
Rp5478
s(g5450
g5426
tp5479
g5404
(g5408
S'\xde\xcf\xd2\x9a|\xa1\xeb?'
p5480
tp5481
Rp5482
s(g5446
g5454
tp5483
g5404
(g5408
S'\x98\xfe\x00\xcd\x96\xab\xeb?'
p5484
tp5485
Rp5486
s(g5434
g5418
tp5487
g5404
(g5408
S"q\xbd\xa0\xa3'\x91\xeb?"
p5488
tp5489
Rp5490
s(g5430
g5422
tp5491
g5404
(g5408
S'\xa2\x0c\xa8\x0b;\x95\xeb?'
p5492
tp5493
Rp5494
s(g5454
g5434
tp5495
g5404
(g5408
S'\xe0\x13_;{\xa3\xeb?'
p5496
tp5497
Rp5498
s(g5454
g5403
tp5499
g5404
(g5408
S'1/\xe0o2\x98\xeb?'
p5500
tp5501
Rp5502
s(g5438
g5442
tp5503
g5404
(g5408
S'O\x9b\xe9o\x85\x96\xeb?'
p5504
tp5505
Rp5506
sssg1576
Nsg295
g1555
sg585
I13
sg1520
g5378
sbag5373
ag0
(g72
g2
Ntp5507
Rp5508
(dp5509
g1574
Nsg68
g1563
sg77
Nsg78
(dp5510
S'params_style'
p5511
(dp5512
S'continuity'
p5513
F0.1
sS'form_length'
p5514
F0.0
sS'sem_length'
p5515
F0.5
sS'activation'
p5516
F0.7
ssS'pressure'
p5517
g5404
(g5408
S'+\x87\x16\xd9\xce\xf7\xef?'
p5518
tp5519
Rp5520
sg1609
I01
ssg1576
Nsg295
g1555
sg585
I15
sg1520
g5378
sbag0
(g72
g2
Ntp5521
Rp5522
(dp5523
g1574
Nsg68
g5381
sg77
Nsg78
(lp5524
sg1576
Nsg295
g1555
sg585
I16
sg1520
g5378
sbasg1610
(dp5525
g1612
(dp5526
sg1614
(dp5527
g1616
(lp5528
sg1618
(dp5529
g1620
(lp5530
sg1622
(lp5531
sg1624
(lp5532
ssg1626
(lp5533
sg1535
(lp5534
sg1629
(lp5535
sssg1533
(dp5536
g1632
(dp5537
g1634
F1.0
sS'deact_weight'
p5538
F0.0
sg1635
F-10.0
sg1636
F1.0
sg1637
F1.0
sg1638
F1.0
sS'sub_threshold_r'
p5539
F0.8
sg1639
F0.3
sg1640
F0.0
sg1641
F0.01
ssg1642
(dp5540
g1644
g5404
(g5408
S'\x00\x00\x00\x00\x00@\x8f@'
p5541
tp5542
Rp5543
sg1645
g5404
(g5408
S'\x00\x00\x00\x00\x00\x00$@'
p5544
tp5545
Rp5546
sg1646
F0.001
sg1647
F0.0
sg1648
g5404
(g5408
S'\x00\x00\x00\x00\x00\x00\x00@'
p5547
tp5548
Rp5549
sg1649
g5404
(g5408
S'\x00\x00\x00\x00\x00\x00$@'
p5550
tp5551
Rp5552
sg1650
F1.0
ssS'style'
p5553
(dp5554
g5513
F0.1
sg5514
F0.0
sg5515
F0.5
sg5516
F0.7
sssg1535
I0
sg1536
I0
sg1156
g1539
sg585
I3
sbsbsg5365
g1712
sg1156
g1539
sg585
I3
sbag0
(g1693
g2
Ntp5555
Rp5556
(dp5557
g1697
I0
sg68
g1671
sg1698
I0
sg1699
g5399
sg5365
g1572
sg1156
g1539
sg585
I4
sbag0
(g1693
g2
Ntp5558
Rp5559
(dp5560
g1697
I0
sg68
g1671
sg1698
I0
sg1699
g1604
sg5365
g5386
sg1156
g1539
sg585
I5
sbag0
(g1693
g2
Ntp5561
Rp5562
(dp5563
g1697
I0
sg68
g1671
sg1698
I0
sg1699
g0
(g72
g2
Ntp5564
Rp5565
(dp5566
g1574
Nsg68
g1561
sg77
Nsg78
Nsg1576
Nsg295
g1555
sg585
I25
sg1520
g0
(clanguage_schemas
PHON_WM_P
p5567
g2
Ntp5568
Rp5569
(dp5570
g66
(dp5571
g1561
Nssg1565
(lp5572
sg68
g1676
sg1568
(lp5573
sg70
(lp5574
g0
(g72
g2
Ntp5575
Rp5576
(dp5577
g1574
Nsg68
S'to_utter'
p5578
sg77
Nsg78
Nsg1576
Nsg295
g1519
sg585
I26
sg1520
g5569
sbag0
(g72
g2
Ntp5579
Rp5580
(dp5581
g1574
Nsg68
g1575
sg77
Nsg78
Nsg1576
Nsg295
g1519
sg585
I27
sg1520
g5569
sbag0
(g72
g2
Ntp5582
Rp5583
(dp5584
g1574
Nsg68
g1584
sg77
Nsg78
Nsg1576
Nsg295
g1519
sg585
I28
sg1520
g5569
sbag0
(g72
g2
Ntp5585
Rp5586
(dp5587
g68
g1592
sg77
Nsg78
Nsg295
g1519
sg585
I29
sg1520
g5569
sbasg1525
(dp5588
g1592
Nsg1575
Nsg5578
Nsg1584
NssS'needs_filler'
p5589
I01
sg1530
F1.0
sg1594
(lp5590
sg1531
(lp5591
g5565
asS'filler'
p5592
S'....'
p5593
sg1610
(dp5594
g1612
(dp5595
sg1614
(dp5596
g1616
(lp5597
sg1618
(dp5598
g1620
(lp5599
sg1622
(lp5600
sg1624
(lp5601
ssg1626
(lp5602
sg1535
(lp5603
sg1629
(lp5604
sssg1533
(dp5605
g1632
(dp5606
g1634
F1.0
sg1635
F0.0
sg1636
F1.0
sg1637
F1.0
sg1638
F0.0
sg1639
F0.0
sg1640
F0.0
sg1641
F0.01
ssg1642
(dp5607
g1644
F100.0
sg1645
F10.0
sg1646
F0.001
sg1647
F0.0
sg1648
F1.0
sg1649
F1.0
sg1650
F1.0
sssg1535
I0
sg1536
I0
sg1156
g1539
sS'phon_sequence'
p5608
(lp5609
sg585
I6
sbsbsg5365
g5389
sg1156
g1539
sg585
I6
sbag0
(g1693
g2
Ntp5610
Rp5611
(dp5612
g1697
I0
sg68
g1671
sg1698
I0
sg1699
g5522
sg5365
g5580
sg1156
g1539
sg585
I7
sbag0
(g1693
g2
Ntp5613
Rp5614
(dp5615
g1697
I0
sg68
g1671
sg1698
I0
sg1699
g0
(g72
g2
Ntp5616
Rp5617
(dp5618
g1574
Nsg68
g1703
sg77
Nsg78
I01
sg1576
Nsg295
g1555
sg585
I32
sg1520
g0
(clanguage_schemas
CONTROL
p5619
g2
Ntp5620
Rp5621
(dp5622
g66
(dp5623
g5381
Nsg1703
Nssg68
g1666
sg70
(lp5624
g0
(g72
g2
Ntp5625
Rp5626
(dp5627
g1574
Nsg68
g1524
sg77
Nsg78
Nsg1576
Nsg295
g1519
sg585
I34
sg1520
g5621
sbag0
(g72
g2
Ntp5628
Rp5629
(dp5630
g1574
Nsg68
g1575
sg77
Nsg78
Nsg1576
Nsg295
g1519
sg585
I35
sg1520
g5621
sbag0
(g72
g2
Ntp5631
Rp5632
(dp5633
g68
S'to_grammatical_WM_C'
p5634
sg77
Nsg78
I00
sg295
g1519
sg585
I36
sg1520
g5621
sbasg1525
(dp5635
g1575
Nsg5634
Nsg1524
Nssg1530
F1.0
sg1531
(lp5636
g5617
ag0
(g72
g2
Ntp5637
Rp5638
(dp5639
g1574
Nsg68
g5381
sg77
Nsg78
Nsg1576
Nsg295
g1555
sg585
I33
sg1520
g5621
sbasS'state'
p5640
(dp5641
g1609
I00
sS'unexpressed_sem'
p5642
I00
sS'mode'
p5643
g1609
sS'last_prod_time'
p5644
I0
ssg1533
(dp5645
g5553
(dp5646
g5513
F0.1
sg5514
F0.0
sg5516
F0.7
sg5515
F0.5
ssS'task'
p5647
(dp5648
S'time_pressure'
p5649
g5404
(g5408
S'\x00\x00\x00\x00\x00@\x8f@'
p5650
tp5651
Rp5652
sS'start_produce'
p5653
g5404
(g5408
S'\x00\x00\x00\x00\x00@\x8f@'
p5654
tp5655
Rp5656
sssg1535
I0
sg1536
I0
sg1156
g1539
sg585
I8
sbsbsg5365
g1582
sg1156
g1539
sg585
I8
sbag0
(g1693
g2
Ntp5657
Rp5658
(dp5659
g1697
I0
sg68
g1671
sg1698
I0
sg1699
g0
(g72
g2
Ntp5660
Rp5661
(dp5662
g1574
Nsg68
g5381
sg77
Nsg78
Nsg1576
Nsg295
g1555
sg585
I30
sg1520
g0
(clanguage_schemas
UTTER
p5663
g2
Ntp5664
Rp5665
(dp5666
g66
(dp5667
g5381
Nssg68
g1669
sg70
(lp5668
g0
(g72
g2
Ntp5669
Rp5670
(dp5671
g68
g1592
sg77
Nsg78
Nsg295
g1519
sg585
I31
sg1520
g5665
sbasg1525
(dp5672
g1592
NssS'utterance_stack'
p5673
(lp5674
sg1530
F1.0
sg1531
(lp5675
g5661
asg1533
(dp5676
S'speech_rate'
p5677
F1.0
ssg1535
I0
sg1536
I0
sg1156
g1539
sg585
I7
sbsbsg5365
g5576
sg1156
g1539
sg585
I9
sbag0
(g1693
g2
Ntp5678
Rp5679
(dp5680
g1697
I0
sg68
g1671
sg1698
I0
sg1699
g5638
sg5365
g5583
sg1156
g1539
sg585
I10
sbag0
(g1693
g2
Ntp5681
Rp5682
(dp5683
g1697
I0
sg68
g1671
sg1698
I0
sg1699
g5508
sg5365
g5629
sg1156
g1539
sg585
I11
sbag0
(g1693
g2
Ntp5684
Rp5685
(dp5686
g1697
I0
sg68
g1671
sg1698
I0
sg1699
g1607
sg5365
g5626
sg1156
g1539
sg585
I12
sbasg1533
(dp5687
g1666
g5645
sg1676
g5605
sg69
g1534
sg1684
g5155
sg1688
g5364
sg1567
g1631
sg1669
g5676
sg1680
g5536
ssg1535
F0.0
sS'set_up_time'
p5688
I10
sS'input'
p5689
NsS'default_params'
p5690
Nsg1530
F1.0
sS'output_ports'
p5691
(lp5692
g5670
ag5586
ag5393
ag1590
asg5156
(dp5693
g1666
g5621
sg1676
g5569
sg69
g64
sg1688
g1706
sg1680
g5378
sg1567
g1558
sg1669
g5665
sg1684
g1790
ssbsg585
I2
sg5156
g79
sbsS'speed_param'
p5694
I100
sS'ground_truths'
p5695
(lp5696
Vwoman punch man who kick can
p5697
aVman who kick can is punch -ed by woman
p5698
aVwoman punch man can is punch -ed by
p5699
aVman can is punch -ed by is punch -ed by woman
p5700
aVlady punch man who kick can
p5701
aVman who kick can is punch -ed by lady
p5702
aVlady punch man can is punch -ed by
p5703
aVman can is kick -ed by is punch -ed by lady
p5704
asS'is_macro'
p5705
I01
sb.