ccopy_reg
_reconstructor
p0
(clanguage_schemas
SEM_GENERATOR
p1
c__builtin__
object
p2
Ntp3
Rp4
(dp5
S'sem_inputs'
p6
(dp7
S'{}'
p8
(dp9
Vtiming
p10
(lp11
F0.0
asVsem_rate
p12
I1
sVpropositions
p13
(dp14
VP1
p15
(lp16
VENTITY(e1,F)
p17
aVMAN(man)
p18
aVIS(is1)
p19
aVis1(e1, man)
p20
aVENTITY(e2,F)
p21
aVWOMAN(woman)
p22
aVIS(is2)
p23
aVis2(e2, woman)
p24
aVEVENT(evt1,F)
p25
aVACTION(a1,F)
p26
aVIS(is3)
p27
aVis3(evt1,a1)
p28
aVKICK(kick)
p29
aVIS(is4)
p30
aVis4(a1, kick)
p31
aVAGENT(agt)
p32
aVPATIENT(pt)
p33
aVagt(a1, e2)
p34
aVpt(a1, e1)
p35
assVcomments
p36
Vtest transitive static.
p37
sVsequence
p38
(lp39
VP1
p40
asssS'conceptLTM'
p41
g0
(clanguage_schemas
CONCEPT_LTM
p42
g2
Ntp43
Rp44
(dp45
S'inputs'
p46
(dp47
sS'name'
p48
S'Concept_LTM'
p49
sS'out_ports'
p50
(lp51
g0
(cschema_theory
PORT
p52
g2
Ntp53
Rp54
(dp55
g48
S'to_conceptualizer'
p56
sS'data'
p57
NsS'value'
p58
(lp59
g0
(clanguage_schemas
CPT_EVENT_SCHEMA
p60
g2
Ntp61
Rp62
(dp63
g48
S'?'
p64
sS'content'
p65
(dp66
S'concept'
p67
g0
(cconcept
CONCEPT
p68
g2
Ntp69
Rp70
(dp71
S'meaning'
p72
g64
sS'conceptual_knowledge'
p73
g0
(cconcept
CONCEPTUAL_KNOWLEDGE
p74
g2
Ntp75
Rp76
(dp77
S'graph'
p78
g0
(cnetworkx.classes.digraph
DiGraph
p79
g2
Ntp80
Rp81
(dp82
S'node'
p83
(dp84
I1
(dp85
g72
g64
ssI2
(dp86
g72
S'CONCEPT'
p87
ssI3
(dp88
g72
VACTION
p89
ssI4
(dp90
g72
VSYMMETRIC
p91
ssI5
(dp92
g72
VMEET
p93
ssI6
(dp94
g72
VSHAKE_HANDS
p95
ssI7
(dp96
g72
VINTRANSITIVE
p97
ssI8
(dp98
g72
VLAUGH
p99
ssI9
(dp100
g72
VTRANSITIVE
p101
ssI10
(dp102
g72
VHIT
p103
ssI11
(dp104
g72
VWATCH
p105
ssI12
(dp106
g72
VPUNCH
p107
ssI13
(dp108
g72
VSPLASH
p109
ssI14
(dp110
g72
VTALK
p111
ssI15
(dp112
g72
VKISS
p113
ssI16
(dp114
g72
VSQUIRT
p115
ssI17
(dp116
g72
VKICK
p117
ssI18
(dp118
g72
VWEAR
p119
ssI19
(dp120
g72
VDITRANSITIVE
p121
ssI20
(dp122
g72
VSEND
p123
ssI21
(dp124
g72
VGIVE
p125
ssI22
(dp126
g72
VPROPERTY
p127
ssI23
(dp128
g72
VCOLOR
p129
ssI24
(dp130
g72
VBLUE
p131
ssI25
(dp132
g72
VGREEN
p133
ssI26
(dp134
g72
VWHITE
p135
ssI27
(dp136
g72
VBLACK
p137
ssI28
(dp138
g72
VRED
p139
ssI29
(dp140
g72
VAPPEARANCE
p141
ssI30
(dp142
g72
VYOUNG
p143
ssI31
(dp144
g72
VPRETTY
p145
ssI32
(dp146
g72
VHANDSOME
p147
ssI33
(dp148
g72
VSIZE
p149
ssI34
(dp150
g72
VSMALL
p151
ssI35
(dp152
g72
VBIG
p153
ssI36
(dp154
g72
VRELATION
p155
ssI37
(dp156
g72
VACTION_FRAME
p157
ssI38
(dp158
g72
VMODIFY
p159
ssI39
(dp160
g72
VTHEME
p161
ssI40
(dp162
g72
VRECIPIENT
p163
ssI41
(dp164
g72
VATTR
p165
ssI42
(dp166
g72
VAGT_PT
p167
ssI43
(dp168
g72
VPATIENT
p169
ssI44
(dp170
g72
VAGT+PT
p171
ssI45
(dp172
g72
VAGENT
p173
ssI46
(dp174
g72
VEVENT_FRAME
p175
ssI47
(dp176
g72
VTEMPORAL
p177
ssI48
(dp178
g72
VCONCURRENT
p179
ssI49
(dp180
g72
VSUCCESSIVE
p181
ssI50
(dp182
g72
VSPATIAL
p183
ssI51
(dp184
g72
VIN
p185
ssI52
(dp186
g72
VIS
p187
ssI53
(dp188
g72
VOBJECT_FRAME
p189
ssI54
(dp190
g72
VEVENT
p191
ssI55
(dp192
g72
VENTITY
p193
ssI56
(dp194
g72
VANIMATE
p195
ssI57
(dp196
g72
VANIMAL
p197
ssI58
(dp198
g72
VHUMAN
p199
ssI59
(dp200
g72
VOBJECT
p201
ssI60
(dp202
g72
VITEM
p203
ssI61
(dp204
g72
VWAGON
p205
ssI62
(dp206
g72
VWATERING_CAN
p207
ssI63
(dp208
g72
VBAG
p209
ssI64
(dp210
g72
VTREE
p211
ssI65
(dp212
g72
VHOOK
p213
ssI66
(dp214
g72
VCELLO
p215
ssI67
(dp216
g72
VBOOKSHELF
p217
ssI68
(dp218
g72
VCLOTHING
p219
ssI69
(dp220
g72
VTSHIRT
p221
ssI70
(dp222
g72
VDRESS
p223
ssI71
(dp224
g72
VSHIRT
p225
ssI72
(dp226
g72
VSUIT
p227
ssI73
(dp228
g72
VTURTLE
p229
ssI74
(dp230
g72
VMOUSE
p231
ssI75
(dp232
g72
VDOG
p233
ssI76
(dp234
g72
VBOY
p235
ssI77
(dp236
g72
VWOMAN
p237
ssI78
(dp238
g72
VPEOPLE
p239
ssI79
(dp240
g72
VPOLICEMAN
p241
ssI80
(dp242
g72
VHUNTER
p243
ssI81
(dp244
g72
VBALLERINA
p245
ssI82
(dp246
g72
VCELLIST
p247
ssI83
(dp248
g72
VGIRL
p249
ssI84
(dp250
g72
VFENCER
p251
ssI85
(dp252
g72
VROBBER
p253
ssI86
(dp254
g72
VMAN
p255
ssI87
(dp256
g72
VPLACE
p257
ssI88
(dp258
g72
VBOXINGRING
p259
ssI89
(dp260
g72
VPARK
p261
ssI90
(dp262
g72
VMALE
p263
ssI91
(dp264
g72
VFEMALE
p265
sssS'node_dict_factory'
p266
c__builtin__
dict
p267
sS'edge_attr_dict_factory'
p268
g267
sS'succ'
p269
(dp270
I1
(dp271
sI2
(dp272
sI3
(dp273
I2
(dp274
S'type'
p275
S'is_a'
p276
sssI4
(dp277
I3
(dp278
g275
g276
sssI5
(dp279
I4
(dp280
g275
g276
sssI6
(dp281
I4
(dp282
g275
g276
sssI7
(dp283
I3
(dp284
g275
g276
sssI8
(dp285
I7
(dp286
g275
g276
sssI9
(dp287
I3
(dp288
g275
g276
sssI10
(dp289
I9
(dp290
g275
g276
sssI11
(dp291
I9
(dp292
g275
g276
sssI12
(dp293
I9
(dp294
g275
g276
sssI13
(dp295
I9
(dp296
g275
g276
sssI14
(dp297
I9
(dp298
g275
g276
sssI15
(dp299
I9
(dp300
g275
g276
sssI16
(dp301
I9
(dp302
g275
g276
sssI17
(dp303
I9
(dp304
g275
g276
sssI18
(dp305
I9
(dp306
g275
g276
sssI19
(dp307
I3
(dp308
g275
g276
sssI20
(dp309
I19
(dp310
g275
g276
sssI21
(dp311
I19
(dp312
g275
g276
sssI22
(dp313
I2
(dp314
g275
g276
sssI23
(dp315
I22
(dp316
g275
g276
sssI24
(dp317
I23
(dp318
g275
g276
sssI25
(dp319
I23
(dp320
g275
g276
sssI26
(dp321
I23
(dp322
g275
g276
sssI27
(dp323
I23
(dp324
g275
g276
sssI28
(dp325
I23
(dp326
g275
g276
sssI29
(dp327
I22
(dp328
g275
g276
sssI30
(dp329
I29
(dp330
g275
g276
sssI31
(dp331
I29
(dp332
g275
g276
sssI32
(dp333
I29
(dp334
g275
g276
sssI33
(dp335
I22
(dp336
g275
g276
sssI34
(dp337
I33
(dp338
g275
g276
sssI35
(dp339
I33
(dp340
g275
g276
sssI36
(dp341
I2
(dp342
g275
g276
sssI37
(dp343
I36
(dp344
g275
g276
sssI38
(dp345
I37
(dp346
g275
g276
ssI53
(dp347
g275
g276
sssI39
(dp348
I37
(dp349
g275
g276
sssI40
(dp350
I37
(dp351
g275
g276
sssI41
(dp352
I37
(dp353
g275
g276
ssI53
(dp354
g275
g276
sssI42
(dp355
I37
(dp356
g275
g276
sssI43
(dp357
I42
(dp358
g275
g276
sssI44
(dp359
I43
(dp360
g275
g276
ssI45
(dp361
g275
g276
sssI45
(dp362
I42
(dp363
g275
g276
sssI46
(dp364
I36
(dp365
g275
g276
sssI47
(dp366
I46
(dp367
g275
g276
sssI48
(dp368
I47
(dp369
g275
g276
sssI49
(dp370
I47
(dp371
g275
g276
sssI50
(dp372
I46
(dp373
g275
g276
sssI51
(dp374
I50
(dp375
g275
g276
sssI52
(dp376
I36
(dp377
g275
g276
sssI53
(dp378
I36
(dp379
g275
g276
sssI54
(dp380
I2
(dp381
g275
g276
sssI55
(dp382
I2
(dp383
g275
g276
sssI56
(dp384
I55
(dp385
g275
g276
sssI57
(dp386
I56
(dp387
g275
g276
ssI59
(dp388
g275
g276
sssI58
(dp389
I56
(dp390
g275
g276
ssI59
(dp391
g275
g276
sssI59
(dp392
I55
(dp393
g275
g276
sssI60
(dp394
I59
(dp395
g275
g276
sssI61
(dp396
I60
(dp397
g275
g276
sssI62
(dp398
I60
(dp399
g275
g276
sssI63
(dp400
I60
(dp401
g275
g276
sssI64
(dp402
I60
(dp403
g275
g276
sssI65
(dp404
I60
(dp405
g275
g276
sssI66
(dp406
I60
(dp407
g275
g276
sssI67
(dp408
I60
(dp409
g275
g276
sssI68
(dp410
I60
(dp411
g275
g276
sssI69
(dp412
I68
(dp413
g275
g276
sssI70
(dp414
I68
(dp415
g275
g276
sssI71
(dp416
I68
(dp417
g275
g276
sssI72
(dp418
I68
(dp419
g275
g276
sssI73
(dp420
I57
(dp421
g275
g276
sssI74
(dp422
I57
(dp423
g275
g276
sssI75
(dp424
I57
(dp425
g275
g276
sssI76
(dp426
I58
(dp427
g275
g276
ssI90
(dp428
g275
g276
sssI77
(dp429
I58
(dp430
g275
g276
ssI91
(dp431
g275
g276
sssI78
(dp432
I58
(dp433
g275
g276
sssI79
(dp434
I58
(dp435
g275
g276
sssI80
(dp436
I58
(dp437
g275
g276
sssI81
(dp438
I58
(dp439
g275
g276
ssI91
(dp440
g275
g276
sssI82
(dp441
I58
(dp442
g275
g276
sssI83
(dp443
I58
(dp444
g275
g276
ssI91
(dp445
g275
g276
sssI84
(dp446
I58
(dp447
g275
g276
sssI85
(dp448
I58
(dp449
g275
g276
sssI86
(dp450
I58
(dp451
g275
g276
ssI90
(dp452
g275
g276
sssI87
(dp453
I55
(dp454
g275
g276
sssI88
(dp455
I87
(dp456
g275
g276
sssI89
(dp457
I87
(dp458
g275
g276
sssI90
(dp459
I55
(dp460
g275
g276
sssI91
(dp461
I55
(dp462
g275
g276
ssssS'edge'
p463
g270
sg78
(dp464
sS'adjlist_dict_factory'
p465
g267
sS'adj'
p466
g270
sS'pred'
p467
(dp468
I1
(dp469
sI2
(dp470
I3
g274
sI36
g342
sI54
g381
sI22
g314
sI55
g383
ssI3
(dp471
I9
g288
sI19
g308
sI4
g278
sI7
g284
ssI4
(dp472
I5
g280
sI6
g282
ssI5
(dp473
sI6
(dp474
sI7
(dp475
I8
g286
ssI8
(dp476
sI9
(dp477
I10
g290
sI11
g292
sI12
g294
sI13
g296
sI14
g298
sI15
g300
sI16
g302
sI17
g304
sI18
g306
ssI10
(dp478
sI11
(dp479
sI12
(dp480
sI13
(dp481
sI14
(dp482
sI15
(dp483
sI16
(dp484
sI17
(dp485
sI18
(dp486
sI19
(dp487
I20
g310
sI21
g312
ssI20
(dp488
sI21
(dp489
sI22
(dp490
I33
g336
sI29
g328
sI23
g316
ssI23
(dp491
I24
g318
sI25
g320
sI26
g322
sI27
g324
sI28
g326
ssI24
(dp492
sI25
(dp493
sI26
(dp494
sI27
(dp495
sI28
(dp496
sI29
(dp497
I32
g334
sI30
g330
sI31
g332
ssI30
(dp498
sI31
(dp499
sI32
(dp500
sI33
(dp501
I34
g338
sI35
g340
ssI34
(dp502
sI35
(dp503
sI36
(dp504
I52
g377
sI37
g344
sI46
g365
sI53
g379
ssI37
(dp505
I40
g351
sI41
g353
sI42
g356
sI38
g346
sI39
g349
ssI38
(dp506
sI39
(dp507
sI40
(dp508
sI41
(dp509
sI42
(dp510
I43
g358
sI45
g363
ssI43
(dp511
I44
g360
ssI44
(dp512
sI45
(dp513
I44
g361
ssI46
(dp514
I50
g373
sI47
g367
ssI47
(dp515
I48
g369
sI49
g371
ssI48
(dp516
sI49
(dp517
sI50
(dp518
I51
g375
ssI51
(dp519
sI52
(dp520
sI53
(dp521
I41
g354
sI38
g347
ssI54
(dp522
sI55
(dp523
I56
g385
sI91
g462
sI90
g460
sI59
g393
sI87
g454
ssI56
(dp524
I57
g387
sI58
g390
ssI57
(dp525
I73
g421
sI74
g423
sI75
g425
ssI58
(dp526
I76
g427
sI77
g430
sI78
g433
sI79
g435
sI80
g437
sI81
g439
sI82
g442
sI83
g444
sI84
g447
sI85
g449
sI86
g451
ssI59
(dp527
I57
g388
sI58
g391
sI60
g395
ssI60
(dp528
I64
g403
sI65
g405
sI66
g407
sI67
g409
sI68
g411
sI61
g397
sI62
g399
sI63
g401
ssI61
(dp529
sI62
(dp530
sI63
(dp531
sI64
(dp532
sI65
(dp533
sI66
(dp534
sI67
(dp535
sI68
(dp536
I72
g419
sI69
g413
sI70
g415
sI71
g417
ssI69
(dp537
sI70
(dp538
sI71
(dp539
sI72
(dp540
sI73
(dp541
sI74
(dp542
sI75
(dp543
sI76
(dp544
sI77
(dp545
sI78
(dp546
sI79
(dp547
sI80
(dp548
sI81
(dp549
sI82
(dp550
sI83
(dp551
sI84
(dp552
sI85
(dp553
sI86
(dp554
sI87
(dp555
I88
g456
sI89
g458
ssI88
(dp556
sI89
(dp557
sI90
(dp558
I76
g428
sI86
g452
ssI91
(dp559
I81
g440
sI83
g445
sI77
g431
sssbsS'nodes'
p560
(lp561
g70
ag0
(g68
g2
Ntp562
Rp563
(dp564
g72
g87
sg73
g76
sS'id'
p565
I2
sg48
g87
sbag0
(g68
g2
Ntp566
Rp567
(dp568
g72
g89
sg73
g76
sg565
I3
sg48
g89
sbag0
(g68
g2
Ntp569
Rp570
(dp571
g72
g91
sg73
g76
sg565
I4
sg48
g91
sbag0
(g68
g2
Ntp572
Rp573
(dp574
g72
g93
sg73
g76
sg565
I5
sg48
g93
sbag0
(g68
g2
Ntp575
Rp576
(dp577
g72
g95
sg73
g76
sg565
I6
sg48
g95
sbag0
(g68
g2
Ntp578
Rp579
(dp580
g72
g97
sg73
g76
sg565
I7
sg48
g97
sbag0
(g68
g2
Ntp581
Rp582
(dp583
g72
g99
sg73
g76
sg565
I8
sg48
g99
sbag0
(g68
g2
Ntp584
Rp585
(dp586
g72
g101
sg73
g76
sg565
I9
sg48
g101
sbag0
(g68
g2
Ntp587
Rp588
(dp589
g72
g103
sg73
g76
sg565
I10
sg48
g103
sbag0
(g68
g2
Ntp590
Rp591
(dp592
g72
g105
sg73
g76
sg565
I11
sg48
g105
sbag0
(g68
g2
Ntp593
Rp594
(dp595
g72
g107
sg73
g76
sg565
I12
sg48
g107
sbag0
(g68
g2
Ntp596
Rp597
(dp598
g72
g109
sg73
g76
sg565
I13
sg48
g109
sbag0
(g68
g2
Ntp599
Rp600
(dp601
g72
g111
sg73
g76
sg565
I14
sg48
g111
sbag0
(g68
g2
Ntp602
Rp603
(dp604
g72
g113
sg73
g76
sg565
I15
sg48
g113
sbag0
(g68
g2
Ntp605
Rp606
(dp607
g72
g115
sg73
g76
sg565
I16
sg48
g115
sbag0
(g68
g2
Ntp608
Rp609
(dp610
g72
g117
sg73
g76
sg565
I17
sg48
g117
sbag0
(g68
g2
Ntp611
Rp612
(dp613
g72
g119
sg73
g76
sg565
I18
sg48
g119
sbag0
(g68
g2
Ntp614
Rp615
(dp616
g72
g121
sg73
g76
sg565
I19
sg48
g121
sbag0
(g68
g2
Ntp617
Rp618
(dp619
g72
g123
sg73
g76
sg565
I20
sg48
g123
sbag0
(g68
g2
Ntp620
Rp621
(dp622
g72
g125
sg73
g76
sg565
I21
sg48
g125
sbag0
(g68
g2
Ntp623
Rp624
(dp625
g72
g127
sg73
g76
sg565
I22
sg48
g127
sbag0
(g68
g2
Ntp626
Rp627
(dp628
g72
g129
sg73
g76
sg565
I23
sg48
g129
sbag0
(g68
g2
Ntp629
Rp630
(dp631
g72
g131
sg73
g76
sg565
I24
sg48
g131
sbag0
(g68
g2
Ntp632
Rp633
(dp634
g72
g133
sg73
g76
sg565
I25
sg48
g133
sbag0
(g68
g2
Ntp635
Rp636
(dp637
g72
g135
sg73
g76
sg565
I26
sg48
g135
sbag0
(g68
g2
Ntp638
Rp639
(dp640
g72
g137
sg73
g76
sg565
I27
sg48
g137
sbag0
(g68
g2
Ntp641
Rp642
(dp643
g72
g139
sg73
g76
sg565
I28
sg48
g139
sbag0
(g68
g2
Ntp644
Rp645
(dp646
g72
g141
sg73
g76
sg565
I29
sg48
g141
sbag0
(g68
g2
Ntp647
Rp648
(dp649
g72
g143
sg73
g76
sg565
I30
sg48
g143
sbag0
(g68
g2
Ntp650
Rp651
(dp652
g72
g145
sg73
g76
sg565
I31
sg48
g145
sbag0
(g68
g2
Ntp653
Rp654
(dp655
g72
g147
sg73
g76
sg565
I32
sg48
g147
sbag0
(g68
g2
Ntp656
Rp657
(dp658
g72
g149
sg73
g76
sg565
I33
sg48
g149
sbag0
(g68
g2
Ntp659
Rp660
(dp661
g72
g151
sg73
g76
sg565
I34
sg48
g151
sbag0
(g68
g2
Ntp662
Rp663
(dp664
g72
g153
sg73
g76
sg565
I35
sg48
g153
sbag0
(g68
g2
Ntp665
Rp666
(dp667
g72
g155
sg73
g76
sg565
I36
sg48
g155
sbag0
(g68
g2
Ntp668
Rp669
(dp670
g72
g157
sg73
g76
sg565
I37
sg48
g157
sbag0
(g68
g2
Ntp671
Rp672
(dp673
g72
g159
sg73
g76
sg565
I38
sg48
g159
sbag0
(g68
g2
Ntp674
Rp675
(dp676
g72
g161
sg73
g76
sg565
I39
sg48
g161
sbag0
(g68
g2
Ntp677
Rp678
(dp679
g72
g163
sg73
g76
sg565
I40
sg48
g163
sbag0
(g68
g2
Ntp680
Rp681
(dp682
g72
g165
sg73
g76
sg565
I41
sg48
g165
sbag0
(g68
g2
Ntp683
Rp684
(dp685
g72
g167
sg73
g76
sg565
I42
sg48
g167
sbag0
(g68
g2
Ntp686
Rp687
(dp688
g72
g169
sg73
g76
sg565
I43
sg48
g169
sbag0
(g68
g2
Ntp689
Rp690
(dp691
g72
g171
sg73
g76
sg565
I44
sg48
g171
sbag0
(g68
g2
Ntp692
Rp693
(dp694
g72
g173
sg73
g76
sg565
I45
sg48
g173
sbag0
(g68
g2
Ntp695
Rp696
(dp697
g72
g175
sg73
g76
sg565
I46
sg48
g175
sbag0
(g68
g2
Ntp698
Rp699
(dp700
g72
g177
sg73
g76
sg565
I47
sg48
g177
sbag0
(g68
g2
Ntp701
Rp702
(dp703
g72
g179
sg73
g76
sg565
I48
sg48
g179
sbag0
(g68
g2
Ntp704
Rp705
(dp706
g72
g181
sg73
g76
sg565
I49
sg48
g181
sbag0
(g68
g2
Ntp707
Rp708
(dp709
g72
g183
sg73
g76
sg565
I50
sg48
g183
sbag0
(g68
g2
Ntp710
Rp711
(dp712
g72
g185
sg73
g76
sg565
I51
sg48
g185
sbag0
(g68
g2
Ntp713
Rp714
(dp715
g72
g187
sg73
g76
sg565
I52
sg48
g187
sbag0
(g68
g2
Ntp716
Rp717
(dp718
g72
g189
sg73
g76
sg565
I53
sg48
g189
sbag0
(g68
g2
Ntp719
Rp720
(dp721
g72
g191
sg73
g76
sg565
I54
sg48
g191
sbag0
(g68
g2
Ntp722
Rp723
(dp724
g72
g193
sg73
g76
sg565
I55
sg48
g193
sbag0
(g68
g2
Ntp725
Rp726
(dp727
g72
g195
sg73
g76
sg565
I56
sg48
g195
sbag0
(g68
g2
Ntp728
Rp729
(dp730
g72
g197
sg73
g76
sg565
I57
sg48
g197
sbag0
(g68
g2
Ntp731
Rp732
(dp733
g72
g199
sg73
g76
sg565
I58
sg48
g199
sbag0
(g68
g2
Ntp734
Rp735
(dp736
g72
g201
sg73
g76
sg565
I59
sg48
g201
sbag0
(g68
g2
Ntp737
Rp738
(dp739
g72
g203
sg73
g76
sg565
I60
sg48
g203
sbag0
(g68
g2
Ntp740
Rp741
(dp742
g72
g205
sg73
g76
sg565
I61
sg48
g205
sbag0
(g68
g2
Ntp743
Rp744
(dp745
g72
g207
sg73
g76
sg565
I62
sg48
g207
sbag0
(g68
g2
Ntp746
Rp747
(dp748
g72
g209
sg73
g76
sg565
I63
sg48
g209
sbag0
(g68
g2
Ntp749
Rp750
(dp751
g72
g211
sg73
g76
sg565
I64
sg48
g211
sbag0
(g68
g2
Ntp752
Rp753
(dp754
g72
g213
sg73
g76
sg565
I65
sg48
g213
sbag0
(g68
g2
Ntp755
Rp756
(dp757
g72
g215
sg73
g76
sg565
I66
sg48
g215
sbag0
(g68
g2
Ntp758
Rp759
(dp760
g72
g217
sg73
g76
sg565
I67
sg48
g217
sbag0
(g68
g2
Ntp761
Rp762
(dp763
g72
g219
sg73
g76
sg565
I68
sg48
g219
sbag0
(g68
g2
Ntp764
Rp765
(dp766
g72
g221
sg73
g76
sg565
I69
sg48
g221
sbag0
(g68
g2
Ntp767
Rp768
(dp769
g72
g223
sg73
g76
sg565
I70
sg48
g223
sbag0
(g68
g2
Ntp770
Rp771
(dp772
g72
g225
sg73
g76
sg565
I71
sg48
g225
sbag0
(g68
g2
Ntp773
Rp774
(dp775
g72
g227
sg73
g76
sg565
I72
sg48
g227
sbag0
(g68
g2
Ntp776
Rp777
(dp778
g72
g229
sg73
g76
sg565
I73
sg48
g229
sbag0
(g68
g2
Ntp779
Rp780
(dp781
g72
g231
sg73
g76
sg565
I74
sg48
g231
sbag0
(g68
g2
Ntp782
Rp783
(dp784
g72
g233
sg73
g76
sg565
I75
sg48
g233
sbag0
(g68
g2
Ntp785
Rp786
(dp787
g72
g235
sg73
g76
sg565
I76
sg48
g235
sbag0
(g68
g2
Ntp788
Rp789
(dp790
g72
g237
sg73
g76
sg565
I77
sg48
g237
sbag0
(g68
g2
Ntp791
Rp792
(dp793
g72
g239
sg73
g76
sg565
I78
sg48
g239
sbag0
(g68
g2
Ntp794
Rp795
(dp796
g72
g241
sg73
g76
sg565
I79
sg48
g241
sbag0
(g68
g2
Ntp797
Rp798
(dp799
g72
g243
sg73
g76
sg565
I80
sg48
g243
sbag0
(g68
g2
Ntp800
Rp801
(dp802
g72
g245
sg73
g76
sg565
I81
sg48
g245
sbag0
(g68
g2
Ntp803
Rp804
(dp805
g72
g247
sg73
g76
sg565
I82
sg48
g247
sbag0
(g68
g2
Ntp806
Rp807
(dp808
g72
g249
sg73
g76
sg565
I83
sg48
g249
sbag0
(g68
g2
Ntp809
Rp810
(dp811
g72
g251
sg73
g76
sg565
I84
sg48
g251
sbag0
(g68
g2
Ntp812
Rp813
(dp814
g72
g253
sg73
g76
sg565
I85
sg48
g253
sbag0
(g68
g2
Ntp815
Rp816
(dp817
g72
g255
sg73
g76
sg565
I86
sg48
g255
sbag0
(g68
g2
Ntp818
Rp819
(dp820
g72
g257
sg73
g76
sg565
I87
sg48
g257
sbag0
(g68
g2
Ntp821
Rp822
(dp823
g72
g259
sg73
g76
sg565
I88
sg48
g259
sbag0
(g68
g2
Ntp824
Rp825
(dp826
g72
g261
sg73
g76
sg565
I89
sg48
g261
sbag0
(g68
g2
Ntp827
Rp828
(dp829
g72
g263
sg73
g76
sg565
I90
sg48
g263
sbag0
(g68
g2
Ntp830
Rp831
(dp832
g72
g265
sg73
g76
sg565
I91
sg48
g265
sbasS'edges'
p833
(lp834
g0
(cconcept
SEM_REL
p835
g2
Ntp836
Rp837
(dp838
S'pTo'
p839
g563
sg275
g276
sS'pFrom'
p840
g567
sbag0
(g835
g2
Ntp841
Rp842
(dp843
g839
g567
sg275
g276
sg840
g570
sbag0
(g835
g2
Ntp844
Rp845
(dp846
g839
g570
sg275
g276
sg840
g573
sbag0
(g835
g2
Ntp847
Rp848
(dp849
g839
g570
sg275
g276
sg840
g576
sbag0
(g835
g2
Ntp850
Rp851
(dp852
g839
g567
sg275
g276
sg840
g579
sbag0
(g835
g2
Ntp853
Rp854
(dp855
g839
g579
sg275
g276
sg840
g582
sbag0
(g835
g2
Ntp856
Rp857
(dp858
g839
g567
sg275
g276
sg840
g585
sbag0
(g835
g2
Ntp859
Rp860
(dp861
g839
g585
sg275
g276
sg840
g588
sbag0
(g835
g2
Ntp862
Rp863
(dp864
g839
g585
sg275
g276
sg840
g591
sbag0
(g835
g2
Ntp865
Rp866
(dp867
g839
g585
sg275
g276
sg840
g594
sbag0
(g835
g2
Ntp868
Rp869
(dp870
g839
g585
sg275
g276
sg840
g597
sbag0
(g835
g2
Ntp871
Rp872
(dp873
g839
g585
sg275
g276
sg840
g600
sbag0
(g835
g2
Ntp874
Rp875
(dp876
g839
g585
sg275
g276
sg840
g603
sbag0
(g835
g2
Ntp877
Rp878
(dp879
g839
g585
sg275
g276
sg840
g606
sbag0
(g835
g2
Ntp880
Rp881
(dp882
g839
g585
sg275
g276
sg840
g609
sbag0
(g835
g2
Ntp883
Rp884
(dp885
g839
g585
sg275
g276
sg840
g612
sbag0
(g835
g2
Ntp886
Rp887
(dp888
g839
g567
sg275
g276
sg840
g615
sbag0
(g835
g2
Ntp889
Rp890
(dp891
g839
g615
sg275
g276
sg840
g618
sbag0
(g835
g2
Ntp892
Rp893
(dp894
g839
g615
sg275
g276
sg840
g621
sbag0
(g835
g2
Ntp895
Rp896
(dp897
g839
g563
sg275
g276
sg840
g624
sbag0
(g835
g2
Ntp898
Rp899
(dp900
g839
g624
sg275
g276
sg840
g627
sbag0
(g835
g2
Ntp901
Rp902
(dp903
g839
g627
sg275
g276
sg840
g630
sbag0
(g835
g2
Ntp904
Rp905
(dp906
g839
g627
sg275
g276
sg840
g633
sbag0
(g835
g2
Ntp907
Rp908
(dp909
g839
g627
sg275
g276
sg840
g636
sbag0
(g835
g2
Ntp910
Rp911
(dp912
g839
g627
sg275
g276
sg840
g639
sbag0
(g835
g2
Ntp913
Rp914
(dp915
g839
g627
sg275
g276
sg840
g642
sbag0
(g835
g2
Ntp916
Rp917
(dp918
g839
g624
sg275
g276
sg840
g645
sbag0
(g835
g2
Ntp919
Rp920
(dp921
g839
g645
sg275
g276
sg840
g648
sbag0
(g835
g2
Ntp922
Rp923
(dp924
g839
g645
sg275
g276
sg840
g651
sbag0
(g835
g2
Ntp925
Rp926
(dp927
g839
g645
sg275
g276
sg840
g654
sbag0
(g835
g2
Ntp928
Rp929
(dp930
g839
g624
sg275
g276
sg840
g657
sbag0
(g835
g2
Ntp931
Rp932
(dp933
g839
g657
sg275
g276
sg840
g660
sbag0
(g835
g2
Ntp934
Rp935
(dp936
g839
g657
sg275
g276
sg840
g663
sbag0
(g835
g2
Ntp937
Rp938
(dp939
g839
g563
sg275
g276
sg840
g666
sbag0
(g835
g2
Ntp940
Rp941
(dp942
g839
g666
sg275
g276
sg840
g669
sbag0
(g835
g2
Ntp943
Rp944
(dp945
g839
g669
sg275
g276
sg840
g672
sbag0
(g835
g2
Ntp946
Rp947
(dp948
g839
g669
sg275
g276
sg840
g675
sbag0
(g835
g2
Ntp949
Rp950
(dp951
g839
g669
sg275
g276
sg840
g678
sbag0
(g835
g2
Ntp952
Rp953
(dp954
g839
g669
sg275
g276
sg840
g681
sbag0
(g835
g2
Ntp955
Rp956
(dp957
g839
g669
sg275
g276
sg840
g684
sbag0
(g835
g2
Ntp958
Rp959
(dp960
g839
g684
sg275
g276
sg840
g687
sbag0
(g835
g2
Ntp961
Rp962
(dp963
g839
g687
sg275
g276
sg840
g690
sbag0
(g835
g2
Ntp964
Rp965
(dp966
g839
g684
sg275
g276
sg840
g693
sbag0
(g835
g2
Ntp967
Rp968
(dp969
g839
g693
sg275
g276
sg840
g690
sbag0
(g835
g2
Ntp970
Rp971
(dp972
g839
g666
sg275
g276
sg840
g696
sbag0
(g835
g2
Ntp973
Rp974
(dp975
g839
g696
sg275
g276
sg840
g699
sbag0
(g835
g2
Ntp976
Rp977
(dp978
g839
g699
sg275
g276
sg840
g702
sbag0
(g835
g2
Ntp979
Rp980
(dp981
g839
g699
sg275
g276
sg840
g705
sbag0
(g835
g2
Ntp982
Rp983
(dp984
g839
g696
sg275
g276
sg840
g708
sbag0
(g835
g2
Ntp985
Rp986
(dp987
g839
g708
sg275
g276
sg840
g711
sbag0
(g835
g2
Ntp988
Rp989
(dp990
g839
g666
sg275
g276
sg840
g714
sbag0
(g835
g2
Ntp991
Rp992
(dp993
g839
g666
sg275
g276
sg840
g717
sbag0
(g835
g2
Ntp994
Rp995
(dp996
g839
g717
sg275
g276
sg840
g672
sbag0
(g835
g2
Ntp997
Rp998
(dp999
g839
g717
sg275
g276
sg840
g681
sbag0
(g835
g2
Ntp1000
Rp1001
(dp1002
g839
g563
sg275
g276
sg840
g720
sbag0
(g835
g2
Ntp1003
Rp1004
(dp1005
g839
g563
sg275
g276
sg840
g723
sbag0
(g835
g2
Ntp1006
Rp1007
(dp1008
g839
g723
sg275
g276
sg840
g726
sbag0
(g835
g2
Ntp1009
Rp1010
(dp1011
g839
g726
sg275
g276
sg840
g729
sbag0
(g835
g2
Ntp1012
Rp1013
(dp1014
g839
g726
sg275
g276
sg840
g732
sbag0
(g835
g2
Ntp1015
Rp1016
(dp1017
g839
g723
sg275
g276
sg840
g735
sbag0
(g835
g2
Ntp1018
Rp1019
(dp1020
g839
g735
sg275
g276
sg840
g738
sbag0
(g835
g2
Ntp1021
Rp1022
(dp1023
g839
g738
sg275
g276
sg840
g741
sbag0
(g835
g2
Ntp1024
Rp1025
(dp1026
g839
g738
sg275
g276
sg840
g744
sbag0
(g835
g2
Ntp1027
Rp1028
(dp1029
g839
g738
sg275
g276
sg840
g747
sbag0
(g835
g2
Ntp1030
Rp1031
(dp1032
g839
g738
sg275
g276
sg840
g750
sbag0
(g835
g2
Ntp1033
Rp1034
(dp1035
g839
g738
sg275
g276
sg840
g753
sbag0
(g835
g2
Ntp1036
Rp1037
(dp1038
g839
g738
sg275
g276
sg840
g756
sbag0
(g835
g2
Ntp1039
Rp1040
(dp1041
g839
g738
sg275
g276
sg840
g759
sbag0
(g835
g2
Ntp1042
Rp1043
(dp1044
g839
g738
sg275
g276
sg840
g762
sbag0
(g835
g2
Ntp1045
Rp1046
(dp1047
g839
g762
sg275
g276
sg840
g765
sbag0
(g835
g2
Ntp1048
Rp1049
(dp1050
g839
g762
sg275
g276
sg840
g768
sbag0
(g835
g2
Ntp1051
Rp1052
(dp1053
g839
g762
sg275
g276
sg840
g771
sbag0
(g835
g2
Ntp1054
Rp1055
(dp1056
g839
g762
sg275
g276
sg840
g774
sbag0
(g835
g2
Ntp1057
Rp1058
(dp1059
g839
g735
sg275
g276
sg840
g729
sbag0
(g835
g2
Ntp1060
Rp1061
(dp1062
g839
g729
sg275
g276
sg840
g777
sbag0
(g835
g2
Ntp1063
Rp1064
(dp1065
g839
g729
sg275
g276
sg840
g780
sbag0
(g835
g2
Ntp1066
Rp1067
(dp1068
g839
g729
sg275
g276
sg840
g783
sbag0
(g835
g2
Ntp1069
Rp1070
(dp1071
g839
g735
sg275
g276
sg840
g732
sbag0
(g835
g2
Ntp1072
Rp1073
(dp1074
g839
g732
sg275
g276
sg840
g786
sbag0
(g835
g2
Ntp1075
Rp1076
(dp1077
g839
g732
sg275
g276
sg840
g789
sbag0
(g835
g2
Ntp1078
Rp1079
(dp1080
g839
g732
sg275
g276
sg840
g792
sbag0
(g835
g2
Ntp1081
Rp1082
(dp1083
g839
g732
sg275
g276
sg840
g795
sbag0
(g835
g2
Ntp1084
Rp1085
(dp1086
g839
g732
sg275
g276
sg840
g798
sbag0
(g835
g2
Ntp1087
Rp1088
(dp1089
g839
g732
sg275
g276
sg840
g801
sbag0
(g835
g2
Ntp1090
Rp1091
(dp1092
g839
g732
sg275
g276
sg840
g804
sbag0
(g835
g2
Ntp1093
Rp1094
(dp1095
g839
g732
sg275
g276
sg840
g807
sbag0
(g835
g2
Ntp1096
Rp1097
(dp1098
g839
g732
sg275
g276
sg840
g810
sbag0
(g835
g2
Ntp1099
Rp1100
(dp1101
g839
g732
sg275
g276
sg840
g813
sbag0
(g835
g2
Ntp1102
Rp1103
(dp1104
g839
g732
sg275
g276
sg840
g816
sbag0
(g835
g2
Ntp1105
Rp1106
(dp1107
g839
g723
sg275
g276
sg840
g819
sbag0
(g835
g2
Ntp1108
Rp1109
(dp1110
g839
g819
sg275
g276
sg840
g822
sbag0
(g835
g2
Ntp1111
Rp1112
(dp1113
g839
g819
sg275
g276
sg840
g825
sbag0
(g835
g2
Ntp1114
Rp1115
(dp1116
g839
g723
sg275
g276
sg840
g828
sbag0
(g835
g2
Ntp1117
Rp1118
(dp1119
g839
g828
sg275
g276
sg840
g786
sbag0
(g835
g2
Ntp1120
Rp1121
(dp1122
g839
g828
sg275
g276
sg840
g816
sbag0
(g835
g2
Ntp1123
Rp1124
(dp1125
g839
g723
sg275
g276
sg840
g831
sbag0
(g835
g2
Ntp1126
Rp1127
(dp1128
g839
g831
sg275
g276
sg840
g801
sbag0
(g835
g2
Ntp1129
Rp1130
(dp1131
g839
g831
sg275
g276
sg840
g807
sbag0
(g835
g2
Ntp1132
Rp1133
(dp1134
g839
g831
sg275
g276
sg840
g789
sbasS'neutral'
p1135
g70
sbsg565
I1
sg48
g64
sbssS'model'
p1136
Nsg565
I9
sS'LTM'
p1137
g44
sS'init_act'
p1138
F1.0
sbag0
(clanguage_schemas
CPT_ACTION_SCHEMA
p1139
g2
Ntp1140
Rp1141
(dp1142
g48
g89
sg65
(dp1143
g67
g567
ssg1136
Nsg565
I10
sg1137
g44
sg1138
F1.0
sbag0
(g1139
g2
Ntp1144
Rp1145
(dp1146
g48
g91
sg65
(dp1147
g67
g570
ssg1136
Nsg565
I11
sg1137
g44
sg1138
F1.0
sbag0
(g1139
g2
Ntp1148
Rp1149
(dp1150
g48
g93
sg65
(dp1151
g67
g573
ssg1136
Nsg565
I12
sg1137
g44
sg1138
F1.0
sbag0
(g1139
g2
Ntp1152
Rp1153
(dp1154
g48
g95
sg65
(dp1155
g67
g576
ssg1136
Nsg565
I13
sg1137
g44
sg1138
F1.0
sbag0
(g1139
g2
Ntp1156
Rp1157
(dp1158
g48
g97
sg65
(dp1159
g67
g579
ssg1136
Nsg565
I14
sg1137
g44
sg1138
F1.0
sbag0
(g1139
g2
Ntp1160
Rp1161
(dp1162
g48
g99
sg65
(dp1163
g67
g582
ssg1136
Nsg565
I15
sg1137
g44
sg1138
F1.0
sbag0
(g1139
g2
Ntp1164
Rp1165
(dp1166
g48
g101
sg65
(dp1167
g67
g585
ssg1136
Nsg565
I16
sg1137
g44
sg1138
F1.0
sbag0
(g1139
g2
Ntp1168
Rp1169
(dp1170
g48
g103
sg65
(dp1171
g67
g588
ssg1136
Nsg565
I17
sg1137
g44
sg1138
F1.0
sbag0
(g1139
g2
Ntp1172
Rp1173
(dp1174
g48
g105
sg65
(dp1175
g67
g591
ssg1136
Nsg565
I18
sg1137
g44
sg1138
F1.0
sbag0
(g1139
g2
Ntp1176
Rp1177
(dp1178
g48
g107
sg65
(dp1179
g67
g594
ssg1136
Nsg565
I19
sg1137
g44
sg1138
F1.0
sbag0
(g1139
g2
Ntp1180
Rp1181
(dp1182
g48
g109
sg65
(dp1183
g67
g597
ssg1136
Nsg565
I20
sg1137
g44
sg1138
F1.0
sbag0
(g1139
g2
Ntp1184
Rp1185
(dp1186
g48
g111
sg65
(dp1187
g67
g600
ssg1136
Nsg565
I21
sg1137
g44
sg1138
F1.0
sbag0
(g1139
g2
Ntp1188
Rp1189
(dp1190
g48
g113
sg65
(dp1191
g67
g603
ssg1136
Nsg565
I22
sg1137
g44
sg1138
F1.0
sbag0
(g1139
g2
Ntp1192
Rp1193
(dp1194
g48
g115
sg65
(dp1195
g67
g606
ssg1136
Nsg565
I23
sg1137
g44
sg1138
F1.0
sbag0
(g1139
g2
Ntp1196
Rp1197
(dp1198
g48
g117
sg65
(dp1199
g67
g609
ssg1136
Nsg565
I24
sg1137
g44
sg1138
F1.0
sbag0
(g1139
g2
Ntp1200
Rp1201
(dp1202
g48
g119
sg65
(dp1203
g67
g612
ssg1136
Nsg565
I25
sg1137
g44
sg1138
F1.0
sbag0
(g1139
g2
Ntp1204
Rp1205
(dp1206
g48
g121
sg65
(dp1207
g67
g615
ssg1136
Nsg565
I26
sg1137
g44
sg1138
F1.0
sbag0
(g1139
g2
Ntp1208
Rp1209
(dp1210
g48
g123
sg65
(dp1211
g67
g618
ssg1136
Nsg565
I27
sg1137
g44
sg1138
F1.0
sbag0
(g1139
g2
Ntp1212
Rp1213
(dp1214
g48
g125
sg65
(dp1215
g67
g621
ssg1136
Nsg565
I28
sg1137
g44
sg1138
F1.0
sbag0
(clanguage_schemas
CPT_PROPERTY_SCHEMA
p1216
g2
Ntp1217
Rp1218
(dp1219
g48
g127
sg65
(dp1220
g67
g624
ssg1136
Nsg565
I29
sg1137
g44
sg1138
F1.0
sbag0
(g1216
g2
Ntp1221
Rp1222
(dp1223
g48
g129
sg65
(dp1224
g67
g627
ssg1136
Nsg565
I30
sg1137
g44
sg1138
F1.0
sbag0
(g1216
g2
Ntp1225
Rp1226
(dp1227
g48
g131
sg65
(dp1228
g67
g630
ssg1136
Nsg565
I31
sg1137
g44
sg1138
F1.0
sbag0
(g1216
g2
Ntp1229
Rp1230
(dp1231
g48
g133
sg65
(dp1232
g67
g633
ssg1136
Nsg565
I32
sg1137
g44
sg1138
F1.0
sbag0
(g1216
g2
Ntp1233
Rp1234
(dp1235
g48
g135
sg65
(dp1236
g67
g636
ssg1136
Nsg565
I33
sg1137
g44
sg1138
F1.0
sbag0
(g1216
g2
Ntp1237
Rp1238
(dp1239
g48
g137
sg65
(dp1240
g67
g639
ssg1136
Nsg565
I34
sg1137
g44
sg1138
F1.0
sbag0
(g1216
g2
Ntp1241
Rp1242
(dp1243
g48
g139
sg65
(dp1244
g67
g642
ssg1136
Nsg565
I35
sg1137
g44
sg1138
F1.0
sbag0
(g1216
g2
Ntp1245
Rp1246
(dp1247
g48
g141
sg65
(dp1248
g67
g645
ssg1136
Nsg565
I36
sg1137
g44
sg1138
F1.0
sbag0
(g1216
g2
Ntp1249
Rp1250
(dp1251
g48
g143
sg65
(dp1252
g67
g648
ssg1136
Nsg565
I37
sg1137
g44
sg1138
F1.0
sbag0
(g1216
g2
Ntp1253
Rp1254
(dp1255
g48
g145
sg65
(dp1256
g67
g651
ssg1136
Nsg565
I38
sg1137
g44
sg1138
F1.0
sbag0
(g1216
g2
Ntp1257
Rp1258
(dp1259
g48
g147
sg65
(dp1260
g67
g654
ssg1136
Nsg565
I39
sg1137
g44
sg1138
F1.0
sbag0
(g1216
g2
Ntp1261
Rp1262
(dp1263
g48
g149
sg65
(dp1264
g67
g657
ssg1136
Nsg565
I40
sg1137
g44
sg1138
F1.0
sbag0
(g1216
g2
Ntp1265
Rp1266
(dp1267
g48
g151
sg65
(dp1268
g67
g660
ssg1136
Nsg565
I41
sg1137
g44
sg1138
F1.0
sbag0
(g1216
g2
Ntp1269
Rp1270
(dp1271
g48
g153
sg65
(dp1272
g67
g663
ssg1136
Nsg565
I42
sg1137
g44
sg1138
F1.0
sbag0
(clanguage_schemas
CPT_RELATION_SCHEMA
p1273
g2
Ntp1274
Rp1275
(dp1276
g48
g155
sg65
(dp1277
g839
Nsg67
g666
sg840
Nssg1136
Nsg565
I43
sg1137
g44
sg1138
F1.0
sbag0
(g1273
g2
Ntp1278
Rp1279
(dp1280
g48
g157
sg65
(dp1281
g839
Nsg67
g669
sg840
Nssg1136
Nsg565
I44
sg1137
g44
sg1138
F1.0
sbag0
(g1273
g2
Ntp1282
Rp1283
(dp1284
g48
g159
sg65
(dp1285
g839
Nsg67
g672
sg840
Nssg1136
Nsg565
I45
sg1137
g44
sg1138
F1.0
sbag0
(g1273
g2
Ntp1286
Rp1287
(dp1288
g48
g161
sg65
(dp1289
g839
Nsg67
g675
sg840
Nssg1136
Nsg565
I46
sg1137
g44
sg1138
F1.0
sbag0
(g1273
g2
Ntp1290
Rp1291
(dp1292
g48
g163
sg65
(dp1293
g839
Nsg67
g678
sg840
Nssg1136
Nsg565
I47
sg1137
g44
sg1138
F1.0
sbag0
(g1273
g2
Ntp1294
Rp1295
(dp1296
g48
g165
sg65
(dp1297
g839
Nsg67
g681
sg840
Nssg1136
Nsg565
I48
sg1137
g44
sg1138
F1.0
sbag0
(g1273
g2
Ntp1298
Rp1299
(dp1300
g48
g167
sg65
(dp1301
g839
Nsg67
g684
sg840
Nssg1136
Nsg565
I49
sg1137
g44
sg1138
F1.0
sbag0
(g1273
g2
Ntp1302
Rp1303
(dp1304
g48
g169
sg65
(dp1305
g839
Nsg67
g687
sg840
Nssg1136
Nsg565
I50
sg1137
g44
sg1138
F1.0
sbag0
(g1273
g2
Ntp1306
Rp1307
(dp1308
g48
g171
sg65
(dp1309
g839
Nsg67
g690
sg840
Nssg1136
Nsg565
I51
sg1137
g44
sg1138
F1.0
sbag0
(g1273
g2
Ntp1310
Rp1311
(dp1312
g48
g173
sg65
(dp1313
g839
Nsg67
g693
sg840
Nssg1136
Nsg565
I52
sg1137
g44
sg1138
F1.0
sbag0
(g1273
g2
Ntp1314
Rp1315
(dp1316
g48
g175
sg65
(dp1317
g839
Nsg67
g696
sg840
Nssg1136
Nsg565
I53
sg1137
g44
sg1138
F1.0
sbag0
(g1273
g2
Ntp1318
Rp1319
(dp1320
g48
g177
sg65
(dp1321
g839
Nsg67
g699
sg840
Nssg1136
Nsg565
I54
sg1137
g44
sg1138
F1.0
sbag0
(g1273
g2
Ntp1322
Rp1323
(dp1324
g48
g179
sg65
(dp1325
g839
Nsg67
g702
sg840
Nssg1136
Nsg565
I55
sg1137
g44
sg1138
F1.0
sbag0
(g1273
g2
Ntp1326
Rp1327
(dp1328
g48
g181
sg65
(dp1329
g839
Nsg67
g705
sg840
Nssg1136
Nsg565
I56
sg1137
g44
sg1138
F1.0
sbag0
(g1273
g2
Ntp1330
Rp1331
(dp1332
g48
g183
sg65
(dp1333
g839
Nsg67
g708
sg840
Nssg1136
Nsg565
I57
sg1137
g44
sg1138
F1.0
sbag0
(g1273
g2
Ntp1334
Rp1335
(dp1336
g48
g185
sg65
(dp1337
g839
Nsg67
g711
sg840
Nssg1136
Nsg565
I58
sg1137
g44
sg1138
F1.0
sbag0
(g1273
g2
Ntp1338
Rp1339
(dp1340
g48
g187
sg65
(dp1341
g839
Nsg67
g714
sg840
Nssg1136
Nsg565
I59
sg1137
g44
sg1138
F1.0
sbag0
(g1273
g2
Ntp1342
Rp1343
(dp1344
g48
g189
sg65
(dp1345
g839
Nsg67
g717
sg840
Nssg1136
Nsg565
I60
sg1137
g44
sg1138
F1.0
sbag0
(g60
g2
Ntp1346
Rp1347
(dp1348
g48
g191
sg65
(dp1349
g67
g720
ssg1136
Nsg565
I61
sg1137
g44
sg1138
F1.0
sbag0
(clanguage_schemas
CPT_ENTITY_SCHEMA
p1350
g2
Ntp1351
Rp1352
(dp1353
g48
g193
sg65
(dp1354
g67
g723
ssg1136
Nsg565
I62
sg1137
g44
sg1138
F1.0
sbag0
(g1350
g2
Ntp1355
Rp1356
(dp1357
g48
g195
sg65
(dp1358
g67
g726
ssg1136
Nsg565
I63
sg1137
g44
sg1138
F1.0
sbag0
(g1350
g2
Ntp1359
Rp1360
(dp1361
g48
g197
sg65
(dp1362
g67
g729
ssg1136
Nsg565
I64
sg1137
g44
sg1138
F1.0
sbag0
(g1350
g2
Ntp1363
Rp1364
(dp1365
g48
g199
sg65
(dp1366
g67
g732
ssg1136
Nsg565
I65
sg1137
g44
sg1138
F1.0
sbag0
(g1350
g2
Ntp1367
Rp1368
(dp1369
g48
g201
sg65
(dp1370
g67
g735
ssg1136
Nsg565
I66
sg1137
g44
sg1138
F1.0
sbag0
(g1350
g2
Ntp1371
Rp1372
(dp1373
g48
g203
sg65
(dp1374
g67
g738
ssg1136
Nsg565
I67
sg1137
g44
sg1138
F1.0
sbag0
(g1350
g2
Ntp1375
Rp1376
(dp1377
g48
g205
sg65
(dp1378
g67
g741
ssg1136
Nsg565
I68
sg1137
g44
sg1138
F1.0
sbag0
(g1350
g2
Ntp1379
Rp1380
(dp1381
g48
g207
sg65
(dp1382
g67
g744
ssg1136
Nsg565
I69
sg1137
g44
sg1138
F1.0
sbag0
(g1350
g2
Ntp1383
Rp1384
(dp1385
g48
g209
sg65
(dp1386
g67
g747
ssg1136
Nsg565
I70
sg1137
g44
sg1138
F1.0
sbag0
(g1350
g2
Ntp1387
Rp1388
(dp1389
g48
g211
sg65
(dp1390
g67
g750
ssg1136
Nsg565
I71
sg1137
g44
sg1138
F1.0
sbag0
(g1350
g2
Ntp1391
Rp1392
(dp1393
g48
g213
sg65
(dp1394
g67
g753
ssg1136
Nsg565
I72
sg1137
g44
sg1138
F1.0
sbag0
(g1350
g2
Ntp1395
Rp1396
(dp1397
g48
g215
sg65
(dp1398
g67
g756
ssg1136
Nsg565
I73
sg1137
g44
sg1138
F1.0
sbag0
(g1350
g2
Ntp1399
Rp1400
(dp1401
g48
g217
sg65
(dp1402
g67
g759
ssg1136
Nsg565
I74
sg1137
g44
sg1138
F1.0
sbag0
(g1350
g2
Ntp1403
Rp1404
(dp1405
g48
g219
sg65
(dp1406
g67
g762
ssg1136
Nsg565
I75
sg1137
g44
sg1138
F1.0
sbag0
(g1350
g2
Ntp1407
Rp1408
(dp1409
g48
g221
sg65
(dp1410
g67
g765
ssg1136
Nsg565
I76
sg1137
g44
sg1138
F1.0
sbag0
(g1350
g2
Ntp1411
Rp1412
(dp1413
g48
g223
sg65
(dp1414
g67
g768
ssg1136
Nsg565
I77
sg1137
g44
sg1138
F1.0
sbag0
(g1350
g2
Ntp1415
Rp1416
(dp1417
g48
g225
sg65
(dp1418
g67
g771
ssg1136
Nsg565
I78
sg1137
g44
sg1138
F1.0
sbag0
(g1350
g2
Ntp1419
Rp1420
(dp1421
g48
g227
sg65
(dp1422
g67
g774
ssg1136
Nsg565
I79
sg1137
g44
sg1138
F1.0
sbag0
(g1350
g2
Ntp1423
Rp1424
(dp1425
g48
g229
sg65
(dp1426
g67
g777
ssg1136
Nsg565
I80
sg1137
g44
sg1138
F1.0
sbag0
(g1350
g2
Ntp1427
Rp1428
(dp1429
g48
g231
sg65
(dp1430
g67
g780
ssg1136
Nsg565
I81
sg1137
g44
sg1138
F1.0
sbag0
(g1350
g2
Ntp1431
Rp1432
(dp1433
g48
g233
sg65
(dp1434
g67
g783
ssg1136
Nsg565
I82
sg1137
g44
sg1138
F1.0
sbag0
(g1350
g2
Ntp1435
Rp1436
(dp1437
g48
g235
sg65
(dp1438
g67
g786
ssg1136
Nsg565
I83
sg1137
g44
sg1138
F1.0
sbag0
(g1350
g2
Ntp1439
Rp1440
(dp1441
g48
g237
sg65
(dp1442
g67
g789
ssg1136
Nsg565
I84
sg1137
g44
sg1138
F1.0
sbag0
(g1350
g2
Ntp1443
Rp1444
(dp1445
g48
g239
sg65
(dp1446
g67
g792
ssg1136
Nsg565
I85
sg1137
g44
sg1138
F1.0
sbag0
(g1350
g2
Ntp1447
Rp1448
(dp1449
g48
g241
sg65
(dp1450
g67
g795
ssg1136
Nsg565
I86
sg1137
g44
sg1138
F1.0
sbag0
(g1350
g2
Ntp1451
Rp1452
(dp1453
g48
g243
sg65
(dp1454
g67
g798
ssg1136
Nsg565
I87
sg1137
g44
sg1138
F1.0
sbag0
(g1350
g2
Ntp1455
Rp1456
(dp1457
g48
g245
sg65
(dp1458
g67
g801
ssg1136
Nsg565
I88
sg1137
g44
sg1138
F1.0
sbag0
(g1350
g2
Ntp1459
Rp1460
(dp1461
g48
g247
sg65
(dp1462
g67
g804
ssg1136
Nsg565
I89
sg1137
g44
sg1138
F1.0
sbag0
(g1350
g2
Ntp1463
Rp1464
(dp1465
g48
g249
sg65
(dp1466
g67
g807
ssg1136
Nsg565
I90
sg1137
g44
sg1138
F1.0
sbag0
(g1350
g2
Ntp1467
Rp1468
(dp1469
g48
g251
sg65
(dp1470
g67
g810
ssg1136
Nsg565
I91
sg1137
g44
sg1138
F1.0
sbag0
(g1350
g2
Ntp1471
Rp1472
(dp1473
g48
g253
sg65
(dp1474
g67
g813
ssg1136
Nsg565
I92
sg1137
g44
sg1138
F1.0
sbag0
(g1350
g2
Ntp1475
Rp1476
(dp1477
g48
g255
sg65
(dp1478
g67
g816
ssg1136
Nsg565
I93
sg1137
g44
sg1138
F1.0
sbag0
(g1350
g2
Ntp1479
Rp1480
(dp1481
g48
g257
sg65
(dp1482
g67
g819
ssg1136
Nsg565
I94
sg1137
g44
sg1138
F1.0
sbag0
(g1350
g2
Ntp1483
Rp1484
(dp1485
g48
g259
sg65
(dp1486
g67
g822
ssg1136
Nsg565
I95
sg1137
g44
sg1138
F1.0
sbag0
(g1350
g2
Ntp1487
Rp1488
(dp1489
g48
g261
sg65
(dp1490
g67
g825
ssg1136
Nsg565
I96
sg1137
g44
sg1138
F1.0
sbag0
(g1350
g2
Ntp1491
Rp1492
(dp1493
g48
g263
sg65
(dp1494
g67
g828
ssg1136
Nsg565
I97
sg1137
g44
sg1138
F1.0
sbag0
(g1350
g2
Ntp1495
Rp1496
(dp1497
g48
g265
sg65
(dp1498
g67
g831
ssg1136
Nsg565
I98
sg1137
g44
sg1138
F1.0
sbasg275
S'OUT'
p1499
sg565
I11
sS'schema'
p1500
g44
sbag0
(g52
g2
Ntp1501
Rp1502
(dp1503
g48
S'to_semantic_WM'
p1504
sg57
Nsg58
g59
sg275
g1499
sg565
I12
sg1500
g44
sbasS'outputs'
p1505
(dp1506
g56
Nsg1504
NssS'connections'
p1507
(lp1508
sS'cpt_knowledge'
p1509
g76
sS'dt'
p1510
F1.0
sS'in_ports'
p1511
(lp1512
sS'params'
p1513
(dp1514
g1138
F1.0
ssS't'
p1515
I0
sS'activity'
p1516
I0
sg1136
g0
(cschema_theory
MODEL
p1517
g2
Ntp1518
Rp1519
(dp1520
S'verbose'
p1521
I00
sg48
S'language_system_P'
p1522
sS'sim_data'
p1523
(dp1524
S'system_states'
p1525
(dp1526
sg1136
(dp1527
ssg1505
(dp1528
sS'input_ports'
p1529
(lp1530
g0
(g52
g2
Ntp1531
Rp1532
(dp1533
g48
S'from_conceptualizer'
p1534
sg57
Nsg58
Nsg275
S'IN'
p1535
sg565
I1
sg1500
g0
(clanguage_schemas
SEMANTIC_WM
p1536
g2
Ntp1537
Rp1538
(dp1539
g46
(dp1540
S'from_grammatical_WM_P'
p1541
NsS'from_concept_LTM'
p1542
NsS'from_control'
p1543
NsS'from_grammatical_WM_C'
p1544
Nsg1534
NssS'schema_insts'
p1545
(lp1546
sg48
S'Semantic_WM'
p1547
sS'comp_links'
p1548
(lp1549
sg50
(lp1550
g0
(g52
g2
Ntp1551
Rp1552
(dp1553
S'port_data'
p1554
Nsg48
S'to_grammatical_WM_P'
p1555
sg57
Nsg58
NsS'port_value'
p1556
Nsg275
g1499
sg565
I6
sg1500
g1538
sbag0
(g52
g2
Ntp1557
Rp1558
(dp1559
g1554
Nsg48
S'to_cxn_retrieval_P'
p1560
sg57
Nsg58
Nsg1556
Nsg275
g1499
sg565
I7
sg1500
g1538
sbag0
(g52
g2
Ntp1561
Rp1562
(dp1563
g1554
Nsg48
S'to_control'
p1564
sg57
Nsg58
Nsg1556
Nsg275
g1499
sg565
I8
sg1500
g1538
sbag0
(g52
g2
Ntp1565
Rp1566
(dp1567
g48
S'to_visual_WM'
p1568
sg57
Nsg58
Nsg275
g1499
sg565
I9
sg1500
g1538
sbag0
(g52
g2
Ntp1569
Rp1570
(dp1571
g48
S'to_output'
p1572
sg57
Nsg58
Nsg275
g1499
sg565
I10
sg1500
g1538
sbasg1505
(dp1573
g1572
Nsg1555
Nsg1568
Nsg1560
Nsg1564
Nssg1510
F1.0
sS'coop_links'
p1574
(lp1575
sg1511
(lp1576
g1532
ag0
(g52
g2
Ntp1577
Rp1578
(dp1579
g48
g1542
sg57
Nsg58
Nsg275
g1535
sg565
I2
sg1500
g1538
sbag0
(g52
g2
Ntp1580
Rp1581
(dp1582
g48
g1544
sg57
Nsg58
Nsg275
g1535
sg565
I3
sg1500
g1538
sbag0
(g52
g2
Ntp1583
Rp1584
(dp1585
g1554
Nsg48
g1541
sg57
Nsg58
Nsg1556
Nsg275
g1535
sg565
I4
sg1500
g1538
sbag0
(g52
g2
Ntp1586
Rp1587
(dp1588
g1554
Nsg48
g1543
sg57
Nsg58
S'produce'
p1589
sg1556
Nsg275
g1535
sg565
I5
sg1500
g1538
sbasS'save_state'
p1590
(dp1591
S'insts'
p1592
(dp1593
sS'WM_activity'
p1594
(dp1595
S'comp'
p1596
(lp1597
sS'c2_network'
p1598
(dp1599
S'num_insts'
p1600
(lp1601
sS'num_coop_links'
p1602
(lp1603
sS'num_comp_links'
p1604
(lp1605
ssS'coop'
p1606
(lp1607
sg1515
(lp1608
sS'act'
p1609
(lp1610
sssg1513
(dp1611
S'C2'
p1612
(dp1613
S'P_comp'
p1614
F1.0
sS'comp_weight'
p1615
F0.0
sS'P_coop'
p1616
F1.0
sS'coop_asymmetry'
p1617
F1.0
sS'coop_weight'
p1618
F0.0
sS'confidence_threshold'
p1619
F0.0
sS'comp_asymmetry'
p1620
F0.0
sS'prune_threshold'
p1621
F0.01
ssS'dyn'
p1622
(dp1623
S'tau'
p1624
F10000.0
sS'k'
p1625
F10.0
sS'act_rest'
p1626
F0.001
sS'noise_mean'
p1627
F0.0
sS'noise_std'
p1628
F1.0
sS'ext_weight'
p1629
F1.0
sS'int_weight'
p1630
F1.0
sssg1515
I0
sg1516
I0
sg1136
g1519
sS'SemRep'
p1631
g0
(g79
g2
Ntp1632
Rp1633
(dp1634
g83
(dp1635
sg266
g267
sg268
g267
sg269
(dp1636
sg463
g1636
sg78
(dp1637
sg465
g267
sg466
g1636
sg467
(dp1638
sbsg565
I1
sbsbasS'brain_mapping'
p1639
g0
(cschema_theory
BRAIN_MAPPING
p1640
g2
Ntp1641
Rp1642
(dp1643
S'schema_mapping'
p1644
(dp1645
S'Control'
p1646
(lp1647
S'DLPFC'
p1648
asS'Utter'
p1649
(lp1650
S''
p1651
asg1547
(lp1652
S'left_SFG'
p1653
aS'LIP'
p1654
aS'Hippocampus'
p1655
asS'Phonological_WM_P'
p1656
(lp1657
S'left_BA6'
p1658
asg49
(lp1659
g1651
asS'Grammatical_WM_P'
p1660
(lp1661
S'left_BA45'
p1662
aS'leftBA44'
p1663
asS'Grammatical_LTM'
p1664
(lp1665
S'left_STG'
p1666
aS'left_MTG'
p1667
asS'Cxn_retrieval_P'
p1668
(lp1669
ssS'connect_mapping'
p1670
(dp1671
sbsg1507
(lp1672
g0
(cschema_theory
CONNECT
p1673
g2
Ntp1674
Rp1675
(dp1676
S'delay'
p1677
I0
sg48
g1651
sS'weight'
p1678
I0
sS'port_to'
p1679
g0
(g52
g2
Ntp1680
Rp1681
(dp1682
g1554
Nsg48
S'from_semantic_WM'
p1683
sg57
Nsg58
Nsg1556
Nsg275
g1535
sg565
I23
sg1500
g0
(clanguage_schemas
CXN_RETRIEVAL_P
p1684
g2
Ntp1685
Rp1686
(dp1687
g46
(dp1688
g1683
NsS'from_grammatical_LTM'
p1689
Nssg48
g1668
sg50
(lp1690
g0
(g52
g2
Ntp1691
Rp1692
(dp1693
g1554
Nsg48
g1555
sg57
Nsg58
Nsg1556
Nsg275
g1499
sg565
I24
sg1500
g1686
sbasg1505
(dp1694
g1555
NssS'cxn_instances'
p1695
(lp1696
sg1510
F1.0
sg1511
(lp1697
g0
(g52
g2
Ntp1698
Rp1699
(dp1700
g1554
Nsg48
g1689
sg57
Nsg58
(lp1701
g0
(clanguage_schemas
CXN_SCHEMA
p1702
g2
Ntp1703
Rp1704
(dp1705
g48
VCNJ_AND
p1706
sg65
(iconstruction
CXN
p1707
(dp1708
S'SymLinks'
p1709
(iconstruction
TP_SYMLINKS
p1710
(dp1711
S'SL'
p1712
(dp1713
VEVT1_4
p1714
VS1_6
p1715
sVEVT2_5
p1716
VS3_8
p1717
ssg565
I3
sg48
g1651
sbsS'clss'
p1718
VD
p1719
sS'group'
p1720
I3
sg48
g1706
sS'SemFrame'
p1721
(iconstruction
TP_SEMFRAME
p1722
(dp1723
g78
g0
(g79
g2
Ntp1724
Rp1725
(dp1726
g83
(dp1727
(iconstruction
TP_NODE
p1728
(dp1729
S'head'
p1730
I00
sg67
g720
sg48
g1716
sS'frame'
p1731
I00
sS'focus'
p1732
I00
sg565
I5
sb(dp1733
g1731
I00
sg67
g720
ss(iconstruction
TP_NODE
p1734
(dp1735
g1730
I00
sg67
g720
sg48
g1714
sg1731
I00
sg1732
I01
sg565
I4
sb(dp1736
g1731
I00
sg67
g720
sssg266
g267
sg268
g267
sg269
(dp1737
g1728
(dp1738
sg1734
(dp1739
ssg463
g1737
sg78
(dp1740
sg465
g267
sg466
g1737
sg467
(dp1741
g1728
(dp1742
sg1734
(dp1743
ssbsg560
(lp1744
g1734
ag1728
asg833
(lp1745
sg565
I1
sg48
g1651
sbsS'SynForm'
p1746
(iconstruction
TP_SYNFORM
p1747
(dp1748
g565
I2
sS'form'
p1749
(lp1750
(iconstruction
TP_SLOT
p1751
(dp1752
S'cxn_classes'
p1753
(lp1754
VS
p1755
asS'order'
p1756
I0
sg565
I6
sg48
g1715
sba(iconstruction
TP_PHON
p1757
(dp1758
S'num_syllables'
p1759
I3
sg1756
I1
sg565
I7
sS'cxn_phonetics'
p1760
Vand
p1761
sg48
VS2_7
p1762
sba(iconstruction
TP_SLOT
p1763
(dp1764
g1753
(lp1765
VS
p1766
asg1756
I2
sg565
I8
sg48
g1717
sbasg48
g1651
sbsS'preference'
p1767
I1
sbsg1136
Nsg565
I99
sg1137
g0
(clanguage_schemas
GRAMMATICAL_LTM
p1768
g2
Ntp1769
Rp1770
(dp1771
g46
(dp1772
sS'grammar'
p1773
(iconstruction
GRAMMAR
p1774
(dp1775
S'constructions'
p1776
(lp1777
g1707
a(iconstruction
CXN
p1778
(dp1779
g1709
(iconstruction
TP_SYMLINKS
p1780
(dp1781
g1712
(dp1782
VEVT2_13
p1783
VS3_17
p1784
sVEVT1_12
p1785
VS1_15
p1786
ssg565
I11
sg48
g1651
sbsg1718
VD
p1787
sg1720
I3
sg48
VCNJ_THEN
p1788
sg1721
(iconstruction
TP_SEMFRAME
p1789
(dp1790
g78
g0
(g79
g2
Ntp1791
Rp1792
(dp1793
g83
(dp1794
(iconstruction
TP_NODE
p1795
(dp1796
g1730
I00
sg67
g720
sg48
g1783
sg1731
I00
sg1732
I00
sg565
I13
sb(dp1797
g1731
I00
sg67
g720
ss(iconstruction
TP_NODE
p1798
(dp1799
g1730
I00
sg67
g720
sg48
g1785
sg1731
I00
sg1732
I00
sg565
I12
sb(dp1800
g1731
I00
sg67
g720
sssg266
g267
sg268
g267
sg269
(dp1801
g1795
(dp1802
sg1798
(dp1803
g1795
(dp1804
g67
g705
ssssg463
g1801
sg78
(dp1805
sg465
g267
sg466
g1801
sg467
(dp1806
g1795
(dp1807
g1798
g1804
ssg1798
(dp1808
ssbsg560
(lp1809
g1798
ag1795
asg833
(lp1810
(iconstruction
TP_REL
p1811
(dp1812
g839
g1795
sg67
g705
sg565
I14
sg840
g1798
sg48
VEVT1_EVT2_14
p1813
sbasg565
I9
sg48
g1651
sbsg1746
(iconstruction
TP_SYNFORM
p1814
(dp1815
g565
I10
sg1749
(lp1816
(iconstruction
TP_SLOT
p1817
(dp1818
g1753
(lp1819
VS
p1820
asg1756
I0
sg565
I15
sg48
g1786
sba(iconstruction
TP_PHON
p1821
(dp1822
g1759
I4
sg1756
I1
sg565
I16
sg1760
Vthen
p1823
sg48
VS2_16
p1824
sba(iconstruction
TP_SLOT
p1825
(dp1826
g1753
(lp1827
VS
p1828
asg1756
I2
sg565
I17
sg48
g1784
sbasg48
g1651
sbsg1767
I1
sba(iconstruction
CXN
p1829
(dp1830
g1709
(iconstruction
TP_SYMLINKS
p1831
(dp1832
g1712
(dp1833
VEVT2_22
p1834
VS3_26
p1835
sVEVT1_21
p1836
VS1_24
p1837
ssg565
I20
sg48
g1651
sbsg1718
VD
p1838
sg1720
I3
sg48
VCNJ_WHILE
p1839
sg1721
(iconstruction
TP_SEMFRAME
p1840
(dp1841
g78
g0
(g79
g2
Ntp1842
Rp1843
(dp1844
g83
(dp1845
(iconstruction
TP_NODE
p1846
(dp1847
g1730
I00
sg67
g720
sg48
g1834
sg1731
I00
sg1732
I00
sg565
I22
sb(dp1848
g1731
I00
sg67
g720
ss(iconstruction
TP_NODE
p1849
(dp1850
g1730
I00
sg67
g720
sg48
g1836
sg1731
I00
sg1732
I01
sg565
I21
sb(dp1851
g1731
I00
sg67
g720
sssg266
g267
sg268
g267
sg269
(dp1852
g1846
(dp1853
sg1849
(dp1854
g1846
(dp1855
g67
g702
ssssg463
g1852
sg78
(dp1856
sg465
g267
sg466
g1852
sg467
(dp1857
g1846
(dp1858
g1849
g1855
ssg1849
(dp1859
ssbsg560
(lp1860
g1849
ag1846
asg833
(lp1861
(iconstruction
TP_REL
p1862
(dp1863
g839
g1846
sg67
g702
sg565
I23
sg840
g1849
sg48
VEVT1_EVT2_23
p1864
sbasg565
I18
sg48
g1651
sbsg1746
(iconstruction
TP_SYNFORM
p1865
(dp1866
g565
I19
sg1749
(lp1867
(iconstruction
TP_SLOT
p1868
(dp1869
g1753
(lp1870
VS
p1871
asg1756
I0
sg565
I24
sg48
g1837
sba(iconstruction
TP_PHON
p1872
(dp1873
g1759
I5
sg1756
I1
sg565
I25
sg1760
Vwhile
p1874
sg48
VS2_25
p1875
sba(iconstruction
TP_SLOT
p1876
(dp1877
g1753
(lp1878
VS
p1879
asg1756
I2
sg565
I26
sg48
g1835
sbasg48
g1651
sbsg1767
I1
sba(iconstruction
CXN
p1880
(dp1881
g1709
(iconstruction
TP_SYMLINKS
p1882
(dp1883
g1712
(dp1884
VACT_31
p1885
VS4_40
p1886
sVACTOR_1_32
p1887
VS1_37
p1888
sVACTOR_2_33
p1889
VS3_39
p1890
ssg565
I29
sg48
g1651
sbsg1718
VS
p1891
sg1720
Nsg48
VSYMMETRIC_TRANS
p1892
sg1721
(iconstruction
TP_SEMFRAME
p1893
(dp1894
g78
g0
(g79
g2
Ntp1895
Rp1896
(dp1897
g83
(dp1898
(iconstruction
TP_NODE
p1899
(dp1900
g1730
I01
sg67
g720
sg48
VEVT_30
p1901
sg1731
I01
sg1732
I00
sg565
I30
sb(dp1902
g1731
I01
sg67
g720
ss(iconstruction
TP_NODE
p1903
(dp1904
g1730
I00
sg67
g723
sg48
g1887
sg1731
I01
sg1732
I01
sg565
I32
sb(dp1905
g1731
I01
sg67
g723
ss(iconstruction
TP_NODE
p1906
(dp1907
g1730
I00
sg67
g567
sg48
g1885
sg1731
I01
sg1732
I00
sg565
I31
sb(dp1908
g1731
I01
sg67
g567
ss(iconstruction
TP_NODE
p1909
(dp1910
g1730
I00
sg67
g723
sg48
g1889
sg1731
I01
sg1732
I00
sg565
I33
sb(dp1911
g1731
I01
sg67
g723
sssg266
g267
sg268
g267
sg269
(dp1912
g1899
(dp1913
g1906
(dp1914
g67
g714
sssg1903
(dp1915
sg1906
(dp1916
g1903
(dp1917
g67
g690
ssg1909
(dp1918
g67
g690
sssg1909
(dp1919
ssg463
g1912
sg78
(dp1920
sg465
g267
sg466
g1912
sg467
(dp1921
g1899
(dp1922
sg1903
(dp1923
g1906
g1917
ssg1906
(dp1924
g1899
g1914
ssg1909
(dp1925
g1906
g1918
sssbsg560
(lp1926
g1899
ag1906
ag1903
ag1909
asg833
(lp1927
(iconstruction
TP_REL
p1928
(dp1929
g839
g1906
sg67
g714
sg565
I34
sg840
g1899
sg48
VIS_34
p1930
sba(iconstruction
TP_REL
p1931
(dp1932
g839
g1903
sg67
g690
sg565
I35
sg840
g1906
sg48
VAGT_PT_1_35
p1933
sba(iconstruction
TP_REL
p1934
(dp1935
g839
g1909
sg67
g690
sg565
I36
sg840
g1906
sg48
VAGT_PT_2_36
p1936
sbasg565
I27
sg48
g1651
sbsg1746
(iconstruction
TP_SYNFORM
p1937
(dp1938
g565
I28
sg1749
(lp1939
(iconstruction
TP_SLOT
p1940
(dp1941
g1753
(lp1942
VNP
p1943
aVN
p1944
asg1756
I0
sg565
I37
sg48
g1888
sba(iconstruction
TP_PHON
p1945
(dp1946
g1759
I3
sg1756
I1
sg565
I38
sg1760
Vand
p1947
sg48
VS2_38
p1948
sba(iconstruction
TP_SLOT
p1949
(dp1950
g1753
(lp1951
VNP
p1952
aVN
p1953
asg1756
I2
sg565
I39
sg48
g1890
sba(iconstruction
TP_SLOT
p1954
(dp1955
g1753
(lp1956
VVP
p1957
aVV
p1958
asg1756
I3
sg565
I40
sg48
g1886
sbasg48
g1651
sbsg1767
I1
sba(iconstruction
CXN
p1959
(dp1960
g1709
(iconstruction
TP_SYMLINKS
p1961
(dp1962
g1712
(dp1963
VAGT_46
p1964
VS1_51
p1965
sVACT_45
p1966
VS2_52
p1967
sVPT_47
p1968
VS3_53
p1969
ssg565
I43
sg48
g1651
sbsg1718
VS
p1970
sg1720
I2
sg48
VSVO
p1971
sg1721
(iconstruction
TP_SEMFRAME
p1972
(dp1973
g78
g0
(g79
g2
Ntp1974
Rp1975
(dp1976
g83
(dp1977
(iconstruction
TP_NODE
p1978
(dp1979
g1730
I01
sg67
g720
sg48
VEVT_44
p1980
sg1731
I01
sg1732
I00
sg565
I44
sb(dp1981
g1731
I01
sg67
g720
ss(iconstruction
TP_NODE
p1982
(dp1983
g1730
I00
sg67
g723
sg48
g1964
sg1731
I01
sg1732
I01
sg565
I46
sb(dp1984
g1731
I01
sg67
g723
ss(iconstruction
TP_NODE
p1985
(dp1986
g1730
I00
sg67
g723
sg48
g1968
sg1731
I01
sg1732
I00
sg565
I47
sb(dp1987
g1731
I01
sg67
g723
ss(iconstruction
TP_NODE
p1988
(dp1989
g1730
I00
sg67
g567
sg48
g1966
sg1731
I01
sg1732
I00
sg565
I45
sb(dp1990
g1731
I01
sg67
g567
sssg266
g267
sg268
g267
sg269
(dp1991
g1978
(dp1992
g1988
(dp1993
g67
g714
sssg1982
(dp1994
sg1985
(dp1995
sg1988
(dp1996
g1982
(dp1997
g67
g693
ssg1985
(dp1998
g67
g687
ssssg463
g1991
sg78
(dp1999
sg465
g267
sg466
g1991
sg467
(dp2000
g1978
(dp2001
sg1982
(dp2002
g1988
g1997
ssg1985
(dp2003
g1988
g1998
ssg1988
(dp2004
g1978
g1993
sssbsg560
(lp2005
g1978
ag1988
ag1982
ag1985
asg833
(lp2006
(iconstruction
TP_REL
p2007
(dp2008
g839
g1988
sg67
g714
sg565
I48
sg840
g1978
sg48
VIS_48
p2009
sba(iconstruction
TP_REL
p2010
(dp2011
g839
g1982
sg67
g693
sg565
I49
sg840
g1988
sg48
VACT_AGT_49
p2012
sba(iconstruction
TP_REL
p2013
(dp2014
g839
g1985
sg67
g687
sg565
I50
sg840
g1988
sg48
VACT_PT_50
p2015
sbasg565
I41
sg48
g1651
sbsg1746
(iconstruction
TP_SYNFORM
p2016
(dp2017
g565
I42
sg1749
(lp2018
(iconstruction
TP_SLOT
p2019
(dp2020
g1753
(lp2021
VNP
p2022
aVN
p2023
asg1756
I0
sg565
I51
sg48
g1965
sba(iconstruction
TP_SLOT
p2024
(dp2025
g1753
(lp2026
VVP
p2027
aVV
p2028
asg1756
I1
sg565
I52
sg48
g1967
sba(iconstruction
TP_SLOT
p2029
(dp2030
g1753
(lp2031
VNP
p2032
aVN
p2033
asg1756
I2
sg565
I53
sg48
g1969
sbasg48
g1651
sbsg1767
I1
sba(iconstruction
CXN
p2034
(dp2035
g1709
(iconstruction
TP_SYMLINKS
p2036
(dp2037
g1712
(dp2038
VPT_60
p2039
VS1_64
p2040
sVACT_58
p2041
VS3_66
p2042
sVAGT_59
p2043
VS6_69
p2044
ssg565
I56
sg48
g1651
sbsg1718
VS
p2045
sg1720
I2
sg48
VPAS_SVO
p2046
sg1721
(iconstruction
TP_SEMFRAME
p2047
(dp2048
g78
g0
(g79
g2
Ntp2049
Rp2050
(dp2051
g83
(dp2052
(iconstruction
TP_NODE
p2053
(dp2054
g1730
I00
sg67
g567
sg48
g2041
sg1731
I01
sg1732
I00
sg565
I58
sb(dp2055
g1731
I01
sg67
g567
ss(iconstruction
TP_NODE
p2056
(dp2057
g1730
I00
sg67
g723
sg48
g2043
sg1731
I01
sg1732
I00
sg565
I59
sb(dp2058
g1731
I01
sg67
g723
ss(iconstruction
TP_NODE
p2059
(dp2060
g1730
I01
sg67
g720
sg48
VEVT_57
p2061
sg1731
I01
sg1732
I00
sg565
I57
sb(dp2062
g1731
I01
sg67
g720
ss(iconstruction
TP_NODE
p2063
(dp2064
g1730
I00
sg67
g723
sg48
g2039
sg1731
I01
sg1732
I01
sg565
I60
sb(dp2065
g1731
I01
sg67
g723
sssg266
g267
sg268
g267
sg269
(dp2066
g2053
(dp2067
g2063
(dp2068
g67
g687
ssg2056
(dp2069
g67
g693
sssg2056
(dp2070
sg2059
(dp2071
g2053
(dp2072
g67
g714
sssg2063
(dp2073
ssg463
g2066
sg78
(dp2074
sg465
g267
sg466
g2066
sg467
(dp2075
g2053
(dp2076
g2059
g2072
ssg2056
(dp2077
g2053
g2069
ssg2059
(dp2078
sg2063
(dp2079
g2053
g2068
sssbsg560
(lp2080
g2059
ag2053
ag2056
ag2063
asg833
(lp2081
(iconstruction
TP_REL
p2082
(dp2083
g839
g2053
sg67
g714
sg565
I61
sg840
g2059
sg48
VIS_61
p2084
sba(iconstruction
TP_REL
p2085
(dp2086
g839
g2056
sg67
g693
sg565
I62
sg840
g2053
sg48
VACT_AGT_62
p2087
sba(iconstruction
TP_REL
p2088
(dp2089
g839
g2063
sg67
g687
sg565
I63
sg840
g2053
sg48
VACT_PT_63
p2090
sbasg565
I54
sg48
g1651
sbsg1746
(iconstruction
TP_SYNFORM
p2091
(dp2092
g565
I55
sg1749
(lp2093
(iconstruction
TP_SLOT
p2094
(dp2095
g1753
(lp2096
VNP
p2097
aVN
p2098
asg1756
I0
sg565
I64
sg48
g2040
sba(iconstruction
TP_PHON
p2099
(dp2100
g1759
I2
sg1756
I1
sg565
I65
sg1760
Vis
p2101
sg48
VS2_65
p2102
sba(iconstruction
TP_SLOT
p2103
(dp2104
g1753
(lp2105
VVP
p2106
aVV
p2107
asg1756
I2
sg565
I66
sg48
g2042
sba(iconstruction
TP_PHON
p2108
(dp2109
g1759
I2
sg1756
I3
sg565
I67
sg1760
V-ed
p2110
sg48
VS4_67
p2111
sba(iconstruction
TP_PHON
p2112
(dp2113
g1759
I2
sg1756
I4
sg565
I68
sg1760
Vby
p2114
sg48
VS5_68
p2115
sba(iconstruction
TP_SLOT
p2116
(dp2117
g1753
(lp2118
VNP
p2119
aVN
p2120
asg1756
I5
sg565
I69
sg48
g2044
sbasg48
g1651
sbsg1767
I1
sba(iconstruction
CXN
p2121
(dp2122
g1709
(iconstruction
TP_SYMLINKS
p2123
(dp2124
g1712
(dp2125
VACT_74
p2126
VS2_83
p2127
sVRCPT_77
p2128
VS3_84
p2129
sVTHEME_76
p2130
VS4_85
p2131
sVAGT_75
p2132
VS1_82
p2133
ssg565
I72
sg48
g1651
sbsg1718
VS
p2134
sg1720
I2
sg48
VDOUBLE_OBJ
p2135
sg1721
(iconstruction
TP_SEMFRAME
p2136
(dp2137
g78
g0
(g79
g2
Ntp2138
Rp2139
(dp2140
g83
(dp2141
(iconstruction
TP_NODE
p2142
(dp2143
g1730
I01
sg67
g720
sg48
VEVT_73
p2144
sg1731
I01
sg1732
I00
sg565
I73
sb(dp2145
g1731
I01
sg67
g720
ss(iconstruction
TP_NODE
p2146
(dp2147
g1730
I00
sg67
g723
sg48
g2132
sg1731
I01
sg1732
I01
sg565
I75
sb(dp2148
g1731
I01
sg67
g723
ss(iconstruction
TP_NODE
p2149
(dp2150
g1730
I00
sg67
g567
sg48
g2126
sg1731
I01
sg1732
I00
sg565
I74
sb(dp2151
g1731
I01
sg67
g567
ss(iconstruction
TP_NODE
p2152
(dp2153
g1730
I00
sg67
g723
sg48
g2128
sg1731
I01
sg1732
I00
sg565
I77
sb(dp2154
g1731
I01
sg67
g723
ss(iconstruction
TP_NODE
p2155
(dp2156
g1730
I00
sg67
g723
sg48
g2130
sg1731
I01
sg1732
I00
sg565
I76
sb(dp2157
g1731
I01
sg67
g723
sssg266
g267
sg268
g267
sg269
(dp2158
g2142
(dp2159
g2149
(dp2160
g67
g714
sssg2146
(dp2161
sg2149
(dp2162
g2146
(dp2163
g67
g693
ssg2152
(dp2164
g67
g678
ssg2155
(dp2165
g67
g675
sssg2152
(dp2166
sg2155
(dp2167
ssg463
g2158
sg78
(dp2168
sg465
g267
sg466
g2158
sg467
(dp2169
g2142
(dp2170
sg2146
(dp2171
g2149
g2163
ssg2149
(dp2172
g2142
g2160
ssg2152
(dp2173
g2149
g2164
ssg2155
(dp2174
g2149
g2165
sssbsg560
(lp2175
g2142
ag2149
ag2146
ag2155
ag2152
asg833
(lp2176
(iconstruction
TP_REL
p2177
(dp2178
g839
g2149
sg67
g714
sg565
I78
sg840
g2142
sg48
VIS_78
p2179
sba(iconstruction
TP_REL
p2180
(dp2181
g839
g2146
sg67
g693
sg565
I79
sg840
g2149
sg48
VACT_AGT_79
p2182
sba(iconstruction
TP_REL
p2183
(dp2184
g839
g2155
sg67
g675
sg565
I80
sg840
g2149
sg48
VACT_THEME_80
p2185
sba(iconstruction
TP_REL
p2186
(dp2187
g839
g2152
sg67
g678
sg565
I81
sg840
g2149
sg48
VACT_RCPT_81
p2188
sbasg565
I70
sg48
g1651
sbsg1746
(iconstruction
TP_SYNFORM
p2189
(dp2190
g565
I71
sg1749
(lp2191
(iconstruction
TP_SLOT
p2192
(dp2193
g1753
(lp2194
VNP
p2195
aVN
p2196
asg1756
I0
sg565
I82
sg48
g2133
sba(iconstruction
TP_SLOT
p2197
(dp2198
g1753
(lp2199
VVP
p2200
aVV
p2201
asg1756
I1
sg565
I83
sg48
g2127
sba(iconstruction
TP_SLOT
p2202
(dp2203
g1753
(lp2204
VNP
p2205
aVN
p2206
asg1756
I2
sg565
I84
sg48
g2129
sba(iconstruction
TP_SLOT
p2207
(dp2208
g1753
(lp2209
VNP
p2210
aVN
p2211
asg1756
I3
sg565
I85
sg48
g2131
sbasg48
g1651
sbsg1767
I1
sba(iconstruction
CXN
p2212
(dp2213
g1709
(iconstruction
TP_SYMLINKS
p2214
(dp2215
g1712
(dp2216
VAGT_91
p2217
VS1_98
p2218
sVRCPT_93
p2219
VS5_102
p2220
sVACT_90
p2221
VS2_99
p2222
sVTHEME_92
p2223
VS3_100
p2224
ssg565
I88
sg48
g1651
sbsg1718
VS
p2225
sg1720
I2
sg48
VOBLIQUE_DATIVE
p2226
sg1721
(iconstruction
TP_SEMFRAME
p2227
(dp2228
g78
g0
(g79
g2
Ntp2229
Rp2230
(dp2231
g83
(dp2232
(iconstruction
TP_NODE
p2233
(dp2234
g1730
I01
sg67
g720
sg48
VEVT_89
p2235
sg1731
I01
sg1732
I00
sg565
I89
sb(dp2236
g1731
I01
sg67
g720
ss(iconstruction
TP_NODE
p2237
(dp2238
g1730
I00
sg67
g723
sg48
g2217
sg1731
I01
sg1732
I01
sg565
I91
sb(dp2239
g1731
I01
sg67
g723
ss(iconstruction
TP_NODE
p2240
(dp2241
g1730
I00
sg67
g723
sg48
g2223
sg1731
I01
sg1732
I00
sg565
I92
sb(dp2242
g1731
I01
sg67
g723
ss(iconstruction
TP_NODE
p2243
(dp2244
g1730
I00
sg67
g615
sg48
g2221
sg1731
I01
sg1732
I00
sg565
I90
sb(dp2245
g1731
I01
sg67
g615
ss(iconstruction
TP_NODE
p2246
(dp2247
g1730
I00
sg67
g723
sg48
g2219
sg1731
I01
sg1732
I00
sg565
I93
sb(dp2248
g1731
I01
sg67
g723
sssg266
g267
sg268
g267
sg269
(dp2249
g2233
(dp2250
g2243
(dp2251
g67
g714
sssg2237
(dp2252
sg2240
(dp2253
sg2243
(dp2254
g2237
(dp2255
g67
g693
ssg2246
(dp2256
g67
g678
ssg2240
(dp2257
g67
g675
sssg2246
(dp2258
ssg463
g2249
sg78
(dp2259
sg465
g267
sg466
g2249
sg467
(dp2260
g2233
(dp2261
sg2237
(dp2262
g2243
g2255
ssg2240
(dp2263
g2243
g2257
ssg2243
(dp2264
g2233
g2251
ssg2246
(dp2265
g2243
g2256
sssbsg560
(lp2266
g2233
ag2243
ag2237
ag2240
ag2246
asg833
(lp2267
(iconstruction
TP_REL
p2268
(dp2269
g839
g2243
sg67
g714
sg565
I94
sg840
g2233
sg48
VIS_94
p2270
sba(iconstruction
TP_REL
p2271
(dp2272
g839
g2237
sg67
g693
sg565
I95
sg840
g2243
sg48
VACT_AGT_95
p2273
sba(iconstruction
TP_REL
p2274
(dp2275
g839
g2240
sg67
g675
sg565
I96
sg840
g2243
sg48
VACT_THEME_96
p2276
sba(iconstruction
TP_REL
p2277
(dp2278
g839
g2246
sg67
g678
sg565
I97
sg840
g2243
sg48
VACT_RCPT_97
p2279
sbasg565
I86
sg48
g1651
sbsg1746
(iconstruction
TP_SYNFORM
p2280
(dp2281
g565
I87
sg1749
(lp2282
(iconstruction
TP_SLOT
p2283
(dp2284
g1753
(lp2285
VNP
p2286
aVN
p2287
asg1756
I0
sg565
I98
sg48
g2218
sba(iconstruction
TP_SLOT
p2288
(dp2289
g1753
(lp2290
VVP
p2291
aVV
p2292
asg1756
I1
sg565
I99
sg48
g2222
sba(iconstruction
TP_SLOT
p2293
(dp2294
g1753
(lp2295
VNP
p2296
aVN
p2297
asg1756
I2
sg565
I100
sg48
g2224
sba(iconstruction
TP_PHON
p2298
(dp2299
g1759
I2
sg1756
I3
sg565
I101
sg1760
Vto
p2300
sg48
VS4_101
p2301
sba(iconstruction
TP_SLOT
p2302
(dp2303
g1753
(lp2304
VNP
p2305
aVN
p2306
asg1756
I4
sg565
I102
sg48
g2220
sbasg48
g1651
sbsg1767
I1
sba(iconstruction
CXN
p2307
(dp2308
g1709
(iconstruction
TP_SYMLINKS
p2309
(dp2310
g1712
(dp2311
VATTR_108
p2312
VS3_113
p2313
sVENT_107
p2314
VS1_111
p2315
ssg565
I105
sg48
g1651
sbsg1718
VS
p2316
sg1720
I2
sg48
VSPA
p2317
sg1721
(iconstruction
TP_SEMFRAME
p2318
(dp2319
g78
g0
(g79
g2
Ntp2320
Rp2321
(dp2322
g83
(dp2323
(iconstruction
TP_NODE
p2324
(dp2325
g1730
I00
sg67
g723
sg48
g2314
sg1731
I01
sg1732
I01
sg565
I107
sb(dp2326
g1731
I01
sg67
g723
ss(iconstruction
TP_NODE
p2327
(dp2328
g1730
I00
sg67
g624
sg48
g2312
sg1731
I00
sg1732
I00
sg565
I108
sb(dp2329
g1731
I00
sg67
g624
ss(iconstruction
TP_NODE
p2330
(dp2331
g1730
I01
sg67
g720
sg48
VEVT_106
p2332
sg1731
I01
sg1732
I00
sg565
I106
sb(dp2333
g1731
I01
sg67
g720
sssg266
g267
sg268
g267
sg269
(dp2334
g2324
(dp2335
sg2327
(dp2336
sg2330
(dp2337
g2324
(dp2338
g67
g714
ssg2327
(dp2339
g67
g672
ssssg463
g2334
sg78
(dp2340
sg465
g267
sg466
g2334
sg467
(dp2341
g2324
(dp2342
g2330
g2338
ssg2327
(dp2343
g2330
g2339
ssg2330
(dp2344
ssbsg560
(lp2345
g2330
ag2324
ag2327
asg833
(lp2346
(iconstruction
TP_REL
p2347
(dp2348
g839
g2324
sg67
g714
sg565
I109
sg840
g2330
sg48
VIS_109
p2349
sba(iconstruction
TP_REL
p2350
(dp2351
g839
g2327
sg67
g672
sg565
I110
sg840
g2330
sg48
VEVT_ATTR_110
p2352
sbasg565
I103
sg48
g1651
sbsg1746
(iconstruction
TP_SYNFORM
p2353
(dp2354
g565
I104
sg1749
(lp2355
(iconstruction
TP_SLOT
p2356
(dp2357
g1753
(lp2358
VNP
p2359
aVN
p2360
asg1756
I0
sg565
I111
sg48
g2315
sba(iconstruction
TP_PHON
p2361
(dp2362
g1759
I2
sg1756
I1
sg565
I112
sg1760
Vis
p2363
sg48
VS2_112
p2364
sba(iconstruction
TP_SLOT
p2365
(dp2366
g1753
(lp2367
VA
p2368
asg1756
I2
sg565
I113
sg48
g2313
sbasg48
g1651
sbsg1767
I1
sba(iconstruction
CXN
p2369
(dp2370
g1709
(iconstruction
TP_SYMLINKS
p2371
(dp2372
g1712
(dp2373
VAGT_119
p2374
VS1_122
p2375
sVACT_118
p2376
VS2_123
p2377
ssg565
I116
sg48
g1651
sbsg1718
VS
p2378
sg1720
I2
sg48
VSV
p2379
sg1721
(iconstruction
TP_SEMFRAME
p2380
(dp2381
g78
g0
(g79
g2
Ntp2382
Rp2383
(dp2384
g83
(dp2385
(iconstruction
TP_NODE
p2386
(dp2387
g1730
I00
sg67
g579
sg48
g2376
sg1731
I01
sg1732
I00
sg565
I118
sb(dp2388
g1731
I01
sg67
g579
ss(iconstruction
TP_NODE
p2389
(dp2390
g1730
I00
sg67
g723
sg48
g2374
sg1731
I01
sg1732
I01
sg565
I119
sb(dp2391
g1731
I01
sg67
g723
ss(iconstruction
TP_NODE
p2392
(dp2393
g1730
I01
sg67
g720
sg48
VEVT_117
p2394
sg1731
I01
sg1732
I00
sg565
I117
sb(dp2395
g1731
I01
sg67
g720
sssg266
g267
sg268
g267
sg269
(dp2396
g2386
(dp2397
g2389
(dp2398
g67
g693
sssg2389
(dp2399
sg2392
(dp2400
g2386
(dp2401
g67
g714
ssssg463
g2396
sg78
(dp2402
sg465
g267
sg466
g2396
sg467
(dp2403
g2386
(dp2404
g2392
g2401
ssg2389
(dp2405
g2386
g2398
ssg2392
(dp2406
ssbsg560
(lp2407
g2392
ag2386
ag2389
asg833
(lp2408
(iconstruction
TP_REL
p2409
(dp2410
g839
g2386
sg67
g714
sg565
I120
sg840
g2392
sg48
VIS_120
p2411
sba(iconstruction
TP_REL
p2412
(dp2413
g839
g2389
sg67
g693
sg565
I121
sg840
g2386
sg48
VACT_AGT_121
p2414
sbasg565
I114
sg48
g1651
sbsg1746
(iconstruction
TP_SYNFORM
p2415
(dp2416
g565
I115
sg1749
(lp2417
(iconstruction
TP_SLOT
p2418
(dp2419
g1753
(lp2420
VNP
p2421
aVN
p2422
asg1756
I0
sg565
I122
sg48
g2375
sba(iconstruction
TP_SLOT
p2423
(dp2424
g1753
(lp2425
VVP
p2426
aVV
p2427
asg1756
I1
sg565
I123
sg48
g2377
sbasg48
g1651
sbsg1767
I1
sba(iconstruction
CXN
p2428
(dp2429
g1709
(iconstruction
TP_SYMLINKS
p2430
(dp2431
g1712
(dp2432
VEVT_127
p2433
VS1_130
p2434
sVPLACE_128
p2435
VS3_132
p2436
ssg565
I126
sg48
g1651
sbsg1718
VS
p2437
sg1720
I2
sg48
VPP_IN
p2438
sg1721
(iconstruction
TP_SEMFRAME
p2439
(dp2440
g78
g0
(g79
g2
Ntp2441
Rp2442
(dp2443
g83
(dp2444
(iconstruction
TP_NODE
p2445
(dp2446
g1730
I00
sg67
g723
sg48
g2435
sg1731
I01
sg1732
I00
sg565
I128
sb(dp2447
g1731
I01
sg67
g723
ss(iconstruction
TP_NODE
p2448
(dp2449
g1730
I01
sg67
g720
sg48
g2433
sg1731
I01
sg1732
I00
sg565
I127
sb(dp2450
g1731
I01
sg67
g720
sssg266
g267
sg268
g267
sg269
(dp2451
g2445
(dp2452
sg2448
(dp2453
g2445
(dp2454
g67
g711
ssssg463
g2451
sg78
(dp2455
sg465
g267
sg466
g2451
sg467
(dp2456
g2445
(dp2457
g2448
g2454
ssg2448
(dp2458
ssbsg560
(lp2459
g2448
ag2445
asg833
(lp2460
(iconstruction
TP_REL
p2461
(dp2462
g839
g2445
sg67
g711
sg565
I129
sg840
g2448
sg48
VEVT_PP_129
p2463
sbasg565
I124
sg48
g1651
sbsg1746
(iconstruction
TP_SYNFORM
p2464
(dp2465
g565
I125
sg1749
(lp2466
(iconstruction
TP_SLOT
p2467
(dp2468
g1753
(lp2469
VS
p2470
asg1756
I0
sg565
I130
sg48
g2434
sba(iconstruction
TP_PHON
p2471
(dp2472
g1759
I2
sg1756
I1
sg565
I131
sg1760
Vin
p2473
sg48
VS2_131
p2474
sba(iconstruction
TP_SLOT
p2475
(dp2476
g1753
(lp2477
VNP
p2478
aVN
p2479
asg1756
I2
sg565
I132
sg48
g2436
sbasg48
g1651
sbsg1767
I1
sba(iconstruction
CXN
p2480
(dp2481
g1709
(iconstruction
TP_SYMLINKS
p2482
(dp2483
g1712
(dp2484
VEVT2_137
p2485
VS2_140
p2486
sVEVT1_136
p2487
VS1_139
p2488
ssg565
I135
sg48
g1651
sbsg1718
VS
p2489
sg1720
I2
sg48
VS_PP
p2490
sg1721
(iconstruction
TP_SEMFRAME
p2491
(dp2492
g78
g0
(g79
g2
Ntp2493
Rp2494
(dp2495
g83
(dp2496
(iconstruction
TP_NODE
p2497
(dp2498
g1730
I01
sg67
g720
sg48
g2487
sg1731
I01
sg1732
I01
sg565
I136
sb(dp2499
g1731
I01
sg67
g720
ss(iconstruction
TP_NODE
p2500
(dp2501
g1730
I00
sg67
g720
sg48
g2485
sg1731
I01
sg1732
I00
sg565
I137
sb(dp2502
g1731
I01
sg67
g720
sssg266
g267
sg268
g267
sg269
(dp2503
g2497
(dp2504
g2500
(dp2505
g67
g672
sssg2500
(dp2506
ssg463
g2503
sg78
(dp2507
sg465
g267
sg466
g2503
sg467
(dp2508
g2497
(dp2509
sg2500
(dp2510
g2497
g2505
sssbsg560
(lp2511
g2497
ag2500
asg833
(lp2512
(iconstruction
TP_REL
p2513
(dp2514
g839
g2500
sg67
g672
sg565
I138
sg840
g2497
sg48
VMOD_138
p2515
sbasg565
I133
sg48
g1651
sbsg1746
(iconstruction
TP_SYNFORM
p2516
(dp2517
g565
I134
sg1749
(lp2518
(iconstruction
TP_SLOT
p2519
(dp2520
g1753
(lp2521
VS
p2522
asg1756
I0
sg565
I139
sg48
g2488
sba(iconstruction
TP_SLOT
p2523
(dp2524
g1753
(lp2525
VPP
p2526
asg1756
I1
sg565
I140
sg48
g2486
sbasg48
g1651
sbsg1767
I1
sba(iconstruction
CXN
p2527
(dp2528
g1709
(iconstruction
TP_SYMLINKS
p2529
(dp2530
g1712
(dp2531
VENT_144
p2532
VS2_148
p2533
sVATTR_145
p2534
VS1_147
p2535
ssg565
I143
sg48
g1651
sbsg1718
VN
p2536
sg1720
I2
sg48
VADJUNCT_N
p2537
sg1721
(iconstruction
TP_SEMFRAME
p2538
(dp2539
g78
g0
(g79
g2
Ntp2540
Rp2541
(dp2542
g83
(dp2543
(iconstruction
TP_NODE
p2544
(dp2545
g1730
I01
sg67
g723
sg48
g2532
sg1731
I01
sg1732
I00
sg565
I144
sb(dp2546
g1731
I01
sg67
g723
ss(iconstruction
TP_NODE
p2547
(dp2548
g1730
I00
sg67
g624
sg48
g2534
sg1731
I00
sg1732
I00
sg565
I145
sb(dp2549
g1731
I00
sg67
g624
sssg266
g267
sg268
g267
sg269
(dp2550
g2544
(dp2551
g2547
(dp2552
g67
g672
sssg2547
(dp2553
ssg463
g2550
sg78
(dp2554
sg465
g267
sg466
g2550
sg467
(dp2555
g2544
(dp2556
sg2547
(dp2557
g2544
g2552
sssbsg560
(lp2558
g2544
ag2547
asg833
(lp2559
(iconstruction
TP_REL
p2560
(dp2561
g839
g2547
sg67
g672
sg565
I146
sg840
g2544
sg48
VENT_ATTR_146
p2562
sbasg565
I141
sg48
g1651
sbsg1746
(iconstruction
TP_SYNFORM
p2563
(dp2564
g565
I142
sg1749
(lp2565
(iconstruction
TP_SLOT
p2566
(dp2567
g1753
(lp2568
VA
p2569
asg1756
I0
sg565
I147
sg48
g2535
sba(iconstruction
TP_SLOT
p2570
(dp2571
g1753
(lp2572
VN
p2573
asg1756
I1
sg565
I148
sg48
g2533
sbasg48
g1651
sbsg1767
I1
sba(iconstruction
CXN
p2574
(dp2575
g1709
(iconstruction
TP_SYMLINKS
p2576
(dp2577
g1712
(dp2578
VAGT_154
p2579
VS1_160
p2580
sVACT_153
p2581
VS3_162
p2582
sVPT_155
p2583
VS4_163
p2584
ssg565
I151
sg48
g1651
sbsg1718
VN
p2585
sg1720
I2
sg48
VSUBJ_REL_SVO
p2586
sg1721
(iconstruction
TP_SEMFRAME
p2587
(dp2588
g78
g0
(g79
g2
Ntp2589
Rp2590
(dp2591
g83
(dp2592
(iconstruction
TP_NODE
p2593
(dp2594
g1730
I00
sg67
g720
sg48
VEVT_152
p2595
sg1731
I01
sg1732
I00
sg565
I152
sb(dp2596
g1731
I01
sg67
g720
ss(iconstruction
TP_NODE
p2597
(dp2598
g1730
I01
sg67
g723
sg48
g2579
sg1731
I01
sg1732
I00
sg565
I154
sb(dp2599
g1731
I01
sg67
g723
ss(iconstruction
TP_NODE
p2600
(dp2601
g1730
I00
sg67
g585
sg48
g2581
sg1731
I01
sg1732
I01
sg565
I153
sb(dp2602
g1731
I01
sg67
g585
ss(iconstruction
TP_NODE
p2603
(dp2604
g1730
I00
sg67
g723
sg48
g2583
sg1731
I01
sg1732
I00
sg565
I155
sb(dp2605
g1731
I01
sg67
g723
sssg266
g267
sg268
g267
sg269
(dp2606
g2593
(dp2607
g2600
(dp2608
g67
g714
sssg2597
(dp2609
g2593
(dp2610
g67
g672
sssg2600
(dp2611
g2597
(dp2612
g67
g693
ssg2603
(dp2613
g67
g687
sssg2603
(dp2614
ssg463
g2606
sg78
(dp2615
sg465
g267
sg466
g2606
sg467
(dp2616
g2593
(dp2617
g2597
g2610
ssg2597
(dp2618
g2600
g2612
ssg2600
(dp2619
g2593
g2608
ssg2603
(dp2620
g2600
g2613
sssbsg560
(lp2621
g2593
ag2600
ag2597
ag2603
asg833
(lp2622
(iconstruction
TP_REL
p2623
(dp2624
g839
g2600
sg67
g714
sg565
I156
sg840
g2593
sg48
VIS_156
p2625
sba(iconstruction
TP_REL
p2626
(dp2627
g839
g2597
sg67
g693
sg565
I157
sg840
g2600
sg48
VACT_AGT_157
p2628
sba(iconstruction
TP_REL
p2629
(dp2630
g839
g2603
sg67
g687
sg565
I158
sg840
g2600
sg48
VACT_PT_158
p2631
sba(iconstruction
TP_REL
p2632
(dp2633
g839
g2593
sg67
g672
sg565
I159
sg840
g2597
sg48
VAGT_EVT_159
p2634
sbasg565
I149
sg48
g1651
sbsg1746
(iconstruction
TP_SYNFORM
p2635
(dp2636
g565
I150
sg1749
(lp2637
(iconstruction
TP_SLOT
p2638
(dp2639
g1753
(lp2640
VN
p2641
asg1756
I0
sg565
I160
sg48
g2580
sba(iconstruction
TP_PHON
p2642
(dp2643
g1759
I4
sg1756
I1
sg565
I161
sg1760
Vthat
p2644
sg48
VS2_161
p2645
sba(iconstruction
TP_SLOT
p2646
(dp2647
g1753
(lp2648
VVP
p2649
aVV
p2650
asg1756
I2
sg565
I162
sg48
g2582
sba(iconstruction
TP_SLOT
p2651
(dp2652
g1753
(lp2653
VNP
p2654
aVN
p2655
asg1756
I3
sg565
I163
sg48
g2584
sbasg48
g1651
sbsg1767
I1
sba(iconstruction
CXN
p2656
(dp2657
g1709
(iconstruction
TP_SYMLINKS
p2658
(dp2659
g1712
(dp2660
VAGT_169
p2661
VS1_173
p2662
sVACT_168
p2663
VS3_175
p2664
ssg565
I166
sg48
g1651
sbsg1718
VN
p2665
sg1720
I2
sg48
VSUBJ_REL_SV
p2666
sg1721
(iconstruction
TP_SEMFRAME
p2667
(dp2668
g78
g0
(g79
g2
Ntp2669
Rp2670
(dp2671
g83
(dp2672
(iconstruction
TP_NODE
p2673
(dp2674
g1730
I00
sg67
g720
sg48
VEVT_167
p2675
sg1731
I01
sg1732
I00
sg565
I167
sb(dp2676
g1731
I01
sg67
g720
ss(iconstruction
TP_NODE
p2677
(dp2678
g1730
I01
sg67
g723
sg48
g2661
sg1731
I01
sg1732
I00
sg565
I169
sb(dp2679
g1731
I01
sg67
g723
ss(iconstruction
TP_NODE
p2680
(dp2681
g1730
I00
sg67
g567
sg48
g2663
sg1731
I01
sg1732
I01
sg565
I168
sb(dp2682
g1731
I01
sg67
g567
sssg266
g267
sg268
g267
sg269
(dp2683
g2673
(dp2684
g2680
(dp2685
g67
g714
sssg2677
(dp2686
g2673
(dp2687
g67
g672
sssg2680
(dp2688
g2677
(dp2689
g67
g693
ssssg463
g2683
sg78
(dp2690
sg465
g267
sg466
g2683
sg467
(dp2691
g2673
(dp2692
g2677
g2687
ssg2677
(dp2693
g2680
g2689
ssg2680
(dp2694
g2673
g2685
sssbsg560
(lp2695
g2673
ag2680
ag2677
asg833
(lp2696
(iconstruction
TP_REL
p2697
(dp2698
g839
g2680
sg67
g714
sg565
I170
sg840
g2673
sg48
VIS_170
p2699
sba(iconstruction
TP_REL
p2700
(dp2701
g839
g2677
sg67
g693
sg565
I171
sg840
g2680
sg48
VACT_AGT_171
p2702
sba(iconstruction
TP_REL
p2703
(dp2704
g839
g2673
sg67
g672
sg565
I172
sg840
g2677
sg48
VAGT_EVT_172
p2705
sbasg565
I164
sg48
g1651
sbsg1746
(iconstruction
TP_SYNFORM
p2706
(dp2707
g565
I165
sg1749
(lp2708
(iconstruction
TP_SLOT
p2709
(dp2710
g1753
(lp2711
VN
p2712
asg1756
I0
sg565
I173
sg48
g2662
sba(iconstruction
TP_PHON
p2713
(dp2714
g1759
I4
sg1756
I1
sg565
I174
sg1760
Vthat
p2715
sg48
VS2_174
p2716
sba(iconstruction
TP_SLOT
p2717
(dp2718
g1753
(lp2719
VVP
p2720
aVV
p2721
asg1756
I2
sg565
I175
sg48
g2664
sbasg48
g1651
sbsg1767
I1
sba(iconstruction
CXN
p2722
(dp2723
g1709
(iconstruction
TP_SYMLINKS
p2724
(dp2725
g1712
(dp2726
VAGT_181
p2727
VS7_193
p2728
sVPT_182
p2729
VS1_187
p2730
sVACT_180
p2731
VS4_190
p2732
ssg565
I178
sg48
g1651
sbsg1718
VN
p2733
sg1720
I2
sg48
VSUBJ_REL_PAS_SVO
p2734
sg1721
(iconstruction
TP_SEMFRAME
p2735
(dp2736
g78
g0
(g79
g2
Ntp2737
Rp2738
(dp2739
g83
(dp2740
(iconstruction
TP_NODE
p2741
(dp2742
g1730
I00
sg67
g720
sg48
VEVT_179
p2743
sg1731
I01
sg1732
I00
sg565
I179
sb(dp2744
g1731
I01
sg67
g720
ss(iconstruction
TP_NODE
p2745
(dp2746
g1730
I00
sg67
g723
sg48
g2727
sg1731
I01
sg1732
I00
sg565
I181
sb(dp2747
g1731
I01
sg67
g723
ss(iconstruction
TP_NODE
p2748
(dp2749
g1730
I01
sg67
g723
sg48
g2729
sg1731
I01
sg1732
I00
sg565
I182
sb(dp2750
g1731
I01
sg67
g723
ss(iconstruction
TP_NODE
p2751
(dp2752
g1730
I00
sg67
g567
sg48
g2731
sg1731
I01
sg1732
I01
sg565
I180
sb(dp2753
g1731
I01
sg67
g567
sssg266
g267
sg268
g267
sg269
(dp2754
g2741
(dp2755
g2751
(dp2756
g67
g714
sssg2745
(dp2757
sg2748
(dp2758
g2741
(dp2759
g67
g672
sssg2751
(dp2760
g2745
(dp2761
g67
g693
ssg2748
(dp2762
g67
g687
ssssg463
g2754
sg78
(dp2763
sg465
g267
sg466
g2754
sg467
(dp2764
g2741
(dp2765
g2748
g2759
ssg2745
(dp2766
g2751
g2761
ssg2748
(dp2767
g2751
g2762
ssg2751
(dp2768
g2741
g2756
sssbsg560
(lp2769
g2741
ag2751
ag2745
ag2748
asg833
(lp2770
(iconstruction
TP_REL
p2771
(dp2772
g839
g2751
sg67
g714
sg565
I183
sg840
g2741
sg48
VIS_183
p2773
sba(iconstruction
TP_REL
p2774
(dp2775
g839
g2745
sg67
g693
sg565
I184
sg840
g2751
sg48
VACT_AGT_184
p2776
sba(iconstruction
TP_REL
p2777
(dp2778
g839
g2748
sg67
g687
sg565
I185
sg840
g2751
sg48
VACT_PT_185
p2779
sba(iconstruction
TP_REL
p2780
(dp2781
g839
g2741
sg67
g672
sg565
I186
sg840
g2748
sg48
VPT_EVT_186
p2782
sbasg565
I176
sg48
g1651
sbsg1746
(iconstruction
TP_SYNFORM
p2783
(dp2784
g565
I177
sg1749
(lp2785
(iconstruction
TP_SLOT
p2786
(dp2787
g1753
(lp2788
VN
p2789
asg1756
I0
sg565
I187
sg48
g2730
sba(iconstruction
TP_PHON
p2790
(dp2791
g1759
I4
sg1756
I1
sg565
I188
sg1760
Vthat
p2792
sg48
VS2_188
p2793
sba(iconstruction
TP_PHON
p2794
(dp2795
g1759
I2
sg1756
I2
sg565
I189
sg1760
Vis
p2796
sg48
VS3_189
p2797
sba(iconstruction
TP_SLOT
p2798
(dp2799
g1753
(lp2800
VVP
p2801
aVV
p2802
asg1756
I3
sg565
I190
sg48
g2732
sba(iconstruction
TP_PHON
p2803
(dp2804
g1759
I2
sg1756
I4
sg565
I191
sg1760
V-ed
p2805
sg48
VS5_191
p2806
sba(iconstruction
TP_PHON
p2807
(dp2808
g1759
I2
sg1756
I5
sg565
I192
sg1760
Vby
p2809
sg48
VS6_192
p2810
sba(iconstruction
TP_SLOT
p2811
(dp2812
g1753
(lp2813
VNP
p2814
aVN
p2815
asg1756
I6
sg565
I193
sg48
g2728
sbasg48
g1651
sbsg1767
I1
sba(iconstruction
CXN
p2816
(dp2817
g1709
(iconstruction
TP_SYMLINKS
p2818
(dp2819
g1712
(dp2820
VAGT_199
p2821
VS3_207
p2822
sVACT_198
p2823
VS4_208
p2824
sVPT_200
p2825
VS1_205
p2826
ssg565
I196
sg48
g1651
sbsg1718
VN
p2827
sg1720
I2
sg48
VOBJ_REL_SVO
p2828
sg1721
(iconstruction
TP_SEMFRAME
p2829
(dp2830
g78
g0
(g79
g2
Ntp2831
Rp2832
(dp2833
g83
(dp2834
(iconstruction
TP_NODE
p2835
(dp2836
g1730
I00
sg67
g720
sg48
VEVT_197
p2837
sg1731
I01
sg1732
I00
sg565
I197
sb(dp2838
g1731
I01
sg67
g720
ss(iconstruction
TP_NODE
p2839
(dp2840
g1730
I00
sg67
g723
sg48
g2821
sg1731
I01
sg1732
I00
sg565
I199
sb(dp2841
g1731
I01
sg67
g723
ss(iconstruction
TP_NODE
p2842
(dp2843
g1730
I01
sg67
g723
sg48
g2825
sg1731
I01
sg1732
I00
sg565
I200
sb(dp2844
g1731
I01
sg67
g723
ss(iconstruction
TP_NODE
p2845
(dp2846
g1730
I00
sg67
g567
sg48
g2823
sg1731
I01
sg1732
I01
sg565
I198
sb(dp2847
g1731
I01
sg67
g567
sssg266
g267
sg268
g267
sg269
(dp2848
g2835
(dp2849
g2845
(dp2850
g67
g714
sssg2839
(dp2851
sg2842
(dp2852
g2835
(dp2853
g67
g672
sssg2845
(dp2854
g2839
(dp2855
g67
g693
ssg2842
(dp2856
g67
g687
ssssg463
g2848
sg78
(dp2857
sg465
g267
sg466
g2848
sg467
(dp2858
g2835
(dp2859
g2842
g2853
ssg2839
(dp2860
g2845
g2855
ssg2842
(dp2861
g2845
g2856
ssg2845
(dp2862
g2835
g2850
sssbsg560
(lp2863
g2835
ag2845
ag2839
ag2842
asg833
(lp2864
(iconstruction
TP_REL
p2865
(dp2866
g839
g2845
sg67
g714
sg565
I201
sg840
g2835
sg48
VIS_201
p2867
sba(iconstruction
TP_REL
p2868
(dp2869
g839
g2839
sg67
g693
sg565
I202
sg840
g2845
sg48
VACT_AGT_202
p2870
sba(iconstruction
TP_REL
p2871
(dp2872
g839
g2842
sg67
g687
sg565
I203
sg840
g2845
sg48
VACT_PT_203
p2873
sba(iconstruction
TP_REL
p2874
(dp2875
g839
g2835
sg67
g672
sg565
I204
sg840
g2842
sg48
VPT_EVT_204
p2876
sbasg565
I194
sg48
g1651
sbsg1746
(iconstruction
TP_SYNFORM
p2877
(dp2878
g565
I195
sg1749
(lp2879
(iconstruction
TP_SLOT
p2880
(dp2881
g1753
(lp2882
VN
p2883
asg1756
I0
sg565
I205
sg48
g2826
sba(iconstruction
TP_PHON
p2884
(dp2885
g1759
I4
sg1756
I1
sg565
I206
sg1760
Vthat
p2886
sg48
VS2_206
p2887
sba(iconstruction
TP_SLOT
p2888
(dp2889
g1753
(lp2890
VNP
p2891
aVN
p2892
asg1756
I2
sg565
I207
sg48
g2822
sba(iconstruction
TP_SLOT
p2893
(dp2894
g1753
(lp2895
VVP
p2896
aVV
p2897
asg1756
I3
sg565
I208
sg48
g2824
sbasg48
g1651
sbsg1767
I1
sba(iconstruction
CXN
p2898
(dp2899
g1709
(iconstruction
TP_SYMLINKS
p2900
(dp2901
g1712
(dp2902
VPT_215
p2903
VS3_222
p2904
sVACT_213
p2905
VS5_224
p2906
sVAGT_214
p2907
VS1_220
p2908
ssg565
I211
sg48
g1651
sbsg1718
VN
p2909
sg1720
I2
sg48
VOBJ_REL_PAS_SVO
p2910
sg1721
(iconstruction
TP_SEMFRAME
p2911
(dp2912
g78
g0
(g79
g2
Ntp2913
Rp2914
(dp2915
g83
(dp2916
(iconstruction
TP_NODE
p2917
(dp2918
g1730
I00
sg67
g720
sg48
VEVT_212
p2919
sg1731
I01
sg1732
I00
sg565
I212
sb(dp2920
g1731
I01
sg67
g720
ss(iconstruction
TP_NODE
p2921
(dp2922
g1730
I01
sg67
g723
sg48
g2907
sg1731
I01
sg1732
I00
sg565
I214
sb(dp2923
g1731
I01
sg67
g723
ss(iconstruction
TP_NODE
p2924
(dp2925
g1730
I00
sg67
g567
sg48
g2905
sg1731
I01
sg1732
I01
sg565
I213
sb(dp2926
g1731
I01
sg67
g567
ss(iconstruction
TP_NODE
p2927
(dp2928
g1730
I00
sg67
g723
sg48
g2903
sg1731
I01
sg1732
I00
sg565
I215
sb(dp2929
g1731
I01
sg67
g723
sssg266
g267
sg268
g267
sg269
(dp2930
g2917
(dp2931
g2924
(dp2932
g67
g714
sssg2921
(dp2933
g2917
(dp2934
g67
g672
sssg2924
(dp2935
g2921
(dp2936
g67
g693
ssg2927
(dp2937
g67
g687
sssg2927
(dp2938
ssg463
g2930
sg78
(dp2939
sg465
g267
sg466
g2930
sg467
(dp2940
g2917
(dp2941
g2921
g2934
ssg2921
(dp2942
g2924
g2936
ssg2924
(dp2943
g2917
g2932
ssg2927
(dp2944
g2924
g2937
sssbsg560
(lp2945
g2917
ag2924
ag2921
ag2927
asg833
(lp2946
(iconstruction
TP_REL
p2947
(dp2948
g839
g2924
sg67
g714
sg565
I216
sg840
g2917
sg48
VIS_216
p2949
sba(iconstruction
TP_REL
p2950
(dp2951
g839
g2921
sg67
g693
sg565
I217
sg840
g2924
sg48
VACT_AGT_217
p2952
sba(iconstruction
TP_REL
p2953
(dp2954
g839
g2927
sg67
g687
sg565
I218
sg840
g2924
sg48
VACT_PT_218
p2955
sba(iconstruction
TP_REL
p2956
(dp2957
g839
g2917
sg67
g672
sg565
I219
sg840
g2921
sg48
VAGT_EVT_219
p2958
sbasg565
I209
sg48
g1651
sbsg1746
(iconstruction
TP_SYNFORM
p2959
(dp2960
g565
I210
sg1749
(lp2961
(iconstruction
TP_SLOT
p2962
(dp2963
g1753
(lp2964
VN
p2965
asg1756
I0
sg565
I220
sg48
g2908
sba(iconstruction
TP_PHON
p2966
(dp2967
g1759
I4
sg1756
I1
sg565
I221
sg1760
Vthat
p2968
sg48
VS2_221
p2969
sba(iconstruction
TP_SLOT
p2970
(dp2971
g1753
(lp2972
VNP
p2973
aVN
p2974
asg1756
I2
sg565
I222
sg48
g2904
sba(iconstruction
TP_PHON
p2975
(dp2976
g1759
I2
sg1756
I3
sg565
I223
sg1760
Vis
p2977
sg48
VS4_223
p2978
sba(iconstruction
TP_SLOT
p2979
(dp2980
g1753
(lp2981
VVP
p2982
aVV
p2983
asg1756
I4
sg565
I224
sg48
g2906
sba(iconstruction
TP_PHON
p2984
(dp2985
g1759
I2
sg1756
I5
sg565
I225
sg1760
V-ed
p2986
sg48
VS6_225
p2987
sba(iconstruction
TP_PHON
p2988
(dp2989
g1759
I2
sg1756
I6
sg565
I226
sg1760
Vby
p2990
sg48
VS7_226
p2991
sbasg48
g1651
sbsg1767
I1
sba(iconstruction
CXN
p2992
(dp2993
g1709
(iconstruction
TP_SYMLINKS
p2994
(dp2995
g1712
(dp2996
VATTR_232
p2997
VS4_238
p2998
sVENT_231
p2999
VS1_235
p3000
ssg565
I229
sg48
g1651
sbsg1718
VN
p3001
sg1720
I2
sg48
VREL_SPA
p3002
sg1721
(iconstruction
TP_SEMFRAME
p3003
(dp3004
g78
g0
(g79
g2
Ntp3005
Rp3006
(dp3007
g83
(dp3008
(iconstruction
TP_NODE
p3009
(dp3010
g1730
I00
sg67
g720
sg48
VEVT_230
p3011
sg1731
I01
sg1732
I00
sg565
I230
sb(dp3012
g1731
I01
sg67
g720
ss(iconstruction
TP_NODE
p3013
(dp3014
g1730
I00
sg67
g624
sg48
g2997
sg1731
I00
sg1732
I00
sg565
I232
sb(dp3015
g1731
I00
sg67
g624
ss(iconstruction
TP_NODE
p3016
(dp3017
g1730
I01
sg67
g723
sg48
g2999
sg1731
I01
sg1732
I01
sg565
I231
sb(dp3018
g1731
I01
sg67
g723
sssg266
g267
sg268
g267
sg269
(dp3019
g3009
(dp3020
g3013
(dp3021
g67
g672
ssg3016
(dp3022
g67
g714
sssg3013
(dp3023
sg3016
(dp3024
ssg463
g3019
sg78
(dp3025
sg465
g267
sg466
g3019
sg467
(dp3026
g3009
(dp3027
sg3013
(dp3028
g3009
g3021
ssg3016
(dp3029
g3009
g3022
sssbsg560
(lp3030
g3009
ag3016
ag3013
asg833
(lp3031
(iconstruction
TP_REL
p3032
(dp3033
g839
g3016
sg67
g714
sg565
I233
sg840
g3009
sg48
VIS_233
p3034
sba(iconstruction
TP_REL
p3035
(dp3036
g839
g3013
sg67
g672
sg565
I234
sg840
g3009
sg48
VEVT_ATTR_234
p3037
sbasg565
I227
sg48
g1651
sbsg1746
(iconstruction
TP_SYNFORM
p3038
(dp3039
g565
I228
sg1749
(lp3040
(iconstruction
TP_SLOT
p3041
(dp3042
g1753
(lp3043
VN
p3044
asg1756
I0
sg565
I235
sg48
g3000
sba(iconstruction
TP_PHON
p3045
(dp3046
g1759
I4
sg1756
I1
sg565
I236
sg1760
Vthat
p3047
sg48
VS2_236
p3048
sba(iconstruction
TP_PHON
p3049
(dp3050
g1759
I2
sg1756
I2
sg565
I237
sg1760
Vis
p3051
sg48
VS3_237
p3052
sba(iconstruction
TP_SLOT
p3053
(dp3054
g1753
(lp3055
VA
p3056
asg1756
I3
sg565
I238
sg48
g2998
sbasg48
g1651
sbsg1767
I1
sba(iconstruction
CXN
p3057
(dp3058
g1709
(iconstruction
TP_SYMLINKS
p3059
(dp3060
g1712
(dp3061
VAGT_244
p3062
VS1_251
p3063
sVCOLOR_246
p3064
VS3_253
p3065
ssg565
I241
sg48
g1651
sbsg1718
VN
p3066
sg1720
I2
sg48
VIN_COLOR
p3067
sg1721
(iconstruction
TP_SEMFRAME
p3068
(dp3069
g78
g0
(g79
g2
Ntp3070
Rp3071
(dp3072
g83
(dp3073
(iconstruction
TP_NODE
p3074
(dp3075
g1730
I00
sg67
g720
sg48
VEVT_242
p3076
sg1731
I01
sg1732
I00
sg565
I242
sb(dp3077
g1731
I01
sg67
g720
ss(iconstruction
TP_NODE
p3078
(dp3079
g1730
I01
sg67
g732
sg48
g3062
sg1731
I01
sg1732
I00
sg565
I244
sb(dp3080
g1731
I01
sg67
g732
ss(iconstruction
TP_NODE
p3081
(dp3082
g1730
I00
sg67
g612
sg48
VACT_243
p3083
sg1731
I01
sg1732
I00
sg565
I243
sb(dp3084
g1731
I01
sg67
g612
ss(iconstruction
TP_NODE
p3085
(dp3086
g1730
I00
sg67
g627
sg48
g3064
sg1731
I00
sg1732
I01
sg565
I246
sb(dp3087
g1731
I00
sg67
g627
ss(iconstruction
TP_NODE
p3088
(dp3089
g1730
I00
sg67
g762
sg48
VPT_245
p3090
sg1731
I01
sg1732
I00
sg565
I245
sb(dp3091
g1731
I01
sg67
g762
sssg266
g267
sg268
g267
sg269
(dp3092
g3074
(dp3093
g3081
(dp3094
g67
g714
sssg3078
(dp3095
sg3081
(dp3096
g3078
(dp3097
g67
g693
ssg3088
(dp3098
g67
g687
sssg3085
(dp3099
sg3088
(dp3100
g3085
(dp3101
g67
g672
ssssg463
g3092
sg78
(dp3102
sg465
g267
sg466
g3092
sg467
(dp3103
g3074
(dp3104
sg3078
(dp3105
g3081
g3097
ssg3081
(dp3106
g3074
g3094
ssg3085
(dp3107
g3088
g3101
ssg3088
(dp3108
g3081
g3098
sssbsg560
(lp3109
g3074
ag3081
ag3078
ag3088
ag3085
asg833
(lp3110
(iconstruction
TP_REL
p3111
(dp3112
g839
g3081
sg67
g714
sg565
I247
sg840
g3074
sg48
VIS_247
p3113
sba(iconstruction
TP_REL
p3114
(dp3115
g839
g3078
sg67
g693
sg565
I248
sg840
g3081
sg48
VACT_AGT_248
p3116
sba(iconstruction
TP_REL
p3117
(dp3118
g839
g3088
sg67
g687
sg565
I249
sg840
g3081
sg48
VACT_PT_249
p3119
sba(iconstruction
TP_REL
p3120
(dp3121
g839
g3085
sg67
g672
sg565
I250
sg840
g3088
sg48
VPT_COLOR_250
p3122
sbasg565
I239
sg48
g1651
sbsg1746
(iconstruction
TP_SYNFORM
p3123
(dp3124
g565
I240
sg1749
(lp3125
(iconstruction
TP_SLOT
p3126
(dp3127
g1753
(lp3128
VN
p3129
asg1756
I0
sg565
I251
sg48
g3063
sba(iconstruction
TP_PHON
p3130
(dp3131
g1759
I2
sg1756
I1
sg565
I252
sg1760
Vin
p3132
sg48
VS2_252
p3133
sba(iconstruction
TP_SLOT
p3134
(dp3135
g1753
(lp3136
VA
p3137
asg1756
I2
sg565
I253
sg48
g3065
sbasg48
g1651
sbsg1767
I1
sba(iconstruction
CXN
p3138
(dp3139
g1709
(iconstruction
TP_SYMLINKS
p3140
(dp3141
g1712
(dp3142
VN1_258
p3143
VS1_260
p3144
ssg565
I256
sg48
g1651
sbsg1718
VV
p3145
sg1720
I1
sg48
VHIT
p3146
sg1721
(iconstruction
TP_SEMFRAME
p3147
(dp3148
g78
g0
(g79
g2
Ntp3149
Rp3150
(dp3151
g83
(dp3152
(iconstruction
TP_NODE
p3153
(dp3154
g1730
I00
sg67
g588
sg48
g3143
sg1731
I00
sg1732
I00
sg565
I258
sb(dp3155
g1731
I00
sg67
g588
ss(iconstruction
TP_NODE
p3156
(dp3157
g1730
I01
sg67
g567
sg48
VACT_257
p3158
sg1731
I01
sg1732
I00
sg565
I257
sb(dp3159
g1731
I01
sg67
g567
sssg266
g267
sg268
g267
sg269
(dp3160
g3153
(dp3161
sg3156
(dp3162
g3153
(dp3163
g67
g714
ssssg463
g3160
sg78
(dp3164
sg465
g267
sg466
g3160
sg467
(dp3165
g3153
(dp3166
g3156
g3163
ssg3156
(dp3167
ssbsg560
(lp3168
g3156
ag3153
asg833
(lp3169
(iconstruction
TP_REL
p3170
(dp3171
g839
g3153
sg67
g714
sg565
I259
sg840
g3156
sg48
VIS_259
p3172
sbasg565
I254
sg48
g1651
sbsg1746
(iconstruction
TP_SYNFORM
p3173
(dp3174
g565
I255
sg1749
(lp3175
(iconstruction
TP_PHON
p3176
(dp3177
g1759
I3
sg1756
I0
sg565
I260
sg1760
Vhit
p3178
sg48
g3144
sbasg48
g1651
sbsg1767
I1
sba(iconstruction
CXN
p3179
(dp3180
g1709
(iconstruction
TP_SYMLINKS
p3181
(dp3182
g1712
(dp3183
VN1_265
p3184
VS1_267
p3185
ssg565
I263
sg48
g1651
sbsg1718
VV
p3186
sg1720
I1
sg48
VKICK
p3187
sg1721
(iconstruction
TP_SEMFRAME
p3188
(dp3189
g78
g0
(g79
g2
Ntp3190
Rp3191
(dp3192
g83
(dp3193
(iconstruction
TP_NODE
p3194
(dp3195
g1730
I00
sg67
g609
sg48
g3184
sg1731
I00
sg1732
I00
sg565
I265
sb(dp3196
g1731
I00
sg67
g609
ss(iconstruction
TP_NODE
p3197
(dp3198
g1730
I01
sg67
g567
sg48
VACT_264
p3199
sg1731
I01
sg1732
I00
sg565
I264
sb(dp3200
g1731
I01
sg67
g567
sssg266
g267
sg268
g267
sg269
(dp3201
g3194
(dp3202
sg3197
(dp3203
g3194
(dp3204
g67
g714
ssssg463
g3201
sg78
(dp3205
sg465
g267
sg466
g3201
sg467
(dp3206
g3194
(dp3207
g3197
g3204
ssg3197
(dp3208
ssbsg560
(lp3209
g3197
ag3194
asg833
(lp3210
(iconstruction
TP_REL
p3211
(dp3212
g839
g3194
sg67
g714
sg565
I266
sg840
g3197
sg48
VIS_266
p3213
sbasg565
I261
sg48
g1651
sbsg1746
(iconstruction
TP_SYNFORM
p3214
(dp3215
g565
I262
sg1749
(lp3216
(iconstruction
TP_PHON
p3217
(dp3218
g1759
I4
sg1756
I0
sg565
I267
sg1760
Vkick
p3219
sg48
g3185
sbasg48
g1651
sbsg1767
I1
sba(iconstruction
CXN
p3220
(dp3221
g1709
(iconstruction
TP_SYMLINKS
p3222
(dp3223
g1712
(dp3224
VN1_272
p3225
VS1_274
p3226
ssg565
I270
sg48
g1651
sbsg1718
VV
p3227
sg1720
I1
sg48
VPUNCH
p3228
sg1721
(iconstruction
TP_SEMFRAME
p3229
(dp3230
g78
g0
(g79
g2
Ntp3231
Rp3232
(dp3233
g83
(dp3234
(iconstruction
TP_NODE
p3235
(dp3236
g1730
I01
sg67
g567
sg48
VACT_271
p3237
sg1731
I01
sg1732
I00
sg565
I271
sb(dp3238
g1731
I01
sg67
g567
ss(iconstruction
TP_NODE
p3239
(dp3240
g1730
I00
sg67
g594
sg48
g3225
sg1731
I00
sg1732
I00
sg565
I272
sb(dp3241
g1731
I00
sg67
g594
sssg266
g267
sg268
g267
sg269
(dp3242
g3235
(dp3243
g3239
(dp3244
g67
g714
sssg3239
(dp3245
ssg463
g3242
sg78
(dp3246
sg465
g267
sg466
g3242
sg467
(dp3247
g3235
(dp3248
sg3239
(dp3249
g3235
g3244
sssbsg560
(lp3250
g3235
ag3239
asg833
(lp3251
(iconstruction
TP_REL
p3252
(dp3253
g839
g3239
sg67
g714
sg565
I273
sg840
g3235
sg48
VIS_273
p3254
sbasg565
I268
sg48
g1651
sbsg1746
(iconstruction
TP_SYNFORM
p3255
(dp3256
g565
I269
sg1749
(lp3257
(iconstruction
TP_PHON
p3258
(dp3259
g1759
I5
sg1756
I0
sg565
I274
sg1760
Vpunch
p3260
sg48
g3226
sbasg48
g1651
sbsg1767
I1
sba(iconstruction
CXN
p3261
(dp3262
g1709
(iconstruction
TP_SYMLINKS
p3263
(dp3264
g1712
(dp3265
VN1_279
p3266
VS1_281
p3267
ssg565
I277
sg48
g1651
sbsg1718
VV
p3268
sg1720
I1
sg48
VWEAR
p3269
sg1721
(iconstruction
TP_SEMFRAME
p3270
(dp3271
g78
g0
(g79
g2
Ntp3272
Rp3273
(dp3274
g83
(dp3275
(iconstruction
TP_NODE
p3276
(dp3277
g1730
I00
sg67
g612
sg48
g3266
sg1731
I00
sg1732
I00
sg565
I279
sb(dp3278
g1731
I00
sg67
g612
ss(iconstruction
TP_NODE
p3279
(dp3280
g1730
I01
sg67
g567
sg48
VACT_278
p3281
sg1731
I01
sg1732
I00
sg565
I278
sb(dp3282
g1731
I01
sg67
g567
sssg266
g267
sg268
g267
sg269
(dp3283
g3276
(dp3284
sg3279
(dp3285
g3276
(dp3286
g67
g714
ssssg463
g3283
sg78
(dp3287
sg465
g267
sg466
g3283
sg467
(dp3288
g3276
(dp3289
g3279
g3286
ssg3279
(dp3290
ssbsg560
(lp3291
g3279
ag3276
asg833
(lp3292
(iconstruction
TP_REL
p3293
(dp3294
g839
g3276
sg67
g714
sg565
I280
sg840
g3279
sg48
VIS_280
p3295
sbasg565
I275
sg48
g1651
sbsg1746
(iconstruction
TP_SYNFORM
p3296
(dp3297
g565
I276
sg1749
(lp3298
(iconstruction
TP_PHON
p3299
(dp3300
g1759
I4
sg1756
I0
sg565
I281
sg1760
Vwear
p3301
sg48
g3267
sbasg48
g1651
sbsg1767
I1
sba(iconstruction
CXN
p3302
(dp3303
g1709
(iconstruction
TP_SYMLINKS
p3304
(dp3305
g1712
(dp3306
VN1_286
p3307
VS1_288
p3308
ssg565
I284
sg48
g1651
sbsg1718
VV
p3309
sg1720
I1
sg48
VLAUGH
p3310
sg1721
(iconstruction
TP_SEMFRAME
p3311
(dp3312
g78
g0
(g79
g2
Ntp3313
Rp3314
(dp3315
g83
(dp3316
(iconstruction
TP_NODE
p3317
(dp3318
g1730
I01
sg67
g567
sg48
VACT_285
p3319
sg1731
I01
sg1732
I00
sg565
I285
sb(dp3320
g1731
I01
sg67
g567
ss(iconstruction
TP_NODE
p3321
(dp3322
g1730
I00
sg67
g582
sg48
g3307
sg1731
I00
sg1732
I00
sg565
I286
sb(dp3323
g1731
I00
sg67
g582
sssg266
g267
sg268
g267
sg269
(dp3324
g3317
(dp3325
g3321
(dp3326
g67
g714
sssg3321
(dp3327
ssg463
g3324
sg78
(dp3328
sg465
g267
sg466
g3324
sg467
(dp3329
g3317
(dp3330
sg3321
(dp3331
g3317
g3326
sssbsg560
(lp3332
g3317
ag3321
asg833
(lp3333
(iconstruction
TP_REL
p3334
(dp3335
g839
g3321
sg67
g714
sg565
I287
sg840
g3317
sg48
VIS_287
p3336
sbasg565
I282
sg48
g1651
sbsg1746
(iconstruction
TP_SYNFORM
p3337
(dp3338
g565
I283
sg1749
(lp3339
(iconstruction
TP_PHON
p3340
(dp3341
g1759
I5
sg1756
I0
sg565
I288
sg1760
Vlaugh
p3342
sg48
g3308
sbasg48
g1651
sbsg1767
I1
sba(iconstruction
CXN
p3343
(dp3344
g1709
(iconstruction
TP_SYMLINKS
p3345
(dp3346
g1712
(dp3347
VN1_293
p3348
VS1_295
p3349
ssg565
I291
sg48
g1651
sbsg1718
VV
p3350
sg1720
I1
sg48
VWATCH
p3351
sg1721
(iconstruction
TP_SEMFRAME
p3352
(dp3353
g78
g0
(g79
g2
Ntp3354
Rp3355
(dp3356
g83
(dp3357
(iconstruction
TP_NODE
p3358
(dp3359
g1730
I00
sg67
g591
sg48
g3348
sg1731
I00
sg1732
I00
sg565
I293
sb(dp3360
g1731
I00
sg67
g591
ss(iconstruction
TP_NODE
p3361
(dp3362
g1730
I01
sg67
g567
sg48
VACT_292
p3363
sg1731
I01
sg1732
I00
sg565
I292
sb(dp3364
g1731
I01
sg67
g567
sssg266
g267
sg268
g267
sg269
(dp3365
g3358
(dp3366
sg3361
(dp3367
g3358
(dp3368
g67
g714
ssssg463
g3365
sg78
(dp3369
sg465
g267
sg466
g3365
sg467
(dp3370
g3358
(dp3371
g3361
g3368
ssg3361
(dp3372
ssbsg560
(lp3373
g3361
ag3358
asg833
(lp3374
(iconstruction
TP_REL
p3375
(dp3376
g839
g3358
sg67
g714
sg565
I294
sg840
g3361
sg48
VIS_294
p3377
sbasg565
I289
sg48
g1651
sbsg1746
(iconstruction
TP_SYNFORM
p3378
(dp3379
g565
I290
sg1749
(lp3380
(iconstruction
TP_PHON
p3381
(dp3382
g1759
I5
sg1756
I0
sg565
I295
sg1760
Vwatch
p3383
sg48
g3349
sbasg48
g1651
sbsg1767
I1
sba(iconstruction
CXN
p3384
(dp3385
g1709
(iconstruction
TP_SYMLINKS
p3386
(dp3387
g1712
(dp3388
VN1_300
p3389
VS1_302
p3390
ssg565
I298
sg48
g1651
sbsg1718
VV
p3391
sg1720
I1
sg48
VTALK
p3392
sg1721
(iconstruction
TP_SEMFRAME
p3393
(dp3394
g78
g0
(g79
g2
Ntp3395
Rp3396
(dp3397
g83
(dp3398
(iconstruction
TP_NODE
p3399
(dp3400
g1730
I00
sg67
g600
sg48
g3389
sg1731
I00
sg1732
I00
sg565
I300
sb(dp3401
g1731
I00
sg67
g600
ss(iconstruction
TP_NODE
p3402
(dp3403
g1730
I01
sg67
g567
sg48
VACT_299
p3404
sg1731
I01
sg1732
I00
sg565
I299
sb(dp3405
g1731
I01
sg67
g567
sssg266
g267
sg268
g267
sg269
(dp3406
g3399
(dp3407
sg3402
(dp3408
g3399
(dp3409
g67
g714
ssssg463
g3406
sg78
(dp3410
sg465
g267
sg466
g3406
sg467
(dp3411
g3399
(dp3412
g3402
g3409
ssg3402
(dp3413
ssbsg560
(lp3414
g3402
ag3399
asg833
(lp3415
(iconstruction
TP_REL
p3416
(dp3417
g839
g3399
sg67
g714
sg565
I301
sg840
g3402
sg48
VIS_301
p3418
sbasg565
I296
sg48
g1651
sbsg1746
(iconstruction
TP_SYNFORM
p3419
(dp3420
g565
I297
sg1749
(lp3421
(iconstruction
TP_PHON
p3422
(dp3423
g1759
I4
sg1756
I0
sg565
I302
sg1760
Vtalk
p3424
sg48
g3390
sba(iconstruction
TP_PHON
p3425
(dp3426
g1759
I2
sg1756
I1
sg565
I303
sg1760
Vto
p3427
sg48
VS2_303
p3428
sbasg48
g1651
sbsg1767
I1
sba(iconstruction
CXN
p3429
(dp3430
g1709
(iconstruction
TP_SYMLINKS
p3431
(dp3432
g1712
(dp3433
VN1_308
p3434
VS1_310
p3435
ssg565
I306
sg48
g1651
sbsg1718
VV
p3436
sg1720
I1
sg48
VSQUIRT
p3437
sg1721
(iconstruction
TP_SEMFRAME
p3438
(dp3439
g78
g0
(g79
g2
Ntp3440
Rp3441
(dp3442
g83
(dp3443
(iconstruction
TP_NODE
p3444
(dp3445
g1730
I00
sg67
g606
sg48
g3434
sg1731
I00
sg1732
I00
sg565
I308
sb(dp3446
g1731
I00
sg67
g606
ss(iconstruction
TP_NODE
p3447
(dp3448
g1730
I01
sg67
g567
sg48
VACT_307
p3449
sg1731
I01
sg1732
I00
sg565
I307
sb(dp3450
g1731
I01
sg67
g567
sssg266
g267
sg268
g267
sg269
(dp3451
g3444
(dp3452
sg3447
(dp3453
g3444
(dp3454
g67
g714
ssssg463
g3451
sg78
(dp3455
sg465
g267
sg466
g3451
sg467
(dp3456
g3444
(dp3457
g3447
g3454
ssg3447
(dp3458
ssbsg560
(lp3459
g3447
ag3444
asg833
(lp3460
(iconstruction
TP_REL
p3461
(dp3462
g839
g3444
sg67
g714
sg565
I309
sg840
g3447
sg48
VIS_309
p3463
sbasg565
I304
sg48
g1651
sbsg1746
(iconstruction
TP_SYNFORM
p3464
(dp3465
g565
I305
sg1749
(lp3466
(iconstruction
TP_PHON
p3467
(dp3468
g1759
I6
sg1756
I0
sg565
I310
sg1760
Vsquirt
p3469
sg48
g3435
sba(iconstruction
TP_PHON
p3470
(dp3471
g1759
I2
sg1756
I1
sg565
I311
sg1760
Vat
p3472
sg48
VS2_311
p3473
sbasg48
g1651
sbsg1767
I1
sba(iconstruction
CXN
p3474
(dp3475
g1709
(iconstruction
TP_SYMLINKS
p3476
(dp3477
g1712
(dp3478
VN1_316
p3479
VS1_318
p3480
ssg565
I314
sg48
g1651
sbsg1718
VV
p3481
sg1720
I1
sg48
VSPLASH
p3482
sg1721
(iconstruction
TP_SEMFRAME
p3483
(dp3484
g78
g0
(g79
g2
Ntp3485
Rp3486
(dp3487
g83
(dp3488
(iconstruction
TP_NODE
p3489
(dp3490
g1730
I00
sg67
g597
sg48
g3479
sg1731
I00
sg1732
I00
sg565
I316
sb(dp3491
g1731
I00
sg67
g597
ss(iconstruction
TP_NODE
p3492
(dp3493
g1730
I01
sg67
g567
sg48
VACT_315
p3494
sg1731
I01
sg1732
I00
sg565
I315
sb(dp3495
g1731
I01
sg67
g567
sssg266
g267
sg268
g267
sg269
(dp3496
g3489
(dp3497
sg3492
(dp3498
g3489
(dp3499
g67
g714
ssssg463
g3496
sg78
(dp3500
sg465
g267
sg466
g3496
sg467
(dp3501
g3489
(dp3502
g3492
g3499
ssg3492
(dp3503
ssbsg560
(lp3504
g3492
ag3489
asg833
(lp3505
(iconstruction
TP_REL
p3506
(dp3507
g839
g3489
sg67
g714
sg565
I317
sg840
g3492
sg48
VIS_317
p3508
sbasg565
I312
sg48
g1651
sbsg1746
(iconstruction
TP_SYNFORM
p3509
(dp3510
g565
I313
sg1749
(lp3511
(iconstruction
TP_PHON
p3512
(dp3513
g1759
I6
sg1756
I0
sg565
I318
sg1760
Vsplash
p3514
sg48
g3480
sbasg48
g1651
sbsg1767
I1
sba(iconstruction
CXN
p3515
(dp3516
g1709
(iconstruction
TP_SYMLINKS
p3517
(dp3518
g1712
(dp3519
VN1_323
p3520
VS1_325
p3521
ssg565
I321
sg48
g1651
sbsg1718
VV
p3522
sg1720
I1
sg48
VGIVE
p3523
sg1721
(iconstruction
TP_SEMFRAME
p3524
(dp3525
g78
g0
(g79
g2
Ntp3526
Rp3527
(dp3528
g83
(dp3529
(iconstruction
TP_NODE
p3530
(dp3531
g1730
I01
sg67
g567
sg48
VACT_322
p3532
sg1731
I01
sg1732
I00
sg565
I322
sb(dp3533
g1731
I01
sg67
g567
ss(iconstruction
TP_NODE
p3534
(dp3535
g1730
I00
sg67
g621
sg48
g3520
sg1731
I00
sg1732
I00
sg565
I323
sb(dp3536
g1731
I00
sg67
g621
sssg266
g267
sg268
g267
sg269
(dp3537
g3530
(dp3538
g3534
(dp3539
g67
g714
sssg3534
(dp3540
ssg463
g3537
sg78
(dp3541
sg465
g267
sg466
g3537
sg467
(dp3542
g3530
(dp3543
sg3534
(dp3544
g3530
g3539
sssbsg560
(lp3545
g3530
ag3534
asg833
(lp3546
(iconstruction
TP_REL
p3547
(dp3548
g839
g3534
sg67
g714
sg565
I324
sg840
g3530
sg48
VIS_324
p3549
sbasg565
I319
sg48
g1651
sbsg1746
(iconstruction
TP_SYNFORM
p3550
(dp3551
g565
I320
sg1749
(lp3552
(iconstruction
TP_PHON
p3553
(dp3554
g1759
I4
sg1756
I0
sg565
I325
sg1760
Vgive
p3555
sg48
g3521
sbasg48
g1651
sbsg1767
I1
sba(iconstruction
CXN
p3556
(dp3557
g1709
(iconstruction
TP_SYMLINKS
p3558
(dp3559
g1712
(dp3560
VN1_330
p3561
VS1_332
p3562
ssg565
I328
sg48
g1651
sbsg1718
VV
p3563
sg1720
I1
sg48
VSEND
p3564
sg1721
(iconstruction
TP_SEMFRAME
p3565
(dp3566
g78
g0
(g79
g2
Ntp3567
Rp3568
(dp3569
g83
(dp3570
(iconstruction
TP_NODE
p3571
(dp3572
g1730
I00
sg67
g618
sg48
g3561
sg1731
I00
sg1732
I00
sg565
I330
sb(dp3573
g1731
I00
sg67
g618
ss(iconstruction
TP_NODE
p3574
(dp3575
g1730
I01
sg67
g567
sg48
VACT_329
p3576
sg1731
I01
sg1732
I00
sg565
I329
sb(dp3577
g1731
I01
sg67
g567
sssg266
g267
sg268
g267
sg269
(dp3578
g3571
(dp3579
sg3574
(dp3580
g3571
(dp3581
g67
g714
ssssg463
g3578
sg78
(dp3582
sg465
g267
sg466
g3578
sg467
(dp3583
g3571
(dp3584
g3574
g3581
ssg3574
(dp3585
ssbsg560
(lp3586
g3574
ag3571
asg833
(lp3587
(iconstruction
TP_REL
p3588
(dp3589
g839
g3571
sg67
g714
sg565
I331
sg840
g3574
sg48
VIS_331
p3590
sbasg565
I326
sg48
g1651
sbsg1746
(iconstruction
TP_SYNFORM
p3591
(dp3592
g565
I327
sg1749
(lp3593
(iconstruction
TP_PHON
p3594
(dp3595
g1759
I4
sg1756
I0
sg565
I332
sg1760
Vsend
p3596
sg48
g3562
sbasg48
g1651
sbsg1767
I1
sba(iconstruction
CXN
p3597
(dp3598
g1709
(iconstruction
TP_SYMLINKS
p3599
(dp3600
g1712
(dp3601
VN1_337
p3602
VS1_339
p3603
ssg565
I335
sg48
g1651
sbsg1718
VV
p3604
sg1720
I1
sg48
VMEET
p3605
sg1721
(iconstruction
TP_SEMFRAME
p3606
(dp3607
g78
g0
(g79
g2
Ntp3608
Rp3609
(dp3610
g83
(dp3611
(iconstruction
TP_NODE
p3612
(dp3613
g1730
I01
sg67
g567
sg48
VACT_336
p3614
sg1731
I01
sg1732
I00
sg565
I336
sb(dp3615
g1731
I01
sg67
g567
ss(iconstruction
TP_NODE
p3616
(dp3617
g1730
I00
sg67
g573
sg48
g3602
sg1731
I00
sg1732
I00
sg565
I337
sb(dp3618
g1731
I00
sg67
g573
sssg266
g267
sg268
g267
sg269
(dp3619
g3612
(dp3620
g3616
(dp3621
g67
g714
sssg3616
(dp3622
ssg463
g3619
sg78
(dp3623
sg465
g267
sg466
g3619
sg467
(dp3624
g3612
(dp3625
sg3616
(dp3626
g3612
g3621
sssbsg560
(lp3627
g3612
ag3616
asg833
(lp3628
(iconstruction
TP_REL
p3629
(dp3630
g839
g3616
sg67
g714
sg565
I338
sg840
g3612
sg48
VIS_338
p3631
sbasg565
I333
sg48
g1651
sbsg1746
(iconstruction
TP_SYNFORM
p3632
(dp3633
g565
I334
sg1749
(lp3634
(iconstruction
TP_PHON
p3635
(dp3636
g1759
I4
sg1756
I0
sg565
I339
sg1760
Vmeet
p3637
sg48
g3603
sbasg48
g1651
sbsg1767
I1
sba(iconstruction
CXN
p3638
(dp3639
g1709
(iconstruction
TP_SYMLINKS
p3640
(dp3641
g1712
(dp3642
VN1_344
p3643
VS1_346
p3644
ssg565
I342
sg48
g1651
sbsg1718
VV
p3645
sg1720
I1
sg48
VKISS
p3646
sg1721
(iconstruction
TP_SEMFRAME
p3647
(dp3648
g78
g0
(g79
g2
Ntp3649
Rp3650
(dp3651
g83
(dp3652
(iconstruction
TP_NODE
p3653
(dp3654
g1730
I01
sg67
g567
sg48
VACT_343
p3655
sg1731
I01
sg1732
I00
sg565
I343
sb(dp3656
g1731
I01
sg67
g567
ss(iconstruction
TP_NODE
p3657
(dp3658
g1730
I00
sg67
g603
sg48
g3643
sg1731
I00
sg1732
I00
sg565
I344
sb(dp3659
g1731
I00
sg67
g603
sssg266
g267
sg268
g267
sg269
(dp3660
g3653
(dp3661
g3657
(dp3662
g67
g714
sssg3657
(dp3663
ssg463
g3660
sg78
(dp3664
sg465
g267
sg466
g3660
sg467
(dp3665
g3653
(dp3666
sg3657
(dp3667
g3653
g3662
sssbsg560
(lp3668
g3653
ag3657
asg833
(lp3669
(iconstruction
TP_REL
p3670
(dp3671
g839
g3657
sg67
g714
sg565
I345
sg840
g3653
sg48
VIS_345
p3672
sbasg565
I340
sg48
g1651
sbsg1746
(iconstruction
TP_SYNFORM
p3673
(dp3674
g565
I341
sg1749
(lp3675
(iconstruction
TP_PHON
p3676
(dp3677
g1759
I4
sg1756
I0
sg565
I346
sg1760
Vkiss
p3678
sg48
g3644
sbasg48
g1651
sbsg1767
I1
sba(iconstruction
CXN
p3679
(dp3680
g1709
(iconstruction
TP_SYMLINKS
p3681
(dp3682
g1712
(dp3683
VN1_351
p3684
VS1_353
p3685
ssg565
I349
sg48
g1651
sbsg1718
VV
p3686
sg1720
I1
sg48
VSHAKE_HANDS
p3687
sg1721
(iconstruction
TP_SEMFRAME
p3688
(dp3689
g78
g0
(g79
g2
Ntp3690
Rp3691
(dp3692
g83
(dp3693
(iconstruction
TP_NODE
p3694
(dp3695
g1730
I00
sg67
g576
sg48
g3684
sg1731
I00
sg1732
I00
sg565
I351
sb(dp3696
g1731
I00
sg67
g576
ss(iconstruction
TP_NODE
p3697
(dp3698
g1730
I01
sg67
g567
sg48
VACT_350
p3699
sg1731
I01
sg1732
I00
sg565
I350
sb(dp3700
g1731
I01
sg67
g567
sssg266
g267
sg268
g267
sg269
(dp3701
g3694
(dp3702
sg3697
(dp3703
g3694
(dp3704
g67
g714
ssssg463
g3701
sg78
(dp3705
sg465
g267
sg466
g3701
sg467
(dp3706
g3694
(dp3707
g3697
g3704
ssg3697
(dp3708
ssbsg560
(lp3709
g3697
ag3694
asg833
(lp3710
(iconstruction
TP_REL
p3711
(dp3712
g839
g3694
sg67
g714
sg565
I352
sg840
g3697
sg48
VIS_352
p3713
sbasg565
I347
sg48
g1651
sbsg1746
(iconstruction
TP_SYNFORM
p3714
(dp3715
g565
I348
sg1749
(lp3716
(iconstruction
TP_PHON
p3717
(dp3718
g1759
I10
sg1756
I0
sg565
I353
sg1760
Vshake hands
p3719
sg48
g3685
sbasg48
g1651
sbsg1767
I1
sba(iconstruction
CXN
p3720
(dp3721
g1709
(iconstruction
TP_SYMLINKS
p3722
(dp3723
g1712
(dp3724
VN1_357
p3725
VS1_358
p3726
ssg565
I356
sg48
g1651
sbsg1718
VA
p3727
sg1720
I1
sg48
VBLUE
p3728
sg1721
(iconstruction
TP_SEMFRAME
p3729
(dp3730
g78
g0
(g79
g2
Ntp3731
Rp3732
(dp3733
g83
(dp3734
(iconstruction
TP_NODE
p3735
(dp3736
g1730
I01
sg67
g630
sg48
g3725
sg1731
I00
sg1732
I00
sg565
I357
sb(dp3737
g1731
I00
sg67
g630
sssg266
g267
sg268
g267
sg269
(dp3738
g3735
(dp3739
ssg463
g3738
sg78
(dp3740
sg465
g267
sg466
g3738
sg467
(dp3741
g3735
(dp3742
ssbsg560
(lp3743
g3735
asg833
(lp3744
sg565
I354
sg48
g1651
sbsg1746
(iconstruction
TP_SYNFORM
p3745
(dp3746
g565
I355
sg1749
(lp3747
(iconstruction
TP_PHON
p3748
(dp3749
g1759
I4
sg1756
I0
sg565
I358
sg1760
Vblue
p3750
sg48
g3726
sbasg48
g1651
sbsg1767
I1
sba(iconstruction
CXN
p3751
(dp3752
g1709
(iconstruction
TP_SYMLINKS
p3753
(dp3754
g1712
(dp3755
VN1_362
p3756
VS1_363
p3757
ssg565
I361
sg48
g1651
sbsg1718
VA
p3758
sg1720
I1
sg48
VBLACK
p3759
sg1721
(iconstruction
TP_SEMFRAME
p3760
(dp3761
g78
g0
(g79
g2
Ntp3762
Rp3763
(dp3764
g83
(dp3765
(iconstruction
TP_NODE
p3766
(dp3767
g1730
I01
sg67
g639
sg48
g3756
sg1731
I00
sg1732
I00
sg565
I362
sb(dp3768
g1731
I00
sg67
g639
sssg266
g267
sg268
g267
sg269
(dp3769
g3766
(dp3770
ssg463
g3769
sg78
(dp3771
sg465
g267
sg466
g3769
sg467
(dp3772
g3766
(dp3773
ssbsg560
(lp3774
g3766
asg833
(lp3775
sg565
I359
sg48
g1651
sbsg1746
(iconstruction
TP_SYNFORM
p3776
(dp3777
g565
I360
sg1749
(lp3778
(iconstruction
TP_PHON
p3779
(dp3780
g1759
I5
sg1756
I0
sg565
I363
sg1760
Vblack
p3781
sg48
g3757
sbasg48
g1651
sbsg1767
I1
sba(iconstruction
CXN
p3782
(dp3783
g1709
(iconstruction
TP_SYMLINKS
p3784
(dp3785
g1712
(dp3786
VN1_367
p3787
VS1_368
p3788
ssg565
I366
sg48
g1651
sbsg1718
VA
p3789
sg1720
I1
sg48
VGREEN
p3790
sg1721
(iconstruction
TP_SEMFRAME
p3791
(dp3792
g78
g0
(g79
g2
Ntp3793
Rp3794
(dp3795
g83
(dp3796
(iconstruction
TP_NODE
p3797
(dp3798
g1730
I01
sg67
g633
sg48
g3787
sg1731
I00
sg1732
I00
sg565
I367
sb(dp3799
g1731
I00
sg67
g633
sssg266
g267
sg268
g267
sg269
(dp3800
g3797
(dp3801
ssg463
g3800
sg78
(dp3802
sg465
g267
sg466
g3800
sg467
(dp3803
g3797
(dp3804
ssbsg560
(lp3805
g3797
asg833
(lp3806
sg565
I364
sg48
g1651
sbsg1746
(iconstruction
TP_SYNFORM
p3807
(dp3808
g565
I365
sg1749
(lp3809
(iconstruction
TP_PHON
p3810
(dp3811
g1759
I5
sg1756
I0
sg565
I368
sg1760
Vgreen
p3812
sg48
g3788
sbasg48
g1651
sbsg1767
I1
sba(iconstruction
CXN
p3813
(dp3814
g1709
(iconstruction
TP_SYMLINKS
p3815
(dp3816
g1712
(dp3817
VN1_372
p3818
VS1_373
p3819
ssg565
I371
sg48
g1651
sbsg1718
VA
p3820
sg1720
I1
sg48
VSMALL
p3821
sg1721
(iconstruction
TP_SEMFRAME
p3822
(dp3823
g78
g0
(g79
g2
Ntp3824
Rp3825
(dp3826
g83
(dp3827
(iconstruction
TP_NODE
p3828
(dp3829
g1730
I01
sg67
g660
sg48
g3818
sg1731
I00
sg1732
I00
sg565
I372
sb(dp3830
g1731
I00
sg67
g660
sssg266
g267
sg268
g267
sg269
(dp3831
g3828
(dp3832
ssg463
g3831
sg78
(dp3833
sg465
g267
sg466
g3831
sg467
(dp3834
g3828
(dp3835
ssbsg560
(lp3836
g3828
asg833
(lp3837
sg565
I369
sg48
g1651
sbsg1746
(iconstruction
TP_SYNFORM
p3838
(dp3839
g565
I370
sg1749
(lp3840
(iconstruction
TP_PHON
p3841
(dp3842
g1759
I5
sg1756
I0
sg565
I373
sg1760
Vsmall
p3843
sg48
g3819
sbasg48
g1651
sbsg1767
I1
sba(iconstruction
CXN
p3844
(dp3845
g1709
(iconstruction
TP_SYMLINKS
p3846
(dp3847
g1712
(dp3848
VN1_377
p3849
VS1_378
p3850
ssg565
I376
sg48
g1651
sbsg1718
VA
p3851
sg1720
I1
sg48
VBIG
p3852
sg1721
(iconstruction
TP_SEMFRAME
p3853
(dp3854
g78
g0
(g79
g2
Ntp3855
Rp3856
(dp3857
g83
(dp3858
(iconstruction
TP_NODE
p3859
(dp3860
g1730
I01
sg67
g663
sg48
g3849
sg1731
I00
sg1732
I00
sg565
I377
sb(dp3861
g1731
I00
sg67
g663
sssg266
g267
sg268
g267
sg269
(dp3862
g3859
(dp3863
ssg463
g3862
sg78
(dp3864
sg465
g267
sg466
g3862
sg467
(dp3865
g3859
(dp3866
ssbsg560
(lp3867
g3859
asg833
(lp3868
sg565
I374
sg48
g1651
sbsg1746
(iconstruction
TP_SYNFORM
p3869
(dp3870
g565
I375
sg1749
(lp3871
(iconstruction
TP_PHON
p3872
(dp3873
g1759
I3
sg1756
I0
sg565
I378
sg1760
Vbig
p3874
sg48
g3850
sbasg48
g1651
sbsg1767
I1
sba(iconstruction
CXN
p3875
(dp3876
g1709
(iconstruction
TP_SYMLINKS
p3877
(dp3878
g1712
(dp3879
VN1_382
p3880
VS1_383
p3881
ssg565
I381
sg48
g1651
sbsg1718
VA
p3882
sg1720
I1
sg48
VHANDSOME
p3883
sg1721
(iconstruction
TP_SEMFRAME
p3884
(dp3885
g78
g0
(g79
g2
Ntp3886
Rp3887
(dp3888
g83
(dp3889
(iconstruction
TP_NODE
p3890
(dp3891
g1730
I01
sg67
g654
sg48
g3880
sg1731
I00
sg1732
I00
sg565
I382
sb(dp3892
g1731
I00
sg67
g654
sssg266
g267
sg268
g267
sg269
(dp3893
g3890
(dp3894
ssg463
g3893
sg78
(dp3895
sg465
g267
sg466
g3893
sg467
(dp3896
g3890
(dp3897
ssbsg560
(lp3898
g3890
asg833
(lp3899
sg565
I379
sg48
g1651
sbsg1746
(iconstruction
TP_SYNFORM
p3900
(dp3901
g565
I380
sg1749
(lp3902
(iconstruction
TP_PHON
p3903
(dp3904
g1759
I8
sg1756
I0
sg565
I383
sg1760
Vhandsome
p3905
sg48
g3881
sbasg48
g1651
sbsg1767
I1
sba(iconstruction
CXN
p3906
(dp3907
g1709
(iconstruction
TP_SYMLINKS
p3908
(dp3909
g1712
(dp3910
VN1_387
p3911
VS1_388
p3912
ssg565
I386
sg48
g1651
sbsg1718
VA
p3913
sg1720
I1
sg48
VPRETTY
p3914
sg1721
(iconstruction
TP_SEMFRAME
p3915
(dp3916
g78
g0
(g79
g2
Ntp3917
Rp3918
(dp3919
g83
(dp3920
(iconstruction
TP_NODE
p3921
(dp3922
g1730
I01
sg67
g651
sg48
g3911
sg1731
I00
sg1732
I00
sg565
I387
sb(dp3923
g1731
I00
sg67
g651
sssg266
g267
sg268
g267
sg269
(dp3924
g3921
(dp3925
ssg463
g3924
sg78
(dp3926
sg465
g267
sg466
g3924
sg467
(dp3927
g3921
(dp3928
ssbsg560
(lp3929
g3921
asg833
(lp3930
sg565
I384
sg48
g1651
sbsg1746
(iconstruction
TP_SYNFORM
p3931
(dp3932
g565
I385
sg1749
(lp3933
(iconstruction
TP_PHON
p3934
(dp3935
g1759
I6
sg1756
I0
sg565
I388
sg1760
Vpretty
p3936
sg48
g3912
sbasg48
g1651
sbsg1767
I1
sba(iconstruction
CXN
p3937
(dp3938
g1709
(iconstruction
TP_SYMLINKS
p3939
(dp3940
g1712
(dp3941
VN1_392
p3942
VS1_393
p3943
ssg565
I391
sg48
g1651
sbsg1718
VA
p3944
sg1720
I1
sg48
VYOUNG
p3945
sg1721
(iconstruction
TP_SEMFRAME
p3946
(dp3947
g78
g0
(g79
g2
Ntp3948
Rp3949
(dp3950
g83
(dp3951
(iconstruction
TP_NODE
p3952
(dp3953
g1730
I01
sg67
g648
sg48
g3942
sg1731
I00
sg1732
I00
sg565
I392
sb(dp3954
g1731
I00
sg67
g648
sssg266
g267
sg268
g267
sg269
(dp3955
g3952
(dp3956
ssg463
g3955
sg78
(dp3957
sg465
g267
sg466
g3955
sg467
(dp3958
g3952
(dp3959
ssbsg560
(lp3960
g3952
asg833
(lp3961
sg565
I389
sg48
g1651
sbsg1746
(iconstruction
TP_SYNFORM
p3962
(dp3963
g565
I390
sg1749
(lp3964
(iconstruction
TP_PHON
p3965
(dp3966
g1759
I5
sg1756
I0
sg565
I393
sg1760
Vyoung
p3967
sg48
g3943
sbasg48
g1651
sbsg1767
I1
sba(iconstruction
CXN
p3968
(dp3969
g1709
(iconstruction
TP_SYMLINKS
p3970
(dp3971
g1712
(dp3972
VN1_398
p3973
VS1_400
p3974
ssg565
I396
sg48
g1651
sbsg1718
VN
p3975
sg1720
I1
sg48
VWOMAN
p3976
sg1721
(iconstruction
TP_SEMFRAME
p3977
(dp3978
g78
g0
(g79
g2
Ntp3979
Rp3980
(dp3981
g83
(dp3982
(iconstruction
TP_NODE
p3983
(dp3984
g1730
I00
sg67
g789
sg48
g3973
sg1731
I00
sg1732
I00
sg565
I398
sb(dp3985
g1731
I00
sg67
g789
ss(iconstruction
TP_NODE
p3986
(dp3987
g1730
I01
sg67
g723
sg48
VENT_397
p3988
sg1731
I01
sg1732
I00
sg565
I397
sb(dp3989
g1731
I01
sg67
g723
sssg266
g267
sg268
g267
sg269
(dp3990
g3983
(dp3991
sg3986
(dp3992
g3983
(dp3993
g67
g714
ssssg463
g3990
sg78
(dp3994
sg465
g267
sg466
g3990
sg467
(dp3995
g3983
(dp3996
g3986
g3993
ssg3986
(dp3997
ssbsg560
(lp3998
g3986
ag3983
asg833
(lp3999
(iconstruction
TP_REL
p4000
(dp4001
g839
g3983
sg67
g714
sg565
I399
sg840
g3986
sg48
VIS_399
p4002
sbasg565
I394
sg48
g1651
sbsg1746
(iconstruction
TP_SYNFORM
p4003
(dp4004
g565
I395
sg1749
(lp4005
(iconstruction
TP_PHON
p4006
(dp4007
g1759
I5
sg1756
I0
sg565
I400
sg1760
Vwoman
p4008
sg48
g3974
sbasg48
g1651
sbsg1767
I1
sba(iconstruction
CXN
p4009
(dp4010
g1709
(iconstruction
TP_SYMLINKS
p4011
(dp4012
g1712
(dp4013
VN1_405
p4014
VS1_407
p4015
ssg565
I403
sg48
g1651
sbsg1718
VN
p4016
sg1720
I1
sg48
VWOMAN2
p4017
sg1721
(iconstruction
TP_SEMFRAME
p4018
(dp4019
g78
g0
(g79
g2
Ntp4020
Rp4021
(dp4022
g83
(dp4023
(iconstruction
TP_NODE
p4024
(dp4025
g1730
I01
sg67
g723
sg48
VENT_404
p4026
sg1731
I01
sg1732
I00
sg565
I404
sb(dp4027
g1731
I01
sg67
g723
ss(iconstruction
TP_NODE
p4028
(dp4029
g1730
I00
sg67
g789
sg48
g4014
sg1731
I00
sg1732
I00
sg565
I405
sb(dp4030
g1731
I00
sg67
g789
sssg266
g267
sg268
g267
sg269
(dp4031
g4024
(dp4032
g4028
(dp4033
g67
g714
sssg4028
(dp4034
ssg463
g4031
sg78
(dp4035
sg465
g267
sg466
g4031
sg467
(dp4036
g4024
(dp4037
sg4028
(dp4038
g4024
g4033
sssbsg560
(lp4039
g4024
ag4028
asg833
(lp4040
(iconstruction
TP_REL
p4041
(dp4042
g839
g4028
sg67
g714
sg565
I406
sg840
g4024
sg48
VIS_406
p4043
sbasg565
I401
sg48
g1651
sbsg1746
(iconstruction
TP_SYNFORM
p4044
(dp4045
g565
I402
sg1749
(lp4046
(iconstruction
TP_PHON
p4047
(dp4048
g1759
I4
sg1756
I0
sg565
I407
sg1760
Vlady
p4049
sg48
g4015
sbasg48
g1651
sbsg1767
I1
sba(iconstruction
CXN
p4050
(dp4051
g1709
(iconstruction
TP_SYMLINKS
p4052
(dp4053
g1712
(dp4054
VN1_412
p4055
VS1_414
p4056
ssg565
I410
sg48
g1651
sbsg1718
VN
p4057
sg1720
I1
sg48
VMAN
p4058
sg1721
(iconstruction
TP_SEMFRAME
p4059
(dp4060
g78
g0
(g79
g2
Ntp4061
Rp4062
(dp4063
g83
(dp4064
(iconstruction
TP_NODE
p4065
(dp4066
g1730
I00
sg67
g816
sg48
g4055
sg1731
I00
sg1732
I00
sg565
I412
sb(dp4067
g1731
I00
sg67
g816
ss(iconstruction
TP_NODE
p4068
(dp4069
g1730
I01
sg67
g723
sg48
VENT_411
p4070
sg1731
I01
sg1732
I00
sg565
I411
sb(dp4071
g1731
I01
sg67
g723
sssg266
g267
sg268
g267
sg269
(dp4072
g4065
(dp4073
sg4068
(dp4074
g4065
(dp4075
g67
g714
ssssg463
g4072
sg78
(dp4076
sg465
g267
sg466
g4072
sg467
(dp4077
g4065
(dp4078
g4068
g4075
ssg4068
(dp4079
ssbsg560
(lp4080
g4068
ag4065
asg833
(lp4081
(iconstruction
TP_REL
p4082
(dp4083
g839
g4065
sg67
g714
sg565
I413
sg840
g4068
sg48
VIS_413
p4084
sbasg565
I408
sg48
g1651
sbsg1746
(iconstruction
TP_SYNFORM
p4085
(dp4086
g565
I409
sg1749
(lp4087
(iconstruction
TP_PHON
p4088
(dp4089
g1759
I3
sg1756
I0
sg565
I414
sg1760
Vman
p4090
sg48
g4056
sbasg48
g1651
sbsg1767
I1
sba(iconstruction
CXN
p4091
(dp4092
g1709
(iconstruction
TP_SYMLINKS
p4093
(dp4094
g1712
(dp4095
VN1_419
p4096
VS1_421
p4097
ssg565
I417
sg48
g1651
sbsg1718
VN
p4098
sg1720
I1
sg48
VGIRL
p4099
sg1721
(iconstruction
TP_SEMFRAME
p4100
(dp4101
g78
g0
(g79
g2
Ntp4102
Rp4103
(dp4104
g83
(dp4105
(iconstruction
TP_NODE
p4106
(dp4107
g1730
I00
sg67
g807
sg48
g4096
sg1731
I00
sg1732
I00
sg565
I419
sb(dp4108
g1731
I00
sg67
g807
ss(iconstruction
TP_NODE
p4109
(dp4110
g1730
I01
sg67
g723
sg48
VENT_418
p4111
sg1731
I01
sg1732
I00
sg565
I418
sb(dp4112
g1731
I01
sg67
g723
sssg266
g267
sg268
g267
sg269
(dp4113
g4106
(dp4114
sg4109
(dp4115
g4106
(dp4116
g67
g714
ssssg463
g4113
sg78
(dp4117
sg465
g267
sg466
g4113
sg467
(dp4118
g4106
(dp4119
g4109
g4116
ssg4109
(dp4120
ssbsg560
(lp4121
g4109
ag4106
asg833
(lp4122
(iconstruction
TP_REL
p4123
(dp4124
g839
g4106
sg67
g714
sg565
I420
sg840
g4109
sg48
VIS_420
p4125
sbasg565
I415
sg48
g1651
sbsg1746
(iconstruction
TP_SYNFORM
p4126
(dp4127
g565
I416
sg1749
(lp4128
(iconstruction
TP_PHON
p4129
(dp4130
g1759
I4
sg1756
I0
sg565
I421
sg1760
Vgirl
p4131
sg48
g4097
sbasg48
g1651
sbsg1767
I1
sba(iconstruction
CXN
p4132
(dp4133
g1709
(iconstruction
TP_SYMLINKS
p4134
(dp4135
g1712
(dp4136
VN1_426
p4137
VS1_428
p4138
ssg565
I424
sg48
g1651
sbsg1718
VN
p4139
sg1720
I1
sg48
VBOY
p4140
sg1721
(iconstruction
TP_SEMFRAME
p4141
(dp4142
g78
g0
(g79
g2
Ntp4143
Rp4144
(dp4145
g83
(dp4146
(iconstruction
TP_NODE
p4147
(dp4148
g1730
I01
sg67
g723
sg48
VENT_425
p4149
sg1731
I01
sg1732
I00
sg565
I425
sb(dp4150
g1731
I01
sg67
g723
ss(iconstruction
TP_NODE
p4151
(dp4152
g1730
I00
sg67
g786
sg48
g4137
sg1731
I00
sg1732
I00
sg565
I426
sb(dp4153
g1731
I00
sg67
g786
sssg266
g267
sg268
g267
sg269
(dp4154
g4147
(dp4155
g4151
(dp4156
g67
g714
sssg4151
(dp4157
ssg463
g4154
sg78
(dp4158
sg465
g267
sg466
g4154
sg467
(dp4159
g4147
(dp4160
sg4151
(dp4161
g4147
g4156
sssbsg560
(lp4162
g4147
ag4151
asg833
(lp4163
(iconstruction
TP_REL
p4164
(dp4165
g839
g4151
sg67
g714
sg565
I427
sg840
g4147
sg48
VIS_427
p4166
sbasg565
I422
sg48
g1651
sbsg1746
(iconstruction
TP_SYNFORM
p4167
(dp4168
g565
I423
sg1749
(lp4169
(iconstruction
TP_PHON
p4170
(dp4171
g1759
I3
sg1756
I0
sg565
I428
sg1760
Vboy
p4172
sg48
g4138
sbasg48
g1651
sbsg1767
I1
sba(iconstruction
CXN
p4173
(dp4174
g1709
(iconstruction
TP_SYMLINKS
p4175
(dp4176
g1712
(dp4177
VN1_433
p4178
VS1_435
p4179
ssg565
I431
sg48
g1651
sbsg1718
VN
p4180
sg1720
I1
sg48
VPEOPLE
p4181
sg1721
(iconstruction
TP_SEMFRAME
p4182
(dp4183
g78
g0
(g79
g2
Ntp4184
Rp4185
(dp4186
g83
(dp4187
(iconstruction
TP_NODE
p4188
(dp4189
g1730
I00
sg67
g792
sg48
g4178
sg1731
I00
sg1732
I00
sg565
I433
sb(dp4190
g1731
I00
sg67
g792
ss(iconstruction
TP_NODE
p4191
(dp4192
g1730
I01
sg67
g723
sg48
VENT_432
p4193
sg1731
I01
sg1732
I00
sg565
I432
sb(dp4194
g1731
I01
sg67
g723
sssg266
g267
sg268
g267
sg269
(dp4195
g4188
(dp4196
sg4191
(dp4197
g4188
(dp4198
g67
g714
ssssg463
g4195
sg78
(dp4199
sg465
g267
sg466
g4195
sg467
(dp4200
g4188
(dp4201
g4191
g4198
ssg4191
(dp4202
ssbsg560
(lp4203
g4191
ag4188
asg833
(lp4204
(iconstruction
TP_REL
p4205
(dp4206
g839
g4188
sg67
g714
sg565
I434
sg840
g4191
sg48
VIS_434
p4207
sbasg565
I429
sg48
g1651
sbsg1746
(iconstruction
TP_SYNFORM
p4208
(dp4209
g565
I430
sg1749
(lp4210
(iconstruction
TP_PHON
p4211
(dp4212
g1759
I6
sg1756
I0
sg565
I435
sg1760
Vpeople
p4213
sg48
g4179
sbasg48
g1651
sbsg1767
I1
sba(iconstruction
CXN
p4214
(dp4215
g1709
(iconstruction
TP_SYMLINKS
p4216
(dp4217
g1712
(dp4218
VN1_440
p4219
VS1_442
p4220
ssg565
I438
sg48
g1651
sbsg1718
VN
p4221
sg1720
I1
sg48
VMOUSE
p4222
sg1721
(iconstruction
TP_SEMFRAME
p4223
(dp4224
g78
g0
(g79
g2
Ntp4225
Rp4226
(dp4227
g83
(dp4228
(iconstruction
TP_NODE
p4229
(dp4230
g1730
I01
sg67
g723
sg48
VENT_439
p4231
sg1731
I01
sg1732
I00
sg565
I439
sb(dp4232
g1731
I01
sg67
g723
ss(iconstruction
TP_NODE
p4233
(dp4234
g1730
I00
sg67
g780
sg48
g4219
sg1731
I00
sg1732
I00
sg565
I440
sb(dp4235
g1731
I00
sg67
g780
sssg266
g267
sg268
g267
sg269
(dp4236
g4229
(dp4237
g4233
(dp4238
g67
g714
sssg4233
(dp4239
ssg463
g4236
sg78
(dp4240
sg465
g267
sg466
g4236
sg467
(dp4241
g4229
(dp4242
sg4233
(dp4243
g4229
g4238
sssbsg560
(lp4244
g4229
ag4233
asg833
(lp4245
(iconstruction
TP_REL
p4246
(dp4247
g839
g4233
sg67
g714
sg565
I441
sg840
g4229
sg48
VIS_441
p4248
sbasg565
I436
sg48
g1651
sbsg1746
(iconstruction
TP_SYNFORM
p4249
(dp4250
g565
I437
sg1749
(lp4251
(iconstruction
TP_PHON
p4252
(dp4253
g1759
I5
sg1756
I0
sg565
I442
sg1760
Vmouse
p4254
sg48
g4220
sbasg48
g1651
sbsg1767
I1
sba(iconstruction
CXN
p4255
(dp4256
g1709
(iconstruction
TP_SYMLINKS
p4257
(dp4258
g1712
(dp4259
VN1_447
p4260
VS1_449
p4261
ssg565
I445
sg48
g1651
sbsg1718
VN
p4262
sg1720
I1
sg48
VTURTLE
p4263
sg1721
(iconstruction
TP_SEMFRAME
p4264
(dp4265
g78
g0
(g79
g2
Ntp4266
Rp4267
(dp4268
g83
(dp4269
(iconstruction
TP_NODE
p4270
(dp4271
g1730
I00
sg67
g777
sg48
g4260
sg1731
I00
sg1732
I00
sg565
I447
sb(dp4272
g1731
I00
sg67
g777
ss(iconstruction
TP_NODE
p4273
(dp4274
g1730
I01
sg67
g723
sg48
VENT_446
p4275
sg1731
I01
sg1732
I00
sg565
I446
sb(dp4276
g1731
I01
sg67
g723
sssg266
g267
sg268
g267
sg269
(dp4277
g4270
(dp4278
sg4273
(dp4279
g4270
(dp4280
g67
g714
ssssg463
g4277
sg78
(dp4281
sg465
g267
sg466
g4277
sg467
(dp4282
g4270
(dp4283
g4273
g4280
ssg4273
(dp4284
ssbsg560
(lp4285
g4273
ag4270
asg833
(lp4286
(iconstruction
TP_REL
p4287
(dp4288
g839
g4270
sg67
g714
sg565
I448
sg840
g4273
sg48
VIS_448
p4289
sbasg565
I443
sg48
g1651
sbsg1746
(iconstruction
TP_SYNFORM
p4290
(dp4291
g565
I444
sg1749
(lp4292
(iconstruction
TP_PHON
p4293
(dp4294
g1759
I6
sg1756
I0
sg565
I449
sg1760
Vturtle
p4295
sg48
g4261
sbasg48
g1651
sbsg1767
I1
sba(iconstruction
CXN
p4296
(dp4297
g1709
(iconstruction
TP_SYMLINKS
p4298
(dp4299
g1712
(dp4300
VN1_454
p4301
VS1_456
p4302
ssg565
I452
sg48
g1651
sbsg1718
VN
p4303
sg1720
I1
sg48
VDRESS
p4304
sg1721
(iconstruction
TP_SEMFRAME
p4305
(dp4306
g78
g0
(g79
g2
Ntp4307
Rp4308
(dp4309
g83
(dp4310
(iconstruction
TP_NODE
p4311
(dp4312
g1730
I00
sg67
g768
sg48
g4301
sg1731
I00
sg1732
I00
sg565
I454
sb(dp4313
g1731
I00
sg67
g768
ss(iconstruction
TP_NODE
p4314
(dp4315
g1730
I01
sg67
g723
sg48
VENT_453
p4316
sg1731
I01
sg1732
I00
sg565
I453
sb(dp4317
g1731
I01
sg67
g723
sssg266
g267
sg268
g267
sg269
(dp4318
g4311
(dp4319
sg4314
(dp4320
g4311
(dp4321
g67
g714
ssssg463
g4318
sg78
(dp4322
sg465
g267
sg466
g4318
sg467
(dp4323
g4311
(dp4324
g4314
g4321
ssg4314
(dp4325
ssbsg560
(lp4326
g4314
ag4311
asg833
(lp4327
(iconstruction
TP_REL
p4328
(dp4329
g839
g4311
sg67
g714
sg565
I455
sg840
g4314
sg48
VIS_455
p4330
sbasg565
I450
sg48
g1651
sbsg1746
(iconstruction
TP_SYNFORM
p4331
(dp4332
g565
I451
sg1749
(lp4333
(iconstruction
TP_PHON
p4334
(dp4335
g1759
I5
sg1756
I0
sg565
I456
sg1760
Vdress
p4336
sg48
g4302
sbasg48
g1651
sbsg1767
I1
sba(iconstruction
CXN
p4337
(dp4338
g1709
(iconstruction
TP_SYMLINKS
p4339
(dp4340
g1712
(dp4341
VN1_461
p4342
VS1_463
p4343
ssg565
I459
sg48
g1651
sbsg1718
VN
p4344
sg1720
I1
sg48
VTSHIRT
p4345
sg1721
(iconstruction
TP_SEMFRAME
p4346
(dp4347
g78
g0
(g79
g2
Ntp4348
Rp4349
(dp4350
g83
(dp4351
(iconstruction
TP_NODE
p4352
(dp4353
g1730
I01
sg67
g723
sg48
VENT_460
p4354
sg1731
I01
sg1732
I00
sg565
I460
sb(dp4355
g1731
I01
sg67
g723
ss(iconstruction
TP_NODE
p4356
(dp4357
g1730
I00
sg67
g765
sg48
g4342
sg1731
I00
sg1732
I00
sg565
I461
sb(dp4358
g1731
I00
sg67
g765
sssg266
g267
sg268
g267
sg269
(dp4359
g4352
(dp4360
g4356
(dp4361
g67
g714
sssg4356
(dp4362
ssg463
g4359
sg78
(dp4363
sg465
g267
sg466
g4359
sg467
(dp4364
g4352
(dp4365
sg4356
(dp4366
g4352
g4361
sssbsg560
(lp4367
g4352
ag4356
asg833
(lp4368
(iconstruction
TP_REL
p4369
(dp4370
g839
g4356
sg67
g714
sg565
I462
sg840
g4352
sg48
VIS_462
p4371
sbasg565
I457
sg48
g1651
sbsg1746
(iconstruction
TP_SYNFORM
p4372
(dp4373
g565
I458
sg1749
(lp4374
(iconstruction
TP_PHON
p4375
(dp4376
g1759
I6
sg1756
I0
sg565
I463
sg1760
Vt-shirt
p4377
sg48
g4343
sbasg48
g1651
sbsg1767
I1
sba(iconstruction
CXN
p4378
(dp4379
g1709
(iconstruction
TP_SYMLINKS
p4380
(dp4381
g1712
(dp4382
VN1_468
p4383
VS2_471
p4384
ssg565
I466
sg48
g1651
sbsg1718
VN
p4385
sg1720
I1
sg48
VBOXINGRING
p4386
sg1721
(iconstruction
TP_SEMFRAME
p4387
(dp4388
g78
g0
(g79
g2
Ntp4389
Rp4390
(dp4391
g83
(dp4392
(iconstruction
TP_NODE
p4393
(dp4394
g1730
I00
sg67
g822
sg48
g4383
sg1731
I00
sg1732
I00
sg565
I468
sb(dp4395
g1731
I00
sg67
g822
ss(iconstruction
TP_NODE
p4396
(dp4397
g1730
I01
sg67
g723
sg48
VENT_467
p4398
sg1731
I01
sg1732
I00
sg565
I467
sb(dp4399
g1731
I01
sg67
g723
sssg266
g267
sg268
g267
sg269
(dp4400
g4393
(dp4401
sg4396
(dp4402
g4393
(dp4403
g67
g714
ssssg463
g4400
sg78
(dp4404
sg465
g267
sg466
g4400
sg467
(dp4405
g4393
(dp4406
g4396
g4403
ssg4396
(dp4407
ssbsg560
(lp4408
g4396
ag4393
asg833
(lp4409
(iconstruction
TP_REL
p4410
(dp4411
g839
g4393
sg67
g714
sg565
I469
sg840
g4396
sg48
VIS_469
p4412
sbasg565
I464
sg48
g1651
sbsg1746
(iconstruction
TP_SYNFORM
p4413
(dp4414
g565
I465
sg1749
(lp4415
(iconstruction
TP_PHON
p4416
(dp4417
g1759
I6
sg1756
I0
sg565
I470
sg1760
Vboxing
p4418
sg48
VS1_470
p4419
sba(iconstruction
TP_PHON
p4420
(dp4421
g1759
I4
sg1756
I1
sg565
I471
sg1760
Vring
p4422
sg48
g4384
sbasg48
g1651
sbsg1767
I1
sba(iconstruction
CXN
p4423
(dp4424
g1709
(iconstruction
TP_SYMLINKS
p4425
(dp4426
g1712
(dp4427
VN1_476
p4428
VS1_478
p4429
ssg565
I474
sg48
g1651
sbsg1718
VN
p4430
sg1720
I1
sg48
VPARK
p4431
sg1721
(iconstruction
TP_SEMFRAME
p4432
(dp4433
g78
g0
(g79
g2
Ntp4434
Rp4435
(dp4436
g83
(dp4437
(iconstruction
TP_NODE
p4438
(dp4439
g1730
I00
sg67
g825
sg48
g4428
sg1731
I00
sg1732
I00
sg565
I476
sb(dp4440
g1731
I00
sg67
g825
ss(iconstruction
TP_NODE
p4441
(dp4442
g1730
I01
sg67
g723
sg48
VENT_475
p4443
sg1731
I01
sg1732
I00
sg565
I475
sb(dp4444
g1731
I01
sg67
g723
sssg266
g267
sg268
g267
sg269
(dp4445
g4438
(dp4446
sg4441
(dp4447
g4438
(dp4448
g67
g714
ssssg463
g4445
sg78
(dp4449
sg465
g267
sg466
g4445
sg467
(dp4450
g4438
(dp4451
g4441
g4448
ssg4441
(dp4452
ssbsg560
(lp4453
g4441
ag4438
asg833
(lp4454
(iconstruction
TP_REL
p4455
(dp4456
g839
g4438
sg67
g714
sg565
I477
sg840
g4441
sg48
VIS_477
p4457
sbasg565
I472
sg48
g1651
sbsg1746
(iconstruction
TP_SYNFORM
p4458
(dp4459
g565
I473
sg1749
(lp4460
(iconstruction
TP_PHON
p4461
(dp4462
g1759
I4
sg1756
I0
sg565
I478
sg1760
Vpark
p4463
sg48
g4429
sbasg48
g1651
sbsg1767
I1
sba(iconstruction
CXN
p4464
(dp4465
g1709
(iconstruction
TP_SYMLINKS
p4466
(dp4467
g1712
(dp4468
VN1_483
p4469
VS1_485
p4470
ssg565
I481
sg48
g1651
sbsg1718
VN
p4471
sg1720
I1
sg48
VSHIRT
p4472
sg1721
(iconstruction
TP_SEMFRAME
p4473
(dp4474
g78
g0
(g79
g2
Ntp4475
Rp4476
(dp4477
g83
(dp4478
(iconstruction
TP_NODE
p4479
(dp4480
g1730
I01
sg67
g723
sg48
VENT_482
p4481
sg1731
I01
sg1732
I00
sg565
I482
sb(dp4482
g1731
I01
sg67
g723
ss(iconstruction
TP_NODE
p4483
(dp4484
g1730
I00
sg67
g771
sg48
g4469
sg1731
I00
sg1732
I00
sg565
I483
sb(dp4485
g1731
I00
sg67
g771
sssg266
g267
sg268
g267
sg269
(dp4486
g4479
(dp4487
g4483
(dp4488
g67
g714
sssg4483
(dp4489
ssg463
g4486
sg78
(dp4490
sg465
g267
sg466
g4486
sg467
(dp4491
g4479
(dp4492
sg4483
(dp4493
g4479
g4488
sssbsg560
(lp4494
g4479
ag4483
asg833
(lp4495
(iconstruction
TP_REL
p4496
(dp4497
g839
g4483
sg67
g714
sg565
I484
sg840
g4479
sg48
VIS_484
p4498
sbasg565
I479
sg48
g1651
sbsg1746
(iconstruction
TP_SYNFORM
p4499
(dp4500
g565
I480
sg1749
(lp4501
(iconstruction
TP_PHON
p4502
(dp4503
g1759
I5
sg1756
I0
sg565
I485
sg1760
Vshirt
p4504
sg48
g4470
sbasg48
g1651
sbsg1767
I1
sba(iconstruction
CXN
p4505
(dp4506
g1709
(iconstruction
TP_SYMLINKS
p4507
(dp4508
g1712
(dp4509
VN1_490
p4510
VS1_492
p4511
ssg565
I488
sg48
g1651
sbsg1718
VN
p4512
sg1720
I1
sg48
VSUIT
p4513
sg1721
(iconstruction
TP_SEMFRAME
p4514
(dp4515
g78
g0
(g79
g2
Ntp4516
Rp4517
(dp4518
g83
(dp4519
(iconstruction
TP_NODE
p4520
(dp4521
g1730
I00
sg67
g774
sg48
g4510
sg1731
I00
sg1732
I00
sg565
I490
sb(dp4522
g1731
I00
sg67
g774
ss(iconstruction
TP_NODE
p4523
(dp4524
g1730
I01
sg67
g723
sg48
VENT_489
p4525
sg1731
I01
sg1732
I00
sg565
I489
sb(dp4526
g1731
I01
sg67
g723
sssg266
g267
sg268
g267
sg269
(dp4527
g4520
(dp4528
sg4523
(dp4529
g4520
(dp4530
g67
g714
ssssg463
g4527
sg78
(dp4531
sg465
g267
sg466
g4527
sg467
(dp4532
g4520
(dp4533
g4523
g4530
ssg4523
(dp4534
ssbsg560
(lp4535
g4523
ag4520
asg833
(lp4536
(iconstruction
TP_REL
p4537
(dp4538
g839
g4520
sg67
g714
sg565
I491
sg840
g4523
sg48
VIS_491
p4539
sbasg565
I486
sg48
g1651
sbsg1746
(iconstruction
TP_SYNFORM
p4540
(dp4541
g565
I487
sg1749
(lp4542
(iconstruction
TP_PHON
p4543
(dp4544
g1759
I4
sg1756
I0
sg565
I492
sg1760
Vsuit
p4545
sg48
g4511
sbasg48
g1651
sbsg1767
I1
sba(iconstruction
CXN
p4546
(dp4547
g1709
(iconstruction
TP_SYMLINKS
p4548
(dp4549
g1712
(dp4550
VN1_497
p4551
VS1_499
p4552
ssg565
I495
sg48
g1651
sbsg1718
VN
p4553
sg1720
I1
sg48
VCELLO
p4554
sg1721
(iconstruction
TP_SEMFRAME
p4555
(dp4556
g78
g0
(g79
g2
Ntp4557
Rp4558
(dp4559
g83
(dp4560
(iconstruction
TP_NODE
p4561
(dp4562
g1730
I00
sg67
g756
sg48
g4551
sg1731
I00
sg1732
I00
sg565
I497
sb(dp4563
g1731
I00
sg67
g756
ss(iconstruction
TP_NODE
p4564
(dp4565
g1730
I01
sg67
g723
sg48
VENT_496
p4566
sg1731
I01
sg1732
I00
sg565
I496
sb(dp4567
g1731
I01
sg67
g723
sssg266
g267
sg268
g267
sg269
(dp4568
g4561
(dp4569
sg4564
(dp4570
g4561
(dp4571
g67
g714
ssssg463
g4568
sg78
(dp4572
sg465
g267
sg466
g4568
sg467
(dp4573
g4561
(dp4574
g4564
g4571
ssg4564
(dp4575
ssbsg560
(lp4576
g4564
ag4561
asg833
(lp4577
(iconstruction
TP_REL
p4578
(dp4579
g839
g4561
sg67
g714
sg565
I498
sg840
g4564
sg48
VIS_498
p4580
sbasg565
I493
sg48
g1651
sbsg1746
(iconstruction
TP_SYNFORM
p4581
(dp4582
g565
I494
sg1749
(lp4583
(iconstruction
TP_PHON
p4584
(dp4585
g1759
I5
sg1756
I0
sg565
I499
sg1760
VCELLO
p4586
sg48
g4552
sbasg48
g1651
sbsg1767
I1
sba(iconstruction
CXN
p4587
(dp4588
g1709
(iconstruction
TP_SYMLINKS
p4589
(dp4590
g1712
(dp4591
VN1_504
p4592
VS1_506
p4593
ssg565
I502
sg48
g1651
sbsg1718
VN
p4594
sg1720
I1
sg48
VBAG
p4595
sg1721
(iconstruction
TP_SEMFRAME
p4596
(dp4597
g78
g0
(g79
g2
Ntp4598
Rp4599
(dp4600
g83
(dp4601
(iconstruction
TP_NODE
p4602
(dp4603
g1730
I01
sg67
g723
sg48
VENT_503
p4604
sg1731
I01
sg1732
I00
sg565
I503
sb(dp4605
g1731
I01
sg67
g723
ss(iconstruction
TP_NODE
p4606
(dp4607
g1730
I00
sg67
g747
sg48
g4592
sg1731
I00
sg1732
I00
sg565
I504
sb(dp4608
g1731
I00
sg67
g747
sssg266
g267
sg268
g267
sg269
(dp4609
g4602
(dp4610
g4606
(dp4611
g67
g714
sssg4606
(dp4612
ssg463
g4609
sg78
(dp4613
sg465
g267
sg466
g4609
sg467
(dp4614
g4602
(dp4615
sg4606
(dp4616
g4602
g4611
sssbsg560
(lp4617
g4602
ag4606
asg833
(lp4618
(iconstruction
TP_REL
p4619
(dp4620
g839
g4606
sg67
g714
sg565
I505
sg840
g4602
sg48
VIS_505
p4621
sbasg565
I500
sg48
g1651
sbsg1746
(iconstruction
TP_SYNFORM
p4622
(dp4623
g565
I501
sg1749
(lp4624
(iconstruction
TP_PHON
p4625
(dp4626
g1759
I3
sg1756
I0
sg565
I506
sg1760
Vbag
p4627
sg48
g4593
sbasg48
g1651
sbsg1767
I1
sba(iconstruction
CXN
p4628
(dp4629
g1709
(iconstruction
TP_SYMLINKS
p4630
(dp4631
g1712
(dp4632
VN1_511
p4633
VS2_514
p4634
ssg565
I509
sg48
g1651
sbsg1718
VN
p4635
sg1720
I1
sg48
VWATERING_CAN
p4636
sg1721
(iconstruction
TP_SEMFRAME
p4637
(dp4638
g78
g0
(g79
g2
Ntp4639
Rp4640
(dp4641
g83
(dp4642
(iconstruction
TP_NODE
p4643
(dp4644
g1730
I00
sg67
g744
sg48
g4633
sg1731
I00
sg1732
I00
sg565
I511
sb(dp4645
g1731
I00
sg67
g744
ss(iconstruction
TP_NODE
p4646
(dp4647
g1730
I01
sg67
g723
sg48
VENT_510
p4648
sg1731
I01
sg1732
I00
sg565
I510
sb(dp4649
g1731
I01
sg67
g723
sssg266
g267
sg268
g267
sg269
(dp4650
g4643
(dp4651
sg4646
(dp4652
g4643
(dp4653
g67
g714
ssssg463
g4650
sg78
(dp4654
sg465
g267
sg466
g4650
sg467
(dp4655
g4643
(dp4656
g4646
g4653
ssg4646
(dp4657
ssbsg560
(lp4658
g4646
ag4643
asg833
(lp4659
(iconstruction
TP_REL
p4660
(dp4661
g839
g4643
sg67
g714
sg565
I512
sg840
g4646
sg48
VIS_512
p4662
sbasg565
I507
sg48
g1651
sbsg1746
(iconstruction
TP_SYNFORM
p4663
(dp4664
g565
I508
sg1749
(lp4665
(iconstruction
TP_PHON
p4666
(dp4667
g1759
I8
sg1756
I0
sg565
I513
sg1760
Vwatering
p4668
sg48
VS1_513
p4669
sba(iconstruction
TP_PHON
p4670
(dp4671
g1759
I3
sg1756
I1
sg565
I514
sg1760
Vcan
p4672
sg48
g4634
sbasg48
g1651
sbsg1767
I1
sba(iconstruction
CXN
p4673
(dp4674
g1709
(iconstruction
TP_SYMLINKS
p4675
(dp4676
g1712
(dp4677
VN1_519
p4678
VS1_521
p4679
ssg565
I517
sg48
g1651
sbsg1718
VN
p4680
sg1720
I1
sg48
VBALLERINA
p4681
sg1721
(iconstruction
TP_SEMFRAME
p4682
(dp4683
g78
g0
(g79
g2
Ntp4684
Rp4685
(dp4686
g83
(dp4687
(iconstruction
TP_NODE
p4688
(dp4689
g1730
I00
sg67
g801
sg48
g4678
sg1731
I00
sg1732
I00
sg565
I519
sb(dp4690
g1731
I00
sg67
g801
ss(iconstruction
TP_NODE
p4691
(dp4692
g1730
I01
sg67
g723
sg48
VENT_518
p4693
sg1731
I01
sg1732
I00
sg565
I518
sb(dp4694
g1731
I01
sg67
g723
sssg266
g267
sg268
g267
sg269
(dp4695
g4688
(dp4696
sg4691
(dp4697
g4688
(dp4698
g67
g714
ssssg463
g4695
sg78
(dp4699
sg465
g267
sg466
g4695
sg467
(dp4700
g4688
(dp4701
g4691
g4698
ssg4691
(dp4702
ssbsg560
(lp4703
g4691
ag4688
asg833
(lp4704
(iconstruction
TP_REL
p4705
(dp4706
g839
g4688
sg67
g714
sg565
I520
sg840
g4691
sg48
VIS_520
p4707
sbasg565
I515
sg48
g1651
sbsg1746
(iconstruction
TP_SYNFORM
p4708
(dp4709
g565
I516
sg1749
(lp4710
(iconstruction
TP_PHON
p4711
(dp4712
g1759
I9
sg1756
I0
sg565
I521
sg1760
Vballerina
p4713
sg48
g4679
sbasg48
g1651
sbsg1767
I1
sba(iconstruction
CXN
p4714
(dp4715
g1709
(iconstruction
TP_SYMLINKS
p4716
(dp4717
g1712
(dp4718
VN1_526
p4719
VS1_528
p4720
ssg565
I524
sg48
g1651
sbsg1718
VN
p4721
sg1720
I1
sg48
VCELLIST
p4722
sg1721
(iconstruction
TP_SEMFRAME
p4723
(dp4724
g78
g0
(g79
g2
Ntp4725
Rp4726
(dp4727
g83
(dp4728
(iconstruction
TP_NODE
p4729
(dp4730
g1730
I01
sg67
g723
sg48
VENT_525
p4731
sg1731
I01
sg1732
I00
sg565
I525
sb(dp4732
g1731
I01
sg67
g723
ss(iconstruction
TP_NODE
p4733
(dp4734
g1730
I00
sg67
g804
sg48
g4719
sg1731
I00
sg1732
I00
sg565
I526
sb(dp4735
g1731
I00
sg67
g804
sssg266
g267
sg268
g267
sg269
(dp4736
g4729
(dp4737
g4733
(dp4738
g67
g714
sssg4733
(dp4739
ssg463
g4736
sg78
(dp4740
sg465
g267
sg466
g4736
sg467
(dp4741
g4729
(dp4742
sg4733
(dp4743
g4729
g4738
sssbsg560
(lp4744
g4729
ag4733
asg833
(lp4745
(iconstruction
TP_REL
p4746
(dp4747
g839
g4733
sg67
g714
sg565
I527
sg840
g4729
sg48
VIS_527
p4748
sbasg565
I522
sg48
g1651
sbsg1746
(iconstruction
TP_SYNFORM
p4749
(dp4750
g565
I523
sg1749
(lp4751
(iconstruction
TP_PHON
p4752
(dp4753
g1759
I7
sg1756
I0
sg565
I528
sg1760
Vcellist
p4754
sg48
g4720
sbasg48
g1651
sbsg1767
I1
sba(iconstruction
CXN
p4755
(dp4756
g1709
(iconstruction
TP_SYMLINKS
p4757
(dp4758
g1712
(dp4759
VN1_533
p4760
VS1_535
p4761
ssg565
I531
sg48
g1651
sbsg1718
VN
p4762
sg1720
I1
sg48
VFENCER
p4763
sg1721
(iconstruction
TP_SEMFRAME
p4764
(dp4765
g78
g0
(g79
g2
Ntp4766
Rp4767
(dp4768
g83
(dp4769
(iconstruction
TP_NODE
p4770
(dp4771
g1730
I00
sg67
g810
sg48
g4760
sg1731
I00
sg1732
I00
sg565
I533
sb(dp4772
g1731
I00
sg67
g810
ss(iconstruction
TP_NODE
p4773
(dp4774
g1730
I01
sg67
g723
sg48
VENT_532
p4775
sg1731
I01
sg1732
I00
sg565
I532
sb(dp4776
g1731
I01
sg67
g723
sssg266
g267
sg268
g267
sg269
(dp4777
g4770
(dp4778
sg4773
(dp4779
g4770
(dp4780
g67
g714
ssssg463
g4777
sg78
(dp4781
sg465
g267
sg466
g4777
sg467
(dp4782
g4770
(dp4783
g4773
g4780
ssg4773
(dp4784
ssbsg560
(lp4785
g4773
ag4770
asg833
(lp4786
(iconstruction
TP_REL
p4787
(dp4788
g839
g4770
sg67
g714
sg565
I534
sg840
g4773
sg48
VIS_534
p4789
sbasg565
I529
sg48
g1651
sbsg1746
(iconstruction
TP_SYNFORM
p4790
(dp4791
g565
I530
sg1749
(lp4792
(iconstruction
TP_PHON
p4793
(dp4794
g1759
I6
sg1756
I0
sg565
I535
sg1760
Vfencer
p4795
sg48
g4761
sbasg48
g1651
sbsg1767
I1
sba(iconstruction
CXN
p4796
(dp4797
g1709
(iconstruction
TP_SYMLINKS
p4798
(dp4799
g1712
(dp4800
VN1_540
p4801
VS1_542
p4802
ssg565
I538
sg48
g1651
sbsg1718
VN
p4803
sg1720
I1
sg48
VROBBER
p4804
sg1721
(iconstruction
TP_SEMFRAME
p4805
(dp4806
g78
g0
(g79
g2
Ntp4807
Rp4808
(dp4809
g83
(dp4810
(iconstruction
TP_NODE
p4811
(dp4812
g1730
I00
sg67
g813
sg48
g4801
sg1731
I00
sg1732
I00
sg565
I540
sb(dp4813
g1731
I00
sg67
g813
ss(iconstruction
TP_NODE
p4814
(dp4815
g1730
I01
sg67
g723
sg48
VENT_539
p4816
sg1731
I01
sg1732
I00
sg565
I539
sb(dp4817
g1731
I01
sg67
g723
sssg266
g267
sg268
g267
sg269
(dp4818
g4811
(dp4819
sg4814
(dp4820
g4811
(dp4821
g67
g714
ssssg463
g4818
sg78
(dp4822
sg465
g267
sg466
g4818
sg467
(dp4823
g4811
(dp4824
g4814
g4821
ssg4814
(dp4825
ssbsg560
(lp4826
g4814
ag4811
asg833
(lp4827
(iconstruction
TP_REL
p4828
(dp4829
g839
g4811
sg67
g714
sg565
I541
sg840
g4814
sg48
VIS_541
p4830
sbasg565
I536
sg48
g1651
sbsg1746
(iconstruction
TP_SYNFORM
p4831
(dp4832
g565
I537
sg1749
(lp4833
(iconstruction
TP_PHON
p4834
(dp4835
g1759
I5
sg1756
I0
sg565
I542
sg1760
Vthief
p4836
sg48
g4802
sbasg48
g1651
sbsg1767
I1
sba(iconstruction
CXN
p4837
(dp4838
g1709
(iconstruction
TP_SYMLINKS
p4839
(dp4840
g1712
(dp4841
VN1_547
p4842
VS1_549
p4843
ssg565
I545
sg48
g1651
sbsg1718
VN
p4844
sg1720
I1
sg48
VPOLICEMAN
p4845
sg1721
(iconstruction
TP_SEMFRAME
p4846
(dp4847
g78
g0
(g79
g2
Ntp4848
Rp4849
(dp4850
g83
(dp4851
(iconstruction
TP_NODE
p4852
(dp4853
g1730
I01
sg67
g723
sg48
VENT_546
p4854
sg1731
I01
sg1732
I00
sg565
I546
sb(dp4855
g1731
I01
sg67
g723
ss(iconstruction
TP_NODE
p4856
(dp4857
g1730
I00
sg67
g795
sg48
g4842
sg1731
I00
sg1732
I00
sg565
I547
sb(dp4858
g1731
I00
sg67
g795
sssg266
g267
sg268
g267
sg269
(dp4859
g4852
(dp4860
g4856
(dp4861
g67
g714
sssg4856
(dp4862
ssg463
g4859
sg78
(dp4863
sg465
g267
sg466
g4859
sg467
(dp4864
g4852
(dp4865
sg4856
(dp4866
g4852
g4861
sssbsg560
(lp4867
g4852
ag4856
asg833
(lp4868
(iconstruction
TP_REL
p4869
(dp4870
g839
g4856
sg67
g714
sg565
I548
sg840
g4852
sg48
VIS_548
p4871
sbasg565
I543
sg48
g1651
sbsg1746
(iconstruction
TP_SYNFORM
p4872
(dp4873
g565
I544
sg1749
(lp4874
(iconstruction
TP_PHON
p4875
(dp4876
g1759
I9
sg1756
I0
sg565
I549
sg1760
Vpoliceman
p4877
sg48
g4843
sbasg48
g1651
sbsg1767
I1
sba(iconstruction
CXN
p4878
(dp4879
g1709
(iconstruction
TP_SYMLINKS
p4880
(dp4881
g1712
(dp4882
VN1_554
p4883
VS1_556
p4884
ssg565
I552
sg48
g1651
sbsg1718
VN
p4885
sg1720
I1
sg48
VHUNTER
p4886
sg1721
(iconstruction
TP_SEMFRAME
p4887
(dp4888
g78
g0
(g79
g2
Ntp4889
Rp4890
(dp4891
g83
(dp4892
(iconstruction
TP_NODE
p4893
(dp4894
g1730
I00
sg67
g798
sg48
g4883
sg1731
I00
sg1732
I00
sg565
I554
sb(dp4895
g1731
I00
sg67
g798
ss(iconstruction
TP_NODE
p4896
(dp4897
g1730
I01
sg67
g723
sg48
VENT_553
p4898
sg1731
I01
sg1732
I00
sg565
I553
sb(dp4899
g1731
I01
sg67
g723
sssg266
g267
sg268
g267
sg269
(dp4900
g4893
(dp4901
sg4896
(dp4902
g4893
(dp4903
g67
g714
ssssg463
g4900
sg78
(dp4904
sg465
g267
sg466
g4900
sg467
(dp4905
g4893
(dp4906
g4896
g4903
ssg4896
(dp4907
ssbsg560
(lp4908
g4896
ag4893
asg833
(lp4909
(iconstruction
TP_REL
p4910
(dp4911
g839
g4893
sg67
g714
sg565
I555
sg840
g4896
sg48
VIS_555
p4912
sbasg565
I550
sg48
g1651
sbsg1746
(iconstruction
TP_SYNFORM
p4913
(dp4914
g565
I551
sg1749
(lp4915
(iconstruction
TP_PHON
p4916
(dp4917
g1759
I6
sg1756
I0
sg565
I556
sg1760
Vhunter
p4918
sg48
g4884
sbasg48
g1651
sbsg1767
I1
sba(iconstruction
CXN
p4919
(dp4920
g1709
(iconstruction
TP_SYMLINKS
p4921
(dp4922
g1712
(dp4923
VN1_561
p4924
VS1_563
p4925
ssg565
I559
sg48
g1651
sbsg1718
VN
p4926
sg1720
I1
sg48
VDOG
p4927
sg1721
(iconstruction
TP_SEMFRAME
p4928
(dp4929
g78
g0
(g79
g2
Ntp4930
Rp4931
(dp4932
g83
(dp4933
(iconstruction
TP_NODE
p4934
(dp4935
g1730
I01
sg67
g723
sg48
VENT_560
p4936
sg1731
I01
sg1732
I00
sg565
I560
sb(dp4937
g1731
I01
sg67
g723
ss(iconstruction
TP_NODE
p4938
(dp4939
g1730
I00
sg67
g783
sg48
g4924
sg1731
I00
sg1732
I00
sg565
I561
sb(dp4940
g1731
I00
sg67
g783
sssg266
g267
sg268
g267
sg269
(dp4941
g4934
(dp4942
g4938
(dp4943
g67
g714
sssg4938
(dp4944
ssg463
g4941
sg78
(dp4945
sg465
g267
sg466
g4941
sg467
(dp4946
g4934
(dp4947
sg4938
(dp4948
g4934
g4943
sssbsg560
(lp4949
g4934
ag4938
asg833
(lp4950
(iconstruction
TP_REL
p4951
(dp4952
g839
g4938
sg67
g714
sg565
I562
sg840
g4934
sg48
VIS_562
p4953
sbasg565
I557
sg48
g1651
sbsg1746
(iconstruction
TP_SYNFORM
p4954
(dp4955
g565
I558
sg1749
(lp4956
(iconstruction
TP_PHON
p4957
(dp4958
g1759
I3
sg1756
I0
sg565
I563
sg1760
Vdog
p4959
sg48
g4925
sbasg48
g1651
sbsg1767
I1
sba(iconstruction
CXN
p4960
(dp4961
g1709
(iconstruction
TP_SYMLINKS
p4962
(dp4963
g1712
(dp4964
VN1_568
p4965
VS1_570
p4966
ssg565
I566
sg48
g1651
sbsg1718
VN
p4967
sg1720
I1
sg48
VHOOK
p4968
sg1721
(iconstruction
TP_SEMFRAME
p4969
(dp4970
g78
g0
(g79
g2
Ntp4971
Rp4972
(dp4973
g83
(dp4974
(iconstruction
TP_NODE
p4975
(dp4976
g1730
I00
sg67
g753
sg48
g4965
sg1731
I00
sg1732
I00
sg565
I568
sb(dp4977
g1731
I00
sg67
g753
ss(iconstruction
TP_NODE
p4978
(dp4979
g1730
I01
sg67
g723
sg48
VENT_567
p4980
sg1731
I01
sg1732
I00
sg565
I567
sb(dp4981
g1731
I01
sg67
g723
sssg266
g267
sg268
g267
sg269
(dp4982
g4975
(dp4983
sg4978
(dp4984
g4975
(dp4985
g67
g714
ssssg463
g4982
sg78
(dp4986
sg465
g267
sg466
g4982
sg467
(dp4987
g4975
(dp4988
g4978
g4985
ssg4978
(dp4989
ssbsg560
(lp4990
g4978
ag4975
asg833
(lp4991
(iconstruction
TP_REL
p4992
(dp4993
g839
g4975
sg67
g714
sg565
I569
sg840
g4978
sg48
VIS_569
p4994
sbasg565
I564
sg48
g1651
sbsg1746
(iconstruction
TP_SYNFORM
p4995
(dp4996
g565
I565
sg1749
(lp4997
(iconstruction
TP_PHON
p4998
(dp4999
g1759
I4
sg1756
I0
sg565
I570
sg1760
Vhook
p5000
sg48
g4966
sbasg48
g1651
sbsg1767
I1
sba(iconstruction
CXN
p5001
(dp5002
g1709
(iconstruction
TP_SYMLINKS
p5003
(dp5004
g1712
(dp5005
VN1_575
p5006
VS1_577
p5007
ssg565
I573
sg48
g1651
sbsg1718
VN
p5008
sg1720
I1
sg48
VBOOKSHELF
p5009
sg1721
(iconstruction
TP_SEMFRAME
p5010
(dp5011
g78
g0
(g79
g2
Ntp5012
Rp5013
(dp5014
g83
(dp5015
(iconstruction
TP_NODE
p5016
(dp5017
g1730
I00
sg67
g759
sg48
g5006
sg1731
I00
sg1732
I00
sg565
I575
sb(dp5018
g1731
I00
sg67
g759
ss(iconstruction
TP_NODE
p5019
(dp5020
g1730
I01
sg67
g723
sg48
VENT_574
p5021
sg1731
I01
sg1732
I00
sg565
I574
sb(dp5022
g1731
I01
sg67
g723
sssg266
g267
sg268
g267
sg269
(dp5023
g5016
(dp5024
sg5019
(dp5025
g5016
(dp5026
g67
g714
ssssg463
g5023
sg78
(dp5027
sg465
g267
sg466
g5023
sg467
(dp5028
g5016
(dp5029
g5019
g5026
ssg5019
(dp5030
ssbsg560
(lp5031
g5019
ag5016
asg833
(lp5032
(iconstruction
TP_REL
p5033
(dp5034
g839
g5016
sg67
g714
sg565
I576
sg840
g5019
sg48
VIS_576
p5035
sbasg565
I571
sg48
g1651
sbsg1746
(iconstruction
TP_SYNFORM
p5036
(dp5037
g565
I572
sg1749
(lp5038
(iconstruction
TP_PHON
p5039
(dp5040
g1759
I9
sg1756
I0
sg565
I577
sg1760
Vbookshelf
p5041
sg48
g5007
sbasg48
g1651
sbsg1767
I1
sba(iconstruction
CXN
p5042
(dp5043
g1709
(iconstruction
TP_SYMLINKS
p5044
(dp5045
g1712
(dp5046
VN1_582
p5047
VS1_584
p5048
ssg565
I580
sg48
g1651
sbsg1718
VN
p5049
sg1720
I1
sg48
VWAGON
p5050
sg1721
(iconstruction
TP_SEMFRAME
p5051
(dp5052
g78
g0
(g79
g2
Ntp5053
Rp5054
(dp5055
g83
(dp5056
(iconstruction
TP_NODE
p5057
(dp5058
g1730
I01
sg67
g723
sg48
VENT_581
p5059
sg1731
I01
sg1732
I00
sg565
I581
sb(dp5060
g1731
I01
sg67
g723
ss(iconstruction
TP_NODE
p5061
(dp5062
g1730
I00
sg67
g741
sg48
g5047
sg1731
I00
sg1732
I00
sg565
I582
sb(dp5063
g1731
I00
sg67
g741
sssg266
g267
sg268
g267
sg269
(dp5064
g5057
(dp5065
g5061
(dp5066
g67
g714
sssg5061
(dp5067
ssg463
g5064
sg78
(dp5068
sg465
g267
sg466
g5064
sg467
(dp5069
g5057
(dp5070
sg5061
(dp5071
g5057
g5066
sssbsg560
(lp5072
g5057
ag5061
asg833
(lp5073
(iconstruction
TP_REL
p5074
(dp5075
g839
g5061
sg67
g714
sg565
I583
sg840
g5057
sg48
VIS_583
p5076
sbasg565
I578
sg48
g1651
sbsg1746
(iconstruction
TP_SYNFORM
p5077
(dp5078
g565
I579
sg1749
(lp5079
(iconstruction
TP_PHON
p5080
(dp5081
g1759
I5
sg1756
I0
sg565
I584
sg1760
Vwagon
p5082
sg48
g5048
sbasg48
g1651
sbsg1767
I1
sba(iconstruction
CXN
p5083
(dp5084
g1709
(iconstruction
TP_SYMLINKS
p5085
(dp5086
g1712
(dp5087
VN1_589
p5088
VS1_591
p5089
ssg565
I587
sg48
g1651
sbsg1718
VN
p5090
sg1720
I1
sg48
VTREE
p5091
sg1721
(iconstruction
TP_SEMFRAME
p5092
(dp5093
g78
g0
(g79
g2
Ntp5094
Rp5095
(dp5096
g83
(dp5097
(iconstruction
TP_NODE
p5098
(dp5099
g1730
I00
sg67
g750
sg48
g5088
sg1731
I00
sg1732
I00
sg565
I589
sb(dp5100
g1731
I00
sg67
g750
ss(iconstruction
TP_NODE
p5101
(dp5102
g1730
I01
sg67
g723
sg48
VENT_588
p5103
sg1731
I01
sg1732
I00
sg565
I588
sb(dp5104
g1731
I01
sg67
g723
sssg266
g267
sg268
g267
sg269
(dp5105
g5098
(dp5106
sg5101
(dp5107
g5098
(dp5108
g67
g714
ssssg463
g5105
sg78
(dp5109
sg465
g267
sg466
g5105
sg467
(dp5110
g5098
(dp5111
g5101
g5108
ssg5101
(dp5112
ssbsg560
(lp5113
g5101
ag5098
asg833
(lp5114
(iconstruction
TP_REL
p5115
(dp5116
g839
g5098
sg67
g714
sg565
I590
sg840
g5101
sg48
VIS_590
p5117
sbasg565
I585
sg48
g1651
sbsg1746
(iconstruction
TP_SYNFORM
p5118
(dp5119
g565
I586
sg1749
(lp5120
(iconstruction
TP_PHON
p5121
(dp5122
g1759
I4
sg1756
I0
sg565
I591
sg1760
Vtree
p5123
sg48
g5089
sbasg48
g1651
sbsg1767
I1
sbasbsg48
g1664
sg50
(lp5124
g0
(g52
g2
Ntp5125
Rp5126
(dp5127
g1554
Nsg48
g1560
sg57
Nsg58
Nsg1556
Nsg275
g1499
sg565
I20
sg1500
g1770
sbag0
(g52
g2
Ntp5128
Rp5129
(dp5130
g48
S'to_cxn_retrieval_C'
p5131
sg57
Nsg58
g1701
sg275
g1499
sg565
I21
sg1500
g1770
sbasg1505
(dp5132
g1560
Nsg5131
Nssg1507
(lp5133
sg1510
F1.0
sg1511
(lp5134
sg1513
(dp5135
g1138
F0.3
ssg1515
I0
sg1516
I0
sg1136
g1519
sg565
I4
sS'schemas'
p5136
g1701
sbsg1138
F0.3
sbag0
(g1702
g2
Ntp5137
Rp5138
(dp5139
g48
g1788
sg65
g1778
sg1136
Nsg565
I100
sg1137
g1770
sg1138
F0.3
sbag0
(g1702
g2
Ntp5140
Rp5141
(dp5142
g48
g1839
sg65
g1829
sg1136
Nsg565
I101
sg1137
g1770
sg1138
F0.3
sbag0
(g1702
g2
Ntp5143
Rp5144
(dp5145
g48
g1892
sg65
g1880
sg1136
Nsg565
I102
sg1137
g1770
sg1138
F0.3
sbag0
(g1702
g2
Ntp5146
Rp5147
(dp5148
g48
g1971
sg65
g1959
sg1136
Nsg565
I103
sg1137
g1770
sg1138
F0.3
sbag0
(g1702
g2
Ntp5149
Rp5150
(dp5151
g48
g2046
sg65
g2034
sg1136
Nsg565
I104
sg1137
g1770
sg1138
F0.3
sbag0
(g1702
g2
Ntp5152
Rp5153
(dp5154
g48
g2135
sg65
g2121
sg1136
Nsg565
I105
sg1137
g1770
sg1138
F0.3
sbag0
(g1702
g2
Ntp5155
Rp5156
(dp5157
g48
g2226
sg65
g2212
sg1136
Nsg565
I106
sg1137
g1770
sg1138
F0.3
sbag0
(g1702
g2
Ntp5158
Rp5159
(dp5160
g48
g2317
sg65
g2307
sg1136
Nsg565
I107
sg1137
g1770
sg1138
F0.3
sbag0
(g1702
g2
Ntp5161
Rp5162
(dp5163
g48
g2379
sg65
g2369
sg1136
Nsg565
I108
sg1137
g1770
sg1138
F0.3
sbag0
(g1702
g2
Ntp5164
Rp5165
(dp5166
g48
g2438
sg65
g2428
sg1136
Nsg565
I109
sg1137
g1770
sg1138
F0.3
sbag0
(g1702
g2
Ntp5167
Rp5168
(dp5169
g48
g2490
sg65
g2480
sg1136
Nsg565
I110
sg1137
g1770
sg1138
F0.3
sbag0
(g1702
g2
Ntp5170
Rp5171
(dp5172
g48
g2537
sg65
g2527
sg1136
Nsg565
I111
sg1137
g1770
sg1138
F0.3
sbag0
(g1702
g2
Ntp5173
Rp5174
(dp5175
g48
g2586
sg65
g2574
sg1136
Nsg565
I112
sg1137
g1770
sg1138
F0.3
sbag0
(g1702
g2
Ntp5176
Rp5177
(dp5178
g48
g2666
sg65
g2656
sg1136
Nsg565
I113
sg1137
g1770
sg1138
F0.3
sbag0
(g1702
g2
Ntp5179
Rp5180
(dp5181
g48
g2734
sg65
g2722
sg1136
Nsg565
I114
sg1137
g1770
sg1138
F0.3
sbag0
(g1702
g2
Ntp5182
Rp5183
(dp5184
g48
g2828
sg65
g2816
sg1136
Nsg565
I115
sg1137
g1770
sg1138
F0.3
sbag0
(g1702
g2
Ntp5185
Rp5186
(dp5187
g48
g2910
sg65
g2898
sg1136
Nsg565
I116
sg1137
g1770
sg1138
F0.3
sbag0
(g1702
g2
Ntp5188
Rp5189
(dp5190
g48
g3002
sg65
g2992
sg1136
Nsg565
I117
sg1137
g1770
sg1138
F0.3
sbag0
(g1702
g2
Ntp5191
Rp5192
(dp5193
g48
g3067
sg65
g3057
sg1136
Nsg565
I118
sg1137
g1770
sg1138
F0.3
sbag0
(g1702
g2
Ntp5194
Rp5195
(dp5196
g48
g3146
sg65
g3138
sg1136
Nsg565
I119
sg1137
g1770
sg1138
F0.3
sbag0
(g1702
g2
Ntp5197
Rp5198
(dp5199
g48
g3187
sg65
g3179
sg1136
Nsg565
I120
sg1137
g1770
sg1138
F0.3
sbag0
(g1702
g2
Ntp5200
Rp5201
(dp5202
g48
g3228
sg65
g3220
sg1136
Nsg565
I121
sg1137
g1770
sg1138
F0.3
sbag0
(g1702
g2
Ntp5203
Rp5204
(dp5205
g48
g3269
sg65
g3261
sg1136
Nsg565
I122
sg1137
g1770
sg1138
F0.3
sbag0
(g1702
g2
Ntp5206
Rp5207
(dp5208
g48
g3310
sg65
g3302
sg1136
Nsg565
I123
sg1137
g1770
sg1138
F0.3
sbag0
(g1702
g2
Ntp5209
Rp5210
(dp5211
g48
g3351
sg65
g3343
sg1136
Nsg565
I124
sg1137
g1770
sg1138
F0.3
sbag0
(g1702
g2
Ntp5212
Rp5213
(dp5214
g48
g3392
sg65
g3384
sg1136
Nsg565
I125
sg1137
g1770
sg1138
F0.3
sbag0
(g1702
g2
Ntp5215
Rp5216
(dp5217
g48
g3437
sg65
g3429
sg1136
Nsg565
I126
sg1137
g1770
sg1138
F0.3
sbag0
(g1702
g2
Ntp5218
Rp5219
(dp5220
g48
g3482
sg65
g3474
sg1136
Nsg565
I127
sg1137
g1770
sg1138
F0.3
sbag0
(g1702
g2
Ntp5221
Rp5222
(dp5223
g48
g3523
sg65
g3515
sg1136
Nsg565
I128
sg1137
g1770
sg1138
F0.3
sbag0
(g1702
g2
Ntp5224
Rp5225
(dp5226
g48
g3564
sg65
g3556
sg1136
Nsg565
I129
sg1137
g1770
sg1138
F0.3
sbag0
(g1702
g2
Ntp5227
Rp5228
(dp5229
g48
g3605
sg65
g3597
sg1136
Nsg565
I130
sg1137
g1770
sg1138
F0.3
sbag0
(g1702
g2
Ntp5230
Rp5231
(dp5232
g48
g3646
sg65
g3638
sg1136
Nsg565
I131
sg1137
g1770
sg1138
F0.3
sbag0
(g1702
g2
Ntp5233
Rp5234
(dp5235
g48
g3687
sg65
g3679
sg1136
Nsg565
I132
sg1137
g1770
sg1138
F0.3
sbag0
(g1702
g2
Ntp5236
Rp5237
(dp5238
g48
g3728
sg65
g3720
sg1136
Nsg565
I133
sg1137
g1770
sg1138
F0.3
sbag0
(g1702
g2
Ntp5239
Rp5240
(dp5241
g48
g3759
sg65
g3751
sg1136
Nsg565
I134
sg1137
g1770
sg1138
F0.3
sbag0
(g1702
g2
Ntp5242
Rp5243
(dp5244
g48
g3790
sg65
g3782
sg1136
Nsg565
I135
sg1137
g1770
sg1138
F0.3
sbag0
(g1702
g2
Ntp5245
Rp5246
(dp5247
g48
g3821
sg65
g3813
sg1136
Nsg565
I136
sg1137
g1770
sg1138
F0.3
sbag0
(g1702
g2
Ntp5248
Rp5249
(dp5250
g48
g3852
sg65
g3844
sg1136
Nsg565
I137
sg1137
g1770
sg1138
F0.3
sbag0
(g1702
g2
Ntp5251
Rp5252
(dp5253
g48
g3883
sg65
g3875
sg1136
Nsg565
I138
sg1137
g1770
sg1138
F0.3
sbag0
(g1702
g2
Ntp5254
Rp5255
(dp5256
g48
g3914
sg65
g3906
sg1136
Nsg565
I139
sg1137
g1770
sg1138
F0.3
sbag0
(g1702
g2
Ntp5257
Rp5258
(dp5259
g48
g3945
sg65
g3937
sg1136
Nsg565
I140
sg1137
g1770
sg1138
F0.3
sbag0
(g1702
g2
Ntp5260
Rp5261
(dp5262
g48
g3976
sg65
g3968
sg1136
Nsg565
I141
sg1137
g1770
sg1138
F0.3
sbag0
(g1702
g2
Ntp5263
Rp5264
(dp5265
g48
g4017
sg65
g4009
sg1136
Nsg565
I142
sg1137
g1770
sg1138
F0.3
sbag0
(g1702
g2
Ntp5266
Rp5267
(dp5268
g48
g4058
sg65
g4050
sg1136
Nsg565
I143
sg1137
g1770
sg1138
F0.3
sbag0
(g1702
g2
Ntp5269
Rp5270
(dp5271
g48
g4099
sg65
g4091
sg1136
Nsg565
I144
sg1137
g1770
sg1138
F0.3
sbag0
(g1702
g2
Ntp5272
Rp5273
(dp5274
g48
g4140
sg65
g4132
sg1136
Nsg565
I145
sg1137
g1770
sg1138
F0.3
sbag0
(g1702
g2
Ntp5275
Rp5276
(dp5277
g48
g4181
sg65
g4173
sg1136
Nsg565
I146
sg1137
g1770
sg1138
F0.3
sbag0
(g1702
g2
Ntp5278
Rp5279
(dp5280
g48
g4222
sg65
g4214
sg1136
Nsg565
I147
sg1137
g1770
sg1138
F0.3
sbag0
(g1702
g2
Ntp5281
Rp5282
(dp5283
g48
g4263
sg65
g4255
sg1136
Nsg565
I148
sg1137
g1770
sg1138
F0.3
sbag0
(g1702
g2
Ntp5284
Rp5285
(dp5286
g48
g4304
sg65
g4296
sg1136
Nsg565
I149
sg1137
g1770
sg1138
F0.3
sbag0
(g1702
g2
Ntp5287
Rp5288
(dp5289
g48
g4345
sg65
g4337
sg1136
Nsg565
I150
sg1137
g1770
sg1138
F0.3
sbag0
(g1702
g2
Ntp5290
Rp5291
(dp5292
g48
g4386
sg65
g4378
sg1136
Nsg565
I151
sg1137
g1770
sg1138
F0.3
sbag0
(g1702
g2
Ntp5293
Rp5294
(dp5295
g48
g4431
sg65
g4423
sg1136
Nsg565
I152
sg1137
g1770
sg1138
F0.3
sbag0
(g1702
g2
Ntp5296
Rp5297
(dp5298
g48
g4472
sg65
g4464
sg1136
Nsg565
I153
sg1137
g1770
sg1138
F0.3
sbag0
(g1702
g2
Ntp5299
Rp5300
(dp5301
g48
g4513
sg65
g4505
sg1136
Nsg565
I154
sg1137
g1770
sg1138
F0.3
sbag0
(g1702
g2
Ntp5302
Rp5303
(dp5304
g48
g4554
sg65
g4546
sg1136
Nsg565
I155
sg1137
g1770
sg1138
F0.3
sbag0
(g1702
g2
Ntp5305
Rp5306
(dp5307
g48
g4595
sg65
g4587
sg1136
Nsg565
I156
sg1137
g1770
sg1138
F0.3
sbag0
(g1702
g2
Ntp5308
Rp5309
(dp5310
g48
g4636
sg65
g4628
sg1136
Nsg565
I157
sg1137
g1770
sg1138
F0.3
sbag0
(g1702
g2
Ntp5311
Rp5312
(dp5313
g48
g4681
sg65
g4673
sg1136
Nsg565
I158
sg1137
g1770
sg1138
F0.3
sbag0
(g1702
g2
Ntp5314
Rp5315
(dp5316
g48
g4722
sg65
g4714
sg1136
Nsg565
I159
sg1137
g1770
sg1138
F0.3
sbag0
(g1702
g2
Ntp5317
Rp5318
(dp5319
g48
g4763
sg65
g4755
sg1136
Nsg565
I160
sg1137
g1770
sg1138
F0.3
sbag0
(g1702
g2
Ntp5320
Rp5321
(dp5322
g48
g4804
sg65
g4796
sg1136
Nsg565
I161
sg1137
g1770
sg1138
F0.3
sbag0
(g1702
g2
Ntp5323
Rp5324
(dp5325
g48
g4845
sg65
g4837
sg1136
Nsg565
I162
sg1137
g1770
sg1138
F0.3
sbag0
(g1702
g2
Ntp5326
Rp5327
(dp5328
g48
g4886
sg65
g4878
sg1136
Nsg565
I163
sg1137
g1770
sg1138
F0.3
sbag0
(g1702
g2
Ntp5329
Rp5330
(dp5331
g48
g4927
sg65
g4919
sg1136
Nsg565
I164
sg1137
g1770
sg1138
F0.3
sbag0
(g1702
g2
Ntp5332
Rp5333
(dp5334
g48
g4968
sg65
g4960
sg1136
Nsg565
I165
sg1137
g1770
sg1138
F0.3
sbag0
(g1702
g2
Ntp5335
Rp5336
(dp5337
g48
g5009
sg65
g5001
sg1136
Nsg565
I166
sg1137
g1770
sg1138
F0.3
sbag0
(g1702
g2
Ntp5338
Rp5339
(dp5340
g48
g5050
sg65
g5042
sg1136
Nsg565
I167
sg1137
g1770
sg1138
F0.3
sbag0
(g1702
g2
Ntp5341
Rp5342
(dp5343
g48
g5091
sg65
g5083
sg1136
Nsg565
I168
sg1137
g1770
sg1138
F0.3
sbasg1556
Nsg275
g1535
sg565
I22
sg1500
g1686
sbag1681
asg1513
(dp5344
sg1515
I0
sg1516
I0
sg1136
g1519
sg565
I5
sbsbsS'port_from'
p5345
g1558
sg1136
g1519
sg565
I1
sbag0
(g1673
g2
Ntp5346
Rp5347
(dp5348
g1677
I0
sg48
g1651
sg1678
I0
sg1679
g1699
sg5345
g5126
sg1136
g1519
sg565
I2
sbag0
(g1673
g2
Ntp5349
Rp5350
(dp5351
g1677
I0
sg48
g1651
sg1678
I0
sg1679
g0
(g52
g2
Ntp5352
Rp5353
(dp5354
g1554
Nsg48
S'from_cxn_retrieval_P'
p5355
sg57
Nsg58
Nsg1556
Nsg275
g1535
sg565
I14
sg1500
g0
(clanguage_schemas
GRAMMATICAL_WM_P
p5356
g2
Ntp5357
Rp5358
(dp5359
g46
(dp5360
g5355
NsS'from_phonological_WM_P'
p5361
Nsg1683
Nsg1543
Nssg1545
(lp5362
sg48
g1660
sg1548
(lp5363
sg50
(lp5364
g0
(g52
g2
Ntp5365
Rp5366
(dp5367
g1554
Nsg48
g1504
sg57
Nsg58
Nsg1556
Nsg275
g1499
sg565
I17
sg1500
g5358
sbag0
(g52
g2
Ntp5368
Rp5369
(dp5370
g1554
Nsg48
S'to_phonological_WM_P'
p5371
sg57
Nsg58
Nsg1556
Nsg275
g1499
sg565
I18
sg1500
g5358
sbag0
(g52
g2
Ntp5372
Rp5373
(dp5374
g48
g1572
sg57
Nsg58
Nsg275
g1499
sg565
I19
sg1500
g5358
sbasg1505
(dp5375
g1572
Nsg5371
Nsg1504
Nssg1510
F1.0
sg1574
(lp5376
sg1511
(lp5377
g0
(g52
g2
Ntp5378
Rp5379
(dp5380
g1554
Nsg48
g1683
sg57
Nsg58
(dp5381
g560
(dp5382
VYOUNG_369326
p5383
cnumpy.core.multiarray
scalar
p5384
(cnumpy
dtype
p5385
(S'f8'
p5386
I0
I1
tp5387
Rp5388
(I3
S'<'
p5389
NNNI-1
I-1
I0
tp5390
bS'c\x0c\x97MG\x9e\xe6?'
p5391
tp5392
Rp5393
sVENTITY_369321
p5394
g5384
(g5388
S'cM\xfd\x16\x06\x0e\xe9?'
p5395
tp5396
Rp5397
sVWOMAN_369322
p5398
g5384
(g5388
S'>\xb0\x1cR\xd9\xb7\xeb?'
p5399
tp5400
Rp5401
ssg833
(dp5402
(g5394
g5398
tp5403
g5384
(g5388
S'\xd7r\xdb*\x99\xd1\xeb?'
p5404
tp5405
Rp5406
s(g5394
g5383
tp5407
g5384
(g5388
S'\xb0\x10^\xddb\x01\xe4?'
p5408
tp5409
Rp5410
sssg1556
Nsg275
g1535
sg565
I13
sg1500
g5358
sbag5353
ag0
(g52
g2
Ntp5411
Rp5412
(dp5413
g1554
Nsg48
g1543
sg57
Nsg58
(dp5414
S'params_style'
p5415
(dp5416
S'continuity'
p5417
F0.1
sS'form_length'
p5418
F0.0
sS'sem_length'
p5419
F0.5
sS'activation'
p5420
F0.7
ssS'pressure'
p5421
g5384
(g5388
S'+\x87\x16\xd9\xce\xf7\xef?'
p5422
tp5423
Rp5424
sg1589
I01
ssg1556
Nsg275
g1535
sg565
I15
sg1500
g5358
sbag0
(g52
g2
Ntp5425
Rp5426
(dp5427
g1554
Nsg48
g5361
sg57
Nsg58
(lp5428
sg1556
Nsg275
g1535
sg565
I16
sg1500
g5358
sbasg1590
(dp5429
g1592
(dp5430
sg1594
(dp5431
g1596
(lp5432
sg1598
(dp5433
g1600
(lp5434
sg1602
(lp5435
sg1604
(lp5436
ssg1606
(lp5437
sg1515
(lp5438
sg1609
(lp5439
sssg1513
(dp5440
g1612
(dp5441
g1614
F1.0
sS'deact_weight'
p5442
F0.0
sg1615
F-10.0
sg1616
F1.0
sg1617
F1.0
sg1618
F1.0
sS'sub_threshold_r'
p5443
F0.8
sg1619
F0.3
sg1620
F0.0
sg1621
F0.01
ssg1622
(dp5444
g1624
g5384
(g5388
S'\x00\x00\x00\x00\x00@\x8f@'
p5445
tp5446
Rp5447
sg1625
g5384
(g5388
S'\x00\x00\x00\x00\x00\x00$@'
p5448
tp5449
Rp5450
sg1626
F0.001
sg1627
F0.0
sg1628
g5384
(g5388
S'\x00\x00\x00\x00\x00\x00\x00@'
p5451
tp5452
Rp5453
sg1629
g5384
(g5388
S'\x00\x00\x00\x00\x00\x00$@'
p5454
tp5455
Rp5456
sg1630
F1.0
ssS'style'
p5457
(dp5458
g5417
F0.1
sg5418
F0.0
sg5419
F0.5
sg5420
F0.7
sssg1515
I0
sg1516
I0
sg1136
g1519
sg565
I3
sbsbsg5345
g1692
sg1136
g1519
sg565
I3
sbag0
(g1673
g2
Ntp5459
Rp5460
(dp5461
g1677
I0
sg48
g1651
sg1678
I0
sg1679
g5379
sg5345
g1552
sg1136
g1519
sg565
I4
sbag0
(g1673
g2
Ntp5462
Rp5463
(dp5464
g1677
I0
sg48
g1651
sg1678
I0
sg1679
g1584
sg5345
g5366
sg1136
g1519
sg565
I5
sbag0
(g1673
g2
Ntp5465
Rp5466
(dp5467
g1677
I0
sg48
g1651
sg1678
I0
sg1679
g0
(g52
g2
Ntp5468
Rp5469
(dp5470
g1554
Nsg48
g1541
sg57
Nsg58
Nsg1556
Nsg275
g1535
sg565
I25
sg1500
g0
(clanguage_schemas
PHON_WM_P
p5471
g2
Ntp5472
Rp5473
(dp5474
g46
(dp5475
g1541
Nssg1545
(lp5476
sg48
g1656
sg1548
(lp5477
sg50
(lp5478
g0
(g52
g2
Ntp5479
Rp5480
(dp5481
g1554
Nsg48
S'to_utter'
p5482
sg57
Nsg58
Nsg1556
Nsg275
g1499
sg565
I26
sg1500
g5473
sbag0
(g52
g2
Ntp5483
Rp5484
(dp5485
g1554
Nsg48
g1555
sg57
Nsg58
Nsg1556
Nsg275
g1499
sg565
I27
sg1500
g5473
sbag0
(g52
g2
Ntp5486
Rp5487
(dp5488
g1554
Nsg48
g1564
sg57
Nsg58
Nsg1556
Nsg275
g1499
sg565
I28
sg1500
g5473
sbag0
(g52
g2
Ntp5489
Rp5490
(dp5491
g48
g1572
sg57
Nsg58
Nsg275
g1499
sg565
I29
sg1500
g5473
sbasg1505
(dp5492
g1572
Nsg1555
Nsg5482
Nsg1564
NssS'needs_filler'
p5493
I01
sg1510
F1.0
sg1574
(lp5494
sg1511
(lp5495
g5469
asS'filler'
p5496
S'....'
p5497
sg1590
(dp5498
g1592
(dp5499
sg1594
(dp5500
g1596
(lp5501
sg1598
(dp5502
g1600
(lp5503
sg1602
(lp5504
sg1604
(lp5505
ssg1606
(lp5506
sg1515
(lp5507
sg1609
(lp5508
sssg1513
(dp5509
g1612
(dp5510
g1614
F1.0
sg1615
F0.0
sg1616
F1.0
sg1617
F1.0
sg1618
F0.0
sg1619
F0.0
sg1620
F0.0
sg1621
F0.01
ssg1622
(dp5511
g1624
F100.0
sg1625
F10.0
sg1626
F0.001
sg1627
F0.0
sg1628
F1.0
sg1629
F1.0
sg1630
F1.0
sssg1515
I0
sg1516
I0
sg1136
g1519
sS'phon_sequence'
p5512
(lp5513
sg565
I6
sbsbsg5345
g5369
sg1136
g1519
sg565
I6
sbag0
(g1673
g2
Ntp5514
Rp5515
(dp5516
g1677
I0
sg48
g1651
sg1678
I0
sg1679
g5426
sg5345
g5484
sg1136
g1519
sg565
I7
sbag0
(g1673
g2
Ntp5517
Rp5518
(dp5519
g1677
I0
sg48
g1651
sg1678
I0
sg1679
g0
(g52
g2
Ntp5520
Rp5521
(dp5522
g1554
Nsg48
g1683
sg57
Nsg58
I01
sg1556
Nsg275
g1535
sg565
I32
sg1500
g0
(clanguage_schemas
CONTROL
p5523
g2
Ntp5524
Rp5525
(dp5526
g46
(dp5527
g5361
Nsg1683
Nssg48
g1646
sg50
(lp5528
g0
(g52
g2
Ntp5529
Rp5530
(dp5531
g1554
Nsg48
g1504
sg57
Nsg58
Nsg1556
Nsg275
g1499
sg565
I34
sg1500
g5525
sbag0
(g52
g2
Ntp5532
Rp5533
(dp5534
g1554
Nsg48
g1555
sg57
Nsg58
Nsg1556
Nsg275
g1499
sg565
I35
sg1500
g5525
sbag0
(g52
g2
Ntp5535
Rp5536
(dp5537
g48
S'to_grammatical_WM_C'
p5538
sg57
Nsg58
I00
sg275
g1499
sg565
I36
sg1500
g5525
sbasg1505
(dp5539
g1555
Nsg5538
Nsg1504
Nssg1510
F1.0
sg1511
(lp5540
g5521
ag0
(g52
g2
Ntp5541
Rp5542
(dp5543
g1554
Nsg48
g5361
sg57
Nsg58
Nsg1556
Nsg275
g1535
sg565
I33
sg1500
g5525
sbasS'state'
p5544
(dp5545
g1589
I00
sS'unexpressed_sem'
p5546
I00
sS'mode'
p5547
g1589
sS'last_prod_time'
p5548
I0
ssg1513
(dp5549
g5457
(dp5550
g5417
F0.1
sg5418
F0.0
sg5420
F0.7
sg5419
F0.5
ssS'task'
p5551
(dp5552
S'time_pressure'
p5553
g5384
(g5388
S'\x00\x00\x00\x00\x00@\x8f@'
p5554
tp5555
Rp5556
sS'start_produce'
p5557
g5384
(g5388
S'\x00\x00\x00\x00\x00@\x8f@'
p5558
tp5559
Rp5560
sssg1515
I0
sg1516
I0
sg1136
g1519
sg565
I8
sbsbsg5345
g1562
sg1136
g1519
sg565
I8
sbag0
(g1673
g2
Ntp5561
Rp5562
(dp5563
g1677
I0
sg48
g1651
sg1678
I0
sg1679
g0
(g52
g2
Ntp5564
Rp5565
(dp5566
g1554
Nsg48
g5361
sg57
Nsg58
Nsg1556
Nsg275
g1535
sg565
I30
sg1500
g0
(clanguage_schemas
UTTER
p5567
g2
Ntp5568
Rp5569
(dp5570
g46
(dp5571
g5361
Nssg48
g1649
sg50
(lp5572
g0
(g52
g2
Ntp5573
Rp5574
(dp5575
g48
g1572
sg57
Nsg58
Nsg275
g1499
sg565
I31
sg1500
g5569
sbasg1505
(dp5576
g1572
NssS'utterance_stack'
p5577
(lp5578
sg1510
F1.0
sg1511
(lp5579
g5565
asg1513
(dp5580
S'speech_rate'
p5581
F1.0
ssg1515
I0
sg1516
I0
sg1136
g1519
sg565
I7
sbsbsg5345
g5480
sg1136
g1519
sg565
I9
sbag0
(g1673
g2
Ntp5582
Rp5583
(dp5584
g1677
I0
sg48
g1651
sg1678
I0
sg1679
g5542
sg5345
g5487
sg1136
g1519
sg565
I10
sbag0
(g1673
g2
Ntp5585
Rp5586
(dp5587
g1677
I0
sg48
g1651
sg1678
I0
sg1679
g5412
sg5345
g5533
sg1136
g1519
sg565
I11
sbag0
(g1673
g2
Ntp5588
Rp5589
(dp5590
g1677
I0
sg48
g1651
sg1678
I0
sg1679
g1587
sg5345
g5530
sg1136
g1519
sg565
I12
sbasg1513
(dp5591
g1646
g5549
sg1656
g5509
sg49
g1514
sg1664
g5135
sg1668
g5344
sg1547
g1611
sg1649
g5580
sg1660
g5440
ssg1515
F0.0
sS'set_up_time'
p5592
I10
sS'input'
p5593
NsS'default_params'
p5594
Nsg1510
F1.0
sS'output_ports'
p5595
(lp5596
g5574
ag5490
ag5373
ag1570
asg5136
(dp5597
g1646
g5525
sg1656
g5473
sg49
g44
sg1668
g1686
sg1660
g5358
sg1547
g1538
sg1649
g5569
sg1664
g1770
ssbsg565
I2
sg5136
g59
sbsS'speed_param'
p5598
I100
sS'ground_truths'
p5599
(lp5600
Vwoman kick man
p5601
aVman is kick -ed by woman
p5602
aVlady kick man
p5603
aVman is kick -ed by lady
p5604
asS'is_macro'
p5605
I01
sb.