ccopy_reg
_reconstructor
p0
(clanguage_schemas
SEM_GENERATOR
p1
c__builtin__
object
p2
Ntp3
Rp4
(dp5
S'sem_inputs'
p6
(dp7
S'{}'
p8
(dp9
Vtiming
p10
(lp11
F0.0
asVsem_rate
p12
I1
sVpropositions
p13
(dp14
VP1
p15
(lp16
VENTITY(e1,F)
p17
aVMAN(man)
p18
aVIS(is1)
p19
aVis1(e1, man)
p20
aVENTITY(e2,F)
p21
aVWOMAN(woman)
p22
aVIS(is2)
p23
aVis2(e2, woman)
p24
aVEVENT(evt1,F)
p25
aVACTION(a1,F)
p26
aVIS(is3)
p27
aVis3(evt1,a1)
p28
aVPUNCH(punch)
p29
aVIS(is4)
p30
aVis4(a1, punch)
p31
aVAGENT(agt1)
p32
aVPATIENT(pt1)
p33
aVagt1(a1, e2)
p34
aVpt1(a1, e1)
p35
aVENTITY(e3,F)
p36
aVWATERING_CAN(can)
p37
aVIS(is5)
p38
aVis5(e3, can)
p39
aVEVENT(evt2,F)
p40
aVACTION(a2,F)
p41
aVIS(is6)
p42
aVis6(evt2,a2)
p43
aVKICK(kick)
p44
aVIS(is7)
p45
aVis7(a2, kick)
p46
aVAGENT(agt2)
p47
aVPATIENT(pt2)
p48
aVagt2(a2, e1)
p49
aVpt2(a2, e3)
p50
aVMODIFY(mod1)
p51
aVmod1(e1, evt2)
p52
assVcomments
p53
VActions + property modifier static.
p54
sVsequence
p55
(lp56
VP1
p57
asssS'conceptLTM'
p58
g0
(clanguage_schemas
CONCEPT_LTM
p59
g2
Ntp60
Rp61
(dp62
S'inputs'
p63
(dp64
sS'name'
p65
S'Concept_LTM'
p66
sS'out_ports'
p67
(lp68
g0
(cschema_theory
PORT
p69
g2
Ntp70
Rp71
(dp72
g65
S'to_conceptualizer'
p73
sS'data'
p74
NsS'value'
p75
(lp76
g0
(clanguage_schemas
CPT_EVENT_SCHEMA
p77
g2
Ntp78
Rp79
(dp80
g65
S'?'
p81
sS'content'
p82
(dp83
S'concept'
p84
g0
(cconcept
CONCEPT
p85
g2
Ntp86
Rp87
(dp88
S'meaning'
p89
g81
sS'conceptual_knowledge'
p90
g0
(cconcept
CONCEPTUAL_KNOWLEDGE
p91
g2
Ntp92
Rp93
(dp94
S'graph'
p95
g0
(cnetworkx.classes.digraph
DiGraph
p96
g2
Ntp97
Rp98
(dp99
S'node'
p100
(dp101
I1
(dp102
g89
g81
ssI2
(dp103
g89
S'CONCEPT'
p104
ssI3
(dp105
g89
VACTION
p106
ssI4
(dp107
g89
VSYMMETRIC
p108
ssI5
(dp109
g89
VMEET
p110
ssI6
(dp111
g89
VSHAKE_HANDS
p112
ssI7
(dp113
g89
VINTRANSITIVE
p114
ssI8
(dp115
g89
VLAUGH
p116
ssI9
(dp117
g89
VTRANSITIVE
p118
ssI10
(dp119
g89
VHIT
p120
ssI11
(dp121
g89
VWATCH
p122
ssI12
(dp123
g89
VPUNCH
p124
ssI13
(dp125
g89
VSPLASH
p126
ssI14
(dp127
g89
VTALK
p128
ssI15
(dp129
g89
VKISS
p130
ssI16
(dp131
g89
VSQUIRT
p132
ssI17
(dp133
g89
VKICK
p134
ssI18
(dp135
g89
VWEAR
p136
ssI19
(dp137
g89
VDITRANSITIVE
p138
ssI20
(dp139
g89
VSEND
p140
ssI21
(dp141
g89
VGIVE
p142
ssI22
(dp143
g89
VPROPERTY
p144
ssI23
(dp145
g89
VCOLOR
p146
ssI24
(dp147
g89
VBLUE
p148
ssI25
(dp149
g89
VGREEN
p150
ssI26
(dp151
g89
VWHITE
p152
ssI27
(dp153
g89
VBLACK
p154
ssI28
(dp155
g89
VRED
p156
ssI29
(dp157
g89
VAPPEARANCE
p158
ssI30
(dp159
g89
VYOUNG
p160
ssI31
(dp161
g89
VPRETTY
p162
ssI32
(dp163
g89
VHANDSOME
p164
ssI33
(dp165
g89
VSIZE
p166
ssI34
(dp167
g89
VSMALL
p168
ssI35
(dp169
g89
VBIG
p170
ssI36
(dp171
g89
VRELATION
p172
ssI37
(dp173
g89
VACTION_FRAME
p174
ssI38
(dp175
g89
VMODIFY
p176
ssI39
(dp177
g89
VTHEME
p178
ssI40
(dp179
g89
VRECIPIENT
p180
ssI41
(dp181
g89
VATTR
p182
ssI42
(dp183
g89
VAGT_PT
p184
ssI43
(dp185
g89
VPATIENT
p186
ssI44
(dp187
g89
VAGT+PT
p188
ssI45
(dp189
g89
VAGENT
p190
ssI46
(dp191
g89
VEVENT_FRAME
p192
ssI47
(dp193
g89
VTEMPORAL
p194
ssI48
(dp195
g89
VCONCURRENT
p196
ssI49
(dp197
g89
VSUCCESSIVE
p198
ssI50
(dp199
g89
VSPATIAL
p200
ssI51
(dp201
g89
VIN
p202
ssI52
(dp203
g89
VIS
p204
ssI53
(dp205
g89
VOBJECT_FRAME
p206
ssI54
(dp207
g89
VEVENT
p208
ssI55
(dp209
g89
VENTITY
p210
ssI56
(dp211
g89
VANIMATE
p212
ssI57
(dp213
g89
VANIMAL
p214
ssI58
(dp215
g89
VHUMAN
p216
ssI59
(dp217
g89
VOBJECT
p218
ssI60
(dp219
g89
VITEM
p220
ssI61
(dp221
g89
VWAGON
p222
ssI62
(dp223
g89
VWATERING_CAN
p224
ssI63
(dp225
g89
VBAG
p226
ssI64
(dp227
g89
VTREE
p228
ssI65
(dp229
g89
VHOOK
p230
ssI66
(dp231
g89
VCELLO
p232
ssI67
(dp233
g89
VBOOKSHELF
p234
ssI68
(dp235
g89
VCLOTHING
p236
ssI69
(dp237
g89
VTSHIRT
p238
ssI70
(dp239
g89
VDRESS
p240
ssI71
(dp241
g89
VSHIRT
p242
ssI72
(dp243
g89
VSUIT
p244
ssI73
(dp245
g89
VTURTLE
p246
ssI74
(dp247
g89
VMOUSE
p248
ssI75
(dp249
g89
VDOG
p250
ssI76
(dp251
g89
VBOY
p252
ssI77
(dp253
g89
VWOMAN
p254
ssI78
(dp255
g89
VPEOPLE
p256
ssI79
(dp257
g89
VPOLICEMAN
p258
ssI80
(dp259
g89
VHUNTER
p260
ssI81
(dp261
g89
VBALLERINA
p262
ssI82
(dp263
g89
VCELLIST
p264
ssI83
(dp265
g89
VGIRL
p266
ssI84
(dp267
g89
VFENCER
p268
ssI85
(dp269
g89
VROBBER
p270
ssI86
(dp271
g89
VMAN
p272
ssI87
(dp273
g89
VPLACE
p274
ssI88
(dp275
g89
VBOXINGRING
p276
ssI89
(dp277
g89
VPARK
p278
ssI90
(dp279
g89
VMALE
p280
ssI91
(dp281
g89
VFEMALE
p282
sssS'node_dict_factory'
p283
c__builtin__
dict
p284
sS'edge_attr_dict_factory'
p285
g284
sS'succ'
p286
(dp287
I1
(dp288
sI2
(dp289
sI3
(dp290
I2
(dp291
S'type'
p292
S'is_a'
p293
sssI4
(dp294
I3
(dp295
g292
g293
sssI5
(dp296
I4
(dp297
g292
g293
sssI6
(dp298
I4
(dp299
g292
g293
sssI7
(dp300
I3
(dp301
g292
g293
sssI8
(dp302
I7
(dp303
g292
g293
sssI9
(dp304
I3
(dp305
g292
g293
sssI10
(dp306
I9
(dp307
g292
g293
sssI11
(dp308
I9
(dp309
g292
g293
sssI12
(dp310
I9
(dp311
g292
g293
sssI13
(dp312
I9
(dp313
g292
g293
sssI14
(dp314
I9
(dp315
g292
g293
sssI15
(dp316
I9
(dp317
g292
g293
sssI16
(dp318
I9
(dp319
g292
g293
sssI17
(dp320
I9
(dp321
g292
g293
sssI18
(dp322
I9
(dp323
g292
g293
sssI19
(dp324
I3
(dp325
g292
g293
sssI20
(dp326
I19
(dp327
g292
g293
sssI21
(dp328
I19
(dp329
g292
g293
sssI22
(dp330
I2
(dp331
g292
g293
sssI23
(dp332
I22
(dp333
g292
g293
sssI24
(dp334
I23
(dp335
g292
g293
sssI25
(dp336
I23
(dp337
g292
g293
sssI26
(dp338
I23
(dp339
g292
g293
sssI27
(dp340
I23
(dp341
g292
g293
sssI28
(dp342
I23
(dp343
g292
g293
sssI29
(dp344
I22
(dp345
g292
g293
sssI30
(dp346
I29
(dp347
g292
g293
sssI31
(dp348
I29
(dp349
g292
g293
sssI32
(dp350
I29
(dp351
g292
g293
sssI33
(dp352
I22
(dp353
g292
g293
sssI34
(dp354
I33
(dp355
g292
g293
sssI35
(dp356
I33
(dp357
g292
g293
sssI36
(dp358
I2
(dp359
g292
g293
sssI37
(dp360
I36
(dp361
g292
g293
sssI38
(dp362
I37
(dp363
g292
g293
ssI53
(dp364
g292
g293
sssI39
(dp365
I37
(dp366
g292
g293
sssI40
(dp367
I37
(dp368
g292
g293
sssI41
(dp369
I37
(dp370
g292
g293
ssI53
(dp371
g292
g293
sssI42
(dp372
I37
(dp373
g292
g293
sssI43
(dp374
I42
(dp375
g292
g293
sssI44
(dp376
I43
(dp377
g292
g293
ssI45
(dp378
g292
g293
sssI45
(dp379
I42
(dp380
g292
g293
sssI46
(dp381
I36
(dp382
g292
g293
sssI47
(dp383
I46
(dp384
g292
g293
sssI48
(dp385
I47
(dp386
g292
g293
sssI49
(dp387
I47
(dp388
g292
g293
sssI50
(dp389
I46
(dp390
g292
g293
sssI51
(dp391
I50
(dp392
g292
g293
sssI52
(dp393
I36
(dp394
g292
g293
sssI53
(dp395
I36
(dp396
g292
g293
sssI54
(dp397
I2
(dp398
g292
g293
sssI55
(dp399
I2
(dp400
g292
g293
sssI56
(dp401
I55
(dp402
g292
g293
sssI57
(dp403
I56
(dp404
g292
g293
ssI59
(dp405
g292
g293
sssI58
(dp406
I56
(dp407
g292
g293
ssI59
(dp408
g292
g293
sssI59
(dp409
I55
(dp410
g292
g293
sssI60
(dp411
I59
(dp412
g292
g293
sssI61
(dp413
I60
(dp414
g292
g293
sssI62
(dp415
I60
(dp416
g292
g293
sssI63
(dp417
I60
(dp418
g292
g293
sssI64
(dp419
I60
(dp420
g292
g293
sssI65
(dp421
I60
(dp422
g292
g293
sssI66
(dp423
I60
(dp424
g292
g293
sssI67
(dp425
I60
(dp426
g292
g293
sssI68
(dp427
I60
(dp428
g292
g293
sssI69
(dp429
I68
(dp430
g292
g293
sssI70
(dp431
I68
(dp432
g292
g293
sssI71
(dp433
I68
(dp434
g292
g293
sssI72
(dp435
I68
(dp436
g292
g293
sssI73
(dp437
I57
(dp438
g292
g293
sssI74
(dp439
I57
(dp440
g292
g293
sssI75
(dp441
I57
(dp442
g292
g293
sssI76
(dp443
I58
(dp444
g292
g293
ssI90
(dp445
g292
g293
sssI77
(dp446
I58
(dp447
g292
g293
ssI91
(dp448
g292
g293
sssI78
(dp449
I58
(dp450
g292
g293
sssI79
(dp451
I58
(dp452
g292
g293
sssI80
(dp453
I58
(dp454
g292
g293
sssI81
(dp455
I58
(dp456
g292
g293
ssI91
(dp457
g292
g293
sssI82
(dp458
I58
(dp459
g292
g293
sssI83
(dp460
I58
(dp461
g292
g293
ssI91
(dp462
g292
g293
sssI84
(dp463
I58
(dp464
g292
g293
sssI85
(dp465
I58
(dp466
g292
g293
sssI86
(dp467
I58
(dp468
g292
g293
ssI90
(dp469
g292
g293
sssI87
(dp470
I55
(dp471
g292
g293
sssI88
(dp472
I87
(dp473
g292
g293
sssI89
(dp474
I87
(dp475
g292
g293
sssI90
(dp476
I55
(dp477
g292
g293
sssI91
(dp478
I55
(dp479
g292
g293
ssssS'edge'
p480
g287
sg95
(dp481
sS'adjlist_dict_factory'
p482
g284
sS'adj'
p483
g287
sS'pred'
p484
(dp485
I1
(dp486
sI2
(dp487
I3
g291
sI36
g359
sI54
g398
sI22
g331
sI55
g400
ssI3
(dp488
I9
g305
sI19
g325
sI4
g295
sI7
g301
ssI4
(dp489
I5
g297
sI6
g299
ssI5
(dp490
sI6
(dp491
sI7
(dp492
I8
g303
ssI8
(dp493
sI9
(dp494
I10
g307
sI11
g309
sI12
g311
sI13
g313
sI14
g315
sI15
g317
sI16
g319
sI17
g321
sI18
g323
ssI10
(dp495
sI11
(dp496
sI12
(dp497
sI13
(dp498
sI14
(dp499
sI15
(dp500
sI16
(dp501
sI17
(dp502
sI18
(dp503
sI19
(dp504
I20
g327
sI21
g329
ssI20
(dp505
sI21
(dp506
sI22
(dp507
I33
g353
sI29
g345
sI23
g333
ssI23
(dp508
I24
g335
sI25
g337
sI26
g339
sI27
g341
sI28
g343
ssI24
(dp509
sI25
(dp510
sI26
(dp511
sI27
(dp512
sI28
(dp513
sI29
(dp514
I32
g351
sI30
g347
sI31
g349
ssI30
(dp515
sI31
(dp516
sI32
(dp517
sI33
(dp518
I34
g355
sI35
g357
ssI34
(dp519
sI35
(dp520
sI36
(dp521
I52
g394
sI37
g361
sI46
g382
sI53
g396
ssI37
(dp522
I40
g368
sI41
g370
sI42
g373
sI38
g363
sI39
g366
ssI38
(dp523
sI39
(dp524
sI40
(dp525
sI41
(dp526
sI42
(dp527
I43
g375
sI45
g380
ssI43
(dp528
I44
g377
ssI44
(dp529
sI45
(dp530
I44
g378
ssI46
(dp531
I50
g390
sI47
g384
ssI47
(dp532
I48
g386
sI49
g388
ssI48
(dp533
sI49
(dp534
sI50
(dp535
I51
g392
ssI51
(dp536
sI52
(dp537
sI53
(dp538
I41
g371
sI38
g364
ssI54
(dp539
sI55
(dp540
I56
g402
sI91
g479
sI90
g477
sI59
g410
sI87
g471
ssI56
(dp541
I57
g404
sI58
g407
ssI57
(dp542
I73
g438
sI74
g440
sI75
g442
ssI58
(dp543
I76
g444
sI77
g447
sI78
g450
sI79
g452
sI80
g454
sI81
g456
sI82
g459
sI83
g461
sI84
g464
sI85
g466
sI86
g468
ssI59
(dp544
I57
g405
sI58
g408
sI60
g412
ssI60
(dp545
I64
g420
sI65
g422
sI66
g424
sI67
g426
sI68
g428
sI61
g414
sI62
g416
sI63
g418
ssI61
(dp546
sI62
(dp547
sI63
(dp548
sI64
(dp549
sI65
(dp550
sI66
(dp551
sI67
(dp552
sI68
(dp553
I72
g436
sI69
g430
sI70
g432
sI71
g434
ssI69
(dp554
sI70
(dp555
sI71
(dp556
sI72
(dp557
sI73
(dp558
sI74
(dp559
sI75
(dp560
sI76
(dp561
sI77
(dp562
sI78
(dp563
sI79
(dp564
sI80
(dp565
sI81
(dp566
sI82
(dp567
sI83
(dp568
sI84
(dp569
sI85
(dp570
sI86
(dp571
sI87
(dp572
I88
g473
sI89
g475
ssI88
(dp573
sI89
(dp574
sI90
(dp575
I76
g445
sI86
g469
ssI91
(dp576
I81
g457
sI83
g462
sI77
g448
sssbsS'nodes'
p577
(lp578
g87
ag0
(g85
g2
Ntp579
Rp580
(dp581
g89
g104
sg90
g93
sS'id'
p582
I2
sg65
g104
sbag0
(g85
g2
Ntp583
Rp584
(dp585
g89
g106
sg90
g93
sg582
I3
sg65
g106
sbag0
(g85
g2
Ntp586
Rp587
(dp588
g89
g108
sg90
g93
sg582
I4
sg65
g108
sbag0
(g85
g2
Ntp589
Rp590
(dp591
g89
g110
sg90
g93
sg582
I5
sg65
g110
sbag0
(g85
g2
Ntp592
Rp593
(dp594
g89
g112
sg90
g93
sg582
I6
sg65
g112
sbag0
(g85
g2
Ntp595
Rp596
(dp597
g89
g114
sg90
g93
sg582
I7
sg65
g114
sbag0
(g85
g2
Ntp598
Rp599
(dp600
g89
g116
sg90
g93
sg582
I8
sg65
g116
sbag0
(g85
g2
Ntp601
Rp602
(dp603
g89
g118
sg90
g93
sg582
I9
sg65
g118
sbag0
(g85
g2
Ntp604
Rp605
(dp606
g89
g120
sg90
g93
sg582
I10
sg65
g120
sbag0
(g85
g2
Ntp607
Rp608
(dp609
g89
g122
sg90
g93
sg582
I11
sg65
g122
sbag0
(g85
g2
Ntp610
Rp611
(dp612
g89
g124
sg90
g93
sg582
I12
sg65
g124
sbag0
(g85
g2
Ntp613
Rp614
(dp615
g89
g126
sg90
g93
sg582
I13
sg65
g126
sbag0
(g85
g2
Ntp616
Rp617
(dp618
g89
g128
sg90
g93
sg582
I14
sg65
g128
sbag0
(g85
g2
Ntp619
Rp620
(dp621
g89
g130
sg90
g93
sg582
I15
sg65
g130
sbag0
(g85
g2
Ntp622
Rp623
(dp624
g89
g132
sg90
g93
sg582
I16
sg65
g132
sbag0
(g85
g2
Ntp625
Rp626
(dp627
g89
g134
sg90
g93
sg582
I17
sg65
g134
sbag0
(g85
g2
Ntp628
Rp629
(dp630
g89
g136
sg90
g93
sg582
I18
sg65
g136
sbag0
(g85
g2
Ntp631
Rp632
(dp633
g89
g138
sg90
g93
sg582
I19
sg65
g138
sbag0
(g85
g2
Ntp634
Rp635
(dp636
g89
g140
sg90
g93
sg582
I20
sg65
g140
sbag0
(g85
g2
Ntp637
Rp638
(dp639
g89
g142
sg90
g93
sg582
I21
sg65
g142
sbag0
(g85
g2
Ntp640
Rp641
(dp642
g89
g144
sg90
g93
sg582
I22
sg65
g144
sbag0
(g85
g2
Ntp643
Rp644
(dp645
g89
g146
sg90
g93
sg582
I23
sg65
g146
sbag0
(g85
g2
Ntp646
Rp647
(dp648
g89
g148
sg90
g93
sg582
I24
sg65
g148
sbag0
(g85
g2
Ntp649
Rp650
(dp651
g89
g150
sg90
g93
sg582
I25
sg65
g150
sbag0
(g85
g2
Ntp652
Rp653
(dp654
g89
g152
sg90
g93
sg582
I26
sg65
g152
sbag0
(g85
g2
Ntp655
Rp656
(dp657
g89
g154
sg90
g93
sg582
I27
sg65
g154
sbag0
(g85
g2
Ntp658
Rp659
(dp660
g89
g156
sg90
g93
sg582
I28
sg65
g156
sbag0
(g85
g2
Ntp661
Rp662
(dp663
g89
g158
sg90
g93
sg582
I29
sg65
g158
sbag0
(g85
g2
Ntp664
Rp665
(dp666
g89
g160
sg90
g93
sg582
I30
sg65
g160
sbag0
(g85
g2
Ntp667
Rp668
(dp669
g89
g162
sg90
g93
sg582
I31
sg65
g162
sbag0
(g85
g2
Ntp670
Rp671
(dp672
g89
g164
sg90
g93
sg582
I32
sg65
g164
sbag0
(g85
g2
Ntp673
Rp674
(dp675
g89
g166
sg90
g93
sg582
I33
sg65
g166
sbag0
(g85
g2
Ntp676
Rp677
(dp678
g89
g168
sg90
g93
sg582
I34
sg65
g168
sbag0
(g85
g2
Ntp679
Rp680
(dp681
g89
g170
sg90
g93
sg582
I35
sg65
g170
sbag0
(g85
g2
Ntp682
Rp683
(dp684
g89
g172
sg90
g93
sg582
I36
sg65
g172
sbag0
(g85
g2
Ntp685
Rp686
(dp687
g89
g174
sg90
g93
sg582
I37
sg65
g174
sbag0
(g85
g2
Ntp688
Rp689
(dp690
g89
g176
sg90
g93
sg582
I38
sg65
g176
sbag0
(g85
g2
Ntp691
Rp692
(dp693
g89
g178
sg90
g93
sg582
I39
sg65
g178
sbag0
(g85
g2
Ntp694
Rp695
(dp696
g89
g180
sg90
g93
sg582
I40
sg65
g180
sbag0
(g85
g2
Ntp697
Rp698
(dp699
g89
g182
sg90
g93
sg582
I41
sg65
g182
sbag0
(g85
g2
Ntp700
Rp701
(dp702
g89
g184
sg90
g93
sg582
I42
sg65
g184
sbag0
(g85
g2
Ntp703
Rp704
(dp705
g89
g186
sg90
g93
sg582
I43
sg65
g186
sbag0
(g85
g2
Ntp706
Rp707
(dp708
g89
g188
sg90
g93
sg582
I44
sg65
g188
sbag0
(g85
g2
Ntp709
Rp710
(dp711
g89
g190
sg90
g93
sg582
I45
sg65
g190
sbag0
(g85
g2
Ntp712
Rp713
(dp714
g89
g192
sg90
g93
sg582
I46
sg65
g192
sbag0
(g85
g2
Ntp715
Rp716
(dp717
g89
g194
sg90
g93
sg582
I47
sg65
g194
sbag0
(g85
g2
Ntp718
Rp719
(dp720
g89
g196
sg90
g93
sg582
I48
sg65
g196
sbag0
(g85
g2
Ntp721
Rp722
(dp723
g89
g198
sg90
g93
sg582
I49
sg65
g198
sbag0
(g85
g2
Ntp724
Rp725
(dp726
g89
g200
sg90
g93
sg582
I50
sg65
g200
sbag0
(g85
g2
Ntp727
Rp728
(dp729
g89
g202
sg90
g93
sg582
I51
sg65
g202
sbag0
(g85
g2
Ntp730
Rp731
(dp732
g89
g204
sg90
g93
sg582
I52
sg65
g204
sbag0
(g85
g2
Ntp733
Rp734
(dp735
g89
g206
sg90
g93
sg582
I53
sg65
g206
sbag0
(g85
g2
Ntp736
Rp737
(dp738
g89
g208
sg90
g93
sg582
I54
sg65
g208
sbag0
(g85
g2
Ntp739
Rp740
(dp741
g89
g210
sg90
g93
sg582
I55
sg65
g210
sbag0
(g85
g2
Ntp742
Rp743
(dp744
g89
g212
sg90
g93
sg582
I56
sg65
g212
sbag0
(g85
g2
Ntp745
Rp746
(dp747
g89
g214
sg90
g93
sg582
I57
sg65
g214
sbag0
(g85
g2
Ntp748
Rp749
(dp750
g89
g216
sg90
g93
sg582
I58
sg65
g216
sbag0
(g85
g2
Ntp751
Rp752
(dp753
g89
g218
sg90
g93
sg582
I59
sg65
g218
sbag0
(g85
g2
Ntp754
Rp755
(dp756
g89
g220
sg90
g93
sg582
I60
sg65
g220
sbag0
(g85
g2
Ntp757
Rp758
(dp759
g89
g222
sg90
g93
sg582
I61
sg65
g222
sbag0
(g85
g2
Ntp760
Rp761
(dp762
g89
g224
sg90
g93
sg582
I62
sg65
g224
sbag0
(g85
g2
Ntp763
Rp764
(dp765
g89
g226
sg90
g93
sg582
I63
sg65
g226
sbag0
(g85
g2
Ntp766
Rp767
(dp768
g89
g228
sg90
g93
sg582
I64
sg65
g228
sbag0
(g85
g2
Ntp769
Rp770
(dp771
g89
g230
sg90
g93
sg582
I65
sg65
g230
sbag0
(g85
g2
Ntp772
Rp773
(dp774
g89
g232
sg90
g93
sg582
I66
sg65
g232
sbag0
(g85
g2
Ntp775
Rp776
(dp777
g89
g234
sg90
g93
sg582
I67
sg65
g234
sbag0
(g85
g2
Ntp778
Rp779
(dp780
g89
g236
sg90
g93
sg582
I68
sg65
g236
sbag0
(g85
g2
Ntp781
Rp782
(dp783
g89
g238
sg90
g93
sg582
I69
sg65
g238
sbag0
(g85
g2
Ntp784
Rp785
(dp786
g89
g240
sg90
g93
sg582
I70
sg65
g240
sbag0
(g85
g2
Ntp787
Rp788
(dp789
g89
g242
sg90
g93
sg582
I71
sg65
g242
sbag0
(g85
g2
Ntp790
Rp791
(dp792
g89
g244
sg90
g93
sg582
I72
sg65
g244
sbag0
(g85
g2
Ntp793
Rp794
(dp795
g89
g246
sg90
g93
sg582
I73
sg65
g246
sbag0
(g85
g2
Ntp796
Rp797
(dp798
g89
g248
sg90
g93
sg582
I74
sg65
g248
sbag0
(g85
g2
Ntp799
Rp800
(dp801
g89
g250
sg90
g93
sg582
I75
sg65
g250
sbag0
(g85
g2
Ntp802
Rp803
(dp804
g89
g252
sg90
g93
sg582
I76
sg65
g252
sbag0
(g85
g2
Ntp805
Rp806
(dp807
g89
g254
sg90
g93
sg582
I77
sg65
g254
sbag0
(g85
g2
Ntp808
Rp809
(dp810
g89
g256
sg90
g93
sg582
I78
sg65
g256
sbag0
(g85
g2
Ntp811
Rp812
(dp813
g89
g258
sg90
g93
sg582
I79
sg65
g258
sbag0
(g85
g2
Ntp814
Rp815
(dp816
g89
g260
sg90
g93
sg582
I80
sg65
g260
sbag0
(g85
g2
Ntp817
Rp818
(dp819
g89
g262
sg90
g93
sg582
I81
sg65
g262
sbag0
(g85
g2
Ntp820
Rp821
(dp822
g89
g264
sg90
g93
sg582
I82
sg65
g264
sbag0
(g85
g2
Ntp823
Rp824
(dp825
g89
g266
sg90
g93
sg582
I83
sg65
g266
sbag0
(g85
g2
Ntp826
Rp827
(dp828
g89
g268
sg90
g93
sg582
I84
sg65
g268
sbag0
(g85
g2
Ntp829
Rp830
(dp831
g89
g270
sg90
g93
sg582
I85
sg65
g270
sbag0
(g85
g2
Ntp832
Rp833
(dp834
g89
g272
sg90
g93
sg582
I86
sg65
g272
sbag0
(g85
g2
Ntp835
Rp836
(dp837
g89
g274
sg90
g93
sg582
I87
sg65
g274
sbag0
(g85
g2
Ntp838
Rp839
(dp840
g89
g276
sg90
g93
sg582
I88
sg65
g276
sbag0
(g85
g2
Ntp841
Rp842
(dp843
g89
g278
sg90
g93
sg582
I89
sg65
g278
sbag0
(g85
g2
Ntp844
Rp845
(dp846
g89
g280
sg90
g93
sg582
I90
sg65
g280
sbag0
(g85
g2
Ntp847
Rp848
(dp849
g89
g282
sg90
g93
sg582
I91
sg65
g282
sbasS'edges'
p850
(lp851
g0
(cconcept
SEM_REL
p852
g2
Ntp853
Rp854
(dp855
S'pTo'
p856
g580
sg292
g293
sS'pFrom'
p857
g584
sbag0
(g852
g2
Ntp858
Rp859
(dp860
g856
g584
sg292
g293
sg857
g587
sbag0
(g852
g2
Ntp861
Rp862
(dp863
g856
g587
sg292
g293
sg857
g590
sbag0
(g852
g2
Ntp864
Rp865
(dp866
g856
g587
sg292
g293
sg857
g593
sbag0
(g852
g2
Ntp867
Rp868
(dp869
g856
g584
sg292
g293
sg857
g596
sbag0
(g852
g2
Ntp870
Rp871
(dp872
g856
g596
sg292
g293
sg857
g599
sbag0
(g852
g2
Ntp873
Rp874
(dp875
g856
g584
sg292
g293
sg857
g602
sbag0
(g852
g2
Ntp876
Rp877
(dp878
g856
g602
sg292
g293
sg857
g605
sbag0
(g852
g2
Ntp879
Rp880
(dp881
g856
g602
sg292
g293
sg857
g608
sbag0
(g852
g2
Ntp882
Rp883
(dp884
g856
g602
sg292
g293
sg857
g611
sbag0
(g852
g2
Ntp885
Rp886
(dp887
g856
g602
sg292
g293
sg857
g614
sbag0
(g852
g2
Ntp888
Rp889
(dp890
g856
g602
sg292
g293
sg857
g617
sbag0
(g852
g2
Ntp891
Rp892
(dp893
g856
g602
sg292
g293
sg857
g620
sbag0
(g852
g2
Ntp894
Rp895
(dp896
g856
g602
sg292
g293
sg857
g623
sbag0
(g852
g2
Ntp897
Rp898
(dp899
g856
g602
sg292
g293
sg857
g626
sbag0
(g852
g2
Ntp900
Rp901
(dp902
g856
g602
sg292
g293
sg857
g629
sbag0
(g852
g2
Ntp903
Rp904
(dp905
g856
g584
sg292
g293
sg857
g632
sbag0
(g852
g2
Ntp906
Rp907
(dp908
g856
g632
sg292
g293
sg857
g635
sbag0
(g852
g2
Ntp909
Rp910
(dp911
g856
g632
sg292
g293
sg857
g638
sbag0
(g852
g2
Ntp912
Rp913
(dp914
g856
g580
sg292
g293
sg857
g641
sbag0
(g852
g2
Ntp915
Rp916
(dp917
g856
g641
sg292
g293
sg857
g644
sbag0
(g852
g2
Ntp918
Rp919
(dp920
g856
g644
sg292
g293
sg857
g647
sbag0
(g852
g2
Ntp921
Rp922
(dp923
g856
g644
sg292
g293
sg857
g650
sbag0
(g852
g2
Ntp924
Rp925
(dp926
g856
g644
sg292
g293
sg857
g653
sbag0
(g852
g2
Ntp927
Rp928
(dp929
g856
g644
sg292
g293
sg857
g656
sbag0
(g852
g2
Ntp930
Rp931
(dp932
g856
g644
sg292
g293
sg857
g659
sbag0
(g852
g2
Ntp933
Rp934
(dp935
g856
g641
sg292
g293
sg857
g662
sbag0
(g852
g2
Ntp936
Rp937
(dp938
g856
g662
sg292
g293
sg857
g665
sbag0
(g852
g2
Ntp939
Rp940
(dp941
g856
g662
sg292
g293
sg857
g668
sbag0
(g852
g2
Ntp942
Rp943
(dp944
g856
g662
sg292
g293
sg857
g671
sbag0
(g852
g2
Ntp945
Rp946
(dp947
g856
g641
sg292
g293
sg857
g674
sbag0
(g852
g2
Ntp948
Rp949
(dp950
g856
g674
sg292
g293
sg857
g677
sbag0
(g852
g2
Ntp951
Rp952
(dp953
g856
g674
sg292
g293
sg857
g680
sbag0
(g852
g2
Ntp954
Rp955
(dp956
g856
g580
sg292
g293
sg857
g683
sbag0
(g852
g2
Ntp957
Rp958
(dp959
g856
g683
sg292
g293
sg857
g686
sbag0
(g852
g2
Ntp960
Rp961
(dp962
g856
g686
sg292
g293
sg857
g689
sbag0
(g852
g2
Ntp963
Rp964
(dp965
g856
g686
sg292
g293
sg857
g692
sbag0
(g852
g2
Ntp966
Rp967
(dp968
g856
g686
sg292
g293
sg857
g695
sbag0
(g852
g2
Ntp969
Rp970
(dp971
g856
g686
sg292
g293
sg857
g698
sbag0
(g852
g2
Ntp972
Rp973
(dp974
g856
g686
sg292
g293
sg857
g701
sbag0
(g852
g2
Ntp975
Rp976
(dp977
g856
g701
sg292
g293
sg857
g704
sbag0
(g852
g2
Ntp978
Rp979
(dp980
g856
g704
sg292
g293
sg857
g707
sbag0
(g852
g2
Ntp981
Rp982
(dp983
g856
g701
sg292
g293
sg857
g710
sbag0
(g852
g2
Ntp984
Rp985
(dp986
g856
g710
sg292
g293
sg857
g707
sbag0
(g852
g2
Ntp987
Rp988
(dp989
g856
g683
sg292
g293
sg857
g713
sbag0
(g852
g2
Ntp990
Rp991
(dp992
g856
g713
sg292
g293
sg857
g716
sbag0
(g852
g2
Ntp993
Rp994
(dp995
g856
g716
sg292
g293
sg857
g719
sbag0
(g852
g2
Ntp996
Rp997
(dp998
g856
g716
sg292
g293
sg857
g722
sbag0
(g852
g2
Ntp999
Rp1000
(dp1001
g856
g713
sg292
g293
sg857
g725
sbag0
(g852
g2
Ntp1002
Rp1003
(dp1004
g856
g725
sg292
g293
sg857
g728
sbag0
(g852
g2
Ntp1005
Rp1006
(dp1007
g856
g683
sg292
g293
sg857
g731
sbag0
(g852
g2
Ntp1008
Rp1009
(dp1010
g856
g683
sg292
g293
sg857
g734
sbag0
(g852
g2
Ntp1011
Rp1012
(dp1013
g856
g734
sg292
g293
sg857
g689
sbag0
(g852
g2
Ntp1014
Rp1015
(dp1016
g856
g734
sg292
g293
sg857
g698
sbag0
(g852
g2
Ntp1017
Rp1018
(dp1019
g856
g580
sg292
g293
sg857
g737
sbag0
(g852
g2
Ntp1020
Rp1021
(dp1022
g856
g580
sg292
g293
sg857
g740
sbag0
(g852
g2
Ntp1023
Rp1024
(dp1025
g856
g740
sg292
g293
sg857
g743
sbag0
(g852
g2
Ntp1026
Rp1027
(dp1028
g856
g743
sg292
g293
sg857
g746
sbag0
(g852
g2
Ntp1029
Rp1030
(dp1031
g856
g743
sg292
g293
sg857
g749
sbag0
(g852
g2
Ntp1032
Rp1033
(dp1034
g856
g740
sg292
g293
sg857
g752
sbag0
(g852
g2
Ntp1035
Rp1036
(dp1037
g856
g752
sg292
g293
sg857
g755
sbag0
(g852
g2
Ntp1038
Rp1039
(dp1040
g856
g755
sg292
g293
sg857
g758
sbag0
(g852
g2
Ntp1041
Rp1042
(dp1043
g856
g755
sg292
g293
sg857
g761
sbag0
(g852
g2
Ntp1044
Rp1045
(dp1046
g856
g755
sg292
g293
sg857
g764
sbag0
(g852
g2
Ntp1047
Rp1048
(dp1049
g856
g755
sg292
g293
sg857
g767
sbag0
(g852
g2
Ntp1050
Rp1051
(dp1052
g856
g755
sg292
g293
sg857
g770
sbag0
(g852
g2
Ntp1053
Rp1054
(dp1055
g856
g755
sg292
g293
sg857
g773
sbag0
(g852
g2
Ntp1056
Rp1057
(dp1058
g856
g755
sg292
g293
sg857
g776
sbag0
(g852
g2
Ntp1059
Rp1060
(dp1061
g856
g755
sg292
g293
sg857
g779
sbag0
(g852
g2
Ntp1062
Rp1063
(dp1064
g856
g779
sg292
g293
sg857
g782
sbag0
(g852
g2
Ntp1065
Rp1066
(dp1067
g856
g779
sg292
g293
sg857
g785
sbag0
(g852
g2
Ntp1068
Rp1069
(dp1070
g856
g779
sg292
g293
sg857
g788
sbag0
(g852
g2
Ntp1071
Rp1072
(dp1073
g856
g779
sg292
g293
sg857
g791
sbag0
(g852
g2
Ntp1074
Rp1075
(dp1076
g856
g752
sg292
g293
sg857
g746
sbag0
(g852
g2
Ntp1077
Rp1078
(dp1079
g856
g746
sg292
g293
sg857
g794
sbag0
(g852
g2
Ntp1080
Rp1081
(dp1082
g856
g746
sg292
g293
sg857
g797
sbag0
(g852
g2
Ntp1083
Rp1084
(dp1085
g856
g746
sg292
g293
sg857
g800
sbag0
(g852
g2
Ntp1086
Rp1087
(dp1088
g856
g752
sg292
g293
sg857
g749
sbag0
(g852
g2
Ntp1089
Rp1090
(dp1091
g856
g749
sg292
g293
sg857
g803
sbag0
(g852
g2
Ntp1092
Rp1093
(dp1094
g856
g749
sg292
g293
sg857
g806
sbag0
(g852
g2
Ntp1095
Rp1096
(dp1097
g856
g749
sg292
g293
sg857
g809
sbag0
(g852
g2
Ntp1098
Rp1099
(dp1100
g856
g749
sg292
g293
sg857
g812
sbag0
(g852
g2
Ntp1101
Rp1102
(dp1103
g856
g749
sg292
g293
sg857
g815
sbag0
(g852
g2
Ntp1104
Rp1105
(dp1106
g856
g749
sg292
g293
sg857
g818
sbag0
(g852
g2
Ntp1107
Rp1108
(dp1109
g856
g749
sg292
g293
sg857
g821
sbag0
(g852
g2
Ntp1110
Rp1111
(dp1112
g856
g749
sg292
g293
sg857
g824
sbag0
(g852
g2
Ntp1113
Rp1114
(dp1115
g856
g749
sg292
g293
sg857
g827
sbag0
(g852
g2
Ntp1116
Rp1117
(dp1118
g856
g749
sg292
g293
sg857
g830
sbag0
(g852
g2
Ntp1119
Rp1120
(dp1121
g856
g749
sg292
g293
sg857
g833
sbag0
(g852
g2
Ntp1122
Rp1123
(dp1124
g856
g740
sg292
g293
sg857
g836
sbag0
(g852
g2
Ntp1125
Rp1126
(dp1127
g856
g836
sg292
g293
sg857
g839
sbag0
(g852
g2
Ntp1128
Rp1129
(dp1130
g856
g836
sg292
g293
sg857
g842
sbag0
(g852
g2
Ntp1131
Rp1132
(dp1133
g856
g740
sg292
g293
sg857
g845
sbag0
(g852
g2
Ntp1134
Rp1135
(dp1136
g856
g845
sg292
g293
sg857
g803
sbag0
(g852
g2
Ntp1137
Rp1138
(dp1139
g856
g845
sg292
g293
sg857
g833
sbag0
(g852
g2
Ntp1140
Rp1141
(dp1142
g856
g740
sg292
g293
sg857
g848
sbag0
(g852
g2
Ntp1143
Rp1144
(dp1145
g856
g848
sg292
g293
sg857
g818
sbag0
(g852
g2
Ntp1146
Rp1147
(dp1148
g856
g848
sg292
g293
sg857
g824
sbag0
(g852
g2
Ntp1149
Rp1150
(dp1151
g856
g848
sg292
g293
sg857
g806
sbasS'neutral'
p1152
g87
sbsg582
I1
sg65
g81
sbssS'model'
p1153
Nsg582
I9
sS'LTM'
p1154
g61
sS'init_act'
p1155
F1.0
sbag0
(clanguage_schemas
CPT_ACTION_SCHEMA
p1156
g2
Ntp1157
Rp1158
(dp1159
g65
g106
sg82
(dp1160
g84
g584
ssg1153
Nsg582
I10
sg1154
g61
sg1155
F1.0
sbag0
(g1156
g2
Ntp1161
Rp1162
(dp1163
g65
g108
sg82
(dp1164
g84
g587
ssg1153
Nsg582
I11
sg1154
g61
sg1155
F1.0
sbag0
(g1156
g2
Ntp1165
Rp1166
(dp1167
g65
g110
sg82
(dp1168
g84
g590
ssg1153
Nsg582
I12
sg1154
g61
sg1155
F1.0
sbag0
(g1156
g2
Ntp1169
Rp1170
(dp1171
g65
g112
sg82
(dp1172
g84
g593
ssg1153
Nsg582
I13
sg1154
g61
sg1155
F1.0
sbag0
(g1156
g2
Ntp1173
Rp1174
(dp1175
g65
g114
sg82
(dp1176
g84
g596
ssg1153
Nsg582
I14
sg1154
g61
sg1155
F1.0
sbag0
(g1156
g2
Ntp1177
Rp1178
(dp1179
g65
g116
sg82
(dp1180
g84
g599
ssg1153
Nsg582
I15
sg1154
g61
sg1155
F1.0
sbag0
(g1156
g2
Ntp1181
Rp1182
(dp1183
g65
g118
sg82
(dp1184
g84
g602
ssg1153
Nsg582
I16
sg1154
g61
sg1155
F1.0
sbag0
(g1156
g2
Ntp1185
Rp1186
(dp1187
g65
g120
sg82
(dp1188
g84
g605
ssg1153
Nsg582
I17
sg1154
g61
sg1155
F1.0
sbag0
(g1156
g2
Ntp1189
Rp1190
(dp1191
g65
g122
sg82
(dp1192
g84
g608
ssg1153
Nsg582
I18
sg1154
g61
sg1155
F1.0
sbag0
(g1156
g2
Ntp1193
Rp1194
(dp1195
g65
g124
sg82
(dp1196
g84
g611
ssg1153
Nsg582
I19
sg1154
g61
sg1155
F1.0
sbag0
(g1156
g2
Ntp1197
Rp1198
(dp1199
g65
g126
sg82
(dp1200
g84
g614
ssg1153
Nsg582
I20
sg1154
g61
sg1155
F1.0
sbag0
(g1156
g2
Ntp1201
Rp1202
(dp1203
g65
g128
sg82
(dp1204
g84
g617
ssg1153
Nsg582
I21
sg1154
g61
sg1155
F1.0
sbag0
(g1156
g2
Ntp1205
Rp1206
(dp1207
g65
g130
sg82
(dp1208
g84
g620
ssg1153
Nsg582
I22
sg1154
g61
sg1155
F1.0
sbag0
(g1156
g2
Ntp1209
Rp1210
(dp1211
g65
g132
sg82
(dp1212
g84
g623
ssg1153
Nsg582
I23
sg1154
g61
sg1155
F1.0
sbag0
(g1156
g2
Ntp1213
Rp1214
(dp1215
g65
g134
sg82
(dp1216
g84
g626
ssg1153
Nsg582
I24
sg1154
g61
sg1155
F1.0
sbag0
(g1156
g2
Ntp1217
Rp1218
(dp1219
g65
g136
sg82
(dp1220
g84
g629
ssg1153
Nsg582
I25
sg1154
g61
sg1155
F1.0
sbag0
(g1156
g2
Ntp1221
Rp1222
(dp1223
g65
g138
sg82
(dp1224
g84
g632
ssg1153
Nsg582
I26
sg1154
g61
sg1155
F1.0
sbag0
(g1156
g2
Ntp1225
Rp1226
(dp1227
g65
g140
sg82
(dp1228
g84
g635
ssg1153
Nsg582
I27
sg1154
g61
sg1155
F1.0
sbag0
(g1156
g2
Ntp1229
Rp1230
(dp1231
g65
g142
sg82
(dp1232
g84
g638
ssg1153
Nsg582
I28
sg1154
g61
sg1155
F1.0
sbag0
(clanguage_schemas
CPT_PROPERTY_SCHEMA
p1233
g2
Ntp1234
Rp1235
(dp1236
g65
g144
sg82
(dp1237
g84
g641
ssg1153
Nsg582
I29
sg1154
g61
sg1155
F1.0
sbag0
(g1233
g2
Ntp1238
Rp1239
(dp1240
g65
g146
sg82
(dp1241
g84
g644
ssg1153
Nsg582
I30
sg1154
g61
sg1155
F1.0
sbag0
(g1233
g2
Ntp1242
Rp1243
(dp1244
g65
g148
sg82
(dp1245
g84
g647
ssg1153
Nsg582
I31
sg1154
g61
sg1155
F1.0
sbag0
(g1233
g2
Ntp1246
Rp1247
(dp1248
g65
g150
sg82
(dp1249
g84
g650
ssg1153
Nsg582
I32
sg1154
g61
sg1155
F1.0
sbag0
(g1233
g2
Ntp1250
Rp1251
(dp1252
g65
g152
sg82
(dp1253
g84
g653
ssg1153
Nsg582
I33
sg1154
g61
sg1155
F1.0
sbag0
(g1233
g2
Ntp1254
Rp1255
(dp1256
g65
g154
sg82
(dp1257
g84
g656
ssg1153
Nsg582
I34
sg1154
g61
sg1155
F1.0
sbag0
(g1233
g2
Ntp1258
Rp1259
(dp1260
g65
g156
sg82
(dp1261
g84
g659
ssg1153
Nsg582
I35
sg1154
g61
sg1155
F1.0
sbag0
(g1233
g2
Ntp1262
Rp1263
(dp1264
g65
g158
sg82
(dp1265
g84
g662
ssg1153
Nsg582
I36
sg1154
g61
sg1155
F1.0
sbag0
(g1233
g2
Ntp1266
Rp1267
(dp1268
g65
g160
sg82
(dp1269
g84
g665
ssg1153
Nsg582
I37
sg1154
g61
sg1155
F1.0
sbag0
(g1233
g2
Ntp1270
Rp1271
(dp1272
g65
g162
sg82
(dp1273
g84
g668
ssg1153
Nsg582
I38
sg1154
g61
sg1155
F1.0
sbag0
(g1233
g2
Ntp1274
Rp1275
(dp1276
g65
g164
sg82
(dp1277
g84
g671
ssg1153
Nsg582
I39
sg1154
g61
sg1155
F1.0
sbag0
(g1233
g2
Ntp1278
Rp1279
(dp1280
g65
g166
sg82
(dp1281
g84
g674
ssg1153
Nsg582
I40
sg1154
g61
sg1155
F1.0
sbag0
(g1233
g2
Ntp1282
Rp1283
(dp1284
g65
g168
sg82
(dp1285
g84
g677
ssg1153
Nsg582
I41
sg1154
g61
sg1155
F1.0
sbag0
(g1233
g2
Ntp1286
Rp1287
(dp1288
g65
g170
sg82
(dp1289
g84
g680
ssg1153
Nsg582
I42
sg1154
g61
sg1155
F1.0
sbag0
(clanguage_schemas
CPT_RELATION_SCHEMA
p1290
g2
Ntp1291
Rp1292
(dp1293
g65
g172
sg82
(dp1294
g856
Nsg84
g683
sg857
Nssg1153
Nsg582
I43
sg1154
g61
sg1155
F1.0
sbag0
(g1290
g2
Ntp1295
Rp1296
(dp1297
g65
g174
sg82
(dp1298
g856
Nsg84
g686
sg857
Nssg1153
Nsg582
I44
sg1154
g61
sg1155
F1.0
sbag0
(g1290
g2
Ntp1299
Rp1300
(dp1301
g65
g176
sg82
(dp1302
g856
Nsg84
g689
sg857
Nssg1153
Nsg582
I45
sg1154
g61
sg1155
F1.0
sbag0
(g1290
g2
Ntp1303
Rp1304
(dp1305
g65
g178
sg82
(dp1306
g856
Nsg84
g692
sg857
Nssg1153
Nsg582
I46
sg1154
g61
sg1155
F1.0
sbag0
(g1290
g2
Ntp1307
Rp1308
(dp1309
g65
g180
sg82
(dp1310
g856
Nsg84
g695
sg857
Nssg1153
Nsg582
I47
sg1154
g61
sg1155
F1.0
sbag0
(g1290
g2
Ntp1311
Rp1312
(dp1313
g65
g182
sg82
(dp1314
g856
Nsg84
g698
sg857
Nssg1153
Nsg582
I48
sg1154
g61
sg1155
F1.0
sbag0
(g1290
g2
Ntp1315
Rp1316
(dp1317
g65
g184
sg82
(dp1318
g856
Nsg84
g701
sg857
Nssg1153
Nsg582
I49
sg1154
g61
sg1155
F1.0
sbag0
(g1290
g2
Ntp1319
Rp1320
(dp1321
g65
g186
sg82
(dp1322
g856
Nsg84
g704
sg857
Nssg1153
Nsg582
I50
sg1154
g61
sg1155
F1.0
sbag0
(g1290
g2
Ntp1323
Rp1324
(dp1325
g65
g188
sg82
(dp1326
g856
Nsg84
g707
sg857
Nssg1153
Nsg582
I51
sg1154
g61
sg1155
F1.0
sbag0
(g1290
g2
Ntp1327
Rp1328
(dp1329
g65
g190
sg82
(dp1330
g856
Nsg84
g710
sg857
Nssg1153
Nsg582
I52
sg1154
g61
sg1155
F1.0
sbag0
(g1290
g2
Ntp1331
Rp1332
(dp1333
g65
g192
sg82
(dp1334
g856
Nsg84
g713
sg857
Nssg1153
Nsg582
I53
sg1154
g61
sg1155
F1.0
sbag0
(g1290
g2
Ntp1335
Rp1336
(dp1337
g65
g194
sg82
(dp1338
g856
Nsg84
g716
sg857
Nssg1153
Nsg582
I54
sg1154
g61
sg1155
F1.0
sbag0
(g1290
g2
Ntp1339
Rp1340
(dp1341
g65
g196
sg82
(dp1342
g856
Nsg84
g719
sg857
Nssg1153
Nsg582
I55
sg1154
g61
sg1155
F1.0
sbag0
(g1290
g2
Ntp1343
Rp1344
(dp1345
g65
g198
sg82
(dp1346
g856
Nsg84
g722
sg857
Nssg1153
Nsg582
I56
sg1154
g61
sg1155
F1.0
sbag0
(g1290
g2
Ntp1347
Rp1348
(dp1349
g65
g200
sg82
(dp1350
g856
Nsg84
g725
sg857
Nssg1153
Nsg582
I57
sg1154
g61
sg1155
F1.0
sbag0
(g1290
g2
Ntp1351
Rp1352
(dp1353
g65
g202
sg82
(dp1354
g856
Nsg84
g728
sg857
Nssg1153
Nsg582
I58
sg1154
g61
sg1155
F1.0
sbag0
(g1290
g2
Ntp1355
Rp1356
(dp1357
g65
g204
sg82
(dp1358
g856
Nsg84
g731
sg857
Nssg1153
Nsg582
I59
sg1154
g61
sg1155
F1.0
sbag0
(g1290
g2
Ntp1359
Rp1360
(dp1361
g65
g206
sg82
(dp1362
g856
Nsg84
g734
sg857
Nssg1153
Nsg582
I60
sg1154
g61
sg1155
F1.0
sbag0
(g77
g2
Ntp1363
Rp1364
(dp1365
g65
g208
sg82
(dp1366
g84
g737
ssg1153
Nsg582
I61
sg1154
g61
sg1155
F1.0
sbag0
(clanguage_schemas
CPT_ENTITY_SCHEMA
p1367
g2
Ntp1368
Rp1369
(dp1370
g65
g210
sg82
(dp1371
g84
g740
ssg1153
Nsg582
I62
sg1154
g61
sg1155
F1.0
sbag0
(g1367
g2
Ntp1372
Rp1373
(dp1374
g65
g212
sg82
(dp1375
g84
g743
ssg1153
Nsg582
I63
sg1154
g61
sg1155
F1.0
sbag0
(g1367
g2
Ntp1376
Rp1377
(dp1378
g65
g214
sg82
(dp1379
g84
g746
ssg1153
Nsg582
I64
sg1154
g61
sg1155
F1.0
sbag0
(g1367
g2
Ntp1380
Rp1381
(dp1382
g65
g216
sg82
(dp1383
g84
g749
ssg1153
Nsg582
I65
sg1154
g61
sg1155
F1.0
sbag0
(g1367
g2
Ntp1384
Rp1385
(dp1386
g65
g218
sg82
(dp1387
g84
g752
ssg1153
Nsg582
I66
sg1154
g61
sg1155
F1.0
sbag0
(g1367
g2
Ntp1388
Rp1389
(dp1390
g65
g220
sg82
(dp1391
g84
g755
ssg1153
Nsg582
I67
sg1154
g61
sg1155
F1.0
sbag0
(g1367
g2
Ntp1392
Rp1393
(dp1394
g65
g222
sg82
(dp1395
g84
g758
ssg1153
Nsg582
I68
sg1154
g61
sg1155
F1.0
sbag0
(g1367
g2
Ntp1396
Rp1397
(dp1398
g65
g224
sg82
(dp1399
g84
g761
ssg1153
Nsg582
I69
sg1154
g61
sg1155
F1.0
sbag0
(g1367
g2
Ntp1400
Rp1401
(dp1402
g65
g226
sg82
(dp1403
g84
g764
ssg1153
Nsg582
I70
sg1154
g61
sg1155
F1.0
sbag0
(g1367
g2
Ntp1404
Rp1405
(dp1406
g65
g228
sg82
(dp1407
g84
g767
ssg1153
Nsg582
I71
sg1154
g61
sg1155
F1.0
sbag0
(g1367
g2
Ntp1408
Rp1409
(dp1410
g65
g230
sg82
(dp1411
g84
g770
ssg1153
Nsg582
I72
sg1154
g61
sg1155
F1.0
sbag0
(g1367
g2
Ntp1412
Rp1413
(dp1414
g65
g232
sg82
(dp1415
g84
g773
ssg1153
Nsg582
I73
sg1154
g61
sg1155
F1.0
sbag0
(g1367
g2
Ntp1416
Rp1417
(dp1418
g65
g234
sg82
(dp1419
g84
g776
ssg1153
Nsg582
I74
sg1154
g61
sg1155
F1.0
sbag0
(g1367
g2
Ntp1420
Rp1421
(dp1422
g65
g236
sg82
(dp1423
g84
g779
ssg1153
Nsg582
I75
sg1154
g61
sg1155
F1.0
sbag0
(g1367
g2
Ntp1424
Rp1425
(dp1426
g65
g238
sg82
(dp1427
g84
g782
ssg1153
Nsg582
I76
sg1154
g61
sg1155
F1.0
sbag0
(g1367
g2
Ntp1428
Rp1429
(dp1430
g65
g240
sg82
(dp1431
g84
g785
ssg1153
Nsg582
I77
sg1154
g61
sg1155
F1.0
sbag0
(g1367
g2
Ntp1432
Rp1433
(dp1434
g65
g242
sg82
(dp1435
g84
g788
ssg1153
Nsg582
I78
sg1154
g61
sg1155
F1.0
sbag0
(g1367
g2
Ntp1436
Rp1437
(dp1438
g65
g244
sg82
(dp1439
g84
g791
ssg1153
Nsg582
I79
sg1154
g61
sg1155
F1.0
sbag0
(g1367
g2
Ntp1440
Rp1441
(dp1442
g65
g246
sg82
(dp1443
g84
g794
ssg1153
Nsg582
I80
sg1154
g61
sg1155
F1.0
sbag0
(g1367
g2
Ntp1444
Rp1445
(dp1446
g65
g248
sg82
(dp1447
g84
g797
ssg1153
Nsg582
I81
sg1154
g61
sg1155
F1.0
sbag0
(g1367
g2
Ntp1448
Rp1449
(dp1450
g65
g250
sg82
(dp1451
g84
g800
ssg1153
Nsg582
I82
sg1154
g61
sg1155
F1.0
sbag0
(g1367
g2
Ntp1452
Rp1453
(dp1454
g65
g252
sg82
(dp1455
g84
g803
ssg1153
Nsg582
I83
sg1154
g61
sg1155
F1.0
sbag0
(g1367
g2
Ntp1456
Rp1457
(dp1458
g65
g254
sg82
(dp1459
g84
g806
ssg1153
Nsg582
I84
sg1154
g61
sg1155
F1.0
sbag0
(g1367
g2
Ntp1460
Rp1461
(dp1462
g65
g256
sg82
(dp1463
g84
g809
ssg1153
Nsg582
I85
sg1154
g61
sg1155
F1.0
sbag0
(g1367
g2
Ntp1464
Rp1465
(dp1466
g65
g258
sg82
(dp1467
g84
g812
ssg1153
Nsg582
I86
sg1154
g61
sg1155
F1.0
sbag0
(g1367
g2
Ntp1468
Rp1469
(dp1470
g65
g260
sg82
(dp1471
g84
g815
ssg1153
Nsg582
I87
sg1154
g61
sg1155
F1.0
sbag0
(g1367
g2
Ntp1472
Rp1473
(dp1474
g65
g262
sg82
(dp1475
g84
g818
ssg1153
Nsg582
I88
sg1154
g61
sg1155
F1.0
sbag0
(g1367
g2
Ntp1476
Rp1477
(dp1478
g65
g264
sg82
(dp1479
g84
g821
ssg1153
Nsg582
I89
sg1154
g61
sg1155
F1.0
sbag0
(g1367
g2
Ntp1480
Rp1481
(dp1482
g65
g266
sg82
(dp1483
g84
g824
ssg1153
Nsg582
I90
sg1154
g61
sg1155
F1.0
sbag0
(g1367
g2
Ntp1484
Rp1485
(dp1486
g65
g268
sg82
(dp1487
g84
g827
ssg1153
Nsg582
I91
sg1154
g61
sg1155
F1.0
sbag0
(g1367
g2
Ntp1488
Rp1489
(dp1490
g65
g270
sg82
(dp1491
g84
g830
ssg1153
Nsg582
I92
sg1154
g61
sg1155
F1.0
sbag0
(g1367
g2
Ntp1492
Rp1493
(dp1494
g65
g272
sg82
(dp1495
g84
g833
ssg1153
Nsg582
I93
sg1154
g61
sg1155
F1.0
sbag0
(g1367
g2
Ntp1496
Rp1497
(dp1498
g65
g274
sg82
(dp1499
g84
g836
ssg1153
Nsg582
I94
sg1154
g61
sg1155
F1.0
sbag0
(g1367
g2
Ntp1500
Rp1501
(dp1502
g65
g276
sg82
(dp1503
g84
g839
ssg1153
Nsg582
I95
sg1154
g61
sg1155
F1.0
sbag0
(g1367
g2
Ntp1504
Rp1505
(dp1506
g65
g278
sg82
(dp1507
g84
g842
ssg1153
Nsg582
I96
sg1154
g61
sg1155
F1.0
sbag0
(g1367
g2
Ntp1508
Rp1509
(dp1510
g65
g280
sg82
(dp1511
g84
g845
ssg1153
Nsg582
I97
sg1154
g61
sg1155
F1.0
sbag0
(g1367
g2
Ntp1512
Rp1513
(dp1514
g65
g282
sg82
(dp1515
g84
g848
ssg1153
Nsg582
I98
sg1154
g61
sg1155
F1.0
sbasg292
S'OUT'
p1516
sg582
I11
sS'schema'
p1517
g61
sbag0
(g69
g2
Ntp1518
Rp1519
(dp1520
g65
S'to_semantic_WM'
p1521
sg74
Nsg75
g76
sg292
g1516
sg582
I12
sg1517
g61
sbasS'outputs'
p1522
(dp1523
g73
Nsg1521
NssS'connections'
p1524
(lp1525
sS'cpt_knowledge'
p1526
g93
sS'dt'
p1527
F1.0
sS'in_ports'
p1528
(lp1529
sS'params'
p1530
(dp1531
g1155
F1.0
ssS't'
p1532
I0
sS'activity'
p1533
I0
sg1153
g0
(cschema_theory
MODEL
p1534
g2
Ntp1535
Rp1536
(dp1537
S'verbose'
p1538
I00
sg65
S'language_system_P'
p1539
sS'sim_data'
p1540
(dp1541
S'system_states'
p1542
(dp1543
sg1153
(dp1544
ssg1522
(dp1545
sS'input_ports'
p1546
(lp1547
g0
(g69
g2
Ntp1548
Rp1549
(dp1550
g65
S'from_conceptualizer'
p1551
sg74
Nsg75
Nsg292
S'IN'
p1552
sg582
I1
sg1517
g0
(clanguage_schemas
SEMANTIC_WM
p1553
g2
Ntp1554
Rp1555
(dp1556
g63
(dp1557
S'from_grammatical_WM_P'
p1558
NsS'from_concept_LTM'
p1559
NsS'from_control'
p1560
NsS'from_grammatical_WM_C'
p1561
Nsg1551
NssS'schema_insts'
p1562
(lp1563
sg65
S'Semantic_WM'
p1564
sS'comp_links'
p1565
(lp1566
sg67
(lp1567
g0
(g69
g2
Ntp1568
Rp1569
(dp1570
S'port_data'
p1571
Nsg65
S'to_grammatical_WM_P'
p1572
sg74
Nsg75
NsS'port_value'
p1573
Nsg292
g1516
sg582
I6
sg1517
g1555
sbag0
(g69
g2
Ntp1574
Rp1575
(dp1576
g1571
Nsg65
S'to_cxn_retrieval_P'
p1577
sg74
Nsg75
Nsg1573
Nsg292
g1516
sg582
I7
sg1517
g1555
sbag0
(g69
g2
Ntp1578
Rp1579
(dp1580
g1571
Nsg65
S'to_control'
p1581
sg74
Nsg75
Nsg1573
Nsg292
g1516
sg582
I8
sg1517
g1555
sbag0
(g69
g2
Ntp1582
Rp1583
(dp1584
g65
S'to_visual_WM'
p1585
sg74
Nsg75
Nsg292
g1516
sg582
I9
sg1517
g1555
sbag0
(g69
g2
Ntp1586
Rp1587
(dp1588
g65
S'to_output'
p1589
sg74
Nsg75
Nsg292
g1516
sg582
I10
sg1517
g1555
sbasg1522
(dp1590
g1589
Nsg1572
Nsg1585
Nsg1577
Nsg1581
Nssg1527
F1.0
sS'coop_links'
p1591
(lp1592
sg1528
(lp1593
g1549
ag0
(g69
g2
Ntp1594
Rp1595
(dp1596
g65
g1559
sg74
Nsg75
Nsg292
g1552
sg582
I2
sg1517
g1555
sbag0
(g69
g2
Ntp1597
Rp1598
(dp1599
g65
g1561
sg74
Nsg75
Nsg292
g1552
sg582
I3
sg1517
g1555
sbag0
(g69
g2
Ntp1600
Rp1601
(dp1602
g1571
Nsg65
g1558
sg74
Nsg75
Nsg1573
Nsg292
g1552
sg582
I4
sg1517
g1555
sbag0
(g69
g2
Ntp1603
Rp1604
(dp1605
g1571
Nsg65
g1560
sg74
Nsg75
S'produce'
p1606
sg1573
Nsg292
g1552
sg582
I5
sg1517
g1555
sbasS'save_state'
p1607
(dp1608
S'insts'
p1609
(dp1610
sS'WM_activity'
p1611
(dp1612
S'comp'
p1613
(lp1614
sS'c2_network'
p1615
(dp1616
S'num_insts'
p1617
(lp1618
sS'num_coop_links'
p1619
(lp1620
sS'num_comp_links'
p1621
(lp1622
ssS'coop'
p1623
(lp1624
sg1532
(lp1625
sS'act'
p1626
(lp1627
sssg1530
(dp1628
S'C2'
p1629
(dp1630
S'P_comp'
p1631
F1.0
sS'comp_weight'
p1632
F0.0
sS'P_coop'
p1633
F1.0
sS'coop_asymmetry'
p1634
F1.0
sS'coop_weight'
p1635
F0.0
sS'confidence_threshold'
p1636
F0.0
sS'comp_asymmetry'
p1637
F0.0
sS'prune_threshold'
p1638
F0.01
ssS'dyn'
p1639
(dp1640
S'tau'
p1641
F10000.0
sS'k'
p1642
F10.0
sS'act_rest'
p1643
F0.001
sS'noise_mean'
p1644
F0.0
sS'noise_std'
p1645
F1.0
sS'ext_weight'
p1646
F1.0
sS'int_weight'
p1647
F1.0
sssg1532
I0
sg1533
I0
sg1153
g1536
sS'SemRep'
p1648
g0
(g96
g2
Ntp1649
Rp1650
(dp1651
g100
(dp1652
sg283
g284
sg285
g284
sg286
(dp1653
sg480
g1653
sg95
(dp1654
sg482
g284
sg483
g1653
sg484
(dp1655
sbsg582
I1
sbsbasS'brain_mapping'
p1656
g0
(cschema_theory
BRAIN_MAPPING
p1657
g2
Ntp1658
Rp1659
(dp1660
S'schema_mapping'
p1661
(dp1662
S'Control'
p1663
(lp1664
S'DLPFC'
p1665
asS'Utter'
p1666
(lp1667
S''
p1668
asg1564
(lp1669
S'left_SFG'
p1670
aS'LIP'
p1671
aS'Hippocampus'
p1672
asS'Phonological_WM_P'
p1673
(lp1674
S'left_BA6'
p1675
asg66
(lp1676
g1668
asS'Grammatical_WM_P'
p1677
(lp1678
S'left_BA45'
p1679
aS'leftBA44'
p1680
asS'Grammatical_LTM'
p1681
(lp1682
S'left_STG'
p1683
aS'left_MTG'
p1684
asS'Cxn_retrieval_P'
p1685
(lp1686
ssS'connect_mapping'
p1687
(dp1688
sbsg1524
(lp1689
g0
(cschema_theory
CONNECT
p1690
g2
Ntp1691
Rp1692
(dp1693
S'delay'
p1694
I0
sg65
g1668
sS'weight'
p1695
I0
sS'port_to'
p1696
g0
(g69
g2
Ntp1697
Rp1698
(dp1699
g1571
Nsg65
S'from_semantic_WM'
p1700
sg74
Nsg75
Nsg1573
Nsg292
g1552
sg582
I23
sg1517
g0
(clanguage_schemas
CXN_RETRIEVAL_P
p1701
g2
Ntp1702
Rp1703
(dp1704
g63
(dp1705
g1700
NsS'from_grammatical_LTM'
p1706
Nssg65
g1685
sg67
(lp1707
g0
(g69
g2
Ntp1708
Rp1709
(dp1710
g1571
Nsg65
g1572
sg74
Nsg75
Nsg1573
Nsg292
g1516
sg582
I24
sg1517
g1703
sbasg1522
(dp1711
g1572
NssS'cxn_instances'
p1712
(lp1713
sg1527
F1.0
sg1528
(lp1714
g0
(g69
g2
Ntp1715
Rp1716
(dp1717
g1571
Nsg65
g1706
sg74
Nsg75
(lp1718
g0
(clanguage_schemas
CXN_SCHEMA
p1719
g2
Ntp1720
Rp1721
(dp1722
g65
VCNJ_AND
p1723
sg82
(iconstruction
CXN
p1724
(dp1725
S'SymLinks'
p1726
(iconstruction
TP_SYMLINKS
p1727
(dp1728
S'SL'
p1729
(dp1730
VEVT1_4
p1731
VS1_6
p1732
sVEVT2_5
p1733
VS3_8
p1734
ssg582
I3
sg65
g1668
sbsS'clss'
p1735
VD
p1736
sS'group'
p1737
I3
sg65
g1723
sS'SemFrame'
p1738
(iconstruction
TP_SEMFRAME
p1739
(dp1740
g95
g0
(g96
g2
Ntp1741
Rp1742
(dp1743
g100
(dp1744
(iconstruction
TP_NODE
p1745
(dp1746
S'head'
p1747
I00
sg84
g737
sg65
g1733
sS'frame'
p1748
I00
sS'focus'
p1749
I00
sg582
I5
sb(dp1750
g1748
I00
sg84
g737
ss(iconstruction
TP_NODE
p1751
(dp1752
g1747
I00
sg84
g737
sg65
g1731
sg1748
I00
sg1749
I01
sg582
I4
sb(dp1753
g1748
I00
sg84
g737
sssg283
g284
sg285
g284
sg286
(dp1754
g1745
(dp1755
sg1751
(dp1756
ssg480
g1754
sg95
(dp1757
sg482
g284
sg483
g1754
sg484
(dp1758
g1745
(dp1759
sg1751
(dp1760
ssbsg577
(lp1761
g1751
ag1745
asg850
(lp1762
sg582
I1
sg65
g1668
sbsS'SynForm'
p1763
(iconstruction
TP_SYNFORM
p1764
(dp1765
g582
I2
sS'form'
p1766
(lp1767
(iconstruction
TP_SLOT
p1768
(dp1769
S'cxn_classes'
p1770
(lp1771
VS
p1772
asS'order'
p1773
I0
sg582
I6
sg65
g1732
sba(iconstruction
TP_PHON
p1774
(dp1775
S'num_syllables'
p1776
I3
sg1773
I1
sg582
I7
sS'cxn_phonetics'
p1777
Vand
p1778
sg65
VS2_7
p1779
sba(iconstruction
TP_SLOT
p1780
(dp1781
g1770
(lp1782
VS
p1783
asg1773
I2
sg582
I8
sg65
g1734
sbasg65
g1668
sbsS'preference'
p1784
I1
sbsg1153
Nsg582
I99
sg1154
g0
(clanguage_schemas
GRAMMATICAL_LTM
p1785
g2
Ntp1786
Rp1787
(dp1788
g63
(dp1789
sS'grammar'
p1790
(iconstruction
GRAMMAR
p1791
(dp1792
S'constructions'
p1793
(lp1794
g1724
a(iconstruction
CXN
p1795
(dp1796
g1726
(iconstruction
TP_SYMLINKS
p1797
(dp1798
g1729
(dp1799
VEVT2_13
p1800
VS3_17
p1801
sVEVT1_12
p1802
VS1_15
p1803
ssg582
I11
sg65
g1668
sbsg1735
VD
p1804
sg1737
I3
sg65
VCNJ_THEN
p1805
sg1738
(iconstruction
TP_SEMFRAME
p1806
(dp1807
g95
g0
(g96
g2
Ntp1808
Rp1809
(dp1810
g100
(dp1811
(iconstruction
TP_NODE
p1812
(dp1813
g1747
I00
sg84
g737
sg65
g1800
sg1748
I00
sg1749
I00
sg582
I13
sb(dp1814
g1748
I00
sg84
g737
ss(iconstruction
TP_NODE
p1815
(dp1816
g1747
I00
sg84
g737
sg65
g1802
sg1748
I00
sg1749
I00
sg582
I12
sb(dp1817
g1748
I00
sg84
g737
sssg283
g284
sg285
g284
sg286
(dp1818
g1812
(dp1819
sg1815
(dp1820
g1812
(dp1821
g84
g722
ssssg480
g1818
sg95
(dp1822
sg482
g284
sg483
g1818
sg484
(dp1823
g1812
(dp1824
g1815
g1821
ssg1815
(dp1825
ssbsg577
(lp1826
g1815
ag1812
asg850
(lp1827
(iconstruction
TP_REL
p1828
(dp1829
g856
g1812
sg84
g722
sg582
I14
sg857
g1815
sg65
VEVT1_EVT2_14
p1830
sbasg582
I9
sg65
g1668
sbsg1763
(iconstruction
TP_SYNFORM
p1831
(dp1832
g582
I10
sg1766
(lp1833
(iconstruction
TP_SLOT
p1834
(dp1835
g1770
(lp1836
VS
p1837
asg1773
I0
sg582
I15
sg65
g1803
sba(iconstruction
TP_PHON
p1838
(dp1839
g1776
I4
sg1773
I1
sg582
I16
sg1777
Vthen
p1840
sg65
VS2_16
p1841
sba(iconstruction
TP_SLOT
p1842
(dp1843
g1770
(lp1844
VS
p1845
asg1773
I2
sg582
I17
sg65
g1801
sbasg65
g1668
sbsg1784
I1
sba(iconstruction
CXN
p1846
(dp1847
g1726
(iconstruction
TP_SYMLINKS
p1848
(dp1849
g1729
(dp1850
VEVT2_22
p1851
VS3_26
p1852
sVEVT1_21
p1853
VS1_24
p1854
ssg582
I20
sg65
g1668
sbsg1735
VD
p1855
sg1737
I3
sg65
VCNJ_WHILE
p1856
sg1738
(iconstruction
TP_SEMFRAME
p1857
(dp1858
g95
g0
(g96
g2
Ntp1859
Rp1860
(dp1861
g100
(dp1862
(iconstruction
TP_NODE
p1863
(dp1864
g1747
I00
sg84
g737
sg65
g1851
sg1748
I00
sg1749
I00
sg582
I22
sb(dp1865
g1748
I00
sg84
g737
ss(iconstruction
TP_NODE
p1866
(dp1867
g1747
I00
sg84
g737
sg65
g1853
sg1748
I00
sg1749
I01
sg582
I21
sb(dp1868
g1748
I00
sg84
g737
sssg283
g284
sg285
g284
sg286
(dp1869
g1863
(dp1870
sg1866
(dp1871
g1863
(dp1872
g84
g719
ssssg480
g1869
sg95
(dp1873
sg482
g284
sg483
g1869
sg484
(dp1874
g1863
(dp1875
g1866
g1872
ssg1866
(dp1876
ssbsg577
(lp1877
g1866
ag1863
asg850
(lp1878
(iconstruction
TP_REL
p1879
(dp1880
g856
g1863
sg84
g719
sg582
I23
sg857
g1866
sg65
VEVT1_EVT2_23
p1881
sbasg582
I18
sg65
g1668
sbsg1763
(iconstruction
TP_SYNFORM
p1882
(dp1883
g582
I19
sg1766
(lp1884
(iconstruction
TP_SLOT
p1885
(dp1886
g1770
(lp1887
VS
p1888
asg1773
I0
sg582
I24
sg65
g1854
sba(iconstruction
TP_PHON
p1889
(dp1890
g1776
I5
sg1773
I1
sg582
I25
sg1777
Vwhile
p1891
sg65
VS2_25
p1892
sba(iconstruction
TP_SLOT
p1893
(dp1894
g1770
(lp1895
VS
p1896
asg1773
I2
sg582
I26
sg65
g1852
sbasg65
g1668
sbsg1784
I1
sba(iconstruction
CXN
p1897
(dp1898
g1726
(iconstruction
TP_SYMLINKS
p1899
(dp1900
g1729
(dp1901
VACT_31
p1902
VS4_40
p1903
sVACTOR_1_32
p1904
VS1_37
p1905
sVACTOR_2_33
p1906
VS3_39
p1907
ssg582
I29
sg65
g1668
sbsg1735
VS
p1908
sg1737
Nsg65
VSYMMETRIC_TRANS
p1909
sg1738
(iconstruction
TP_SEMFRAME
p1910
(dp1911
g95
g0
(g96
g2
Ntp1912
Rp1913
(dp1914
g100
(dp1915
(iconstruction
TP_NODE
p1916
(dp1917
g1747
I01
sg84
g737
sg65
VEVT_30
p1918
sg1748
I01
sg1749
I00
sg582
I30
sb(dp1919
g1748
I01
sg84
g737
ss(iconstruction
TP_NODE
p1920
(dp1921
g1747
I00
sg84
g740
sg65
g1904
sg1748
I01
sg1749
I01
sg582
I32
sb(dp1922
g1748
I01
sg84
g740
ss(iconstruction
TP_NODE
p1923
(dp1924
g1747
I00
sg84
g584
sg65
g1902
sg1748
I01
sg1749
I00
sg582
I31
sb(dp1925
g1748
I01
sg84
g584
ss(iconstruction
TP_NODE
p1926
(dp1927
g1747
I00
sg84
g740
sg65
g1906
sg1748
I01
sg1749
I00
sg582
I33
sb(dp1928
g1748
I01
sg84
g740
sssg283
g284
sg285
g284
sg286
(dp1929
g1916
(dp1930
g1923
(dp1931
g84
g731
sssg1920
(dp1932
sg1923
(dp1933
g1920
(dp1934
g84
g707
ssg1926
(dp1935
g84
g707
sssg1926
(dp1936
ssg480
g1929
sg95
(dp1937
sg482
g284
sg483
g1929
sg484
(dp1938
g1916
(dp1939
sg1920
(dp1940
g1923
g1934
ssg1923
(dp1941
g1916
g1931
ssg1926
(dp1942
g1923
g1935
sssbsg577
(lp1943
g1916
ag1923
ag1920
ag1926
asg850
(lp1944
(iconstruction
TP_REL
p1945
(dp1946
g856
g1923
sg84
g731
sg582
I34
sg857
g1916
sg65
VIS_34
p1947
sba(iconstruction
TP_REL
p1948
(dp1949
g856
g1920
sg84
g707
sg582
I35
sg857
g1923
sg65
VAGT_PT_1_35
p1950
sba(iconstruction
TP_REL
p1951
(dp1952
g856
g1926
sg84
g707
sg582
I36
sg857
g1923
sg65
VAGT_PT_2_36
p1953
sbasg582
I27
sg65
g1668
sbsg1763
(iconstruction
TP_SYNFORM
p1954
(dp1955
g582
I28
sg1766
(lp1956
(iconstruction
TP_SLOT
p1957
(dp1958
g1770
(lp1959
VNP
p1960
aVN
p1961
asg1773
I0
sg582
I37
sg65
g1905
sba(iconstruction
TP_PHON
p1962
(dp1963
g1776
I3
sg1773
I1
sg582
I38
sg1777
Vand
p1964
sg65
VS2_38
p1965
sba(iconstruction
TP_SLOT
p1966
(dp1967
g1770
(lp1968
VNP
p1969
aVN
p1970
asg1773
I2
sg582
I39
sg65
g1907
sba(iconstruction
TP_SLOT
p1971
(dp1972
g1770
(lp1973
VVP
p1974
aVV
p1975
asg1773
I3
sg582
I40
sg65
g1903
sbasg65
g1668
sbsg1784
I1
sba(iconstruction
CXN
p1976
(dp1977
g1726
(iconstruction
TP_SYMLINKS
p1978
(dp1979
g1729
(dp1980
VAGT_46
p1981
VS1_51
p1982
sVACT_45
p1983
VS2_52
p1984
sVPT_47
p1985
VS3_53
p1986
ssg582
I43
sg65
g1668
sbsg1735
VS
p1987
sg1737
I2
sg65
VSVO
p1988
sg1738
(iconstruction
TP_SEMFRAME
p1989
(dp1990
g95
g0
(g96
g2
Ntp1991
Rp1992
(dp1993
g100
(dp1994
(iconstruction
TP_NODE
p1995
(dp1996
g1747
I01
sg84
g737
sg65
VEVT_44
p1997
sg1748
I01
sg1749
I00
sg582
I44
sb(dp1998
g1748
I01
sg84
g737
ss(iconstruction
TP_NODE
p1999
(dp2000
g1747
I00
sg84
g740
sg65
g1981
sg1748
I01
sg1749
I01
sg582
I46
sb(dp2001
g1748
I01
sg84
g740
ss(iconstruction
TP_NODE
p2002
(dp2003
g1747
I00
sg84
g740
sg65
g1985
sg1748
I01
sg1749
I00
sg582
I47
sb(dp2004
g1748
I01
sg84
g740
ss(iconstruction
TP_NODE
p2005
(dp2006
g1747
I00
sg84
g584
sg65
g1983
sg1748
I01
sg1749
I00
sg582
I45
sb(dp2007
g1748
I01
sg84
g584
sssg283
g284
sg285
g284
sg286
(dp2008
g1995
(dp2009
g2005
(dp2010
g84
g731
sssg1999
(dp2011
sg2002
(dp2012
sg2005
(dp2013
g1999
(dp2014
g84
g710
ssg2002
(dp2015
g84
g704
ssssg480
g2008
sg95
(dp2016
sg482
g284
sg483
g2008
sg484
(dp2017
g1995
(dp2018
sg1999
(dp2019
g2005
g2014
ssg2002
(dp2020
g2005
g2015
ssg2005
(dp2021
g1995
g2010
sssbsg577
(lp2022
g1995
ag2005
ag1999
ag2002
asg850
(lp2023
(iconstruction
TP_REL
p2024
(dp2025
g856
g2005
sg84
g731
sg582
I48
sg857
g1995
sg65
VIS_48
p2026
sba(iconstruction
TP_REL
p2027
(dp2028
g856
g1999
sg84
g710
sg582
I49
sg857
g2005
sg65
VACT_AGT_49
p2029
sba(iconstruction
TP_REL
p2030
(dp2031
g856
g2002
sg84
g704
sg582
I50
sg857
g2005
sg65
VACT_PT_50
p2032
sbasg582
I41
sg65
g1668
sbsg1763
(iconstruction
TP_SYNFORM
p2033
(dp2034
g582
I42
sg1766
(lp2035
(iconstruction
TP_SLOT
p2036
(dp2037
g1770
(lp2038
VNP
p2039
aVN
p2040
asg1773
I0
sg582
I51
sg65
g1982
sba(iconstruction
TP_SLOT
p2041
(dp2042
g1770
(lp2043
VVP
p2044
aVV
p2045
asg1773
I1
sg582
I52
sg65
g1984
sba(iconstruction
TP_SLOT
p2046
(dp2047
g1770
(lp2048
VNP
p2049
aVN
p2050
asg1773
I2
sg582
I53
sg65
g1986
sbasg65
g1668
sbsg1784
I1
sba(iconstruction
CXN
p2051
(dp2052
g1726
(iconstruction
TP_SYMLINKS
p2053
(dp2054
g1729
(dp2055
VPT_60
p2056
VS1_64
p2057
sVACT_58
p2058
VS3_66
p2059
sVAGT_59
p2060
VS6_69
p2061
ssg582
I56
sg65
g1668
sbsg1735
VS
p2062
sg1737
I2
sg65
VPAS_SVO
p2063
sg1738
(iconstruction
TP_SEMFRAME
p2064
(dp2065
g95
g0
(g96
g2
Ntp2066
Rp2067
(dp2068
g100
(dp2069
(iconstruction
TP_NODE
p2070
(dp2071
g1747
I00
sg84
g584
sg65
g2058
sg1748
I01
sg1749
I00
sg582
I58
sb(dp2072
g1748
I01
sg84
g584
ss(iconstruction
TP_NODE
p2073
(dp2074
g1747
I00
sg84
g740
sg65
g2060
sg1748
I01
sg1749
I00
sg582
I59
sb(dp2075
g1748
I01
sg84
g740
ss(iconstruction
TP_NODE
p2076
(dp2077
g1747
I01
sg84
g737
sg65
VEVT_57
p2078
sg1748
I01
sg1749
I00
sg582
I57
sb(dp2079
g1748
I01
sg84
g737
ss(iconstruction
TP_NODE
p2080
(dp2081
g1747
I00
sg84
g740
sg65
g2056
sg1748
I01
sg1749
I01
sg582
I60
sb(dp2082
g1748
I01
sg84
g740
sssg283
g284
sg285
g284
sg286
(dp2083
g2070
(dp2084
g2080
(dp2085
g84
g704
ssg2073
(dp2086
g84
g710
sssg2073
(dp2087
sg2076
(dp2088
g2070
(dp2089
g84
g731
sssg2080
(dp2090
ssg480
g2083
sg95
(dp2091
sg482
g284
sg483
g2083
sg484
(dp2092
g2070
(dp2093
g2076
g2089
ssg2073
(dp2094
g2070
g2086
ssg2076
(dp2095
sg2080
(dp2096
g2070
g2085
sssbsg577
(lp2097
g2076
ag2070
ag2073
ag2080
asg850
(lp2098
(iconstruction
TP_REL
p2099
(dp2100
g856
g2070
sg84
g731
sg582
I61
sg857
g2076
sg65
VIS_61
p2101
sba(iconstruction
TP_REL
p2102
(dp2103
g856
g2073
sg84
g710
sg582
I62
sg857
g2070
sg65
VACT_AGT_62
p2104
sba(iconstruction
TP_REL
p2105
(dp2106
g856
g2080
sg84
g704
sg582
I63
sg857
g2070
sg65
VACT_PT_63
p2107
sbasg582
I54
sg65
g1668
sbsg1763
(iconstruction
TP_SYNFORM
p2108
(dp2109
g582
I55
sg1766
(lp2110
(iconstruction
TP_SLOT
p2111
(dp2112
g1770
(lp2113
VNP
p2114
aVN
p2115
asg1773
I0
sg582
I64
sg65
g2057
sba(iconstruction
TP_PHON
p2116
(dp2117
g1776
I2
sg1773
I1
sg582
I65
sg1777
Vis
p2118
sg65
VS2_65
p2119
sba(iconstruction
TP_SLOT
p2120
(dp2121
g1770
(lp2122
VVP
p2123
aVV
p2124
asg1773
I2
sg582
I66
sg65
g2059
sba(iconstruction
TP_PHON
p2125
(dp2126
g1776
I2
sg1773
I3
sg582
I67
sg1777
V-ed
p2127
sg65
VS4_67
p2128
sba(iconstruction
TP_PHON
p2129
(dp2130
g1776
I2
sg1773
I4
sg582
I68
sg1777
Vby
p2131
sg65
VS5_68
p2132
sba(iconstruction
TP_SLOT
p2133
(dp2134
g1770
(lp2135
VNP
p2136
aVN
p2137
asg1773
I5
sg582
I69
sg65
g2061
sbasg65
g1668
sbsg1784
I1
sba(iconstruction
CXN
p2138
(dp2139
g1726
(iconstruction
TP_SYMLINKS
p2140
(dp2141
g1729
(dp2142
VACT_74
p2143
VS2_83
p2144
sVRCPT_77
p2145
VS3_84
p2146
sVTHEME_76
p2147
VS4_85
p2148
sVAGT_75
p2149
VS1_82
p2150
ssg582
I72
sg65
g1668
sbsg1735
VS
p2151
sg1737
I2
sg65
VDOUBLE_OBJ
p2152
sg1738
(iconstruction
TP_SEMFRAME
p2153
(dp2154
g95
g0
(g96
g2
Ntp2155
Rp2156
(dp2157
g100
(dp2158
(iconstruction
TP_NODE
p2159
(dp2160
g1747
I01
sg84
g737
sg65
VEVT_73
p2161
sg1748
I01
sg1749
I00
sg582
I73
sb(dp2162
g1748
I01
sg84
g737
ss(iconstruction
TP_NODE
p2163
(dp2164
g1747
I00
sg84
g740
sg65
g2149
sg1748
I01
sg1749
I01
sg582
I75
sb(dp2165
g1748
I01
sg84
g740
ss(iconstruction
TP_NODE
p2166
(dp2167
g1747
I00
sg84
g584
sg65
g2143
sg1748
I01
sg1749
I00
sg582
I74
sb(dp2168
g1748
I01
sg84
g584
ss(iconstruction
TP_NODE
p2169
(dp2170
g1747
I00
sg84
g740
sg65
g2145
sg1748
I01
sg1749
I00
sg582
I77
sb(dp2171
g1748
I01
sg84
g740
ss(iconstruction
TP_NODE
p2172
(dp2173
g1747
I00
sg84
g740
sg65
g2147
sg1748
I01
sg1749
I00
sg582
I76
sb(dp2174
g1748
I01
sg84
g740
sssg283
g284
sg285
g284
sg286
(dp2175
g2159
(dp2176
g2166
(dp2177
g84
g731
sssg2163
(dp2178
sg2166
(dp2179
g2163
(dp2180
g84
g710
ssg2169
(dp2181
g84
g695
ssg2172
(dp2182
g84
g692
sssg2169
(dp2183
sg2172
(dp2184
ssg480
g2175
sg95
(dp2185
sg482
g284
sg483
g2175
sg484
(dp2186
g2159
(dp2187
sg2163
(dp2188
g2166
g2180
ssg2166
(dp2189
g2159
g2177
ssg2169
(dp2190
g2166
g2181
ssg2172
(dp2191
g2166
g2182
sssbsg577
(lp2192
g2159
ag2166
ag2163
ag2172
ag2169
asg850
(lp2193
(iconstruction
TP_REL
p2194
(dp2195
g856
g2166
sg84
g731
sg582
I78
sg857
g2159
sg65
VIS_78
p2196
sba(iconstruction
TP_REL
p2197
(dp2198
g856
g2163
sg84
g710
sg582
I79
sg857
g2166
sg65
VACT_AGT_79
p2199
sba(iconstruction
TP_REL
p2200
(dp2201
g856
g2172
sg84
g692
sg582
I80
sg857
g2166
sg65
VACT_THEME_80
p2202
sba(iconstruction
TP_REL
p2203
(dp2204
g856
g2169
sg84
g695
sg582
I81
sg857
g2166
sg65
VACT_RCPT_81
p2205
sbasg582
I70
sg65
g1668
sbsg1763
(iconstruction
TP_SYNFORM
p2206
(dp2207
g582
I71
sg1766
(lp2208
(iconstruction
TP_SLOT
p2209
(dp2210
g1770
(lp2211
VNP
p2212
aVN
p2213
asg1773
I0
sg582
I82
sg65
g2150
sba(iconstruction
TP_SLOT
p2214
(dp2215
g1770
(lp2216
VVP
p2217
aVV
p2218
asg1773
I1
sg582
I83
sg65
g2144
sba(iconstruction
TP_SLOT
p2219
(dp2220
g1770
(lp2221
VNP
p2222
aVN
p2223
asg1773
I2
sg582
I84
sg65
g2146
sba(iconstruction
TP_SLOT
p2224
(dp2225
g1770
(lp2226
VNP
p2227
aVN
p2228
asg1773
I3
sg582
I85
sg65
g2148
sbasg65
g1668
sbsg1784
I1
sba(iconstruction
CXN
p2229
(dp2230
g1726
(iconstruction
TP_SYMLINKS
p2231
(dp2232
g1729
(dp2233
VAGT_91
p2234
VS1_98
p2235
sVRCPT_93
p2236
VS5_102
p2237
sVACT_90
p2238
VS2_99
p2239
sVTHEME_92
p2240
VS3_100
p2241
ssg582
I88
sg65
g1668
sbsg1735
VS
p2242
sg1737
I2
sg65
VOBLIQUE_DATIVE
p2243
sg1738
(iconstruction
TP_SEMFRAME
p2244
(dp2245
g95
g0
(g96
g2
Ntp2246
Rp2247
(dp2248
g100
(dp2249
(iconstruction
TP_NODE
p2250
(dp2251
g1747
I01
sg84
g737
sg65
VEVT_89
p2252
sg1748
I01
sg1749
I00
sg582
I89
sb(dp2253
g1748
I01
sg84
g737
ss(iconstruction
TP_NODE
p2254
(dp2255
g1747
I00
sg84
g740
sg65
g2234
sg1748
I01
sg1749
I01
sg582
I91
sb(dp2256
g1748
I01
sg84
g740
ss(iconstruction
TP_NODE
p2257
(dp2258
g1747
I00
sg84
g740
sg65
g2240
sg1748
I01
sg1749
I00
sg582
I92
sb(dp2259
g1748
I01
sg84
g740
ss(iconstruction
TP_NODE
p2260
(dp2261
g1747
I00
sg84
g632
sg65
g2238
sg1748
I01
sg1749
I00
sg582
I90
sb(dp2262
g1748
I01
sg84
g632
ss(iconstruction
TP_NODE
p2263
(dp2264
g1747
I00
sg84
g740
sg65
g2236
sg1748
I01
sg1749
I00
sg582
I93
sb(dp2265
g1748
I01
sg84
g740
sssg283
g284
sg285
g284
sg286
(dp2266
g2250
(dp2267
g2260
(dp2268
g84
g731
sssg2254
(dp2269
sg2257
(dp2270
sg2260
(dp2271
g2254
(dp2272
g84
g710
ssg2263
(dp2273
g84
g695
ssg2257
(dp2274
g84
g692
sssg2263
(dp2275
ssg480
g2266
sg95
(dp2276
sg482
g284
sg483
g2266
sg484
(dp2277
g2250
(dp2278
sg2254
(dp2279
g2260
g2272
ssg2257
(dp2280
g2260
g2274
ssg2260
(dp2281
g2250
g2268
ssg2263
(dp2282
g2260
g2273
sssbsg577
(lp2283
g2250
ag2260
ag2254
ag2257
ag2263
asg850
(lp2284
(iconstruction
TP_REL
p2285
(dp2286
g856
g2260
sg84
g731
sg582
I94
sg857
g2250
sg65
VIS_94
p2287
sba(iconstruction
TP_REL
p2288
(dp2289
g856
g2254
sg84
g710
sg582
I95
sg857
g2260
sg65
VACT_AGT_95
p2290
sba(iconstruction
TP_REL
p2291
(dp2292
g856
g2257
sg84
g692
sg582
I96
sg857
g2260
sg65
VACT_THEME_96
p2293
sba(iconstruction
TP_REL
p2294
(dp2295
g856
g2263
sg84
g695
sg582
I97
sg857
g2260
sg65
VACT_RCPT_97
p2296
sbasg582
I86
sg65
g1668
sbsg1763
(iconstruction
TP_SYNFORM
p2297
(dp2298
g582
I87
sg1766
(lp2299
(iconstruction
TP_SLOT
p2300
(dp2301
g1770
(lp2302
VNP
p2303
aVN
p2304
asg1773
I0
sg582
I98
sg65
g2235
sba(iconstruction
TP_SLOT
p2305
(dp2306
g1770
(lp2307
VVP
p2308
aVV
p2309
asg1773
I1
sg582
I99
sg65
g2239
sba(iconstruction
TP_SLOT
p2310
(dp2311
g1770
(lp2312
VNP
p2313
aVN
p2314
asg1773
I2
sg582
I100
sg65
g2241
sba(iconstruction
TP_PHON
p2315
(dp2316
g1776
I2
sg1773
I3
sg582
I101
sg1777
Vto
p2317
sg65
VS4_101
p2318
sba(iconstruction
TP_SLOT
p2319
(dp2320
g1770
(lp2321
VNP
p2322
aVN
p2323
asg1773
I4
sg582
I102
sg65
g2237
sbasg65
g1668
sbsg1784
I1
sba(iconstruction
CXN
p2324
(dp2325
g1726
(iconstruction
TP_SYMLINKS
p2326
(dp2327
g1729
(dp2328
VATTR_108
p2329
VS3_113
p2330
sVENT_107
p2331
VS1_111
p2332
ssg582
I105
sg65
g1668
sbsg1735
VS
p2333
sg1737
I2
sg65
VSPA
p2334
sg1738
(iconstruction
TP_SEMFRAME
p2335
(dp2336
g95
g0
(g96
g2
Ntp2337
Rp2338
(dp2339
g100
(dp2340
(iconstruction
TP_NODE
p2341
(dp2342
g1747
I00
sg84
g740
sg65
g2331
sg1748
I01
sg1749
I01
sg582
I107
sb(dp2343
g1748
I01
sg84
g740
ss(iconstruction
TP_NODE
p2344
(dp2345
g1747
I00
sg84
g641
sg65
g2329
sg1748
I00
sg1749
I00
sg582
I108
sb(dp2346
g1748
I00
sg84
g641
ss(iconstruction
TP_NODE
p2347
(dp2348
g1747
I01
sg84
g737
sg65
VEVT_106
p2349
sg1748
I01
sg1749
I00
sg582
I106
sb(dp2350
g1748
I01
sg84
g737
sssg283
g284
sg285
g284
sg286
(dp2351
g2341
(dp2352
sg2344
(dp2353
sg2347
(dp2354
g2341
(dp2355
g84
g731
ssg2344
(dp2356
g84
g689
ssssg480
g2351
sg95
(dp2357
sg482
g284
sg483
g2351
sg484
(dp2358
g2341
(dp2359
g2347
g2355
ssg2344
(dp2360
g2347
g2356
ssg2347
(dp2361
ssbsg577
(lp2362
g2347
ag2341
ag2344
asg850
(lp2363
(iconstruction
TP_REL
p2364
(dp2365
g856
g2341
sg84
g731
sg582
I109
sg857
g2347
sg65
VIS_109
p2366
sba(iconstruction
TP_REL
p2367
(dp2368
g856
g2344
sg84
g689
sg582
I110
sg857
g2347
sg65
VEVT_ATTR_110
p2369
sbasg582
I103
sg65
g1668
sbsg1763
(iconstruction
TP_SYNFORM
p2370
(dp2371
g582
I104
sg1766
(lp2372
(iconstruction
TP_SLOT
p2373
(dp2374
g1770
(lp2375
VNP
p2376
aVN
p2377
asg1773
I0
sg582
I111
sg65
g2332
sba(iconstruction
TP_PHON
p2378
(dp2379
g1776
I2
sg1773
I1
sg582
I112
sg1777
Vis
p2380
sg65
VS2_112
p2381
sba(iconstruction
TP_SLOT
p2382
(dp2383
g1770
(lp2384
VA
p2385
asg1773
I2
sg582
I113
sg65
g2330
sbasg65
g1668
sbsg1784
I1
sba(iconstruction
CXN
p2386
(dp2387
g1726
(iconstruction
TP_SYMLINKS
p2388
(dp2389
g1729
(dp2390
VAGT_119
p2391
VS1_122
p2392
sVACT_118
p2393
VS2_123
p2394
ssg582
I116
sg65
g1668
sbsg1735
VS
p2395
sg1737
I2
sg65
VSV
p2396
sg1738
(iconstruction
TP_SEMFRAME
p2397
(dp2398
g95
g0
(g96
g2
Ntp2399
Rp2400
(dp2401
g100
(dp2402
(iconstruction
TP_NODE
p2403
(dp2404
g1747
I00
sg84
g596
sg65
g2393
sg1748
I01
sg1749
I00
sg582
I118
sb(dp2405
g1748
I01
sg84
g596
ss(iconstruction
TP_NODE
p2406
(dp2407
g1747
I00
sg84
g740
sg65
g2391
sg1748
I01
sg1749
I01
sg582
I119
sb(dp2408
g1748
I01
sg84
g740
ss(iconstruction
TP_NODE
p2409
(dp2410
g1747
I01
sg84
g737
sg65
VEVT_117
p2411
sg1748
I01
sg1749
I00
sg582
I117
sb(dp2412
g1748
I01
sg84
g737
sssg283
g284
sg285
g284
sg286
(dp2413
g2403
(dp2414
g2406
(dp2415
g84
g710
sssg2406
(dp2416
sg2409
(dp2417
g2403
(dp2418
g84
g731
ssssg480
g2413
sg95
(dp2419
sg482
g284
sg483
g2413
sg484
(dp2420
g2403
(dp2421
g2409
g2418
ssg2406
(dp2422
g2403
g2415
ssg2409
(dp2423
ssbsg577
(lp2424
g2409
ag2403
ag2406
asg850
(lp2425
(iconstruction
TP_REL
p2426
(dp2427
g856
g2403
sg84
g731
sg582
I120
sg857
g2409
sg65
VIS_120
p2428
sba(iconstruction
TP_REL
p2429
(dp2430
g856
g2406
sg84
g710
sg582
I121
sg857
g2403
sg65
VACT_AGT_121
p2431
sbasg582
I114
sg65
g1668
sbsg1763
(iconstruction
TP_SYNFORM
p2432
(dp2433
g582
I115
sg1766
(lp2434
(iconstruction
TP_SLOT
p2435
(dp2436
g1770
(lp2437
VNP
p2438
aVN
p2439
asg1773
I0
sg582
I122
sg65
g2392
sba(iconstruction
TP_SLOT
p2440
(dp2441
g1770
(lp2442
VVP
p2443
aVV
p2444
asg1773
I1
sg582
I123
sg65
g2394
sbasg65
g1668
sbsg1784
I1
sba(iconstruction
CXN
p2445
(dp2446
g1726
(iconstruction
TP_SYMLINKS
p2447
(dp2448
g1729
(dp2449
VEVT_127
p2450
VS1_130
p2451
sVPLACE_128
p2452
VS3_132
p2453
ssg582
I126
sg65
g1668
sbsg1735
VS
p2454
sg1737
I2
sg65
VPP_IN
p2455
sg1738
(iconstruction
TP_SEMFRAME
p2456
(dp2457
g95
g0
(g96
g2
Ntp2458
Rp2459
(dp2460
g100
(dp2461
(iconstruction
TP_NODE
p2462
(dp2463
g1747
I00
sg84
g740
sg65
g2452
sg1748
I01
sg1749
I00
sg582
I128
sb(dp2464
g1748
I01
sg84
g740
ss(iconstruction
TP_NODE
p2465
(dp2466
g1747
I01
sg84
g737
sg65
g2450
sg1748
I01
sg1749
I00
sg582
I127
sb(dp2467
g1748
I01
sg84
g737
sssg283
g284
sg285
g284
sg286
(dp2468
g2462
(dp2469
sg2465
(dp2470
g2462
(dp2471
g84
g728
ssssg480
g2468
sg95
(dp2472
sg482
g284
sg483
g2468
sg484
(dp2473
g2462
(dp2474
g2465
g2471
ssg2465
(dp2475
ssbsg577
(lp2476
g2465
ag2462
asg850
(lp2477
(iconstruction
TP_REL
p2478
(dp2479
g856
g2462
sg84
g728
sg582
I129
sg857
g2465
sg65
VEVT_PP_129
p2480
sbasg582
I124
sg65
g1668
sbsg1763
(iconstruction
TP_SYNFORM
p2481
(dp2482
g582
I125
sg1766
(lp2483
(iconstruction
TP_SLOT
p2484
(dp2485
g1770
(lp2486
VS
p2487
asg1773
I0
sg582
I130
sg65
g2451
sba(iconstruction
TP_PHON
p2488
(dp2489
g1776
I2
sg1773
I1
sg582
I131
sg1777
Vin
p2490
sg65
VS2_131
p2491
sba(iconstruction
TP_SLOT
p2492
(dp2493
g1770
(lp2494
VNP
p2495
aVN
p2496
asg1773
I2
sg582
I132
sg65
g2453
sbasg65
g1668
sbsg1784
I1
sba(iconstruction
CXN
p2497
(dp2498
g1726
(iconstruction
TP_SYMLINKS
p2499
(dp2500
g1729
(dp2501
VEVT2_137
p2502
VS2_140
p2503
sVEVT1_136
p2504
VS1_139
p2505
ssg582
I135
sg65
g1668
sbsg1735
VS
p2506
sg1737
I2
sg65
VS_PP
p2507
sg1738
(iconstruction
TP_SEMFRAME
p2508
(dp2509
g95
g0
(g96
g2
Ntp2510
Rp2511
(dp2512
g100
(dp2513
(iconstruction
TP_NODE
p2514
(dp2515
g1747
I01
sg84
g737
sg65
g2504
sg1748
I01
sg1749
I01
sg582
I136
sb(dp2516
g1748
I01
sg84
g737
ss(iconstruction
TP_NODE
p2517
(dp2518
g1747
I00
sg84
g737
sg65
g2502
sg1748
I01
sg1749
I00
sg582
I137
sb(dp2519
g1748
I01
sg84
g737
sssg283
g284
sg285
g284
sg286
(dp2520
g2514
(dp2521
g2517
(dp2522
g84
g689
sssg2517
(dp2523
ssg480
g2520
sg95
(dp2524
sg482
g284
sg483
g2520
sg484
(dp2525
g2514
(dp2526
sg2517
(dp2527
g2514
g2522
sssbsg577
(lp2528
g2514
ag2517
asg850
(lp2529
(iconstruction
TP_REL
p2530
(dp2531
g856
g2517
sg84
g689
sg582
I138
sg857
g2514
sg65
VMOD_138
p2532
sbasg582
I133
sg65
g1668
sbsg1763
(iconstruction
TP_SYNFORM
p2533
(dp2534
g582
I134
sg1766
(lp2535
(iconstruction
TP_SLOT
p2536
(dp2537
g1770
(lp2538
VS
p2539
asg1773
I0
sg582
I139
sg65
g2505
sba(iconstruction
TP_SLOT
p2540
(dp2541
g1770
(lp2542
VPP
p2543
asg1773
I1
sg582
I140
sg65
g2503
sbasg65
g1668
sbsg1784
I1
sba(iconstruction
CXN
p2544
(dp2545
g1726
(iconstruction
TP_SYMLINKS
p2546
(dp2547
g1729
(dp2548
VENT_144
p2549
VS2_148
p2550
sVATTR_145
p2551
VS1_147
p2552
ssg582
I143
sg65
g1668
sbsg1735
VN
p2553
sg1737
I2
sg65
VADJUNCT_N
p2554
sg1738
(iconstruction
TP_SEMFRAME
p2555
(dp2556
g95
g0
(g96
g2
Ntp2557
Rp2558
(dp2559
g100
(dp2560
(iconstruction
TP_NODE
p2561
(dp2562
g1747
I01
sg84
g740
sg65
g2549
sg1748
I01
sg1749
I00
sg582
I144
sb(dp2563
g1748
I01
sg84
g740
ss(iconstruction
TP_NODE
p2564
(dp2565
g1747
I00
sg84
g641
sg65
g2551
sg1748
I00
sg1749
I00
sg582
I145
sb(dp2566
g1748
I00
sg84
g641
sssg283
g284
sg285
g284
sg286
(dp2567
g2561
(dp2568
g2564
(dp2569
g84
g689
sssg2564
(dp2570
ssg480
g2567
sg95
(dp2571
sg482
g284
sg483
g2567
sg484
(dp2572
g2561
(dp2573
sg2564
(dp2574
g2561
g2569
sssbsg577
(lp2575
g2561
ag2564
asg850
(lp2576
(iconstruction
TP_REL
p2577
(dp2578
g856
g2564
sg84
g689
sg582
I146
sg857
g2561
sg65
VENT_ATTR_146
p2579
sbasg582
I141
sg65
g1668
sbsg1763
(iconstruction
TP_SYNFORM
p2580
(dp2581
g582
I142
sg1766
(lp2582
(iconstruction
TP_SLOT
p2583
(dp2584
g1770
(lp2585
VA
p2586
asg1773
I0
sg582
I147
sg65
g2552
sba(iconstruction
TP_SLOT
p2587
(dp2588
g1770
(lp2589
VN
p2590
asg1773
I1
sg582
I148
sg65
g2550
sbasg65
g1668
sbsg1784
I1
sba(iconstruction
CXN
p2591
(dp2592
g1726
(iconstruction
TP_SYMLINKS
p2593
(dp2594
g1729
(dp2595
VAGT_154
p2596
VS1_160
p2597
sVACT_153
p2598
VS3_162
p2599
sVPT_155
p2600
VS4_163
p2601
ssg582
I151
sg65
g1668
sbsg1735
VN
p2602
sg1737
I2
sg65
VSUBJ_REL_SVO
p2603
sg1738
(iconstruction
TP_SEMFRAME
p2604
(dp2605
g95
g0
(g96
g2
Ntp2606
Rp2607
(dp2608
g100
(dp2609
(iconstruction
TP_NODE
p2610
(dp2611
g1747
I00
sg84
g737
sg65
VEVT_152
p2612
sg1748
I01
sg1749
I00
sg582
I152
sb(dp2613
g1748
I01
sg84
g737
ss(iconstruction
TP_NODE
p2614
(dp2615
g1747
I01
sg84
g740
sg65
g2596
sg1748
I01
sg1749
I00
sg582
I154
sb(dp2616
g1748
I01
sg84
g740
ss(iconstruction
TP_NODE
p2617
(dp2618
g1747
I00
sg84
g602
sg65
g2598
sg1748
I01
sg1749
I01
sg582
I153
sb(dp2619
g1748
I01
sg84
g602
ss(iconstruction
TP_NODE
p2620
(dp2621
g1747
I00
sg84
g740
sg65
g2600
sg1748
I01
sg1749
I00
sg582
I155
sb(dp2622
g1748
I01
sg84
g740
sssg283
g284
sg285
g284
sg286
(dp2623
g2610
(dp2624
g2617
(dp2625
g84
g731
sssg2614
(dp2626
g2610
(dp2627
g84
g689
sssg2617
(dp2628
g2614
(dp2629
g84
g710
ssg2620
(dp2630
g84
g704
sssg2620
(dp2631
ssg480
g2623
sg95
(dp2632
sg482
g284
sg483
g2623
sg484
(dp2633
g2610
(dp2634
g2614
g2627
ssg2614
(dp2635
g2617
g2629
ssg2617
(dp2636
g2610
g2625
ssg2620
(dp2637
g2617
g2630
sssbsg577
(lp2638
g2610
ag2617
ag2614
ag2620
asg850
(lp2639
(iconstruction
TP_REL
p2640
(dp2641
g856
g2617
sg84
g731
sg582
I156
sg857
g2610
sg65
VIS_156
p2642
sba(iconstruction
TP_REL
p2643
(dp2644
g856
g2614
sg84
g710
sg582
I157
sg857
g2617
sg65
VACT_AGT_157
p2645
sba(iconstruction
TP_REL
p2646
(dp2647
g856
g2620
sg84
g704
sg582
I158
sg857
g2617
sg65
VACT_PT_158
p2648
sba(iconstruction
TP_REL
p2649
(dp2650
g856
g2610
sg84
g689
sg582
I159
sg857
g2614
sg65
VAGT_EVT_159
p2651
sbasg582
I149
sg65
g1668
sbsg1763
(iconstruction
TP_SYNFORM
p2652
(dp2653
g582
I150
sg1766
(lp2654
(iconstruction
TP_SLOT
p2655
(dp2656
g1770
(lp2657
VN
p2658
asg1773
I0
sg582
I160
sg65
g2597
sba(iconstruction
TP_PHON
p2659
(dp2660
g1776
I4
sg1773
I1
sg582
I161
sg1777
Vthat
p2661
sg65
VS2_161
p2662
sba(iconstruction
TP_SLOT
p2663
(dp2664
g1770
(lp2665
VVP
p2666
aVV
p2667
asg1773
I2
sg582
I162
sg65
g2599
sba(iconstruction
TP_SLOT
p2668
(dp2669
g1770
(lp2670
VNP
p2671
aVN
p2672
asg1773
I3
sg582
I163
sg65
g2601
sbasg65
g1668
sbsg1784
I1
sba(iconstruction
CXN
p2673
(dp2674
g1726
(iconstruction
TP_SYMLINKS
p2675
(dp2676
g1729
(dp2677
VAGT_169
p2678
VS1_173
p2679
sVACT_168
p2680
VS3_175
p2681
ssg582
I166
sg65
g1668
sbsg1735
VN
p2682
sg1737
I2
sg65
VSUBJ_REL_SV
p2683
sg1738
(iconstruction
TP_SEMFRAME
p2684
(dp2685
g95
g0
(g96
g2
Ntp2686
Rp2687
(dp2688
g100
(dp2689
(iconstruction
TP_NODE
p2690
(dp2691
g1747
I00
sg84
g737
sg65
VEVT_167
p2692
sg1748
I01
sg1749
I00
sg582
I167
sb(dp2693
g1748
I01
sg84
g737
ss(iconstruction
TP_NODE
p2694
(dp2695
g1747
I01
sg84
g740
sg65
g2678
sg1748
I01
sg1749
I00
sg582
I169
sb(dp2696
g1748
I01
sg84
g740
ss(iconstruction
TP_NODE
p2697
(dp2698
g1747
I00
sg84
g584
sg65
g2680
sg1748
I01
sg1749
I01
sg582
I168
sb(dp2699
g1748
I01
sg84
g584
sssg283
g284
sg285
g284
sg286
(dp2700
g2690
(dp2701
g2697
(dp2702
g84
g731
sssg2694
(dp2703
g2690
(dp2704
g84
g689
sssg2697
(dp2705
g2694
(dp2706
g84
g710
ssssg480
g2700
sg95
(dp2707
sg482
g284
sg483
g2700
sg484
(dp2708
g2690
(dp2709
g2694
g2704
ssg2694
(dp2710
g2697
g2706
ssg2697
(dp2711
g2690
g2702
sssbsg577
(lp2712
g2690
ag2697
ag2694
asg850
(lp2713
(iconstruction
TP_REL
p2714
(dp2715
g856
g2697
sg84
g731
sg582
I170
sg857
g2690
sg65
VIS_170
p2716
sba(iconstruction
TP_REL
p2717
(dp2718
g856
g2694
sg84
g710
sg582
I171
sg857
g2697
sg65
VACT_AGT_171
p2719
sba(iconstruction
TP_REL
p2720
(dp2721
g856
g2690
sg84
g689
sg582
I172
sg857
g2694
sg65
VAGT_EVT_172
p2722
sbasg582
I164
sg65
g1668
sbsg1763
(iconstruction
TP_SYNFORM
p2723
(dp2724
g582
I165
sg1766
(lp2725
(iconstruction
TP_SLOT
p2726
(dp2727
g1770
(lp2728
VN
p2729
asg1773
I0
sg582
I173
sg65
g2679
sba(iconstruction
TP_PHON
p2730
(dp2731
g1776
I4
sg1773
I1
sg582
I174
sg1777
Vthat
p2732
sg65
VS2_174
p2733
sba(iconstruction
TP_SLOT
p2734
(dp2735
g1770
(lp2736
VVP
p2737
aVV
p2738
asg1773
I2
sg582
I175
sg65
g2681
sbasg65
g1668
sbsg1784
I1
sba(iconstruction
CXN
p2739
(dp2740
g1726
(iconstruction
TP_SYMLINKS
p2741
(dp2742
g1729
(dp2743
VAGT_181
p2744
VS7_193
p2745
sVPT_182
p2746
VS1_187
p2747
sVACT_180
p2748
VS4_190
p2749
ssg582
I178
sg65
g1668
sbsg1735
VN
p2750
sg1737
I2
sg65
VSUBJ_REL_PAS_SVO
p2751
sg1738
(iconstruction
TP_SEMFRAME
p2752
(dp2753
g95
g0
(g96
g2
Ntp2754
Rp2755
(dp2756
g100
(dp2757
(iconstruction
TP_NODE
p2758
(dp2759
g1747
I00
sg84
g737
sg65
VEVT_179
p2760
sg1748
I01
sg1749
I00
sg582
I179
sb(dp2761
g1748
I01
sg84
g737
ss(iconstruction
TP_NODE
p2762
(dp2763
g1747
I00
sg84
g740
sg65
g2744
sg1748
I01
sg1749
I00
sg582
I181
sb(dp2764
g1748
I01
sg84
g740
ss(iconstruction
TP_NODE
p2765
(dp2766
g1747
I01
sg84
g740
sg65
g2746
sg1748
I01
sg1749
I00
sg582
I182
sb(dp2767
g1748
I01
sg84
g740
ss(iconstruction
TP_NODE
p2768
(dp2769
g1747
I00
sg84
g584
sg65
g2748
sg1748
I01
sg1749
I01
sg582
I180
sb(dp2770
g1748
I01
sg84
g584
sssg283
g284
sg285
g284
sg286
(dp2771
g2758
(dp2772
g2768
(dp2773
g84
g731
sssg2762
(dp2774
sg2765
(dp2775
g2758
(dp2776
g84
g689
sssg2768
(dp2777
g2762
(dp2778
g84
g710
ssg2765
(dp2779
g84
g704
ssssg480
g2771
sg95
(dp2780
sg482
g284
sg483
g2771
sg484
(dp2781
g2758
(dp2782
g2765
g2776
ssg2762
(dp2783
g2768
g2778
ssg2765
(dp2784
g2768
g2779
ssg2768
(dp2785
g2758
g2773
sssbsg577
(lp2786
g2758
ag2768
ag2762
ag2765
asg850
(lp2787
(iconstruction
TP_REL
p2788
(dp2789
g856
g2768
sg84
g731
sg582
I183
sg857
g2758
sg65
VIS_183
p2790
sba(iconstruction
TP_REL
p2791
(dp2792
g856
g2762
sg84
g710
sg582
I184
sg857
g2768
sg65
VACT_AGT_184
p2793
sba(iconstruction
TP_REL
p2794
(dp2795
g856
g2765
sg84
g704
sg582
I185
sg857
g2768
sg65
VACT_PT_185
p2796
sba(iconstruction
TP_REL
p2797
(dp2798
g856
g2758
sg84
g689
sg582
I186
sg857
g2765
sg65
VPT_EVT_186
p2799
sbasg582
I176
sg65
g1668
sbsg1763
(iconstruction
TP_SYNFORM
p2800
(dp2801
g582
I177
sg1766
(lp2802
(iconstruction
TP_SLOT
p2803
(dp2804
g1770
(lp2805
VN
p2806
asg1773
I0
sg582
I187
sg65
g2747
sba(iconstruction
TP_PHON
p2807
(dp2808
g1776
I4
sg1773
I1
sg582
I188
sg1777
Vthat
p2809
sg65
VS2_188
p2810
sba(iconstruction
TP_PHON
p2811
(dp2812
g1776
I2
sg1773
I2
sg582
I189
sg1777
Vis
p2813
sg65
VS3_189
p2814
sba(iconstruction
TP_SLOT
p2815
(dp2816
g1770
(lp2817
VVP
p2818
aVV
p2819
asg1773
I3
sg582
I190
sg65
g2749
sba(iconstruction
TP_PHON
p2820
(dp2821
g1776
I2
sg1773
I4
sg582
I191
sg1777
V-ed
p2822
sg65
VS5_191
p2823
sba(iconstruction
TP_PHON
p2824
(dp2825
g1776
I2
sg1773
I5
sg582
I192
sg1777
Vby
p2826
sg65
VS6_192
p2827
sba(iconstruction
TP_SLOT
p2828
(dp2829
g1770
(lp2830
VNP
p2831
aVN
p2832
asg1773
I6
sg582
I193
sg65
g2745
sbasg65
g1668
sbsg1784
I1
sba(iconstruction
CXN
p2833
(dp2834
g1726
(iconstruction
TP_SYMLINKS
p2835
(dp2836
g1729
(dp2837
VAGT_199
p2838
VS3_207
p2839
sVACT_198
p2840
VS4_208
p2841
sVPT_200
p2842
VS1_205
p2843
ssg582
I196
sg65
g1668
sbsg1735
VN
p2844
sg1737
I2
sg65
VOBJ_REL_SVO
p2845
sg1738
(iconstruction
TP_SEMFRAME
p2846
(dp2847
g95
g0
(g96
g2
Ntp2848
Rp2849
(dp2850
g100
(dp2851
(iconstruction
TP_NODE
p2852
(dp2853
g1747
I00
sg84
g737
sg65
VEVT_197
p2854
sg1748
I01
sg1749
I00
sg582
I197
sb(dp2855
g1748
I01
sg84
g737
ss(iconstruction
TP_NODE
p2856
(dp2857
g1747
I00
sg84
g740
sg65
g2838
sg1748
I01
sg1749
I00
sg582
I199
sb(dp2858
g1748
I01
sg84
g740
ss(iconstruction
TP_NODE
p2859
(dp2860
g1747
I01
sg84
g740
sg65
g2842
sg1748
I01
sg1749
I00
sg582
I200
sb(dp2861
g1748
I01
sg84
g740
ss(iconstruction
TP_NODE
p2862
(dp2863
g1747
I00
sg84
g584
sg65
g2840
sg1748
I01
sg1749
I01
sg582
I198
sb(dp2864
g1748
I01
sg84
g584
sssg283
g284
sg285
g284
sg286
(dp2865
g2852
(dp2866
g2862
(dp2867
g84
g731
sssg2856
(dp2868
sg2859
(dp2869
g2852
(dp2870
g84
g689
sssg2862
(dp2871
g2856
(dp2872
g84
g710
ssg2859
(dp2873
g84
g704
ssssg480
g2865
sg95
(dp2874
sg482
g284
sg483
g2865
sg484
(dp2875
g2852
(dp2876
g2859
g2870
ssg2856
(dp2877
g2862
g2872
ssg2859
(dp2878
g2862
g2873
ssg2862
(dp2879
g2852
g2867
sssbsg577
(lp2880
g2852
ag2862
ag2856
ag2859
asg850
(lp2881
(iconstruction
TP_REL
p2882
(dp2883
g856
g2862
sg84
g731
sg582
I201
sg857
g2852
sg65
VIS_201
p2884
sba(iconstruction
TP_REL
p2885
(dp2886
g856
g2856
sg84
g710
sg582
I202
sg857
g2862
sg65
VACT_AGT_202
p2887
sba(iconstruction
TP_REL
p2888
(dp2889
g856
g2859
sg84
g704
sg582
I203
sg857
g2862
sg65
VACT_PT_203
p2890
sba(iconstruction
TP_REL
p2891
(dp2892
g856
g2852
sg84
g689
sg582
I204
sg857
g2859
sg65
VPT_EVT_204
p2893
sbasg582
I194
sg65
g1668
sbsg1763
(iconstruction
TP_SYNFORM
p2894
(dp2895
g582
I195
sg1766
(lp2896
(iconstruction
TP_SLOT
p2897
(dp2898
g1770
(lp2899
VN
p2900
asg1773
I0
sg582
I205
sg65
g2843
sba(iconstruction
TP_PHON
p2901
(dp2902
g1776
I4
sg1773
I1
sg582
I206
sg1777
Vthat
p2903
sg65
VS2_206
p2904
sba(iconstruction
TP_SLOT
p2905
(dp2906
g1770
(lp2907
VNP
p2908
aVN
p2909
asg1773
I2
sg582
I207
sg65
g2839
sba(iconstruction
TP_SLOT
p2910
(dp2911
g1770
(lp2912
VVP
p2913
aVV
p2914
asg1773
I3
sg582
I208
sg65
g2841
sbasg65
g1668
sbsg1784
I1
sba(iconstruction
CXN
p2915
(dp2916
g1726
(iconstruction
TP_SYMLINKS
p2917
(dp2918
g1729
(dp2919
VPT_215
p2920
VS3_222
p2921
sVACT_213
p2922
VS5_224
p2923
sVAGT_214
p2924
VS1_220
p2925
ssg582
I211
sg65
g1668
sbsg1735
VN
p2926
sg1737
I2
sg65
VOBJ_REL_PAS_SVO
p2927
sg1738
(iconstruction
TP_SEMFRAME
p2928
(dp2929
g95
g0
(g96
g2
Ntp2930
Rp2931
(dp2932
g100
(dp2933
(iconstruction
TP_NODE
p2934
(dp2935
g1747
I00
sg84
g737
sg65
VEVT_212
p2936
sg1748
I01
sg1749
I00
sg582
I212
sb(dp2937
g1748
I01
sg84
g737
ss(iconstruction
TP_NODE
p2938
(dp2939
g1747
I01
sg84
g740
sg65
g2924
sg1748
I01
sg1749
I00
sg582
I214
sb(dp2940
g1748
I01
sg84
g740
ss(iconstruction
TP_NODE
p2941
(dp2942
g1747
I00
sg84
g584
sg65
g2922
sg1748
I01
sg1749
I01
sg582
I213
sb(dp2943
g1748
I01
sg84
g584
ss(iconstruction
TP_NODE
p2944
(dp2945
g1747
I00
sg84
g740
sg65
g2920
sg1748
I01
sg1749
I00
sg582
I215
sb(dp2946
g1748
I01
sg84
g740
sssg283
g284
sg285
g284
sg286
(dp2947
g2934
(dp2948
g2941
(dp2949
g84
g731
sssg2938
(dp2950
g2934
(dp2951
g84
g689
sssg2941
(dp2952
g2938
(dp2953
g84
g710
ssg2944
(dp2954
g84
g704
sssg2944
(dp2955
ssg480
g2947
sg95
(dp2956
sg482
g284
sg483
g2947
sg484
(dp2957
g2934
(dp2958
g2938
g2951
ssg2938
(dp2959
g2941
g2953
ssg2941
(dp2960
g2934
g2949
ssg2944
(dp2961
g2941
g2954
sssbsg577
(lp2962
g2934
ag2941
ag2938
ag2944
asg850
(lp2963
(iconstruction
TP_REL
p2964
(dp2965
g856
g2941
sg84
g731
sg582
I216
sg857
g2934
sg65
VIS_216
p2966
sba(iconstruction
TP_REL
p2967
(dp2968
g856
g2938
sg84
g710
sg582
I217
sg857
g2941
sg65
VACT_AGT_217
p2969
sba(iconstruction
TP_REL
p2970
(dp2971
g856
g2944
sg84
g704
sg582
I218
sg857
g2941
sg65
VACT_PT_218
p2972
sba(iconstruction
TP_REL
p2973
(dp2974
g856
g2934
sg84
g689
sg582
I219
sg857
g2938
sg65
VAGT_EVT_219
p2975
sbasg582
I209
sg65
g1668
sbsg1763
(iconstruction
TP_SYNFORM
p2976
(dp2977
g582
I210
sg1766
(lp2978
(iconstruction
TP_SLOT
p2979
(dp2980
g1770
(lp2981
VN
p2982
asg1773
I0
sg582
I220
sg65
g2925
sba(iconstruction
TP_PHON
p2983
(dp2984
g1776
I4
sg1773
I1
sg582
I221
sg1777
Vthat
p2985
sg65
VS2_221
p2986
sba(iconstruction
TP_SLOT
p2987
(dp2988
g1770
(lp2989
VNP
p2990
aVN
p2991
asg1773
I2
sg582
I222
sg65
g2921
sba(iconstruction
TP_PHON
p2992
(dp2993
g1776
I2
sg1773
I3
sg582
I223
sg1777
Vis
p2994
sg65
VS4_223
p2995
sba(iconstruction
TP_SLOT
p2996
(dp2997
g1770
(lp2998
VVP
p2999
aVV
p3000
asg1773
I4
sg582
I224
sg65
g2923
sba(iconstruction
TP_PHON
p3001
(dp3002
g1776
I2
sg1773
I5
sg582
I225
sg1777
V-ed
p3003
sg65
VS6_225
p3004
sba(iconstruction
TP_PHON
p3005
(dp3006
g1776
I2
sg1773
I6
sg582
I226
sg1777
Vby
p3007
sg65
VS7_226
p3008
sbasg65
g1668
sbsg1784
I1
sba(iconstruction
CXN
p3009
(dp3010
g1726
(iconstruction
TP_SYMLINKS
p3011
(dp3012
g1729
(dp3013
VATTR_232
p3014
VS4_238
p3015
sVENT_231
p3016
VS1_235
p3017
ssg582
I229
sg65
g1668
sbsg1735
VN
p3018
sg1737
I2
sg65
VREL_SPA
p3019
sg1738
(iconstruction
TP_SEMFRAME
p3020
(dp3021
g95
g0
(g96
g2
Ntp3022
Rp3023
(dp3024
g100
(dp3025
(iconstruction
TP_NODE
p3026
(dp3027
g1747
I00
sg84
g737
sg65
VEVT_230
p3028
sg1748
I01
sg1749
I00
sg582
I230
sb(dp3029
g1748
I01
sg84
g737
ss(iconstruction
TP_NODE
p3030
(dp3031
g1747
I00
sg84
g641
sg65
g3014
sg1748
I00
sg1749
I00
sg582
I232
sb(dp3032
g1748
I00
sg84
g641
ss(iconstruction
TP_NODE
p3033
(dp3034
g1747
I01
sg84
g740
sg65
g3016
sg1748
I01
sg1749
I01
sg582
I231
sb(dp3035
g1748
I01
sg84
g740
sssg283
g284
sg285
g284
sg286
(dp3036
g3026
(dp3037
g3030
(dp3038
g84
g689
ssg3033
(dp3039
g84
g731
sssg3030
(dp3040
sg3033
(dp3041
ssg480
g3036
sg95
(dp3042
sg482
g284
sg483
g3036
sg484
(dp3043
g3026
(dp3044
sg3030
(dp3045
g3026
g3038
ssg3033
(dp3046
g3026
g3039
sssbsg577
(lp3047
g3026
ag3033
ag3030
asg850
(lp3048
(iconstruction
TP_REL
p3049
(dp3050
g856
g3033
sg84
g731
sg582
I233
sg857
g3026
sg65
VIS_233
p3051
sba(iconstruction
TP_REL
p3052
(dp3053
g856
g3030
sg84
g689
sg582
I234
sg857
g3026
sg65
VEVT_ATTR_234
p3054
sbasg582
I227
sg65
g1668
sbsg1763
(iconstruction
TP_SYNFORM
p3055
(dp3056
g582
I228
sg1766
(lp3057
(iconstruction
TP_SLOT
p3058
(dp3059
g1770
(lp3060
VN
p3061
asg1773
I0
sg582
I235
sg65
g3017
sba(iconstruction
TP_PHON
p3062
(dp3063
g1776
I4
sg1773
I1
sg582
I236
sg1777
Vthat
p3064
sg65
VS2_236
p3065
sba(iconstruction
TP_PHON
p3066
(dp3067
g1776
I2
sg1773
I2
sg582
I237
sg1777
Vis
p3068
sg65
VS3_237
p3069
sba(iconstruction
TP_SLOT
p3070
(dp3071
g1770
(lp3072
VA
p3073
asg1773
I3
sg582
I238
sg65
g3015
sbasg65
g1668
sbsg1784
I1
sba(iconstruction
CXN
p3074
(dp3075
g1726
(iconstruction
TP_SYMLINKS
p3076
(dp3077
g1729
(dp3078
VAGT_244
p3079
VS1_251
p3080
sVCOLOR_246
p3081
VS3_253
p3082
ssg582
I241
sg65
g1668
sbsg1735
VN
p3083
sg1737
I2
sg65
VIN_COLOR
p3084
sg1738
(iconstruction
TP_SEMFRAME
p3085
(dp3086
g95
g0
(g96
g2
Ntp3087
Rp3088
(dp3089
g100
(dp3090
(iconstruction
TP_NODE
p3091
(dp3092
g1747
I00
sg84
g737
sg65
VEVT_242
p3093
sg1748
I01
sg1749
I00
sg582
I242
sb(dp3094
g1748
I01
sg84
g737
ss(iconstruction
TP_NODE
p3095
(dp3096
g1747
I01
sg84
g749
sg65
g3079
sg1748
I01
sg1749
I00
sg582
I244
sb(dp3097
g1748
I01
sg84
g749
ss(iconstruction
TP_NODE
p3098
(dp3099
g1747
I00
sg84
g629
sg65
VACT_243
p3100
sg1748
I01
sg1749
I00
sg582
I243
sb(dp3101
g1748
I01
sg84
g629
ss(iconstruction
TP_NODE
p3102
(dp3103
g1747
I00
sg84
g644
sg65
g3081
sg1748
I00
sg1749
I01
sg582
I246
sb(dp3104
g1748
I00
sg84
g644
ss(iconstruction
TP_NODE
p3105
(dp3106
g1747
I00
sg84
g779
sg65
VPT_245
p3107
sg1748
I01
sg1749
I00
sg582
I245
sb(dp3108
g1748
I01
sg84
g779
sssg283
g284
sg285
g284
sg286
(dp3109
g3091
(dp3110
g3098
(dp3111
g84
g731
sssg3095
(dp3112
sg3098
(dp3113
g3095
(dp3114
g84
g710
ssg3105
(dp3115
g84
g704
sssg3102
(dp3116
sg3105
(dp3117
g3102
(dp3118
g84
g689
ssssg480
g3109
sg95
(dp3119
sg482
g284
sg483
g3109
sg484
(dp3120
g3091
(dp3121
sg3095
(dp3122
g3098
g3114
ssg3098
(dp3123
g3091
g3111
ssg3102
(dp3124
g3105
g3118
ssg3105
(dp3125
g3098
g3115
sssbsg577
(lp3126
g3091
ag3098
ag3095
ag3105
ag3102
asg850
(lp3127
(iconstruction
TP_REL
p3128
(dp3129
g856
g3098
sg84
g731
sg582
I247
sg857
g3091
sg65
VIS_247
p3130
sba(iconstruction
TP_REL
p3131
(dp3132
g856
g3095
sg84
g710
sg582
I248
sg857
g3098
sg65
VACT_AGT_248
p3133
sba(iconstruction
TP_REL
p3134
(dp3135
g856
g3105
sg84
g704
sg582
I249
sg857
g3098
sg65
VACT_PT_249
p3136
sba(iconstruction
TP_REL
p3137
(dp3138
g856
g3102
sg84
g689
sg582
I250
sg857
g3105
sg65
VPT_COLOR_250
p3139
sbasg582
I239
sg65
g1668
sbsg1763
(iconstruction
TP_SYNFORM
p3140
(dp3141
g582
I240
sg1766
(lp3142
(iconstruction
TP_SLOT
p3143
(dp3144
g1770
(lp3145
VN
p3146
asg1773
I0
sg582
I251
sg65
g3080
sba(iconstruction
TP_PHON
p3147
(dp3148
g1776
I2
sg1773
I1
sg582
I252
sg1777
Vin
p3149
sg65
VS2_252
p3150
sba(iconstruction
TP_SLOT
p3151
(dp3152
g1770
(lp3153
VA
p3154
asg1773
I2
sg582
I253
sg65
g3082
sbasg65
g1668
sbsg1784
I1
sba(iconstruction
CXN
p3155
(dp3156
g1726
(iconstruction
TP_SYMLINKS
p3157
(dp3158
g1729
(dp3159
VN1_258
p3160
VS1_260
p3161
ssg582
I256
sg65
g1668
sbsg1735
VV
p3162
sg1737
I1
sg65
VHIT
p3163
sg1738
(iconstruction
TP_SEMFRAME
p3164
(dp3165
g95
g0
(g96
g2
Ntp3166
Rp3167
(dp3168
g100
(dp3169
(iconstruction
TP_NODE
p3170
(dp3171
g1747
I00
sg84
g605
sg65
g3160
sg1748
I00
sg1749
I00
sg582
I258
sb(dp3172
g1748
I00
sg84
g605
ss(iconstruction
TP_NODE
p3173
(dp3174
g1747
I01
sg84
g584
sg65
VACT_257
p3175
sg1748
I01
sg1749
I00
sg582
I257
sb(dp3176
g1748
I01
sg84
g584
sssg283
g284
sg285
g284
sg286
(dp3177
g3170
(dp3178
sg3173
(dp3179
g3170
(dp3180
g84
g731
ssssg480
g3177
sg95
(dp3181
sg482
g284
sg483
g3177
sg484
(dp3182
g3170
(dp3183
g3173
g3180
ssg3173
(dp3184
ssbsg577
(lp3185
g3173
ag3170
asg850
(lp3186
(iconstruction
TP_REL
p3187
(dp3188
g856
g3170
sg84
g731
sg582
I259
sg857
g3173
sg65
VIS_259
p3189
sbasg582
I254
sg65
g1668
sbsg1763
(iconstruction
TP_SYNFORM
p3190
(dp3191
g582
I255
sg1766
(lp3192
(iconstruction
TP_PHON
p3193
(dp3194
g1776
I3
sg1773
I0
sg582
I260
sg1777
Vhit
p3195
sg65
g3161
sbasg65
g1668
sbsg1784
I1
sba(iconstruction
CXN
p3196
(dp3197
g1726
(iconstruction
TP_SYMLINKS
p3198
(dp3199
g1729
(dp3200
VN1_265
p3201
VS1_267
p3202
ssg582
I263
sg65
g1668
sbsg1735
VV
p3203
sg1737
I1
sg65
VKICK
p3204
sg1738
(iconstruction
TP_SEMFRAME
p3205
(dp3206
g95
g0
(g96
g2
Ntp3207
Rp3208
(dp3209
g100
(dp3210
(iconstruction
TP_NODE
p3211
(dp3212
g1747
I00
sg84
g626
sg65
g3201
sg1748
I00
sg1749
I00
sg582
I265
sb(dp3213
g1748
I00
sg84
g626
ss(iconstruction
TP_NODE
p3214
(dp3215
g1747
I01
sg84
g584
sg65
VACT_264
p3216
sg1748
I01
sg1749
I00
sg582
I264
sb(dp3217
g1748
I01
sg84
g584
sssg283
g284
sg285
g284
sg286
(dp3218
g3211
(dp3219
sg3214
(dp3220
g3211
(dp3221
g84
g731
ssssg480
g3218
sg95
(dp3222
sg482
g284
sg483
g3218
sg484
(dp3223
g3211
(dp3224
g3214
g3221
ssg3214
(dp3225
ssbsg577
(lp3226
g3214
ag3211
asg850
(lp3227
(iconstruction
TP_REL
p3228
(dp3229
g856
g3211
sg84
g731
sg582
I266
sg857
g3214
sg65
VIS_266
p3230
sbasg582
I261
sg65
g1668
sbsg1763
(iconstruction
TP_SYNFORM
p3231
(dp3232
g582
I262
sg1766
(lp3233
(iconstruction
TP_PHON
p3234
(dp3235
g1776
I4
sg1773
I0
sg582
I267
sg1777
Vkick
p3236
sg65
g3202
sbasg65
g1668
sbsg1784
I1
sba(iconstruction
CXN
p3237
(dp3238
g1726
(iconstruction
TP_SYMLINKS
p3239
(dp3240
g1729
(dp3241
VN1_272
p3242
VS1_274
p3243
ssg582
I270
sg65
g1668
sbsg1735
VV
p3244
sg1737
I1
sg65
VPUNCH
p3245
sg1738
(iconstruction
TP_SEMFRAME
p3246
(dp3247
g95
g0
(g96
g2
Ntp3248
Rp3249
(dp3250
g100
(dp3251
(iconstruction
TP_NODE
p3252
(dp3253
g1747
I01
sg84
g584
sg65
VACT_271
p3254
sg1748
I01
sg1749
I00
sg582
I271
sb(dp3255
g1748
I01
sg84
g584
ss(iconstruction
TP_NODE
p3256
(dp3257
g1747
I00
sg84
g611
sg65
g3242
sg1748
I00
sg1749
I00
sg582
I272
sb(dp3258
g1748
I00
sg84
g611
sssg283
g284
sg285
g284
sg286
(dp3259
g3252
(dp3260
g3256
(dp3261
g84
g731
sssg3256
(dp3262
ssg480
g3259
sg95
(dp3263
sg482
g284
sg483
g3259
sg484
(dp3264
g3252
(dp3265
sg3256
(dp3266
g3252
g3261
sssbsg577
(lp3267
g3252
ag3256
asg850
(lp3268
(iconstruction
TP_REL
p3269
(dp3270
g856
g3256
sg84
g731
sg582
I273
sg857
g3252
sg65
VIS_273
p3271
sbasg582
I268
sg65
g1668
sbsg1763
(iconstruction
TP_SYNFORM
p3272
(dp3273
g582
I269
sg1766
(lp3274
(iconstruction
TP_PHON
p3275
(dp3276
g1776
I5
sg1773
I0
sg582
I274
sg1777
Vpunch
p3277
sg65
g3243
sbasg65
g1668
sbsg1784
I1
sba(iconstruction
CXN
p3278
(dp3279
g1726
(iconstruction
TP_SYMLINKS
p3280
(dp3281
g1729
(dp3282
VN1_279
p3283
VS1_281
p3284
ssg582
I277
sg65
g1668
sbsg1735
VV
p3285
sg1737
I1
sg65
VWEAR
p3286
sg1738
(iconstruction
TP_SEMFRAME
p3287
(dp3288
g95
g0
(g96
g2
Ntp3289
Rp3290
(dp3291
g100
(dp3292
(iconstruction
TP_NODE
p3293
(dp3294
g1747
I00
sg84
g629
sg65
g3283
sg1748
I00
sg1749
I00
sg582
I279
sb(dp3295
g1748
I00
sg84
g629
ss(iconstruction
TP_NODE
p3296
(dp3297
g1747
I01
sg84
g584
sg65
VACT_278
p3298
sg1748
I01
sg1749
I00
sg582
I278
sb(dp3299
g1748
I01
sg84
g584
sssg283
g284
sg285
g284
sg286
(dp3300
g3293
(dp3301
sg3296
(dp3302
g3293
(dp3303
g84
g731
ssssg480
g3300
sg95
(dp3304
sg482
g284
sg483
g3300
sg484
(dp3305
g3293
(dp3306
g3296
g3303
ssg3296
(dp3307
ssbsg577
(lp3308
g3296
ag3293
asg850
(lp3309
(iconstruction
TP_REL
p3310
(dp3311
g856
g3293
sg84
g731
sg582
I280
sg857
g3296
sg65
VIS_280
p3312
sbasg582
I275
sg65
g1668
sbsg1763
(iconstruction
TP_SYNFORM
p3313
(dp3314
g582
I276
sg1766
(lp3315
(iconstruction
TP_PHON
p3316
(dp3317
g1776
I4
sg1773
I0
sg582
I281
sg1777
Vwear
p3318
sg65
g3284
sbasg65
g1668
sbsg1784
I1
sba(iconstruction
CXN
p3319
(dp3320
g1726
(iconstruction
TP_SYMLINKS
p3321
(dp3322
g1729
(dp3323
VN1_286
p3324
VS1_288
p3325
ssg582
I284
sg65
g1668
sbsg1735
VV
p3326
sg1737
I1
sg65
VLAUGH
p3327
sg1738
(iconstruction
TP_SEMFRAME
p3328
(dp3329
g95
g0
(g96
g2
Ntp3330
Rp3331
(dp3332
g100
(dp3333
(iconstruction
TP_NODE
p3334
(dp3335
g1747
I01
sg84
g584
sg65
VACT_285
p3336
sg1748
I01
sg1749
I00
sg582
I285
sb(dp3337
g1748
I01
sg84
g584
ss(iconstruction
TP_NODE
p3338
(dp3339
g1747
I00
sg84
g599
sg65
g3324
sg1748
I00
sg1749
I00
sg582
I286
sb(dp3340
g1748
I00
sg84
g599
sssg283
g284
sg285
g284
sg286
(dp3341
g3334
(dp3342
g3338
(dp3343
g84
g731
sssg3338
(dp3344
ssg480
g3341
sg95
(dp3345
sg482
g284
sg483
g3341
sg484
(dp3346
g3334
(dp3347
sg3338
(dp3348
g3334
g3343
sssbsg577
(lp3349
g3334
ag3338
asg850
(lp3350
(iconstruction
TP_REL
p3351
(dp3352
g856
g3338
sg84
g731
sg582
I287
sg857
g3334
sg65
VIS_287
p3353
sbasg582
I282
sg65
g1668
sbsg1763
(iconstruction
TP_SYNFORM
p3354
(dp3355
g582
I283
sg1766
(lp3356
(iconstruction
TP_PHON
p3357
(dp3358
g1776
I5
sg1773
I0
sg582
I288
sg1777
Vlaugh
p3359
sg65
g3325
sbasg65
g1668
sbsg1784
I1
sba(iconstruction
CXN
p3360
(dp3361
g1726
(iconstruction
TP_SYMLINKS
p3362
(dp3363
g1729
(dp3364
VN1_293
p3365
VS1_295
p3366
ssg582
I291
sg65
g1668
sbsg1735
VV
p3367
sg1737
I1
sg65
VWATCH
p3368
sg1738
(iconstruction
TP_SEMFRAME
p3369
(dp3370
g95
g0
(g96
g2
Ntp3371
Rp3372
(dp3373
g100
(dp3374
(iconstruction
TP_NODE
p3375
(dp3376
g1747
I00
sg84
g608
sg65
g3365
sg1748
I00
sg1749
I00
sg582
I293
sb(dp3377
g1748
I00
sg84
g608
ss(iconstruction
TP_NODE
p3378
(dp3379
g1747
I01
sg84
g584
sg65
VACT_292
p3380
sg1748
I01
sg1749
I00
sg582
I292
sb(dp3381
g1748
I01
sg84
g584
sssg283
g284
sg285
g284
sg286
(dp3382
g3375
(dp3383
sg3378
(dp3384
g3375
(dp3385
g84
g731
ssssg480
g3382
sg95
(dp3386
sg482
g284
sg483
g3382
sg484
(dp3387
g3375
(dp3388
g3378
g3385
ssg3378
(dp3389
ssbsg577
(lp3390
g3378
ag3375
asg850
(lp3391
(iconstruction
TP_REL
p3392
(dp3393
g856
g3375
sg84
g731
sg582
I294
sg857
g3378
sg65
VIS_294
p3394
sbasg582
I289
sg65
g1668
sbsg1763
(iconstruction
TP_SYNFORM
p3395
(dp3396
g582
I290
sg1766
(lp3397
(iconstruction
TP_PHON
p3398
(dp3399
g1776
I5
sg1773
I0
sg582
I295
sg1777
Vwatch
p3400
sg65
g3366
sbasg65
g1668
sbsg1784
I1
sba(iconstruction
CXN
p3401
(dp3402
g1726
(iconstruction
TP_SYMLINKS
p3403
(dp3404
g1729
(dp3405
VN1_300
p3406
VS1_302
p3407
ssg582
I298
sg65
g1668
sbsg1735
VV
p3408
sg1737
I1
sg65
VTALK
p3409
sg1738
(iconstruction
TP_SEMFRAME
p3410
(dp3411
g95
g0
(g96
g2
Ntp3412
Rp3413
(dp3414
g100
(dp3415
(iconstruction
TP_NODE
p3416
(dp3417
g1747
I00
sg84
g617
sg65
g3406
sg1748
I00
sg1749
I00
sg582
I300
sb(dp3418
g1748
I00
sg84
g617
ss(iconstruction
TP_NODE
p3419
(dp3420
g1747
I01
sg84
g584
sg65
VACT_299
p3421
sg1748
I01
sg1749
I00
sg582
I299
sb(dp3422
g1748
I01
sg84
g584
sssg283
g284
sg285
g284
sg286
(dp3423
g3416
(dp3424
sg3419
(dp3425
g3416
(dp3426
g84
g731
ssssg480
g3423
sg95
(dp3427
sg482
g284
sg483
g3423
sg484
(dp3428
g3416
(dp3429
g3419
g3426
ssg3419
(dp3430
ssbsg577
(lp3431
g3419
ag3416
asg850
(lp3432
(iconstruction
TP_REL
p3433
(dp3434
g856
g3416
sg84
g731
sg582
I301
sg857
g3419
sg65
VIS_301
p3435
sbasg582
I296
sg65
g1668
sbsg1763
(iconstruction
TP_SYNFORM
p3436
(dp3437
g582
I297
sg1766
(lp3438
(iconstruction
TP_PHON
p3439
(dp3440
g1776
I4
sg1773
I0
sg582
I302
sg1777
Vtalk
p3441
sg65
g3407
sba(iconstruction
TP_PHON
p3442
(dp3443
g1776
I2
sg1773
I1
sg582
I303
sg1777
Vto
p3444
sg65
VS2_303
p3445
sbasg65
g1668
sbsg1784
I1
sba(iconstruction
CXN
p3446
(dp3447
g1726
(iconstruction
TP_SYMLINKS
p3448
(dp3449
g1729
(dp3450
VN1_308
p3451
VS1_310
p3452
ssg582
I306
sg65
g1668
sbsg1735
VV
p3453
sg1737
I1
sg65
VSQUIRT
p3454
sg1738
(iconstruction
TP_SEMFRAME
p3455
(dp3456
g95
g0
(g96
g2
Ntp3457
Rp3458
(dp3459
g100
(dp3460
(iconstruction
TP_NODE
p3461
(dp3462
g1747
I00
sg84
g623
sg65
g3451
sg1748
I00
sg1749
I00
sg582
I308
sb(dp3463
g1748
I00
sg84
g623
ss(iconstruction
TP_NODE
p3464
(dp3465
g1747
I01
sg84
g584
sg65
VACT_307
p3466
sg1748
I01
sg1749
I00
sg582
I307
sb(dp3467
g1748
I01
sg84
g584
sssg283
g284
sg285
g284
sg286
(dp3468
g3461
(dp3469
sg3464
(dp3470
g3461
(dp3471
g84
g731
ssssg480
g3468
sg95
(dp3472
sg482
g284
sg483
g3468
sg484
(dp3473
g3461
(dp3474
g3464
g3471
ssg3464
(dp3475
ssbsg577
(lp3476
g3464
ag3461
asg850
(lp3477
(iconstruction
TP_REL
p3478
(dp3479
g856
g3461
sg84
g731
sg582
I309
sg857
g3464
sg65
VIS_309
p3480
sbasg582
I304
sg65
g1668
sbsg1763
(iconstruction
TP_SYNFORM
p3481
(dp3482
g582
I305
sg1766
(lp3483
(iconstruction
TP_PHON
p3484
(dp3485
g1776
I6
sg1773
I0
sg582
I310
sg1777
Vsquirt
p3486
sg65
g3452
sba(iconstruction
TP_PHON
p3487
(dp3488
g1776
I2
sg1773
I1
sg582
I311
sg1777
Vat
p3489
sg65
VS2_311
p3490
sbasg65
g1668
sbsg1784
I1
sba(iconstruction
CXN
p3491
(dp3492
g1726
(iconstruction
TP_SYMLINKS
p3493
(dp3494
g1729
(dp3495
VN1_316
p3496
VS1_318
p3497
ssg582
I314
sg65
g1668
sbsg1735
VV
p3498
sg1737
I1
sg65
VSPLASH
p3499
sg1738
(iconstruction
TP_SEMFRAME
p3500
(dp3501
g95
g0
(g96
g2
Ntp3502
Rp3503
(dp3504
g100
(dp3505
(iconstruction
TP_NODE
p3506
(dp3507
g1747
I00
sg84
g614
sg65
g3496
sg1748
I00
sg1749
I00
sg582
I316
sb(dp3508
g1748
I00
sg84
g614
ss(iconstruction
TP_NODE
p3509
(dp3510
g1747
I01
sg84
g584
sg65
VACT_315
p3511
sg1748
I01
sg1749
I00
sg582
I315
sb(dp3512
g1748
I01
sg84
g584
sssg283
g284
sg285
g284
sg286
(dp3513
g3506
(dp3514
sg3509
(dp3515
g3506
(dp3516
g84
g731
ssssg480
g3513
sg95
(dp3517
sg482
g284
sg483
g3513
sg484
(dp3518
g3506
(dp3519
g3509
g3516
ssg3509
(dp3520
ssbsg577
(lp3521
g3509
ag3506
asg850
(lp3522
(iconstruction
TP_REL
p3523
(dp3524
g856
g3506
sg84
g731
sg582
I317
sg857
g3509
sg65
VIS_317
p3525
sbasg582
I312
sg65
g1668
sbsg1763
(iconstruction
TP_SYNFORM
p3526
(dp3527
g582
I313
sg1766
(lp3528
(iconstruction
TP_PHON
p3529
(dp3530
g1776
I6
sg1773
I0
sg582
I318
sg1777
Vsplash
p3531
sg65
g3497
sbasg65
g1668
sbsg1784
I1
sba(iconstruction
CXN
p3532
(dp3533
g1726
(iconstruction
TP_SYMLINKS
p3534
(dp3535
g1729
(dp3536
VN1_323
p3537
VS1_325
p3538
ssg582
I321
sg65
g1668
sbsg1735
VV
p3539
sg1737
I1
sg65
VGIVE
p3540
sg1738
(iconstruction
TP_SEMFRAME
p3541
(dp3542
g95
g0
(g96
g2
Ntp3543
Rp3544
(dp3545
g100
(dp3546
(iconstruction
TP_NODE
p3547
(dp3548
g1747
I01
sg84
g584
sg65
VACT_322
p3549
sg1748
I01
sg1749
I00
sg582
I322
sb(dp3550
g1748
I01
sg84
g584
ss(iconstruction
TP_NODE
p3551
(dp3552
g1747
I00
sg84
g638
sg65
g3537
sg1748
I00
sg1749
I00
sg582
I323
sb(dp3553
g1748
I00
sg84
g638
sssg283
g284
sg285
g284
sg286
(dp3554
g3547
(dp3555
g3551
(dp3556
g84
g731
sssg3551
(dp3557
ssg480
g3554
sg95
(dp3558
sg482
g284
sg483
g3554
sg484
(dp3559
g3547
(dp3560
sg3551
(dp3561
g3547
g3556
sssbsg577
(lp3562
g3547
ag3551
asg850
(lp3563
(iconstruction
TP_REL
p3564
(dp3565
g856
g3551
sg84
g731
sg582
I324
sg857
g3547
sg65
VIS_324
p3566
sbasg582
I319
sg65
g1668
sbsg1763
(iconstruction
TP_SYNFORM
p3567
(dp3568
g582
I320
sg1766
(lp3569
(iconstruction
TP_PHON
p3570
(dp3571
g1776
I4
sg1773
I0
sg582
I325
sg1777
Vgive
p3572
sg65
g3538
sbasg65
g1668
sbsg1784
I1
sba(iconstruction
CXN
p3573
(dp3574
g1726
(iconstruction
TP_SYMLINKS
p3575
(dp3576
g1729
(dp3577
VN1_330
p3578
VS1_332
p3579
ssg582
I328
sg65
g1668
sbsg1735
VV
p3580
sg1737
I1
sg65
VSEND
p3581
sg1738
(iconstruction
TP_SEMFRAME
p3582
(dp3583
g95
g0
(g96
g2
Ntp3584
Rp3585
(dp3586
g100
(dp3587
(iconstruction
TP_NODE
p3588
(dp3589
g1747
I00
sg84
g635
sg65
g3578
sg1748
I00
sg1749
I00
sg582
I330
sb(dp3590
g1748
I00
sg84
g635
ss(iconstruction
TP_NODE
p3591
(dp3592
g1747
I01
sg84
g584
sg65
VACT_329
p3593
sg1748
I01
sg1749
I00
sg582
I329
sb(dp3594
g1748
I01
sg84
g584
sssg283
g284
sg285
g284
sg286
(dp3595
g3588
(dp3596
sg3591
(dp3597
g3588
(dp3598
g84
g731
ssssg480
g3595
sg95
(dp3599
sg482
g284
sg483
g3595
sg484
(dp3600
g3588
(dp3601
g3591
g3598
ssg3591
(dp3602
ssbsg577
(lp3603
g3591
ag3588
asg850
(lp3604
(iconstruction
TP_REL
p3605
(dp3606
g856
g3588
sg84
g731
sg582
I331
sg857
g3591
sg65
VIS_331
p3607
sbasg582
I326
sg65
g1668
sbsg1763
(iconstruction
TP_SYNFORM
p3608
(dp3609
g582
I327
sg1766
(lp3610
(iconstruction
TP_PHON
p3611
(dp3612
g1776
I4
sg1773
I0
sg582
I332
sg1777
Vsend
p3613
sg65
g3579
sbasg65
g1668
sbsg1784
I1
sba(iconstruction
CXN
p3614
(dp3615
g1726
(iconstruction
TP_SYMLINKS
p3616
(dp3617
g1729
(dp3618
VN1_337
p3619
VS1_339
p3620
ssg582
I335
sg65
g1668
sbsg1735
VV
p3621
sg1737
I1
sg65
VMEET
p3622
sg1738
(iconstruction
TP_SEMFRAME
p3623
(dp3624
g95
g0
(g96
g2
Ntp3625
Rp3626
(dp3627
g100
(dp3628
(iconstruction
TP_NODE
p3629
(dp3630
g1747
I01
sg84
g584
sg65
VACT_336
p3631
sg1748
I01
sg1749
I00
sg582
I336
sb(dp3632
g1748
I01
sg84
g584
ss(iconstruction
TP_NODE
p3633
(dp3634
g1747
I00
sg84
g590
sg65
g3619
sg1748
I00
sg1749
I00
sg582
I337
sb(dp3635
g1748
I00
sg84
g590
sssg283
g284
sg285
g284
sg286
(dp3636
g3629
(dp3637
g3633
(dp3638
g84
g731
sssg3633
(dp3639
ssg480
g3636
sg95
(dp3640
sg482
g284
sg483
g3636
sg484
(dp3641
g3629
(dp3642
sg3633
(dp3643
g3629
g3638
sssbsg577
(lp3644
g3629
ag3633
asg850
(lp3645
(iconstruction
TP_REL
p3646
(dp3647
g856
g3633
sg84
g731
sg582
I338
sg857
g3629
sg65
VIS_338
p3648
sbasg582
I333
sg65
g1668
sbsg1763
(iconstruction
TP_SYNFORM
p3649
(dp3650
g582
I334
sg1766
(lp3651
(iconstruction
TP_PHON
p3652
(dp3653
g1776
I4
sg1773
I0
sg582
I339
sg1777
Vmeet
p3654
sg65
g3620
sbasg65
g1668
sbsg1784
I1
sba(iconstruction
CXN
p3655
(dp3656
g1726
(iconstruction
TP_SYMLINKS
p3657
(dp3658
g1729
(dp3659
VN1_344
p3660
VS1_346
p3661
ssg582
I342
sg65
g1668
sbsg1735
VV
p3662
sg1737
I1
sg65
VKISS
p3663
sg1738
(iconstruction
TP_SEMFRAME
p3664
(dp3665
g95
g0
(g96
g2
Ntp3666
Rp3667
(dp3668
g100
(dp3669
(iconstruction
TP_NODE
p3670
(dp3671
g1747
I01
sg84
g584
sg65
VACT_343
p3672
sg1748
I01
sg1749
I00
sg582
I343
sb(dp3673
g1748
I01
sg84
g584
ss(iconstruction
TP_NODE
p3674
(dp3675
g1747
I00
sg84
g620
sg65
g3660
sg1748
I00
sg1749
I00
sg582
I344
sb(dp3676
g1748
I00
sg84
g620
sssg283
g284
sg285
g284
sg286
(dp3677
g3670
(dp3678
g3674
(dp3679
g84
g731
sssg3674
(dp3680
ssg480
g3677
sg95
(dp3681
sg482
g284
sg483
g3677
sg484
(dp3682
g3670
(dp3683
sg3674
(dp3684
g3670
g3679
sssbsg577
(lp3685
g3670
ag3674
asg850
(lp3686
(iconstruction
TP_REL
p3687
(dp3688
g856
g3674
sg84
g731
sg582
I345
sg857
g3670
sg65
VIS_345
p3689
sbasg582
I340
sg65
g1668
sbsg1763
(iconstruction
TP_SYNFORM
p3690
(dp3691
g582
I341
sg1766
(lp3692
(iconstruction
TP_PHON
p3693
(dp3694
g1776
I4
sg1773
I0
sg582
I346
sg1777
Vkiss
p3695
sg65
g3661
sbasg65
g1668
sbsg1784
I1
sba(iconstruction
CXN
p3696
(dp3697
g1726
(iconstruction
TP_SYMLINKS
p3698
(dp3699
g1729
(dp3700
VN1_351
p3701
VS1_353
p3702
ssg582
I349
sg65
g1668
sbsg1735
VV
p3703
sg1737
I1
sg65
VSHAKE_HANDS
p3704
sg1738
(iconstruction
TP_SEMFRAME
p3705
(dp3706
g95
g0
(g96
g2
Ntp3707
Rp3708
(dp3709
g100
(dp3710
(iconstruction
TP_NODE
p3711
(dp3712
g1747
I00
sg84
g593
sg65
g3701
sg1748
I00
sg1749
I00
sg582
I351
sb(dp3713
g1748
I00
sg84
g593
ss(iconstruction
TP_NODE
p3714
(dp3715
g1747
I01
sg84
g584
sg65
VACT_350
p3716
sg1748
I01
sg1749
I00
sg582
I350
sb(dp3717
g1748
I01
sg84
g584
sssg283
g284
sg285
g284
sg286
(dp3718
g3711
(dp3719
sg3714
(dp3720
g3711
(dp3721
g84
g731
ssssg480
g3718
sg95
(dp3722
sg482
g284
sg483
g3718
sg484
(dp3723
g3711
(dp3724
g3714
g3721
ssg3714
(dp3725
ssbsg577
(lp3726
g3714
ag3711
asg850
(lp3727
(iconstruction
TP_REL
p3728
(dp3729
g856
g3711
sg84
g731
sg582
I352
sg857
g3714
sg65
VIS_352
p3730
sbasg582
I347
sg65
g1668
sbsg1763
(iconstruction
TP_SYNFORM
p3731
(dp3732
g582
I348
sg1766
(lp3733
(iconstruction
TP_PHON
p3734
(dp3735
g1776
I10
sg1773
I0
sg582
I353
sg1777
Vshake hands
p3736
sg65
g3702
sbasg65
g1668
sbsg1784
I1
sba(iconstruction
CXN
p3737
(dp3738
g1726
(iconstruction
TP_SYMLINKS
p3739
(dp3740
g1729
(dp3741
VN1_357
p3742
VS1_358
p3743
ssg582
I356
sg65
g1668
sbsg1735
VA
p3744
sg1737
I1
sg65
VBLUE
p3745
sg1738
(iconstruction
TP_SEMFRAME
p3746
(dp3747
g95
g0
(g96
g2
Ntp3748
Rp3749
(dp3750
g100
(dp3751
(iconstruction
TP_NODE
p3752
(dp3753
g1747
I01
sg84
g647
sg65
g3742
sg1748
I00
sg1749
I00
sg582
I357
sb(dp3754
g1748
I00
sg84
g647
sssg283
g284
sg285
g284
sg286
(dp3755
g3752
(dp3756
ssg480
g3755
sg95
(dp3757
sg482
g284
sg483
g3755
sg484
(dp3758
g3752
(dp3759
ssbsg577
(lp3760
g3752
asg850
(lp3761
sg582
I354
sg65
g1668
sbsg1763
(iconstruction
TP_SYNFORM
p3762
(dp3763
g582
I355
sg1766
(lp3764
(iconstruction
TP_PHON
p3765
(dp3766
g1776
I4
sg1773
I0
sg582
I358
sg1777
Vblue
p3767
sg65
g3743
sbasg65
g1668
sbsg1784
I1
sba(iconstruction
CXN
p3768
(dp3769
g1726
(iconstruction
TP_SYMLINKS
p3770
(dp3771
g1729
(dp3772
VN1_362
p3773
VS1_363
p3774
ssg582
I361
sg65
g1668
sbsg1735
VA
p3775
sg1737
I1
sg65
VBLACK
p3776
sg1738
(iconstruction
TP_SEMFRAME
p3777
(dp3778
g95
g0
(g96
g2
Ntp3779
Rp3780
(dp3781
g100
(dp3782
(iconstruction
TP_NODE
p3783
(dp3784
g1747
I01
sg84
g656
sg65
g3773
sg1748
I00
sg1749
I00
sg582
I362
sb(dp3785
g1748
I00
sg84
g656
sssg283
g284
sg285
g284
sg286
(dp3786
g3783
(dp3787
ssg480
g3786
sg95
(dp3788
sg482
g284
sg483
g3786
sg484
(dp3789
g3783
(dp3790
ssbsg577
(lp3791
g3783
asg850
(lp3792
sg582
I359
sg65
g1668
sbsg1763
(iconstruction
TP_SYNFORM
p3793
(dp3794
g582
I360
sg1766
(lp3795
(iconstruction
TP_PHON
p3796
(dp3797
g1776
I5
sg1773
I0
sg582
I363
sg1777
Vblack
p3798
sg65
g3774
sbasg65
g1668
sbsg1784
I1
sba(iconstruction
CXN
p3799
(dp3800
g1726
(iconstruction
TP_SYMLINKS
p3801
(dp3802
g1729
(dp3803
VN1_367
p3804
VS1_368
p3805
ssg582
I366
sg65
g1668
sbsg1735
VA
p3806
sg1737
I1
sg65
VGREEN
p3807
sg1738
(iconstruction
TP_SEMFRAME
p3808
(dp3809
g95
g0
(g96
g2
Ntp3810
Rp3811
(dp3812
g100
(dp3813
(iconstruction
TP_NODE
p3814
(dp3815
g1747
I01
sg84
g650
sg65
g3804
sg1748
I00
sg1749
I00
sg582
I367
sb(dp3816
g1748
I00
sg84
g650
sssg283
g284
sg285
g284
sg286
(dp3817
g3814
(dp3818
ssg480
g3817
sg95
(dp3819
sg482
g284
sg483
g3817
sg484
(dp3820
g3814
(dp3821
ssbsg577
(lp3822
g3814
asg850
(lp3823
sg582
I364
sg65
g1668
sbsg1763
(iconstruction
TP_SYNFORM
p3824
(dp3825
g582
I365
sg1766
(lp3826
(iconstruction
TP_PHON
p3827
(dp3828
g1776
I5
sg1773
I0
sg582
I368
sg1777
Vgreen
p3829
sg65
g3805
sbasg65
g1668
sbsg1784
I1
sba(iconstruction
CXN
p3830
(dp3831
g1726
(iconstruction
TP_SYMLINKS
p3832
(dp3833
g1729
(dp3834
VN1_372
p3835
VS1_373
p3836
ssg582
I371
sg65
g1668
sbsg1735
VA
p3837
sg1737
I1
sg65
VSMALL
p3838
sg1738
(iconstruction
TP_SEMFRAME
p3839
(dp3840
g95
g0
(g96
g2
Ntp3841
Rp3842
(dp3843
g100
(dp3844
(iconstruction
TP_NODE
p3845
(dp3846
g1747
I01
sg84
g677
sg65
g3835
sg1748
I00
sg1749
I00
sg582
I372
sb(dp3847
g1748
I00
sg84
g677
sssg283
g284
sg285
g284
sg286
(dp3848
g3845
(dp3849
ssg480
g3848
sg95
(dp3850
sg482
g284
sg483
g3848
sg484
(dp3851
g3845
(dp3852
ssbsg577
(lp3853
g3845
asg850
(lp3854
sg582
I369
sg65
g1668
sbsg1763
(iconstruction
TP_SYNFORM
p3855
(dp3856
g582
I370
sg1766
(lp3857
(iconstruction
TP_PHON
p3858
(dp3859
g1776
I5
sg1773
I0
sg582
I373
sg1777
Vsmall
p3860
sg65
g3836
sbasg65
g1668
sbsg1784
I1
sba(iconstruction
CXN
p3861
(dp3862
g1726
(iconstruction
TP_SYMLINKS
p3863
(dp3864
g1729
(dp3865
VN1_377
p3866
VS1_378
p3867
ssg582
I376
sg65
g1668
sbsg1735
VA
p3868
sg1737
I1
sg65
VBIG
p3869
sg1738
(iconstruction
TP_SEMFRAME
p3870
(dp3871
g95
g0
(g96
g2
Ntp3872
Rp3873
(dp3874
g100
(dp3875
(iconstruction
TP_NODE
p3876
(dp3877
g1747
I01
sg84
g680
sg65
g3866
sg1748
I00
sg1749
I00
sg582
I377
sb(dp3878
g1748
I00
sg84
g680
sssg283
g284
sg285
g284
sg286
(dp3879
g3876
(dp3880
ssg480
g3879
sg95
(dp3881
sg482
g284
sg483
g3879
sg484
(dp3882
g3876
(dp3883
ssbsg577
(lp3884
g3876
asg850
(lp3885
sg582
I374
sg65
g1668
sbsg1763
(iconstruction
TP_SYNFORM
p3886
(dp3887
g582
I375
sg1766
(lp3888
(iconstruction
TP_PHON
p3889
(dp3890
g1776
I3
sg1773
I0
sg582
I378
sg1777
Vbig
p3891
sg65
g3867
sbasg65
g1668
sbsg1784
I1
sba(iconstruction
CXN
p3892
(dp3893
g1726
(iconstruction
TP_SYMLINKS
p3894
(dp3895
g1729
(dp3896
VN1_382
p3897
VS1_383
p3898
ssg582
I381
sg65
g1668
sbsg1735
VA
p3899
sg1737
I1
sg65
VHANDSOME
p3900
sg1738
(iconstruction
TP_SEMFRAME
p3901
(dp3902
g95
g0
(g96
g2
Ntp3903
Rp3904
(dp3905
g100
(dp3906
(iconstruction
TP_NODE
p3907
(dp3908
g1747
I01
sg84
g671
sg65
g3897
sg1748
I00
sg1749
I00
sg582
I382
sb(dp3909
g1748
I00
sg84
g671
sssg283
g284
sg285
g284
sg286
(dp3910
g3907
(dp3911
ssg480
g3910
sg95
(dp3912
sg482
g284
sg483
g3910
sg484
(dp3913
g3907
(dp3914
ssbsg577
(lp3915
g3907
asg850
(lp3916
sg582
I379
sg65
g1668
sbsg1763
(iconstruction
TP_SYNFORM
p3917
(dp3918
g582
I380
sg1766
(lp3919
(iconstruction
TP_PHON
p3920
(dp3921
g1776
I8
sg1773
I0
sg582
I383
sg1777
Vhandsome
p3922
sg65
g3898
sbasg65
g1668
sbsg1784
I1
sba(iconstruction
CXN
p3923
(dp3924
g1726
(iconstruction
TP_SYMLINKS
p3925
(dp3926
g1729
(dp3927
VN1_387
p3928
VS1_388
p3929
ssg582
I386
sg65
g1668
sbsg1735
VA
p3930
sg1737
I1
sg65
VPRETTY
p3931
sg1738
(iconstruction
TP_SEMFRAME
p3932
(dp3933
g95
g0
(g96
g2
Ntp3934
Rp3935
(dp3936
g100
(dp3937
(iconstruction
TP_NODE
p3938
(dp3939
g1747
I01
sg84
g668
sg65
g3928
sg1748
I00
sg1749
I00
sg582
I387
sb(dp3940
g1748
I00
sg84
g668
sssg283
g284
sg285
g284
sg286
(dp3941
g3938
(dp3942
ssg480
g3941
sg95
(dp3943
sg482
g284
sg483
g3941
sg484
(dp3944
g3938
(dp3945
ssbsg577
(lp3946
g3938
asg850
(lp3947
sg582
I384
sg65
g1668
sbsg1763
(iconstruction
TP_SYNFORM
p3948
(dp3949
g582
I385
sg1766
(lp3950
(iconstruction
TP_PHON
p3951
(dp3952
g1776
I6
sg1773
I0
sg582
I388
sg1777
Vpretty
p3953
sg65
g3929
sbasg65
g1668
sbsg1784
I1
sba(iconstruction
CXN
p3954
(dp3955
g1726
(iconstruction
TP_SYMLINKS
p3956
(dp3957
g1729
(dp3958
VN1_392
p3959
VS1_393
p3960
ssg582
I391
sg65
g1668
sbsg1735
VA
p3961
sg1737
I1
sg65
VYOUNG
p3962
sg1738
(iconstruction
TP_SEMFRAME
p3963
(dp3964
g95
g0
(g96
g2
Ntp3965
Rp3966
(dp3967
g100
(dp3968
(iconstruction
TP_NODE
p3969
(dp3970
g1747
I01
sg84
g665
sg65
g3959
sg1748
I00
sg1749
I00
sg582
I392
sb(dp3971
g1748
I00
sg84
g665
sssg283
g284
sg285
g284
sg286
(dp3972
g3969
(dp3973
ssg480
g3972
sg95
(dp3974
sg482
g284
sg483
g3972
sg484
(dp3975
g3969
(dp3976
ssbsg577
(lp3977
g3969
asg850
(lp3978
sg582
I389
sg65
g1668
sbsg1763
(iconstruction
TP_SYNFORM
p3979
(dp3980
g582
I390
sg1766
(lp3981
(iconstruction
TP_PHON
p3982
(dp3983
g1776
I5
sg1773
I0
sg582
I393
sg1777
Vyoung
p3984
sg65
g3960
sbasg65
g1668
sbsg1784
I1
sba(iconstruction
CXN
p3985
(dp3986
g1726
(iconstruction
TP_SYMLINKS
p3987
(dp3988
g1729
(dp3989
VN1_398
p3990
VS1_400
p3991
ssg582
I396
sg65
g1668
sbsg1735
VN
p3992
sg1737
I1
sg65
VWOMAN
p3993
sg1738
(iconstruction
TP_SEMFRAME
p3994
(dp3995
g95
g0
(g96
g2
Ntp3996
Rp3997
(dp3998
g100
(dp3999
(iconstruction
TP_NODE
p4000
(dp4001
g1747
I00
sg84
g806
sg65
g3990
sg1748
I00
sg1749
I00
sg582
I398
sb(dp4002
g1748
I00
sg84
g806
ss(iconstruction
TP_NODE
p4003
(dp4004
g1747
I01
sg84
g740
sg65
VENT_397
p4005
sg1748
I01
sg1749
I00
sg582
I397
sb(dp4006
g1748
I01
sg84
g740
sssg283
g284
sg285
g284
sg286
(dp4007
g4000
(dp4008
sg4003
(dp4009
g4000
(dp4010
g84
g731
ssssg480
g4007
sg95
(dp4011
sg482
g284
sg483
g4007
sg484
(dp4012
g4000
(dp4013
g4003
g4010
ssg4003
(dp4014
ssbsg577
(lp4015
g4003
ag4000
asg850
(lp4016
(iconstruction
TP_REL
p4017
(dp4018
g856
g4000
sg84
g731
sg582
I399
sg857
g4003
sg65
VIS_399
p4019
sbasg582
I394
sg65
g1668
sbsg1763
(iconstruction
TP_SYNFORM
p4020
(dp4021
g582
I395
sg1766
(lp4022
(iconstruction
TP_PHON
p4023
(dp4024
g1776
I5
sg1773
I0
sg582
I400
sg1777
Vwoman
p4025
sg65
g3991
sbasg65
g1668
sbsg1784
I1
sba(iconstruction
CXN
p4026
(dp4027
g1726
(iconstruction
TP_SYMLINKS
p4028
(dp4029
g1729
(dp4030
VN1_405
p4031
VS1_407
p4032
ssg582
I403
sg65
g1668
sbsg1735
VN
p4033
sg1737
I1
sg65
VWOMAN2
p4034
sg1738
(iconstruction
TP_SEMFRAME
p4035
(dp4036
g95
g0
(g96
g2
Ntp4037
Rp4038
(dp4039
g100
(dp4040
(iconstruction
TP_NODE
p4041
(dp4042
g1747
I01
sg84
g740
sg65
VENT_404
p4043
sg1748
I01
sg1749
I00
sg582
I404
sb(dp4044
g1748
I01
sg84
g740
ss(iconstruction
TP_NODE
p4045
(dp4046
g1747
I00
sg84
g806
sg65
g4031
sg1748
I00
sg1749
I00
sg582
I405
sb(dp4047
g1748
I00
sg84
g806
sssg283
g284
sg285
g284
sg286
(dp4048
g4041
(dp4049
g4045
(dp4050
g84
g731
sssg4045
(dp4051
ssg480
g4048
sg95
(dp4052
sg482
g284
sg483
g4048
sg484
(dp4053
g4041
(dp4054
sg4045
(dp4055
g4041
g4050
sssbsg577
(lp4056
g4041
ag4045
asg850
(lp4057
(iconstruction
TP_REL
p4058
(dp4059
g856
g4045
sg84
g731
sg582
I406
sg857
g4041
sg65
VIS_406
p4060
sbasg582
I401
sg65
g1668
sbsg1763
(iconstruction
TP_SYNFORM
p4061
(dp4062
g582
I402
sg1766
(lp4063
(iconstruction
TP_PHON
p4064
(dp4065
g1776
I4
sg1773
I0
sg582
I407
sg1777
Vlady
p4066
sg65
g4032
sbasg65
g1668
sbsg1784
I1
sba(iconstruction
CXN
p4067
(dp4068
g1726
(iconstruction
TP_SYMLINKS
p4069
(dp4070
g1729
(dp4071
VN1_412
p4072
VS1_414
p4073
ssg582
I410
sg65
g1668
sbsg1735
VN
p4074
sg1737
I1
sg65
VMAN
p4075
sg1738
(iconstruction
TP_SEMFRAME
p4076
(dp4077
g95
g0
(g96
g2
Ntp4078
Rp4079
(dp4080
g100
(dp4081
(iconstruction
TP_NODE
p4082
(dp4083
g1747
I00
sg84
g833
sg65
g4072
sg1748
I00
sg1749
I00
sg582
I412
sb(dp4084
g1748
I00
sg84
g833
ss(iconstruction
TP_NODE
p4085
(dp4086
g1747
I01
sg84
g740
sg65
VENT_411
p4087
sg1748
I01
sg1749
I00
sg582
I411
sb(dp4088
g1748
I01
sg84
g740
sssg283
g284
sg285
g284
sg286
(dp4089
g4082
(dp4090
sg4085
(dp4091
g4082
(dp4092
g84
g731
ssssg480
g4089
sg95
(dp4093
sg482
g284
sg483
g4089
sg484
(dp4094
g4082
(dp4095
g4085
g4092
ssg4085
(dp4096
ssbsg577
(lp4097
g4085
ag4082
asg850
(lp4098
(iconstruction
TP_REL
p4099
(dp4100
g856
g4082
sg84
g731
sg582
I413
sg857
g4085
sg65
VIS_413
p4101
sbasg582
I408
sg65
g1668
sbsg1763
(iconstruction
TP_SYNFORM
p4102
(dp4103
g582
I409
sg1766
(lp4104
(iconstruction
TP_PHON
p4105
(dp4106
g1776
I3
sg1773
I0
sg582
I414
sg1777
Vman
p4107
sg65
g4073
sbasg65
g1668
sbsg1784
I1
sba(iconstruction
CXN
p4108
(dp4109
g1726
(iconstruction
TP_SYMLINKS
p4110
(dp4111
g1729
(dp4112
VN1_419
p4113
VS1_421
p4114
ssg582
I417
sg65
g1668
sbsg1735
VN
p4115
sg1737
I1
sg65
VGIRL
p4116
sg1738
(iconstruction
TP_SEMFRAME
p4117
(dp4118
g95
g0
(g96
g2
Ntp4119
Rp4120
(dp4121
g100
(dp4122
(iconstruction
TP_NODE
p4123
(dp4124
g1747
I00
sg84
g824
sg65
g4113
sg1748
I00
sg1749
I00
sg582
I419
sb(dp4125
g1748
I00
sg84
g824
ss(iconstruction
TP_NODE
p4126
(dp4127
g1747
I01
sg84
g740
sg65
VENT_418
p4128
sg1748
I01
sg1749
I00
sg582
I418
sb(dp4129
g1748
I01
sg84
g740
sssg283
g284
sg285
g284
sg286
(dp4130
g4123
(dp4131
sg4126
(dp4132
g4123
(dp4133
g84
g731
ssssg480
g4130
sg95
(dp4134
sg482
g284
sg483
g4130
sg484
(dp4135
g4123
(dp4136
g4126
g4133
ssg4126
(dp4137
ssbsg577
(lp4138
g4126
ag4123
asg850
(lp4139
(iconstruction
TP_REL
p4140
(dp4141
g856
g4123
sg84
g731
sg582
I420
sg857
g4126
sg65
VIS_420
p4142
sbasg582
I415
sg65
g1668
sbsg1763
(iconstruction
TP_SYNFORM
p4143
(dp4144
g582
I416
sg1766
(lp4145
(iconstruction
TP_PHON
p4146
(dp4147
g1776
I4
sg1773
I0
sg582
I421
sg1777
Vgirl
p4148
sg65
g4114
sbasg65
g1668
sbsg1784
I1
sba(iconstruction
CXN
p4149
(dp4150
g1726
(iconstruction
TP_SYMLINKS
p4151
(dp4152
g1729
(dp4153
VN1_426
p4154
VS1_428
p4155
ssg582
I424
sg65
g1668
sbsg1735
VN
p4156
sg1737
I1
sg65
VBOY
p4157
sg1738
(iconstruction
TP_SEMFRAME
p4158
(dp4159
g95
g0
(g96
g2
Ntp4160
Rp4161
(dp4162
g100
(dp4163
(iconstruction
TP_NODE
p4164
(dp4165
g1747
I01
sg84
g740
sg65
VENT_425
p4166
sg1748
I01
sg1749
I00
sg582
I425
sb(dp4167
g1748
I01
sg84
g740
ss(iconstruction
TP_NODE
p4168
(dp4169
g1747
I00
sg84
g803
sg65
g4154
sg1748
I00
sg1749
I00
sg582
I426
sb(dp4170
g1748
I00
sg84
g803
sssg283
g284
sg285
g284
sg286
(dp4171
g4164
(dp4172
g4168
(dp4173
g84
g731
sssg4168
(dp4174
ssg480
g4171
sg95
(dp4175
sg482
g284
sg483
g4171
sg484
(dp4176
g4164
(dp4177
sg4168
(dp4178
g4164
g4173
sssbsg577
(lp4179
g4164
ag4168
asg850
(lp4180
(iconstruction
TP_REL
p4181
(dp4182
g856
g4168
sg84
g731
sg582
I427
sg857
g4164
sg65
VIS_427
p4183
sbasg582
I422
sg65
g1668
sbsg1763
(iconstruction
TP_SYNFORM
p4184
(dp4185
g582
I423
sg1766
(lp4186
(iconstruction
TP_PHON
p4187
(dp4188
g1776
I3
sg1773
I0
sg582
I428
sg1777
Vboy
p4189
sg65
g4155
sbasg65
g1668
sbsg1784
I1
sba(iconstruction
CXN
p4190
(dp4191
g1726
(iconstruction
TP_SYMLINKS
p4192
(dp4193
g1729
(dp4194
VN1_433
p4195
VS1_435
p4196
ssg582
I431
sg65
g1668
sbsg1735
VN
p4197
sg1737
I1
sg65
VPEOPLE
p4198
sg1738
(iconstruction
TP_SEMFRAME
p4199
(dp4200
g95
g0
(g96
g2
Ntp4201
Rp4202
(dp4203
g100
(dp4204
(iconstruction
TP_NODE
p4205
(dp4206
g1747
I00
sg84
g809
sg65
g4195
sg1748
I00
sg1749
I00
sg582
I433
sb(dp4207
g1748
I00
sg84
g809
ss(iconstruction
TP_NODE
p4208
(dp4209
g1747
I01
sg84
g740
sg65
VENT_432
p4210
sg1748
I01
sg1749
I00
sg582
I432
sb(dp4211
g1748
I01
sg84
g740
sssg283
g284
sg285
g284
sg286
(dp4212
g4205
(dp4213
sg4208
(dp4214
g4205
(dp4215
g84
g731
ssssg480
g4212
sg95
(dp4216
sg482
g284
sg483
g4212
sg484
(dp4217
g4205
(dp4218
g4208
g4215
ssg4208
(dp4219
ssbsg577
(lp4220
g4208
ag4205
asg850
(lp4221
(iconstruction
TP_REL
p4222
(dp4223
g856
g4205
sg84
g731
sg582
I434
sg857
g4208
sg65
VIS_434
p4224
sbasg582
I429
sg65
g1668
sbsg1763
(iconstruction
TP_SYNFORM
p4225
(dp4226
g582
I430
sg1766
(lp4227
(iconstruction
TP_PHON
p4228
(dp4229
g1776
I6
sg1773
I0
sg582
I435
sg1777
Vpeople
p4230
sg65
g4196
sbasg65
g1668
sbsg1784
I1
sba(iconstruction
CXN
p4231
(dp4232
g1726
(iconstruction
TP_SYMLINKS
p4233
(dp4234
g1729
(dp4235
VN1_440
p4236
VS1_442
p4237
ssg582
I438
sg65
g1668
sbsg1735
VN
p4238
sg1737
I1
sg65
VMOUSE
p4239
sg1738
(iconstruction
TP_SEMFRAME
p4240
(dp4241
g95
g0
(g96
g2
Ntp4242
Rp4243
(dp4244
g100
(dp4245
(iconstruction
TP_NODE
p4246
(dp4247
g1747
I01
sg84
g740
sg65
VENT_439
p4248
sg1748
I01
sg1749
I00
sg582
I439
sb(dp4249
g1748
I01
sg84
g740
ss(iconstruction
TP_NODE
p4250
(dp4251
g1747
I00
sg84
g797
sg65
g4236
sg1748
I00
sg1749
I00
sg582
I440
sb(dp4252
g1748
I00
sg84
g797
sssg283
g284
sg285
g284
sg286
(dp4253
g4246
(dp4254
g4250
(dp4255
g84
g731
sssg4250
(dp4256
ssg480
g4253
sg95
(dp4257
sg482
g284
sg483
g4253
sg484
(dp4258
g4246
(dp4259
sg4250
(dp4260
g4246
g4255
sssbsg577
(lp4261
g4246
ag4250
asg850
(lp4262
(iconstruction
TP_REL
p4263
(dp4264
g856
g4250
sg84
g731
sg582
I441
sg857
g4246
sg65
VIS_441
p4265
sbasg582
I436
sg65
g1668
sbsg1763
(iconstruction
TP_SYNFORM
p4266
(dp4267
g582
I437
sg1766
(lp4268
(iconstruction
TP_PHON
p4269
(dp4270
g1776
I5
sg1773
I0
sg582
I442
sg1777
Vmouse
p4271
sg65
g4237
sbasg65
g1668
sbsg1784
I1
sba(iconstruction
CXN
p4272
(dp4273
g1726
(iconstruction
TP_SYMLINKS
p4274
(dp4275
g1729
(dp4276
VN1_447
p4277
VS1_449
p4278
ssg582
I445
sg65
g1668
sbsg1735
VN
p4279
sg1737
I1
sg65
VTURTLE
p4280
sg1738
(iconstruction
TP_SEMFRAME
p4281
(dp4282
g95
g0
(g96
g2
Ntp4283
Rp4284
(dp4285
g100
(dp4286
(iconstruction
TP_NODE
p4287
(dp4288
g1747
I00
sg84
g794
sg65
g4277
sg1748
I00
sg1749
I00
sg582
I447
sb(dp4289
g1748
I00
sg84
g794
ss(iconstruction
TP_NODE
p4290
(dp4291
g1747
I01
sg84
g740
sg65
VENT_446
p4292
sg1748
I01
sg1749
I00
sg582
I446
sb(dp4293
g1748
I01
sg84
g740
sssg283
g284
sg285
g284
sg286
(dp4294
g4287
(dp4295
sg4290
(dp4296
g4287
(dp4297
g84
g731
ssssg480
g4294
sg95
(dp4298
sg482
g284
sg483
g4294
sg484
(dp4299
g4287
(dp4300
g4290
g4297
ssg4290
(dp4301
ssbsg577
(lp4302
g4290
ag4287
asg850
(lp4303
(iconstruction
TP_REL
p4304
(dp4305
g856
g4287
sg84
g731
sg582
I448
sg857
g4290
sg65
VIS_448
p4306
sbasg582
I443
sg65
g1668
sbsg1763
(iconstruction
TP_SYNFORM
p4307
(dp4308
g582
I444
sg1766
(lp4309
(iconstruction
TP_PHON
p4310
(dp4311
g1776
I6
sg1773
I0
sg582
I449
sg1777
Vturtle
p4312
sg65
g4278
sbasg65
g1668
sbsg1784
I1
sba(iconstruction
CXN
p4313
(dp4314
g1726
(iconstruction
TP_SYMLINKS
p4315
(dp4316
g1729
(dp4317
VN1_454
p4318
VS1_456
p4319
ssg582
I452
sg65
g1668
sbsg1735
VN
p4320
sg1737
I1
sg65
VDRESS
p4321
sg1738
(iconstruction
TP_SEMFRAME
p4322
(dp4323
g95
g0
(g96
g2
Ntp4324
Rp4325
(dp4326
g100
(dp4327
(iconstruction
TP_NODE
p4328
(dp4329
g1747
I00
sg84
g785
sg65
g4318
sg1748
I00
sg1749
I00
sg582
I454
sb(dp4330
g1748
I00
sg84
g785
ss(iconstruction
TP_NODE
p4331
(dp4332
g1747
I01
sg84
g740
sg65
VENT_453
p4333
sg1748
I01
sg1749
I00
sg582
I453
sb(dp4334
g1748
I01
sg84
g740
sssg283
g284
sg285
g284
sg286
(dp4335
g4328
(dp4336
sg4331
(dp4337
g4328
(dp4338
g84
g731
ssssg480
g4335
sg95
(dp4339
sg482
g284
sg483
g4335
sg484
(dp4340
g4328
(dp4341
g4331
g4338
ssg4331
(dp4342
ssbsg577
(lp4343
g4331
ag4328
asg850
(lp4344
(iconstruction
TP_REL
p4345
(dp4346
g856
g4328
sg84
g731
sg582
I455
sg857
g4331
sg65
VIS_455
p4347
sbasg582
I450
sg65
g1668
sbsg1763
(iconstruction
TP_SYNFORM
p4348
(dp4349
g582
I451
sg1766
(lp4350
(iconstruction
TP_PHON
p4351
(dp4352
g1776
I5
sg1773
I0
sg582
I456
sg1777
Vdress
p4353
sg65
g4319
sbasg65
g1668
sbsg1784
I1
sba(iconstruction
CXN
p4354
(dp4355
g1726
(iconstruction
TP_SYMLINKS
p4356
(dp4357
g1729
(dp4358
VN1_461
p4359
VS1_463
p4360
ssg582
I459
sg65
g1668
sbsg1735
VN
p4361
sg1737
I1
sg65
VTSHIRT
p4362
sg1738
(iconstruction
TP_SEMFRAME
p4363
(dp4364
g95
g0
(g96
g2
Ntp4365
Rp4366
(dp4367
g100
(dp4368
(iconstruction
TP_NODE
p4369
(dp4370
g1747
I01
sg84
g740
sg65
VENT_460
p4371
sg1748
I01
sg1749
I00
sg582
I460
sb(dp4372
g1748
I01
sg84
g740
ss(iconstruction
TP_NODE
p4373
(dp4374
g1747
I00
sg84
g782
sg65
g4359
sg1748
I00
sg1749
I00
sg582
I461
sb(dp4375
g1748
I00
sg84
g782
sssg283
g284
sg285
g284
sg286
(dp4376
g4369
(dp4377
g4373
(dp4378
g84
g731
sssg4373
(dp4379
ssg480
g4376
sg95
(dp4380
sg482
g284
sg483
g4376
sg484
(dp4381
g4369
(dp4382
sg4373
(dp4383
g4369
g4378
sssbsg577
(lp4384
g4369
ag4373
asg850
(lp4385
(iconstruction
TP_REL
p4386
(dp4387
g856
g4373
sg84
g731
sg582
I462
sg857
g4369
sg65
VIS_462
p4388
sbasg582
I457
sg65
g1668
sbsg1763
(iconstruction
TP_SYNFORM
p4389
(dp4390
g582
I458
sg1766
(lp4391
(iconstruction
TP_PHON
p4392
(dp4393
g1776
I6
sg1773
I0
sg582
I463
sg1777
Vt-shirt
p4394
sg65
g4360
sbasg65
g1668
sbsg1784
I1
sba(iconstruction
CXN
p4395
(dp4396
g1726
(iconstruction
TP_SYMLINKS
p4397
(dp4398
g1729
(dp4399
VN1_468
p4400
VS2_471
p4401
ssg582
I466
sg65
g1668
sbsg1735
VN
p4402
sg1737
I1
sg65
VBOXINGRING
p4403
sg1738
(iconstruction
TP_SEMFRAME
p4404
(dp4405
g95
g0
(g96
g2
Ntp4406
Rp4407
(dp4408
g100
(dp4409
(iconstruction
TP_NODE
p4410
(dp4411
g1747
I00
sg84
g839
sg65
g4400
sg1748
I00
sg1749
I00
sg582
I468
sb(dp4412
g1748
I00
sg84
g839
ss(iconstruction
TP_NODE
p4413
(dp4414
g1747
I01
sg84
g740
sg65
VENT_467
p4415
sg1748
I01
sg1749
I00
sg582
I467
sb(dp4416
g1748
I01
sg84
g740
sssg283
g284
sg285
g284
sg286
(dp4417
g4410
(dp4418
sg4413
(dp4419
g4410
(dp4420
g84
g731
ssssg480
g4417
sg95
(dp4421
sg482
g284
sg483
g4417
sg484
(dp4422
g4410
(dp4423
g4413
g4420
ssg4413
(dp4424
ssbsg577
(lp4425
g4413
ag4410
asg850
(lp4426
(iconstruction
TP_REL
p4427
(dp4428
g856
g4410
sg84
g731
sg582
I469
sg857
g4413
sg65
VIS_469
p4429
sbasg582
I464
sg65
g1668
sbsg1763
(iconstruction
TP_SYNFORM
p4430
(dp4431
g582
I465
sg1766
(lp4432
(iconstruction
TP_PHON
p4433
(dp4434
g1776
I6
sg1773
I0
sg582
I470
sg1777
Vboxing
p4435
sg65
VS1_470
p4436
sba(iconstruction
TP_PHON
p4437
(dp4438
g1776
I4
sg1773
I1
sg582
I471
sg1777
Vring
p4439
sg65
g4401
sbasg65
g1668
sbsg1784
I1
sba(iconstruction
CXN
p4440
(dp4441
g1726
(iconstruction
TP_SYMLINKS
p4442
(dp4443
g1729
(dp4444
VN1_476
p4445
VS1_478
p4446
ssg582
I474
sg65
g1668
sbsg1735
VN
p4447
sg1737
I1
sg65
VPARK
p4448
sg1738
(iconstruction
TP_SEMFRAME
p4449
(dp4450
g95
g0
(g96
g2
Ntp4451
Rp4452
(dp4453
g100
(dp4454
(iconstruction
TP_NODE
p4455
(dp4456
g1747
I00
sg84
g842
sg65
g4445
sg1748
I00
sg1749
I00
sg582
I476
sb(dp4457
g1748
I00
sg84
g842
ss(iconstruction
TP_NODE
p4458
(dp4459
g1747
I01
sg84
g740
sg65
VENT_475
p4460
sg1748
I01
sg1749
I00
sg582
I475
sb(dp4461
g1748
I01
sg84
g740
sssg283
g284
sg285
g284
sg286
(dp4462
g4455
(dp4463
sg4458
(dp4464
g4455
(dp4465
g84
g731
ssssg480
g4462
sg95
(dp4466
sg482
g284
sg483
g4462
sg484
(dp4467
g4455
(dp4468
g4458
g4465
ssg4458
(dp4469
ssbsg577
(lp4470
g4458
ag4455
asg850
(lp4471
(iconstruction
TP_REL
p4472
(dp4473
g856
g4455
sg84
g731
sg582
I477
sg857
g4458
sg65
VIS_477
p4474
sbasg582
I472
sg65
g1668
sbsg1763
(iconstruction
TP_SYNFORM
p4475
(dp4476
g582
I473
sg1766
(lp4477
(iconstruction
TP_PHON
p4478
(dp4479
g1776
I4
sg1773
I0
sg582
I478
sg1777
Vpark
p4480
sg65
g4446
sbasg65
g1668
sbsg1784
I1
sba(iconstruction
CXN
p4481
(dp4482
g1726
(iconstruction
TP_SYMLINKS
p4483
(dp4484
g1729
(dp4485
VN1_483
p4486
VS1_485
p4487
ssg582
I481
sg65
g1668
sbsg1735
VN
p4488
sg1737
I1
sg65
VSHIRT
p4489
sg1738
(iconstruction
TP_SEMFRAME
p4490
(dp4491
g95
g0
(g96
g2
Ntp4492
Rp4493
(dp4494
g100
(dp4495
(iconstruction
TP_NODE
p4496
(dp4497
g1747
I01
sg84
g740
sg65
VENT_482
p4498
sg1748
I01
sg1749
I00
sg582
I482
sb(dp4499
g1748
I01
sg84
g740
ss(iconstruction
TP_NODE
p4500
(dp4501
g1747
I00
sg84
g788
sg65
g4486
sg1748
I00
sg1749
I00
sg582
I483
sb(dp4502
g1748
I00
sg84
g788
sssg283
g284
sg285
g284
sg286
(dp4503
g4496
(dp4504
g4500
(dp4505
g84
g731
sssg4500
(dp4506
ssg480
g4503
sg95
(dp4507
sg482
g284
sg483
g4503
sg484
(dp4508
g4496
(dp4509
sg4500
(dp4510
g4496
g4505
sssbsg577
(lp4511
g4496
ag4500
asg850
(lp4512
(iconstruction
TP_REL
p4513
(dp4514
g856
g4500
sg84
g731
sg582
I484
sg857
g4496
sg65
VIS_484
p4515
sbasg582
I479
sg65
g1668
sbsg1763
(iconstruction
TP_SYNFORM
p4516
(dp4517
g582
I480
sg1766
(lp4518
(iconstruction
TP_PHON
p4519
(dp4520
g1776
I5
sg1773
I0
sg582
I485
sg1777
Vshirt
p4521
sg65
g4487
sbasg65
g1668
sbsg1784
I1
sba(iconstruction
CXN
p4522
(dp4523
g1726
(iconstruction
TP_SYMLINKS
p4524
(dp4525
g1729
(dp4526
VN1_490
p4527
VS1_492
p4528
ssg582
I488
sg65
g1668
sbsg1735
VN
p4529
sg1737
I1
sg65
VSUIT
p4530
sg1738
(iconstruction
TP_SEMFRAME
p4531
(dp4532
g95
g0
(g96
g2
Ntp4533
Rp4534
(dp4535
g100
(dp4536
(iconstruction
TP_NODE
p4537
(dp4538
g1747
I00
sg84
g791
sg65
g4527
sg1748
I00
sg1749
I00
sg582
I490
sb(dp4539
g1748
I00
sg84
g791
ss(iconstruction
TP_NODE
p4540
(dp4541
g1747
I01
sg84
g740
sg65
VENT_489
p4542
sg1748
I01
sg1749
I00
sg582
I489
sb(dp4543
g1748
I01
sg84
g740
sssg283
g284
sg285
g284
sg286
(dp4544
g4537
(dp4545
sg4540
(dp4546
g4537
(dp4547
g84
g731
ssssg480
g4544
sg95
(dp4548
sg482
g284
sg483
g4544
sg484
(dp4549
g4537
(dp4550
g4540
g4547
ssg4540
(dp4551
ssbsg577
(lp4552
g4540
ag4537
asg850
(lp4553
(iconstruction
TP_REL
p4554
(dp4555
g856
g4537
sg84
g731
sg582
I491
sg857
g4540
sg65
VIS_491
p4556
sbasg582
I486
sg65
g1668
sbsg1763
(iconstruction
TP_SYNFORM
p4557
(dp4558
g582
I487
sg1766
(lp4559
(iconstruction
TP_PHON
p4560
(dp4561
g1776
I4
sg1773
I0
sg582
I492
sg1777
Vsuit
p4562
sg65
g4528
sbasg65
g1668
sbsg1784
I1
sba(iconstruction
CXN
p4563
(dp4564
g1726
(iconstruction
TP_SYMLINKS
p4565
(dp4566
g1729
(dp4567
VN1_497
p4568
VS1_499
p4569
ssg582
I495
sg65
g1668
sbsg1735
VN
p4570
sg1737
I1
sg65
VCELLO
p4571
sg1738
(iconstruction
TP_SEMFRAME
p4572
(dp4573
g95
g0
(g96
g2
Ntp4574
Rp4575
(dp4576
g100
(dp4577
(iconstruction
TP_NODE
p4578
(dp4579
g1747
I00
sg84
g773
sg65
g4568
sg1748
I00
sg1749
I00
sg582
I497
sb(dp4580
g1748
I00
sg84
g773
ss(iconstruction
TP_NODE
p4581
(dp4582
g1747
I01
sg84
g740
sg65
VENT_496
p4583
sg1748
I01
sg1749
I00
sg582
I496
sb(dp4584
g1748
I01
sg84
g740
sssg283
g284
sg285
g284
sg286
(dp4585
g4578
(dp4586
sg4581
(dp4587
g4578
(dp4588
g84
g731
ssssg480
g4585
sg95
(dp4589
sg482
g284
sg483
g4585
sg484
(dp4590
g4578
(dp4591
g4581
g4588
ssg4581
(dp4592
ssbsg577
(lp4593
g4581
ag4578
asg850
(lp4594
(iconstruction
TP_REL
p4595
(dp4596
g856
g4578
sg84
g731
sg582
I498
sg857
g4581
sg65
VIS_498
p4597
sbasg582
I493
sg65
g1668
sbsg1763
(iconstruction
TP_SYNFORM
p4598
(dp4599
g582
I494
sg1766
(lp4600
(iconstruction
TP_PHON
p4601
(dp4602
g1776
I5
sg1773
I0
sg582
I499
sg1777
VCELLO
p4603
sg65
g4569
sbasg65
g1668
sbsg1784
I1
sba(iconstruction
CXN
p4604
(dp4605
g1726
(iconstruction
TP_SYMLINKS
p4606
(dp4607
g1729
(dp4608
VN1_504
p4609
VS1_506
p4610
ssg582
I502
sg65
g1668
sbsg1735
VN
p4611
sg1737
I1
sg65
VBAG
p4612
sg1738
(iconstruction
TP_SEMFRAME
p4613
(dp4614
g95
g0
(g96
g2
Ntp4615
Rp4616
(dp4617
g100
(dp4618
(iconstruction
TP_NODE
p4619
(dp4620
g1747
I01
sg84
g740
sg65
VENT_503
p4621
sg1748
I01
sg1749
I00
sg582
I503
sb(dp4622
g1748
I01
sg84
g740
ss(iconstruction
TP_NODE
p4623
(dp4624
g1747
I00
sg84
g764
sg65
g4609
sg1748
I00
sg1749
I00
sg582
I504
sb(dp4625
g1748
I00
sg84
g764
sssg283
g284
sg285
g284
sg286
(dp4626
g4619
(dp4627
g4623
(dp4628
g84
g731
sssg4623
(dp4629
ssg480
g4626
sg95
(dp4630
sg482
g284
sg483
g4626
sg484
(dp4631
g4619
(dp4632
sg4623
(dp4633
g4619
g4628
sssbsg577
(lp4634
g4619
ag4623
asg850
(lp4635
(iconstruction
TP_REL
p4636
(dp4637
g856
g4623
sg84
g731
sg582
I505
sg857
g4619
sg65
VIS_505
p4638
sbasg582
I500
sg65
g1668
sbsg1763
(iconstruction
TP_SYNFORM
p4639
(dp4640
g582
I501
sg1766
(lp4641
(iconstruction
TP_PHON
p4642
(dp4643
g1776
I3
sg1773
I0
sg582
I506
sg1777
Vbag
p4644
sg65
g4610
sbasg65
g1668
sbsg1784
I1
sba(iconstruction
CXN
p4645
(dp4646
g1726
(iconstruction
TP_SYMLINKS
p4647
(dp4648
g1729
(dp4649
VN1_511
p4650
VS2_514
p4651
ssg582
I509
sg65
g1668
sbsg1735
VN
p4652
sg1737
I1
sg65
VWATERING_CAN
p4653
sg1738
(iconstruction
TP_SEMFRAME
p4654
(dp4655
g95
g0
(g96
g2
Ntp4656
Rp4657
(dp4658
g100
(dp4659
(iconstruction
TP_NODE
p4660
(dp4661
g1747
I00
sg84
g761
sg65
g4650
sg1748
I00
sg1749
I00
sg582
I511
sb(dp4662
g1748
I00
sg84
g761
ss(iconstruction
TP_NODE
p4663
(dp4664
g1747
I01
sg84
g740
sg65
VENT_510
p4665
sg1748
I01
sg1749
I00
sg582
I510
sb(dp4666
g1748
I01
sg84
g740
sssg283
g284
sg285
g284
sg286
(dp4667
g4660
(dp4668
sg4663
(dp4669
g4660
(dp4670
g84
g731
ssssg480
g4667
sg95
(dp4671
sg482
g284
sg483
g4667
sg484
(dp4672
g4660
(dp4673
g4663
g4670
ssg4663
(dp4674
ssbsg577
(lp4675
g4663
ag4660
asg850
(lp4676
(iconstruction
TP_REL
p4677
(dp4678
g856
g4660
sg84
g731
sg582
I512
sg857
g4663
sg65
VIS_512
p4679
sbasg582
I507
sg65
g1668
sbsg1763
(iconstruction
TP_SYNFORM
p4680
(dp4681
g582
I508
sg1766
(lp4682
(iconstruction
TP_PHON
p4683
(dp4684
g1776
I8
sg1773
I0
sg582
I513
sg1777
Vwatering
p4685
sg65
VS1_513
p4686
sba(iconstruction
TP_PHON
p4687
(dp4688
g1776
I3
sg1773
I1
sg582
I514
sg1777
Vcan
p4689
sg65
g4651
sbasg65
g1668
sbsg1784
I1
sba(iconstruction
CXN
p4690
(dp4691
g1726
(iconstruction
TP_SYMLINKS
p4692
(dp4693
g1729
(dp4694
VN1_519
p4695
VS1_521
p4696
ssg582
I517
sg65
g1668
sbsg1735
VN
p4697
sg1737
I1
sg65
VBALLERINA
p4698
sg1738
(iconstruction
TP_SEMFRAME
p4699
(dp4700
g95
g0
(g96
g2
Ntp4701
Rp4702
(dp4703
g100
(dp4704
(iconstruction
TP_NODE
p4705
(dp4706
g1747
I00
sg84
g818
sg65
g4695
sg1748
I00
sg1749
I00
sg582
I519
sb(dp4707
g1748
I00
sg84
g818
ss(iconstruction
TP_NODE
p4708
(dp4709
g1747
I01
sg84
g740
sg65
VENT_518
p4710
sg1748
I01
sg1749
I00
sg582
I518
sb(dp4711
g1748
I01
sg84
g740
sssg283
g284
sg285
g284
sg286
(dp4712
g4705
(dp4713
sg4708
(dp4714
g4705
(dp4715
g84
g731
ssssg480
g4712
sg95
(dp4716
sg482
g284
sg483
g4712
sg484
(dp4717
g4705
(dp4718
g4708
g4715
ssg4708
(dp4719
ssbsg577
(lp4720
g4708
ag4705
asg850
(lp4721
(iconstruction
TP_REL
p4722
(dp4723
g856
g4705
sg84
g731
sg582
I520
sg857
g4708
sg65
VIS_520
p4724
sbasg582
I515
sg65
g1668
sbsg1763
(iconstruction
TP_SYNFORM
p4725
(dp4726
g582
I516
sg1766
(lp4727
(iconstruction
TP_PHON
p4728
(dp4729
g1776
I9
sg1773
I0
sg582
I521
sg1777
Vballerina
p4730
sg65
g4696
sbasg65
g1668
sbsg1784
I1
sba(iconstruction
CXN
p4731
(dp4732
g1726
(iconstruction
TP_SYMLINKS
p4733
(dp4734
g1729
(dp4735
VN1_526
p4736
VS1_528
p4737
ssg582
I524
sg65
g1668
sbsg1735
VN
p4738
sg1737
I1
sg65
VCELLIST
p4739
sg1738
(iconstruction
TP_SEMFRAME
p4740
(dp4741
g95
g0
(g96
g2
Ntp4742
Rp4743
(dp4744
g100
(dp4745
(iconstruction
TP_NODE
p4746
(dp4747
g1747
I01
sg84
g740
sg65
VENT_525
p4748
sg1748
I01
sg1749
I00
sg582
I525
sb(dp4749
g1748
I01
sg84
g740
ss(iconstruction
TP_NODE
p4750
(dp4751
g1747
I00
sg84
g821
sg65
g4736
sg1748
I00
sg1749
I00
sg582
I526
sb(dp4752
g1748
I00
sg84
g821
sssg283
g284
sg285
g284
sg286
(dp4753
g4746
(dp4754
g4750
(dp4755
g84
g731
sssg4750
(dp4756
ssg480
g4753
sg95
(dp4757
sg482
g284
sg483
g4753
sg484
(dp4758
g4746
(dp4759
sg4750
(dp4760
g4746
g4755
sssbsg577
(lp4761
g4746
ag4750
asg850
(lp4762
(iconstruction
TP_REL
p4763
(dp4764
g856
g4750
sg84
g731
sg582
I527
sg857
g4746
sg65
VIS_527
p4765
sbasg582
I522
sg65
g1668
sbsg1763
(iconstruction
TP_SYNFORM
p4766
(dp4767
g582
I523
sg1766
(lp4768
(iconstruction
TP_PHON
p4769
(dp4770
g1776
I7
sg1773
I0
sg582
I528
sg1777
Vcellist
p4771
sg65
g4737
sbasg65
g1668
sbsg1784
I1
sba(iconstruction
CXN
p4772
(dp4773
g1726
(iconstruction
TP_SYMLINKS
p4774
(dp4775
g1729
(dp4776
VN1_533
p4777
VS1_535
p4778
ssg582
I531
sg65
g1668
sbsg1735
VN
p4779
sg1737
I1
sg65
VFENCER
p4780
sg1738
(iconstruction
TP_SEMFRAME
p4781
(dp4782
g95
g0
(g96
g2
Ntp4783
Rp4784
(dp4785
g100
(dp4786
(iconstruction
TP_NODE
p4787
(dp4788
g1747
I00
sg84
g827
sg65
g4777
sg1748
I00
sg1749
I00
sg582
I533
sb(dp4789
g1748
I00
sg84
g827
ss(iconstruction
TP_NODE
p4790
(dp4791
g1747
I01
sg84
g740
sg65
VENT_532
p4792
sg1748
I01
sg1749
I00
sg582
I532
sb(dp4793
g1748
I01
sg84
g740
sssg283
g284
sg285
g284
sg286
(dp4794
g4787
(dp4795
sg4790
(dp4796
g4787
(dp4797
g84
g731
ssssg480
g4794
sg95
(dp4798
sg482
g284
sg483
g4794
sg484
(dp4799
g4787
(dp4800
g4790
g4797
ssg4790
(dp4801
ssbsg577
(lp4802
g4790
ag4787
asg850
(lp4803
(iconstruction
TP_REL
p4804
(dp4805
g856
g4787
sg84
g731
sg582
I534
sg857
g4790
sg65
VIS_534
p4806
sbasg582
I529
sg65
g1668
sbsg1763
(iconstruction
TP_SYNFORM
p4807
(dp4808
g582
I530
sg1766
(lp4809
(iconstruction
TP_PHON
p4810
(dp4811
g1776
I6
sg1773
I0
sg582
I535
sg1777
Vfencer
p4812
sg65
g4778
sbasg65
g1668
sbsg1784
I1
sba(iconstruction
CXN
p4813
(dp4814
g1726
(iconstruction
TP_SYMLINKS
p4815
(dp4816
g1729
(dp4817
VN1_540
p4818
VS1_542
p4819
ssg582
I538
sg65
g1668
sbsg1735
VN
p4820
sg1737
I1
sg65
VROBBER
p4821
sg1738
(iconstruction
TP_SEMFRAME
p4822
(dp4823
g95
g0
(g96
g2
Ntp4824
Rp4825
(dp4826
g100
(dp4827
(iconstruction
TP_NODE
p4828
(dp4829
g1747
I00
sg84
g830
sg65
g4818
sg1748
I00
sg1749
I00
sg582
I540
sb(dp4830
g1748
I00
sg84
g830
ss(iconstruction
TP_NODE
p4831
(dp4832
g1747
I01
sg84
g740
sg65
VENT_539
p4833
sg1748
I01
sg1749
I00
sg582
I539
sb(dp4834
g1748
I01
sg84
g740
sssg283
g284
sg285
g284
sg286
(dp4835
g4828
(dp4836
sg4831
(dp4837
g4828
(dp4838
g84
g731
ssssg480
g4835
sg95
(dp4839
sg482
g284
sg483
g4835
sg484
(dp4840
g4828
(dp4841
g4831
g4838
ssg4831
(dp4842
ssbsg577
(lp4843
g4831
ag4828
asg850
(lp4844
(iconstruction
TP_REL
p4845
(dp4846
g856
g4828
sg84
g731
sg582
I541
sg857
g4831
sg65
VIS_541
p4847
sbasg582
I536
sg65
g1668
sbsg1763
(iconstruction
TP_SYNFORM
p4848
(dp4849
g582
I537
sg1766
(lp4850
(iconstruction
TP_PHON
p4851
(dp4852
g1776
I5
sg1773
I0
sg582
I542
sg1777
Vthief
p4853
sg65
g4819
sbasg65
g1668
sbsg1784
I1
sba(iconstruction
CXN
p4854
(dp4855
g1726
(iconstruction
TP_SYMLINKS
p4856
(dp4857
g1729
(dp4858
VN1_547
p4859
VS1_549
p4860
ssg582
I545
sg65
g1668
sbsg1735
VN
p4861
sg1737
I1
sg65
VPOLICEMAN
p4862
sg1738
(iconstruction
TP_SEMFRAME
p4863
(dp4864
g95
g0
(g96
g2
Ntp4865
Rp4866
(dp4867
g100
(dp4868
(iconstruction
TP_NODE
p4869
(dp4870
g1747
I01
sg84
g740
sg65
VENT_546
p4871
sg1748
I01
sg1749
I00
sg582
I546
sb(dp4872
g1748
I01
sg84
g740
ss(iconstruction
TP_NODE
p4873
(dp4874
g1747
I00
sg84
g812
sg65
g4859
sg1748
I00
sg1749
I00
sg582
I547
sb(dp4875
g1748
I00
sg84
g812
sssg283
g284
sg285
g284
sg286
(dp4876
g4869
(dp4877
g4873
(dp4878
g84
g731
sssg4873
(dp4879
ssg480
g4876
sg95
(dp4880
sg482
g284
sg483
g4876
sg484
(dp4881
g4869
(dp4882
sg4873
(dp4883
g4869
g4878
sssbsg577
(lp4884
g4869
ag4873
asg850
(lp4885
(iconstruction
TP_REL
p4886
(dp4887
g856
g4873
sg84
g731
sg582
I548
sg857
g4869
sg65
VIS_548
p4888
sbasg582
I543
sg65
g1668
sbsg1763
(iconstruction
TP_SYNFORM
p4889
(dp4890
g582
I544
sg1766
(lp4891
(iconstruction
TP_PHON
p4892
(dp4893
g1776
I9
sg1773
I0
sg582
I549
sg1777
Vpoliceman
p4894
sg65
g4860
sbasg65
g1668
sbsg1784
I1
sba(iconstruction
CXN
p4895
(dp4896
g1726
(iconstruction
TP_SYMLINKS
p4897
(dp4898
g1729
(dp4899
VN1_554
p4900
VS1_556
p4901
ssg582
I552
sg65
g1668
sbsg1735
VN
p4902
sg1737
I1
sg65
VHUNTER
p4903
sg1738
(iconstruction
TP_SEMFRAME
p4904
(dp4905
g95
g0
(g96
g2
Ntp4906
Rp4907
(dp4908
g100
(dp4909
(iconstruction
TP_NODE
p4910
(dp4911
g1747
I00
sg84
g815
sg65
g4900
sg1748
I00
sg1749
I00
sg582
I554
sb(dp4912
g1748
I00
sg84
g815
ss(iconstruction
TP_NODE
p4913
(dp4914
g1747
I01
sg84
g740
sg65
VENT_553
p4915
sg1748
I01
sg1749
I00
sg582
I553
sb(dp4916
g1748
I01
sg84
g740
sssg283
g284
sg285
g284
sg286
(dp4917
g4910
(dp4918
sg4913
(dp4919
g4910
(dp4920
g84
g731
ssssg480
g4917
sg95
(dp4921
sg482
g284
sg483
g4917
sg484
(dp4922
g4910
(dp4923
g4913
g4920
ssg4913
(dp4924
ssbsg577
(lp4925
g4913
ag4910
asg850
(lp4926
(iconstruction
TP_REL
p4927
(dp4928
g856
g4910
sg84
g731
sg582
I555
sg857
g4913
sg65
VIS_555
p4929
sbasg582
I550
sg65
g1668
sbsg1763
(iconstruction
TP_SYNFORM
p4930
(dp4931
g582
I551
sg1766
(lp4932
(iconstruction
TP_PHON
p4933
(dp4934
g1776
I6
sg1773
I0
sg582
I556
sg1777
Vhunter
p4935
sg65
g4901
sbasg65
g1668
sbsg1784
I1
sba(iconstruction
CXN
p4936
(dp4937
g1726
(iconstruction
TP_SYMLINKS
p4938
(dp4939
g1729
(dp4940
VN1_561
p4941
VS1_563
p4942
ssg582
I559
sg65
g1668
sbsg1735
VN
p4943
sg1737
I1
sg65
VDOG
p4944
sg1738
(iconstruction
TP_SEMFRAME
p4945
(dp4946
g95
g0
(g96
g2
Ntp4947
Rp4948
(dp4949
g100
(dp4950
(iconstruction
TP_NODE
p4951
(dp4952
g1747
I01
sg84
g740
sg65
VENT_560
p4953
sg1748
I01
sg1749
I00
sg582
I560
sb(dp4954
g1748
I01
sg84
g740
ss(iconstruction
TP_NODE
p4955
(dp4956
g1747
I00
sg84
g800
sg65
g4941
sg1748
I00
sg1749
I00
sg582
I561
sb(dp4957
g1748
I00
sg84
g800
sssg283
g284
sg285
g284
sg286
(dp4958
g4951
(dp4959
g4955
(dp4960
g84
g731
sssg4955
(dp4961
ssg480
g4958
sg95
(dp4962
sg482
g284
sg483
g4958
sg484
(dp4963
g4951
(dp4964
sg4955
(dp4965
g4951
g4960
sssbsg577
(lp4966
g4951
ag4955
asg850
(lp4967
(iconstruction
TP_REL
p4968
(dp4969
g856
g4955
sg84
g731
sg582
I562
sg857
g4951
sg65
VIS_562
p4970
sbasg582
I557
sg65
g1668
sbsg1763
(iconstruction
TP_SYNFORM
p4971
(dp4972
g582
I558
sg1766
(lp4973
(iconstruction
TP_PHON
p4974
(dp4975
g1776
I3
sg1773
I0
sg582
I563
sg1777
Vdog
p4976
sg65
g4942
sbasg65
g1668
sbsg1784
I1
sba(iconstruction
CXN
p4977
(dp4978
g1726
(iconstruction
TP_SYMLINKS
p4979
(dp4980
g1729
(dp4981
VN1_568
p4982
VS1_570
p4983
ssg582
I566
sg65
g1668
sbsg1735
VN
p4984
sg1737
I1
sg65
VHOOK
p4985
sg1738
(iconstruction
TP_SEMFRAME
p4986
(dp4987
g95
g0
(g96
g2
Ntp4988
Rp4989
(dp4990
g100
(dp4991
(iconstruction
TP_NODE
p4992
(dp4993
g1747
I00
sg84
g770
sg65
g4982
sg1748
I00
sg1749
I00
sg582
I568
sb(dp4994
g1748
I00
sg84
g770
ss(iconstruction
TP_NODE
p4995
(dp4996
g1747
I01
sg84
g740
sg65
VENT_567
p4997
sg1748
I01
sg1749
I00
sg582
I567
sb(dp4998
g1748
I01
sg84
g740
sssg283
g284
sg285
g284
sg286
(dp4999
g4992
(dp5000
sg4995
(dp5001
g4992
(dp5002
g84
g731
ssssg480
g4999
sg95
(dp5003
sg482
g284
sg483
g4999
sg484
(dp5004
g4992
(dp5005
g4995
g5002
ssg4995
(dp5006
ssbsg577
(lp5007
g4995
ag4992
asg850
(lp5008
(iconstruction
TP_REL
p5009
(dp5010
g856
g4992
sg84
g731
sg582
I569
sg857
g4995
sg65
VIS_569
p5011
sbasg582
I564
sg65
g1668
sbsg1763
(iconstruction
TP_SYNFORM
p5012
(dp5013
g582
I565
sg1766
(lp5014
(iconstruction
TP_PHON
p5015
(dp5016
g1776
I4
sg1773
I0
sg582
I570
sg1777
Vhook
p5017
sg65
g4983
sbasg65
g1668
sbsg1784
I1
sba(iconstruction
CXN
p5018
(dp5019
g1726
(iconstruction
TP_SYMLINKS
p5020
(dp5021
g1729
(dp5022
VN1_575
p5023
VS1_577
p5024
ssg582
I573
sg65
g1668
sbsg1735
VN
p5025
sg1737
I1
sg65
VBOOKSHELF
p5026
sg1738
(iconstruction
TP_SEMFRAME
p5027
(dp5028
g95
g0
(g96
g2
Ntp5029
Rp5030
(dp5031
g100
(dp5032
(iconstruction
TP_NODE
p5033
(dp5034
g1747
I00
sg84
g776
sg65
g5023
sg1748
I00
sg1749
I00
sg582
I575
sb(dp5035
g1748
I00
sg84
g776
ss(iconstruction
TP_NODE
p5036
(dp5037
g1747
I01
sg84
g740
sg65
VENT_574
p5038
sg1748
I01
sg1749
I00
sg582
I574
sb(dp5039
g1748
I01
sg84
g740
sssg283
g284
sg285
g284
sg286
(dp5040
g5033
(dp5041
sg5036
(dp5042
g5033
(dp5043
g84
g731
ssssg480
g5040
sg95
(dp5044
sg482
g284
sg483
g5040
sg484
(dp5045
g5033
(dp5046
g5036
g5043
ssg5036
(dp5047
ssbsg577
(lp5048
g5036
ag5033
asg850
(lp5049
(iconstruction
TP_REL
p5050
(dp5051
g856
g5033
sg84
g731
sg582
I576
sg857
g5036
sg65
VIS_576
p5052
sbasg582
I571
sg65
g1668
sbsg1763
(iconstruction
TP_SYNFORM
p5053
(dp5054
g582
I572
sg1766
(lp5055
(iconstruction
TP_PHON
p5056
(dp5057
g1776
I9
sg1773
I0
sg582
I577
sg1777
Vbookshelf
p5058
sg65
g5024
sbasg65
g1668
sbsg1784
I1
sba(iconstruction
CXN
p5059
(dp5060
g1726
(iconstruction
TP_SYMLINKS
p5061
(dp5062
g1729
(dp5063
VN1_582
p5064
VS1_584
p5065
ssg582
I580
sg65
g1668
sbsg1735
VN
p5066
sg1737
I1
sg65
VWAGON
p5067
sg1738
(iconstruction
TP_SEMFRAME
p5068
(dp5069
g95
g0
(g96
g2
Ntp5070
Rp5071
(dp5072
g100
(dp5073
(iconstruction
TP_NODE
p5074
(dp5075
g1747
I01
sg84
g740
sg65
VENT_581
p5076
sg1748
I01
sg1749
I00
sg582
I581
sb(dp5077
g1748
I01
sg84
g740
ss(iconstruction
TP_NODE
p5078
(dp5079
g1747
I00
sg84
g758
sg65
g5064
sg1748
I00
sg1749
I00
sg582
I582
sb(dp5080
g1748
I00
sg84
g758
sssg283
g284
sg285
g284
sg286
(dp5081
g5074
(dp5082
g5078
(dp5083
g84
g731
sssg5078
(dp5084
ssg480
g5081
sg95
(dp5085
sg482
g284
sg483
g5081
sg484
(dp5086
g5074
(dp5087
sg5078
(dp5088
g5074
g5083
sssbsg577
(lp5089
g5074
ag5078
asg850
(lp5090
(iconstruction
TP_REL
p5091
(dp5092
g856
g5078
sg84
g731
sg582
I583
sg857
g5074
sg65
VIS_583
p5093
sbasg582
I578
sg65
g1668
sbsg1763
(iconstruction
TP_SYNFORM
p5094
(dp5095
g582
I579
sg1766
(lp5096
(iconstruction
TP_PHON
p5097
(dp5098
g1776
I5
sg1773
I0
sg582
I584
sg1777
Vwagon
p5099
sg65
g5065
sbasg65
g1668
sbsg1784
I1
sba(iconstruction
CXN
p5100
(dp5101
g1726
(iconstruction
TP_SYMLINKS
p5102
(dp5103
g1729
(dp5104
VN1_589
p5105
VS1_591
p5106
ssg582
I587
sg65
g1668
sbsg1735
VN
p5107
sg1737
I1
sg65
VTREE
p5108
sg1738
(iconstruction
TP_SEMFRAME
p5109
(dp5110
g95
g0
(g96
g2
Ntp5111
Rp5112
(dp5113
g100
(dp5114
(iconstruction
TP_NODE
p5115
(dp5116
g1747
I00
sg84
g767
sg65
g5105
sg1748
I00
sg1749
I00
sg582
I589
sb(dp5117
g1748
I00
sg84
g767
ss(iconstruction
TP_NODE
p5118
(dp5119
g1747
I01
sg84
g740
sg65
VENT_588
p5120
sg1748
I01
sg1749
I00
sg582
I588
sb(dp5121
g1748
I01
sg84
g740
sssg283
g284
sg285
g284
sg286
(dp5122
g5115
(dp5123
sg5118
(dp5124
g5115
(dp5125
g84
g731
ssssg480
g5122
sg95
(dp5126
sg482
g284
sg483
g5122
sg484
(dp5127
g5115
(dp5128
g5118
g5125
ssg5118
(dp5129
ssbsg577
(lp5130
g5118
ag5115
asg850
(lp5131
(iconstruction
TP_REL
p5132
(dp5133
g856
g5115
sg84
g731
sg582
I590
sg857
g5118
sg65
VIS_590
p5134
sbasg582
I585
sg65
g1668
sbsg1763
(iconstruction
TP_SYNFORM
p5135
(dp5136
g582
I586
sg1766
(lp5137
(iconstruction
TP_PHON
p5138
(dp5139
g1776
I4
sg1773
I0
sg582
I591
sg1777
Vtree
p5140
sg65
g5106
sbasg65
g1668
sbsg1784
I1
sbasbsg65
g1681
sg67
(lp5141
g0
(g69
g2
Ntp5142
Rp5143
(dp5144
g1571
Nsg65
g1577
sg74
Nsg75
Nsg1573
Nsg292
g1516
sg582
I20
sg1517
g1787
sbag0
(g69
g2
Ntp5145
Rp5146
(dp5147
g65
S'to_cxn_retrieval_C'
p5148
sg74
Nsg75
g1718
sg292
g1516
sg582
I21
sg1517
g1787
sbasg1522
(dp5149
g1577
Nsg5148
Nssg1524
(lp5150
sg1527
F1.0
sg1528
(lp5151
sg1530
(dp5152
g1155
F0.3
ssg1532
I0
sg1533
I0
sg1153
g1536
sg582
I4
sS'schemas'
p5153
g1718
sbsg1155
F0.3
sbag0
(g1719
g2
Ntp5154
Rp5155
(dp5156
g65
g1805
sg82
g1795
sg1153
Nsg582
I100
sg1154
g1787
sg1155
F0.3
sbag0
(g1719
g2
Ntp5157
Rp5158
(dp5159
g65
g1856
sg82
g1846
sg1153
Nsg582
I101
sg1154
g1787
sg1155
F0.3
sbag0
(g1719
g2
Ntp5160
Rp5161
(dp5162
g65
g1909
sg82
g1897
sg1153
Nsg582
I102
sg1154
g1787
sg1155
F0.3
sbag0
(g1719
g2
Ntp5163
Rp5164
(dp5165
g65
g1988
sg82
g1976
sg1153
Nsg582
I103
sg1154
g1787
sg1155
F0.3
sbag0
(g1719
g2
Ntp5166
Rp5167
(dp5168
g65
g2063
sg82
g2051
sg1153
Nsg582
I104
sg1154
g1787
sg1155
F0.3
sbag0
(g1719
g2
Ntp5169
Rp5170
(dp5171
g65
g2152
sg82
g2138
sg1153
Nsg582
I105
sg1154
g1787
sg1155
F0.3
sbag0
(g1719
g2
Ntp5172
Rp5173
(dp5174
g65
g2243
sg82
g2229
sg1153
Nsg582
I106
sg1154
g1787
sg1155
F0.3
sbag0
(g1719
g2
Ntp5175
Rp5176
(dp5177
g65
g2334
sg82
g2324
sg1153
Nsg582
I107
sg1154
g1787
sg1155
F0.3
sbag0
(g1719
g2
Ntp5178
Rp5179
(dp5180
g65
g2396
sg82
g2386
sg1153
Nsg582
I108
sg1154
g1787
sg1155
F0.3
sbag0
(g1719
g2
Ntp5181
Rp5182
(dp5183
g65
g2455
sg82
g2445
sg1153
Nsg582
I109
sg1154
g1787
sg1155
F0.3
sbag0
(g1719
g2
Ntp5184
Rp5185
(dp5186
g65
g2507
sg82
g2497
sg1153
Nsg582
I110
sg1154
g1787
sg1155
F0.3
sbag0
(g1719
g2
Ntp5187
Rp5188
(dp5189
g65
g2554
sg82
g2544
sg1153
Nsg582
I111
sg1154
g1787
sg1155
F0.3
sbag0
(g1719
g2
Ntp5190
Rp5191
(dp5192
g65
g2603
sg82
g2591
sg1153
Nsg582
I112
sg1154
g1787
sg1155
F0.3
sbag0
(g1719
g2
Ntp5193
Rp5194
(dp5195
g65
g2683
sg82
g2673
sg1153
Nsg582
I113
sg1154
g1787
sg1155
F0.3
sbag0
(g1719
g2
Ntp5196
Rp5197
(dp5198
g65
g2751
sg82
g2739
sg1153
Nsg582
I114
sg1154
g1787
sg1155
F0.3
sbag0
(g1719
g2
Ntp5199
Rp5200
(dp5201
g65
g2845
sg82
g2833
sg1153
Nsg582
I115
sg1154
g1787
sg1155
F0.3
sbag0
(g1719
g2
Ntp5202
Rp5203
(dp5204
g65
g2927
sg82
g2915
sg1153
Nsg582
I116
sg1154
g1787
sg1155
F0.3
sbag0
(g1719
g2
Ntp5205
Rp5206
(dp5207
g65
g3019
sg82
g3009
sg1153
Nsg582
I117
sg1154
g1787
sg1155
F0.3
sbag0
(g1719
g2
Ntp5208
Rp5209
(dp5210
g65
g3084
sg82
g3074
sg1153
Nsg582
I118
sg1154
g1787
sg1155
F0.3
sbag0
(g1719
g2
Ntp5211
Rp5212
(dp5213
g65
g3163
sg82
g3155
sg1153
Nsg582
I119
sg1154
g1787
sg1155
F0.3
sbag0
(g1719
g2
Ntp5214
Rp5215
(dp5216
g65
g3204
sg82
g3196
sg1153
Nsg582
I120
sg1154
g1787
sg1155
F0.3
sbag0
(g1719
g2
Ntp5217
Rp5218
(dp5219
g65
g3245
sg82
g3237
sg1153
Nsg582
I121
sg1154
g1787
sg1155
F0.3
sbag0
(g1719
g2
Ntp5220
Rp5221
(dp5222
g65
g3286
sg82
g3278
sg1153
Nsg582
I122
sg1154
g1787
sg1155
F0.3
sbag0
(g1719
g2
Ntp5223
Rp5224
(dp5225
g65
g3327
sg82
g3319
sg1153
Nsg582
I123
sg1154
g1787
sg1155
F0.3
sbag0
(g1719
g2
Ntp5226
Rp5227
(dp5228
g65
g3368
sg82
g3360
sg1153
Nsg582
I124
sg1154
g1787
sg1155
F0.3
sbag0
(g1719
g2
Ntp5229
Rp5230
(dp5231
g65
g3409
sg82
g3401
sg1153
Nsg582
I125
sg1154
g1787
sg1155
F0.3
sbag0
(g1719
g2
Ntp5232
Rp5233
(dp5234
g65
g3454
sg82
g3446
sg1153
Nsg582
I126
sg1154
g1787
sg1155
F0.3
sbag0
(g1719
g2
Ntp5235
Rp5236
(dp5237
g65
g3499
sg82
g3491
sg1153
Nsg582
I127
sg1154
g1787
sg1155
F0.3
sbag0
(g1719
g2
Ntp5238
Rp5239
(dp5240
g65
g3540
sg82
g3532
sg1153
Nsg582
I128
sg1154
g1787
sg1155
F0.3
sbag0
(g1719
g2
Ntp5241
Rp5242
(dp5243
g65
g3581
sg82
g3573
sg1153
Nsg582
I129
sg1154
g1787
sg1155
F0.3
sbag0
(g1719
g2
Ntp5244
Rp5245
(dp5246
g65
g3622
sg82
g3614
sg1153
Nsg582
I130
sg1154
g1787
sg1155
F0.3
sbag0
(g1719
g2
Ntp5247
Rp5248
(dp5249
g65
g3663
sg82
g3655
sg1153
Nsg582
I131
sg1154
g1787
sg1155
F0.3
sbag0
(g1719
g2
Ntp5250
Rp5251
(dp5252
g65
g3704
sg82
g3696
sg1153
Nsg582
I132
sg1154
g1787
sg1155
F0.3
sbag0
(g1719
g2
Ntp5253
Rp5254
(dp5255
g65
g3745
sg82
g3737
sg1153
Nsg582
I133
sg1154
g1787
sg1155
F0.3
sbag0
(g1719
g2
Ntp5256
Rp5257
(dp5258
g65
g3776
sg82
g3768
sg1153
Nsg582
I134
sg1154
g1787
sg1155
F0.3
sbag0
(g1719
g2
Ntp5259
Rp5260
(dp5261
g65
g3807
sg82
g3799
sg1153
Nsg582
I135
sg1154
g1787
sg1155
F0.3
sbag0
(g1719
g2
Ntp5262
Rp5263
(dp5264
g65
g3838
sg82
g3830
sg1153
Nsg582
I136
sg1154
g1787
sg1155
F0.3
sbag0
(g1719
g2
Ntp5265
Rp5266
(dp5267
g65
g3869
sg82
g3861
sg1153
Nsg582
I137
sg1154
g1787
sg1155
F0.3
sbag0
(g1719
g2
Ntp5268
Rp5269
(dp5270
g65
g3900
sg82
g3892
sg1153
Nsg582
I138
sg1154
g1787
sg1155
F0.3
sbag0
(g1719
g2
Ntp5271
Rp5272
(dp5273
g65
g3931
sg82
g3923
sg1153
Nsg582
I139
sg1154
g1787
sg1155
F0.3
sbag0
(g1719
g2
Ntp5274
Rp5275
(dp5276
g65
g3962
sg82
g3954
sg1153
Nsg582
I140
sg1154
g1787
sg1155
F0.3
sbag0
(g1719
g2
Ntp5277
Rp5278
(dp5279
g65
g3993
sg82
g3985
sg1153
Nsg582
I141
sg1154
g1787
sg1155
F0.3
sbag0
(g1719
g2
Ntp5280
Rp5281
(dp5282
g65
g4034
sg82
g4026
sg1153
Nsg582
I142
sg1154
g1787
sg1155
F0.3
sbag0
(g1719
g2
Ntp5283
Rp5284
(dp5285
g65
g4075
sg82
g4067
sg1153
Nsg582
I143
sg1154
g1787
sg1155
F0.3
sbag0
(g1719
g2
Ntp5286
Rp5287
(dp5288
g65
g4116
sg82
g4108
sg1153
Nsg582
I144
sg1154
g1787
sg1155
F0.3
sbag0
(g1719
g2
Ntp5289
Rp5290
(dp5291
g65
g4157
sg82
g4149
sg1153
Nsg582
I145
sg1154
g1787
sg1155
F0.3
sbag0
(g1719
g2
Ntp5292
Rp5293
(dp5294
g65
g4198
sg82
g4190
sg1153
Nsg582
I146
sg1154
g1787
sg1155
F0.3
sbag0
(g1719
g2
Ntp5295
Rp5296
(dp5297
g65
g4239
sg82
g4231
sg1153
Nsg582
I147
sg1154
g1787
sg1155
F0.3
sbag0
(g1719
g2
Ntp5298
Rp5299
(dp5300
g65
g4280
sg82
g4272
sg1153
Nsg582
I148
sg1154
g1787
sg1155
F0.3
sbag0
(g1719
g2
Ntp5301
Rp5302
(dp5303
g65
g4321
sg82
g4313
sg1153
Nsg582
I149
sg1154
g1787
sg1155
F0.3
sbag0
(g1719
g2
Ntp5304
Rp5305
(dp5306
g65
g4362
sg82
g4354
sg1153
Nsg582
I150
sg1154
g1787
sg1155
F0.3
sbag0
(g1719
g2
Ntp5307
Rp5308
(dp5309
g65
g4403
sg82
g4395
sg1153
Nsg582
I151
sg1154
g1787
sg1155
F0.3
sbag0
(g1719
g2
Ntp5310
Rp5311
(dp5312
g65
g4448
sg82
g4440
sg1153
Nsg582
I152
sg1154
g1787
sg1155
F0.3
sbag0
(g1719
g2
Ntp5313
Rp5314
(dp5315
g65
g4489
sg82
g4481
sg1153
Nsg582
I153
sg1154
g1787
sg1155
F0.3
sbag0
(g1719
g2
Ntp5316
Rp5317
(dp5318
g65
g4530
sg82
g4522
sg1153
Nsg582
I154
sg1154
g1787
sg1155
F0.3
sbag0
(g1719
g2
Ntp5319
Rp5320
(dp5321
g65
g4571
sg82
g4563
sg1153
Nsg582
I155
sg1154
g1787
sg1155
F0.3
sbag0
(g1719
g2
Ntp5322
Rp5323
(dp5324
g65
g4612
sg82
g4604
sg1153
Nsg582
I156
sg1154
g1787
sg1155
F0.3
sbag0
(g1719
g2
Ntp5325
Rp5326
(dp5327
g65
g4653
sg82
g4645
sg1153
Nsg582
I157
sg1154
g1787
sg1155
F0.3
sbag0
(g1719
g2
Ntp5328
Rp5329
(dp5330
g65
g4698
sg82
g4690
sg1153
Nsg582
I158
sg1154
g1787
sg1155
F0.3
sbag0
(g1719
g2
Ntp5331
Rp5332
(dp5333
g65
g4739
sg82
g4731
sg1153
Nsg582
I159
sg1154
g1787
sg1155
F0.3
sbag0
(g1719
g2
Ntp5334
Rp5335
(dp5336
g65
g4780
sg82
g4772
sg1153
Nsg582
I160
sg1154
g1787
sg1155
F0.3
sbag0
(g1719
g2
Ntp5337
Rp5338
(dp5339
g65
g4821
sg82
g4813
sg1153
Nsg582
I161
sg1154
g1787
sg1155
F0.3
sbag0
(g1719
g2
Ntp5340
Rp5341
(dp5342
g65
g4862
sg82
g4854
sg1153
Nsg582
I162
sg1154
g1787
sg1155
F0.3
sbag0
(g1719
g2
Ntp5343
Rp5344
(dp5345
g65
g4903
sg82
g4895
sg1153
Nsg582
I163
sg1154
g1787
sg1155
F0.3
sbag0
(g1719
g2
Ntp5346
Rp5347
(dp5348
g65
g4944
sg82
g4936
sg1153
Nsg582
I164
sg1154
g1787
sg1155
F0.3
sbag0
(g1719
g2
Ntp5349
Rp5350
(dp5351
g65
g4985
sg82
g4977
sg1153
Nsg582
I165
sg1154
g1787
sg1155
F0.3
sbag0
(g1719
g2
Ntp5352
Rp5353
(dp5354
g65
g5026
sg82
g5018
sg1153
Nsg582
I166
sg1154
g1787
sg1155
F0.3
sbag0
(g1719
g2
Ntp5355
Rp5356
(dp5357
g65
g5067
sg82
g5059
sg1153
Nsg582
I167
sg1154
g1787
sg1155
F0.3
sbag0
(g1719
g2
Ntp5358
Rp5359
(dp5360
g65
g5108
sg82
g5100
sg1153
Nsg582
I168
sg1154
g1787
sg1155
F0.3
sbasg1573
Nsg292
g1552
sg582
I22
sg1517
g1703
sbag1698
asg1530
(dp5361
sg1532
I0
sg1533
I0
sg1153
g1536
sg582
I5
sbsbsS'port_from'
p5362
g1575
sg1153
g1536
sg582
I1
sbag0
(g1690
g2
Ntp5363
Rp5364
(dp5365
g1694
I0
sg65
g1668
sg1695
I0
sg1696
g1716
sg5362
g5143
sg1153
g1536
sg582
I2
sbag0
(g1690
g2
Ntp5366
Rp5367
(dp5368
g1694
I0
sg65
g1668
sg1695
I0
sg1696
g0
(g69
g2
Ntp5369
Rp5370
(dp5371
g1571
Nsg65
S'from_cxn_retrieval_P'
p5372
sg74
Nsg75
Nsg1573
Nsg292
g1552
sg582
I14
sg1517
g0
(clanguage_schemas
GRAMMATICAL_WM_P
p5373
g2
Ntp5374
Rp5375
(dp5376
g63
(dp5377
g5372
NsS'from_phonological_WM_P'
p5378
Nsg1700
Nsg1560
Nssg1562
(lp5379
sg65
g1677
sg1565
(lp5380
sg67
(lp5381
g0
(g69
g2
Ntp5382
Rp5383
(dp5384
g1571
Nsg65
g1521
sg74
Nsg75
Nsg1573
Nsg292
g1516
sg582
I17
sg1517
g5375
sbag0
(g69
g2
Ntp5385
Rp5386
(dp5387
g1571
Nsg65
S'to_phonological_WM_P'
p5388
sg74
Nsg75
Nsg1573
Nsg292
g1516
sg582
I18
sg1517
g5375
sbag0
(g69
g2
Ntp5389
Rp5390
(dp5391
g65
g1589
sg74
Nsg75
Nsg292
g1516
sg582
I19
sg1517
g5375
sbasg1522
(dp5392
g1589
Nsg5388
Nsg1521
Nssg1527
F1.0
sg1591
(lp5393
sg1528
(lp5394
g0
(g69
g2
Ntp5395
Rp5396
(dp5397
g1571
Nsg65
g1700
sg74
Nsg75
(dp5398
g577
(dp5399
VACTION_1673847
p5400
cnumpy.core.multiarray
scalar
p5401
(cnumpy
dtype
p5402
(S'f8'
p5403
I0
I1
tp5404
Rp5405
(I3
S'<'
p5406
NNNI-1
I-1
I0
tp5407
bS'\xa6\xd8^\xa2\xdd\x98\xeb?'
p5408
tp5409
Rp5410
sVEVENT_1673846
p5411
g5401
(g5405
S'\x81Q\xa2\x8d\xcf\x9b\xeb?'
p5412
tp5413
Rp5414
sVMAN_1673841
p5415
g5401
(g5405
S'4\x89\x18x\x9a\x93\xeb?'
p5416
tp5417
Rp5418
sVKICK_1673849
p5419
g5401
(g5405
S'\xe0&\xc0\x98#\x8b\xeb?'
p5420
tp5421
Rp5422
sVWATERING_CAN_1673844
p5423
g5401
(g5405
S'\xfa\xc1\x82\xc7\x91\xad\xeb?'
p5424
tp5425
Rp5426
sVENTITY_1673843
p5427
g5401
(g5405
S'`4\xfd\x9e\x11\xaa\xeb?'
p5428
tp5429
Rp5430
sVENTITY_1673840
p5431
g5401
(g5405
S'z\x05Ie]\xa2\xeb?'
p5432
tp5433
Rp5434
ssg850
(dp5435
(g5400
g5419
tp5436
g5401
(g5405
S'a3f\x0c\xb4\x88\xeb?'
p5437
tp5438
Rp5439
s(g5400
g5431
tp5440
g5401
(g5405
S'\x8b\x15Ez\x82\x97\xeb?'
p5441
tp5442
Rp5443
s(g5400
g5427
tp5444
g5401
(g5405
S'-\\5xe\xa2\xeb?'
p5445
tp5446
Rp5447
s(g5411
g5400
tp5448
g5401
(g5405
S'\x92cU\xe8}\xad\xeb?'
p5449
tp5450
Rp5451
s(g5427
g5423
tp5452
g5401
(g5405
S'\n\x95\xe9k\xb6\xa0\xeb?'
p5453
tp5454
Rp5455
s(g5431
g5415
tp5456
g5401
(g5405
S'\xd6\xcb\xf3\x8d\xfd\xae\xeb?'
p5457
tp5458
Rp5459
s(g5431
g5411
tp5460
g5401
(g5405
S'\xd0\x0f\x85L$\xaa\xeb?'
p5461
tp5462
Rp5463
sssg1573
Nsg292
g1552
sg582
I13
sg1517
g5375
sbag5370
ag0
(g69
g2
Ntp5464
Rp5465
(dp5466
g1571
Nsg65
g1560
sg74
Nsg75
(dp5467
S'params_style'
p5468
(dp5469
S'continuity'
p5470
F0.1
sS'form_length'
p5471
F0.0
sS'sem_length'
p5472
F0.5
sS'activation'
p5473
F0.7
ssS'pressure'
p5474
g5401
(g5405
S'+\x87\x16\xd9\xce\xf7\xef?'
p5475
tp5476
Rp5477
sg1606
I01
ssg1573
Nsg292
g1552
sg582
I15
sg1517
g5375
sbag0
(g69
g2
Ntp5478
Rp5479
(dp5480
g1571
Nsg65
g5378
sg74
Nsg75
(lp5481
sg1573
Nsg292
g1552
sg582
I16
sg1517
g5375
sbasg1607
(dp5482
g1609
(dp5483
sg1611
(dp5484
g1613
(lp5485
sg1615
(dp5486
g1617
(lp5487
sg1619
(lp5488
sg1621
(lp5489
ssg1623
(lp5490
sg1532
(lp5491
sg1626
(lp5492
sssg1530
(dp5493
g1629
(dp5494
g1631
F1.0
sS'deact_weight'
p5495
F0.0
sg1632
F-10.0
sg1633
F1.0
sg1634
F1.0
sg1635
F1.0
sS'sub_threshold_r'
p5496
F0.8
sg1636
F0.3
sg1637
F0.0
sg1638
F0.01
ssg1639
(dp5497
g1641
g5401
(g5405
S'\x00\x00\x00\x00\x00@\x8f@'
p5498
tp5499
Rp5500
sg1642
g5401
(g5405
S'\x00\x00\x00\x00\x00\x00$@'
p5501
tp5502
Rp5503
sg1643
F0.001
sg1644
F0.0
sg1645
g5401
(g5405
S'\x00\x00\x00\x00\x00\x00\x00@'
p5504
tp5505
Rp5506
sg1646
g5401
(g5405
S'\x00\x00\x00\x00\x00\x00$@'
p5507
tp5508
Rp5509
sg1647
F1.0
ssS'style'
p5510
(dp5511
g5470
F0.1
sg5471
F0.0
sg5472
F0.5
sg5473
F0.7
sssg1532
I0
sg1533
I0
sg1153
g1536
sg582
I3
sbsbsg5362
g1709
sg1153
g1536
sg582
I3
sbag0
(g1690
g2
Ntp5512
Rp5513
(dp5514
g1694
I0
sg65
g1668
sg1695
I0
sg1696
g5396
sg5362
g1569
sg1153
g1536
sg582
I4
sbag0
(g1690
g2
Ntp5515
Rp5516
(dp5517
g1694
I0
sg65
g1668
sg1695
I0
sg1696
g1601
sg5362
g5383
sg1153
g1536
sg582
I5
sbag0
(g1690
g2
Ntp5518
Rp5519
(dp5520
g1694
I0
sg65
g1668
sg1695
I0
sg1696
g0
(g69
g2
Ntp5521
Rp5522
(dp5523
g1571
Nsg65
g1558
sg74
Nsg75
Nsg1573
Nsg292
g1552
sg582
I25
sg1517
g0
(clanguage_schemas
PHON_WM_P
p5524
g2
Ntp5525
Rp5526
(dp5527
g63
(dp5528
g1558
Nssg1562
(lp5529
sg65
g1673
sg1565
(lp5530
sg67
(lp5531
g0
(g69
g2
Ntp5532
Rp5533
(dp5534
g1571
Nsg65
S'to_utter'
p5535
sg74
Nsg75
Nsg1573
Nsg292
g1516
sg582
I26
sg1517
g5526
sbag0
(g69
g2
Ntp5536
Rp5537
(dp5538
g1571
Nsg65
g1572
sg74
Nsg75
Nsg1573
Nsg292
g1516
sg582
I27
sg1517
g5526
sbag0
(g69
g2
Ntp5539
Rp5540
(dp5541
g1571
Nsg65
g1581
sg74
Nsg75
Nsg1573
Nsg292
g1516
sg582
I28
sg1517
g5526
sbag0
(g69
g2
Ntp5542
Rp5543
(dp5544
g65
g1589
sg74
Nsg75
Nsg292
g1516
sg582
I29
sg1517
g5526
sbasg1522
(dp5545
g1589
Nsg1572
Nsg5535
Nsg1581
NssS'needs_filler'
p5546
I01
sg1527
F1.0
sg1591
(lp5547
sg1528
(lp5548
g5522
asS'filler'
p5549
S'....'
p5550
sg1607
(dp5551
g1609
(dp5552
sg1611
(dp5553
g1613
(lp5554
sg1615
(dp5555
g1617
(lp5556
sg1619
(lp5557
sg1621
(lp5558
ssg1623
(lp5559
sg1532
(lp5560
sg1626
(lp5561
sssg1530
(dp5562
g1629
(dp5563
g1631
F1.0
sg1632
F0.0
sg1633
F1.0
sg1634
F1.0
sg1635
F0.0
sg1636
F0.0
sg1637
F0.0
sg1638
F0.01
ssg1639
(dp5564
g1641
F100.0
sg1642
F10.0
sg1643
F0.001
sg1644
F0.0
sg1645
F1.0
sg1646
F1.0
sg1647
F1.0
sssg1532
I0
sg1533
I0
sg1153
g1536
sS'phon_sequence'
p5565
(lp5566
sg582
I6
sbsbsg5362
g5386
sg1153
g1536
sg582
I6
sbag0
(g1690
g2
Ntp5567
Rp5568
(dp5569
g1694
I0
sg65
g1668
sg1695
I0
sg1696
g5479
sg5362
g5537
sg1153
g1536
sg582
I7
sbag0
(g1690
g2
Ntp5570
Rp5571
(dp5572
g1694
I0
sg65
g1668
sg1695
I0
sg1696
g0
(g69
g2
Ntp5573
Rp5574
(dp5575
g1571
Nsg65
g1700
sg74
Nsg75
I01
sg1573
Nsg292
g1552
sg582
I32
sg1517
g0
(clanguage_schemas
CONTROL
p5576
g2
Ntp5577
Rp5578
(dp5579
g63
(dp5580
g5378
Nsg1700
Nssg65
g1663
sg67
(lp5581
g0
(g69
g2
Ntp5582
Rp5583
(dp5584
g1571
Nsg65
g1521
sg74
Nsg75
Nsg1573
Nsg292
g1516
sg582
I34
sg1517
g5578
sbag0
(g69
g2
Ntp5585
Rp5586
(dp5587
g1571
Nsg65
g1572
sg74
Nsg75
Nsg1573
Nsg292
g1516
sg582
I35
sg1517
g5578
sbag0
(g69
g2
Ntp5588
Rp5589
(dp5590
g65
S'to_grammatical_WM_C'
p5591
sg74
Nsg75
I00
sg292
g1516
sg582
I36
sg1517
g5578
sbasg1522
(dp5592
g1572
Nsg5591
Nsg1521
Nssg1527
F1.0
sg1528
(lp5593
g5574
ag0
(g69
g2
Ntp5594
Rp5595
(dp5596
g1571
Nsg65
g5378
sg74
Nsg75
Nsg1573
Nsg292
g1552
sg582
I33
sg1517
g5578
sbasS'state'
p5597
(dp5598
g1606
I00
sS'unexpressed_sem'
p5599
I00
sS'mode'
p5600
g1606
sS'last_prod_time'
p5601
I0
ssg1530
(dp5602
g5510
(dp5603
g5470
F0.1
sg5471
F0.0
sg5473
F0.7
sg5472
F0.5
ssS'task'
p5604
(dp5605
S'time_pressure'
p5606
g5401
(g5405
S'\x00\x00\x00\x00\x00@\x8f@'
p5607
tp5608
Rp5609
sS'start_produce'
p5610
g5401
(g5405
S'\x00\x00\x00\x00\x00@\x8f@'
p5611
tp5612
Rp5613
sssg1532
I0
sg1533
I0
sg1153
g1536
sg582
I8
sbsbsg5362
g1579
sg1153
g1536
sg582
I8
sbag0
(g1690
g2
Ntp5614
Rp5615
(dp5616
g1694
I0
sg65
g1668
sg1695
I0
sg1696
g0
(g69
g2
Ntp5617
Rp5618
(dp5619
g1571
Nsg65
g5378
sg74
Nsg75
Nsg1573
Nsg292
g1552
sg582
I30
sg1517
g0
(clanguage_schemas
UTTER
p5620
g2
Ntp5621
Rp5622
(dp5623
g63
(dp5624
g5378
Nssg65
g1666
sg67
(lp5625
g0
(g69
g2
Ntp5626
Rp5627
(dp5628
g65
g1589
sg74
Nsg75
Nsg292
g1516
sg582
I31
sg1517
g5622
sbasg1522
(dp5629
g1589
NssS'utterance_stack'
p5630
(lp5631
sg1527
F1.0
sg1528
(lp5632
g5618
asg1530
(dp5633
S'speech_rate'
p5634
F1.0
ssg1532
I0
sg1533
I0
sg1153
g1536
sg582
I7
sbsbsg5362
g5533
sg1153
g1536
sg582
I9
sbag0
(g1690
g2
Ntp5635
Rp5636
(dp5637
g1694
I0
sg65
g1668
sg1695
I0
sg1696
g5595
sg5362
g5540
sg1153
g1536
sg582
I10
sbag0
(g1690
g2
Ntp5638
Rp5639
(dp5640
g1694
I0
sg65
g1668
sg1695
I0
sg1696
g5465
sg5362
g5586
sg1153
g1536
sg582
I11
sbag0
(g1690
g2
Ntp5641
Rp5642
(dp5643
g1694
I0
sg65
g1668
sg1695
I0
sg1696
g1604
sg5362
g5583
sg1153
g1536
sg582
I12
sbasg1530
(dp5644
g1663
g5602
sg1673
g5562
sg66
g1531
sg1681
g5152
sg1685
g5361
sg1564
g1628
sg1666
g5633
sg1677
g5493
ssg1532
F0.0
sS'set_up_time'
p5645
I10
sS'input'
p5646
NsS'default_params'
p5647
Nsg1527
F1.0
sS'output_ports'
p5648
(lp5649
g5627
ag5543
ag5390
ag1587
asg5153
(dp5650
g1663
g5578
sg1673
g5526
sg66
g61
sg1685
g1703
sg1677
g5375
sg1564
g1555
sg1666
g5622
sg1681
g1787
ssbsg582
I2
sg5153
g76
sbsS'speed_param'
p5651
I100
sS'ground_truths'
p5652
(lp5653
Vwoman punch man who kick can
p5654
aVman who kick can is punch -ed by woman
p5655
aVwoman punch man can is punch -ed by
p5656
aVman can is punch -ed by is punch -ed by woman
p5657
aVlady punch man who kick can
p5658
aVman who kick can is punch -ed by lady
p5659
aVlady punch man can is punch -ed by
p5660
aVman can is kick -ed by is punch -ed by lady
p5661
asS'is_macro'
p5662
I01
sb.