ccopy_reg
_reconstructor
p0
(clanguage_schemas
SEM_GENERATOR
p1
c__builtin__
object
p2
Ntp3
Rp4
(dp5
S'sem_inputs'
p6
(dp7
S'{}'
p8
(dp9
Vtiming
p10
(lp11
F0.0
aF100.0
aF200.0
asVsem_rate
p12
I1
sVpropositions
p13
(dp14
VP2
p15
(lp16
VWOMAN(woman)
p17
aVIS(is)
p18
aVis(e, woman)
p19
asVP3
p20
(lp21
VYOUNG(young, 0.8)
p22
aVMODIFY(mod, 0.7)
p23
aVmod(e, young)
p24
asVP1
p25
(lp26
VENTITY(e,F,0.9)
p27
assVcomments
p28
Vtest property-modifier dynamic.
p29
sVsequence
p30
(lp31
VP1
p32
aVP2
p33
aVP3
p34
asssS'conceptLTM'
p35
g0
(clanguage_schemas
CONCEPT_LTM
p36
g2
Ntp37
Rp38
(dp39
S'inputs'
p40
(dp41
sS'name'
p42
S'Concept_LTM'
p43
sS'out_ports'
p44
(lp45
g0
(cschema_theory
PORT
p46
g2
Ntp47
Rp48
(dp49
g42
S'to_conceptualizer'
p50
sS'data'
p51
NsS'value'
p52
(lp53
g0
(clanguage_schemas
CPT_EVENT_SCHEMA
p54
g2
Ntp55
Rp56
(dp57
g42
S'?'
p58
sS'content'
p59
(dp60
S'concept'
p61
g0
(cconcept
CONCEPT
p62
g2
Ntp63
Rp64
(dp65
S'meaning'
p66
g58
sS'conceptual_knowledge'
p67
g0
(cconcept
CONCEPTUAL_KNOWLEDGE
p68
g2
Ntp69
Rp70
(dp71
S'graph'
p72
g0
(cnetworkx.classes.digraph
DiGraph
p73
g2
Ntp74
Rp75
(dp76
S'node'
p77
(dp78
I1
(dp79
g66
g58
ssI2
(dp80
g66
S'CONCEPT'
p81
ssI3
(dp82
g66
VACTION
p83
ssI4
(dp84
g66
VSYMMETRIC
p85
ssI5
(dp86
g66
VMEET
p87
ssI6
(dp88
g66
VSHAKE_HANDS
p89
ssI7
(dp90
g66
VINTRANSITIVE
p91
ssI8
(dp92
g66
VLAUGH
p93
ssI9
(dp94
g66
VTRANSITIVE
p95
ssI10
(dp96
g66
VHIT
p97
ssI11
(dp98
g66
VWATCH
p99
ssI12
(dp100
g66
VPUNCH
p101
ssI13
(dp102
g66
VSPLASH
p103
ssI14
(dp104
g66
VTALK
p105
ssI15
(dp106
g66
VKISS
p107
ssI16
(dp108
g66
VSQUIRT
p109
ssI17
(dp110
g66
VKICK
p111
ssI18
(dp112
g66
VWEAR
p113
ssI19
(dp114
g66
VDITRANSITIVE
p115
ssI20
(dp116
g66
VSEND
p117
ssI21
(dp118
g66
VGIVE
p119
ssI22
(dp120
g66
VPROPERTY
p121
ssI23
(dp122
g66
VCOLOR
p123
ssI24
(dp124
g66
VBLUE
p125
ssI25
(dp126
g66
VGREEN
p127
ssI26
(dp128
g66
VWHITE
p129
ssI27
(dp130
g66
VBLACK
p131
ssI28
(dp132
g66
VRED
p133
ssI29
(dp134
g66
VAPPEARANCE
p135
ssI30
(dp136
g66
VYOUNG
p137
ssI31
(dp138
g66
VPRETTY
p139
ssI32
(dp140
g66
VHANDSOME
p141
ssI33
(dp142
g66
VSIZE
p143
ssI34
(dp144
g66
VSMALL
p145
ssI35
(dp146
g66
VBIG
p147
ssI36
(dp148
g66
VRELATION
p149
ssI37
(dp150
g66
VACTION_FRAME
p151
ssI38
(dp152
g66
VMODIFY
p153
ssI39
(dp154
g66
VTHEME
p155
ssI40
(dp156
g66
VRECIPIENT
p157
ssI41
(dp158
g66
VATTR
p159
ssI42
(dp160
g66
VAGT_PT
p161
ssI43
(dp162
g66
VPATIENT
p163
ssI44
(dp164
g66
VAGT+PT
p165
ssI45
(dp166
g66
VAGENT
p167
ssI46
(dp168
g66
VEVENT_FRAME
p169
ssI47
(dp170
g66
VTEMPORAL
p171
ssI48
(dp172
g66
VCONCURRENT
p173
ssI49
(dp174
g66
VSUCCESSIVE
p175
ssI50
(dp176
g66
VSPATIAL
p177
ssI51
(dp178
g66
VIN
p179
ssI52
(dp180
g66
VIS
p181
ssI53
(dp182
g66
VOBJECT_FRAME
p183
ssI54
(dp184
g66
VEVENT
p185
ssI55
(dp186
g66
VENTITY
p187
ssI56
(dp188
g66
VANIMATE
p189
ssI57
(dp190
g66
VANIMAL
p191
ssI58
(dp192
g66
VHUMAN
p193
ssI59
(dp194
g66
VOBJECT
p195
ssI60
(dp196
g66
VITEM
p197
ssI61
(dp198
g66
VWAGON
p199
ssI62
(dp200
g66
VWATERING_CAN
p201
ssI63
(dp202
g66
VBAG
p203
ssI64
(dp204
g66
VTREE
p205
ssI65
(dp206
g66
VHOOK
p207
ssI66
(dp208
g66
VCELLO
p209
ssI67
(dp210
g66
VBOOKSHELF
p211
ssI68
(dp212
g66
VCLOTHING
p213
ssI69
(dp214
g66
VTSHIRT
p215
ssI70
(dp216
g66
VDRESS
p217
ssI71
(dp218
g66
VSHIRT
p219
ssI72
(dp220
g66
VSUIT
p221
ssI73
(dp222
g66
VTURTLE
p223
ssI74
(dp224
g66
VMOUSE
p225
ssI75
(dp226
g66
VDOG
p227
ssI76
(dp228
g66
VBOY
p229
ssI77
(dp230
g66
VWOMAN
p231
ssI78
(dp232
g66
VPEOPLE
p233
ssI79
(dp234
g66
VPOLICEMAN
p235
ssI80
(dp236
g66
VHUNTER
p237
ssI81
(dp238
g66
VBALLERINA
p239
ssI82
(dp240
g66
VCELLIST
p241
ssI83
(dp242
g66
VGIRL
p243
ssI84
(dp244
g66
VFENCER
p245
ssI85
(dp246
g66
VROBBER
p247
ssI86
(dp248
g66
VMAN
p249
ssI87
(dp250
g66
VPLACE
p251
ssI88
(dp252
g66
VBOXINGRING
p253
ssI89
(dp254
g66
VPARK
p255
ssI90
(dp256
g66
VMALE
p257
ssI91
(dp258
g66
VFEMALE
p259
sssS'node_dict_factory'
p260
c__builtin__
dict
p261
sS'edge_attr_dict_factory'
p262
g261
sS'succ'
p263
(dp264
I1
(dp265
sI2
(dp266
sI3
(dp267
I2
(dp268
S'type'
p269
S'is_a'
p270
sssI4
(dp271
I3
(dp272
g269
g270
sssI5
(dp273
I4
(dp274
g269
g270
sssI6
(dp275
I4
(dp276
g269
g270
sssI7
(dp277
I3
(dp278
g269
g270
sssI8
(dp279
I7
(dp280
g269
g270
sssI9
(dp281
I3
(dp282
g269
g270
sssI10
(dp283
I9
(dp284
g269
g270
sssI11
(dp285
I9
(dp286
g269
g270
sssI12
(dp287
I9
(dp288
g269
g270
sssI13
(dp289
I9
(dp290
g269
g270
sssI14
(dp291
I9
(dp292
g269
g270
sssI15
(dp293
I9
(dp294
g269
g270
sssI16
(dp295
I9
(dp296
g269
g270
sssI17
(dp297
I9
(dp298
g269
g270
sssI18
(dp299
I9
(dp300
g269
g270
sssI19
(dp301
I3
(dp302
g269
g270
sssI20
(dp303
I19
(dp304
g269
g270
sssI21
(dp305
I19
(dp306
g269
g270
sssI22
(dp307
I2
(dp308
g269
g270
sssI23
(dp309
I22
(dp310
g269
g270
sssI24
(dp311
I23
(dp312
g269
g270
sssI25
(dp313
I23
(dp314
g269
g270
sssI26
(dp315
I23
(dp316
g269
g270
sssI27
(dp317
I23
(dp318
g269
g270
sssI28
(dp319
I23
(dp320
g269
g270
sssI29
(dp321
I22
(dp322
g269
g270
sssI30
(dp323
I29
(dp324
g269
g270
sssI31
(dp325
I29
(dp326
g269
g270
sssI32
(dp327
I29
(dp328
g269
g270
sssI33
(dp329
I22
(dp330
g269
g270
sssI34
(dp331
I33
(dp332
g269
g270
sssI35
(dp333
I33
(dp334
g269
g270
sssI36
(dp335
I2
(dp336
g269
g270
sssI37
(dp337
I36
(dp338
g269
g270
sssI38
(dp339
I37
(dp340
g269
g270
ssI53
(dp341
g269
g270
sssI39
(dp342
I37
(dp343
g269
g270
sssI40
(dp344
I37
(dp345
g269
g270
sssI41
(dp346
I37
(dp347
g269
g270
ssI53
(dp348
g269
g270
sssI42
(dp349
I37
(dp350
g269
g270
sssI43
(dp351
I42
(dp352
g269
g270
sssI44
(dp353
I43
(dp354
g269
g270
ssI45
(dp355
g269
g270
sssI45
(dp356
I42
(dp357
g269
g270
sssI46
(dp358
I36
(dp359
g269
g270
sssI47
(dp360
I46
(dp361
g269
g270
sssI48
(dp362
I47
(dp363
g269
g270
sssI49
(dp364
I47
(dp365
g269
g270
sssI50
(dp366
I46
(dp367
g269
g270
sssI51
(dp368
I50
(dp369
g269
g270
sssI52
(dp370
I36
(dp371
g269
g270
sssI53
(dp372
I36
(dp373
g269
g270
sssI54
(dp374
I2
(dp375
g269
g270
sssI55
(dp376
I2
(dp377
g269
g270
sssI56
(dp378
I55
(dp379
g269
g270
sssI57
(dp380
I56
(dp381
g269
g270
ssI59
(dp382
g269
g270
sssI58
(dp383
I56
(dp384
g269
g270
ssI59
(dp385
g269
g270
sssI59
(dp386
I55
(dp387
g269
g270
sssI60
(dp388
I59
(dp389
g269
g270
sssI61
(dp390
I60
(dp391
g269
g270
sssI62
(dp392
I60
(dp393
g269
g270
sssI63
(dp394
I60
(dp395
g269
g270
sssI64
(dp396
I60
(dp397
g269
g270
sssI65
(dp398
I60
(dp399
g269
g270
sssI66
(dp400
I60
(dp401
g269
g270
sssI67
(dp402
I60
(dp403
g269
g270
sssI68
(dp404
I60
(dp405
g269
g270
sssI69
(dp406
I68
(dp407
g269
g270
sssI70
(dp408
I68
(dp409
g269
g270
sssI71
(dp410
I68
(dp411
g269
g270
sssI72
(dp412
I68
(dp413
g269
g270
sssI73
(dp414
I57
(dp415
g269
g270
sssI74
(dp416
I57
(dp417
g269
g270
sssI75
(dp418
I57
(dp419
g269
g270
sssI76
(dp420
I58
(dp421
g269
g270
ssI90
(dp422
g269
g270
sssI77
(dp423
I58
(dp424
g269
g270
ssI91
(dp425
g269
g270
sssI78
(dp426
I58
(dp427
g269
g270
sssI79
(dp428
I58
(dp429
g269
g270
sssI80
(dp430
I58
(dp431
g269
g270
sssI81
(dp432
I58
(dp433
g269
g270
ssI91
(dp434
g269
g270
sssI82
(dp435
I58
(dp436
g269
g270
sssI83
(dp437
I58
(dp438
g269
g270
ssI91
(dp439
g269
g270
sssI84
(dp440
I58
(dp441
g269
g270
sssI85
(dp442
I58
(dp443
g269
g270
sssI86
(dp444
I58
(dp445
g269
g270
ssI90
(dp446
g269
g270
sssI87
(dp447
I55
(dp448
g269
g270
sssI88
(dp449
I87
(dp450
g269
g270
sssI89
(dp451
I87
(dp452
g269
g270
sssI90
(dp453
I55
(dp454
g269
g270
sssI91
(dp455
I55
(dp456
g269
g270
ssssS'edge'
p457
g264
sg72
(dp458
sS'adjlist_dict_factory'
p459
g261
sS'adj'
p460
g264
sS'pred'
p461
(dp462
I1
(dp463
sI2
(dp464
I3
g268
sI36
g336
sI54
g375
sI22
g308
sI55
g377
ssI3
(dp465
I9
g282
sI19
g302
sI4
g272
sI7
g278
ssI4
(dp466
I5
g274
sI6
g276
ssI5
(dp467
sI6
(dp468
sI7
(dp469
I8
g280
ssI8
(dp470
sI9
(dp471
I10
g284
sI11
g286
sI12
g288
sI13
g290
sI14
g292
sI15
g294
sI16
g296
sI17
g298
sI18
g300
ssI10
(dp472
sI11
(dp473
sI12
(dp474
sI13
(dp475
sI14
(dp476
sI15
(dp477
sI16
(dp478
sI17
(dp479
sI18
(dp480
sI19
(dp481
I20
g304
sI21
g306
ssI20
(dp482
sI21
(dp483
sI22
(dp484
I33
g330
sI29
g322
sI23
g310
ssI23
(dp485
I24
g312
sI25
g314
sI26
g316
sI27
g318
sI28
g320
ssI24
(dp486
sI25
(dp487
sI26
(dp488
sI27
(dp489
sI28
(dp490
sI29
(dp491
I32
g328
sI30
g324
sI31
g326
ssI30
(dp492
sI31
(dp493
sI32
(dp494
sI33
(dp495
I34
g332
sI35
g334
ssI34
(dp496
sI35
(dp497
sI36
(dp498
I52
g371
sI37
g338
sI46
g359
sI53
g373
ssI37
(dp499
I40
g345
sI41
g347
sI42
g350
sI38
g340
sI39
g343
ssI38
(dp500
sI39
(dp501
sI40
(dp502
sI41
(dp503
sI42
(dp504
I43
g352
sI45
g357
ssI43
(dp505
I44
g354
ssI44
(dp506
sI45
(dp507
I44
g355
ssI46
(dp508
I50
g367
sI47
g361
ssI47
(dp509
I48
g363
sI49
g365
ssI48
(dp510
sI49
(dp511
sI50
(dp512
I51
g369
ssI51
(dp513
sI52
(dp514
sI53
(dp515
I41
g348
sI38
g341
ssI54
(dp516
sI55
(dp517
I56
g379
sI91
g456
sI90
g454
sI59
g387
sI87
g448
ssI56
(dp518
I57
g381
sI58
g384
ssI57
(dp519
I73
g415
sI74
g417
sI75
g419
ssI58
(dp520
I76
g421
sI77
g424
sI78
g427
sI79
g429
sI80
g431
sI81
g433
sI82
g436
sI83
g438
sI84
g441
sI85
g443
sI86
g445
ssI59
(dp521
I57
g382
sI58
g385
sI60
g389
ssI60
(dp522
I64
g397
sI65
g399
sI66
g401
sI67
g403
sI68
g405
sI61
g391
sI62
g393
sI63
g395
ssI61
(dp523
sI62
(dp524
sI63
(dp525
sI64
(dp526
sI65
(dp527
sI66
(dp528
sI67
(dp529
sI68
(dp530
I72
g413
sI69
g407
sI70
g409
sI71
g411
ssI69
(dp531
sI70
(dp532
sI71
(dp533
sI72
(dp534
sI73
(dp535
sI74
(dp536
sI75
(dp537
sI76
(dp538
sI77
(dp539
sI78
(dp540
sI79
(dp541
sI80
(dp542
sI81
(dp543
sI82
(dp544
sI83
(dp545
sI84
(dp546
sI85
(dp547
sI86
(dp548
sI87
(dp549
I88
g450
sI89
g452
ssI88
(dp550
sI89
(dp551
sI90
(dp552
I76
g422
sI86
g446
ssI91
(dp553
I81
g434
sI83
g439
sI77
g425
sssbsS'nodes'
p554
(lp555
g64
ag0
(g62
g2
Ntp556
Rp557
(dp558
g66
g81
sg67
g70
sS'id'
p559
I2
sg42
g81
sbag0
(g62
g2
Ntp560
Rp561
(dp562
g66
g83
sg67
g70
sg559
I3
sg42
g83
sbag0
(g62
g2
Ntp563
Rp564
(dp565
g66
g85
sg67
g70
sg559
I4
sg42
g85
sbag0
(g62
g2
Ntp566
Rp567
(dp568
g66
g87
sg67
g70
sg559
I5
sg42
g87
sbag0
(g62
g2
Ntp569
Rp570
(dp571
g66
g89
sg67
g70
sg559
I6
sg42
g89
sbag0
(g62
g2
Ntp572
Rp573
(dp574
g66
g91
sg67
g70
sg559
I7
sg42
g91
sbag0
(g62
g2
Ntp575
Rp576
(dp577
g66
g93
sg67
g70
sg559
I8
sg42
g93
sbag0
(g62
g2
Ntp578
Rp579
(dp580
g66
g95
sg67
g70
sg559
I9
sg42
g95
sbag0
(g62
g2
Ntp581
Rp582
(dp583
g66
g97
sg67
g70
sg559
I10
sg42
g97
sbag0
(g62
g2
Ntp584
Rp585
(dp586
g66
g99
sg67
g70
sg559
I11
sg42
g99
sbag0
(g62
g2
Ntp587
Rp588
(dp589
g66
g101
sg67
g70
sg559
I12
sg42
g101
sbag0
(g62
g2
Ntp590
Rp591
(dp592
g66
g103
sg67
g70
sg559
I13
sg42
g103
sbag0
(g62
g2
Ntp593
Rp594
(dp595
g66
g105
sg67
g70
sg559
I14
sg42
g105
sbag0
(g62
g2
Ntp596
Rp597
(dp598
g66
g107
sg67
g70
sg559
I15
sg42
g107
sbag0
(g62
g2
Ntp599
Rp600
(dp601
g66
g109
sg67
g70
sg559
I16
sg42
g109
sbag0
(g62
g2
Ntp602
Rp603
(dp604
g66
g111
sg67
g70
sg559
I17
sg42
g111
sbag0
(g62
g2
Ntp605
Rp606
(dp607
g66
g113
sg67
g70
sg559
I18
sg42
g113
sbag0
(g62
g2
Ntp608
Rp609
(dp610
g66
g115
sg67
g70
sg559
I19
sg42
g115
sbag0
(g62
g2
Ntp611
Rp612
(dp613
g66
g117
sg67
g70
sg559
I20
sg42
g117
sbag0
(g62
g2
Ntp614
Rp615
(dp616
g66
g119
sg67
g70
sg559
I21
sg42
g119
sbag0
(g62
g2
Ntp617
Rp618
(dp619
g66
g121
sg67
g70
sg559
I22
sg42
g121
sbag0
(g62
g2
Ntp620
Rp621
(dp622
g66
g123
sg67
g70
sg559
I23
sg42
g123
sbag0
(g62
g2
Ntp623
Rp624
(dp625
g66
g125
sg67
g70
sg559
I24
sg42
g125
sbag0
(g62
g2
Ntp626
Rp627
(dp628
g66
g127
sg67
g70
sg559
I25
sg42
g127
sbag0
(g62
g2
Ntp629
Rp630
(dp631
g66
g129
sg67
g70
sg559
I26
sg42
g129
sbag0
(g62
g2
Ntp632
Rp633
(dp634
g66
g131
sg67
g70
sg559
I27
sg42
g131
sbag0
(g62
g2
Ntp635
Rp636
(dp637
g66
g133
sg67
g70
sg559
I28
sg42
g133
sbag0
(g62
g2
Ntp638
Rp639
(dp640
g66
g135
sg67
g70
sg559
I29
sg42
g135
sbag0
(g62
g2
Ntp641
Rp642
(dp643
g66
g137
sg67
g70
sg559
I30
sg42
g137
sbag0
(g62
g2
Ntp644
Rp645
(dp646
g66
g139
sg67
g70
sg559
I31
sg42
g139
sbag0
(g62
g2
Ntp647
Rp648
(dp649
g66
g141
sg67
g70
sg559
I32
sg42
g141
sbag0
(g62
g2
Ntp650
Rp651
(dp652
g66
g143
sg67
g70
sg559
I33
sg42
g143
sbag0
(g62
g2
Ntp653
Rp654
(dp655
g66
g145
sg67
g70
sg559
I34
sg42
g145
sbag0
(g62
g2
Ntp656
Rp657
(dp658
g66
g147
sg67
g70
sg559
I35
sg42
g147
sbag0
(g62
g2
Ntp659
Rp660
(dp661
g66
g149
sg67
g70
sg559
I36
sg42
g149
sbag0
(g62
g2
Ntp662
Rp663
(dp664
g66
g151
sg67
g70
sg559
I37
sg42
g151
sbag0
(g62
g2
Ntp665
Rp666
(dp667
g66
g153
sg67
g70
sg559
I38
sg42
g153
sbag0
(g62
g2
Ntp668
Rp669
(dp670
g66
g155
sg67
g70
sg559
I39
sg42
g155
sbag0
(g62
g2
Ntp671
Rp672
(dp673
g66
g157
sg67
g70
sg559
I40
sg42
g157
sbag0
(g62
g2
Ntp674
Rp675
(dp676
g66
g159
sg67
g70
sg559
I41
sg42
g159
sbag0
(g62
g2
Ntp677
Rp678
(dp679
g66
g161
sg67
g70
sg559
I42
sg42
g161
sbag0
(g62
g2
Ntp680
Rp681
(dp682
g66
g163
sg67
g70
sg559
I43
sg42
g163
sbag0
(g62
g2
Ntp683
Rp684
(dp685
g66
g165
sg67
g70
sg559
I44
sg42
g165
sbag0
(g62
g2
Ntp686
Rp687
(dp688
g66
g167
sg67
g70
sg559
I45
sg42
g167
sbag0
(g62
g2
Ntp689
Rp690
(dp691
g66
g169
sg67
g70
sg559
I46
sg42
g169
sbag0
(g62
g2
Ntp692
Rp693
(dp694
g66
g171
sg67
g70
sg559
I47
sg42
g171
sbag0
(g62
g2
Ntp695
Rp696
(dp697
g66
g173
sg67
g70
sg559
I48
sg42
g173
sbag0
(g62
g2
Ntp698
Rp699
(dp700
g66
g175
sg67
g70
sg559
I49
sg42
g175
sbag0
(g62
g2
Ntp701
Rp702
(dp703
g66
g177
sg67
g70
sg559
I50
sg42
g177
sbag0
(g62
g2
Ntp704
Rp705
(dp706
g66
g179
sg67
g70
sg559
I51
sg42
g179
sbag0
(g62
g2
Ntp707
Rp708
(dp709
g66
g181
sg67
g70
sg559
I52
sg42
g181
sbag0
(g62
g2
Ntp710
Rp711
(dp712
g66
g183
sg67
g70
sg559
I53
sg42
g183
sbag0
(g62
g2
Ntp713
Rp714
(dp715
g66
g185
sg67
g70
sg559
I54
sg42
g185
sbag0
(g62
g2
Ntp716
Rp717
(dp718
g66
g187
sg67
g70
sg559
I55
sg42
g187
sbag0
(g62
g2
Ntp719
Rp720
(dp721
g66
g189
sg67
g70
sg559
I56
sg42
g189
sbag0
(g62
g2
Ntp722
Rp723
(dp724
g66
g191
sg67
g70
sg559
I57
sg42
g191
sbag0
(g62
g2
Ntp725
Rp726
(dp727
g66
g193
sg67
g70
sg559
I58
sg42
g193
sbag0
(g62
g2
Ntp728
Rp729
(dp730
g66
g195
sg67
g70
sg559
I59
sg42
g195
sbag0
(g62
g2
Ntp731
Rp732
(dp733
g66
g197
sg67
g70
sg559
I60
sg42
g197
sbag0
(g62
g2
Ntp734
Rp735
(dp736
g66
g199
sg67
g70
sg559
I61
sg42
g199
sbag0
(g62
g2
Ntp737
Rp738
(dp739
g66
g201
sg67
g70
sg559
I62
sg42
g201
sbag0
(g62
g2
Ntp740
Rp741
(dp742
g66
g203
sg67
g70
sg559
I63
sg42
g203
sbag0
(g62
g2
Ntp743
Rp744
(dp745
g66
g205
sg67
g70
sg559
I64
sg42
g205
sbag0
(g62
g2
Ntp746
Rp747
(dp748
g66
g207
sg67
g70
sg559
I65
sg42
g207
sbag0
(g62
g2
Ntp749
Rp750
(dp751
g66
g209
sg67
g70
sg559
I66
sg42
g209
sbag0
(g62
g2
Ntp752
Rp753
(dp754
g66
g211
sg67
g70
sg559
I67
sg42
g211
sbag0
(g62
g2
Ntp755
Rp756
(dp757
g66
g213
sg67
g70
sg559
I68
sg42
g213
sbag0
(g62
g2
Ntp758
Rp759
(dp760
g66
g215
sg67
g70
sg559
I69
sg42
g215
sbag0
(g62
g2
Ntp761
Rp762
(dp763
g66
g217
sg67
g70
sg559
I70
sg42
g217
sbag0
(g62
g2
Ntp764
Rp765
(dp766
g66
g219
sg67
g70
sg559
I71
sg42
g219
sbag0
(g62
g2
Ntp767
Rp768
(dp769
g66
g221
sg67
g70
sg559
I72
sg42
g221
sbag0
(g62
g2
Ntp770
Rp771
(dp772
g66
g223
sg67
g70
sg559
I73
sg42
g223
sbag0
(g62
g2
Ntp773
Rp774
(dp775
g66
g225
sg67
g70
sg559
I74
sg42
g225
sbag0
(g62
g2
Ntp776
Rp777
(dp778
g66
g227
sg67
g70
sg559
I75
sg42
g227
sbag0
(g62
g2
Ntp779
Rp780
(dp781
g66
g229
sg67
g70
sg559
I76
sg42
g229
sbag0
(g62
g2
Ntp782
Rp783
(dp784
g66
g231
sg67
g70
sg559
I77
sg42
g231
sbag0
(g62
g2
Ntp785
Rp786
(dp787
g66
g233
sg67
g70
sg559
I78
sg42
g233
sbag0
(g62
g2
Ntp788
Rp789
(dp790
g66
g235
sg67
g70
sg559
I79
sg42
g235
sbag0
(g62
g2
Ntp791
Rp792
(dp793
g66
g237
sg67
g70
sg559
I80
sg42
g237
sbag0
(g62
g2
Ntp794
Rp795
(dp796
g66
g239
sg67
g70
sg559
I81
sg42
g239
sbag0
(g62
g2
Ntp797
Rp798
(dp799
g66
g241
sg67
g70
sg559
I82
sg42
g241
sbag0
(g62
g2
Ntp800
Rp801
(dp802
g66
g243
sg67
g70
sg559
I83
sg42
g243
sbag0
(g62
g2
Ntp803
Rp804
(dp805
g66
g245
sg67
g70
sg559
I84
sg42
g245
sbag0
(g62
g2
Ntp806
Rp807
(dp808
g66
g247
sg67
g70
sg559
I85
sg42
g247
sbag0
(g62
g2
Ntp809
Rp810
(dp811
g66
g249
sg67
g70
sg559
I86
sg42
g249
sbag0
(g62
g2
Ntp812
Rp813
(dp814
g66
g251
sg67
g70
sg559
I87
sg42
g251
sbag0
(g62
g2
Ntp815
Rp816
(dp817
g66
g253
sg67
g70
sg559
I88
sg42
g253
sbag0
(g62
g2
Ntp818
Rp819
(dp820
g66
g255
sg67
g70
sg559
I89
sg42
g255
sbag0
(g62
g2
Ntp821
Rp822
(dp823
g66
g257
sg67
g70
sg559
I90
sg42
g257
sbag0
(g62
g2
Ntp824
Rp825
(dp826
g66
g259
sg67
g70
sg559
I91
sg42
g259
sbasS'edges'
p827
(lp828
g0
(cconcept
SEM_REL
p829
g2
Ntp830
Rp831
(dp832
S'pTo'
p833
g557
sg269
g270
sS'pFrom'
p834
g561
sbag0
(g829
g2
Ntp835
Rp836
(dp837
g833
g561
sg269
g270
sg834
g564
sbag0
(g829
g2
Ntp838
Rp839
(dp840
g833
g564
sg269
g270
sg834
g567
sbag0
(g829
g2
Ntp841
Rp842
(dp843
g833
g564
sg269
g270
sg834
g570
sbag0
(g829
g2
Ntp844
Rp845
(dp846
g833
g561
sg269
g270
sg834
g573
sbag0
(g829
g2
Ntp847
Rp848
(dp849
g833
g573
sg269
g270
sg834
g576
sbag0
(g829
g2
Ntp850
Rp851
(dp852
g833
g561
sg269
g270
sg834
g579
sbag0
(g829
g2
Ntp853
Rp854
(dp855
g833
g579
sg269
g270
sg834
g582
sbag0
(g829
g2
Ntp856
Rp857
(dp858
g833
g579
sg269
g270
sg834
g585
sbag0
(g829
g2
Ntp859
Rp860
(dp861
g833
g579
sg269
g270
sg834
g588
sbag0
(g829
g2
Ntp862
Rp863
(dp864
g833
g579
sg269
g270
sg834
g591
sbag0
(g829
g2
Ntp865
Rp866
(dp867
g833
g579
sg269
g270
sg834
g594
sbag0
(g829
g2
Ntp868
Rp869
(dp870
g833
g579
sg269
g270
sg834
g597
sbag0
(g829
g2
Ntp871
Rp872
(dp873
g833
g579
sg269
g270
sg834
g600
sbag0
(g829
g2
Ntp874
Rp875
(dp876
g833
g579
sg269
g270
sg834
g603
sbag0
(g829
g2
Ntp877
Rp878
(dp879
g833
g579
sg269
g270
sg834
g606
sbag0
(g829
g2
Ntp880
Rp881
(dp882
g833
g561
sg269
g270
sg834
g609
sbag0
(g829
g2
Ntp883
Rp884
(dp885
g833
g609
sg269
g270
sg834
g612
sbag0
(g829
g2
Ntp886
Rp887
(dp888
g833
g609
sg269
g270
sg834
g615
sbag0
(g829
g2
Ntp889
Rp890
(dp891
g833
g557
sg269
g270
sg834
g618
sbag0
(g829
g2
Ntp892
Rp893
(dp894
g833
g618
sg269
g270
sg834
g621
sbag0
(g829
g2
Ntp895
Rp896
(dp897
g833
g621
sg269
g270
sg834
g624
sbag0
(g829
g2
Ntp898
Rp899
(dp900
g833
g621
sg269
g270
sg834
g627
sbag0
(g829
g2
Ntp901
Rp902
(dp903
g833
g621
sg269
g270
sg834
g630
sbag0
(g829
g2
Ntp904
Rp905
(dp906
g833
g621
sg269
g270
sg834
g633
sbag0
(g829
g2
Ntp907
Rp908
(dp909
g833
g621
sg269
g270
sg834
g636
sbag0
(g829
g2
Ntp910
Rp911
(dp912
g833
g618
sg269
g270
sg834
g639
sbag0
(g829
g2
Ntp913
Rp914
(dp915
g833
g639
sg269
g270
sg834
g642
sbag0
(g829
g2
Ntp916
Rp917
(dp918
g833
g639
sg269
g270
sg834
g645
sbag0
(g829
g2
Ntp919
Rp920
(dp921
g833
g639
sg269
g270
sg834
g648
sbag0
(g829
g2
Ntp922
Rp923
(dp924
g833
g618
sg269
g270
sg834
g651
sbag0
(g829
g2
Ntp925
Rp926
(dp927
g833
g651
sg269
g270
sg834
g654
sbag0
(g829
g2
Ntp928
Rp929
(dp930
g833
g651
sg269
g270
sg834
g657
sbag0
(g829
g2
Ntp931
Rp932
(dp933
g833
g557
sg269
g270
sg834
g660
sbag0
(g829
g2
Ntp934
Rp935
(dp936
g833
g660
sg269
g270
sg834
g663
sbag0
(g829
g2
Ntp937
Rp938
(dp939
g833
g663
sg269
g270
sg834
g666
sbag0
(g829
g2
Ntp940
Rp941
(dp942
g833
g663
sg269
g270
sg834
g669
sbag0
(g829
g2
Ntp943
Rp944
(dp945
g833
g663
sg269
g270
sg834
g672
sbag0
(g829
g2
Ntp946
Rp947
(dp948
g833
g663
sg269
g270
sg834
g675
sbag0
(g829
g2
Ntp949
Rp950
(dp951
g833
g663
sg269
g270
sg834
g678
sbag0
(g829
g2
Ntp952
Rp953
(dp954
g833
g678
sg269
g270
sg834
g681
sbag0
(g829
g2
Ntp955
Rp956
(dp957
g833
g681
sg269
g270
sg834
g684
sbag0
(g829
g2
Ntp958
Rp959
(dp960
g833
g678
sg269
g270
sg834
g687
sbag0
(g829
g2
Ntp961
Rp962
(dp963
g833
g687
sg269
g270
sg834
g684
sbag0
(g829
g2
Ntp964
Rp965
(dp966
g833
g660
sg269
g270
sg834
g690
sbag0
(g829
g2
Ntp967
Rp968
(dp969
g833
g690
sg269
g270
sg834
g693
sbag0
(g829
g2
Ntp970
Rp971
(dp972
g833
g693
sg269
g270
sg834
g696
sbag0
(g829
g2
Ntp973
Rp974
(dp975
g833
g693
sg269
g270
sg834
g699
sbag0
(g829
g2
Ntp976
Rp977
(dp978
g833
g690
sg269
g270
sg834
g702
sbag0
(g829
g2
Ntp979
Rp980
(dp981
g833
g702
sg269
g270
sg834
g705
sbag0
(g829
g2
Ntp982
Rp983
(dp984
g833
g660
sg269
g270
sg834
g708
sbag0
(g829
g2
Ntp985
Rp986
(dp987
g833
g660
sg269
g270
sg834
g711
sbag0
(g829
g2
Ntp988
Rp989
(dp990
g833
g711
sg269
g270
sg834
g666
sbag0
(g829
g2
Ntp991
Rp992
(dp993
g833
g711
sg269
g270
sg834
g675
sbag0
(g829
g2
Ntp994
Rp995
(dp996
g833
g557
sg269
g270
sg834
g714
sbag0
(g829
g2
Ntp997
Rp998
(dp999
g833
g557
sg269
g270
sg834
g717
sbag0
(g829
g2
Ntp1000
Rp1001
(dp1002
g833
g717
sg269
g270
sg834
g720
sbag0
(g829
g2
Ntp1003
Rp1004
(dp1005
g833
g720
sg269
g270
sg834
g723
sbag0
(g829
g2
Ntp1006
Rp1007
(dp1008
g833
g720
sg269
g270
sg834
g726
sbag0
(g829
g2
Ntp1009
Rp1010
(dp1011
g833
g717
sg269
g270
sg834
g729
sbag0
(g829
g2
Ntp1012
Rp1013
(dp1014
g833
g729
sg269
g270
sg834
g732
sbag0
(g829
g2
Ntp1015
Rp1016
(dp1017
g833
g732
sg269
g270
sg834
g735
sbag0
(g829
g2
Ntp1018
Rp1019
(dp1020
g833
g732
sg269
g270
sg834
g738
sbag0
(g829
g2
Ntp1021
Rp1022
(dp1023
g833
g732
sg269
g270
sg834
g741
sbag0
(g829
g2
Ntp1024
Rp1025
(dp1026
g833
g732
sg269
g270
sg834
g744
sbag0
(g829
g2
Ntp1027
Rp1028
(dp1029
g833
g732
sg269
g270
sg834
g747
sbag0
(g829
g2
Ntp1030
Rp1031
(dp1032
g833
g732
sg269
g270
sg834
g750
sbag0
(g829
g2
Ntp1033
Rp1034
(dp1035
g833
g732
sg269
g270
sg834
g753
sbag0
(g829
g2
Ntp1036
Rp1037
(dp1038
g833
g732
sg269
g270
sg834
g756
sbag0
(g829
g2
Ntp1039
Rp1040
(dp1041
g833
g756
sg269
g270
sg834
g759
sbag0
(g829
g2
Ntp1042
Rp1043
(dp1044
g833
g756
sg269
g270
sg834
g762
sbag0
(g829
g2
Ntp1045
Rp1046
(dp1047
g833
g756
sg269
g270
sg834
g765
sbag0
(g829
g2
Ntp1048
Rp1049
(dp1050
g833
g756
sg269
g270
sg834
g768
sbag0
(g829
g2
Ntp1051
Rp1052
(dp1053
g833
g729
sg269
g270
sg834
g723
sbag0
(g829
g2
Ntp1054
Rp1055
(dp1056
g833
g723
sg269
g270
sg834
g771
sbag0
(g829
g2
Ntp1057
Rp1058
(dp1059
g833
g723
sg269
g270
sg834
g774
sbag0
(g829
g2
Ntp1060
Rp1061
(dp1062
g833
g723
sg269
g270
sg834
g777
sbag0
(g829
g2
Ntp1063
Rp1064
(dp1065
g833
g729
sg269
g270
sg834
g726
sbag0
(g829
g2
Ntp1066
Rp1067
(dp1068
g833
g726
sg269
g270
sg834
g780
sbag0
(g829
g2
Ntp1069
Rp1070
(dp1071
g833
g726
sg269
g270
sg834
g783
sbag0
(g829
g2
Ntp1072
Rp1073
(dp1074
g833
g726
sg269
g270
sg834
g786
sbag0
(g829
g2
Ntp1075
Rp1076
(dp1077
g833
g726
sg269
g270
sg834
g789
sbag0
(g829
g2
Ntp1078
Rp1079
(dp1080
g833
g726
sg269
g270
sg834
g792
sbag0
(g829
g2
Ntp1081
Rp1082
(dp1083
g833
g726
sg269
g270
sg834
g795
sbag0
(g829
g2
Ntp1084
Rp1085
(dp1086
g833
g726
sg269
g270
sg834
g798
sbag0
(g829
g2
Ntp1087
Rp1088
(dp1089
g833
g726
sg269
g270
sg834
g801
sbag0
(g829
g2
Ntp1090
Rp1091
(dp1092
g833
g726
sg269
g270
sg834
g804
sbag0
(g829
g2
Ntp1093
Rp1094
(dp1095
g833
g726
sg269
g270
sg834
g807
sbag0
(g829
g2
Ntp1096
Rp1097
(dp1098
g833
g726
sg269
g270
sg834
g810
sbag0
(g829
g2
Ntp1099
Rp1100
(dp1101
g833
g717
sg269
g270
sg834
g813
sbag0
(g829
g2
Ntp1102
Rp1103
(dp1104
g833
g813
sg269
g270
sg834
g816
sbag0
(g829
g2
Ntp1105
Rp1106
(dp1107
g833
g813
sg269
g270
sg834
g819
sbag0
(g829
g2
Ntp1108
Rp1109
(dp1110
g833
g717
sg269
g270
sg834
g822
sbag0
(g829
g2
Ntp1111
Rp1112
(dp1113
g833
g822
sg269
g270
sg834
g780
sbag0
(g829
g2
Ntp1114
Rp1115
(dp1116
g833
g822
sg269
g270
sg834
g810
sbag0
(g829
g2
Ntp1117
Rp1118
(dp1119
g833
g717
sg269
g270
sg834
g825
sbag0
(g829
g2
Ntp1120
Rp1121
(dp1122
g833
g825
sg269
g270
sg834
g795
sbag0
(g829
g2
Ntp1123
Rp1124
(dp1125
g833
g825
sg269
g270
sg834
g801
sbag0
(g829
g2
Ntp1126
Rp1127
(dp1128
g833
g825
sg269
g270
sg834
g783
sbasS'neutral'
p1129
g64
sbsg559
I1
sg42
g58
sbssS'model'
p1130
Nsg559
I9
sS'LTM'
p1131
g38
sS'init_act'
p1132
F1.0
sbag0
(clanguage_schemas
CPT_ACTION_SCHEMA
p1133
g2
Ntp1134
Rp1135
(dp1136
g42
g83
sg59
(dp1137
g61
g561
ssg1130
Nsg559
I10
sg1131
g38
sg1132
F1.0
sbag0
(g1133
g2
Ntp1138
Rp1139
(dp1140
g42
g85
sg59
(dp1141
g61
g564
ssg1130
Nsg559
I11
sg1131
g38
sg1132
F1.0
sbag0
(g1133
g2
Ntp1142
Rp1143
(dp1144
g42
g87
sg59
(dp1145
g61
g567
ssg1130
Nsg559
I12
sg1131
g38
sg1132
F1.0
sbag0
(g1133
g2
Ntp1146
Rp1147
(dp1148
g42
g89
sg59
(dp1149
g61
g570
ssg1130
Nsg559
I13
sg1131
g38
sg1132
F1.0
sbag0
(g1133
g2
Ntp1150
Rp1151
(dp1152
g42
g91
sg59
(dp1153
g61
g573
ssg1130
Nsg559
I14
sg1131
g38
sg1132
F1.0
sbag0
(g1133
g2
Ntp1154
Rp1155
(dp1156
g42
g93
sg59
(dp1157
g61
g576
ssg1130
Nsg559
I15
sg1131
g38
sg1132
F1.0
sbag0
(g1133
g2
Ntp1158
Rp1159
(dp1160
g42
g95
sg59
(dp1161
g61
g579
ssg1130
Nsg559
I16
sg1131
g38
sg1132
F1.0
sbag0
(g1133
g2
Ntp1162
Rp1163
(dp1164
g42
g97
sg59
(dp1165
g61
g582
ssg1130
Nsg559
I17
sg1131
g38
sg1132
F1.0
sbag0
(g1133
g2
Ntp1166
Rp1167
(dp1168
g42
g99
sg59
(dp1169
g61
g585
ssg1130
Nsg559
I18
sg1131
g38
sg1132
F1.0
sbag0
(g1133
g2
Ntp1170
Rp1171
(dp1172
g42
g101
sg59
(dp1173
g61
g588
ssg1130
Nsg559
I19
sg1131
g38
sg1132
F1.0
sbag0
(g1133
g2
Ntp1174
Rp1175
(dp1176
g42
g103
sg59
(dp1177
g61
g591
ssg1130
Nsg559
I20
sg1131
g38
sg1132
F1.0
sbag0
(g1133
g2
Ntp1178
Rp1179
(dp1180
g42
g105
sg59
(dp1181
g61
g594
ssg1130
Nsg559
I21
sg1131
g38
sg1132
F1.0
sbag0
(g1133
g2
Ntp1182
Rp1183
(dp1184
g42
g107
sg59
(dp1185
g61
g597
ssg1130
Nsg559
I22
sg1131
g38
sg1132
F1.0
sbag0
(g1133
g2
Ntp1186
Rp1187
(dp1188
g42
g109
sg59
(dp1189
g61
g600
ssg1130
Nsg559
I23
sg1131
g38
sg1132
F1.0
sbag0
(g1133
g2
Ntp1190
Rp1191
(dp1192
g42
g111
sg59
(dp1193
g61
g603
ssg1130
Nsg559
I24
sg1131
g38
sg1132
F1.0
sbag0
(g1133
g2
Ntp1194
Rp1195
(dp1196
g42
g113
sg59
(dp1197
g61
g606
ssg1130
Nsg559
I25
sg1131
g38
sg1132
F1.0
sbag0
(g1133
g2
Ntp1198
Rp1199
(dp1200
g42
g115
sg59
(dp1201
g61
g609
ssg1130
Nsg559
I26
sg1131
g38
sg1132
F1.0
sbag0
(g1133
g2
Ntp1202
Rp1203
(dp1204
g42
g117
sg59
(dp1205
g61
g612
ssg1130
Nsg559
I27
sg1131
g38
sg1132
F1.0
sbag0
(g1133
g2
Ntp1206
Rp1207
(dp1208
g42
g119
sg59
(dp1209
g61
g615
ssg1130
Nsg559
I28
sg1131
g38
sg1132
F1.0
sbag0
(clanguage_schemas
CPT_PROPERTY_SCHEMA
p1210
g2
Ntp1211
Rp1212
(dp1213
g42
g121
sg59
(dp1214
g61
g618
ssg1130
Nsg559
I29
sg1131
g38
sg1132
F1.0
sbag0
(g1210
g2
Ntp1215
Rp1216
(dp1217
g42
g123
sg59
(dp1218
g61
g621
ssg1130
Nsg559
I30
sg1131
g38
sg1132
F1.0
sbag0
(g1210
g2
Ntp1219
Rp1220
(dp1221
g42
g125
sg59
(dp1222
g61
g624
ssg1130
Nsg559
I31
sg1131
g38
sg1132
F1.0
sbag0
(g1210
g2
Ntp1223
Rp1224
(dp1225
g42
g127
sg59
(dp1226
g61
g627
ssg1130
Nsg559
I32
sg1131
g38
sg1132
F1.0
sbag0
(g1210
g2
Ntp1227
Rp1228
(dp1229
g42
g129
sg59
(dp1230
g61
g630
ssg1130
Nsg559
I33
sg1131
g38
sg1132
F1.0
sbag0
(g1210
g2
Ntp1231
Rp1232
(dp1233
g42
g131
sg59
(dp1234
g61
g633
ssg1130
Nsg559
I34
sg1131
g38
sg1132
F1.0
sbag0
(g1210
g2
Ntp1235
Rp1236
(dp1237
g42
g133
sg59
(dp1238
g61
g636
ssg1130
Nsg559
I35
sg1131
g38
sg1132
F1.0
sbag0
(g1210
g2
Ntp1239
Rp1240
(dp1241
g42
g135
sg59
(dp1242
g61
g639
ssg1130
Nsg559
I36
sg1131
g38
sg1132
F1.0
sbag0
(g1210
g2
Ntp1243
Rp1244
(dp1245
g42
g137
sg59
(dp1246
g61
g642
ssg1130
Nsg559
I37
sg1131
g38
sg1132
F1.0
sbag0
(g1210
g2
Ntp1247
Rp1248
(dp1249
g42
g139
sg59
(dp1250
g61
g645
ssg1130
Nsg559
I38
sg1131
g38
sg1132
F1.0
sbag0
(g1210
g2
Ntp1251
Rp1252
(dp1253
g42
g141
sg59
(dp1254
g61
g648
ssg1130
Nsg559
I39
sg1131
g38
sg1132
F1.0
sbag0
(g1210
g2
Ntp1255
Rp1256
(dp1257
g42
g143
sg59
(dp1258
g61
g651
ssg1130
Nsg559
I40
sg1131
g38
sg1132
F1.0
sbag0
(g1210
g2
Ntp1259
Rp1260
(dp1261
g42
g145
sg59
(dp1262
g61
g654
ssg1130
Nsg559
I41
sg1131
g38
sg1132
F1.0
sbag0
(g1210
g2
Ntp1263
Rp1264
(dp1265
g42
g147
sg59
(dp1266
g61
g657
ssg1130
Nsg559
I42
sg1131
g38
sg1132
F1.0
sbag0
(clanguage_schemas
CPT_RELATION_SCHEMA
p1267
g2
Ntp1268
Rp1269
(dp1270
g42
g149
sg59
(dp1271
g833
Nsg61
g660
sg834
Nssg1130
Nsg559
I43
sg1131
g38
sg1132
F1.0
sbag0
(g1267
g2
Ntp1272
Rp1273
(dp1274
g42
g151
sg59
(dp1275
g833
Nsg61
g663
sg834
Nssg1130
Nsg559
I44
sg1131
g38
sg1132
F1.0
sbag0
(g1267
g2
Ntp1276
Rp1277
(dp1278
g42
g153
sg59
(dp1279
g833
Nsg61
g666
sg834
Nssg1130
Nsg559
I45
sg1131
g38
sg1132
F1.0
sbag0
(g1267
g2
Ntp1280
Rp1281
(dp1282
g42
g155
sg59
(dp1283
g833
Nsg61
g669
sg834
Nssg1130
Nsg559
I46
sg1131
g38
sg1132
F1.0
sbag0
(g1267
g2
Ntp1284
Rp1285
(dp1286
g42
g157
sg59
(dp1287
g833
Nsg61
g672
sg834
Nssg1130
Nsg559
I47
sg1131
g38
sg1132
F1.0
sbag0
(g1267
g2
Ntp1288
Rp1289
(dp1290
g42
g159
sg59
(dp1291
g833
Nsg61
g675
sg834
Nssg1130
Nsg559
I48
sg1131
g38
sg1132
F1.0
sbag0
(g1267
g2
Ntp1292
Rp1293
(dp1294
g42
g161
sg59
(dp1295
g833
Nsg61
g678
sg834
Nssg1130
Nsg559
I49
sg1131
g38
sg1132
F1.0
sbag0
(g1267
g2
Ntp1296
Rp1297
(dp1298
g42
g163
sg59
(dp1299
g833
Nsg61
g681
sg834
Nssg1130
Nsg559
I50
sg1131
g38
sg1132
F1.0
sbag0
(g1267
g2
Ntp1300
Rp1301
(dp1302
g42
g165
sg59
(dp1303
g833
Nsg61
g684
sg834
Nssg1130
Nsg559
I51
sg1131
g38
sg1132
F1.0
sbag0
(g1267
g2
Ntp1304
Rp1305
(dp1306
g42
g167
sg59
(dp1307
g833
Nsg61
g687
sg834
Nssg1130
Nsg559
I52
sg1131
g38
sg1132
F1.0
sbag0
(g1267
g2
Ntp1308
Rp1309
(dp1310
g42
g169
sg59
(dp1311
g833
Nsg61
g690
sg834
Nssg1130
Nsg559
I53
sg1131
g38
sg1132
F1.0
sbag0
(g1267
g2
Ntp1312
Rp1313
(dp1314
g42
g171
sg59
(dp1315
g833
Nsg61
g693
sg834
Nssg1130
Nsg559
I54
sg1131
g38
sg1132
F1.0
sbag0
(g1267
g2
Ntp1316
Rp1317
(dp1318
g42
g173
sg59
(dp1319
g833
Nsg61
g696
sg834
Nssg1130
Nsg559
I55
sg1131
g38
sg1132
F1.0
sbag0
(g1267
g2
Ntp1320
Rp1321
(dp1322
g42
g175
sg59
(dp1323
g833
Nsg61
g699
sg834
Nssg1130
Nsg559
I56
sg1131
g38
sg1132
F1.0
sbag0
(g1267
g2
Ntp1324
Rp1325
(dp1326
g42
g177
sg59
(dp1327
g833
Nsg61
g702
sg834
Nssg1130
Nsg559
I57
sg1131
g38
sg1132
F1.0
sbag0
(g1267
g2
Ntp1328
Rp1329
(dp1330
g42
g179
sg59
(dp1331
g833
Nsg61
g705
sg834
Nssg1130
Nsg559
I58
sg1131
g38
sg1132
F1.0
sbag0
(g1267
g2
Ntp1332
Rp1333
(dp1334
g42
g181
sg59
(dp1335
g833
Nsg61
g708
sg834
Nssg1130
Nsg559
I59
sg1131
g38
sg1132
F1.0
sbag0
(g1267
g2
Ntp1336
Rp1337
(dp1338
g42
g183
sg59
(dp1339
g833
Nsg61
g711
sg834
Nssg1130
Nsg559
I60
sg1131
g38
sg1132
F1.0
sbag0
(g54
g2
Ntp1340
Rp1341
(dp1342
g42
g185
sg59
(dp1343
g61
g714
ssg1130
Nsg559
I61
sg1131
g38
sg1132
F1.0
sbag0
(clanguage_schemas
CPT_ENTITY_SCHEMA
p1344
g2
Ntp1345
Rp1346
(dp1347
g42
g187
sg59
(dp1348
g61
g717
ssg1130
Nsg559
I62
sg1131
g38
sg1132
F1.0
sbag0
(g1344
g2
Ntp1349
Rp1350
(dp1351
g42
g189
sg59
(dp1352
g61
g720
ssg1130
Nsg559
I63
sg1131
g38
sg1132
F1.0
sbag0
(g1344
g2
Ntp1353
Rp1354
(dp1355
g42
g191
sg59
(dp1356
g61
g723
ssg1130
Nsg559
I64
sg1131
g38
sg1132
F1.0
sbag0
(g1344
g2
Ntp1357
Rp1358
(dp1359
g42
g193
sg59
(dp1360
g61
g726
ssg1130
Nsg559
I65
sg1131
g38
sg1132
F1.0
sbag0
(g1344
g2
Ntp1361
Rp1362
(dp1363
g42
g195
sg59
(dp1364
g61
g729
ssg1130
Nsg559
I66
sg1131
g38
sg1132
F1.0
sbag0
(g1344
g2
Ntp1365
Rp1366
(dp1367
g42
g197
sg59
(dp1368
g61
g732
ssg1130
Nsg559
I67
sg1131
g38
sg1132
F1.0
sbag0
(g1344
g2
Ntp1369
Rp1370
(dp1371
g42
g199
sg59
(dp1372
g61
g735
ssg1130
Nsg559
I68
sg1131
g38
sg1132
F1.0
sbag0
(g1344
g2
Ntp1373
Rp1374
(dp1375
g42
g201
sg59
(dp1376
g61
g738
ssg1130
Nsg559
I69
sg1131
g38
sg1132
F1.0
sbag0
(g1344
g2
Ntp1377
Rp1378
(dp1379
g42
g203
sg59
(dp1380
g61
g741
ssg1130
Nsg559
I70
sg1131
g38
sg1132
F1.0
sbag0
(g1344
g2
Ntp1381
Rp1382
(dp1383
g42
g205
sg59
(dp1384
g61
g744
ssg1130
Nsg559
I71
sg1131
g38
sg1132
F1.0
sbag0
(g1344
g2
Ntp1385
Rp1386
(dp1387
g42
g207
sg59
(dp1388
g61
g747
ssg1130
Nsg559
I72
sg1131
g38
sg1132
F1.0
sbag0
(g1344
g2
Ntp1389
Rp1390
(dp1391
g42
g209
sg59
(dp1392
g61
g750
ssg1130
Nsg559
I73
sg1131
g38
sg1132
F1.0
sbag0
(g1344
g2
Ntp1393
Rp1394
(dp1395
g42
g211
sg59
(dp1396
g61
g753
ssg1130
Nsg559
I74
sg1131
g38
sg1132
F1.0
sbag0
(g1344
g2
Ntp1397
Rp1398
(dp1399
g42
g213
sg59
(dp1400
g61
g756
ssg1130
Nsg559
I75
sg1131
g38
sg1132
F1.0
sbag0
(g1344
g2
Ntp1401
Rp1402
(dp1403
g42
g215
sg59
(dp1404
g61
g759
ssg1130
Nsg559
I76
sg1131
g38
sg1132
F1.0
sbag0
(g1344
g2
Ntp1405
Rp1406
(dp1407
g42
g217
sg59
(dp1408
g61
g762
ssg1130
Nsg559
I77
sg1131
g38
sg1132
F1.0
sbag0
(g1344
g2
Ntp1409
Rp1410
(dp1411
g42
g219
sg59
(dp1412
g61
g765
ssg1130
Nsg559
I78
sg1131
g38
sg1132
F1.0
sbag0
(g1344
g2
Ntp1413
Rp1414
(dp1415
g42
g221
sg59
(dp1416
g61
g768
ssg1130
Nsg559
I79
sg1131
g38
sg1132
F1.0
sbag0
(g1344
g2
Ntp1417
Rp1418
(dp1419
g42
g223
sg59
(dp1420
g61
g771
ssg1130
Nsg559
I80
sg1131
g38
sg1132
F1.0
sbag0
(g1344
g2
Ntp1421
Rp1422
(dp1423
g42
g225
sg59
(dp1424
g61
g774
ssg1130
Nsg559
I81
sg1131
g38
sg1132
F1.0
sbag0
(g1344
g2
Ntp1425
Rp1426
(dp1427
g42
g227
sg59
(dp1428
g61
g777
ssg1130
Nsg559
I82
sg1131
g38
sg1132
F1.0
sbag0
(g1344
g2
Ntp1429
Rp1430
(dp1431
g42
g229
sg59
(dp1432
g61
g780
ssg1130
Nsg559
I83
sg1131
g38
sg1132
F1.0
sbag0
(g1344
g2
Ntp1433
Rp1434
(dp1435
g42
g231
sg59
(dp1436
g61
g783
ssg1130
Nsg559
I84
sg1131
g38
sg1132
F1.0
sbag0
(g1344
g2
Ntp1437
Rp1438
(dp1439
g42
g233
sg59
(dp1440
g61
g786
ssg1130
Nsg559
I85
sg1131
g38
sg1132
F1.0
sbag0
(g1344
g2
Ntp1441
Rp1442
(dp1443
g42
g235
sg59
(dp1444
g61
g789
ssg1130
Nsg559
I86
sg1131
g38
sg1132
F1.0
sbag0
(g1344
g2
Ntp1445
Rp1446
(dp1447
g42
g237
sg59
(dp1448
g61
g792
ssg1130
Nsg559
I87
sg1131
g38
sg1132
F1.0
sbag0
(g1344
g2
Ntp1449
Rp1450
(dp1451
g42
g239
sg59
(dp1452
g61
g795
ssg1130
Nsg559
I88
sg1131
g38
sg1132
F1.0
sbag0
(g1344
g2
Ntp1453
Rp1454
(dp1455
g42
g241
sg59
(dp1456
g61
g798
ssg1130
Nsg559
I89
sg1131
g38
sg1132
F1.0
sbag0
(g1344
g2
Ntp1457
Rp1458
(dp1459
g42
g243
sg59
(dp1460
g61
g801
ssg1130
Nsg559
I90
sg1131
g38
sg1132
F1.0
sbag0
(g1344
g2
Ntp1461
Rp1462
(dp1463
g42
g245
sg59
(dp1464
g61
g804
ssg1130
Nsg559
I91
sg1131
g38
sg1132
F1.0
sbag0
(g1344
g2
Ntp1465
Rp1466
(dp1467
g42
g247
sg59
(dp1468
g61
g807
ssg1130
Nsg559
I92
sg1131
g38
sg1132
F1.0
sbag0
(g1344
g2
Ntp1469
Rp1470
(dp1471
g42
g249
sg59
(dp1472
g61
g810
ssg1130
Nsg559
I93
sg1131
g38
sg1132
F1.0
sbag0
(g1344
g2
Ntp1473
Rp1474
(dp1475
g42
g251
sg59
(dp1476
g61
g813
ssg1130
Nsg559
I94
sg1131
g38
sg1132
F1.0
sbag0
(g1344
g2
Ntp1477
Rp1478
(dp1479
g42
g253
sg59
(dp1480
g61
g816
ssg1130
Nsg559
I95
sg1131
g38
sg1132
F1.0
sbag0
(g1344
g2
Ntp1481
Rp1482
(dp1483
g42
g255
sg59
(dp1484
g61
g819
ssg1130
Nsg559
I96
sg1131
g38
sg1132
F1.0
sbag0
(g1344
g2
Ntp1485
Rp1486
(dp1487
g42
g257
sg59
(dp1488
g61
g822
ssg1130
Nsg559
I97
sg1131
g38
sg1132
F1.0
sbag0
(g1344
g2
Ntp1489
Rp1490
(dp1491
g42
g259
sg59
(dp1492
g61
g825
ssg1130
Nsg559
I98
sg1131
g38
sg1132
F1.0
sbasg269
S'OUT'
p1493
sg559
I11
sS'schema'
p1494
g38
sbag0
(g46
g2
Ntp1495
Rp1496
(dp1497
g42
S'to_semantic_WM'
p1498
sg51
Nsg52
g53
sg269
g1493
sg559
I12
sg1494
g38
sbasS'outputs'
p1499
(dp1500
g50
Nsg1498
NssS'connections'
p1501
(lp1502
sS'cpt_knowledge'
p1503
g70
sS'dt'
p1504
F1.0
sS'in_ports'
p1505
(lp1506
sS'params'
p1507
(dp1508
g1132
F1.0
ssS't'
p1509
I0
sS'activity'
p1510
I0
sg1130
g0
(cschema_theory
MODEL
p1511
g2
Ntp1512
Rp1513
(dp1514
S'verbose'
p1515
I00
sg42
S'language_system_P'
p1516
sS'sim_data'
p1517
(dp1518
S'system_states'
p1519
(dp1520
sg1130
(dp1521
ssg1499
(dp1522
sS'input_ports'
p1523
(lp1524
g0
(g46
g2
Ntp1525
Rp1526
(dp1527
g42
S'from_conceptualizer'
p1528
sg51
Nsg52
Nsg269
S'IN'
p1529
sg559
I1
sg1494
g0
(clanguage_schemas
SEMANTIC_WM
p1530
g2
Ntp1531
Rp1532
(dp1533
g40
(dp1534
S'from_grammatical_WM_P'
p1535
NsS'from_concept_LTM'
p1536
NsS'from_control'
p1537
NsS'from_grammatical_WM_C'
p1538
Nsg1528
NssS'schema_insts'
p1539
(lp1540
sg42
S'Semantic_WM'
p1541
sS'comp_links'
p1542
(lp1543
sg44
(lp1544
g0
(g46
g2
Ntp1545
Rp1546
(dp1547
S'port_data'
p1548
Nsg42
S'to_grammatical_WM_P'
p1549
sg51
Nsg52
NsS'port_value'
p1550
Nsg269
g1493
sg559
I6
sg1494
g1532
sbag0
(g46
g2
Ntp1551
Rp1552
(dp1553
g1548
Nsg42
S'to_cxn_retrieval_P'
p1554
sg51
Nsg52
Nsg1550
Nsg269
g1493
sg559
I7
sg1494
g1532
sbag0
(g46
g2
Ntp1555
Rp1556
(dp1557
g1548
Nsg42
S'to_control'
p1558
sg51
Nsg52
Nsg1550
Nsg269
g1493
sg559
I8
sg1494
g1532
sbag0
(g46
g2
Ntp1559
Rp1560
(dp1561
g42
S'to_visual_WM'
p1562
sg51
Nsg52
Nsg269
g1493
sg559
I9
sg1494
g1532
sbag0
(g46
g2
Ntp1563
Rp1564
(dp1565
g42
S'to_output'
p1566
sg51
Nsg52
Nsg269
g1493
sg559
I10
sg1494
g1532
sbasg1499
(dp1567
g1566
Nsg1549
Nsg1562
Nsg1554
Nsg1558
Nssg1504
F1.0
sS'coop_links'
p1568
(lp1569
sg1505
(lp1570
g1526
ag0
(g46
g2
Ntp1571
Rp1572
(dp1573
g42
g1536
sg51
Nsg52
Nsg269
g1529
sg559
I2
sg1494
g1532
sbag0
(g46
g2
Ntp1574
Rp1575
(dp1576
g42
g1538
sg51
Nsg52
Nsg269
g1529
sg559
I3
sg1494
g1532
sbag0
(g46
g2
Ntp1577
Rp1578
(dp1579
g1548
Nsg42
g1535
sg51
Nsg52
Nsg1550
Nsg269
g1529
sg559
I4
sg1494
g1532
sbag0
(g46
g2
Ntp1580
Rp1581
(dp1582
g1548
Nsg42
g1537
sg51
Nsg52
S'produce'
p1583
sg1550
Nsg269
g1529
sg559
I5
sg1494
g1532
sbasS'save_state'
p1584
(dp1585
S'insts'
p1586
(dp1587
sS'WM_activity'
p1588
(dp1589
S'comp'
p1590
(lp1591
sS'c2_network'
p1592
(dp1593
S'num_insts'
p1594
(lp1595
sS'num_coop_links'
p1596
(lp1597
sS'num_comp_links'
p1598
(lp1599
ssS'coop'
p1600
(lp1601
sg1509
(lp1602
sS'act'
p1603
(lp1604
sssg1507
(dp1605
S'C2'
p1606
(dp1607
S'P_comp'
p1608
F1.0
sS'comp_weight'
p1609
F0.0
sS'P_coop'
p1610
F1.0
sS'coop_asymmetry'
p1611
F1.0
sS'coop_weight'
p1612
F0.0
sS'confidence_threshold'
p1613
F0.0
sS'comp_asymmetry'
p1614
F0.0
sS'prune_threshold'
p1615
F0.01
ssS'dyn'
p1616
(dp1617
S'tau'
p1618
F10000.0
sS'k'
p1619
F10.0
sS'act_rest'
p1620
F0.001
sS'noise_mean'
p1621
F0.0
sS'noise_std'
p1622
F1.0
sS'ext_weight'
p1623
F1.0
sS'int_weight'
p1624
F1.0
sssg1509
I0
sg1510
I0
sg1130
g1513
sS'SemRep'
p1625
g0
(g73
g2
Ntp1626
Rp1627
(dp1628
g77
(dp1629
sg260
g261
sg262
g261
sg263
(dp1630
sg457
g1630
sg72
(dp1631
sg459
g261
sg460
g1630
sg461
(dp1632
sbsg559
I1
sbsbasS'brain_mapping'
p1633
g0
(cschema_theory
BRAIN_MAPPING
p1634
g2
Ntp1635
Rp1636
(dp1637
S'schema_mapping'
p1638
(dp1639
S'Control'
p1640
(lp1641
S'DLPFC'
p1642
asS'Utter'
p1643
(lp1644
S''
p1645
asg1541
(lp1646
S'left_SFG'
p1647
aS'LIP'
p1648
aS'Hippocampus'
p1649
asS'Phonological_WM_P'
p1650
(lp1651
S'left_BA6'
p1652
asg43
(lp1653
g1645
asS'Grammatical_WM_P'
p1654
(lp1655
S'left_BA45'
p1656
aS'leftBA44'
p1657
asS'Grammatical_LTM'
p1658
(lp1659
S'left_STG'
p1660
aS'left_MTG'
p1661
asS'Cxn_retrieval_P'
p1662
(lp1663
ssS'connect_mapping'
p1664
(dp1665
sbsg1501
(lp1666
g0
(cschema_theory
CONNECT
p1667
g2
Ntp1668
Rp1669
(dp1670
S'delay'
p1671
I0
sg42
g1645
sS'weight'
p1672
I0
sS'port_to'
p1673
g0
(g46
g2
Ntp1674
Rp1675
(dp1676
g1548
Nsg42
S'from_semantic_WM'
p1677
sg51
Nsg52
Nsg1550
Nsg269
g1529
sg559
I23
sg1494
g0
(clanguage_schemas
CXN_RETRIEVAL_P
p1678
g2
Ntp1679
Rp1680
(dp1681
g40
(dp1682
g1677
NsS'from_grammatical_LTM'
p1683
Nssg42
g1662
sg44
(lp1684
g0
(g46
g2
Ntp1685
Rp1686
(dp1687
g1548
Nsg42
g1549
sg51
Nsg52
Nsg1550
Nsg269
g1493
sg559
I24
sg1494
g1680
sbasg1499
(dp1688
g1549
NssS'cxn_instances'
p1689
(lp1690
sg1504
F1.0
sg1505
(lp1691
g0
(g46
g2
Ntp1692
Rp1693
(dp1694
g1548
Nsg42
g1683
sg51
Nsg52
(lp1695
g0
(clanguage_schemas
CXN_SCHEMA
p1696
g2
Ntp1697
Rp1698
(dp1699
g42
VCNJ_AND
p1700
sg59
(iconstruction
CXN
p1701
(dp1702
S'SymLinks'
p1703
(iconstruction
TP_SYMLINKS
p1704
(dp1705
S'SL'
p1706
(dp1707
VEVT1_4
p1708
VS1_6
p1709
sVEVT2_5
p1710
VS3_8
p1711
ssg559
I3
sg42
g1645
sbsS'clss'
p1712
VD
p1713
sS'group'
p1714
I3
sg42
g1700
sS'SemFrame'
p1715
(iconstruction
TP_SEMFRAME
p1716
(dp1717
g72
g0
(g73
g2
Ntp1718
Rp1719
(dp1720
g77
(dp1721
(iconstruction
TP_NODE
p1722
(dp1723
S'head'
p1724
I00
sg61
g714
sg42
g1710
sS'frame'
p1725
I00
sS'focus'
p1726
I00
sg559
I5
sb(dp1727
g1725
I00
sg61
g714
ss(iconstruction
TP_NODE
p1728
(dp1729
g1724
I00
sg61
g714
sg42
g1708
sg1725
I00
sg1726
I01
sg559
I4
sb(dp1730
g1725
I00
sg61
g714
sssg260
g261
sg262
g261
sg263
(dp1731
g1722
(dp1732
sg1728
(dp1733
ssg457
g1731
sg72
(dp1734
sg459
g261
sg460
g1731
sg461
(dp1735
g1722
(dp1736
sg1728
(dp1737
ssbsg554
(lp1738
g1728
ag1722
asg827
(lp1739
sg559
I1
sg42
g1645
sbsS'SynForm'
p1740
(iconstruction
TP_SYNFORM
p1741
(dp1742
g559
I2
sS'form'
p1743
(lp1744
(iconstruction
TP_SLOT
p1745
(dp1746
S'cxn_classes'
p1747
(lp1748
VS
p1749
asS'order'
p1750
I0
sg559
I6
sg42
g1709
sba(iconstruction
TP_PHON
p1751
(dp1752
S'num_syllables'
p1753
I3
sg1750
I1
sg559
I7
sS'cxn_phonetics'
p1754
Vand
p1755
sg42
VS2_7
p1756
sba(iconstruction
TP_SLOT
p1757
(dp1758
g1747
(lp1759
VS
p1760
asg1750
I2
sg559
I8
sg42
g1711
sbasg42
g1645
sbsS'preference'
p1761
I1
sbsg1130
Nsg559
I99
sg1131
g0
(clanguage_schemas
GRAMMATICAL_LTM
p1762
g2
Ntp1763
Rp1764
(dp1765
g40
(dp1766
sS'grammar'
p1767
(iconstruction
GRAMMAR
p1768
(dp1769
S'constructions'
p1770
(lp1771
g1701
a(iconstruction
CXN
p1772
(dp1773
g1703
(iconstruction
TP_SYMLINKS
p1774
(dp1775
g1706
(dp1776
VEVT2_13
p1777
VS3_17
p1778
sVEVT1_12
p1779
VS1_15
p1780
ssg559
I11
sg42
g1645
sbsg1712
VD
p1781
sg1714
I3
sg42
VCNJ_THEN
p1782
sg1715
(iconstruction
TP_SEMFRAME
p1783
(dp1784
g72
g0
(g73
g2
Ntp1785
Rp1786
(dp1787
g77
(dp1788
(iconstruction
TP_NODE
p1789
(dp1790
g1724
I00
sg61
g714
sg42
g1777
sg1725
I00
sg1726
I00
sg559
I13
sb(dp1791
g1725
I00
sg61
g714
ss(iconstruction
TP_NODE
p1792
(dp1793
g1724
I00
sg61
g714
sg42
g1779
sg1725
I00
sg1726
I00
sg559
I12
sb(dp1794
g1725
I00
sg61
g714
sssg260
g261
sg262
g261
sg263
(dp1795
g1789
(dp1796
sg1792
(dp1797
g1789
(dp1798
g61
g699
ssssg457
g1795
sg72
(dp1799
sg459
g261
sg460
g1795
sg461
(dp1800
g1789
(dp1801
g1792
g1798
ssg1792
(dp1802
ssbsg554
(lp1803
g1792
ag1789
asg827
(lp1804
(iconstruction
TP_REL
p1805
(dp1806
g833
g1789
sg61
g699
sg559
I14
sg834
g1792
sg42
VEVT1_EVT2_14
p1807
sbasg559
I9
sg42
g1645
sbsg1740
(iconstruction
TP_SYNFORM
p1808
(dp1809
g559
I10
sg1743
(lp1810
(iconstruction
TP_SLOT
p1811
(dp1812
g1747
(lp1813
VS
p1814
asg1750
I0
sg559
I15
sg42
g1780
sba(iconstruction
TP_PHON
p1815
(dp1816
g1753
I4
sg1750
I1
sg559
I16
sg1754
Vthen
p1817
sg42
VS2_16
p1818
sba(iconstruction
TP_SLOT
p1819
(dp1820
g1747
(lp1821
VS
p1822
asg1750
I2
sg559
I17
sg42
g1778
sbasg42
g1645
sbsg1761
I1
sba(iconstruction
CXN
p1823
(dp1824
g1703
(iconstruction
TP_SYMLINKS
p1825
(dp1826
g1706
(dp1827
VEVT2_22
p1828
VS3_26
p1829
sVEVT1_21
p1830
VS1_24
p1831
ssg559
I20
sg42
g1645
sbsg1712
VD
p1832
sg1714
I3
sg42
VCNJ_WHILE
p1833
sg1715
(iconstruction
TP_SEMFRAME
p1834
(dp1835
g72
g0
(g73
g2
Ntp1836
Rp1837
(dp1838
g77
(dp1839
(iconstruction
TP_NODE
p1840
(dp1841
g1724
I00
sg61
g714
sg42
g1828
sg1725
I00
sg1726
I00
sg559
I22
sb(dp1842
g1725
I00
sg61
g714
ss(iconstruction
TP_NODE
p1843
(dp1844
g1724
I00
sg61
g714
sg42
g1830
sg1725
I00
sg1726
I01
sg559
I21
sb(dp1845
g1725
I00
sg61
g714
sssg260
g261
sg262
g261
sg263
(dp1846
g1840
(dp1847
sg1843
(dp1848
g1840
(dp1849
g61
g696
ssssg457
g1846
sg72
(dp1850
sg459
g261
sg460
g1846
sg461
(dp1851
g1840
(dp1852
g1843
g1849
ssg1843
(dp1853
ssbsg554
(lp1854
g1843
ag1840
asg827
(lp1855
(iconstruction
TP_REL
p1856
(dp1857
g833
g1840
sg61
g696
sg559
I23
sg834
g1843
sg42
VEVT1_EVT2_23
p1858
sbasg559
I18
sg42
g1645
sbsg1740
(iconstruction
TP_SYNFORM
p1859
(dp1860
g559
I19
sg1743
(lp1861
(iconstruction
TP_SLOT
p1862
(dp1863
g1747
(lp1864
VS
p1865
asg1750
I0
sg559
I24
sg42
g1831
sba(iconstruction
TP_PHON
p1866
(dp1867
g1753
I5
sg1750
I1
sg559
I25
sg1754
Vwhile
p1868
sg42
VS2_25
p1869
sba(iconstruction
TP_SLOT
p1870
(dp1871
g1747
(lp1872
VS
p1873
asg1750
I2
sg559
I26
sg42
g1829
sbasg42
g1645
sbsg1761
I1
sba(iconstruction
CXN
p1874
(dp1875
g1703
(iconstruction
TP_SYMLINKS
p1876
(dp1877
g1706
(dp1878
VACT_31
p1879
VS4_40
p1880
sVACTOR_1_32
p1881
VS1_37
p1882
sVACTOR_2_33
p1883
VS3_39
p1884
ssg559
I29
sg42
g1645
sbsg1712
VS
p1885
sg1714
Nsg42
VSYMMETRIC_TRANS
p1886
sg1715
(iconstruction
TP_SEMFRAME
p1887
(dp1888
g72
g0
(g73
g2
Ntp1889
Rp1890
(dp1891
g77
(dp1892
(iconstruction
TP_NODE
p1893
(dp1894
g1724
I01
sg61
g714
sg42
VEVT_30
p1895
sg1725
I01
sg1726
I00
sg559
I30
sb(dp1896
g1725
I01
sg61
g714
ss(iconstruction
TP_NODE
p1897
(dp1898
g1724
I00
sg61
g717
sg42
g1881
sg1725
I01
sg1726
I01
sg559
I32
sb(dp1899
g1725
I01
sg61
g717
ss(iconstruction
TP_NODE
p1900
(dp1901
g1724
I00
sg61
g561
sg42
g1879
sg1725
I01
sg1726
I00
sg559
I31
sb(dp1902
g1725
I01
sg61
g561
ss(iconstruction
TP_NODE
p1903
(dp1904
g1724
I00
sg61
g717
sg42
g1883
sg1725
I01
sg1726
I00
sg559
I33
sb(dp1905
g1725
I01
sg61
g717
sssg260
g261
sg262
g261
sg263
(dp1906
g1893
(dp1907
g1900
(dp1908
g61
g708
sssg1897
(dp1909
sg1900
(dp1910
g1897
(dp1911
g61
g684
ssg1903
(dp1912
g61
g684
sssg1903
(dp1913
ssg457
g1906
sg72
(dp1914
sg459
g261
sg460
g1906
sg461
(dp1915
g1893
(dp1916
sg1897
(dp1917
g1900
g1911
ssg1900
(dp1918
g1893
g1908
ssg1903
(dp1919
g1900
g1912
sssbsg554
(lp1920
g1893
ag1900
ag1897
ag1903
asg827
(lp1921
(iconstruction
TP_REL
p1922
(dp1923
g833
g1900
sg61
g708
sg559
I34
sg834
g1893
sg42
VIS_34
p1924
sba(iconstruction
TP_REL
p1925
(dp1926
g833
g1897
sg61
g684
sg559
I35
sg834
g1900
sg42
VAGT_PT_1_35
p1927
sba(iconstruction
TP_REL
p1928
(dp1929
g833
g1903
sg61
g684
sg559
I36
sg834
g1900
sg42
VAGT_PT_2_36
p1930
sbasg559
I27
sg42
g1645
sbsg1740
(iconstruction
TP_SYNFORM
p1931
(dp1932
g559
I28
sg1743
(lp1933
(iconstruction
TP_SLOT
p1934
(dp1935
g1747
(lp1936
VNP
p1937
aVN
p1938
asg1750
I0
sg559
I37
sg42
g1882
sba(iconstruction
TP_PHON
p1939
(dp1940
g1753
I3
sg1750
I1
sg559
I38
sg1754
Vand
p1941
sg42
VS2_38
p1942
sba(iconstruction
TP_SLOT
p1943
(dp1944
g1747
(lp1945
VNP
p1946
aVN
p1947
asg1750
I2
sg559
I39
sg42
g1884
sba(iconstruction
TP_SLOT
p1948
(dp1949
g1747
(lp1950
VVP
p1951
aVV
p1952
asg1750
I3
sg559
I40
sg42
g1880
sbasg42
g1645
sbsg1761
I1
sba(iconstruction
CXN
p1953
(dp1954
g1703
(iconstruction
TP_SYMLINKS
p1955
(dp1956
g1706
(dp1957
VAGT_46
p1958
VS1_51
p1959
sVACT_45
p1960
VS2_52
p1961
sVPT_47
p1962
VS3_53
p1963
ssg559
I43
sg42
g1645
sbsg1712
VS
p1964
sg1714
I2
sg42
VSVO
p1965
sg1715
(iconstruction
TP_SEMFRAME
p1966
(dp1967
g72
g0
(g73
g2
Ntp1968
Rp1969
(dp1970
g77
(dp1971
(iconstruction
TP_NODE
p1972
(dp1973
g1724
I01
sg61
g714
sg42
VEVT_44
p1974
sg1725
I01
sg1726
I00
sg559
I44
sb(dp1975
g1725
I01
sg61
g714
ss(iconstruction
TP_NODE
p1976
(dp1977
g1724
I00
sg61
g717
sg42
g1958
sg1725
I01
sg1726
I01
sg559
I46
sb(dp1978
g1725
I01
sg61
g717
ss(iconstruction
TP_NODE
p1979
(dp1980
g1724
I00
sg61
g717
sg42
g1962
sg1725
I01
sg1726
I00
sg559
I47
sb(dp1981
g1725
I01
sg61
g717
ss(iconstruction
TP_NODE
p1982
(dp1983
g1724
I00
sg61
g561
sg42
g1960
sg1725
I01
sg1726
I00
sg559
I45
sb(dp1984
g1725
I01
sg61
g561
sssg260
g261
sg262
g261
sg263
(dp1985
g1972
(dp1986
g1982
(dp1987
g61
g708
sssg1976
(dp1988
sg1979
(dp1989
sg1982
(dp1990
g1976
(dp1991
g61
g687
ssg1979
(dp1992
g61
g681
ssssg457
g1985
sg72
(dp1993
sg459
g261
sg460
g1985
sg461
(dp1994
g1972
(dp1995
sg1976
(dp1996
g1982
g1991
ssg1979
(dp1997
g1982
g1992
ssg1982
(dp1998
g1972
g1987
sssbsg554
(lp1999
g1972
ag1982
ag1976
ag1979
asg827
(lp2000
(iconstruction
TP_REL
p2001
(dp2002
g833
g1982
sg61
g708
sg559
I48
sg834
g1972
sg42
VIS_48
p2003
sba(iconstruction
TP_REL
p2004
(dp2005
g833
g1976
sg61
g687
sg559
I49
sg834
g1982
sg42
VACT_AGT_49
p2006
sba(iconstruction
TP_REL
p2007
(dp2008
g833
g1979
sg61
g681
sg559
I50
sg834
g1982
sg42
VACT_PT_50
p2009
sbasg559
I41
sg42
g1645
sbsg1740
(iconstruction
TP_SYNFORM
p2010
(dp2011
g559
I42
sg1743
(lp2012
(iconstruction
TP_SLOT
p2013
(dp2014
g1747
(lp2015
VNP
p2016
aVN
p2017
asg1750
I0
sg559
I51
sg42
g1959
sba(iconstruction
TP_SLOT
p2018
(dp2019
g1747
(lp2020
VVP
p2021
aVV
p2022
asg1750
I1
sg559
I52
sg42
g1961
sba(iconstruction
TP_SLOT
p2023
(dp2024
g1747
(lp2025
VNP
p2026
aVN
p2027
asg1750
I2
sg559
I53
sg42
g1963
sbasg42
g1645
sbsg1761
I1
sba(iconstruction
CXN
p2028
(dp2029
g1703
(iconstruction
TP_SYMLINKS
p2030
(dp2031
g1706
(dp2032
VPT_60
p2033
VS1_64
p2034
sVACT_58
p2035
VS3_66
p2036
sVAGT_59
p2037
VS6_69
p2038
ssg559
I56
sg42
g1645
sbsg1712
VS
p2039
sg1714
I2
sg42
VPAS_SVO
p2040
sg1715
(iconstruction
TP_SEMFRAME
p2041
(dp2042
g72
g0
(g73
g2
Ntp2043
Rp2044
(dp2045
g77
(dp2046
(iconstruction
TP_NODE
p2047
(dp2048
g1724
I00
sg61
g561
sg42
g2035
sg1725
I01
sg1726
I00
sg559
I58
sb(dp2049
g1725
I01
sg61
g561
ss(iconstruction
TP_NODE
p2050
(dp2051
g1724
I00
sg61
g717
sg42
g2037
sg1725
I01
sg1726
I00
sg559
I59
sb(dp2052
g1725
I01
sg61
g717
ss(iconstruction
TP_NODE
p2053
(dp2054
g1724
I01
sg61
g714
sg42
VEVT_57
p2055
sg1725
I01
sg1726
I00
sg559
I57
sb(dp2056
g1725
I01
sg61
g714
ss(iconstruction
TP_NODE
p2057
(dp2058
g1724
I00
sg61
g717
sg42
g2033
sg1725
I01
sg1726
I01
sg559
I60
sb(dp2059
g1725
I01
sg61
g717
sssg260
g261
sg262
g261
sg263
(dp2060
g2047
(dp2061
g2057
(dp2062
g61
g681
ssg2050
(dp2063
g61
g687
sssg2050
(dp2064
sg2053
(dp2065
g2047
(dp2066
g61
g708
sssg2057
(dp2067
ssg457
g2060
sg72
(dp2068
sg459
g261
sg460
g2060
sg461
(dp2069
g2047
(dp2070
g2053
g2066
ssg2050
(dp2071
g2047
g2063
ssg2053
(dp2072
sg2057
(dp2073
g2047
g2062
sssbsg554
(lp2074
g2053
ag2047
ag2050
ag2057
asg827
(lp2075
(iconstruction
TP_REL
p2076
(dp2077
g833
g2047
sg61
g708
sg559
I61
sg834
g2053
sg42
VIS_61
p2078
sba(iconstruction
TP_REL
p2079
(dp2080
g833
g2050
sg61
g687
sg559
I62
sg834
g2047
sg42
VACT_AGT_62
p2081
sba(iconstruction
TP_REL
p2082
(dp2083
g833
g2057
sg61
g681
sg559
I63
sg834
g2047
sg42
VACT_PT_63
p2084
sbasg559
I54
sg42
g1645
sbsg1740
(iconstruction
TP_SYNFORM
p2085
(dp2086
g559
I55
sg1743
(lp2087
(iconstruction
TP_SLOT
p2088
(dp2089
g1747
(lp2090
VNP
p2091
aVN
p2092
asg1750
I0
sg559
I64
sg42
g2034
sba(iconstruction
TP_PHON
p2093
(dp2094
g1753
I2
sg1750
I1
sg559
I65
sg1754
Vis
p2095
sg42
VS2_65
p2096
sba(iconstruction
TP_SLOT
p2097
(dp2098
g1747
(lp2099
VVP
p2100
aVV
p2101
asg1750
I2
sg559
I66
sg42
g2036
sba(iconstruction
TP_PHON
p2102
(dp2103
g1753
I2
sg1750
I3
sg559
I67
sg1754
V-ed
p2104
sg42
VS4_67
p2105
sba(iconstruction
TP_PHON
p2106
(dp2107
g1753
I2
sg1750
I4
sg559
I68
sg1754
Vby
p2108
sg42
VS5_68
p2109
sba(iconstruction
TP_SLOT
p2110
(dp2111
g1747
(lp2112
VNP
p2113
aVN
p2114
asg1750
I5
sg559
I69
sg42
g2038
sbasg42
g1645
sbsg1761
I1
sba(iconstruction
CXN
p2115
(dp2116
g1703
(iconstruction
TP_SYMLINKS
p2117
(dp2118
g1706
(dp2119
VACT_74
p2120
VS2_83
p2121
sVRCPT_77
p2122
VS3_84
p2123
sVTHEME_76
p2124
VS4_85
p2125
sVAGT_75
p2126
VS1_82
p2127
ssg559
I72
sg42
g1645
sbsg1712
VS
p2128
sg1714
I2
sg42
VDOUBLE_OBJ
p2129
sg1715
(iconstruction
TP_SEMFRAME
p2130
(dp2131
g72
g0
(g73
g2
Ntp2132
Rp2133
(dp2134
g77
(dp2135
(iconstruction
TP_NODE
p2136
(dp2137
g1724
I01
sg61
g714
sg42
VEVT_73
p2138
sg1725
I01
sg1726
I00
sg559
I73
sb(dp2139
g1725
I01
sg61
g714
ss(iconstruction
TP_NODE
p2140
(dp2141
g1724
I00
sg61
g717
sg42
g2126
sg1725
I01
sg1726
I01
sg559
I75
sb(dp2142
g1725
I01
sg61
g717
ss(iconstruction
TP_NODE
p2143
(dp2144
g1724
I00
sg61
g561
sg42
g2120
sg1725
I01
sg1726
I00
sg559
I74
sb(dp2145
g1725
I01
sg61
g561
ss(iconstruction
TP_NODE
p2146
(dp2147
g1724
I00
sg61
g717
sg42
g2122
sg1725
I01
sg1726
I00
sg559
I77
sb(dp2148
g1725
I01
sg61
g717
ss(iconstruction
TP_NODE
p2149
(dp2150
g1724
I00
sg61
g717
sg42
g2124
sg1725
I01
sg1726
I00
sg559
I76
sb(dp2151
g1725
I01
sg61
g717
sssg260
g261
sg262
g261
sg263
(dp2152
g2136
(dp2153
g2143
(dp2154
g61
g708
sssg2140
(dp2155
sg2143
(dp2156
g2140
(dp2157
g61
g687
ssg2146
(dp2158
g61
g672
ssg2149
(dp2159
g61
g669
sssg2146
(dp2160
sg2149
(dp2161
ssg457
g2152
sg72
(dp2162
sg459
g261
sg460
g2152
sg461
(dp2163
g2136
(dp2164
sg2140
(dp2165
g2143
g2157
ssg2143
(dp2166
g2136
g2154
ssg2146
(dp2167
g2143
g2158
ssg2149
(dp2168
g2143
g2159
sssbsg554
(lp2169
g2136
ag2143
ag2140
ag2149
ag2146
asg827
(lp2170
(iconstruction
TP_REL
p2171
(dp2172
g833
g2143
sg61
g708
sg559
I78
sg834
g2136
sg42
VIS_78
p2173
sba(iconstruction
TP_REL
p2174
(dp2175
g833
g2140
sg61
g687
sg559
I79
sg834
g2143
sg42
VACT_AGT_79
p2176
sba(iconstruction
TP_REL
p2177
(dp2178
g833
g2149
sg61
g669
sg559
I80
sg834
g2143
sg42
VACT_THEME_80
p2179
sba(iconstruction
TP_REL
p2180
(dp2181
g833
g2146
sg61
g672
sg559
I81
sg834
g2143
sg42
VACT_RCPT_81
p2182
sbasg559
I70
sg42
g1645
sbsg1740
(iconstruction
TP_SYNFORM
p2183
(dp2184
g559
I71
sg1743
(lp2185
(iconstruction
TP_SLOT
p2186
(dp2187
g1747
(lp2188
VNP
p2189
aVN
p2190
asg1750
I0
sg559
I82
sg42
g2127
sba(iconstruction
TP_SLOT
p2191
(dp2192
g1747
(lp2193
VVP
p2194
aVV
p2195
asg1750
I1
sg559
I83
sg42
g2121
sba(iconstruction
TP_SLOT
p2196
(dp2197
g1747
(lp2198
VNP
p2199
aVN
p2200
asg1750
I2
sg559
I84
sg42
g2123
sba(iconstruction
TP_SLOT
p2201
(dp2202
g1747
(lp2203
VNP
p2204
aVN
p2205
asg1750
I3
sg559
I85
sg42
g2125
sbasg42
g1645
sbsg1761
I1
sba(iconstruction
CXN
p2206
(dp2207
g1703
(iconstruction
TP_SYMLINKS
p2208
(dp2209
g1706
(dp2210
VAGT_91
p2211
VS1_98
p2212
sVRCPT_93
p2213
VS5_102
p2214
sVACT_90
p2215
VS2_99
p2216
sVTHEME_92
p2217
VS3_100
p2218
ssg559
I88
sg42
g1645
sbsg1712
VS
p2219
sg1714
I2
sg42
VOBLIQUE_DATIVE
p2220
sg1715
(iconstruction
TP_SEMFRAME
p2221
(dp2222
g72
g0
(g73
g2
Ntp2223
Rp2224
(dp2225
g77
(dp2226
(iconstruction
TP_NODE
p2227
(dp2228
g1724
I01
sg61
g714
sg42
VEVT_89
p2229
sg1725
I01
sg1726
I00
sg559
I89
sb(dp2230
g1725
I01
sg61
g714
ss(iconstruction
TP_NODE
p2231
(dp2232
g1724
I00
sg61
g717
sg42
g2211
sg1725
I01
sg1726
I01
sg559
I91
sb(dp2233
g1725
I01
sg61
g717
ss(iconstruction
TP_NODE
p2234
(dp2235
g1724
I00
sg61
g717
sg42
g2217
sg1725
I01
sg1726
I00
sg559
I92
sb(dp2236
g1725
I01
sg61
g717
ss(iconstruction
TP_NODE
p2237
(dp2238
g1724
I00
sg61
g609
sg42
g2215
sg1725
I01
sg1726
I00
sg559
I90
sb(dp2239
g1725
I01
sg61
g609
ss(iconstruction
TP_NODE
p2240
(dp2241
g1724
I00
sg61
g717
sg42
g2213
sg1725
I01
sg1726
I00
sg559
I93
sb(dp2242
g1725
I01
sg61
g717
sssg260
g261
sg262
g261
sg263
(dp2243
g2227
(dp2244
g2237
(dp2245
g61
g708
sssg2231
(dp2246
sg2234
(dp2247
sg2237
(dp2248
g2231
(dp2249
g61
g687
ssg2240
(dp2250
g61
g672
ssg2234
(dp2251
g61
g669
sssg2240
(dp2252
ssg457
g2243
sg72
(dp2253
sg459
g261
sg460
g2243
sg461
(dp2254
g2227
(dp2255
sg2231
(dp2256
g2237
g2249
ssg2234
(dp2257
g2237
g2251
ssg2237
(dp2258
g2227
g2245
ssg2240
(dp2259
g2237
g2250
sssbsg554
(lp2260
g2227
ag2237
ag2231
ag2234
ag2240
asg827
(lp2261
(iconstruction
TP_REL
p2262
(dp2263
g833
g2237
sg61
g708
sg559
I94
sg834
g2227
sg42
VIS_94
p2264
sba(iconstruction
TP_REL
p2265
(dp2266
g833
g2231
sg61
g687
sg559
I95
sg834
g2237
sg42
VACT_AGT_95
p2267
sba(iconstruction
TP_REL
p2268
(dp2269
g833
g2234
sg61
g669
sg559
I96
sg834
g2237
sg42
VACT_THEME_96
p2270
sba(iconstruction
TP_REL
p2271
(dp2272
g833
g2240
sg61
g672
sg559
I97
sg834
g2237
sg42
VACT_RCPT_97
p2273
sbasg559
I86
sg42
g1645
sbsg1740
(iconstruction
TP_SYNFORM
p2274
(dp2275
g559
I87
sg1743
(lp2276
(iconstruction
TP_SLOT
p2277
(dp2278
g1747
(lp2279
VNP
p2280
aVN
p2281
asg1750
I0
sg559
I98
sg42
g2212
sba(iconstruction
TP_SLOT
p2282
(dp2283
g1747
(lp2284
VVP
p2285
aVV
p2286
asg1750
I1
sg559
I99
sg42
g2216
sba(iconstruction
TP_SLOT
p2287
(dp2288
g1747
(lp2289
VNP
p2290
aVN
p2291
asg1750
I2
sg559
I100
sg42
g2218
sba(iconstruction
TP_PHON
p2292
(dp2293
g1753
I2
sg1750
I3
sg559
I101
sg1754
Vto
p2294
sg42
VS4_101
p2295
sba(iconstruction
TP_SLOT
p2296
(dp2297
g1747
(lp2298
VNP
p2299
aVN
p2300
asg1750
I4
sg559
I102
sg42
g2214
sbasg42
g1645
sbsg1761
I1
sba(iconstruction
CXN
p2301
(dp2302
g1703
(iconstruction
TP_SYMLINKS
p2303
(dp2304
g1706
(dp2305
VATTR_108
p2306
VS3_113
p2307
sVENT_107
p2308
VS1_111
p2309
ssg559
I105
sg42
g1645
sbsg1712
VS
p2310
sg1714
I2
sg42
VSPA
p2311
sg1715
(iconstruction
TP_SEMFRAME
p2312
(dp2313
g72
g0
(g73
g2
Ntp2314
Rp2315
(dp2316
g77
(dp2317
(iconstruction
TP_NODE
p2318
(dp2319
g1724
I00
sg61
g717
sg42
g2308
sg1725
I01
sg1726
I01
sg559
I107
sb(dp2320
g1725
I01
sg61
g717
ss(iconstruction
TP_NODE
p2321
(dp2322
g1724
I00
sg61
g618
sg42
g2306
sg1725
I00
sg1726
I00
sg559
I108
sb(dp2323
g1725
I00
sg61
g618
ss(iconstruction
TP_NODE
p2324
(dp2325
g1724
I01
sg61
g714
sg42
VEVT_106
p2326
sg1725
I01
sg1726
I00
sg559
I106
sb(dp2327
g1725
I01
sg61
g714
sssg260
g261
sg262
g261
sg263
(dp2328
g2318
(dp2329
sg2321
(dp2330
sg2324
(dp2331
g2318
(dp2332
g61
g708
ssg2321
(dp2333
g61
g666
ssssg457
g2328
sg72
(dp2334
sg459
g261
sg460
g2328
sg461
(dp2335
g2318
(dp2336
g2324
g2332
ssg2321
(dp2337
g2324
g2333
ssg2324
(dp2338
ssbsg554
(lp2339
g2324
ag2318
ag2321
asg827
(lp2340
(iconstruction
TP_REL
p2341
(dp2342
g833
g2318
sg61
g708
sg559
I109
sg834
g2324
sg42
VIS_109
p2343
sba(iconstruction
TP_REL
p2344
(dp2345
g833
g2321
sg61
g666
sg559
I110
sg834
g2324
sg42
VEVT_ATTR_110
p2346
sbasg559
I103
sg42
g1645
sbsg1740
(iconstruction
TP_SYNFORM
p2347
(dp2348
g559
I104
sg1743
(lp2349
(iconstruction
TP_SLOT
p2350
(dp2351
g1747
(lp2352
VNP
p2353
aVN
p2354
asg1750
I0
sg559
I111
sg42
g2309
sba(iconstruction
TP_PHON
p2355
(dp2356
g1753
I2
sg1750
I1
sg559
I112
sg1754
Vis
p2357
sg42
VS2_112
p2358
sba(iconstruction
TP_SLOT
p2359
(dp2360
g1747
(lp2361
VA
p2362
asg1750
I2
sg559
I113
sg42
g2307
sbasg42
g1645
sbsg1761
I1
sba(iconstruction
CXN
p2363
(dp2364
g1703
(iconstruction
TP_SYMLINKS
p2365
(dp2366
g1706
(dp2367
VAGT_119
p2368
VS1_122
p2369
sVACT_118
p2370
VS2_123
p2371
ssg559
I116
sg42
g1645
sbsg1712
VS
p2372
sg1714
I2
sg42
VSV
p2373
sg1715
(iconstruction
TP_SEMFRAME
p2374
(dp2375
g72
g0
(g73
g2
Ntp2376
Rp2377
(dp2378
g77
(dp2379
(iconstruction
TP_NODE
p2380
(dp2381
g1724
I00
sg61
g573
sg42
g2370
sg1725
I01
sg1726
I00
sg559
I118
sb(dp2382
g1725
I01
sg61
g573
ss(iconstruction
TP_NODE
p2383
(dp2384
g1724
I00
sg61
g717
sg42
g2368
sg1725
I01
sg1726
I01
sg559
I119
sb(dp2385
g1725
I01
sg61
g717
ss(iconstruction
TP_NODE
p2386
(dp2387
g1724
I01
sg61
g714
sg42
VEVT_117
p2388
sg1725
I01
sg1726
I00
sg559
I117
sb(dp2389
g1725
I01
sg61
g714
sssg260
g261
sg262
g261
sg263
(dp2390
g2380
(dp2391
g2383
(dp2392
g61
g687
sssg2383
(dp2393
sg2386
(dp2394
g2380
(dp2395
g61
g708
ssssg457
g2390
sg72
(dp2396
sg459
g261
sg460
g2390
sg461
(dp2397
g2380
(dp2398
g2386
g2395
ssg2383
(dp2399
g2380
g2392
ssg2386
(dp2400
ssbsg554
(lp2401
g2386
ag2380
ag2383
asg827
(lp2402
(iconstruction
TP_REL
p2403
(dp2404
g833
g2380
sg61
g708
sg559
I120
sg834
g2386
sg42
VIS_120
p2405
sba(iconstruction
TP_REL
p2406
(dp2407
g833
g2383
sg61
g687
sg559
I121
sg834
g2380
sg42
VACT_AGT_121
p2408
sbasg559
I114
sg42
g1645
sbsg1740
(iconstruction
TP_SYNFORM
p2409
(dp2410
g559
I115
sg1743
(lp2411
(iconstruction
TP_SLOT
p2412
(dp2413
g1747
(lp2414
VNP
p2415
aVN
p2416
asg1750
I0
sg559
I122
sg42
g2369
sba(iconstruction
TP_SLOT
p2417
(dp2418
g1747
(lp2419
VVP
p2420
aVV
p2421
asg1750
I1
sg559
I123
sg42
g2371
sbasg42
g1645
sbsg1761
I1
sba(iconstruction
CXN
p2422
(dp2423
g1703
(iconstruction
TP_SYMLINKS
p2424
(dp2425
g1706
(dp2426
VEVT_127
p2427
VS1_130
p2428
sVPLACE_128
p2429
VS3_132
p2430
ssg559
I126
sg42
g1645
sbsg1712
VS
p2431
sg1714
I2
sg42
VPP_IN
p2432
sg1715
(iconstruction
TP_SEMFRAME
p2433
(dp2434
g72
g0
(g73
g2
Ntp2435
Rp2436
(dp2437
g77
(dp2438
(iconstruction
TP_NODE
p2439
(dp2440
g1724
I00
sg61
g717
sg42
g2429
sg1725
I01
sg1726
I00
sg559
I128
sb(dp2441
g1725
I01
sg61
g717
ss(iconstruction
TP_NODE
p2442
(dp2443
g1724
I01
sg61
g714
sg42
g2427
sg1725
I01
sg1726
I00
sg559
I127
sb(dp2444
g1725
I01
sg61
g714
sssg260
g261
sg262
g261
sg263
(dp2445
g2439
(dp2446
sg2442
(dp2447
g2439
(dp2448
g61
g705
ssssg457
g2445
sg72
(dp2449
sg459
g261
sg460
g2445
sg461
(dp2450
g2439
(dp2451
g2442
g2448
ssg2442
(dp2452
ssbsg554
(lp2453
g2442
ag2439
asg827
(lp2454
(iconstruction
TP_REL
p2455
(dp2456
g833
g2439
sg61
g705
sg559
I129
sg834
g2442
sg42
VEVT_PP_129
p2457
sbasg559
I124
sg42
g1645
sbsg1740
(iconstruction
TP_SYNFORM
p2458
(dp2459
g559
I125
sg1743
(lp2460
(iconstruction
TP_SLOT
p2461
(dp2462
g1747
(lp2463
VS
p2464
asg1750
I0
sg559
I130
sg42
g2428
sba(iconstruction
TP_PHON
p2465
(dp2466
g1753
I2
sg1750
I1
sg559
I131
sg1754
Vin
p2467
sg42
VS2_131
p2468
sba(iconstruction
TP_SLOT
p2469
(dp2470
g1747
(lp2471
VNP
p2472
aVN
p2473
asg1750
I2
sg559
I132
sg42
g2430
sbasg42
g1645
sbsg1761
I1
sba(iconstruction
CXN
p2474
(dp2475
g1703
(iconstruction
TP_SYMLINKS
p2476
(dp2477
g1706
(dp2478
VEVT2_137
p2479
VS2_140
p2480
sVEVT1_136
p2481
VS1_139
p2482
ssg559
I135
sg42
g1645
sbsg1712
VS
p2483
sg1714
I2
sg42
VS_PP
p2484
sg1715
(iconstruction
TP_SEMFRAME
p2485
(dp2486
g72
g0
(g73
g2
Ntp2487
Rp2488
(dp2489
g77
(dp2490
(iconstruction
TP_NODE
p2491
(dp2492
g1724
I01
sg61
g714
sg42
g2481
sg1725
I01
sg1726
I01
sg559
I136
sb(dp2493
g1725
I01
sg61
g714
ss(iconstruction
TP_NODE
p2494
(dp2495
g1724
I00
sg61
g714
sg42
g2479
sg1725
I01
sg1726
I00
sg559
I137
sb(dp2496
g1725
I01
sg61
g714
sssg260
g261
sg262
g261
sg263
(dp2497
g2491
(dp2498
g2494
(dp2499
g61
g666
sssg2494
(dp2500
ssg457
g2497
sg72
(dp2501
sg459
g261
sg460
g2497
sg461
(dp2502
g2491
(dp2503
sg2494
(dp2504
g2491
g2499
sssbsg554
(lp2505
g2491
ag2494
asg827
(lp2506
(iconstruction
TP_REL
p2507
(dp2508
g833
g2494
sg61
g666
sg559
I138
sg834
g2491
sg42
VMOD_138
p2509
sbasg559
I133
sg42
g1645
sbsg1740
(iconstruction
TP_SYNFORM
p2510
(dp2511
g559
I134
sg1743
(lp2512
(iconstruction
TP_SLOT
p2513
(dp2514
g1747
(lp2515
VS
p2516
asg1750
I0
sg559
I139
sg42
g2482
sba(iconstruction
TP_SLOT
p2517
(dp2518
g1747
(lp2519
VPP
p2520
asg1750
I1
sg559
I140
sg42
g2480
sbasg42
g1645
sbsg1761
I1
sba(iconstruction
CXN
p2521
(dp2522
g1703
(iconstruction
TP_SYMLINKS
p2523
(dp2524
g1706
(dp2525
VENT_144
p2526
VS2_148
p2527
sVATTR_145
p2528
VS1_147
p2529
ssg559
I143
sg42
g1645
sbsg1712
VN
p2530
sg1714
I2
sg42
VADJUNCT_N
p2531
sg1715
(iconstruction
TP_SEMFRAME
p2532
(dp2533
g72
g0
(g73
g2
Ntp2534
Rp2535
(dp2536
g77
(dp2537
(iconstruction
TP_NODE
p2538
(dp2539
g1724
I01
sg61
g717
sg42
g2526
sg1725
I01
sg1726
I00
sg559
I144
sb(dp2540
g1725
I01
sg61
g717
ss(iconstruction
TP_NODE
p2541
(dp2542
g1724
I00
sg61
g618
sg42
g2528
sg1725
I00
sg1726
I00
sg559
I145
sb(dp2543
g1725
I00
sg61
g618
sssg260
g261
sg262
g261
sg263
(dp2544
g2538
(dp2545
g2541
(dp2546
g61
g666
sssg2541
(dp2547
ssg457
g2544
sg72
(dp2548
sg459
g261
sg460
g2544
sg461
(dp2549
g2538
(dp2550
sg2541
(dp2551
g2538
g2546
sssbsg554
(lp2552
g2538
ag2541
asg827
(lp2553
(iconstruction
TP_REL
p2554
(dp2555
g833
g2541
sg61
g666
sg559
I146
sg834
g2538
sg42
VENT_ATTR_146
p2556
sbasg559
I141
sg42
g1645
sbsg1740
(iconstruction
TP_SYNFORM
p2557
(dp2558
g559
I142
sg1743
(lp2559
(iconstruction
TP_SLOT
p2560
(dp2561
g1747
(lp2562
VA
p2563
asg1750
I0
sg559
I147
sg42
g2529
sba(iconstruction
TP_SLOT
p2564
(dp2565
g1747
(lp2566
VN
p2567
asg1750
I1
sg559
I148
sg42
g2527
sbasg42
g1645
sbsg1761
I1
sba(iconstruction
CXN
p2568
(dp2569
g1703
(iconstruction
TP_SYMLINKS
p2570
(dp2571
g1706
(dp2572
VAGT_154
p2573
VS1_160
p2574
sVACT_153
p2575
VS3_162
p2576
sVPT_155
p2577
VS4_163
p2578
ssg559
I151
sg42
g1645
sbsg1712
VN
p2579
sg1714
I2
sg42
VSUBJ_REL_SVO
p2580
sg1715
(iconstruction
TP_SEMFRAME
p2581
(dp2582
g72
g0
(g73
g2
Ntp2583
Rp2584
(dp2585
g77
(dp2586
(iconstruction
TP_NODE
p2587
(dp2588
g1724
I00
sg61
g714
sg42
VEVT_152
p2589
sg1725
I01
sg1726
I00
sg559
I152
sb(dp2590
g1725
I01
sg61
g714
ss(iconstruction
TP_NODE
p2591
(dp2592
g1724
I01
sg61
g717
sg42
g2573
sg1725
I01
sg1726
I00
sg559
I154
sb(dp2593
g1725
I01
sg61
g717
ss(iconstruction
TP_NODE
p2594
(dp2595
g1724
I00
sg61
g579
sg42
g2575
sg1725
I01
sg1726
I01
sg559
I153
sb(dp2596
g1725
I01
sg61
g579
ss(iconstruction
TP_NODE
p2597
(dp2598
g1724
I00
sg61
g717
sg42
g2577
sg1725
I01
sg1726
I00
sg559
I155
sb(dp2599
g1725
I01
sg61
g717
sssg260
g261
sg262
g261
sg263
(dp2600
g2587
(dp2601
g2594
(dp2602
g61
g708
sssg2591
(dp2603
g2587
(dp2604
g61
g666
sssg2594
(dp2605
g2591
(dp2606
g61
g687
ssg2597
(dp2607
g61
g681
sssg2597
(dp2608
ssg457
g2600
sg72
(dp2609
sg459
g261
sg460
g2600
sg461
(dp2610
g2587
(dp2611
g2591
g2604
ssg2591
(dp2612
g2594
g2606
ssg2594
(dp2613
g2587
g2602
ssg2597
(dp2614
g2594
g2607
sssbsg554
(lp2615
g2587
ag2594
ag2591
ag2597
asg827
(lp2616
(iconstruction
TP_REL
p2617
(dp2618
g833
g2594
sg61
g708
sg559
I156
sg834
g2587
sg42
VIS_156
p2619
sba(iconstruction
TP_REL
p2620
(dp2621
g833
g2591
sg61
g687
sg559
I157
sg834
g2594
sg42
VACT_AGT_157
p2622
sba(iconstruction
TP_REL
p2623
(dp2624
g833
g2597
sg61
g681
sg559
I158
sg834
g2594
sg42
VACT_PT_158
p2625
sba(iconstruction
TP_REL
p2626
(dp2627
g833
g2587
sg61
g666
sg559
I159
sg834
g2591
sg42
VAGT_EVT_159
p2628
sbasg559
I149
sg42
g1645
sbsg1740
(iconstruction
TP_SYNFORM
p2629
(dp2630
g559
I150
sg1743
(lp2631
(iconstruction
TP_SLOT
p2632
(dp2633
g1747
(lp2634
VN
p2635
asg1750
I0
sg559
I160
sg42
g2574
sba(iconstruction
TP_PHON
p2636
(dp2637
g1753
I4
sg1750
I1
sg559
I161
sg1754
Vthat
p2638
sg42
VS2_161
p2639
sba(iconstruction
TP_SLOT
p2640
(dp2641
g1747
(lp2642
VVP
p2643
aVV
p2644
asg1750
I2
sg559
I162
sg42
g2576
sba(iconstruction
TP_SLOT
p2645
(dp2646
g1747
(lp2647
VNP
p2648
aVN
p2649
asg1750
I3
sg559
I163
sg42
g2578
sbasg42
g1645
sbsg1761
I1
sba(iconstruction
CXN
p2650
(dp2651
g1703
(iconstruction
TP_SYMLINKS
p2652
(dp2653
g1706
(dp2654
VAGT_169
p2655
VS1_173
p2656
sVACT_168
p2657
VS3_175
p2658
ssg559
I166
sg42
g1645
sbsg1712
VN
p2659
sg1714
I2
sg42
VSUBJ_REL_SV
p2660
sg1715
(iconstruction
TP_SEMFRAME
p2661
(dp2662
g72
g0
(g73
g2
Ntp2663
Rp2664
(dp2665
g77
(dp2666
(iconstruction
TP_NODE
p2667
(dp2668
g1724
I00
sg61
g714
sg42
VEVT_167
p2669
sg1725
I01
sg1726
I00
sg559
I167
sb(dp2670
g1725
I01
sg61
g714
ss(iconstruction
TP_NODE
p2671
(dp2672
g1724
I01
sg61
g717
sg42
g2655
sg1725
I01
sg1726
I00
sg559
I169
sb(dp2673
g1725
I01
sg61
g717
ss(iconstruction
TP_NODE
p2674
(dp2675
g1724
I00
sg61
g561
sg42
g2657
sg1725
I01
sg1726
I01
sg559
I168
sb(dp2676
g1725
I01
sg61
g561
sssg260
g261
sg262
g261
sg263
(dp2677
g2667
(dp2678
g2674
(dp2679
g61
g708
sssg2671
(dp2680
g2667
(dp2681
g61
g666
sssg2674
(dp2682
g2671
(dp2683
g61
g687
ssssg457
g2677
sg72
(dp2684
sg459
g261
sg460
g2677
sg461
(dp2685
g2667
(dp2686
g2671
g2681
ssg2671
(dp2687
g2674
g2683
ssg2674
(dp2688
g2667
g2679
sssbsg554
(lp2689
g2667
ag2674
ag2671
asg827
(lp2690
(iconstruction
TP_REL
p2691
(dp2692
g833
g2674
sg61
g708
sg559
I170
sg834
g2667
sg42
VIS_170
p2693
sba(iconstruction
TP_REL
p2694
(dp2695
g833
g2671
sg61
g687
sg559
I171
sg834
g2674
sg42
VACT_AGT_171
p2696
sba(iconstruction
TP_REL
p2697
(dp2698
g833
g2667
sg61
g666
sg559
I172
sg834
g2671
sg42
VAGT_EVT_172
p2699
sbasg559
I164
sg42
g1645
sbsg1740
(iconstruction
TP_SYNFORM
p2700
(dp2701
g559
I165
sg1743
(lp2702
(iconstruction
TP_SLOT
p2703
(dp2704
g1747
(lp2705
VN
p2706
asg1750
I0
sg559
I173
sg42
g2656
sba(iconstruction
TP_PHON
p2707
(dp2708
g1753
I4
sg1750
I1
sg559
I174
sg1754
Vthat
p2709
sg42
VS2_174
p2710
sba(iconstruction
TP_SLOT
p2711
(dp2712
g1747
(lp2713
VVP
p2714
aVV
p2715
asg1750
I2
sg559
I175
sg42
g2658
sbasg42
g1645
sbsg1761
I1
sba(iconstruction
CXN
p2716
(dp2717
g1703
(iconstruction
TP_SYMLINKS
p2718
(dp2719
g1706
(dp2720
VAGT_181
p2721
VS7_193
p2722
sVPT_182
p2723
VS1_187
p2724
sVACT_180
p2725
VS4_190
p2726
ssg559
I178
sg42
g1645
sbsg1712
VN
p2727
sg1714
I2
sg42
VSUBJ_REL_PAS_SVO
p2728
sg1715
(iconstruction
TP_SEMFRAME
p2729
(dp2730
g72
g0
(g73
g2
Ntp2731
Rp2732
(dp2733
g77
(dp2734
(iconstruction
TP_NODE
p2735
(dp2736
g1724
I00
sg61
g714
sg42
VEVT_179
p2737
sg1725
I01
sg1726
I00
sg559
I179
sb(dp2738
g1725
I01
sg61
g714
ss(iconstruction
TP_NODE
p2739
(dp2740
g1724
I00
sg61
g717
sg42
g2721
sg1725
I01
sg1726
I00
sg559
I181
sb(dp2741
g1725
I01
sg61
g717
ss(iconstruction
TP_NODE
p2742
(dp2743
g1724
I01
sg61
g717
sg42
g2723
sg1725
I01
sg1726
I00
sg559
I182
sb(dp2744
g1725
I01
sg61
g717
ss(iconstruction
TP_NODE
p2745
(dp2746
g1724
I00
sg61
g561
sg42
g2725
sg1725
I01
sg1726
I01
sg559
I180
sb(dp2747
g1725
I01
sg61
g561
sssg260
g261
sg262
g261
sg263
(dp2748
g2735
(dp2749
g2745
(dp2750
g61
g708
sssg2739
(dp2751
sg2742
(dp2752
g2735
(dp2753
g61
g666
sssg2745
(dp2754
g2739
(dp2755
g61
g687
ssg2742
(dp2756
g61
g681
ssssg457
g2748
sg72
(dp2757
sg459
g261
sg460
g2748
sg461
(dp2758
g2735
(dp2759
g2742
g2753
ssg2739
(dp2760
g2745
g2755
ssg2742
(dp2761
g2745
g2756
ssg2745
(dp2762
g2735
g2750
sssbsg554
(lp2763
g2735
ag2745
ag2739
ag2742
asg827
(lp2764
(iconstruction
TP_REL
p2765
(dp2766
g833
g2745
sg61
g708
sg559
I183
sg834
g2735
sg42
VIS_183
p2767
sba(iconstruction
TP_REL
p2768
(dp2769
g833
g2739
sg61
g687
sg559
I184
sg834
g2745
sg42
VACT_AGT_184
p2770
sba(iconstruction
TP_REL
p2771
(dp2772
g833
g2742
sg61
g681
sg559
I185
sg834
g2745
sg42
VACT_PT_185
p2773
sba(iconstruction
TP_REL
p2774
(dp2775
g833
g2735
sg61
g666
sg559
I186
sg834
g2742
sg42
VPT_EVT_186
p2776
sbasg559
I176
sg42
g1645
sbsg1740
(iconstruction
TP_SYNFORM
p2777
(dp2778
g559
I177
sg1743
(lp2779
(iconstruction
TP_SLOT
p2780
(dp2781
g1747
(lp2782
VN
p2783
asg1750
I0
sg559
I187
sg42
g2724
sba(iconstruction
TP_PHON
p2784
(dp2785
g1753
I4
sg1750
I1
sg559
I188
sg1754
Vthat
p2786
sg42
VS2_188
p2787
sba(iconstruction
TP_PHON
p2788
(dp2789
g1753
I2
sg1750
I2
sg559
I189
sg1754
Vis
p2790
sg42
VS3_189
p2791
sba(iconstruction
TP_SLOT
p2792
(dp2793
g1747
(lp2794
VVP
p2795
aVV
p2796
asg1750
I3
sg559
I190
sg42
g2726
sba(iconstruction
TP_PHON
p2797
(dp2798
g1753
I2
sg1750
I4
sg559
I191
sg1754
V-ed
p2799
sg42
VS5_191
p2800
sba(iconstruction
TP_PHON
p2801
(dp2802
g1753
I2
sg1750
I5
sg559
I192
sg1754
Vby
p2803
sg42
VS6_192
p2804
sba(iconstruction
TP_SLOT
p2805
(dp2806
g1747
(lp2807
VNP
p2808
aVN
p2809
asg1750
I6
sg559
I193
sg42
g2722
sbasg42
g1645
sbsg1761
I1
sba(iconstruction
CXN
p2810
(dp2811
g1703
(iconstruction
TP_SYMLINKS
p2812
(dp2813
g1706
(dp2814
VAGT_199
p2815
VS3_207
p2816
sVACT_198
p2817
VS4_208
p2818
sVPT_200
p2819
VS1_205
p2820
ssg559
I196
sg42
g1645
sbsg1712
VN
p2821
sg1714
I2
sg42
VOBJ_REL_SVO
p2822
sg1715
(iconstruction
TP_SEMFRAME
p2823
(dp2824
g72
g0
(g73
g2
Ntp2825
Rp2826
(dp2827
g77
(dp2828
(iconstruction
TP_NODE
p2829
(dp2830
g1724
I00
sg61
g714
sg42
VEVT_197
p2831
sg1725
I01
sg1726
I00
sg559
I197
sb(dp2832
g1725
I01
sg61
g714
ss(iconstruction
TP_NODE
p2833
(dp2834
g1724
I00
sg61
g717
sg42
g2815
sg1725
I01
sg1726
I00
sg559
I199
sb(dp2835
g1725
I01
sg61
g717
ss(iconstruction
TP_NODE
p2836
(dp2837
g1724
I01
sg61
g717
sg42
g2819
sg1725
I01
sg1726
I00
sg559
I200
sb(dp2838
g1725
I01
sg61
g717
ss(iconstruction
TP_NODE
p2839
(dp2840
g1724
I00
sg61
g561
sg42
g2817
sg1725
I01
sg1726
I01
sg559
I198
sb(dp2841
g1725
I01
sg61
g561
sssg260
g261
sg262
g261
sg263
(dp2842
g2829
(dp2843
g2839
(dp2844
g61
g708
sssg2833
(dp2845
sg2836
(dp2846
g2829
(dp2847
g61
g666
sssg2839
(dp2848
g2833
(dp2849
g61
g687
ssg2836
(dp2850
g61
g681
ssssg457
g2842
sg72
(dp2851
sg459
g261
sg460
g2842
sg461
(dp2852
g2829
(dp2853
g2836
g2847
ssg2833
(dp2854
g2839
g2849
ssg2836
(dp2855
g2839
g2850
ssg2839
(dp2856
g2829
g2844
sssbsg554
(lp2857
g2829
ag2839
ag2833
ag2836
asg827
(lp2858
(iconstruction
TP_REL
p2859
(dp2860
g833
g2839
sg61
g708
sg559
I201
sg834
g2829
sg42
VIS_201
p2861
sba(iconstruction
TP_REL
p2862
(dp2863
g833
g2833
sg61
g687
sg559
I202
sg834
g2839
sg42
VACT_AGT_202
p2864
sba(iconstruction
TP_REL
p2865
(dp2866
g833
g2836
sg61
g681
sg559
I203
sg834
g2839
sg42
VACT_PT_203
p2867
sba(iconstruction
TP_REL
p2868
(dp2869
g833
g2829
sg61
g666
sg559
I204
sg834
g2836
sg42
VPT_EVT_204
p2870
sbasg559
I194
sg42
g1645
sbsg1740
(iconstruction
TP_SYNFORM
p2871
(dp2872
g559
I195
sg1743
(lp2873
(iconstruction
TP_SLOT
p2874
(dp2875
g1747
(lp2876
VN
p2877
asg1750
I0
sg559
I205
sg42
g2820
sba(iconstruction
TP_PHON
p2878
(dp2879
g1753
I4
sg1750
I1
sg559
I206
sg1754
Vthat
p2880
sg42
VS2_206
p2881
sba(iconstruction
TP_SLOT
p2882
(dp2883
g1747
(lp2884
VNP
p2885
aVN
p2886
asg1750
I2
sg559
I207
sg42
g2816
sba(iconstruction
TP_SLOT
p2887
(dp2888
g1747
(lp2889
VVP
p2890
aVV
p2891
asg1750
I3
sg559
I208
sg42
g2818
sbasg42
g1645
sbsg1761
I1
sba(iconstruction
CXN
p2892
(dp2893
g1703
(iconstruction
TP_SYMLINKS
p2894
(dp2895
g1706
(dp2896
VPT_215
p2897
VS3_222
p2898
sVACT_213
p2899
VS5_224
p2900
sVAGT_214
p2901
VS1_220
p2902
ssg559
I211
sg42
g1645
sbsg1712
VN
p2903
sg1714
I2
sg42
VOBJ_REL_PAS_SVO
p2904
sg1715
(iconstruction
TP_SEMFRAME
p2905
(dp2906
g72
g0
(g73
g2
Ntp2907
Rp2908
(dp2909
g77
(dp2910
(iconstruction
TP_NODE
p2911
(dp2912
g1724
I00
sg61
g714
sg42
VEVT_212
p2913
sg1725
I01
sg1726
I00
sg559
I212
sb(dp2914
g1725
I01
sg61
g714
ss(iconstruction
TP_NODE
p2915
(dp2916
g1724
I01
sg61
g717
sg42
g2901
sg1725
I01
sg1726
I00
sg559
I214
sb(dp2917
g1725
I01
sg61
g717
ss(iconstruction
TP_NODE
p2918
(dp2919
g1724
I00
sg61
g561
sg42
g2899
sg1725
I01
sg1726
I01
sg559
I213
sb(dp2920
g1725
I01
sg61
g561
ss(iconstruction
TP_NODE
p2921
(dp2922
g1724
I00
sg61
g717
sg42
g2897
sg1725
I01
sg1726
I00
sg559
I215
sb(dp2923
g1725
I01
sg61
g717
sssg260
g261
sg262
g261
sg263
(dp2924
g2911
(dp2925
g2918
(dp2926
g61
g708
sssg2915
(dp2927
g2911
(dp2928
g61
g666
sssg2918
(dp2929
g2915
(dp2930
g61
g687
ssg2921
(dp2931
g61
g681
sssg2921
(dp2932
ssg457
g2924
sg72
(dp2933
sg459
g261
sg460
g2924
sg461
(dp2934
g2911
(dp2935
g2915
g2928
ssg2915
(dp2936
g2918
g2930
ssg2918
(dp2937
g2911
g2926
ssg2921
(dp2938
g2918
g2931
sssbsg554
(lp2939
g2911
ag2918
ag2915
ag2921
asg827
(lp2940
(iconstruction
TP_REL
p2941
(dp2942
g833
g2918
sg61
g708
sg559
I216
sg834
g2911
sg42
VIS_216
p2943
sba(iconstruction
TP_REL
p2944
(dp2945
g833
g2915
sg61
g687
sg559
I217
sg834
g2918
sg42
VACT_AGT_217
p2946
sba(iconstruction
TP_REL
p2947
(dp2948
g833
g2921
sg61
g681
sg559
I218
sg834
g2918
sg42
VACT_PT_218
p2949
sba(iconstruction
TP_REL
p2950
(dp2951
g833
g2911
sg61
g666
sg559
I219
sg834
g2915
sg42
VAGT_EVT_219
p2952
sbasg559
I209
sg42
g1645
sbsg1740
(iconstruction
TP_SYNFORM
p2953
(dp2954
g559
I210
sg1743
(lp2955
(iconstruction
TP_SLOT
p2956
(dp2957
g1747
(lp2958
VN
p2959
asg1750
I0
sg559
I220
sg42
g2902
sba(iconstruction
TP_PHON
p2960
(dp2961
g1753
I4
sg1750
I1
sg559
I221
sg1754
Vthat
p2962
sg42
VS2_221
p2963
sba(iconstruction
TP_SLOT
p2964
(dp2965
g1747
(lp2966
VNP
p2967
aVN
p2968
asg1750
I2
sg559
I222
sg42
g2898
sba(iconstruction
TP_PHON
p2969
(dp2970
g1753
I2
sg1750
I3
sg559
I223
sg1754
Vis
p2971
sg42
VS4_223
p2972
sba(iconstruction
TP_SLOT
p2973
(dp2974
g1747
(lp2975
VVP
p2976
aVV
p2977
asg1750
I4
sg559
I224
sg42
g2900
sba(iconstruction
TP_PHON
p2978
(dp2979
g1753
I2
sg1750
I5
sg559
I225
sg1754
V-ed
p2980
sg42
VS6_225
p2981
sba(iconstruction
TP_PHON
p2982
(dp2983
g1753
I2
sg1750
I6
sg559
I226
sg1754
Vby
p2984
sg42
VS7_226
p2985
sbasg42
g1645
sbsg1761
I1
sba(iconstruction
CXN
p2986
(dp2987
g1703
(iconstruction
TP_SYMLINKS
p2988
(dp2989
g1706
(dp2990
VATTR_232
p2991
VS4_238
p2992
sVENT_231
p2993
VS1_235
p2994
ssg559
I229
sg42
g1645
sbsg1712
VN
p2995
sg1714
I2
sg42
VREL_SPA
p2996
sg1715
(iconstruction
TP_SEMFRAME
p2997
(dp2998
g72
g0
(g73
g2
Ntp2999
Rp3000
(dp3001
g77
(dp3002
(iconstruction
TP_NODE
p3003
(dp3004
g1724
I00
sg61
g714
sg42
VEVT_230
p3005
sg1725
I01
sg1726
I00
sg559
I230
sb(dp3006
g1725
I01
sg61
g714
ss(iconstruction
TP_NODE
p3007
(dp3008
g1724
I00
sg61
g618
sg42
g2991
sg1725
I00
sg1726
I00
sg559
I232
sb(dp3009
g1725
I00
sg61
g618
ss(iconstruction
TP_NODE
p3010
(dp3011
g1724
I01
sg61
g717
sg42
g2993
sg1725
I01
sg1726
I01
sg559
I231
sb(dp3012
g1725
I01
sg61
g717
sssg260
g261
sg262
g261
sg263
(dp3013
g3003
(dp3014
g3007
(dp3015
g61
g666
ssg3010
(dp3016
g61
g708
sssg3007
(dp3017
sg3010
(dp3018
ssg457
g3013
sg72
(dp3019
sg459
g261
sg460
g3013
sg461
(dp3020
g3003
(dp3021
sg3007
(dp3022
g3003
g3015
ssg3010
(dp3023
g3003
g3016
sssbsg554
(lp3024
g3003
ag3010
ag3007
asg827
(lp3025
(iconstruction
TP_REL
p3026
(dp3027
g833
g3010
sg61
g708
sg559
I233
sg834
g3003
sg42
VIS_233
p3028
sba(iconstruction
TP_REL
p3029
(dp3030
g833
g3007
sg61
g666
sg559
I234
sg834
g3003
sg42
VEVT_ATTR_234
p3031
sbasg559
I227
sg42
g1645
sbsg1740
(iconstruction
TP_SYNFORM
p3032
(dp3033
g559
I228
sg1743
(lp3034
(iconstruction
TP_SLOT
p3035
(dp3036
g1747
(lp3037
VN
p3038
asg1750
I0
sg559
I235
sg42
g2994
sba(iconstruction
TP_PHON
p3039
(dp3040
g1753
I4
sg1750
I1
sg559
I236
sg1754
Vthat
p3041
sg42
VS2_236
p3042
sba(iconstruction
TP_PHON
p3043
(dp3044
g1753
I2
sg1750
I2
sg559
I237
sg1754
Vis
p3045
sg42
VS3_237
p3046
sba(iconstruction
TP_SLOT
p3047
(dp3048
g1747
(lp3049
VA
p3050
asg1750
I3
sg559
I238
sg42
g2992
sbasg42
g1645
sbsg1761
I1
sba(iconstruction
CXN
p3051
(dp3052
g1703
(iconstruction
TP_SYMLINKS
p3053
(dp3054
g1706
(dp3055
VAGT_244
p3056
VS1_251
p3057
sVCOLOR_246
p3058
VS3_253
p3059
ssg559
I241
sg42
g1645
sbsg1712
VN
p3060
sg1714
I2
sg42
VIN_COLOR
p3061
sg1715
(iconstruction
TP_SEMFRAME
p3062
(dp3063
g72
g0
(g73
g2
Ntp3064
Rp3065
(dp3066
g77
(dp3067
(iconstruction
TP_NODE
p3068
(dp3069
g1724
I00
sg61
g714
sg42
VEVT_242
p3070
sg1725
I01
sg1726
I00
sg559
I242
sb(dp3071
g1725
I01
sg61
g714
ss(iconstruction
TP_NODE
p3072
(dp3073
g1724
I01
sg61
g726
sg42
g3056
sg1725
I01
sg1726
I00
sg559
I244
sb(dp3074
g1725
I01
sg61
g726
ss(iconstruction
TP_NODE
p3075
(dp3076
g1724
I00
sg61
g606
sg42
VACT_243
p3077
sg1725
I01
sg1726
I00
sg559
I243
sb(dp3078
g1725
I01
sg61
g606
ss(iconstruction
TP_NODE
p3079
(dp3080
g1724
I00
sg61
g621
sg42
g3058
sg1725
I00
sg1726
I01
sg559
I246
sb(dp3081
g1725
I00
sg61
g621
ss(iconstruction
TP_NODE
p3082
(dp3083
g1724
I00
sg61
g756
sg42
VPT_245
p3084
sg1725
I01
sg1726
I00
sg559
I245
sb(dp3085
g1725
I01
sg61
g756
sssg260
g261
sg262
g261
sg263
(dp3086
g3068
(dp3087
g3075
(dp3088
g61
g708
sssg3072
(dp3089
sg3075
(dp3090
g3072
(dp3091
g61
g687
ssg3082
(dp3092
g61
g681
sssg3079
(dp3093
sg3082
(dp3094
g3079
(dp3095
g61
g666
ssssg457
g3086
sg72
(dp3096
sg459
g261
sg460
g3086
sg461
(dp3097
g3068
(dp3098
sg3072
(dp3099
g3075
g3091
ssg3075
(dp3100
g3068
g3088
ssg3079
(dp3101
g3082
g3095
ssg3082
(dp3102
g3075
g3092
sssbsg554
(lp3103
g3068
ag3075
ag3072
ag3082
ag3079
asg827
(lp3104
(iconstruction
TP_REL
p3105
(dp3106
g833
g3075
sg61
g708
sg559
I247
sg834
g3068
sg42
VIS_247
p3107
sba(iconstruction
TP_REL
p3108
(dp3109
g833
g3072
sg61
g687
sg559
I248
sg834
g3075
sg42
VACT_AGT_248
p3110
sba(iconstruction
TP_REL
p3111
(dp3112
g833
g3082
sg61
g681
sg559
I249
sg834
g3075
sg42
VACT_PT_249
p3113
sba(iconstruction
TP_REL
p3114
(dp3115
g833
g3079
sg61
g666
sg559
I250
sg834
g3082
sg42
VPT_COLOR_250
p3116
sbasg559
I239
sg42
g1645
sbsg1740
(iconstruction
TP_SYNFORM
p3117
(dp3118
g559
I240
sg1743
(lp3119
(iconstruction
TP_SLOT
p3120
(dp3121
g1747
(lp3122
VN
p3123
asg1750
I0
sg559
I251
sg42
g3057
sba(iconstruction
TP_PHON
p3124
(dp3125
g1753
I2
sg1750
I1
sg559
I252
sg1754
Vin
p3126
sg42
VS2_252
p3127
sba(iconstruction
TP_SLOT
p3128
(dp3129
g1747
(lp3130
VA
p3131
asg1750
I2
sg559
I253
sg42
g3059
sbasg42
g1645
sbsg1761
I1
sba(iconstruction
CXN
p3132
(dp3133
g1703
(iconstruction
TP_SYMLINKS
p3134
(dp3135
g1706
(dp3136
VN1_258
p3137
VS1_260
p3138
ssg559
I256
sg42
g1645
sbsg1712
VV
p3139
sg1714
I1
sg42
VHIT
p3140
sg1715
(iconstruction
TP_SEMFRAME
p3141
(dp3142
g72
g0
(g73
g2
Ntp3143
Rp3144
(dp3145
g77
(dp3146
(iconstruction
TP_NODE
p3147
(dp3148
g1724
I00
sg61
g582
sg42
g3137
sg1725
I00
sg1726
I00
sg559
I258
sb(dp3149
g1725
I00
sg61
g582
ss(iconstruction
TP_NODE
p3150
(dp3151
g1724
I01
sg61
g561
sg42
VACT_257
p3152
sg1725
I01
sg1726
I00
sg559
I257
sb(dp3153
g1725
I01
sg61
g561
sssg260
g261
sg262
g261
sg263
(dp3154
g3147
(dp3155
sg3150
(dp3156
g3147
(dp3157
g61
g708
ssssg457
g3154
sg72
(dp3158
sg459
g261
sg460
g3154
sg461
(dp3159
g3147
(dp3160
g3150
g3157
ssg3150
(dp3161
ssbsg554
(lp3162
g3150
ag3147
asg827
(lp3163
(iconstruction
TP_REL
p3164
(dp3165
g833
g3147
sg61
g708
sg559
I259
sg834
g3150
sg42
VIS_259
p3166
sbasg559
I254
sg42
g1645
sbsg1740
(iconstruction
TP_SYNFORM
p3167
(dp3168
g559
I255
sg1743
(lp3169
(iconstruction
TP_PHON
p3170
(dp3171
g1753
I3
sg1750
I0
sg559
I260
sg1754
Vhit
p3172
sg42
g3138
sbasg42
g1645
sbsg1761
I1
sba(iconstruction
CXN
p3173
(dp3174
g1703
(iconstruction
TP_SYMLINKS
p3175
(dp3176
g1706
(dp3177
VN1_265
p3178
VS1_267
p3179
ssg559
I263
sg42
g1645
sbsg1712
VV
p3180
sg1714
I1
sg42
VKICK
p3181
sg1715
(iconstruction
TP_SEMFRAME
p3182
(dp3183
g72
g0
(g73
g2
Ntp3184
Rp3185
(dp3186
g77
(dp3187
(iconstruction
TP_NODE
p3188
(dp3189
g1724
I00
sg61
g603
sg42
g3178
sg1725
I00
sg1726
I00
sg559
I265
sb(dp3190
g1725
I00
sg61
g603
ss(iconstruction
TP_NODE
p3191
(dp3192
g1724
I01
sg61
g561
sg42
VACT_264
p3193
sg1725
I01
sg1726
I00
sg559
I264
sb(dp3194
g1725
I01
sg61
g561
sssg260
g261
sg262
g261
sg263
(dp3195
g3188
(dp3196
sg3191
(dp3197
g3188
(dp3198
g61
g708
ssssg457
g3195
sg72
(dp3199
sg459
g261
sg460
g3195
sg461
(dp3200
g3188
(dp3201
g3191
g3198
ssg3191
(dp3202
ssbsg554
(lp3203
g3191
ag3188
asg827
(lp3204
(iconstruction
TP_REL
p3205
(dp3206
g833
g3188
sg61
g708
sg559
I266
sg834
g3191
sg42
VIS_266
p3207
sbasg559
I261
sg42
g1645
sbsg1740
(iconstruction
TP_SYNFORM
p3208
(dp3209
g559
I262
sg1743
(lp3210
(iconstruction
TP_PHON
p3211
(dp3212
g1753
I4
sg1750
I0
sg559
I267
sg1754
Vkick
p3213
sg42
g3179
sbasg42
g1645
sbsg1761
I1
sba(iconstruction
CXN
p3214
(dp3215
g1703
(iconstruction
TP_SYMLINKS
p3216
(dp3217
g1706
(dp3218
VN1_272
p3219
VS1_274
p3220
ssg559
I270
sg42
g1645
sbsg1712
VV
p3221
sg1714
I1
sg42
VPUNCH
p3222
sg1715
(iconstruction
TP_SEMFRAME
p3223
(dp3224
g72
g0
(g73
g2
Ntp3225
Rp3226
(dp3227
g77
(dp3228
(iconstruction
TP_NODE
p3229
(dp3230
g1724
I01
sg61
g561
sg42
VACT_271
p3231
sg1725
I01
sg1726
I00
sg559
I271
sb(dp3232
g1725
I01
sg61
g561
ss(iconstruction
TP_NODE
p3233
(dp3234
g1724
I00
sg61
g588
sg42
g3219
sg1725
I00
sg1726
I00
sg559
I272
sb(dp3235
g1725
I00
sg61
g588
sssg260
g261
sg262
g261
sg263
(dp3236
g3229
(dp3237
g3233
(dp3238
g61
g708
sssg3233
(dp3239
ssg457
g3236
sg72
(dp3240
sg459
g261
sg460
g3236
sg461
(dp3241
g3229
(dp3242
sg3233
(dp3243
g3229
g3238
sssbsg554
(lp3244
g3229
ag3233
asg827
(lp3245
(iconstruction
TP_REL
p3246
(dp3247
g833
g3233
sg61
g708
sg559
I273
sg834
g3229
sg42
VIS_273
p3248
sbasg559
I268
sg42
g1645
sbsg1740
(iconstruction
TP_SYNFORM
p3249
(dp3250
g559
I269
sg1743
(lp3251
(iconstruction
TP_PHON
p3252
(dp3253
g1753
I5
sg1750
I0
sg559
I274
sg1754
Vpunch
p3254
sg42
g3220
sbasg42
g1645
sbsg1761
I1
sba(iconstruction
CXN
p3255
(dp3256
g1703
(iconstruction
TP_SYMLINKS
p3257
(dp3258
g1706
(dp3259
VN1_279
p3260
VS1_281
p3261
ssg559
I277
sg42
g1645
sbsg1712
VV
p3262
sg1714
I1
sg42
VWEAR
p3263
sg1715
(iconstruction
TP_SEMFRAME
p3264
(dp3265
g72
g0
(g73
g2
Ntp3266
Rp3267
(dp3268
g77
(dp3269
(iconstruction
TP_NODE
p3270
(dp3271
g1724
I00
sg61
g606
sg42
g3260
sg1725
I00
sg1726
I00
sg559
I279
sb(dp3272
g1725
I00
sg61
g606
ss(iconstruction
TP_NODE
p3273
(dp3274
g1724
I01
sg61
g561
sg42
VACT_278
p3275
sg1725
I01
sg1726
I00
sg559
I278
sb(dp3276
g1725
I01
sg61
g561
sssg260
g261
sg262
g261
sg263
(dp3277
g3270
(dp3278
sg3273
(dp3279
g3270
(dp3280
g61
g708
ssssg457
g3277
sg72
(dp3281
sg459
g261
sg460
g3277
sg461
(dp3282
g3270
(dp3283
g3273
g3280
ssg3273
(dp3284
ssbsg554
(lp3285
g3273
ag3270
asg827
(lp3286
(iconstruction
TP_REL
p3287
(dp3288
g833
g3270
sg61
g708
sg559
I280
sg834
g3273
sg42
VIS_280
p3289
sbasg559
I275
sg42
g1645
sbsg1740
(iconstruction
TP_SYNFORM
p3290
(dp3291
g559
I276
sg1743
(lp3292
(iconstruction
TP_PHON
p3293
(dp3294
g1753
I4
sg1750
I0
sg559
I281
sg1754
Vwear
p3295
sg42
g3261
sbasg42
g1645
sbsg1761
I1
sba(iconstruction
CXN
p3296
(dp3297
g1703
(iconstruction
TP_SYMLINKS
p3298
(dp3299
g1706
(dp3300
VN1_286
p3301
VS1_288
p3302
ssg559
I284
sg42
g1645
sbsg1712
VV
p3303
sg1714
I1
sg42
VLAUGH
p3304
sg1715
(iconstruction
TP_SEMFRAME
p3305
(dp3306
g72
g0
(g73
g2
Ntp3307
Rp3308
(dp3309
g77
(dp3310
(iconstruction
TP_NODE
p3311
(dp3312
g1724
I01
sg61
g561
sg42
VACT_285
p3313
sg1725
I01
sg1726
I00
sg559
I285
sb(dp3314
g1725
I01
sg61
g561
ss(iconstruction
TP_NODE
p3315
(dp3316
g1724
I00
sg61
g576
sg42
g3301
sg1725
I00
sg1726
I00
sg559
I286
sb(dp3317
g1725
I00
sg61
g576
sssg260
g261
sg262
g261
sg263
(dp3318
g3311
(dp3319
g3315
(dp3320
g61
g708
sssg3315
(dp3321
ssg457
g3318
sg72
(dp3322
sg459
g261
sg460
g3318
sg461
(dp3323
g3311
(dp3324
sg3315
(dp3325
g3311
g3320
sssbsg554
(lp3326
g3311
ag3315
asg827
(lp3327
(iconstruction
TP_REL
p3328
(dp3329
g833
g3315
sg61
g708
sg559
I287
sg834
g3311
sg42
VIS_287
p3330
sbasg559
I282
sg42
g1645
sbsg1740
(iconstruction
TP_SYNFORM
p3331
(dp3332
g559
I283
sg1743
(lp3333
(iconstruction
TP_PHON
p3334
(dp3335
g1753
I5
sg1750
I0
sg559
I288
sg1754
Vlaugh
p3336
sg42
g3302
sbasg42
g1645
sbsg1761
I1
sba(iconstruction
CXN
p3337
(dp3338
g1703
(iconstruction
TP_SYMLINKS
p3339
(dp3340
g1706
(dp3341
VN1_293
p3342
VS1_295
p3343
ssg559
I291
sg42
g1645
sbsg1712
VV
p3344
sg1714
I1
sg42
VWATCH
p3345
sg1715
(iconstruction
TP_SEMFRAME
p3346
(dp3347
g72
g0
(g73
g2
Ntp3348
Rp3349
(dp3350
g77
(dp3351
(iconstruction
TP_NODE
p3352
(dp3353
g1724
I00
sg61
g585
sg42
g3342
sg1725
I00
sg1726
I00
sg559
I293
sb(dp3354
g1725
I00
sg61
g585
ss(iconstruction
TP_NODE
p3355
(dp3356
g1724
I01
sg61
g561
sg42
VACT_292
p3357
sg1725
I01
sg1726
I00
sg559
I292
sb(dp3358
g1725
I01
sg61
g561
sssg260
g261
sg262
g261
sg263
(dp3359
g3352
(dp3360
sg3355
(dp3361
g3352
(dp3362
g61
g708
ssssg457
g3359
sg72
(dp3363
sg459
g261
sg460
g3359
sg461
(dp3364
g3352
(dp3365
g3355
g3362
ssg3355
(dp3366
ssbsg554
(lp3367
g3355
ag3352
asg827
(lp3368
(iconstruction
TP_REL
p3369
(dp3370
g833
g3352
sg61
g708
sg559
I294
sg834
g3355
sg42
VIS_294
p3371
sbasg559
I289
sg42
g1645
sbsg1740
(iconstruction
TP_SYNFORM
p3372
(dp3373
g559
I290
sg1743
(lp3374
(iconstruction
TP_PHON
p3375
(dp3376
g1753
I5
sg1750
I0
sg559
I295
sg1754
Vwatch
p3377
sg42
g3343
sbasg42
g1645
sbsg1761
I1
sba(iconstruction
CXN
p3378
(dp3379
g1703
(iconstruction
TP_SYMLINKS
p3380
(dp3381
g1706
(dp3382
VN1_300
p3383
VS1_302
p3384
ssg559
I298
sg42
g1645
sbsg1712
VV
p3385
sg1714
I1
sg42
VTALK
p3386
sg1715
(iconstruction
TP_SEMFRAME
p3387
(dp3388
g72
g0
(g73
g2
Ntp3389
Rp3390
(dp3391
g77
(dp3392
(iconstruction
TP_NODE
p3393
(dp3394
g1724
I00
sg61
g594
sg42
g3383
sg1725
I00
sg1726
I00
sg559
I300
sb(dp3395
g1725
I00
sg61
g594
ss(iconstruction
TP_NODE
p3396
(dp3397
g1724
I01
sg61
g561
sg42
VACT_299
p3398
sg1725
I01
sg1726
I00
sg559
I299
sb(dp3399
g1725
I01
sg61
g561
sssg260
g261
sg262
g261
sg263
(dp3400
g3393
(dp3401
sg3396
(dp3402
g3393
(dp3403
g61
g708
ssssg457
g3400
sg72
(dp3404
sg459
g261
sg460
g3400
sg461
(dp3405
g3393
(dp3406
g3396
g3403
ssg3396
(dp3407
ssbsg554
(lp3408
g3396
ag3393
asg827
(lp3409
(iconstruction
TP_REL
p3410
(dp3411
g833
g3393
sg61
g708
sg559
I301
sg834
g3396
sg42
VIS_301
p3412
sbasg559
I296
sg42
g1645
sbsg1740
(iconstruction
TP_SYNFORM
p3413
(dp3414
g559
I297
sg1743
(lp3415
(iconstruction
TP_PHON
p3416
(dp3417
g1753
I4
sg1750
I0
sg559
I302
sg1754
Vtalk
p3418
sg42
g3384
sba(iconstruction
TP_PHON
p3419
(dp3420
g1753
I2
sg1750
I1
sg559
I303
sg1754
Vto
p3421
sg42
VS2_303
p3422
sbasg42
g1645
sbsg1761
I1
sba(iconstruction
CXN
p3423
(dp3424
g1703
(iconstruction
TP_SYMLINKS
p3425
(dp3426
g1706
(dp3427
VN1_308
p3428
VS1_310
p3429
ssg559
I306
sg42
g1645
sbsg1712
VV
p3430
sg1714
I1
sg42
VSQUIRT
p3431
sg1715
(iconstruction
TP_SEMFRAME
p3432
(dp3433
g72
g0
(g73
g2
Ntp3434
Rp3435
(dp3436
g77
(dp3437
(iconstruction
TP_NODE
p3438
(dp3439
g1724
I00
sg61
g600
sg42
g3428
sg1725
I00
sg1726
I00
sg559
I308
sb(dp3440
g1725
I00
sg61
g600
ss(iconstruction
TP_NODE
p3441
(dp3442
g1724
I01
sg61
g561
sg42
VACT_307
p3443
sg1725
I01
sg1726
I00
sg559
I307
sb(dp3444
g1725
I01
sg61
g561
sssg260
g261
sg262
g261
sg263
(dp3445
g3438
(dp3446
sg3441
(dp3447
g3438
(dp3448
g61
g708
ssssg457
g3445
sg72
(dp3449
sg459
g261
sg460
g3445
sg461
(dp3450
g3438
(dp3451
g3441
g3448
ssg3441
(dp3452
ssbsg554
(lp3453
g3441
ag3438
asg827
(lp3454
(iconstruction
TP_REL
p3455
(dp3456
g833
g3438
sg61
g708
sg559
I309
sg834
g3441
sg42
VIS_309
p3457
sbasg559
I304
sg42
g1645
sbsg1740
(iconstruction
TP_SYNFORM
p3458
(dp3459
g559
I305
sg1743
(lp3460
(iconstruction
TP_PHON
p3461
(dp3462
g1753
I6
sg1750
I0
sg559
I310
sg1754
Vsquirt
p3463
sg42
g3429
sba(iconstruction
TP_PHON
p3464
(dp3465
g1753
I2
sg1750
I1
sg559
I311
sg1754
Vat
p3466
sg42
VS2_311
p3467
sbasg42
g1645
sbsg1761
I1
sba(iconstruction
CXN
p3468
(dp3469
g1703
(iconstruction
TP_SYMLINKS
p3470
(dp3471
g1706
(dp3472
VN1_316
p3473
VS1_318
p3474
ssg559
I314
sg42
g1645
sbsg1712
VV
p3475
sg1714
I1
sg42
VSPLASH
p3476
sg1715
(iconstruction
TP_SEMFRAME
p3477
(dp3478
g72
g0
(g73
g2
Ntp3479
Rp3480
(dp3481
g77
(dp3482
(iconstruction
TP_NODE
p3483
(dp3484
g1724
I00
sg61
g591
sg42
g3473
sg1725
I00
sg1726
I00
sg559
I316
sb(dp3485
g1725
I00
sg61
g591
ss(iconstruction
TP_NODE
p3486
(dp3487
g1724
I01
sg61
g561
sg42
VACT_315
p3488
sg1725
I01
sg1726
I00
sg559
I315
sb(dp3489
g1725
I01
sg61
g561
sssg260
g261
sg262
g261
sg263
(dp3490
g3483
(dp3491
sg3486
(dp3492
g3483
(dp3493
g61
g708
ssssg457
g3490
sg72
(dp3494
sg459
g261
sg460
g3490
sg461
(dp3495
g3483
(dp3496
g3486
g3493
ssg3486
(dp3497
ssbsg554
(lp3498
g3486
ag3483
asg827
(lp3499
(iconstruction
TP_REL
p3500
(dp3501
g833
g3483
sg61
g708
sg559
I317
sg834
g3486
sg42
VIS_317
p3502
sbasg559
I312
sg42
g1645
sbsg1740
(iconstruction
TP_SYNFORM
p3503
(dp3504
g559
I313
sg1743
(lp3505
(iconstruction
TP_PHON
p3506
(dp3507
g1753
I6
sg1750
I0
sg559
I318
sg1754
Vsplash
p3508
sg42
g3474
sbasg42
g1645
sbsg1761
I1
sba(iconstruction
CXN
p3509
(dp3510
g1703
(iconstruction
TP_SYMLINKS
p3511
(dp3512
g1706
(dp3513
VN1_323
p3514
VS1_325
p3515
ssg559
I321
sg42
g1645
sbsg1712
VV
p3516
sg1714
I1
sg42
VGIVE
p3517
sg1715
(iconstruction
TP_SEMFRAME
p3518
(dp3519
g72
g0
(g73
g2
Ntp3520
Rp3521
(dp3522
g77
(dp3523
(iconstruction
TP_NODE
p3524
(dp3525
g1724
I01
sg61
g561
sg42
VACT_322
p3526
sg1725
I01
sg1726
I00
sg559
I322
sb(dp3527
g1725
I01
sg61
g561
ss(iconstruction
TP_NODE
p3528
(dp3529
g1724
I00
sg61
g615
sg42
g3514
sg1725
I00
sg1726
I00
sg559
I323
sb(dp3530
g1725
I00
sg61
g615
sssg260
g261
sg262
g261
sg263
(dp3531
g3524
(dp3532
g3528
(dp3533
g61
g708
sssg3528
(dp3534
ssg457
g3531
sg72
(dp3535
sg459
g261
sg460
g3531
sg461
(dp3536
g3524
(dp3537
sg3528
(dp3538
g3524
g3533
sssbsg554
(lp3539
g3524
ag3528
asg827
(lp3540
(iconstruction
TP_REL
p3541
(dp3542
g833
g3528
sg61
g708
sg559
I324
sg834
g3524
sg42
VIS_324
p3543
sbasg559
I319
sg42
g1645
sbsg1740
(iconstruction
TP_SYNFORM
p3544
(dp3545
g559
I320
sg1743
(lp3546
(iconstruction
TP_PHON
p3547
(dp3548
g1753
I4
sg1750
I0
sg559
I325
sg1754
Vgive
p3549
sg42
g3515
sbasg42
g1645
sbsg1761
I1
sba(iconstruction
CXN
p3550
(dp3551
g1703
(iconstruction
TP_SYMLINKS
p3552
(dp3553
g1706
(dp3554
VN1_330
p3555
VS1_332
p3556
ssg559
I328
sg42
g1645
sbsg1712
VV
p3557
sg1714
I1
sg42
VSEND
p3558
sg1715
(iconstruction
TP_SEMFRAME
p3559
(dp3560
g72
g0
(g73
g2
Ntp3561
Rp3562
(dp3563
g77
(dp3564
(iconstruction
TP_NODE
p3565
(dp3566
g1724
I00
sg61
g612
sg42
g3555
sg1725
I00
sg1726
I00
sg559
I330
sb(dp3567
g1725
I00
sg61
g612
ss(iconstruction
TP_NODE
p3568
(dp3569
g1724
I01
sg61
g561
sg42
VACT_329
p3570
sg1725
I01
sg1726
I00
sg559
I329
sb(dp3571
g1725
I01
sg61
g561
sssg260
g261
sg262
g261
sg263
(dp3572
g3565
(dp3573
sg3568
(dp3574
g3565
(dp3575
g61
g708
ssssg457
g3572
sg72
(dp3576
sg459
g261
sg460
g3572
sg461
(dp3577
g3565
(dp3578
g3568
g3575
ssg3568
(dp3579
ssbsg554
(lp3580
g3568
ag3565
asg827
(lp3581
(iconstruction
TP_REL
p3582
(dp3583
g833
g3565
sg61
g708
sg559
I331
sg834
g3568
sg42
VIS_331
p3584
sbasg559
I326
sg42
g1645
sbsg1740
(iconstruction
TP_SYNFORM
p3585
(dp3586
g559
I327
sg1743
(lp3587
(iconstruction
TP_PHON
p3588
(dp3589
g1753
I4
sg1750
I0
sg559
I332
sg1754
Vsend
p3590
sg42
g3556
sbasg42
g1645
sbsg1761
I1
sba(iconstruction
CXN
p3591
(dp3592
g1703
(iconstruction
TP_SYMLINKS
p3593
(dp3594
g1706
(dp3595
VN1_337
p3596
VS1_339
p3597
ssg559
I335
sg42
g1645
sbsg1712
VV
p3598
sg1714
I1
sg42
VMEET
p3599
sg1715
(iconstruction
TP_SEMFRAME
p3600
(dp3601
g72
g0
(g73
g2
Ntp3602
Rp3603
(dp3604
g77
(dp3605
(iconstruction
TP_NODE
p3606
(dp3607
g1724
I01
sg61
g561
sg42
VACT_336
p3608
sg1725
I01
sg1726
I00
sg559
I336
sb(dp3609
g1725
I01
sg61
g561
ss(iconstruction
TP_NODE
p3610
(dp3611
g1724
I00
sg61
g567
sg42
g3596
sg1725
I00
sg1726
I00
sg559
I337
sb(dp3612
g1725
I00
sg61
g567
sssg260
g261
sg262
g261
sg263
(dp3613
g3606
(dp3614
g3610
(dp3615
g61
g708
sssg3610
(dp3616
ssg457
g3613
sg72
(dp3617
sg459
g261
sg460
g3613
sg461
(dp3618
g3606
(dp3619
sg3610
(dp3620
g3606
g3615
sssbsg554
(lp3621
g3606
ag3610
asg827
(lp3622
(iconstruction
TP_REL
p3623
(dp3624
g833
g3610
sg61
g708
sg559
I338
sg834
g3606
sg42
VIS_338
p3625
sbasg559
I333
sg42
g1645
sbsg1740
(iconstruction
TP_SYNFORM
p3626
(dp3627
g559
I334
sg1743
(lp3628
(iconstruction
TP_PHON
p3629
(dp3630
g1753
I4
sg1750
I0
sg559
I339
sg1754
Vmeet
p3631
sg42
g3597
sbasg42
g1645
sbsg1761
I1
sba(iconstruction
CXN
p3632
(dp3633
g1703
(iconstruction
TP_SYMLINKS
p3634
(dp3635
g1706
(dp3636
VN1_344
p3637
VS1_346
p3638
ssg559
I342
sg42
g1645
sbsg1712
VV
p3639
sg1714
I1
sg42
VKISS
p3640
sg1715
(iconstruction
TP_SEMFRAME
p3641
(dp3642
g72
g0
(g73
g2
Ntp3643
Rp3644
(dp3645
g77
(dp3646
(iconstruction
TP_NODE
p3647
(dp3648
g1724
I01
sg61
g561
sg42
VACT_343
p3649
sg1725
I01
sg1726
I00
sg559
I343
sb(dp3650
g1725
I01
sg61
g561
ss(iconstruction
TP_NODE
p3651
(dp3652
g1724
I00
sg61
g597
sg42
g3637
sg1725
I00
sg1726
I00
sg559
I344
sb(dp3653
g1725
I00
sg61
g597
sssg260
g261
sg262
g261
sg263
(dp3654
g3647
(dp3655
g3651
(dp3656
g61
g708
sssg3651
(dp3657
ssg457
g3654
sg72
(dp3658
sg459
g261
sg460
g3654
sg461
(dp3659
g3647
(dp3660
sg3651
(dp3661
g3647
g3656
sssbsg554
(lp3662
g3647
ag3651
asg827
(lp3663
(iconstruction
TP_REL
p3664
(dp3665
g833
g3651
sg61
g708
sg559
I345
sg834
g3647
sg42
VIS_345
p3666
sbasg559
I340
sg42
g1645
sbsg1740
(iconstruction
TP_SYNFORM
p3667
(dp3668
g559
I341
sg1743
(lp3669
(iconstruction
TP_PHON
p3670
(dp3671
g1753
I4
sg1750
I0
sg559
I346
sg1754
Vkiss
p3672
sg42
g3638
sbasg42
g1645
sbsg1761
I1
sba(iconstruction
CXN
p3673
(dp3674
g1703
(iconstruction
TP_SYMLINKS
p3675
(dp3676
g1706
(dp3677
VN1_351
p3678
VS1_353
p3679
ssg559
I349
sg42
g1645
sbsg1712
VV
p3680
sg1714
I1
sg42
VSHAKE_HANDS
p3681
sg1715
(iconstruction
TP_SEMFRAME
p3682
(dp3683
g72
g0
(g73
g2
Ntp3684
Rp3685
(dp3686
g77
(dp3687
(iconstruction
TP_NODE
p3688
(dp3689
g1724
I00
sg61
g570
sg42
g3678
sg1725
I00
sg1726
I00
sg559
I351
sb(dp3690
g1725
I00
sg61
g570
ss(iconstruction
TP_NODE
p3691
(dp3692
g1724
I01
sg61
g561
sg42
VACT_350
p3693
sg1725
I01
sg1726
I00
sg559
I350
sb(dp3694
g1725
I01
sg61
g561
sssg260
g261
sg262
g261
sg263
(dp3695
g3688
(dp3696
sg3691
(dp3697
g3688
(dp3698
g61
g708
ssssg457
g3695
sg72
(dp3699
sg459
g261
sg460
g3695
sg461
(dp3700
g3688
(dp3701
g3691
g3698
ssg3691
(dp3702
ssbsg554
(lp3703
g3691
ag3688
asg827
(lp3704
(iconstruction
TP_REL
p3705
(dp3706
g833
g3688
sg61
g708
sg559
I352
sg834
g3691
sg42
VIS_352
p3707
sbasg559
I347
sg42
g1645
sbsg1740
(iconstruction
TP_SYNFORM
p3708
(dp3709
g559
I348
sg1743
(lp3710
(iconstruction
TP_PHON
p3711
(dp3712
g1753
I10
sg1750
I0
sg559
I353
sg1754
Vshake hands
p3713
sg42
g3679
sbasg42
g1645
sbsg1761
I1
sba(iconstruction
CXN
p3714
(dp3715
g1703
(iconstruction
TP_SYMLINKS
p3716
(dp3717
g1706
(dp3718
VN1_357
p3719
VS1_358
p3720
ssg559
I356
sg42
g1645
sbsg1712
VA
p3721
sg1714
I1
sg42
VBLUE
p3722
sg1715
(iconstruction
TP_SEMFRAME
p3723
(dp3724
g72
g0
(g73
g2
Ntp3725
Rp3726
(dp3727
g77
(dp3728
(iconstruction
TP_NODE
p3729
(dp3730
g1724
I01
sg61
g624
sg42
g3719
sg1725
I00
sg1726
I00
sg559
I357
sb(dp3731
g1725
I00
sg61
g624
sssg260
g261
sg262
g261
sg263
(dp3732
g3729
(dp3733
ssg457
g3732
sg72
(dp3734
sg459
g261
sg460
g3732
sg461
(dp3735
g3729
(dp3736
ssbsg554
(lp3737
g3729
asg827
(lp3738
sg559
I354
sg42
g1645
sbsg1740
(iconstruction
TP_SYNFORM
p3739
(dp3740
g559
I355
sg1743
(lp3741
(iconstruction
TP_PHON
p3742
(dp3743
g1753
I4
sg1750
I0
sg559
I358
sg1754
Vblue
p3744
sg42
g3720
sbasg42
g1645
sbsg1761
I1
sba(iconstruction
CXN
p3745
(dp3746
g1703
(iconstruction
TP_SYMLINKS
p3747
(dp3748
g1706
(dp3749
VN1_362
p3750
VS1_363
p3751
ssg559
I361
sg42
g1645
sbsg1712
VA
p3752
sg1714
I1
sg42
VBLACK
p3753
sg1715
(iconstruction
TP_SEMFRAME
p3754
(dp3755
g72
g0
(g73
g2
Ntp3756
Rp3757
(dp3758
g77
(dp3759
(iconstruction
TP_NODE
p3760
(dp3761
g1724
I01
sg61
g633
sg42
g3750
sg1725
I00
sg1726
I00
sg559
I362
sb(dp3762
g1725
I00
sg61
g633
sssg260
g261
sg262
g261
sg263
(dp3763
g3760
(dp3764
ssg457
g3763
sg72
(dp3765
sg459
g261
sg460
g3763
sg461
(dp3766
g3760
(dp3767
ssbsg554
(lp3768
g3760
asg827
(lp3769
sg559
I359
sg42
g1645
sbsg1740
(iconstruction
TP_SYNFORM
p3770
(dp3771
g559
I360
sg1743
(lp3772
(iconstruction
TP_PHON
p3773
(dp3774
g1753
I5
sg1750
I0
sg559
I363
sg1754
Vblack
p3775
sg42
g3751
sbasg42
g1645
sbsg1761
I1
sba(iconstruction
CXN
p3776
(dp3777
g1703
(iconstruction
TP_SYMLINKS
p3778
(dp3779
g1706
(dp3780
VN1_367
p3781
VS1_368
p3782
ssg559
I366
sg42
g1645
sbsg1712
VA
p3783
sg1714
I1
sg42
VGREEN
p3784
sg1715
(iconstruction
TP_SEMFRAME
p3785
(dp3786
g72
g0
(g73
g2
Ntp3787
Rp3788
(dp3789
g77
(dp3790
(iconstruction
TP_NODE
p3791
(dp3792
g1724
I01
sg61
g627
sg42
g3781
sg1725
I00
sg1726
I00
sg559
I367
sb(dp3793
g1725
I00
sg61
g627
sssg260
g261
sg262
g261
sg263
(dp3794
g3791
(dp3795
ssg457
g3794
sg72
(dp3796
sg459
g261
sg460
g3794
sg461
(dp3797
g3791
(dp3798
ssbsg554
(lp3799
g3791
asg827
(lp3800
sg559
I364
sg42
g1645
sbsg1740
(iconstruction
TP_SYNFORM
p3801
(dp3802
g559
I365
sg1743
(lp3803
(iconstruction
TP_PHON
p3804
(dp3805
g1753
I5
sg1750
I0
sg559
I368
sg1754
Vgreen
p3806
sg42
g3782
sbasg42
g1645
sbsg1761
I1
sba(iconstruction
CXN
p3807
(dp3808
g1703
(iconstruction
TP_SYMLINKS
p3809
(dp3810
g1706
(dp3811
VN1_372
p3812
VS1_373
p3813
ssg559
I371
sg42
g1645
sbsg1712
VA
p3814
sg1714
I1
sg42
VSMALL
p3815
sg1715
(iconstruction
TP_SEMFRAME
p3816
(dp3817
g72
g0
(g73
g2
Ntp3818
Rp3819
(dp3820
g77
(dp3821
(iconstruction
TP_NODE
p3822
(dp3823
g1724
I01
sg61
g654
sg42
g3812
sg1725
I00
sg1726
I00
sg559
I372
sb(dp3824
g1725
I00
sg61
g654
sssg260
g261
sg262
g261
sg263
(dp3825
g3822
(dp3826
ssg457
g3825
sg72
(dp3827
sg459
g261
sg460
g3825
sg461
(dp3828
g3822
(dp3829
ssbsg554
(lp3830
g3822
asg827
(lp3831
sg559
I369
sg42
g1645
sbsg1740
(iconstruction
TP_SYNFORM
p3832
(dp3833
g559
I370
sg1743
(lp3834
(iconstruction
TP_PHON
p3835
(dp3836
g1753
I5
sg1750
I0
sg559
I373
sg1754
Vsmall
p3837
sg42
g3813
sbasg42
g1645
sbsg1761
I1
sba(iconstruction
CXN
p3838
(dp3839
g1703
(iconstruction
TP_SYMLINKS
p3840
(dp3841
g1706
(dp3842
VN1_377
p3843
VS1_378
p3844
ssg559
I376
sg42
g1645
sbsg1712
VA
p3845
sg1714
I1
sg42
VBIG
p3846
sg1715
(iconstruction
TP_SEMFRAME
p3847
(dp3848
g72
g0
(g73
g2
Ntp3849
Rp3850
(dp3851
g77
(dp3852
(iconstruction
TP_NODE
p3853
(dp3854
g1724
I01
sg61
g657
sg42
g3843
sg1725
I00
sg1726
I00
sg559
I377
sb(dp3855
g1725
I00
sg61
g657
sssg260
g261
sg262
g261
sg263
(dp3856
g3853
(dp3857
ssg457
g3856
sg72
(dp3858
sg459
g261
sg460
g3856
sg461
(dp3859
g3853
(dp3860
ssbsg554
(lp3861
g3853
asg827
(lp3862
sg559
I374
sg42
g1645
sbsg1740
(iconstruction
TP_SYNFORM
p3863
(dp3864
g559
I375
sg1743
(lp3865
(iconstruction
TP_PHON
p3866
(dp3867
g1753
I3
sg1750
I0
sg559
I378
sg1754
Vbig
p3868
sg42
g3844
sbasg42
g1645
sbsg1761
I1
sba(iconstruction
CXN
p3869
(dp3870
g1703
(iconstruction
TP_SYMLINKS
p3871
(dp3872
g1706
(dp3873
VN1_382
p3874
VS1_383
p3875
ssg559
I381
sg42
g1645
sbsg1712
VA
p3876
sg1714
I1
sg42
VHANDSOME
p3877
sg1715
(iconstruction
TP_SEMFRAME
p3878
(dp3879
g72
g0
(g73
g2
Ntp3880
Rp3881
(dp3882
g77
(dp3883
(iconstruction
TP_NODE
p3884
(dp3885
g1724
I01
sg61
g648
sg42
g3874
sg1725
I00
sg1726
I00
sg559
I382
sb(dp3886
g1725
I00
sg61
g648
sssg260
g261
sg262
g261
sg263
(dp3887
g3884
(dp3888
ssg457
g3887
sg72
(dp3889
sg459
g261
sg460
g3887
sg461
(dp3890
g3884
(dp3891
ssbsg554
(lp3892
g3884
asg827
(lp3893
sg559
I379
sg42
g1645
sbsg1740
(iconstruction
TP_SYNFORM
p3894
(dp3895
g559
I380
sg1743
(lp3896
(iconstruction
TP_PHON
p3897
(dp3898
g1753
I8
sg1750
I0
sg559
I383
sg1754
Vhandsome
p3899
sg42
g3875
sbasg42
g1645
sbsg1761
I1
sba(iconstruction
CXN
p3900
(dp3901
g1703
(iconstruction
TP_SYMLINKS
p3902
(dp3903
g1706
(dp3904
VN1_387
p3905
VS1_388
p3906
ssg559
I386
sg42
g1645
sbsg1712
VA
p3907
sg1714
I1
sg42
VPRETTY
p3908
sg1715
(iconstruction
TP_SEMFRAME
p3909
(dp3910
g72
g0
(g73
g2
Ntp3911
Rp3912
(dp3913
g77
(dp3914
(iconstruction
TP_NODE
p3915
(dp3916
g1724
I01
sg61
g645
sg42
g3905
sg1725
I00
sg1726
I00
sg559
I387
sb(dp3917
g1725
I00
sg61
g645
sssg260
g261
sg262
g261
sg263
(dp3918
g3915
(dp3919
ssg457
g3918
sg72
(dp3920
sg459
g261
sg460
g3918
sg461
(dp3921
g3915
(dp3922
ssbsg554
(lp3923
g3915
asg827
(lp3924
sg559
I384
sg42
g1645
sbsg1740
(iconstruction
TP_SYNFORM
p3925
(dp3926
g559
I385
sg1743
(lp3927
(iconstruction
TP_PHON
p3928
(dp3929
g1753
I6
sg1750
I0
sg559
I388
sg1754
Vpretty
p3930
sg42
g3906
sbasg42
g1645
sbsg1761
I1
sba(iconstruction
CXN
p3931
(dp3932
g1703
(iconstruction
TP_SYMLINKS
p3933
(dp3934
g1706
(dp3935
VN1_392
p3936
VS1_393
p3937
ssg559
I391
sg42
g1645
sbsg1712
VA
p3938
sg1714
I1
sg42
VYOUNG
p3939
sg1715
(iconstruction
TP_SEMFRAME
p3940
(dp3941
g72
g0
(g73
g2
Ntp3942
Rp3943
(dp3944
g77
(dp3945
(iconstruction
TP_NODE
p3946
(dp3947
g1724
I01
sg61
g642
sg42
g3936
sg1725
I00
sg1726
I00
sg559
I392
sb(dp3948
g1725
I00
sg61
g642
sssg260
g261
sg262
g261
sg263
(dp3949
g3946
(dp3950
ssg457
g3949
sg72
(dp3951
sg459
g261
sg460
g3949
sg461
(dp3952
g3946
(dp3953
ssbsg554
(lp3954
g3946
asg827
(lp3955
sg559
I389
sg42
g1645
sbsg1740
(iconstruction
TP_SYNFORM
p3956
(dp3957
g559
I390
sg1743
(lp3958
(iconstruction
TP_PHON
p3959
(dp3960
g1753
I5
sg1750
I0
sg559
I393
sg1754
Vyoung
p3961
sg42
g3937
sbasg42
g1645
sbsg1761
I1
sba(iconstruction
CXN
p3962
(dp3963
g1703
(iconstruction
TP_SYMLINKS
p3964
(dp3965
g1706
(dp3966
VN1_398
p3967
VS1_400
p3968
ssg559
I396
sg42
g1645
sbsg1712
VN
p3969
sg1714
I1
sg42
VWOMAN
p3970
sg1715
(iconstruction
TP_SEMFRAME
p3971
(dp3972
g72
g0
(g73
g2
Ntp3973
Rp3974
(dp3975
g77
(dp3976
(iconstruction
TP_NODE
p3977
(dp3978
g1724
I00
sg61
g783
sg42
g3967
sg1725
I00
sg1726
I00
sg559
I398
sb(dp3979
g1725
I00
sg61
g783
ss(iconstruction
TP_NODE
p3980
(dp3981
g1724
I01
sg61
g717
sg42
VENT_397
p3982
sg1725
I01
sg1726
I00
sg559
I397
sb(dp3983
g1725
I01
sg61
g717
sssg260
g261
sg262
g261
sg263
(dp3984
g3977
(dp3985
sg3980
(dp3986
g3977
(dp3987
g61
g708
ssssg457
g3984
sg72
(dp3988
sg459
g261
sg460
g3984
sg461
(dp3989
g3977
(dp3990
g3980
g3987
ssg3980
(dp3991
ssbsg554
(lp3992
g3980
ag3977
asg827
(lp3993
(iconstruction
TP_REL
p3994
(dp3995
g833
g3977
sg61
g708
sg559
I399
sg834
g3980
sg42
VIS_399
p3996
sbasg559
I394
sg42
g1645
sbsg1740
(iconstruction
TP_SYNFORM
p3997
(dp3998
g559
I395
sg1743
(lp3999
(iconstruction
TP_PHON
p4000
(dp4001
g1753
I5
sg1750
I0
sg559
I400
sg1754
Vwoman
p4002
sg42
g3968
sbasg42
g1645
sbsg1761
I1
sba(iconstruction
CXN
p4003
(dp4004
g1703
(iconstruction
TP_SYMLINKS
p4005
(dp4006
g1706
(dp4007
VN1_405
p4008
VS1_407
p4009
ssg559
I403
sg42
g1645
sbsg1712
VN
p4010
sg1714
I1
sg42
VWOMAN2
p4011
sg1715
(iconstruction
TP_SEMFRAME
p4012
(dp4013
g72
g0
(g73
g2
Ntp4014
Rp4015
(dp4016
g77
(dp4017
(iconstruction
TP_NODE
p4018
(dp4019
g1724
I01
sg61
g717
sg42
VENT_404
p4020
sg1725
I01
sg1726
I00
sg559
I404
sb(dp4021
g1725
I01
sg61
g717
ss(iconstruction
TP_NODE
p4022
(dp4023
g1724
I00
sg61
g783
sg42
g4008
sg1725
I00
sg1726
I00
sg559
I405
sb(dp4024
g1725
I00
sg61
g783
sssg260
g261
sg262
g261
sg263
(dp4025
g4018
(dp4026
g4022
(dp4027
g61
g708
sssg4022
(dp4028
ssg457
g4025
sg72
(dp4029
sg459
g261
sg460
g4025
sg461
(dp4030
g4018
(dp4031
sg4022
(dp4032
g4018
g4027
sssbsg554
(lp4033
g4018
ag4022
asg827
(lp4034
(iconstruction
TP_REL
p4035
(dp4036
g833
g4022
sg61
g708
sg559
I406
sg834
g4018
sg42
VIS_406
p4037
sbasg559
I401
sg42
g1645
sbsg1740
(iconstruction
TP_SYNFORM
p4038
(dp4039
g559
I402
sg1743
(lp4040
(iconstruction
TP_PHON
p4041
(dp4042
g1753
I4
sg1750
I0
sg559
I407
sg1754
Vlady
p4043
sg42
g4009
sbasg42
g1645
sbsg1761
I1
sba(iconstruction
CXN
p4044
(dp4045
g1703
(iconstruction
TP_SYMLINKS
p4046
(dp4047
g1706
(dp4048
VN1_412
p4049
VS1_414
p4050
ssg559
I410
sg42
g1645
sbsg1712
VN
p4051
sg1714
I1
sg42
VMAN
p4052
sg1715
(iconstruction
TP_SEMFRAME
p4053
(dp4054
g72
g0
(g73
g2
Ntp4055
Rp4056
(dp4057
g77
(dp4058
(iconstruction
TP_NODE
p4059
(dp4060
g1724
I00
sg61
g810
sg42
g4049
sg1725
I00
sg1726
I00
sg559
I412
sb(dp4061
g1725
I00
sg61
g810
ss(iconstruction
TP_NODE
p4062
(dp4063
g1724
I01
sg61
g717
sg42
VENT_411
p4064
sg1725
I01
sg1726
I00
sg559
I411
sb(dp4065
g1725
I01
sg61
g717
sssg260
g261
sg262
g261
sg263
(dp4066
g4059
(dp4067
sg4062
(dp4068
g4059
(dp4069
g61
g708
ssssg457
g4066
sg72
(dp4070
sg459
g261
sg460
g4066
sg461
(dp4071
g4059
(dp4072
g4062
g4069
ssg4062
(dp4073
ssbsg554
(lp4074
g4062
ag4059
asg827
(lp4075
(iconstruction
TP_REL
p4076
(dp4077
g833
g4059
sg61
g708
sg559
I413
sg834
g4062
sg42
VIS_413
p4078
sbasg559
I408
sg42
g1645
sbsg1740
(iconstruction
TP_SYNFORM
p4079
(dp4080
g559
I409
sg1743
(lp4081
(iconstruction
TP_PHON
p4082
(dp4083
g1753
I3
sg1750
I0
sg559
I414
sg1754
Vman
p4084
sg42
g4050
sbasg42
g1645
sbsg1761
I1
sba(iconstruction
CXN
p4085
(dp4086
g1703
(iconstruction
TP_SYMLINKS
p4087
(dp4088
g1706
(dp4089
VN1_419
p4090
VS1_421
p4091
ssg559
I417
sg42
g1645
sbsg1712
VN
p4092
sg1714
I1
sg42
VGIRL
p4093
sg1715
(iconstruction
TP_SEMFRAME
p4094
(dp4095
g72
g0
(g73
g2
Ntp4096
Rp4097
(dp4098
g77
(dp4099
(iconstruction
TP_NODE
p4100
(dp4101
g1724
I00
sg61
g801
sg42
g4090
sg1725
I00
sg1726
I00
sg559
I419
sb(dp4102
g1725
I00
sg61
g801
ss(iconstruction
TP_NODE
p4103
(dp4104
g1724
I01
sg61
g717
sg42
VENT_418
p4105
sg1725
I01
sg1726
I00
sg559
I418
sb(dp4106
g1725
I01
sg61
g717
sssg260
g261
sg262
g261
sg263
(dp4107
g4100
(dp4108
sg4103
(dp4109
g4100
(dp4110
g61
g708
ssssg457
g4107
sg72
(dp4111
sg459
g261
sg460
g4107
sg461
(dp4112
g4100
(dp4113
g4103
g4110
ssg4103
(dp4114
ssbsg554
(lp4115
g4103
ag4100
asg827
(lp4116
(iconstruction
TP_REL
p4117
(dp4118
g833
g4100
sg61
g708
sg559
I420
sg834
g4103
sg42
VIS_420
p4119
sbasg559
I415
sg42
g1645
sbsg1740
(iconstruction
TP_SYNFORM
p4120
(dp4121
g559
I416
sg1743
(lp4122
(iconstruction
TP_PHON
p4123
(dp4124
g1753
I4
sg1750
I0
sg559
I421
sg1754
Vgirl
p4125
sg42
g4091
sbasg42
g1645
sbsg1761
I1
sba(iconstruction
CXN
p4126
(dp4127
g1703
(iconstruction
TP_SYMLINKS
p4128
(dp4129
g1706
(dp4130
VN1_426
p4131
VS1_428
p4132
ssg559
I424
sg42
g1645
sbsg1712
VN
p4133
sg1714
I1
sg42
VBOY
p4134
sg1715
(iconstruction
TP_SEMFRAME
p4135
(dp4136
g72
g0
(g73
g2
Ntp4137
Rp4138
(dp4139
g77
(dp4140
(iconstruction
TP_NODE
p4141
(dp4142
g1724
I01
sg61
g717
sg42
VENT_425
p4143
sg1725
I01
sg1726
I00
sg559
I425
sb(dp4144
g1725
I01
sg61
g717
ss(iconstruction
TP_NODE
p4145
(dp4146
g1724
I00
sg61
g780
sg42
g4131
sg1725
I00
sg1726
I00
sg559
I426
sb(dp4147
g1725
I00
sg61
g780
sssg260
g261
sg262
g261
sg263
(dp4148
g4141
(dp4149
g4145
(dp4150
g61
g708
sssg4145
(dp4151
ssg457
g4148
sg72
(dp4152
sg459
g261
sg460
g4148
sg461
(dp4153
g4141
(dp4154
sg4145
(dp4155
g4141
g4150
sssbsg554
(lp4156
g4141
ag4145
asg827
(lp4157
(iconstruction
TP_REL
p4158
(dp4159
g833
g4145
sg61
g708
sg559
I427
sg834
g4141
sg42
VIS_427
p4160
sbasg559
I422
sg42
g1645
sbsg1740
(iconstruction
TP_SYNFORM
p4161
(dp4162
g559
I423
sg1743
(lp4163
(iconstruction
TP_PHON
p4164
(dp4165
g1753
I3
sg1750
I0
sg559
I428
sg1754
Vboy
p4166
sg42
g4132
sbasg42
g1645
sbsg1761
I1
sba(iconstruction
CXN
p4167
(dp4168
g1703
(iconstruction
TP_SYMLINKS
p4169
(dp4170
g1706
(dp4171
VN1_433
p4172
VS1_435
p4173
ssg559
I431
sg42
g1645
sbsg1712
VN
p4174
sg1714
I1
sg42
VPEOPLE
p4175
sg1715
(iconstruction
TP_SEMFRAME
p4176
(dp4177
g72
g0
(g73
g2
Ntp4178
Rp4179
(dp4180
g77
(dp4181
(iconstruction
TP_NODE
p4182
(dp4183
g1724
I00
sg61
g786
sg42
g4172
sg1725
I00
sg1726
I00
sg559
I433
sb(dp4184
g1725
I00
sg61
g786
ss(iconstruction
TP_NODE
p4185
(dp4186
g1724
I01
sg61
g717
sg42
VENT_432
p4187
sg1725
I01
sg1726
I00
sg559
I432
sb(dp4188
g1725
I01
sg61
g717
sssg260
g261
sg262
g261
sg263
(dp4189
g4182
(dp4190
sg4185
(dp4191
g4182
(dp4192
g61
g708
ssssg457
g4189
sg72
(dp4193
sg459
g261
sg460
g4189
sg461
(dp4194
g4182
(dp4195
g4185
g4192
ssg4185
(dp4196
ssbsg554
(lp4197
g4185
ag4182
asg827
(lp4198
(iconstruction
TP_REL
p4199
(dp4200
g833
g4182
sg61
g708
sg559
I434
sg834
g4185
sg42
VIS_434
p4201
sbasg559
I429
sg42
g1645
sbsg1740
(iconstruction
TP_SYNFORM
p4202
(dp4203
g559
I430
sg1743
(lp4204
(iconstruction
TP_PHON
p4205
(dp4206
g1753
I6
sg1750
I0
sg559
I435
sg1754
Vpeople
p4207
sg42
g4173
sbasg42
g1645
sbsg1761
I1
sba(iconstruction
CXN
p4208
(dp4209
g1703
(iconstruction
TP_SYMLINKS
p4210
(dp4211
g1706
(dp4212
VN1_440
p4213
VS1_442
p4214
ssg559
I438
sg42
g1645
sbsg1712
VN
p4215
sg1714
I1
sg42
VMOUSE
p4216
sg1715
(iconstruction
TP_SEMFRAME
p4217
(dp4218
g72
g0
(g73
g2
Ntp4219
Rp4220
(dp4221
g77
(dp4222
(iconstruction
TP_NODE
p4223
(dp4224
g1724
I01
sg61
g717
sg42
VENT_439
p4225
sg1725
I01
sg1726
I00
sg559
I439
sb(dp4226
g1725
I01
sg61
g717
ss(iconstruction
TP_NODE
p4227
(dp4228
g1724
I00
sg61
g774
sg42
g4213
sg1725
I00
sg1726
I00
sg559
I440
sb(dp4229
g1725
I00
sg61
g774
sssg260
g261
sg262
g261
sg263
(dp4230
g4223
(dp4231
g4227
(dp4232
g61
g708
sssg4227
(dp4233
ssg457
g4230
sg72
(dp4234
sg459
g261
sg460
g4230
sg461
(dp4235
g4223
(dp4236
sg4227
(dp4237
g4223
g4232
sssbsg554
(lp4238
g4223
ag4227
asg827
(lp4239
(iconstruction
TP_REL
p4240
(dp4241
g833
g4227
sg61
g708
sg559
I441
sg834
g4223
sg42
VIS_441
p4242
sbasg559
I436
sg42
g1645
sbsg1740
(iconstruction
TP_SYNFORM
p4243
(dp4244
g559
I437
sg1743
(lp4245
(iconstruction
TP_PHON
p4246
(dp4247
g1753
I5
sg1750
I0
sg559
I442
sg1754
Vmouse
p4248
sg42
g4214
sbasg42
g1645
sbsg1761
I1
sba(iconstruction
CXN
p4249
(dp4250
g1703
(iconstruction
TP_SYMLINKS
p4251
(dp4252
g1706
(dp4253
VN1_447
p4254
VS1_449
p4255
ssg559
I445
sg42
g1645
sbsg1712
VN
p4256
sg1714
I1
sg42
VTURTLE
p4257
sg1715
(iconstruction
TP_SEMFRAME
p4258
(dp4259
g72
g0
(g73
g2
Ntp4260
Rp4261
(dp4262
g77
(dp4263
(iconstruction
TP_NODE
p4264
(dp4265
g1724
I00
sg61
g771
sg42
g4254
sg1725
I00
sg1726
I00
sg559
I447
sb(dp4266
g1725
I00
sg61
g771
ss(iconstruction
TP_NODE
p4267
(dp4268
g1724
I01
sg61
g717
sg42
VENT_446
p4269
sg1725
I01
sg1726
I00
sg559
I446
sb(dp4270
g1725
I01
sg61
g717
sssg260
g261
sg262
g261
sg263
(dp4271
g4264
(dp4272
sg4267
(dp4273
g4264
(dp4274
g61
g708
ssssg457
g4271
sg72
(dp4275
sg459
g261
sg460
g4271
sg461
(dp4276
g4264
(dp4277
g4267
g4274
ssg4267
(dp4278
ssbsg554
(lp4279
g4267
ag4264
asg827
(lp4280
(iconstruction
TP_REL
p4281
(dp4282
g833
g4264
sg61
g708
sg559
I448
sg834
g4267
sg42
VIS_448
p4283
sbasg559
I443
sg42
g1645
sbsg1740
(iconstruction
TP_SYNFORM
p4284
(dp4285
g559
I444
sg1743
(lp4286
(iconstruction
TP_PHON
p4287
(dp4288
g1753
I6
sg1750
I0
sg559
I449
sg1754
Vturtle
p4289
sg42
g4255
sbasg42
g1645
sbsg1761
I1
sba(iconstruction
CXN
p4290
(dp4291
g1703
(iconstruction
TP_SYMLINKS
p4292
(dp4293
g1706
(dp4294
VN1_454
p4295
VS1_456
p4296
ssg559
I452
sg42
g1645
sbsg1712
VN
p4297
sg1714
I1
sg42
VDRESS
p4298
sg1715
(iconstruction
TP_SEMFRAME
p4299
(dp4300
g72
g0
(g73
g2
Ntp4301
Rp4302
(dp4303
g77
(dp4304
(iconstruction
TP_NODE
p4305
(dp4306
g1724
I00
sg61
g762
sg42
g4295
sg1725
I00
sg1726
I00
sg559
I454
sb(dp4307
g1725
I00
sg61
g762
ss(iconstruction
TP_NODE
p4308
(dp4309
g1724
I01
sg61
g717
sg42
VENT_453
p4310
sg1725
I01
sg1726
I00
sg559
I453
sb(dp4311
g1725
I01
sg61
g717
sssg260
g261
sg262
g261
sg263
(dp4312
g4305
(dp4313
sg4308
(dp4314
g4305
(dp4315
g61
g708
ssssg457
g4312
sg72
(dp4316
sg459
g261
sg460
g4312
sg461
(dp4317
g4305
(dp4318
g4308
g4315
ssg4308
(dp4319
ssbsg554
(lp4320
g4308
ag4305
asg827
(lp4321
(iconstruction
TP_REL
p4322
(dp4323
g833
g4305
sg61
g708
sg559
I455
sg834
g4308
sg42
VIS_455
p4324
sbasg559
I450
sg42
g1645
sbsg1740
(iconstruction
TP_SYNFORM
p4325
(dp4326
g559
I451
sg1743
(lp4327
(iconstruction
TP_PHON
p4328
(dp4329
g1753
I5
sg1750
I0
sg559
I456
sg1754
Vdress
p4330
sg42
g4296
sbasg42
g1645
sbsg1761
I1
sba(iconstruction
CXN
p4331
(dp4332
g1703
(iconstruction
TP_SYMLINKS
p4333
(dp4334
g1706
(dp4335
VN1_461
p4336
VS1_463
p4337
ssg559
I459
sg42
g1645
sbsg1712
VN
p4338
sg1714
I1
sg42
VTSHIRT
p4339
sg1715
(iconstruction
TP_SEMFRAME
p4340
(dp4341
g72
g0
(g73
g2
Ntp4342
Rp4343
(dp4344
g77
(dp4345
(iconstruction
TP_NODE
p4346
(dp4347
g1724
I01
sg61
g717
sg42
VENT_460
p4348
sg1725
I01
sg1726
I00
sg559
I460
sb(dp4349
g1725
I01
sg61
g717
ss(iconstruction
TP_NODE
p4350
(dp4351
g1724
I00
sg61
g759
sg42
g4336
sg1725
I00
sg1726
I00
sg559
I461
sb(dp4352
g1725
I00
sg61
g759
sssg260
g261
sg262
g261
sg263
(dp4353
g4346
(dp4354
g4350
(dp4355
g61
g708
sssg4350
(dp4356
ssg457
g4353
sg72
(dp4357
sg459
g261
sg460
g4353
sg461
(dp4358
g4346
(dp4359
sg4350
(dp4360
g4346
g4355
sssbsg554
(lp4361
g4346
ag4350
asg827
(lp4362
(iconstruction
TP_REL
p4363
(dp4364
g833
g4350
sg61
g708
sg559
I462
sg834
g4346
sg42
VIS_462
p4365
sbasg559
I457
sg42
g1645
sbsg1740
(iconstruction
TP_SYNFORM
p4366
(dp4367
g559
I458
sg1743
(lp4368
(iconstruction
TP_PHON
p4369
(dp4370
g1753
I6
sg1750
I0
sg559
I463
sg1754
Vt-shirt
p4371
sg42
g4337
sbasg42
g1645
sbsg1761
I1
sba(iconstruction
CXN
p4372
(dp4373
g1703
(iconstruction
TP_SYMLINKS
p4374
(dp4375
g1706
(dp4376
VN1_468
p4377
VS2_471
p4378
ssg559
I466
sg42
g1645
sbsg1712
VN
p4379
sg1714
I1
sg42
VBOXINGRING
p4380
sg1715
(iconstruction
TP_SEMFRAME
p4381
(dp4382
g72
g0
(g73
g2
Ntp4383
Rp4384
(dp4385
g77
(dp4386
(iconstruction
TP_NODE
p4387
(dp4388
g1724
I00
sg61
g816
sg42
g4377
sg1725
I00
sg1726
I00
sg559
I468
sb(dp4389
g1725
I00
sg61
g816
ss(iconstruction
TP_NODE
p4390
(dp4391
g1724
I01
sg61
g717
sg42
VENT_467
p4392
sg1725
I01
sg1726
I00
sg559
I467
sb(dp4393
g1725
I01
sg61
g717
sssg260
g261
sg262
g261
sg263
(dp4394
g4387
(dp4395
sg4390
(dp4396
g4387
(dp4397
g61
g708
ssssg457
g4394
sg72
(dp4398
sg459
g261
sg460
g4394
sg461
(dp4399
g4387
(dp4400
g4390
g4397
ssg4390
(dp4401
ssbsg554
(lp4402
g4390
ag4387
asg827
(lp4403
(iconstruction
TP_REL
p4404
(dp4405
g833
g4387
sg61
g708
sg559
I469
sg834
g4390
sg42
VIS_469
p4406
sbasg559
I464
sg42
g1645
sbsg1740
(iconstruction
TP_SYNFORM
p4407
(dp4408
g559
I465
sg1743
(lp4409
(iconstruction
TP_PHON
p4410
(dp4411
g1753
I6
sg1750
I0
sg559
I470
sg1754
Vboxing
p4412
sg42
VS1_470
p4413
sba(iconstruction
TP_PHON
p4414
(dp4415
g1753
I4
sg1750
I1
sg559
I471
sg1754
Vring
p4416
sg42
g4378
sbasg42
g1645
sbsg1761
I1
sba(iconstruction
CXN
p4417
(dp4418
g1703
(iconstruction
TP_SYMLINKS
p4419
(dp4420
g1706
(dp4421
VN1_476
p4422
VS1_478
p4423
ssg559
I474
sg42
g1645
sbsg1712
VN
p4424
sg1714
I1
sg42
VPARK
p4425
sg1715
(iconstruction
TP_SEMFRAME
p4426
(dp4427
g72
g0
(g73
g2
Ntp4428
Rp4429
(dp4430
g77
(dp4431
(iconstruction
TP_NODE
p4432
(dp4433
g1724
I00
sg61
g819
sg42
g4422
sg1725
I00
sg1726
I00
sg559
I476
sb(dp4434
g1725
I00
sg61
g819
ss(iconstruction
TP_NODE
p4435
(dp4436
g1724
I01
sg61
g717
sg42
VENT_475
p4437
sg1725
I01
sg1726
I00
sg559
I475
sb(dp4438
g1725
I01
sg61
g717
sssg260
g261
sg262
g261
sg263
(dp4439
g4432
(dp4440
sg4435
(dp4441
g4432
(dp4442
g61
g708
ssssg457
g4439
sg72
(dp4443
sg459
g261
sg460
g4439
sg461
(dp4444
g4432
(dp4445
g4435
g4442
ssg4435
(dp4446
ssbsg554
(lp4447
g4435
ag4432
asg827
(lp4448
(iconstruction
TP_REL
p4449
(dp4450
g833
g4432
sg61
g708
sg559
I477
sg834
g4435
sg42
VIS_477
p4451
sbasg559
I472
sg42
g1645
sbsg1740
(iconstruction
TP_SYNFORM
p4452
(dp4453
g559
I473
sg1743
(lp4454
(iconstruction
TP_PHON
p4455
(dp4456
g1753
I4
sg1750
I0
sg559
I478
sg1754
Vpark
p4457
sg42
g4423
sbasg42
g1645
sbsg1761
I1
sba(iconstruction
CXN
p4458
(dp4459
g1703
(iconstruction
TP_SYMLINKS
p4460
(dp4461
g1706
(dp4462
VN1_483
p4463
VS1_485
p4464
ssg559
I481
sg42
g1645
sbsg1712
VN
p4465
sg1714
I1
sg42
VSHIRT
p4466
sg1715
(iconstruction
TP_SEMFRAME
p4467
(dp4468
g72
g0
(g73
g2
Ntp4469
Rp4470
(dp4471
g77
(dp4472
(iconstruction
TP_NODE
p4473
(dp4474
g1724
I01
sg61
g717
sg42
VENT_482
p4475
sg1725
I01
sg1726
I00
sg559
I482
sb(dp4476
g1725
I01
sg61
g717
ss(iconstruction
TP_NODE
p4477
(dp4478
g1724
I00
sg61
g765
sg42
g4463
sg1725
I00
sg1726
I00
sg559
I483
sb(dp4479
g1725
I00
sg61
g765
sssg260
g261
sg262
g261
sg263
(dp4480
g4473
(dp4481
g4477
(dp4482
g61
g708
sssg4477
(dp4483
ssg457
g4480
sg72
(dp4484
sg459
g261
sg460
g4480
sg461
(dp4485
g4473
(dp4486
sg4477
(dp4487
g4473
g4482
sssbsg554
(lp4488
g4473
ag4477
asg827
(lp4489
(iconstruction
TP_REL
p4490
(dp4491
g833
g4477
sg61
g708
sg559
I484
sg834
g4473
sg42
VIS_484
p4492
sbasg559
I479
sg42
g1645
sbsg1740
(iconstruction
TP_SYNFORM
p4493
(dp4494
g559
I480
sg1743
(lp4495
(iconstruction
TP_PHON
p4496
(dp4497
g1753
I5
sg1750
I0
sg559
I485
sg1754
Vshirt
p4498
sg42
g4464
sbasg42
g1645
sbsg1761
I1
sba(iconstruction
CXN
p4499
(dp4500
g1703
(iconstruction
TP_SYMLINKS
p4501
(dp4502
g1706
(dp4503
VN1_490
p4504
VS1_492
p4505
ssg559
I488
sg42
g1645
sbsg1712
VN
p4506
sg1714
I1
sg42
VSUIT
p4507
sg1715
(iconstruction
TP_SEMFRAME
p4508
(dp4509
g72
g0
(g73
g2
Ntp4510
Rp4511
(dp4512
g77
(dp4513
(iconstruction
TP_NODE
p4514
(dp4515
g1724
I00
sg61
g768
sg42
g4504
sg1725
I00
sg1726
I00
sg559
I490
sb(dp4516
g1725
I00
sg61
g768
ss(iconstruction
TP_NODE
p4517
(dp4518
g1724
I01
sg61
g717
sg42
VENT_489
p4519
sg1725
I01
sg1726
I00
sg559
I489
sb(dp4520
g1725
I01
sg61
g717
sssg260
g261
sg262
g261
sg263
(dp4521
g4514
(dp4522
sg4517
(dp4523
g4514
(dp4524
g61
g708
ssssg457
g4521
sg72
(dp4525
sg459
g261
sg460
g4521
sg461
(dp4526
g4514
(dp4527
g4517
g4524
ssg4517
(dp4528
ssbsg554
(lp4529
g4517
ag4514
asg827
(lp4530
(iconstruction
TP_REL
p4531
(dp4532
g833
g4514
sg61
g708
sg559
I491
sg834
g4517
sg42
VIS_491
p4533
sbasg559
I486
sg42
g1645
sbsg1740
(iconstruction
TP_SYNFORM
p4534
(dp4535
g559
I487
sg1743
(lp4536
(iconstruction
TP_PHON
p4537
(dp4538
g1753
I4
sg1750
I0
sg559
I492
sg1754
Vsuit
p4539
sg42
g4505
sbasg42
g1645
sbsg1761
I1
sba(iconstruction
CXN
p4540
(dp4541
g1703
(iconstruction
TP_SYMLINKS
p4542
(dp4543
g1706
(dp4544
VN1_497
p4545
VS1_499
p4546
ssg559
I495
sg42
g1645
sbsg1712
VN
p4547
sg1714
I1
sg42
VCELLO
p4548
sg1715
(iconstruction
TP_SEMFRAME
p4549
(dp4550
g72
g0
(g73
g2
Ntp4551
Rp4552
(dp4553
g77
(dp4554
(iconstruction
TP_NODE
p4555
(dp4556
g1724
I00
sg61
g750
sg42
g4545
sg1725
I00
sg1726
I00
sg559
I497
sb(dp4557
g1725
I00
sg61
g750
ss(iconstruction
TP_NODE
p4558
(dp4559
g1724
I01
sg61
g717
sg42
VENT_496
p4560
sg1725
I01
sg1726
I00
sg559
I496
sb(dp4561
g1725
I01
sg61
g717
sssg260
g261
sg262
g261
sg263
(dp4562
g4555
(dp4563
sg4558
(dp4564
g4555
(dp4565
g61
g708
ssssg457
g4562
sg72
(dp4566
sg459
g261
sg460
g4562
sg461
(dp4567
g4555
(dp4568
g4558
g4565
ssg4558
(dp4569
ssbsg554
(lp4570
g4558
ag4555
asg827
(lp4571
(iconstruction
TP_REL
p4572
(dp4573
g833
g4555
sg61
g708
sg559
I498
sg834
g4558
sg42
VIS_498
p4574
sbasg559
I493
sg42
g1645
sbsg1740
(iconstruction
TP_SYNFORM
p4575
(dp4576
g559
I494
sg1743
(lp4577
(iconstruction
TP_PHON
p4578
(dp4579
g1753
I5
sg1750
I0
sg559
I499
sg1754
VCELLO
p4580
sg42
g4546
sbasg42
g1645
sbsg1761
I1
sba(iconstruction
CXN
p4581
(dp4582
g1703
(iconstruction
TP_SYMLINKS
p4583
(dp4584
g1706
(dp4585
VN1_504
p4586
VS1_506
p4587
ssg559
I502
sg42
g1645
sbsg1712
VN
p4588
sg1714
I1
sg42
VBAG
p4589
sg1715
(iconstruction
TP_SEMFRAME
p4590
(dp4591
g72
g0
(g73
g2
Ntp4592
Rp4593
(dp4594
g77
(dp4595
(iconstruction
TP_NODE
p4596
(dp4597
g1724
I01
sg61
g717
sg42
VENT_503
p4598
sg1725
I01
sg1726
I00
sg559
I503
sb(dp4599
g1725
I01
sg61
g717
ss(iconstruction
TP_NODE
p4600
(dp4601
g1724
I00
sg61
g741
sg42
g4586
sg1725
I00
sg1726
I00
sg559
I504
sb(dp4602
g1725
I00
sg61
g741
sssg260
g261
sg262
g261
sg263
(dp4603
g4596
(dp4604
g4600
(dp4605
g61
g708
sssg4600
(dp4606
ssg457
g4603
sg72
(dp4607
sg459
g261
sg460
g4603
sg461
(dp4608
g4596
(dp4609
sg4600
(dp4610
g4596
g4605
sssbsg554
(lp4611
g4596
ag4600
asg827
(lp4612
(iconstruction
TP_REL
p4613
(dp4614
g833
g4600
sg61
g708
sg559
I505
sg834
g4596
sg42
VIS_505
p4615
sbasg559
I500
sg42
g1645
sbsg1740
(iconstruction
TP_SYNFORM
p4616
(dp4617
g559
I501
sg1743
(lp4618
(iconstruction
TP_PHON
p4619
(dp4620
g1753
I3
sg1750
I0
sg559
I506
sg1754
Vbag
p4621
sg42
g4587
sbasg42
g1645
sbsg1761
I1
sba(iconstruction
CXN
p4622
(dp4623
g1703
(iconstruction
TP_SYMLINKS
p4624
(dp4625
g1706
(dp4626
VN1_511
p4627
VS2_514
p4628
ssg559
I509
sg42
g1645
sbsg1712
VN
p4629
sg1714
I1
sg42
VWATERING_CAN
p4630
sg1715
(iconstruction
TP_SEMFRAME
p4631
(dp4632
g72
g0
(g73
g2
Ntp4633
Rp4634
(dp4635
g77
(dp4636
(iconstruction
TP_NODE
p4637
(dp4638
g1724
I00
sg61
g738
sg42
g4627
sg1725
I00
sg1726
I00
sg559
I511
sb(dp4639
g1725
I00
sg61
g738
ss(iconstruction
TP_NODE
p4640
(dp4641
g1724
I01
sg61
g717
sg42
VENT_510
p4642
sg1725
I01
sg1726
I00
sg559
I510
sb(dp4643
g1725
I01
sg61
g717
sssg260
g261
sg262
g261
sg263
(dp4644
g4637
(dp4645
sg4640
(dp4646
g4637
(dp4647
g61
g708
ssssg457
g4644
sg72
(dp4648
sg459
g261
sg460
g4644
sg461
(dp4649
g4637
(dp4650
g4640
g4647
ssg4640
(dp4651
ssbsg554
(lp4652
g4640
ag4637
asg827
(lp4653
(iconstruction
TP_REL
p4654
(dp4655
g833
g4637
sg61
g708
sg559
I512
sg834
g4640
sg42
VIS_512
p4656
sbasg559
I507
sg42
g1645
sbsg1740
(iconstruction
TP_SYNFORM
p4657
(dp4658
g559
I508
sg1743
(lp4659
(iconstruction
TP_PHON
p4660
(dp4661
g1753
I8
sg1750
I0
sg559
I513
sg1754
Vwatering
p4662
sg42
VS1_513
p4663
sba(iconstruction
TP_PHON
p4664
(dp4665
g1753
I3
sg1750
I1
sg559
I514
sg1754
Vcan
p4666
sg42
g4628
sbasg42
g1645
sbsg1761
I1
sba(iconstruction
CXN
p4667
(dp4668
g1703
(iconstruction
TP_SYMLINKS
p4669
(dp4670
g1706
(dp4671
VN1_519
p4672
VS1_521
p4673
ssg559
I517
sg42
g1645
sbsg1712
VN
p4674
sg1714
I1
sg42
VBALLERINA
p4675
sg1715
(iconstruction
TP_SEMFRAME
p4676
(dp4677
g72
g0
(g73
g2
Ntp4678
Rp4679
(dp4680
g77
(dp4681
(iconstruction
TP_NODE
p4682
(dp4683
g1724
I00
sg61
g795
sg42
g4672
sg1725
I00
sg1726
I00
sg559
I519
sb(dp4684
g1725
I00
sg61
g795
ss(iconstruction
TP_NODE
p4685
(dp4686
g1724
I01
sg61
g717
sg42
VENT_518
p4687
sg1725
I01
sg1726
I00
sg559
I518
sb(dp4688
g1725
I01
sg61
g717
sssg260
g261
sg262
g261
sg263
(dp4689
g4682
(dp4690
sg4685
(dp4691
g4682
(dp4692
g61
g708
ssssg457
g4689
sg72
(dp4693
sg459
g261
sg460
g4689
sg461
(dp4694
g4682
(dp4695
g4685
g4692
ssg4685
(dp4696
ssbsg554
(lp4697
g4685
ag4682
asg827
(lp4698
(iconstruction
TP_REL
p4699
(dp4700
g833
g4682
sg61
g708
sg559
I520
sg834
g4685
sg42
VIS_520
p4701
sbasg559
I515
sg42
g1645
sbsg1740
(iconstruction
TP_SYNFORM
p4702
(dp4703
g559
I516
sg1743
(lp4704
(iconstruction
TP_PHON
p4705
(dp4706
g1753
I9
sg1750
I0
sg559
I521
sg1754
Vballerina
p4707
sg42
g4673
sbasg42
g1645
sbsg1761
I1
sba(iconstruction
CXN
p4708
(dp4709
g1703
(iconstruction
TP_SYMLINKS
p4710
(dp4711
g1706
(dp4712
VN1_526
p4713
VS1_528
p4714
ssg559
I524
sg42
g1645
sbsg1712
VN
p4715
sg1714
I1
sg42
VCELLIST
p4716
sg1715
(iconstruction
TP_SEMFRAME
p4717
(dp4718
g72
g0
(g73
g2
Ntp4719
Rp4720
(dp4721
g77
(dp4722
(iconstruction
TP_NODE
p4723
(dp4724
g1724
I01
sg61
g717
sg42
VENT_525
p4725
sg1725
I01
sg1726
I00
sg559
I525
sb(dp4726
g1725
I01
sg61
g717
ss(iconstruction
TP_NODE
p4727
(dp4728
g1724
I00
sg61
g798
sg42
g4713
sg1725
I00
sg1726
I00
sg559
I526
sb(dp4729
g1725
I00
sg61
g798
sssg260
g261
sg262
g261
sg263
(dp4730
g4723
(dp4731
g4727
(dp4732
g61
g708
sssg4727
(dp4733
ssg457
g4730
sg72
(dp4734
sg459
g261
sg460
g4730
sg461
(dp4735
g4723
(dp4736
sg4727
(dp4737
g4723
g4732
sssbsg554
(lp4738
g4723
ag4727
asg827
(lp4739
(iconstruction
TP_REL
p4740
(dp4741
g833
g4727
sg61
g708
sg559
I527
sg834
g4723
sg42
VIS_527
p4742
sbasg559
I522
sg42
g1645
sbsg1740
(iconstruction
TP_SYNFORM
p4743
(dp4744
g559
I523
sg1743
(lp4745
(iconstruction
TP_PHON
p4746
(dp4747
g1753
I7
sg1750
I0
sg559
I528
sg1754
Vcellist
p4748
sg42
g4714
sbasg42
g1645
sbsg1761
I1
sba(iconstruction
CXN
p4749
(dp4750
g1703
(iconstruction
TP_SYMLINKS
p4751
(dp4752
g1706
(dp4753
VN1_533
p4754
VS1_535
p4755
ssg559
I531
sg42
g1645
sbsg1712
VN
p4756
sg1714
I1
sg42
VFENCER
p4757
sg1715
(iconstruction
TP_SEMFRAME
p4758
(dp4759
g72
g0
(g73
g2
Ntp4760
Rp4761
(dp4762
g77
(dp4763
(iconstruction
TP_NODE
p4764
(dp4765
g1724
I00
sg61
g804
sg42
g4754
sg1725
I00
sg1726
I00
sg559
I533
sb(dp4766
g1725
I00
sg61
g804
ss(iconstruction
TP_NODE
p4767
(dp4768
g1724
I01
sg61
g717
sg42
VENT_532
p4769
sg1725
I01
sg1726
I00
sg559
I532
sb(dp4770
g1725
I01
sg61
g717
sssg260
g261
sg262
g261
sg263
(dp4771
g4764
(dp4772
sg4767
(dp4773
g4764
(dp4774
g61
g708
ssssg457
g4771
sg72
(dp4775
sg459
g261
sg460
g4771
sg461
(dp4776
g4764
(dp4777
g4767
g4774
ssg4767
(dp4778
ssbsg554
(lp4779
g4767
ag4764
asg827
(lp4780
(iconstruction
TP_REL
p4781
(dp4782
g833
g4764
sg61
g708
sg559
I534
sg834
g4767
sg42
VIS_534
p4783
sbasg559
I529
sg42
g1645
sbsg1740
(iconstruction
TP_SYNFORM
p4784
(dp4785
g559
I530
sg1743
(lp4786
(iconstruction
TP_PHON
p4787
(dp4788
g1753
I6
sg1750
I0
sg559
I535
sg1754
Vfencer
p4789
sg42
g4755
sbasg42
g1645
sbsg1761
I1
sba(iconstruction
CXN
p4790
(dp4791
g1703
(iconstruction
TP_SYMLINKS
p4792
(dp4793
g1706
(dp4794
VN1_540
p4795
VS1_542
p4796
ssg559
I538
sg42
g1645
sbsg1712
VN
p4797
sg1714
I1
sg42
VROBBER
p4798
sg1715
(iconstruction
TP_SEMFRAME
p4799
(dp4800
g72
g0
(g73
g2
Ntp4801
Rp4802
(dp4803
g77
(dp4804
(iconstruction
TP_NODE
p4805
(dp4806
g1724
I00
sg61
g807
sg42
g4795
sg1725
I00
sg1726
I00
sg559
I540
sb(dp4807
g1725
I00
sg61
g807
ss(iconstruction
TP_NODE
p4808
(dp4809
g1724
I01
sg61
g717
sg42
VENT_539
p4810
sg1725
I01
sg1726
I00
sg559
I539
sb(dp4811
g1725
I01
sg61
g717
sssg260
g261
sg262
g261
sg263
(dp4812
g4805
(dp4813
sg4808
(dp4814
g4805
(dp4815
g61
g708
ssssg457
g4812
sg72
(dp4816
sg459
g261
sg460
g4812
sg461
(dp4817
g4805
(dp4818
g4808
g4815
ssg4808
(dp4819
ssbsg554
(lp4820
g4808
ag4805
asg827
(lp4821
(iconstruction
TP_REL
p4822
(dp4823
g833
g4805
sg61
g708
sg559
I541
sg834
g4808
sg42
VIS_541
p4824
sbasg559
I536
sg42
g1645
sbsg1740
(iconstruction
TP_SYNFORM
p4825
(dp4826
g559
I537
sg1743
(lp4827
(iconstruction
TP_PHON
p4828
(dp4829
g1753
I5
sg1750
I0
sg559
I542
sg1754
Vthief
p4830
sg42
g4796
sbasg42
g1645
sbsg1761
I1
sba(iconstruction
CXN
p4831
(dp4832
g1703
(iconstruction
TP_SYMLINKS
p4833
(dp4834
g1706
(dp4835
VN1_547
p4836
VS1_549
p4837
ssg559
I545
sg42
g1645
sbsg1712
VN
p4838
sg1714
I1
sg42
VPOLICEMAN
p4839
sg1715
(iconstruction
TP_SEMFRAME
p4840
(dp4841
g72
g0
(g73
g2
Ntp4842
Rp4843
(dp4844
g77
(dp4845
(iconstruction
TP_NODE
p4846
(dp4847
g1724
I01
sg61
g717
sg42
VENT_546
p4848
sg1725
I01
sg1726
I00
sg559
I546
sb(dp4849
g1725
I01
sg61
g717
ss(iconstruction
TP_NODE
p4850
(dp4851
g1724
I00
sg61
g789
sg42
g4836
sg1725
I00
sg1726
I00
sg559
I547
sb(dp4852
g1725
I00
sg61
g789
sssg260
g261
sg262
g261
sg263
(dp4853
g4846
(dp4854
g4850
(dp4855
g61
g708
sssg4850
(dp4856
ssg457
g4853
sg72
(dp4857
sg459
g261
sg460
g4853
sg461
(dp4858
g4846
(dp4859
sg4850
(dp4860
g4846
g4855
sssbsg554
(lp4861
g4846
ag4850
asg827
(lp4862
(iconstruction
TP_REL
p4863
(dp4864
g833
g4850
sg61
g708
sg559
I548
sg834
g4846
sg42
VIS_548
p4865
sbasg559
I543
sg42
g1645
sbsg1740
(iconstruction
TP_SYNFORM
p4866
(dp4867
g559
I544
sg1743
(lp4868
(iconstruction
TP_PHON
p4869
(dp4870
g1753
I9
sg1750
I0
sg559
I549
sg1754
Vpoliceman
p4871
sg42
g4837
sbasg42
g1645
sbsg1761
I1
sba(iconstruction
CXN
p4872
(dp4873
g1703
(iconstruction
TP_SYMLINKS
p4874
(dp4875
g1706
(dp4876
VN1_554
p4877
VS1_556
p4878
ssg559
I552
sg42
g1645
sbsg1712
VN
p4879
sg1714
I1
sg42
VHUNTER
p4880
sg1715
(iconstruction
TP_SEMFRAME
p4881
(dp4882
g72
g0
(g73
g2
Ntp4883
Rp4884
(dp4885
g77
(dp4886
(iconstruction
TP_NODE
p4887
(dp4888
g1724
I00
sg61
g792
sg42
g4877
sg1725
I00
sg1726
I00
sg559
I554
sb(dp4889
g1725
I00
sg61
g792
ss(iconstruction
TP_NODE
p4890
(dp4891
g1724
I01
sg61
g717
sg42
VENT_553
p4892
sg1725
I01
sg1726
I00
sg559
I553
sb(dp4893
g1725
I01
sg61
g717
sssg260
g261
sg262
g261
sg263
(dp4894
g4887
(dp4895
sg4890
(dp4896
g4887
(dp4897
g61
g708
ssssg457
g4894
sg72
(dp4898
sg459
g261
sg460
g4894
sg461
(dp4899
g4887
(dp4900
g4890
g4897
ssg4890
(dp4901
ssbsg554
(lp4902
g4890
ag4887
asg827
(lp4903
(iconstruction
TP_REL
p4904
(dp4905
g833
g4887
sg61
g708
sg559
I555
sg834
g4890
sg42
VIS_555
p4906
sbasg559
I550
sg42
g1645
sbsg1740
(iconstruction
TP_SYNFORM
p4907
(dp4908
g559
I551
sg1743
(lp4909
(iconstruction
TP_PHON
p4910
(dp4911
g1753
I6
sg1750
I0
sg559
I556
sg1754
Vhunter
p4912
sg42
g4878
sbasg42
g1645
sbsg1761
I1
sba(iconstruction
CXN
p4913
(dp4914
g1703
(iconstruction
TP_SYMLINKS
p4915
(dp4916
g1706
(dp4917
VN1_561
p4918
VS1_563
p4919
ssg559
I559
sg42
g1645
sbsg1712
VN
p4920
sg1714
I1
sg42
VDOG
p4921
sg1715
(iconstruction
TP_SEMFRAME
p4922
(dp4923
g72
g0
(g73
g2
Ntp4924
Rp4925
(dp4926
g77
(dp4927
(iconstruction
TP_NODE
p4928
(dp4929
g1724
I01
sg61
g717
sg42
VENT_560
p4930
sg1725
I01
sg1726
I00
sg559
I560
sb(dp4931
g1725
I01
sg61
g717
ss(iconstruction
TP_NODE
p4932
(dp4933
g1724
I00
sg61
g777
sg42
g4918
sg1725
I00
sg1726
I00
sg559
I561
sb(dp4934
g1725
I00
sg61
g777
sssg260
g261
sg262
g261
sg263
(dp4935
g4928
(dp4936
g4932
(dp4937
g61
g708
sssg4932
(dp4938
ssg457
g4935
sg72
(dp4939
sg459
g261
sg460
g4935
sg461
(dp4940
g4928
(dp4941
sg4932
(dp4942
g4928
g4937
sssbsg554
(lp4943
g4928
ag4932
asg827
(lp4944
(iconstruction
TP_REL
p4945
(dp4946
g833
g4932
sg61
g708
sg559
I562
sg834
g4928
sg42
VIS_562
p4947
sbasg559
I557
sg42
g1645
sbsg1740
(iconstruction
TP_SYNFORM
p4948
(dp4949
g559
I558
sg1743
(lp4950
(iconstruction
TP_PHON
p4951
(dp4952
g1753
I3
sg1750
I0
sg559
I563
sg1754
Vdog
p4953
sg42
g4919
sbasg42
g1645
sbsg1761
I1
sba(iconstruction
CXN
p4954
(dp4955
g1703
(iconstruction
TP_SYMLINKS
p4956
(dp4957
g1706
(dp4958
VN1_568
p4959
VS1_570
p4960
ssg559
I566
sg42
g1645
sbsg1712
VN
p4961
sg1714
I1
sg42
VHOOK
p4962
sg1715
(iconstruction
TP_SEMFRAME
p4963
(dp4964
g72
g0
(g73
g2
Ntp4965
Rp4966
(dp4967
g77
(dp4968
(iconstruction
TP_NODE
p4969
(dp4970
g1724
I00
sg61
g747
sg42
g4959
sg1725
I00
sg1726
I00
sg559
I568
sb(dp4971
g1725
I00
sg61
g747
ss(iconstruction
TP_NODE
p4972
(dp4973
g1724
I01
sg61
g717
sg42
VENT_567
p4974
sg1725
I01
sg1726
I00
sg559
I567
sb(dp4975
g1725
I01
sg61
g717
sssg260
g261
sg262
g261
sg263
(dp4976
g4969
(dp4977
sg4972
(dp4978
g4969
(dp4979
g61
g708
ssssg457
g4976
sg72
(dp4980
sg459
g261
sg460
g4976
sg461
(dp4981
g4969
(dp4982
g4972
g4979
ssg4972
(dp4983
ssbsg554
(lp4984
g4972
ag4969
asg827
(lp4985
(iconstruction
TP_REL
p4986
(dp4987
g833
g4969
sg61
g708
sg559
I569
sg834
g4972
sg42
VIS_569
p4988
sbasg559
I564
sg42
g1645
sbsg1740
(iconstruction
TP_SYNFORM
p4989
(dp4990
g559
I565
sg1743
(lp4991
(iconstruction
TP_PHON
p4992
(dp4993
g1753
I4
sg1750
I0
sg559
I570
sg1754
Vhook
p4994
sg42
g4960
sbasg42
g1645
sbsg1761
I1
sba(iconstruction
CXN
p4995
(dp4996
g1703
(iconstruction
TP_SYMLINKS
p4997
(dp4998
g1706
(dp4999
VN1_575
p5000
VS1_577
p5001
ssg559
I573
sg42
g1645
sbsg1712
VN
p5002
sg1714
I1
sg42
VBOOKSHELF
p5003
sg1715
(iconstruction
TP_SEMFRAME
p5004
(dp5005
g72
g0
(g73
g2
Ntp5006
Rp5007
(dp5008
g77
(dp5009
(iconstruction
TP_NODE
p5010
(dp5011
g1724
I00
sg61
g753
sg42
g5000
sg1725
I00
sg1726
I00
sg559
I575
sb(dp5012
g1725
I00
sg61
g753
ss(iconstruction
TP_NODE
p5013
(dp5014
g1724
I01
sg61
g717
sg42
VENT_574
p5015
sg1725
I01
sg1726
I00
sg559
I574
sb(dp5016
g1725
I01
sg61
g717
sssg260
g261
sg262
g261
sg263
(dp5017
g5010
(dp5018
sg5013
(dp5019
g5010
(dp5020
g61
g708
ssssg457
g5017
sg72
(dp5021
sg459
g261
sg460
g5017
sg461
(dp5022
g5010
(dp5023
g5013
g5020
ssg5013
(dp5024
ssbsg554
(lp5025
g5013
ag5010
asg827
(lp5026
(iconstruction
TP_REL
p5027
(dp5028
g833
g5010
sg61
g708
sg559
I576
sg834
g5013
sg42
VIS_576
p5029
sbasg559
I571
sg42
g1645
sbsg1740
(iconstruction
TP_SYNFORM
p5030
(dp5031
g559
I572
sg1743
(lp5032
(iconstruction
TP_PHON
p5033
(dp5034
g1753
I9
sg1750
I0
sg559
I577
sg1754
Vbookshelf
p5035
sg42
g5001
sbasg42
g1645
sbsg1761
I1
sba(iconstruction
CXN
p5036
(dp5037
g1703
(iconstruction
TP_SYMLINKS
p5038
(dp5039
g1706
(dp5040
VN1_582
p5041
VS1_584
p5042
ssg559
I580
sg42
g1645
sbsg1712
VN
p5043
sg1714
I1
sg42
VWAGON
p5044
sg1715
(iconstruction
TP_SEMFRAME
p5045
(dp5046
g72
g0
(g73
g2
Ntp5047
Rp5048
(dp5049
g77
(dp5050
(iconstruction
TP_NODE
p5051
(dp5052
g1724
I01
sg61
g717
sg42
VENT_581
p5053
sg1725
I01
sg1726
I00
sg559
I581
sb(dp5054
g1725
I01
sg61
g717
ss(iconstruction
TP_NODE
p5055
(dp5056
g1724
I00
sg61
g735
sg42
g5041
sg1725
I00
sg1726
I00
sg559
I582
sb(dp5057
g1725
I00
sg61
g735
sssg260
g261
sg262
g261
sg263
(dp5058
g5051
(dp5059
g5055
(dp5060
g61
g708
sssg5055
(dp5061
ssg457
g5058
sg72
(dp5062
sg459
g261
sg460
g5058
sg461
(dp5063
g5051
(dp5064
sg5055
(dp5065
g5051
g5060
sssbsg554
(lp5066
g5051
ag5055
asg827
(lp5067
(iconstruction
TP_REL
p5068
(dp5069
g833
g5055
sg61
g708
sg559
I583
sg834
g5051
sg42
VIS_583
p5070
sbasg559
I578
sg42
g1645
sbsg1740
(iconstruction
TP_SYNFORM
p5071
(dp5072
g559
I579
sg1743
(lp5073
(iconstruction
TP_PHON
p5074
(dp5075
g1753
I5
sg1750
I0
sg559
I584
sg1754
Vwagon
p5076
sg42
g5042
sbasg42
g1645
sbsg1761
I1
sba(iconstruction
CXN
p5077
(dp5078
g1703
(iconstruction
TP_SYMLINKS
p5079
(dp5080
g1706
(dp5081
VN1_589
p5082
VS1_591
p5083
ssg559
I587
sg42
g1645
sbsg1712
VN
p5084
sg1714
I1
sg42
VTREE
p5085
sg1715
(iconstruction
TP_SEMFRAME
p5086
(dp5087
g72
g0
(g73
g2
Ntp5088
Rp5089
(dp5090
g77
(dp5091
(iconstruction
TP_NODE
p5092
(dp5093
g1724
I00
sg61
g744
sg42
g5082
sg1725
I00
sg1726
I00
sg559
I589
sb(dp5094
g1725
I00
sg61
g744
ss(iconstruction
TP_NODE
p5095
(dp5096
g1724
I01
sg61
g717
sg42
VENT_588
p5097
sg1725
I01
sg1726
I00
sg559
I588
sb(dp5098
g1725
I01
sg61
g717
sssg260
g261
sg262
g261
sg263
(dp5099
g5092
(dp5100
sg5095
(dp5101
g5092
(dp5102
g61
g708
ssssg457
g5099
sg72
(dp5103
sg459
g261
sg460
g5099
sg461
(dp5104
g5092
(dp5105
g5095
g5102
ssg5095
(dp5106
ssbsg554
(lp5107
g5095
ag5092
asg827
(lp5108
(iconstruction
TP_REL
p5109
(dp5110
g833
g5092
sg61
g708
sg559
I590
sg834
g5095
sg42
VIS_590
p5111
sbasg559
I585
sg42
g1645
sbsg1740
(iconstruction
TP_SYNFORM
p5112
(dp5113
g559
I586
sg1743
(lp5114
(iconstruction
TP_PHON
p5115
(dp5116
g1753
I4
sg1750
I0
sg559
I591
sg1754
Vtree
p5117
sg42
g5083
sbasg42
g1645
sbsg1761
I1
sbasbsg42
g1658
sg44
(lp5118
g0
(g46
g2
Ntp5119
Rp5120
(dp5121
g1548
Nsg42
g1554
sg51
Nsg52
Nsg1550
Nsg269
g1493
sg559
I20
sg1494
g1764
sbag0
(g46
g2
Ntp5122
Rp5123
(dp5124
g42
S'to_cxn_retrieval_C'
p5125
sg51
Nsg52
g1695
sg269
g1493
sg559
I21
sg1494
g1764
sbasg1499
(dp5126
g1554
Nsg5125
Nssg1501
(lp5127
sg1504
F1.0
sg1505
(lp5128
sg1507
(dp5129
g1132
F0.3
ssg1509
I0
sg1510
I0
sg1130
g1513
sg559
I4
sS'schemas'
p5130
g1695
sbsg1132
F0.3
sbag0
(g1696
g2
Ntp5131
Rp5132
(dp5133
g42
g1782
sg59
g1772
sg1130
Nsg559
I100
sg1131
g1764
sg1132
F0.3
sbag0
(g1696
g2
Ntp5134
Rp5135
(dp5136
g42
g1833
sg59
g1823
sg1130
Nsg559
I101
sg1131
g1764
sg1132
F0.3
sbag0
(g1696
g2
Ntp5137
Rp5138
(dp5139
g42
g1886
sg59
g1874
sg1130
Nsg559
I102
sg1131
g1764
sg1132
F0.3
sbag0
(g1696
g2
Ntp5140
Rp5141
(dp5142
g42
g1965
sg59
g1953
sg1130
Nsg559
I103
sg1131
g1764
sg1132
F0.3
sbag0
(g1696
g2
Ntp5143
Rp5144
(dp5145
g42
g2040
sg59
g2028
sg1130
Nsg559
I104
sg1131
g1764
sg1132
F0.3
sbag0
(g1696
g2
Ntp5146
Rp5147
(dp5148
g42
g2129
sg59
g2115
sg1130
Nsg559
I105
sg1131
g1764
sg1132
F0.3
sbag0
(g1696
g2
Ntp5149
Rp5150
(dp5151
g42
g2220
sg59
g2206
sg1130
Nsg559
I106
sg1131
g1764
sg1132
F0.3
sbag0
(g1696
g2
Ntp5152
Rp5153
(dp5154
g42
g2311
sg59
g2301
sg1130
Nsg559
I107
sg1131
g1764
sg1132
F0.3
sbag0
(g1696
g2
Ntp5155
Rp5156
(dp5157
g42
g2373
sg59
g2363
sg1130
Nsg559
I108
sg1131
g1764
sg1132
F0.3
sbag0
(g1696
g2
Ntp5158
Rp5159
(dp5160
g42
g2432
sg59
g2422
sg1130
Nsg559
I109
sg1131
g1764
sg1132
F0.3
sbag0
(g1696
g2
Ntp5161
Rp5162
(dp5163
g42
g2484
sg59
g2474
sg1130
Nsg559
I110
sg1131
g1764
sg1132
F0.3
sbag0
(g1696
g2
Ntp5164
Rp5165
(dp5166
g42
g2531
sg59
g2521
sg1130
Nsg559
I111
sg1131
g1764
sg1132
F0.3
sbag0
(g1696
g2
Ntp5167
Rp5168
(dp5169
g42
g2580
sg59
g2568
sg1130
Nsg559
I112
sg1131
g1764
sg1132
F0.3
sbag0
(g1696
g2
Ntp5170
Rp5171
(dp5172
g42
g2660
sg59
g2650
sg1130
Nsg559
I113
sg1131
g1764
sg1132
F0.3
sbag0
(g1696
g2
Ntp5173
Rp5174
(dp5175
g42
g2728
sg59
g2716
sg1130
Nsg559
I114
sg1131
g1764
sg1132
F0.3
sbag0
(g1696
g2
Ntp5176
Rp5177
(dp5178
g42
g2822
sg59
g2810
sg1130
Nsg559
I115
sg1131
g1764
sg1132
F0.3
sbag0
(g1696
g2
Ntp5179
Rp5180
(dp5181
g42
g2904
sg59
g2892
sg1130
Nsg559
I116
sg1131
g1764
sg1132
F0.3
sbag0
(g1696
g2
Ntp5182
Rp5183
(dp5184
g42
g2996
sg59
g2986
sg1130
Nsg559
I117
sg1131
g1764
sg1132
F0.3
sbag0
(g1696
g2
Ntp5185
Rp5186
(dp5187
g42
g3061
sg59
g3051
sg1130
Nsg559
I118
sg1131
g1764
sg1132
F0.3
sbag0
(g1696
g2
Ntp5188
Rp5189
(dp5190
g42
g3140
sg59
g3132
sg1130
Nsg559
I119
sg1131
g1764
sg1132
F0.3
sbag0
(g1696
g2
Ntp5191
Rp5192
(dp5193
g42
g3181
sg59
g3173
sg1130
Nsg559
I120
sg1131
g1764
sg1132
F0.3
sbag0
(g1696
g2
Ntp5194
Rp5195
(dp5196
g42
g3222
sg59
g3214
sg1130
Nsg559
I121
sg1131
g1764
sg1132
F0.3
sbag0
(g1696
g2
Ntp5197
Rp5198
(dp5199
g42
g3263
sg59
g3255
sg1130
Nsg559
I122
sg1131
g1764
sg1132
F0.3
sbag0
(g1696
g2
Ntp5200
Rp5201
(dp5202
g42
g3304
sg59
g3296
sg1130
Nsg559
I123
sg1131
g1764
sg1132
F0.3
sbag0
(g1696
g2
Ntp5203
Rp5204
(dp5205
g42
g3345
sg59
g3337
sg1130
Nsg559
I124
sg1131
g1764
sg1132
F0.3
sbag0
(g1696
g2
Ntp5206
Rp5207
(dp5208
g42
g3386
sg59
g3378
sg1130
Nsg559
I125
sg1131
g1764
sg1132
F0.3
sbag0
(g1696
g2
Ntp5209
Rp5210
(dp5211
g42
g3431
sg59
g3423
sg1130
Nsg559
I126
sg1131
g1764
sg1132
F0.3
sbag0
(g1696
g2
Ntp5212
Rp5213
(dp5214
g42
g3476
sg59
g3468
sg1130
Nsg559
I127
sg1131
g1764
sg1132
F0.3
sbag0
(g1696
g2
Ntp5215
Rp5216
(dp5217
g42
g3517
sg59
g3509
sg1130
Nsg559
I128
sg1131
g1764
sg1132
F0.3
sbag0
(g1696
g2
Ntp5218
Rp5219
(dp5220
g42
g3558
sg59
g3550
sg1130
Nsg559
I129
sg1131
g1764
sg1132
F0.3
sbag0
(g1696
g2
Ntp5221
Rp5222
(dp5223
g42
g3599
sg59
g3591
sg1130
Nsg559
I130
sg1131
g1764
sg1132
F0.3
sbag0
(g1696
g2
Ntp5224
Rp5225
(dp5226
g42
g3640
sg59
g3632
sg1130
Nsg559
I131
sg1131
g1764
sg1132
F0.3
sbag0
(g1696
g2
Ntp5227
Rp5228
(dp5229
g42
g3681
sg59
g3673
sg1130
Nsg559
I132
sg1131
g1764
sg1132
F0.3
sbag0
(g1696
g2
Ntp5230
Rp5231
(dp5232
g42
g3722
sg59
g3714
sg1130
Nsg559
I133
sg1131
g1764
sg1132
F0.3
sbag0
(g1696
g2
Ntp5233
Rp5234
(dp5235
g42
g3753
sg59
g3745
sg1130
Nsg559
I134
sg1131
g1764
sg1132
F0.3
sbag0
(g1696
g2
Ntp5236
Rp5237
(dp5238
g42
g3784
sg59
g3776
sg1130
Nsg559
I135
sg1131
g1764
sg1132
F0.3
sbag0
(g1696
g2
Ntp5239
Rp5240
(dp5241
g42
g3815
sg59
g3807
sg1130
Nsg559
I136
sg1131
g1764
sg1132
F0.3
sbag0
(g1696
g2
Ntp5242
Rp5243
(dp5244
g42
g3846
sg59
g3838
sg1130
Nsg559
I137
sg1131
g1764
sg1132
F0.3
sbag0
(g1696
g2
Ntp5245
Rp5246
(dp5247
g42
g3877
sg59
g3869
sg1130
Nsg559
I138
sg1131
g1764
sg1132
F0.3
sbag0
(g1696
g2
Ntp5248
Rp5249
(dp5250
g42
g3908
sg59
g3900
sg1130
Nsg559
I139
sg1131
g1764
sg1132
F0.3
sbag0
(g1696
g2
Ntp5251
Rp5252
(dp5253
g42
g3939
sg59
g3931
sg1130
Nsg559
I140
sg1131
g1764
sg1132
F0.3
sbag0
(g1696
g2
Ntp5254
Rp5255
(dp5256
g42
g3970
sg59
g3962
sg1130
Nsg559
I141
sg1131
g1764
sg1132
F0.3
sbag0
(g1696
g2
Ntp5257
Rp5258
(dp5259
g42
g4011
sg59
g4003
sg1130
Nsg559
I142
sg1131
g1764
sg1132
F0.3
sbag0
(g1696
g2
Ntp5260
Rp5261
(dp5262
g42
g4052
sg59
g4044
sg1130
Nsg559
I143
sg1131
g1764
sg1132
F0.3
sbag0
(g1696
g2
Ntp5263
Rp5264
(dp5265
g42
g4093
sg59
g4085
sg1130
Nsg559
I144
sg1131
g1764
sg1132
F0.3
sbag0
(g1696
g2
Ntp5266
Rp5267
(dp5268
g42
g4134
sg59
g4126
sg1130
Nsg559
I145
sg1131
g1764
sg1132
F0.3
sbag0
(g1696
g2
Ntp5269
Rp5270
(dp5271
g42
g4175
sg59
g4167
sg1130
Nsg559
I146
sg1131
g1764
sg1132
F0.3
sbag0
(g1696
g2
Ntp5272
Rp5273
(dp5274
g42
g4216
sg59
g4208
sg1130
Nsg559
I147
sg1131
g1764
sg1132
F0.3
sbag0
(g1696
g2
Ntp5275
Rp5276
(dp5277
g42
g4257
sg59
g4249
sg1130
Nsg559
I148
sg1131
g1764
sg1132
F0.3
sbag0
(g1696
g2
Ntp5278
Rp5279
(dp5280
g42
g4298
sg59
g4290
sg1130
Nsg559
I149
sg1131
g1764
sg1132
F0.3
sbag0
(g1696
g2
Ntp5281
Rp5282
(dp5283
g42
g4339
sg59
g4331
sg1130
Nsg559
I150
sg1131
g1764
sg1132
F0.3
sbag0
(g1696
g2
Ntp5284
Rp5285
(dp5286
g42
g4380
sg59
g4372
sg1130
Nsg559
I151
sg1131
g1764
sg1132
F0.3
sbag0
(g1696
g2
Ntp5287
Rp5288
(dp5289
g42
g4425
sg59
g4417
sg1130
Nsg559
I152
sg1131
g1764
sg1132
F0.3
sbag0
(g1696
g2
Ntp5290
Rp5291
(dp5292
g42
g4466
sg59
g4458
sg1130
Nsg559
I153
sg1131
g1764
sg1132
F0.3
sbag0
(g1696
g2
Ntp5293
Rp5294
(dp5295
g42
g4507
sg59
g4499
sg1130
Nsg559
I154
sg1131
g1764
sg1132
F0.3
sbag0
(g1696
g2
Ntp5296
Rp5297
(dp5298
g42
g4548
sg59
g4540
sg1130
Nsg559
I155
sg1131
g1764
sg1132
F0.3
sbag0
(g1696
g2
Ntp5299
Rp5300
(dp5301
g42
g4589
sg59
g4581
sg1130
Nsg559
I156
sg1131
g1764
sg1132
F0.3
sbag0
(g1696
g2
Ntp5302
Rp5303
(dp5304
g42
g4630
sg59
g4622
sg1130
Nsg559
I157
sg1131
g1764
sg1132
F0.3
sbag0
(g1696
g2
Ntp5305
Rp5306
(dp5307
g42
g4675
sg59
g4667
sg1130
Nsg559
I158
sg1131
g1764
sg1132
F0.3
sbag0
(g1696
g2
Ntp5308
Rp5309
(dp5310
g42
g4716
sg59
g4708
sg1130
Nsg559
I159
sg1131
g1764
sg1132
F0.3
sbag0
(g1696
g2
Ntp5311
Rp5312
(dp5313
g42
g4757
sg59
g4749
sg1130
Nsg559
I160
sg1131
g1764
sg1132
F0.3
sbag0
(g1696
g2
Ntp5314
Rp5315
(dp5316
g42
g4798
sg59
g4790
sg1130
Nsg559
I161
sg1131
g1764
sg1132
F0.3
sbag0
(g1696
g2
Ntp5317
Rp5318
(dp5319
g42
g4839
sg59
g4831
sg1130
Nsg559
I162
sg1131
g1764
sg1132
F0.3
sbag0
(g1696
g2
Ntp5320
Rp5321
(dp5322
g42
g4880
sg59
g4872
sg1130
Nsg559
I163
sg1131
g1764
sg1132
F0.3
sbag0
(g1696
g2
Ntp5323
Rp5324
(dp5325
g42
g4921
sg59
g4913
sg1130
Nsg559
I164
sg1131
g1764
sg1132
F0.3
sbag0
(g1696
g2
Ntp5326
Rp5327
(dp5328
g42
g4962
sg59
g4954
sg1130
Nsg559
I165
sg1131
g1764
sg1132
F0.3
sbag0
(g1696
g2
Ntp5329
Rp5330
(dp5331
g42
g5003
sg59
g4995
sg1130
Nsg559
I166
sg1131
g1764
sg1132
F0.3
sbag0
(g1696
g2
Ntp5332
Rp5333
(dp5334
g42
g5044
sg59
g5036
sg1130
Nsg559
I167
sg1131
g1764
sg1132
F0.3
sbag0
(g1696
g2
Ntp5335
Rp5336
(dp5337
g42
g5085
sg59
g5077
sg1130
Nsg559
I168
sg1131
g1764
sg1132
F0.3
sbasg1550
Nsg269
g1529
sg559
I22
sg1494
g1680
sbag1675
asg1507
(dp5338
sg1509
I0
sg1510
I0
sg1130
g1513
sg559
I5
sbsbsS'port_from'
p5339
g1552
sg1130
g1513
sg559
I1
sbag0
(g1667
g2
Ntp5340
Rp5341
(dp5342
g1671
I0
sg42
g1645
sg1672
I0
sg1673
g1693
sg5339
g5120
sg1130
g1513
sg559
I2
sbag0
(g1667
g2
Ntp5343
Rp5344
(dp5345
g1671
I0
sg42
g1645
sg1672
I0
sg1673
g0
(g46
g2
Ntp5346
Rp5347
(dp5348
g1548
Nsg42
S'from_cxn_retrieval_P'
p5349
sg51
Nsg52
Nsg1550
Nsg269
g1529
sg559
I14
sg1494
g0
(clanguage_schemas
GRAMMATICAL_WM_P
p5350
g2
Ntp5351
Rp5352
(dp5353
g40
(dp5354
g5349
NsS'from_phonological_WM_P'
p5355
Nsg1677
Nsg1537
Nssg1539
(lp5356
sg42
g1654
sg1542
(lp5357
sg44
(lp5358
g0
(g46
g2
Ntp5359
Rp5360
(dp5361
g1548
Nsg42
g1498
sg51
Nsg52
Nsg1550
Nsg269
g1493
sg559
I17
sg1494
g5352
sbag0
(g46
g2
Ntp5362
Rp5363
(dp5364
g1548
Nsg42
S'to_phonological_WM_P'
p5365
sg51
Nsg52
Nsg1550
Nsg269
g1493
sg559
I18
sg1494
g5352
sbag0
(g46
g2
Ntp5366
Rp5367
(dp5368
g42
g1566
sg51
Nsg52
Nsg269
g1493
sg559
I19
sg1494
g5352
sbasg1499
(dp5369
g1566
Nsg5365
Nsg1498
Nssg1504
F1.0
sg1568
(lp5370
sg1505
(lp5371
g0
(g46
g2
Ntp5372
Rp5373
(dp5374
g1548
Nsg42
g1677
sg51
Nsg52
(dp5375
g554
(dp5376
VENTITY_242316
p5377
cnumpy.core.multiarray
scalar
p5378
(cnumpy
dtype
p5379
(S'f8'
p5380
I0
I1
tp5381
Rp5382
(I3
S'<'
p5383
NNNI-1
I-1
I0
tp5384
bS'\x00yVn\xf9\x0f\xe9?'
p5385
tp5386
Rp5387
sVWOMAN_242317
p5388
g5378
(g5382
S'\x89\x8e\x8cdR\x83\xeb?'
p5389
tp5390
Rp5391
sVYOUNG_242319
p5392
g5378
(g5382
S'\xe3:\xdd\x19\nZ\xe6?'
p5393
tp5394
Rp5395
ssg827
(dp5396
(g5377
g5388
tp5397
g5378
(g5382
S'\xff~\x17\xf3\xd9\xa7\xeb?'
p5398
tp5399
Rp5400
s(g5377
g5392
tp5401
g5378
(g5382
S'\x08\x15(x\xee\xc8\xe3?'
p5402
tp5403
Rp5404
sssg1550
Nsg269
g1529
sg559
I13
sg1494
g5352
sbag5347
ag0
(g46
g2
Ntp5405
Rp5406
(dp5407
g1548
Nsg42
g1537
sg51
Nsg52
(dp5408
S'params_style'
p5409
(dp5410
S'continuity'
p5411
F0.1
sS'form_length'
p5412
F0.0
sS'sem_length'
p5413
F0.5
sS'activation'
p5414
F0.7
ssS'pressure'
p5415
g5378
(g5382
S'+\x87\x16\xd9\xce\xf7\xef?'
p5416
tp5417
Rp5418
sg1583
I01
ssg1550
Nsg269
g1529
sg559
I15
sg1494
g5352
sbag0
(g46
g2
Ntp5419
Rp5420
(dp5421
g1548
Nsg42
g5355
sg51
Nsg52
(lp5422
sg1550
Nsg269
g1529
sg559
I16
sg1494
g5352
sbasg1584
(dp5423
g1586
(dp5424
sg1588
(dp5425
g1590
(lp5426
sg1592
(dp5427
g1594
(lp5428
sg1596
(lp5429
sg1598
(lp5430
ssg1600
(lp5431
sg1509
(lp5432
sg1603
(lp5433
sssg1507
(dp5434
g1606
(dp5435
g1608
F1.0
sS'deact_weight'
p5436
F0.0
sg1609
F-10.0
sg1610
F1.0
sg1611
F1.0
sg1612
F1.0
sS'sub_threshold_r'
p5437
F0.8
sg1613
F0.3
sg1614
F0.0
sg1615
F0.01
ssg1616
(dp5438
g1618
g5378
(g5382
S'\x00\x00\x00\x00\x00@\x8f@'
p5439
tp5440
Rp5441
sg1619
g5378
(g5382
S'\x00\x00\x00\x00\x00\x00$@'
p5442
tp5443
Rp5444
sg1620
F0.001
sg1621
F0.0
sg1622
g5378
(g5382
S'\x00\x00\x00\x00\x00\x00\x00@'
p5445
tp5446
Rp5447
sg1623
g5378
(g5382
S'\x00\x00\x00\x00\x00\x00$@'
p5448
tp5449
Rp5450
sg1624
F1.0
ssS'style'
p5451
(dp5452
g5411
F0.1
sg5412
F0.0
sg5413
F0.5
sg5414
F0.7
sssg1509
I0
sg1510
I0
sg1130
g1513
sg559
I3
sbsbsg5339
g1686
sg1130
g1513
sg559
I3
sbag0
(g1667
g2
Ntp5453
Rp5454
(dp5455
g1671
I0
sg42
g1645
sg1672
I0
sg1673
g5373
sg5339
g1546
sg1130
g1513
sg559
I4
sbag0
(g1667
g2
Ntp5456
Rp5457
(dp5458
g1671
I0
sg42
g1645
sg1672
I0
sg1673
g1578
sg5339
g5360
sg1130
g1513
sg559
I5
sbag0
(g1667
g2
Ntp5459
Rp5460
(dp5461
g1671
I0
sg42
g1645
sg1672
I0
sg1673
g0
(g46
g2
Ntp5462
Rp5463
(dp5464
g1548
Nsg42
g1535
sg51
Nsg52
Nsg1550
Nsg269
g1529
sg559
I25
sg1494
g0
(clanguage_schemas
PHON_WM_P
p5465
g2
Ntp5466
Rp5467
(dp5468
g40
(dp5469
g1535
Nssg1539
(lp5470
sg42
g1650
sg1542
(lp5471
sg44
(lp5472
g0
(g46
g2
Ntp5473
Rp5474
(dp5475
g1548
Nsg42
S'to_utter'
p5476
sg51
Nsg52
Nsg1550
Nsg269
g1493
sg559
I26
sg1494
g5467
sbag0
(g46
g2
Ntp5477
Rp5478
(dp5479
g1548
Nsg42
g1549
sg51
Nsg52
Nsg1550
Nsg269
g1493
sg559
I27
sg1494
g5467
sbag0
(g46
g2
Ntp5480
Rp5481
(dp5482
g1548
Nsg42
g1558
sg51
Nsg52
Nsg1550
Nsg269
g1493
sg559
I28
sg1494
g5467
sbag0
(g46
g2
Ntp5483
Rp5484
(dp5485
g42
g1566
sg51
Nsg52
Nsg269
g1493
sg559
I29
sg1494
g5467
sbasg1499
(dp5486
g1566
Nsg1549
Nsg5476
Nsg1558
NssS'needs_filler'
p5487
I01
sg1504
F1.0
sg1568
(lp5488
sg1505
(lp5489
g5463
asS'filler'
p5490
S'....'
p5491
sg1584
(dp5492
g1586
(dp5493
sg1588
(dp5494
g1590
(lp5495
sg1592
(dp5496
g1594
(lp5497
sg1596
(lp5498
sg1598
(lp5499
ssg1600
(lp5500
sg1509
(lp5501
sg1603
(lp5502
sssg1507
(dp5503
g1606
(dp5504
g1608
F1.0
sg1609
F0.0
sg1610
F1.0
sg1611
F1.0
sg1612
F0.0
sg1613
F0.0
sg1614
F0.0
sg1615
F0.01
ssg1616
(dp5505
g1618
F100.0
sg1619
F10.0
sg1620
F0.001
sg1621
F0.0
sg1622
F1.0
sg1623
F1.0
sg1624
F1.0
sssg1509
I0
sg1510
I0
sg1130
g1513
sS'phon_sequence'
p5506
(lp5507
sg559
I6
sbsbsg5339
g5363
sg1130
g1513
sg559
I6
sbag0
(g1667
g2
Ntp5508
Rp5509
(dp5510
g1671
I0
sg42
g1645
sg1672
I0
sg1673
g5420
sg5339
g5478
sg1130
g1513
sg559
I7
sbag0
(g1667
g2
Ntp5511
Rp5512
(dp5513
g1671
I0
sg42
g1645
sg1672
I0
sg1673
g0
(g46
g2
Ntp5514
Rp5515
(dp5516
g1548
Nsg42
g1677
sg51
Nsg52
I01
sg1550
Nsg269
g1529
sg559
I32
sg1494
g0
(clanguage_schemas
CONTROL
p5517
g2
Ntp5518
Rp5519
(dp5520
g40
(dp5521
g5355
Nsg1677
Nssg42
g1640
sg44
(lp5522
g0
(g46
g2
Ntp5523
Rp5524
(dp5525
g1548
Nsg42
g1498
sg51
Nsg52
Nsg1550
Nsg269
g1493
sg559
I34
sg1494
g5519
sbag0
(g46
g2
Ntp5526
Rp5527
(dp5528
g1548
Nsg42
g1549
sg51
Nsg52
Nsg1550
Nsg269
g1493
sg559
I35
sg1494
g5519
sbag0
(g46
g2
Ntp5529
Rp5530
(dp5531
g42
S'to_grammatical_WM_C'
p5532
sg51
Nsg52
I00
sg269
g1493
sg559
I36
sg1494
g5519
sbasg1499
(dp5533
g1549
Nsg5532
Nsg1498
Nssg1504
F1.0
sg1505
(lp5534
g5515
ag0
(g46
g2
Ntp5535
Rp5536
(dp5537
g1548
Nsg42
g5355
sg51
Nsg52
Nsg1550
Nsg269
g1529
sg559
I33
sg1494
g5519
sbasS'state'
p5538
(dp5539
g1583
I00
sS'unexpressed_sem'
p5540
I00
sS'mode'
p5541
g1583
sS'last_prod_time'
p5542
I0
ssg1507
(dp5543
g5451
(dp5544
g5411
F0.1
sg5412
F0.0
sg5414
F0.7
sg5413
F0.5
ssS'task'
p5545
(dp5546
S'time_pressure'
p5547
g5378
(g5382
S'\x00\x00\x00\x00\x00@\x8f@'
p5548
tp5549
Rp5550
sS'start_produce'
p5551
g5378
(g5382
S'\x00\x00\x00\x00\x00@\x8f@'
p5552
tp5553
Rp5554
sssg1509
I0
sg1510
I0
sg1130
g1513
sg559
I8
sbsbsg5339
g1556
sg1130
g1513
sg559
I8
sbag0
(g1667
g2
Ntp5555
Rp5556
(dp5557
g1671
I0
sg42
g1645
sg1672
I0
sg1673
g0
(g46
g2
Ntp5558
Rp5559
(dp5560
g1548
Nsg42
g5355
sg51
Nsg52
Nsg1550
Nsg269
g1529
sg559
I30
sg1494
g0
(clanguage_schemas
UTTER
p5561
g2
Ntp5562
Rp5563
(dp5564
g40
(dp5565
g5355
Nssg42
g1643
sg44
(lp5566
g0
(g46
g2
Ntp5567
Rp5568
(dp5569
g42
g1566
sg51
Nsg52
Nsg269
g1493
sg559
I31
sg1494
g5563
sbasg1499
(dp5570
g1566
NssS'utterance_stack'
p5571
(lp5572
sg1504
F1.0
sg1505
(lp5573
g5559
asg1507
(dp5574
S'speech_rate'
p5575
F1.0
ssg1509
I0
sg1510
I0
sg1130
g1513
sg559
I7
sbsbsg5339
g5474
sg1130
g1513
sg559
I9
sbag0
(g1667
g2
Ntp5576
Rp5577
(dp5578
g1671
I0
sg42
g1645
sg1672
I0
sg1673
g5536
sg5339
g5481
sg1130
g1513
sg559
I10
sbag0
(g1667
g2
Ntp5579
Rp5580
(dp5581
g1671
I0
sg42
g1645
sg1672
I0
sg1673
g5406
sg5339
g5527
sg1130
g1513
sg559
I11
sbag0
(g1667
g2
Ntp5582
Rp5583
(dp5584
g1671
I0
sg42
g1645
sg1672
I0
sg1673
g1581
sg5339
g5524
sg1130
g1513
sg559
I12
sbasg1507
(dp5585
g1640
g5543
sg1650
g5503
sg43
g1508
sg1658
g5129
sg1662
g5338
sg1541
g1605
sg1643
g5574
sg1654
g5434
ssg1509
F0.0
sS'set_up_time'
p5586
I10
sS'input'
p5587
NsS'default_params'
p5588
Nsg1504
F1.0
sS'output_ports'
p5589
(lp5590
g5568
ag5484
ag5367
ag1564
asg5130
(dp5591
g1640
g5519
sg1650
g5467
sg43
g38
sg1662
g1680
sg1654
g5352
sg1541
g1532
sg1643
g5563
sg1658
g1764
ssbsg559
I2
sg5130
g53
sbsS'speed_param'
p5592
I100
sS'ground_truths'
p5593
(lp5594
Vyoung woman
p5595
aVyoung lady
p5596
asS'is_macro'
p5597
I01
sb.