ccopy_reg
_reconstructor
p0
(clanguage_schemas
SEM_GENERATOR
p1
c__builtin__
object
p2
Ntp3
Rp4
(dp5
S'sem_inputs'
p6
(dp7
S'{}'
p8
(dp9
Vtiming
p10
(lp11
F0.0
asVsem_rate
p12
I1
sVpropositions
p13
(dp14
VP1
p15
(lp16
VWOMAN(w1)
p17
aVWEAR(a1)
p18
aVDRESS(d1)
p19
aVBLUE(b1)
p20
aVAGENT(r1)
p21
aVPATIENT(r2)
p22
aVMODIFY(r3)
p23
aVr1(a1, w1)
p24
aVr2(a1,d1)
p25
aVr3(b1, d1)
p26
assVcomments
p27
Vtest for the IN_COLOR construction.
p28
sVsequence
p29
(lp30
VP1
p31
asssS'conceptLTM'
p32
g0
(clanguage_schemas
CONCEPT_LTM
p33
g2
Ntp34
Rp35
(dp36
S'inputs'
p37
(dp38
sS'name'
p39
S'Concept_LTM'
p40
sS'out_ports'
p41
(lp42
g0
(cschema_theory
PORT
p43
g2
Ntp44
Rp45
(dp46
g39
S'to_conceptualizer'
p47
sS'data'
p48
NsS'value'
p49
(lp50
g0
(clanguage_schemas
CPT_EVENT_SCHEMA
p51
g2
Ntp52
Rp53
(dp54
g39
S'?'
p55
sS'content'
p56
(dp57
S'concept'
p58
g0
(cconcept
CONCEPT
p59
g2
Ntp60
Rp61
(dp62
S'meaning'
p63
g55
sS'conceptual_knowledge'
p64
g0
(cconcept
CONCEPTUAL_KNOWLEDGE
p65
g2
Ntp66
Rp67
(dp68
S'graph'
p69
g0
(cnetworkx.classes.digraph
DiGraph
p70
g2
Ntp71
Rp72
(dp73
S'node'
p74
(dp75
I1
(dp76
g63
g55
ssI2
(dp77
g63
S'CONCEPT'
p78
ssI3
(dp79
g63
VACTION
p80
ssI4
(dp81
g63
VSYMMETRIC
p82
ssI5
(dp83
g63
VMEET
p84
ssI6
(dp85
g63
VSHAKE_HANDS
p86
ssI7
(dp87
g63
VINTRANSITIVE
p88
ssI8
(dp89
g63
VLAUGH
p90
ssI9
(dp91
g63
VTRANSITIVE
p92
ssI10
(dp93
g63
VHIT
p94
ssI11
(dp95
g63
VWATCH
p96
ssI12
(dp97
g63
VPUNCH
p98
ssI13
(dp99
g63
VSPLASH
p100
ssI14
(dp101
g63
VTALK
p102
ssI15
(dp103
g63
VKISS
p104
ssI16
(dp105
g63
VSQUIRT
p106
ssI17
(dp107
g63
VKICK
p108
ssI18
(dp109
g63
VWEAR
p110
ssI19
(dp111
g63
VDITRANSITIVE
p112
ssI20
(dp113
g63
VSEND
p114
ssI21
(dp115
g63
VGIVE
p116
ssI22
(dp117
g63
VPROPERTY
p118
ssI23
(dp119
g63
VCOLOR
p120
ssI24
(dp121
g63
VBLUE
p122
ssI25
(dp123
g63
VGREEN
p124
ssI26
(dp125
g63
VWHITE
p126
ssI27
(dp127
g63
VBLACK
p128
ssI28
(dp129
g63
VRED
p130
ssI29
(dp131
g63
VAPPEARANCE
p132
ssI30
(dp133
g63
VYOUNG
p134
ssI31
(dp135
g63
VPRETTY
p136
ssI32
(dp137
g63
VHANDSOME
p138
ssI33
(dp139
g63
VSIZE
p140
ssI34
(dp141
g63
VSMALL
p142
ssI35
(dp143
g63
VBIG
p144
ssI36
(dp145
g63
VRELATION
p146
ssI37
(dp147
g63
VACTION_FRAME
p148
ssI38
(dp149
g63
VMODIFY
p150
ssI39
(dp151
g63
VTHEME
p152
ssI40
(dp153
g63
VRECIPIENT
p154
ssI41
(dp155
g63
VATTR
p156
ssI42
(dp157
g63
VAGT_PT
p158
ssI43
(dp159
g63
VPATIENT
p160
ssI44
(dp161
g63
VAGT+PT
p162
ssI45
(dp163
g63
VAGENT
p164
ssI46
(dp165
g63
VEVENT_FRAME
p166
ssI47
(dp167
g63
VTEMPORAL
p168
ssI48
(dp169
g63
VCONCURRENT
p170
ssI49
(dp171
g63
VSUCCESSIVE
p172
ssI50
(dp173
g63
VSPATIAL
p174
ssI51
(dp175
g63
VIN
p176
ssI52
(dp177
g63
VIS
p178
ssI53
(dp179
g63
VOBJECT_FRAME
p180
ssI54
(dp181
g63
VEVENT
p182
ssI55
(dp183
g63
VENTITY
p184
ssI56
(dp185
g63
VANIMATE
p186
ssI57
(dp187
g63
VANIMAL
p188
ssI58
(dp189
g63
VHUMAN
p190
ssI59
(dp191
g63
VOBJECT
p192
ssI60
(dp193
g63
VITEM
p194
ssI61
(dp195
g63
VWAGON
p196
ssI62
(dp197
g63
VWATERING_CAN
p198
ssI63
(dp199
g63
VBAG
p200
ssI64
(dp201
g63
VTREE
p202
ssI65
(dp203
g63
VHOOK
p204
ssI66
(dp205
g63
VCELLO
p206
ssI67
(dp207
g63
VBOOKSHELF
p208
ssI68
(dp209
g63
VCLOTHING
p210
ssI69
(dp211
g63
VTSHIRT
p212
ssI70
(dp213
g63
VDRESS
p214
ssI71
(dp215
g63
VSHIRT
p216
ssI72
(dp217
g63
VSUIT
p218
ssI73
(dp219
g63
VTURTLE
p220
ssI74
(dp221
g63
VMOUSE
p222
ssI75
(dp223
g63
VDOG
p224
ssI76
(dp225
g63
VBOY
p226
ssI77
(dp227
g63
VWOMAN
p228
ssI78
(dp229
g63
VPEOPLE
p230
ssI79
(dp231
g63
VPOLICEMAN
p232
ssI80
(dp233
g63
VHUNTER
p234
ssI81
(dp235
g63
VBALLERINA
p236
ssI82
(dp237
g63
VCELLIST
p238
ssI83
(dp239
g63
VGIRL
p240
ssI84
(dp241
g63
VFENCER
p242
ssI85
(dp243
g63
VROBBER
p244
ssI86
(dp245
g63
VMAN
p246
ssI87
(dp247
g63
VPLACE
p248
ssI88
(dp249
g63
VBOXINGRING
p250
ssI89
(dp251
g63
VPARK
p252
ssI90
(dp253
g63
VMALE
p254
ssI91
(dp255
g63
VFEMALE
p256
sssS'node_dict_factory'
p257
c__builtin__
dict
p258
sS'edge_attr_dict_factory'
p259
g258
sS'succ'
p260
(dp261
I1
(dp262
sI2
(dp263
sI3
(dp264
I2
(dp265
S'type'
p266
S'is_a'
p267
sssI4
(dp268
I3
(dp269
g266
g267
sssI5
(dp270
I4
(dp271
g266
g267
sssI6
(dp272
I4
(dp273
g266
g267
sssI7
(dp274
I3
(dp275
g266
g267
sssI8
(dp276
I7
(dp277
g266
g267
sssI9
(dp278
I3
(dp279
g266
g267
sssI10
(dp280
I9
(dp281
g266
g267
sssI11
(dp282
I9
(dp283
g266
g267
sssI12
(dp284
I9
(dp285
g266
g267
sssI13
(dp286
I9
(dp287
g266
g267
sssI14
(dp288
I9
(dp289
g266
g267
sssI15
(dp290
I9
(dp291
g266
g267
sssI16
(dp292
I9
(dp293
g266
g267
sssI17
(dp294
I9
(dp295
g266
g267
sssI18
(dp296
I9
(dp297
g266
g267
sssI19
(dp298
I3
(dp299
g266
g267
sssI20
(dp300
I19
(dp301
g266
g267
sssI21
(dp302
I19
(dp303
g266
g267
sssI22
(dp304
I2
(dp305
g266
g267
sssI23
(dp306
I22
(dp307
g266
g267
sssI24
(dp308
I23
(dp309
g266
g267
sssI25
(dp310
I23
(dp311
g266
g267
sssI26
(dp312
I23
(dp313
g266
g267
sssI27
(dp314
I23
(dp315
g266
g267
sssI28
(dp316
I23
(dp317
g266
g267
sssI29
(dp318
I22
(dp319
g266
g267
sssI30
(dp320
I29
(dp321
g266
g267
sssI31
(dp322
I29
(dp323
g266
g267
sssI32
(dp324
I29
(dp325
g266
g267
sssI33
(dp326
I22
(dp327
g266
g267
sssI34
(dp328
I33
(dp329
g266
g267
sssI35
(dp330
I33
(dp331
g266
g267
sssI36
(dp332
I2
(dp333
g266
g267
sssI37
(dp334
I36
(dp335
g266
g267
sssI38
(dp336
I37
(dp337
g266
g267
ssI53
(dp338
g266
g267
sssI39
(dp339
I37
(dp340
g266
g267
sssI40
(dp341
I37
(dp342
g266
g267
sssI41
(dp343
I37
(dp344
g266
g267
ssI53
(dp345
g266
g267
sssI42
(dp346
I37
(dp347
g266
g267
sssI43
(dp348
I42
(dp349
g266
g267
sssI44
(dp350
I43
(dp351
g266
g267
ssI45
(dp352
g266
g267
sssI45
(dp353
I42
(dp354
g266
g267
sssI46
(dp355
I36
(dp356
g266
g267
sssI47
(dp357
I46
(dp358
g266
g267
sssI48
(dp359
I47
(dp360
g266
g267
sssI49
(dp361
I47
(dp362
g266
g267
sssI50
(dp363
I46
(dp364
g266
g267
sssI51
(dp365
I50
(dp366
g266
g267
sssI52
(dp367
I36
(dp368
g266
g267
sssI53
(dp369
I36
(dp370
g266
g267
sssI54
(dp371
I2
(dp372
g266
g267
sssI55
(dp373
I2
(dp374
g266
g267
sssI56
(dp375
I55
(dp376
g266
g267
sssI57
(dp377
I56
(dp378
g266
g267
ssI59
(dp379
g266
g267
sssI58
(dp380
I56
(dp381
g266
g267
ssI59
(dp382
g266
g267
sssI59
(dp383
I55
(dp384
g266
g267
sssI60
(dp385
I59
(dp386
g266
g267
sssI61
(dp387
I60
(dp388
g266
g267
sssI62
(dp389
I60
(dp390
g266
g267
sssI63
(dp391
I60
(dp392
g266
g267
sssI64
(dp393
I60
(dp394
g266
g267
sssI65
(dp395
I60
(dp396
g266
g267
sssI66
(dp397
I60
(dp398
g266
g267
sssI67
(dp399
I60
(dp400
g266
g267
sssI68
(dp401
I60
(dp402
g266
g267
sssI69
(dp403
I68
(dp404
g266
g267
sssI70
(dp405
I68
(dp406
g266
g267
sssI71
(dp407
I68
(dp408
g266
g267
sssI72
(dp409
I68
(dp410
g266
g267
sssI73
(dp411
I57
(dp412
g266
g267
sssI74
(dp413
I57
(dp414
g266
g267
sssI75
(dp415
I57
(dp416
g266
g267
sssI76
(dp417
I58
(dp418
g266
g267
ssI90
(dp419
g266
g267
sssI77
(dp420
I58
(dp421
g266
g267
ssI91
(dp422
g266
g267
sssI78
(dp423
I58
(dp424
g266
g267
sssI79
(dp425
I58
(dp426
g266
g267
sssI80
(dp427
I58
(dp428
g266
g267
sssI81
(dp429
I58
(dp430
g266
g267
ssI91
(dp431
g266
g267
sssI82
(dp432
I58
(dp433
g266
g267
sssI83
(dp434
I58
(dp435
g266
g267
ssI91
(dp436
g266
g267
sssI84
(dp437
I58
(dp438
g266
g267
sssI85
(dp439
I58
(dp440
g266
g267
sssI86
(dp441
I58
(dp442
g266
g267
ssI90
(dp443
g266
g267
sssI87
(dp444
I55
(dp445
g266
g267
sssI88
(dp446
I87
(dp447
g266
g267
sssI89
(dp448
I87
(dp449
g266
g267
sssI90
(dp450
I55
(dp451
g266
g267
sssI91
(dp452
I55
(dp453
g266
g267
ssssS'edge'
p454
g261
sg69
(dp455
sS'adjlist_dict_factory'
p456
g258
sS'adj'
p457
g261
sS'pred'
p458
(dp459
I1
(dp460
sI2
(dp461
I3
g265
sI36
g333
sI54
g372
sI22
g305
sI55
g374
ssI3
(dp462
I9
g279
sI19
g299
sI4
g269
sI7
g275
ssI4
(dp463
I5
g271
sI6
g273
ssI5
(dp464
sI6
(dp465
sI7
(dp466
I8
g277
ssI8
(dp467
sI9
(dp468
I10
g281
sI11
g283
sI12
g285
sI13
g287
sI14
g289
sI15
g291
sI16
g293
sI17
g295
sI18
g297
ssI10
(dp469
sI11
(dp470
sI12
(dp471
sI13
(dp472
sI14
(dp473
sI15
(dp474
sI16
(dp475
sI17
(dp476
sI18
(dp477
sI19
(dp478
I20
g301
sI21
g303
ssI20
(dp479
sI21
(dp480
sI22
(dp481
I33
g327
sI29
g319
sI23
g307
ssI23
(dp482
I24
g309
sI25
g311
sI26
g313
sI27
g315
sI28
g317
ssI24
(dp483
sI25
(dp484
sI26
(dp485
sI27
(dp486
sI28
(dp487
sI29
(dp488
I32
g325
sI30
g321
sI31
g323
ssI30
(dp489
sI31
(dp490
sI32
(dp491
sI33
(dp492
I34
g329
sI35
g331
ssI34
(dp493
sI35
(dp494
sI36
(dp495
I52
g368
sI37
g335
sI46
g356
sI53
g370
ssI37
(dp496
I40
g342
sI41
g344
sI42
g347
sI38
g337
sI39
g340
ssI38
(dp497
sI39
(dp498
sI40
(dp499
sI41
(dp500
sI42
(dp501
I43
g349
sI45
g354
ssI43
(dp502
I44
g351
ssI44
(dp503
sI45
(dp504
I44
g352
ssI46
(dp505
I50
g364
sI47
g358
ssI47
(dp506
I48
g360
sI49
g362
ssI48
(dp507
sI49
(dp508
sI50
(dp509
I51
g366
ssI51
(dp510
sI52
(dp511
sI53
(dp512
I41
g345
sI38
g338
ssI54
(dp513
sI55
(dp514
I56
g376
sI91
g453
sI90
g451
sI59
g384
sI87
g445
ssI56
(dp515
I57
g378
sI58
g381
ssI57
(dp516
I73
g412
sI74
g414
sI75
g416
ssI58
(dp517
I76
g418
sI77
g421
sI78
g424
sI79
g426
sI80
g428
sI81
g430
sI82
g433
sI83
g435
sI84
g438
sI85
g440
sI86
g442
ssI59
(dp518
I57
g379
sI58
g382
sI60
g386
ssI60
(dp519
I64
g394
sI65
g396
sI66
g398
sI67
g400
sI68
g402
sI61
g388
sI62
g390
sI63
g392
ssI61
(dp520
sI62
(dp521
sI63
(dp522
sI64
(dp523
sI65
(dp524
sI66
(dp525
sI67
(dp526
sI68
(dp527
I72
g410
sI69
g404
sI70
g406
sI71
g408
ssI69
(dp528
sI70
(dp529
sI71
(dp530
sI72
(dp531
sI73
(dp532
sI74
(dp533
sI75
(dp534
sI76
(dp535
sI77
(dp536
sI78
(dp537
sI79
(dp538
sI80
(dp539
sI81
(dp540
sI82
(dp541
sI83
(dp542
sI84
(dp543
sI85
(dp544
sI86
(dp545
sI87
(dp546
I88
g447
sI89
g449
ssI88
(dp547
sI89
(dp548
sI90
(dp549
I76
g419
sI86
g443
ssI91
(dp550
I81
g431
sI83
g436
sI77
g422
sssbsS'nodes'
p551
(lp552
g61
ag0
(g59
g2
Ntp553
Rp554
(dp555
g63
g78
sg64
g67
sS'id'
p556
I2
sg39
g78
sbag0
(g59
g2
Ntp557
Rp558
(dp559
g63
g80
sg64
g67
sg556
I3
sg39
g80
sbag0
(g59
g2
Ntp560
Rp561
(dp562
g63
g82
sg64
g67
sg556
I4
sg39
g82
sbag0
(g59
g2
Ntp563
Rp564
(dp565
g63
g84
sg64
g67
sg556
I5
sg39
g84
sbag0
(g59
g2
Ntp566
Rp567
(dp568
g63
g86
sg64
g67
sg556
I6
sg39
g86
sbag0
(g59
g2
Ntp569
Rp570
(dp571
g63
g88
sg64
g67
sg556
I7
sg39
g88
sbag0
(g59
g2
Ntp572
Rp573
(dp574
g63
g90
sg64
g67
sg556
I8
sg39
g90
sbag0
(g59
g2
Ntp575
Rp576
(dp577
g63
g92
sg64
g67
sg556
I9
sg39
g92
sbag0
(g59
g2
Ntp578
Rp579
(dp580
g63
g94
sg64
g67
sg556
I10
sg39
g94
sbag0
(g59
g2
Ntp581
Rp582
(dp583
g63
g96
sg64
g67
sg556
I11
sg39
g96
sbag0
(g59
g2
Ntp584
Rp585
(dp586
g63
g98
sg64
g67
sg556
I12
sg39
g98
sbag0
(g59
g2
Ntp587
Rp588
(dp589
g63
g100
sg64
g67
sg556
I13
sg39
g100
sbag0
(g59
g2
Ntp590
Rp591
(dp592
g63
g102
sg64
g67
sg556
I14
sg39
g102
sbag0
(g59
g2
Ntp593
Rp594
(dp595
g63
g104
sg64
g67
sg556
I15
sg39
g104
sbag0
(g59
g2
Ntp596
Rp597
(dp598
g63
g106
sg64
g67
sg556
I16
sg39
g106
sbag0
(g59
g2
Ntp599
Rp600
(dp601
g63
g108
sg64
g67
sg556
I17
sg39
g108
sbag0
(g59
g2
Ntp602
Rp603
(dp604
g63
g110
sg64
g67
sg556
I18
sg39
g110
sbag0
(g59
g2
Ntp605
Rp606
(dp607
g63
g112
sg64
g67
sg556
I19
sg39
g112
sbag0
(g59
g2
Ntp608
Rp609
(dp610
g63
g114
sg64
g67
sg556
I20
sg39
g114
sbag0
(g59
g2
Ntp611
Rp612
(dp613
g63
g116
sg64
g67
sg556
I21
sg39
g116
sbag0
(g59
g2
Ntp614
Rp615
(dp616
g63
g118
sg64
g67
sg556
I22
sg39
g118
sbag0
(g59
g2
Ntp617
Rp618
(dp619
g63
g120
sg64
g67
sg556
I23
sg39
g120
sbag0
(g59
g2
Ntp620
Rp621
(dp622
g63
g122
sg64
g67
sg556
I24
sg39
g122
sbag0
(g59
g2
Ntp623
Rp624
(dp625
g63
g124
sg64
g67
sg556
I25
sg39
g124
sbag0
(g59
g2
Ntp626
Rp627
(dp628
g63
g126
sg64
g67
sg556
I26
sg39
g126
sbag0
(g59
g2
Ntp629
Rp630
(dp631
g63
g128
sg64
g67
sg556
I27
sg39
g128
sbag0
(g59
g2
Ntp632
Rp633
(dp634
g63
g130
sg64
g67
sg556
I28
sg39
g130
sbag0
(g59
g2
Ntp635
Rp636
(dp637
g63
g132
sg64
g67
sg556
I29
sg39
g132
sbag0
(g59
g2
Ntp638
Rp639
(dp640
g63
g134
sg64
g67
sg556
I30
sg39
g134
sbag0
(g59
g2
Ntp641
Rp642
(dp643
g63
g136
sg64
g67
sg556
I31
sg39
g136
sbag0
(g59
g2
Ntp644
Rp645
(dp646
g63
g138
sg64
g67
sg556
I32
sg39
g138
sbag0
(g59
g2
Ntp647
Rp648
(dp649
g63
g140
sg64
g67
sg556
I33
sg39
g140
sbag0
(g59
g2
Ntp650
Rp651
(dp652
g63
g142
sg64
g67
sg556
I34
sg39
g142
sbag0
(g59
g2
Ntp653
Rp654
(dp655
g63
g144
sg64
g67
sg556
I35
sg39
g144
sbag0
(g59
g2
Ntp656
Rp657
(dp658
g63
g146
sg64
g67
sg556
I36
sg39
g146
sbag0
(g59
g2
Ntp659
Rp660
(dp661
g63
g148
sg64
g67
sg556
I37
sg39
g148
sbag0
(g59
g2
Ntp662
Rp663
(dp664
g63
g150
sg64
g67
sg556
I38
sg39
g150
sbag0
(g59
g2
Ntp665
Rp666
(dp667
g63
g152
sg64
g67
sg556
I39
sg39
g152
sbag0
(g59
g2
Ntp668
Rp669
(dp670
g63
g154
sg64
g67
sg556
I40
sg39
g154
sbag0
(g59
g2
Ntp671
Rp672
(dp673
g63
g156
sg64
g67
sg556
I41
sg39
g156
sbag0
(g59
g2
Ntp674
Rp675
(dp676
g63
g158
sg64
g67
sg556
I42
sg39
g158
sbag0
(g59
g2
Ntp677
Rp678
(dp679
g63
g160
sg64
g67
sg556
I43
sg39
g160
sbag0
(g59
g2
Ntp680
Rp681
(dp682
g63
g162
sg64
g67
sg556
I44
sg39
g162
sbag0
(g59
g2
Ntp683
Rp684
(dp685
g63
g164
sg64
g67
sg556
I45
sg39
g164
sbag0
(g59
g2
Ntp686
Rp687
(dp688
g63
g166
sg64
g67
sg556
I46
sg39
g166
sbag0
(g59
g2
Ntp689
Rp690
(dp691
g63
g168
sg64
g67
sg556
I47
sg39
g168
sbag0
(g59
g2
Ntp692
Rp693
(dp694
g63
g170
sg64
g67
sg556
I48
sg39
g170
sbag0
(g59
g2
Ntp695
Rp696
(dp697
g63
g172
sg64
g67
sg556
I49
sg39
g172
sbag0
(g59
g2
Ntp698
Rp699
(dp700
g63
g174
sg64
g67
sg556
I50
sg39
g174
sbag0
(g59
g2
Ntp701
Rp702
(dp703
g63
g176
sg64
g67
sg556
I51
sg39
g176
sbag0
(g59
g2
Ntp704
Rp705
(dp706
g63
g178
sg64
g67
sg556
I52
sg39
g178
sbag0
(g59
g2
Ntp707
Rp708
(dp709
g63
g180
sg64
g67
sg556
I53
sg39
g180
sbag0
(g59
g2
Ntp710
Rp711
(dp712
g63
g182
sg64
g67
sg556
I54
sg39
g182
sbag0
(g59
g2
Ntp713
Rp714
(dp715
g63
g184
sg64
g67
sg556
I55
sg39
g184
sbag0
(g59
g2
Ntp716
Rp717
(dp718
g63
g186
sg64
g67
sg556
I56
sg39
g186
sbag0
(g59
g2
Ntp719
Rp720
(dp721
g63
g188
sg64
g67
sg556
I57
sg39
g188
sbag0
(g59
g2
Ntp722
Rp723
(dp724
g63
g190
sg64
g67
sg556
I58
sg39
g190
sbag0
(g59
g2
Ntp725
Rp726
(dp727
g63
g192
sg64
g67
sg556
I59
sg39
g192
sbag0
(g59
g2
Ntp728
Rp729
(dp730
g63
g194
sg64
g67
sg556
I60
sg39
g194
sbag0
(g59
g2
Ntp731
Rp732
(dp733
g63
g196
sg64
g67
sg556
I61
sg39
g196
sbag0
(g59
g2
Ntp734
Rp735
(dp736
g63
g198
sg64
g67
sg556
I62
sg39
g198
sbag0
(g59
g2
Ntp737
Rp738
(dp739
g63
g200
sg64
g67
sg556
I63
sg39
g200
sbag0
(g59
g2
Ntp740
Rp741
(dp742
g63
g202
sg64
g67
sg556
I64
sg39
g202
sbag0
(g59
g2
Ntp743
Rp744
(dp745
g63
g204
sg64
g67
sg556
I65
sg39
g204
sbag0
(g59
g2
Ntp746
Rp747
(dp748
g63
g206
sg64
g67
sg556
I66
sg39
g206
sbag0
(g59
g2
Ntp749
Rp750
(dp751
g63
g208
sg64
g67
sg556
I67
sg39
g208
sbag0
(g59
g2
Ntp752
Rp753
(dp754
g63
g210
sg64
g67
sg556
I68
sg39
g210
sbag0
(g59
g2
Ntp755
Rp756
(dp757
g63
g212
sg64
g67
sg556
I69
sg39
g212
sbag0
(g59
g2
Ntp758
Rp759
(dp760
g63
g214
sg64
g67
sg556
I70
sg39
g214
sbag0
(g59
g2
Ntp761
Rp762
(dp763
g63
g216
sg64
g67
sg556
I71
sg39
g216
sbag0
(g59
g2
Ntp764
Rp765
(dp766
g63
g218
sg64
g67
sg556
I72
sg39
g218
sbag0
(g59
g2
Ntp767
Rp768
(dp769
g63
g220
sg64
g67
sg556
I73
sg39
g220
sbag0
(g59
g2
Ntp770
Rp771
(dp772
g63
g222
sg64
g67
sg556
I74
sg39
g222
sbag0
(g59
g2
Ntp773
Rp774
(dp775
g63
g224
sg64
g67
sg556
I75
sg39
g224
sbag0
(g59
g2
Ntp776
Rp777
(dp778
g63
g226
sg64
g67
sg556
I76
sg39
g226
sbag0
(g59
g2
Ntp779
Rp780
(dp781
g63
g228
sg64
g67
sg556
I77
sg39
g228
sbag0
(g59
g2
Ntp782
Rp783
(dp784
g63
g230
sg64
g67
sg556
I78
sg39
g230
sbag0
(g59
g2
Ntp785
Rp786
(dp787
g63
g232
sg64
g67
sg556
I79
sg39
g232
sbag0
(g59
g2
Ntp788
Rp789
(dp790
g63
g234
sg64
g67
sg556
I80
sg39
g234
sbag0
(g59
g2
Ntp791
Rp792
(dp793
g63
g236
sg64
g67
sg556
I81
sg39
g236
sbag0
(g59
g2
Ntp794
Rp795
(dp796
g63
g238
sg64
g67
sg556
I82
sg39
g238
sbag0
(g59
g2
Ntp797
Rp798
(dp799
g63
g240
sg64
g67
sg556
I83
sg39
g240
sbag0
(g59
g2
Ntp800
Rp801
(dp802
g63
g242
sg64
g67
sg556
I84
sg39
g242
sbag0
(g59
g2
Ntp803
Rp804
(dp805
g63
g244
sg64
g67
sg556
I85
sg39
g244
sbag0
(g59
g2
Ntp806
Rp807
(dp808
g63
g246
sg64
g67
sg556
I86
sg39
g246
sbag0
(g59
g2
Ntp809
Rp810
(dp811
g63
g248
sg64
g67
sg556
I87
sg39
g248
sbag0
(g59
g2
Ntp812
Rp813
(dp814
g63
g250
sg64
g67
sg556
I88
sg39
g250
sbag0
(g59
g2
Ntp815
Rp816
(dp817
g63
g252
sg64
g67
sg556
I89
sg39
g252
sbag0
(g59
g2
Ntp818
Rp819
(dp820
g63
g254
sg64
g67
sg556
I90
sg39
g254
sbag0
(g59
g2
Ntp821
Rp822
(dp823
g63
g256
sg64
g67
sg556
I91
sg39
g256
sbasS'edges'
p824
(lp825
g0
(cconcept
SEM_REL
p826
g2
Ntp827
Rp828
(dp829
S'pTo'
p830
g554
sg266
g267
sS'pFrom'
p831
g558
sbag0
(g826
g2
Ntp832
Rp833
(dp834
g830
g558
sg266
g267
sg831
g561
sbag0
(g826
g2
Ntp835
Rp836
(dp837
g830
g561
sg266
g267
sg831
g564
sbag0
(g826
g2
Ntp838
Rp839
(dp840
g830
g561
sg266
g267
sg831
g567
sbag0
(g826
g2
Ntp841
Rp842
(dp843
g830
g558
sg266
g267
sg831
g570
sbag0
(g826
g2
Ntp844
Rp845
(dp846
g830
g570
sg266
g267
sg831
g573
sbag0
(g826
g2
Ntp847
Rp848
(dp849
g830
g558
sg266
g267
sg831
g576
sbag0
(g826
g2
Ntp850
Rp851
(dp852
g830
g576
sg266
g267
sg831
g579
sbag0
(g826
g2
Ntp853
Rp854
(dp855
g830
g576
sg266
g267
sg831
g582
sbag0
(g826
g2
Ntp856
Rp857
(dp858
g830
g576
sg266
g267
sg831
g585
sbag0
(g826
g2
Ntp859
Rp860
(dp861
g830
g576
sg266
g267
sg831
g588
sbag0
(g826
g2
Ntp862
Rp863
(dp864
g830
g576
sg266
g267
sg831
g591
sbag0
(g826
g2
Ntp865
Rp866
(dp867
g830
g576
sg266
g267
sg831
g594
sbag0
(g826
g2
Ntp868
Rp869
(dp870
g830
g576
sg266
g267
sg831
g597
sbag0
(g826
g2
Ntp871
Rp872
(dp873
g830
g576
sg266
g267
sg831
g600
sbag0
(g826
g2
Ntp874
Rp875
(dp876
g830
g576
sg266
g267
sg831
g603
sbag0
(g826
g2
Ntp877
Rp878
(dp879
g830
g558
sg266
g267
sg831
g606
sbag0
(g826
g2
Ntp880
Rp881
(dp882
g830
g606
sg266
g267
sg831
g609
sbag0
(g826
g2
Ntp883
Rp884
(dp885
g830
g606
sg266
g267
sg831
g612
sbag0
(g826
g2
Ntp886
Rp887
(dp888
g830
g554
sg266
g267
sg831
g615
sbag0
(g826
g2
Ntp889
Rp890
(dp891
g830
g615
sg266
g267
sg831
g618
sbag0
(g826
g2
Ntp892
Rp893
(dp894
g830
g618
sg266
g267
sg831
g621
sbag0
(g826
g2
Ntp895
Rp896
(dp897
g830
g618
sg266
g267
sg831
g624
sbag0
(g826
g2
Ntp898
Rp899
(dp900
g830
g618
sg266
g267
sg831
g627
sbag0
(g826
g2
Ntp901
Rp902
(dp903
g830
g618
sg266
g267
sg831
g630
sbag0
(g826
g2
Ntp904
Rp905
(dp906
g830
g618
sg266
g267
sg831
g633
sbag0
(g826
g2
Ntp907
Rp908
(dp909
g830
g615
sg266
g267
sg831
g636
sbag0
(g826
g2
Ntp910
Rp911
(dp912
g830
g636
sg266
g267
sg831
g639
sbag0
(g826
g2
Ntp913
Rp914
(dp915
g830
g636
sg266
g267
sg831
g642
sbag0
(g826
g2
Ntp916
Rp917
(dp918
g830
g636
sg266
g267
sg831
g645
sbag0
(g826
g2
Ntp919
Rp920
(dp921
g830
g615
sg266
g267
sg831
g648
sbag0
(g826
g2
Ntp922
Rp923
(dp924
g830
g648
sg266
g267
sg831
g651
sbag0
(g826
g2
Ntp925
Rp926
(dp927
g830
g648
sg266
g267
sg831
g654
sbag0
(g826
g2
Ntp928
Rp929
(dp930
g830
g554
sg266
g267
sg831
g657
sbag0
(g826
g2
Ntp931
Rp932
(dp933
g830
g657
sg266
g267
sg831
g660
sbag0
(g826
g2
Ntp934
Rp935
(dp936
g830
g660
sg266
g267
sg831
g663
sbag0
(g826
g2
Ntp937
Rp938
(dp939
g830
g660
sg266
g267
sg831
g666
sbag0
(g826
g2
Ntp940
Rp941
(dp942
g830
g660
sg266
g267
sg831
g669
sbag0
(g826
g2
Ntp943
Rp944
(dp945
g830
g660
sg266
g267
sg831
g672
sbag0
(g826
g2
Ntp946
Rp947
(dp948
g830
g660
sg266
g267
sg831
g675
sbag0
(g826
g2
Ntp949
Rp950
(dp951
g830
g675
sg266
g267
sg831
g678
sbag0
(g826
g2
Ntp952
Rp953
(dp954
g830
g678
sg266
g267
sg831
g681
sbag0
(g826
g2
Ntp955
Rp956
(dp957
g830
g675
sg266
g267
sg831
g684
sbag0
(g826
g2
Ntp958
Rp959
(dp960
g830
g684
sg266
g267
sg831
g681
sbag0
(g826
g2
Ntp961
Rp962
(dp963
g830
g657
sg266
g267
sg831
g687
sbag0
(g826
g2
Ntp964
Rp965
(dp966
g830
g687
sg266
g267
sg831
g690
sbag0
(g826
g2
Ntp967
Rp968
(dp969
g830
g690
sg266
g267
sg831
g693
sbag0
(g826
g2
Ntp970
Rp971
(dp972
g830
g690
sg266
g267
sg831
g696
sbag0
(g826
g2
Ntp973
Rp974
(dp975
g830
g687
sg266
g267
sg831
g699
sbag0
(g826
g2
Ntp976
Rp977
(dp978
g830
g699
sg266
g267
sg831
g702
sbag0
(g826
g2
Ntp979
Rp980
(dp981
g830
g657
sg266
g267
sg831
g705
sbag0
(g826
g2
Ntp982
Rp983
(dp984
g830
g657
sg266
g267
sg831
g708
sbag0
(g826
g2
Ntp985
Rp986
(dp987
g830
g708
sg266
g267
sg831
g663
sbag0
(g826
g2
Ntp988
Rp989
(dp990
g830
g708
sg266
g267
sg831
g672
sbag0
(g826
g2
Ntp991
Rp992
(dp993
g830
g554
sg266
g267
sg831
g711
sbag0
(g826
g2
Ntp994
Rp995
(dp996
g830
g554
sg266
g267
sg831
g714
sbag0
(g826
g2
Ntp997
Rp998
(dp999
g830
g714
sg266
g267
sg831
g717
sbag0
(g826
g2
Ntp1000
Rp1001
(dp1002
g830
g717
sg266
g267
sg831
g720
sbag0
(g826
g2
Ntp1003
Rp1004
(dp1005
g830
g717
sg266
g267
sg831
g723
sbag0
(g826
g2
Ntp1006
Rp1007
(dp1008
g830
g714
sg266
g267
sg831
g726
sbag0
(g826
g2
Ntp1009
Rp1010
(dp1011
g830
g726
sg266
g267
sg831
g729
sbag0
(g826
g2
Ntp1012
Rp1013
(dp1014
g830
g729
sg266
g267
sg831
g732
sbag0
(g826
g2
Ntp1015
Rp1016
(dp1017
g830
g729
sg266
g267
sg831
g735
sbag0
(g826
g2
Ntp1018
Rp1019
(dp1020
g830
g729
sg266
g267
sg831
g738
sbag0
(g826
g2
Ntp1021
Rp1022
(dp1023
g830
g729
sg266
g267
sg831
g741
sbag0
(g826
g2
Ntp1024
Rp1025
(dp1026
g830
g729
sg266
g267
sg831
g744
sbag0
(g826
g2
Ntp1027
Rp1028
(dp1029
g830
g729
sg266
g267
sg831
g747
sbag0
(g826
g2
Ntp1030
Rp1031
(dp1032
g830
g729
sg266
g267
sg831
g750
sbag0
(g826
g2
Ntp1033
Rp1034
(dp1035
g830
g729
sg266
g267
sg831
g753
sbag0
(g826
g2
Ntp1036
Rp1037
(dp1038
g830
g753
sg266
g267
sg831
g756
sbag0
(g826
g2
Ntp1039
Rp1040
(dp1041
g830
g753
sg266
g267
sg831
g759
sbag0
(g826
g2
Ntp1042
Rp1043
(dp1044
g830
g753
sg266
g267
sg831
g762
sbag0
(g826
g2
Ntp1045
Rp1046
(dp1047
g830
g753
sg266
g267
sg831
g765
sbag0
(g826
g2
Ntp1048
Rp1049
(dp1050
g830
g726
sg266
g267
sg831
g720
sbag0
(g826
g2
Ntp1051
Rp1052
(dp1053
g830
g720
sg266
g267
sg831
g768
sbag0
(g826
g2
Ntp1054
Rp1055
(dp1056
g830
g720
sg266
g267
sg831
g771
sbag0
(g826
g2
Ntp1057
Rp1058
(dp1059
g830
g720
sg266
g267
sg831
g774
sbag0
(g826
g2
Ntp1060
Rp1061
(dp1062
g830
g726
sg266
g267
sg831
g723
sbag0
(g826
g2
Ntp1063
Rp1064
(dp1065
g830
g723
sg266
g267
sg831
g777
sbag0
(g826
g2
Ntp1066
Rp1067
(dp1068
g830
g723
sg266
g267
sg831
g780
sbag0
(g826
g2
Ntp1069
Rp1070
(dp1071
g830
g723
sg266
g267
sg831
g783
sbag0
(g826
g2
Ntp1072
Rp1073
(dp1074
g830
g723
sg266
g267
sg831
g786
sbag0
(g826
g2
Ntp1075
Rp1076
(dp1077
g830
g723
sg266
g267
sg831
g789
sbag0
(g826
g2
Ntp1078
Rp1079
(dp1080
g830
g723
sg266
g267
sg831
g792
sbag0
(g826
g2
Ntp1081
Rp1082
(dp1083
g830
g723
sg266
g267
sg831
g795
sbag0
(g826
g2
Ntp1084
Rp1085
(dp1086
g830
g723
sg266
g267
sg831
g798
sbag0
(g826
g2
Ntp1087
Rp1088
(dp1089
g830
g723
sg266
g267
sg831
g801
sbag0
(g826
g2
Ntp1090
Rp1091
(dp1092
g830
g723
sg266
g267
sg831
g804
sbag0
(g826
g2
Ntp1093
Rp1094
(dp1095
g830
g723
sg266
g267
sg831
g807
sbag0
(g826
g2
Ntp1096
Rp1097
(dp1098
g830
g714
sg266
g267
sg831
g810
sbag0
(g826
g2
Ntp1099
Rp1100
(dp1101
g830
g810
sg266
g267
sg831
g813
sbag0
(g826
g2
Ntp1102
Rp1103
(dp1104
g830
g810
sg266
g267
sg831
g816
sbag0
(g826
g2
Ntp1105
Rp1106
(dp1107
g830
g714
sg266
g267
sg831
g819
sbag0
(g826
g2
Ntp1108
Rp1109
(dp1110
g830
g819
sg266
g267
sg831
g777
sbag0
(g826
g2
Ntp1111
Rp1112
(dp1113
g830
g819
sg266
g267
sg831
g807
sbag0
(g826
g2
Ntp1114
Rp1115
(dp1116
g830
g714
sg266
g267
sg831
g822
sbag0
(g826
g2
Ntp1117
Rp1118
(dp1119
g830
g822
sg266
g267
sg831
g792
sbag0
(g826
g2
Ntp1120
Rp1121
(dp1122
g830
g822
sg266
g267
sg831
g798
sbag0
(g826
g2
Ntp1123
Rp1124
(dp1125
g830
g822
sg266
g267
sg831
g780
sbasS'neutral'
p1126
g61
sbsg556
I1
sg39
g55
sbssS'model'
p1127
Nsg556
I9
sS'LTM'
p1128
g35
sS'init_act'
p1129
F1.0
sbag0
(clanguage_schemas
CPT_ACTION_SCHEMA
p1130
g2
Ntp1131
Rp1132
(dp1133
g39
g80
sg56
(dp1134
g58
g558
ssg1127
Nsg556
I10
sg1128
g35
sg1129
F1.0
sbag0
(g1130
g2
Ntp1135
Rp1136
(dp1137
g39
g82
sg56
(dp1138
g58
g561
ssg1127
Nsg556
I11
sg1128
g35
sg1129
F1.0
sbag0
(g1130
g2
Ntp1139
Rp1140
(dp1141
g39
g84
sg56
(dp1142
g58
g564
ssg1127
Nsg556
I12
sg1128
g35
sg1129
F1.0
sbag0
(g1130
g2
Ntp1143
Rp1144
(dp1145
g39
g86
sg56
(dp1146
g58
g567
ssg1127
Nsg556
I13
sg1128
g35
sg1129
F1.0
sbag0
(g1130
g2
Ntp1147
Rp1148
(dp1149
g39
g88
sg56
(dp1150
g58
g570
ssg1127
Nsg556
I14
sg1128
g35
sg1129
F1.0
sbag0
(g1130
g2
Ntp1151
Rp1152
(dp1153
g39
g90
sg56
(dp1154
g58
g573
ssg1127
Nsg556
I15
sg1128
g35
sg1129
F1.0
sbag0
(g1130
g2
Ntp1155
Rp1156
(dp1157
g39
g92
sg56
(dp1158
g58
g576
ssg1127
Nsg556
I16
sg1128
g35
sg1129
F1.0
sbag0
(g1130
g2
Ntp1159
Rp1160
(dp1161
g39
g94
sg56
(dp1162
g58
g579
ssg1127
Nsg556
I17
sg1128
g35
sg1129
F1.0
sbag0
(g1130
g2
Ntp1163
Rp1164
(dp1165
g39
g96
sg56
(dp1166
g58
g582
ssg1127
Nsg556
I18
sg1128
g35
sg1129
F1.0
sbag0
(g1130
g2
Ntp1167
Rp1168
(dp1169
g39
g98
sg56
(dp1170
g58
g585
ssg1127
Nsg556
I19
sg1128
g35
sg1129
F1.0
sbag0
(g1130
g2
Ntp1171
Rp1172
(dp1173
g39
g100
sg56
(dp1174
g58
g588
ssg1127
Nsg556
I20
sg1128
g35
sg1129
F1.0
sbag0
(g1130
g2
Ntp1175
Rp1176
(dp1177
g39
g102
sg56
(dp1178
g58
g591
ssg1127
Nsg556
I21
sg1128
g35
sg1129
F1.0
sbag0
(g1130
g2
Ntp1179
Rp1180
(dp1181
g39
g104
sg56
(dp1182
g58
g594
ssg1127
Nsg556
I22
sg1128
g35
sg1129
F1.0
sbag0
(g1130
g2
Ntp1183
Rp1184
(dp1185
g39
g106
sg56
(dp1186
g58
g597
ssg1127
Nsg556
I23
sg1128
g35
sg1129
F1.0
sbag0
(g1130
g2
Ntp1187
Rp1188
(dp1189
g39
g108
sg56
(dp1190
g58
g600
ssg1127
Nsg556
I24
sg1128
g35
sg1129
F1.0
sbag0
(g1130
g2
Ntp1191
Rp1192
(dp1193
g39
g110
sg56
(dp1194
g58
g603
ssg1127
Nsg556
I25
sg1128
g35
sg1129
F1.0
sbag0
(g1130
g2
Ntp1195
Rp1196
(dp1197
g39
g112
sg56
(dp1198
g58
g606
ssg1127
Nsg556
I26
sg1128
g35
sg1129
F1.0
sbag0
(g1130
g2
Ntp1199
Rp1200
(dp1201
g39
g114
sg56
(dp1202
g58
g609
ssg1127
Nsg556
I27
sg1128
g35
sg1129
F1.0
sbag0
(g1130
g2
Ntp1203
Rp1204
(dp1205
g39
g116
sg56
(dp1206
g58
g612
ssg1127
Nsg556
I28
sg1128
g35
sg1129
F1.0
sbag0
(clanguage_schemas
CPT_PROPERTY_SCHEMA
p1207
g2
Ntp1208
Rp1209
(dp1210
g39
g118
sg56
(dp1211
g58
g615
ssg1127
Nsg556
I29
sg1128
g35
sg1129
F1.0
sbag0
(g1207
g2
Ntp1212
Rp1213
(dp1214
g39
g120
sg56
(dp1215
g58
g618
ssg1127
Nsg556
I30
sg1128
g35
sg1129
F1.0
sbag0
(g1207
g2
Ntp1216
Rp1217
(dp1218
g39
g122
sg56
(dp1219
g58
g621
ssg1127
Nsg556
I31
sg1128
g35
sg1129
F1.0
sbag0
(g1207
g2
Ntp1220
Rp1221
(dp1222
g39
g124
sg56
(dp1223
g58
g624
ssg1127
Nsg556
I32
sg1128
g35
sg1129
F1.0
sbag0
(g1207
g2
Ntp1224
Rp1225
(dp1226
g39
g126
sg56
(dp1227
g58
g627
ssg1127
Nsg556
I33
sg1128
g35
sg1129
F1.0
sbag0
(g1207
g2
Ntp1228
Rp1229
(dp1230
g39
g128
sg56
(dp1231
g58
g630
ssg1127
Nsg556
I34
sg1128
g35
sg1129
F1.0
sbag0
(g1207
g2
Ntp1232
Rp1233
(dp1234
g39
g130
sg56
(dp1235
g58
g633
ssg1127
Nsg556
I35
sg1128
g35
sg1129
F1.0
sbag0
(g1207
g2
Ntp1236
Rp1237
(dp1238
g39
g132
sg56
(dp1239
g58
g636
ssg1127
Nsg556
I36
sg1128
g35
sg1129
F1.0
sbag0
(g1207
g2
Ntp1240
Rp1241
(dp1242
g39
g134
sg56
(dp1243
g58
g639
ssg1127
Nsg556
I37
sg1128
g35
sg1129
F1.0
sbag0
(g1207
g2
Ntp1244
Rp1245
(dp1246
g39
g136
sg56
(dp1247
g58
g642
ssg1127
Nsg556
I38
sg1128
g35
sg1129
F1.0
sbag0
(g1207
g2
Ntp1248
Rp1249
(dp1250
g39
g138
sg56
(dp1251
g58
g645
ssg1127
Nsg556
I39
sg1128
g35
sg1129
F1.0
sbag0
(g1207
g2
Ntp1252
Rp1253
(dp1254
g39
g140
sg56
(dp1255
g58
g648
ssg1127
Nsg556
I40
sg1128
g35
sg1129
F1.0
sbag0
(g1207
g2
Ntp1256
Rp1257
(dp1258
g39
g142
sg56
(dp1259
g58
g651
ssg1127
Nsg556
I41
sg1128
g35
sg1129
F1.0
sbag0
(g1207
g2
Ntp1260
Rp1261
(dp1262
g39
g144
sg56
(dp1263
g58
g654
ssg1127
Nsg556
I42
sg1128
g35
sg1129
F1.0
sbag0
(clanguage_schemas
CPT_RELATION_SCHEMA
p1264
g2
Ntp1265
Rp1266
(dp1267
g39
g146
sg56
(dp1268
g830
Nsg58
g657
sg831
Nssg1127
Nsg556
I43
sg1128
g35
sg1129
F1.0
sbag0
(g1264
g2
Ntp1269
Rp1270
(dp1271
g39
g148
sg56
(dp1272
g830
Nsg58
g660
sg831
Nssg1127
Nsg556
I44
sg1128
g35
sg1129
F1.0
sbag0
(g1264
g2
Ntp1273
Rp1274
(dp1275
g39
g150
sg56
(dp1276
g830
Nsg58
g663
sg831
Nssg1127
Nsg556
I45
sg1128
g35
sg1129
F1.0
sbag0
(g1264
g2
Ntp1277
Rp1278
(dp1279
g39
g152
sg56
(dp1280
g830
Nsg58
g666
sg831
Nssg1127
Nsg556
I46
sg1128
g35
sg1129
F1.0
sbag0
(g1264
g2
Ntp1281
Rp1282
(dp1283
g39
g154
sg56
(dp1284
g830
Nsg58
g669
sg831
Nssg1127
Nsg556
I47
sg1128
g35
sg1129
F1.0
sbag0
(g1264
g2
Ntp1285
Rp1286
(dp1287
g39
g156
sg56
(dp1288
g830
Nsg58
g672
sg831
Nssg1127
Nsg556
I48
sg1128
g35
sg1129
F1.0
sbag0
(g1264
g2
Ntp1289
Rp1290
(dp1291
g39
g158
sg56
(dp1292
g830
Nsg58
g675
sg831
Nssg1127
Nsg556
I49
sg1128
g35
sg1129
F1.0
sbag0
(g1264
g2
Ntp1293
Rp1294
(dp1295
g39
g160
sg56
(dp1296
g830
Nsg58
g678
sg831
Nssg1127
Nsg556
I50
sg1128
g35
sg1129
F1.0
sbag0
(g1264
g2
Ntp1297
Rp1298
(dp1299
g39
g162
sg56
(dp1300
g830
Nsg58
g681
sg831
Nssg1127
Nsg556
I51
sg1128
g35
sg1129
F1.0
sbag0
(g1264
g2
Ntp1301
Rp1302
(dp1303
g39
g164
sg56
(dp1304
g830
Nsg58
g684
sg831
Nssg1127
Nsg556
I52
sg1128
g35
sg1129
F1.0
sbag0
(g1264
g2
Ntp1305
Rp1306
(dp1307
g39
g166
sg56
(dp1308
g830
Nsg58
g687
sg831
Nssg1127
Nsg556
I53
sg1128
g35
sg1129
F1.0
sbag0
(g1264
g2
Ntp1309
Rp1310
(dp1311
g39
g168
sg56
(dp1312
g830
Nsg58
g690
sg831
Nssg1127
Nsg556
I54
sg1128
g35
sg1129
F1.0
sbag0
(g1264
g2
Ntp1313
Rp1314
(dp1315
g39
g170
sg56
(dp1316
g830
Nsg58
g693
sg831
Nssg1127
Nsg556
I55
sg1128
g35
sg1129
F1.0
sbag0
(g1264
g2
Ntp1317
Rp1318
(dp1319
g39
g172
sg56
(dp1320
g830
Nsg58
g696
sg831
Nssg1127
Nsg556
I56
sg1128
g35
sg1129
F1.0
sbag0
(g1264
g2
Ntp1321
Rp1322
(dp1323
g39
g174
sg56
(dp1324
g830
Nsg58
g699
sg831
Nssg1127
Nsg556
I57
sg1128
g35
sg1129
F1.0
sbag0
(g1264
g2
Ntp1325
Rp1326
(dp1327
g39
g176
sg56
(dp1328
g830
Nsg58
g702
sg831
Nssg1127
Nsg556
I58
sg1128
g35
sg1129
F1.0
sbag0
(g1264
g2
Ntp1329
Rp1330
(dp1331
g39
g178
sg56
(dp1332
g830
Nsg58
g705
sg831
Nssg1127
Nsg556
I59
sg1128
g35
sg1129
F1.0
sbag0
(g1264
g2
Ntp1333
Rp1334
(dp1335
g39
g180
sg56
(dp1336
g830
Nsg58
g708
sg831
Nssg1127
Nsg556
I60
sg1128
g35
sg1129
F1.0
sbag0
(g51
g2
Ntp1337
Rp1338
(dp1339
g39
g182
sg56
(dp1340
g58
g711
ssg1127
Nsg556
I61
sg1128
g35
sg1129
F1.0
sbag0
(clanguage_schemas
CPT_ENTITY_SCHEMA
p1341
g2
Ntp1342
Rp1343
(dp1344
g39
g184
sg56
(dp1345
g58
g714
ssg1127
Nsg556
I62
sg1128
g35
sg1129
F1.0
sbag0
(g1341
g2
Ntp1346
Rp1347
(dp1348
g39
g186
sg56
(dp1349
g58
g717
ssg1127
Nsg556
I63
sg1128
g35
sg1129
F1.0
sbag0
(g1341
g2
Ntp1350
Rp1351
(dp1352
g39
g188
sg56
(dp1353
g58
g720
ssg1127
Nsg556
I64
sg1128
g35
sg1129
F1.0
sbag0
(g1341
g2
Ntp1354
Rp1355
(dp1356
g39
g190
sg56
(dp1357
g58
g723
ssg1127
Nsg556
I65
sg1128
g35
sg1129
F1.0
sbag0
(g1341
g2
Ntp1358
Rp1359
(dp1360
g39
g192
sg56
(dp1361
g58
g726
ssg1127
Nsg556
I66
sg1128
g35
sg1129
F1.0
sbag0
(g1341
g2
Ntp1362
Rp1363
(dp1364
g39
g194
sg56
(dp1365
g58
g729
ssg1127
Nsg556
I67
sg1128
g35
sg1129
F1.0
sbag0
(g1341
g2
Ntp1366
Rp1367
(dp1368
g39
g196
sg56
(dp1369
g58
g732
ssg1127
Nsg556
I68
sg1128
g35
sg1129
F1.0
sbag0
(g1341
g2
Ntp1370
Rp1371
(dp1372
g39
g198
sg56
(dp1373
g58
g735
ssg1127
Nsg556
I69
sg1128
g35
sg1129
F1.0
sbag0
(g1341
g2
Ntp1374
Rp1375
(dp1376
g39
g200
sg56
(dp1377
g58
g738
ssg1127
Nsg556
I70
sg1128
g35
sg1129
F1.0
sbag0
(g1341
g2
Ntp1378
Rp1379
(dp1380
g39
g202
sg56
(dp1381
g58
g741
ssg1127
Nsg556
I71
sg1128
g35
sg1129
F1.0
sbag0
(g1341
g2
Ntp1382
Rp1383
(dp1384
g39
g204
sg56
(dp1385
g58
g744
ssg1127
Nsg556
I72
sg1128
g35
sg1129
F1.0
sbag0
(g1341
g2
Ntp1386
Rp1387
(dp1388
g39
g206
sg56
(dp1389
g58
g747
ssg1127
Nsg556
I73
sg1128
g35
sg1129
F1.0
sbag0
(g1341
g2
Ntp1390
Rp1391
(dp1392
g39
g208
sg56
(dp1393
g58
g750
ssg1127
Nsg556
I74
sg1128
g35
sg1129
F1.0
sbag0
(g1341
g2
Ntp1394
Rp1395
(dp1396
g39
g210
sg56
(dp1397
g58
g753
ssg1127
Nsg556
I75
sg1128
g35
sg1129
F1.0
sbag0
(g1341
g2
Ntp1398
Rp1399
(dp1400
g39
g212
sg56
(dp1401
g58
g756
ssg1127
Nsg556
I76
sg1128
g35
sg1129
F1.0
sbag0
(g1341
g2
Ntp1402
Rp1403
(dp1404
g39
g214
sg56
(dp1405
g58
g759
ssg1127
Nsg556
I77
sg1128
g35
sg1129
F1.0
sbag0
(g1341
g2
Ntp1406
Rp1407
(dp1408
g39
g216
sg56
(dp1409
g58
g762
ssg1127
Nsg556
I78
sg1128
g35
sg1129
F1.0
sbag0
(g1341
g2
Ntp1410
Rp1411
(dp1412
g39
g218
sg56
(dp1413
g58
g765
ssg1127
Nsg556
I79
sg1128
g35
sg1129
F1.0
sbag0
(g1341
g2
Ntp1414
Rp1415
(dp1416
g39
g220
sg56
(dp1417
g58
g768
ssg1127
Nsg556
I80
sg1128
g35
sg1129
F1.0
sbag0
(g1341
g2
Ntp1418
Rp1419
(dp1420
g39
g222
sg56
(dp1421
g58
g771
ssg1127
Nsg556
I81
sg1128
g35
sg1129
F1.0
sbag0
(g1341
g2
Ntp1422
Rp1423
(dp1424
g39
g224
sg56
(dp1425
g58
g774
ssg1127
Nsg556
I82
sg1128
g35
sg1129
F1.0
sbag0
(g1341
g2
Ntp1426
Rp1427
(dp1428
g39
g226
sg56
(dp1429
g58
g777
ssg1127
Nsg556
I83
sg1128
g35
sg1129
F1.0
sbag0
(g1341
g2
Ntp1430
Rp1431
(dp1432
g39
g228
sg56
(dp1433
g58
g780
ssg1127
Nsg556
I84
sg1128
g35
sg1129
F1.0
sbag0
(g1341
g2
Ntp1434
Rp1435
(dp1436
g39
g230
sg56
(dp1437
g58
g783
ssg1127
Nsg556
I85
sg1128
g35
sg1129
F1.0
sbag0
(g1341
g2
Ntp1438
Rp1439
(dp1440
g39
g232
sg56
(dp1441
g58
g786
ssg1127
Nsg556
I86
sg1128
g35
sg1129
F1.0
sbag0
(g1341
g2
Ntp1442
Rp1443
(dp1444
g39
g234
sg56
(dp1445
g58
g789
ssg1127
Nsg556
I87
sg1128
g35
sg1129
F1.0
sbag0
(g1341
g2
Ntp1446
Rp1447
(dp1448
g39
g236
sg56
(dp1449
g58
g792
ssg1127
Nsg556
I88
sg1128
g35
sg1129
F1.0
sbag0
(g1341
g2
Ntp1450
Rp1451
(dp1452
g39
g238
sg56
(dp1453
g58
g795
ssg1127
Nsg556
I89
sg1128
g35
sg1129
F1.0
sbag0
(g1341
g2
Ntp1454
Rp1455
(dp1456
g39
g240
sg56
(dp1457
g58
g798
ssg1127
Nsg556
I90
sg1128
g35
sg1129
F1.0
sbag0
(g1341
g2
Ntp1458
Rp1459
(dp1460
g39
g242
sg56
(dp1461
g58
g801
ssg1127
Nsg556
I91
sg1128
g35
sg1129
F1.0
sbag0
(g1341
g2
Ntp1462
Rp1463
(dp1464
g39
g244
sg56
(dp1465
g58
g804
ssg1127
Nsg556
I92
sg1128
g35
sg1129
F1.0
sbag0
(g1341
g2
Ntp1466
Rp1467
(dp1468
g39
g246
sg56
(dp1469
g58
g807
ssg1127
Nsg556
I93
sg1128
g35
sg1129
F1.0
sbag0
(g1341
g2
Ntp1470
Rp1471
(dp1472
g39
g248
sg56
(dp1473
g58
g810
ssg1127
Nsg556
I94
sg1128
g35
sg1129
F1.0
sbag0
(g1341
g2
Ntp1474
Rp1475
(dp1476
g39
g250
sg56
(dp1477
g58
g813
ssg1127
Nsg556
I95
sg1128
g35
sg1129
F1.0
sbag0
(g1341
g2
Ntp1478
Rp1479
(dp1480
g39
g252
sg56
(dp1481
g58
g816
ssg1127
Nsg556
I96
sg1128
g35
sg1129
F1.0
sbag0
(g1341
g2
Ntp1482
Rp1483
(dp1484
g39
g254
sg56
(dp1485
g58
g819
ssg1127
Nsg556
I97
sg1128
g35
sg1129
F1.0
sbag0
(g1341
g2
Ntp1486
Rp1487
(dp1488
g39
g256
sg56
(dp1489
g58
g822
ssg1127
Nsg556
I98
sg1128
g35
sg1129
F1.0
sbasg266
S'OUT'
p1490
sg556
I11
sS'schema'
p1491
g35
sbag0
(g43
g2
Ntp1492
Rp1493
(dp1494
g39
S'to_semantic_WM'
p1495
sg48
Nsg49
g50
sg266
g1490
sg556
I12
sg1491
g35
sbasS'outputs'
p1496
(dp1497
g47
Nsg1495
NssS'connections'
p1498
(lp1499
sS'cpt_knowledge'
p1500
g67
sS'dt'
p1501
F1.0
sS'in_ports'
p1502
(lp1503
sS'params'
p1504
(dp1505
g1129
F1.0
ssS't'
p1506
I0
sS'activity'
p1507
I0
sg1127
g0
(cschema_theory
MODEL
p1508
g2
Ntp1509
Rp1510
(dp1511
S'verbose'
p1512
I00
sg39
S'language_system_P'
p1513
sS'sim_data'
p1514
(dp1515
S'system_states'
p1516
(dp1517
sg1127
(dp1518
ssg1496
(dp1519
sS'input_ports'
p1520
(lp1521
g0
(g43
g2
Ntp1522
Rp1523
(dp1524
g39
S'from_conceptualizer'
p1525
sg48
Nsg49
Nsg266
S'IN'
p1526
sg556
I1
sg1491
g0
(clanguage_schemas
SEMANTIC_WM
p1527
g2
Ntp1528
Rp1529
(dp1530
g37
(dp1531
S'from_grammatical_WM_P'
p1532
NsS'from_concept_LTM'
p1533
NsS'from_control'
p1534
NsS'from_grammatical_WM_C'
p1535
Nsg1525
NssS'schema_insts'
p1536
(lp1537
sg39
S'Semantic_WM'
p1538
sS'comp_links'
p1539
(lp1540
sg41
(lp1541
g0
(g43
g2
Ntp1542
Rp1543
(dp1544
S'port_data'
p1545
Nsg39
S'to_grammatical_WM_P'
p1546
sg48
Nsg49
NsS'port_value'
p1547
Nsg266
g1490
sg556
I6
sg1491
g1529
sbag0
(g43
g2
Ntp1548
Rp1549
(dp1550
g1545
Nsg39
S'to_cxn_retrieval_P'
p1551
sg48
Nsg49
Nsg1547
Nsg266
g1490
sg556
I7
sg1491
g1529
sbag0
(g43
g2
Ntp1552
Rp1553
(dp1554
g1545
Nsg39
S'to_control'
p1555
sg48
Nsg49
Nsg1547
Nsg266
g1490
sg556
I8
sg1491
g1529
sbag0
(g43
g2
Ntp1556
Rp1557
(dp1558
g39
S'to_visual_WM'
p1559
sg48
Nsg49
Nsg266
g1490
sg556
I9
sg1491
g1529
sbag0
(g43
g2
Ntp1560
Rp1561
(dp1562
g39
S'to_output'
p1563
sg48
Nsg49
Nsg266
g1490
sg556
I10
sg1491
g1529
sbasg1496
(dp1564
g1563
Nsg1546
Nsg1559
Nsg1551
Nsg1555
Nssg1501
F1.0
sS'coop_links'
p1565
(lp1566
sg1502
(lp1567
g1523
ag0
(g43
g2
Ntp1568
Rp1569
(dp1570
g39
g1533
sg48
Nsg49
Nsg266
g1526
sg556
I2
sg1491
g1529
sbag0
(g43
g2
Ntp1571
Rp1572
(dp1573
g39
g1535
sg48
Nsg49
Nsg266
g1526
sg556
I3
sg1491
g1529
sbag0
(g43
g2
Ntp1574
Rp1575
(dp1576
g1545
Nsg39
g1532
sg48
Nsg49
Nsg1547
Nsg266
g1526
sg556
I4
sg1491
g1529
sbag0
(g43
g2
Ntp1577
Rp1578
(dp1579
g1545
Nsg39
g1534
sg48
Nsg49
S'produce'
p1580
sg1547
Nsg266
g1526
sg556
I5
sg1491
g1529
sbasS'save_state'
p1581
(dp1582
S'insts'
p1583
(dp1584
sS'WM_activity'
p1585
(dp1586
S'comp'
p1587
(lp1588
sS'c2_network'
p1589
(dp1590
S'num_insts'
p1591
(lp1592
sS'num_coop_links'
p1593
(lp1594
sS'num_comp_links'
p1595
(lp1596
ssS'coop'
p1597
(lp1598
sg1506
(lp1599
sS'act'
p1600
(lp1601
sssg1504
(dp1602
S'C2'
p1603
(dp1604
S'P_comp'
p1605
F1.0
sS'comp_weight'
p1606
F0.0
sS'P_coop'
p1607
F1.0
sS'coop_asymmetry'
p1608
F1.0
sS'coop_weight'
p1609
F0.0
sS'confidence_threshold'
p1610
F0.0
sS'comp_asymmetry'
p1611
F0.0
sS'prune_threshold'
p1612
F0.01
ssS'dyn'
p1613
(dp1614
S'tau'
p1615
F10000.0
sS'k'
p1616
F10.0
sS'act_rest'
p1617
F0.001
sS'noise_mean'
p1618
F0.0
sS'noise_std'
p1619
F1.0
sS'ext_weight'
p1620
F1.0
sS'int_weight'
p1621
F1.0
sssg1506
I0
sg1507
I0
sg1127
g1510
sS'SemRep'
p1622
g0
(g70
g2
Ntp1623
Rp1624
(dp1625
g74
(dp1626
sg257
g258
sg259
g258
sg260
(dp1627
sg454
g1627
sg69
(dp1628
sg456
g258
sg457
g1627
sg458
(dp1629
sbsg556
I1
sbsbasS'brain_mapping'
p1630
g0
(cschema_theory
BRAIN_MAPPING
p1631
g2
Ntp1632
Rp1633
(dp1634
S'schema_mapping'
p1635
(dp1636
S'Control'
p1637
(lp1638
S'DLPFC'
p1639
asS'Utter'
p1640
(lp1641
S''
p1642
asg1538
(lp1643
S'left_SFG'
p1644
aS'LIP'
p1645
aS'Hippocampus'
p1646
asS'Phonological_WM_P'
p1647
(lp1648
S'left_BA6'
p1649
asg40
(lp1650
g1642
asS'Grammatical_WM_P'
p1651
(lp1652
S'left_BA45'
p1653
aS'leftBA44'
p1654
asS'Grammatical_LTM'
p1655
(lp1656
S'left_STG'
p1657
aS'left_MTG'
p1658
asS'Cxn_retrieval_P'
p1659
(lp1660
ssS'connect_mapping'
p1661
(dp1662
sbsg1498
(lp1663
g0
(cschema_theory
CONNECT
p1664
g2
Ntp1665
Rp1666
(dp1667
S'delay'
p1668
I0
sg39
g1642
sS'weight'
p1669
I0
sS'port_to'
p1670
g0
(g43
g2
Ntp1671
Rp1672
(dp1673
g1545
Nsg39
S'from_semantic_WM'
p1674
sg48
Nsg49
Nsg1547
Nsg266
g1526
sg556
I23
sg1491
g0
(clanguage_schemas
CXN_RETRIEVAL_P
p1675
g2
Ntp1676
Rp1677
(dp1678
g37
(dp1679
g1674
NsS'from_grammatical_LTM'
p1680
Nssg39
g1659
sg41
(lp1681
g0
(g43
g2
Ntp1682
Rp1683
(dp1684
g1545
Nsg39
g1546
sg48
Nsg49
Nsg1547
Nsg266
g1490
sg556
I24
sg1491
g1677
sbasg1496
(dp1685
g1546
NssS'cxn_instances'
p1686
(lp1687
sg1501
F1.0
sg1502
(lp1688
g0
(g43
g2
Ntp1689
Rp1690
(dp1691
g1545
Nsg39
g1680
sg48
Nsg49
(lp1692
g0
(clanguage_schemas
CXN_SCHEMA
p1693
g2
Ntp1694
Rp1695
(dp1696
g39
VCNJ_AND
p1697
sg56
(iconstruction
CXN
p1698
(dp1699
S'SymLinks'
p1700
(iconstruction
TP_SYMLINKS
p1701
(dp1702
S'SL'
p1703
(dp1704
VEVT1_4
p1705
VS1_6
p1706
sVEVT2_5
p1707
VS3_8
p1708
ssg556
I3
sg39
g1642
sbsS'clss'
p1709
VD
p1710
sS'group'
p1711
I3
sg39
g1697
sS'SemFrame'
p1712
(iconstruction
TP_SEMFRAME
p1713
(dp1714
g69
g0
(g70
g2
Ntp1715
Rp1716
(dp1717
g74
(dp1718
(iconstruction
TP_NODE
p1719
(dp1720
S'head'
p1721
I00
sg58
g711
sg39
g1707
sS'frame'
p1722
I00
sS'focus'
p1723
I00
sg556
I5
sb(dp1724
g1722
I00
sg58
g711
ss(iconstruction
TP_NODE
p1725
(dp1726
g1721
I00
sg58
g711
sg39
g1705
sg1722
I00
sg1723
I01
sg556
I4
sb(dp1727
g1722
I00
sg58
g711
sssg257
g258
sg259
g258
sg260
(dp1728
g1719
(dp1729
sg1725
(dp1730
ssg454
g1728
sg69
(dp1731
sg456
g258
sg457
g1728
sg458
(dp1732
g1719
(dp1733
sg1725
(dp1734
ssbsg551
(lp1735
g1725
ag1719
asg824
(lp1736
sg556
I1
sg39
g1642
sbsS'SynForm'
p1737
(iconstruction
TP_SYNFORM
p1738
(dp1739
g556
I2
sS'form'
p1740
(lp1741
(iconstruction
TP_SLOT
p1742
(dp1743
S'cxn_classes'
p1744
(lp1745
VS
p1746
asS'order'
p1747
I0
sg556
I6
sg39
g1706
sba(iconstruction
TP_PHON
p1748
(dp1749
S'num_syllables'
p1750
I3
sg1747
I1
sg556
I7
sS'cxn_phonetics'
p1751
Vand
p1752
sg39
VS2_7
p1753
sba(iconstruction
TP_SLOT
p1754
(dp1755
g1744
(lp1756
VS
p1757
asg1747
I2
sg556
I8
sg39
g1708
sbasg39
g1642
sbsS'preference'
p1758
I1
sbsg1127
Nsg556
I99
sg1128
g0
(clanguage_schemas
GRAMMATICAL_LTM
p1759
g2
Ntp1760
Rp1761
(dp1762
g37
(dp1763
sS'grammar'
p1764
(iconstruction
GRAMMAR
p1765
(dp1766
S'constructions'
p1767
(lp1768
g1698
a(iconstruction
CXN
p1769
(dp1770
g1700
(iconstruction
TP_SYMLINKS
p1771
(dp1772
g1703
(dp1773
VEVT2_13
p1774
VS3_17
p1775
sVEVT1_12
p1776
VS1_15
p1777
ssg556
I11
sg39
g1642
sbsg1709
VD
p1778
sg1711
I3
sg39
VCNJ_THEN
p1779
sg1712
(iconstruction
TP_SEMFRAME
p1780
(dp1781
g69
g0
(g70
g2
Ntp1782
Rp1783
(dp1784
g74
(dp1785
(iconstruction
TP_NODE
p1786
(dp1787
g1721
I00
sg58
g711
sg39
g1774
sg1722
I00
sg1723
I00
sg556
I13
sb(dp1788
g1722
I00
sg58
g711
ss(iconstruction
TP_NODE
p1789
(dp1790
g1721
I00
sg58
g711
sg39
g1776
sg1722
I00
sg1723
I00
sg556
I12
sb(dp1791
g1722
I00
sg58
g711
sssg257
g258
sg259
g258
sg260
(dp1792
g1786
(dp1793
sg1789
(dp1794
g1786
(dp1795
g58
g696
ssssg454
g1792
sg69
(dp1796
sg456
g258
sg457
g1792
sg458
(dp1797
g1786
(dp1798
g1789
g1795
ssg1789
(dp1799
ssbsg551
(lp1800
g1789
ag1786
asg824
(lp1801
(iconstruction
TP_REL
p1802
(dp1803
g830
g1786
sg58
g696
sg556
I14
sg831
g1789
sg39
VEVT1_EVT2_14
p1804
sbasg556
I9
sg39
g1642
sbsg1737
(iconstruction
TP_SYNFORM
p1805
(dp1806
g556
I10
sg1740
(lp1807
(iconstruction
TP_SLOT
p1808
(dp1809
g1744
(lp1810
VS
p1811
asg1747
I0
sg556
I15
sg39
g1777
sba(iconstruction
TP_PHON
p1812
(dp1813
g1750
I4
sg1747
I1
sg556
I16
sg1751
Vthen
p1814
sg39
VS2_16
p1815
sba(iconstruction
TP_SLOT
p1816
(dp1817
g1744
(lp1818
VS
p1819
asg1747
I2
sg556
I17
sg39
g1775
sbasg39
g1642
sbsg1758
I1
sba(iconstruction
CXN
p1820
(dp1821
g1700
(iconstruction
TP_SYMLINKS
p1822
(dp1823
g1703
(dp1824
VEVT2_22
p1825
VS3_26
p1826
sVEVT1_21
p1827
VS1_24
p1828
ssg556
I20
sg39
g1642
sbsg1709
VD
p1829
sg1711
I3
sg39
VCNJ_WHILE
p1830
sg1712
(iconstruction
TP_SEMFRAME
p1831
(dp1832
g69
g0
(g70
g2
Ntp1833
Rp1834
(dp1835
g74
(dp1836
(iconstruction
TP_NODE
p1837
(dp1838
g1721
I00
sg58
g711
sg39
g1825
sg1722
I00
sg1723
I00
sg556
I22
sb(dp1839
g1722
I00
sg58
g711
ss(iconstruction
TP_NODE
p1840
(dp1841
g1721
I00
sg58
g711
sg39
g1827
sg1722
I00
sg1723
I01
sg556
I21
sb(dp1842
g1722
I00
sg58
g711
sssg257
g258
sg259
g258
sg260
(dp1843
g1837
(dp1844
sg1840
(dp1845
g1837
(dp1846
g58
g693
ssssg454
g1843
sg69
(dp1847
sg456
g258
sg457
g1843
sg458
(dp1848
g1837
(dp1849
g1840
g1846
ssg1840
(dp1850
ssbsg551
(lp1851
g1840
ag1837
asg824
(lp1852
(iconstruction
TP_REL
p1853
(dp1854
g830
g1837
sg58
g693
sg556
I23
sg831
g1840
sg39
VEVT1_EVT2_23
p1855
sbasg556
I18
sg39
g1642
sbsg1737
(iconstruction
TP_SYNFORM
p1856
(dp1857
g556
I19
sg1740
(lp1858
(iconstruction
TP_SLOT
p1859
(dp1860
g1744
(lp1861
VS
p1862
asg1747
I0
sg556
I24
sg39
g1828
sba(iconstruction
TP_PHON
p1863
(dp1864
g1750
I5
sg1747
I1
sg556
I25
sg1751
Vwhile
p1865
sg39
VS2_25
p1866
sba(iconstruction
TP_SLOT
p1867
(dp1868
g1744
(lp1869
VS
p1870
asg1747
I2
sg556
I26
sg39
g1826
sbasg39
g1642
sbsg1758
I1
sba(iconstruction
CXN
p1871
(dp1872
g1700
(iconstruction
TP_SYMLINKS
p1873
(dp1874
g1703
(dp1875
VACT_31
p1876
VS4_40
p1877
sVACTOR_1_32
p1878
VS1_37
p1879
sVACTOR_2_33
p1880
VS3_39
p1881
ssg556
I29
sg39
g1642
sbsg1709
VS
p1882
sg1711
Nsg39
VSYMMETRIC_TRANS
p1883
sg1712
(iconstruction
TP_SEMFRAME
p1884
(dp1885
g69
g0
(g70
g2
Ntp1886
Rp1887
(dp1888
g74
(dp1889
(iconstruction
TP_NODE
p1890
(dp1891
g1721
I01
sg58
g711
sg39
VEVT_30
p1892
sg1722
I01
sg1723
I00
sg556
I30
sb(dp1893
g1722
I01
sg58
g711
ss(iconstruction
TP_NODE
p1894
(dp1895
g1721
I00
sg58
g714
sg39
g1878
sg1722
I01
sg1723
I01
sg556
I32
sb(dp1896
g1722
I01
sg58
g714
ss(iconstruction
TP_NODE
p1897
(dp1898
g1721
I00
sg58
g558
sg39
g1876
sg1722
I01
sg1723
I00
sg556
I31
sb(dp1899
g1722
I01
sg58
g558
ss(iconstruction
TP_NODE
p1900
(dp1901
g1721
I00
sg58
g714
sg39
g1880
sg1722
I01
sg1723
I00
sg556
I33
sb(dp1902
g1722
I01
sg58
g714
sssg257
g258
sg259
g258
sg260
(dp1903
g1890
(dp1904
g1897
(dp1905
g58
g705
sssg1894
(dp1906
sg1897
(dp1907
g1894
(dp1908
g58
g681
ssg1900
(dp1909
g58
g681
sssg1900
(dp1910
ssg454
g1903
sg69
(dp1911
sg456
g258
sg457
g1903
sg458
(dp1912
g1890
(dp1913
sg1894
(dp1914
g1897
g1908
ssg1897
(dp1915
g1890
g1905
ssg1900
(dp1916
g1897
g1909
sssbsg551
(lp1917
g1890
ag1897
ag1894
ag1900
asg824
(lp1918
(iconstruction
TP_REL
p1919
(dp1920
g830
g1897
sg58
g705
sg556
I34
sg831
g1890
sg39
VIS_34
p1921
sba(iconstruction
TP_REL
p1922
(dp1923
g830
g1894
sg58
g681
sg556
I35
sg831
g1897
sg39
VAGT_PT_1_35
p1924
sba(iconstruction
TP_REL
p1925
(dp1926
g830
g1900
sg58
g681
sg556
I36
sg831
g1897
sg39
VAGT_PT_2_36
p1927
sbasg556
I27
sg39
g1642
sbsg1737
(iconstruction
TP_SYNFORM
p1928
(dp1929
g556
I28
sg1740
(lp1930
(iconstruction
TP_SLOT
p1931
(dp1932
g1744
(lp1933
VNP
p1934
aVN
p1935
asg1747
I0
sg556
I37
sg39
g1879
sba(iconstruction
TP_PHON
p1936
(dp1937
g1750
I3
sg1747
I1
sg556
I38
sg1751
Vand
p1938
sg39
VS2_38
p1939
sba(iconstruction
TP_SLOT
p1940
(dp1941
g1744
(lp1942
VNP
p1943
aVN
p1944
asg1747
I2
sg556
I39
sg39
g1881
sba(iconstruction
TP_SLOT
p1945
(dp1946
g1744
(lp1947
VVP
p1948
aVV
p1949
asg1747
I3
sg556
I40
sg39
g1877
sbasg39
g1642
sbsg1758
I1
sba(iconstruction
CXN
p1950
(dp1951
g1700
(iconstruction
TP_SYMLINKS
p1952
(dp1953
g1703
(dp1954
VAGT_46
p1955
VS1_51
p1956
sVACT_45
p1957
VS2_52
p1958
sVPT_47
p1959
VS3_53
p1960
ssg556
I43
sg39
g1642
sbsg1709
VS
p1961
sg1711
I2
sg39
VSVO
p1962
sg1712
(iconstruction
TP_SEMFRAME
p1963
(dp1964
g69
g0
(g70
g2
Ntp1965
Rp1966
(dp1967
g74
(dp1968
(iconstruction
TP_NODE
p1969
(dp1970
g1721
I01
sg58
g711
sg39
VEVT_44
p1971
sg1722
I01
sg1723
I00
sg556
I44
sb(dp1972
g1722
I01
sg58
g711
ss(iconstruction
TP_NODE
p1973
(dp1974
g1721
I00
sg58
g714
sg39
g1955
sg1722
I01
sg1723
I01
sg556
I46
sb(dp1975
g1722
I01
sg58
g714
ss(iconstruction
TP_NODE
p1976
(dp1977
g1721
I00
sg58
g714
sg39
g1959
sg1722
I01
sg1723
I00
sg556
I47
sb(dp1978
g1722
I01
sg58
g714
ss(iconstruction
TP_NODE
p1979
(dp1980
g1721
I00
sg58
g558
sg39
g1957
sg1722
I01
sg1723
I00
sg556
I45
sb(dp1981
g1722
I01
sg58
g558
sssg257
g258
sg259
g258
sg260
(dp1982
g1969
(dp1983
g1979
(dp1984
g58
g705
sssg1973
(dp1985
sg1976
(dp1986
sg1979
(dp1987
g1973
(dp1988
g58
g684
ssg1976
(dp1989
g58
g678
ssssg454
g1982
sg69
(dp1990
sg456
g258
sg457
g1982
sg458
(dp1991
g1969
(dp1992
sg1973
(dp1993
g1979
g1988
ssg1976
(dp1994
g1979
g1989
ssg1979
(dp1995
g1969
g1984
sssbsg551
(lp1996
g1969
ag1979
ag1973
ag1976
asg824
(lp1997
(iconstruction
TP_REL
p1998
(dp1999
g830
g1979
sg58
g705
sg556
I48
sg831
g1969
sg39
VIS_48
p2000
sba(iconstruction
TP_REL
p2001
(dp2002
g830
g1973
sg58
g684
sg556
I49
sg831
g1979
sg39
VACT_AGT_49
p2003
sba(iconstruction
TP_REL
p2004
(dp2005
g830
g1976
sg58
g678
sg556
I50
sg831
g1979
sg39
VACT_PT_50
p2006
sbasg556
I41
sg39
g1642
sbsg1737
(iconstruction
TP_SYNFORM
p2007
(dp2008
g556
I42
sg1740
(lp2009
(iconstruction
TP_SLOT
p2010
(dp2011
g1744
(lp2012
VNP
p2013
aVN
p2014
asg1747
I0
sg556
I51
sg39
g1956
sba(iconstruction
TP_SLOT
p2015
(dp2016
g1744
(lp2017
VVP
p2018
aVV
p2019
asg1747
I1
sg556
I52
sg39
g1958
sba(iconstruction
TP_SLOT
p2020
(dp2021
g1744
(lp2022
VNP
p2023
aVN
p2024
asg1747
I2
sg556
I53
sg39
g1960
sbasg39
g1642
sbsg1758
I1
sba(iconstruction
CXN
p2025
(dp2026
g1700
(iconstruction
TP_SYMLINKS
p2027
(dp2028
g1703
(dp2029
VPT_60
p2030
VS1_64
p2031
sVACT_58
p2032
VS3_66
p2033
sVAGT_59
p2034
VS6_69
p2035
ssg556
I56
sg39
g1642
sbsg1709
VS
p2036
sg1711
I2
sg39
VPAS_SVO
p2037
sg1712
(iconstruction
TP_SEMFRAME
p2038
(dp2039
g69
g0
(g70
g2
Ntp2040
Rp2041
(dp2042
g74
(dp2043
(iconstruction
TP_NODE
p2044
(dp2045
g1721
I00
sg58
g558
sg39
g2032
sg1722
I01
sg1723
I00
sg556
I58
sb(dp2046
g1722
I01
sg58
g558
ss(iconstruction
TP_NODE
p2047
(dp2048
g1721
I00
sg58
g714
sg39
g2034
sg1722
I01
sg1723
I00
sg556
I59
sb(dp2049
g1722
I01
sg58
g714
ss(iconstruction
TP_NODE
p2050
(dp2051
g1721
I01
sg58
g711
sg39
VEVT_57
p2052
sg1722
I01
sg1723
I00
sg556
I57
sb(dp2053
g1722
I01
sg58
g711
ss(iconstruction
TP_NODE
p2054
(dp2055
g1721
I00
sg58
g714
sg39
g2030
sg1722
I01
sg1723
I01
sg556
I60
sb(dp2056
g1722
I01
sg58
g714
sssg257
g258
sg259
g258
sg260
(dp2057
g2044
(dp2058
g2054
(dp2059
g58
g678
ssg2047
(dp2060
g58
g684
sssg2047
(dp2061
sg2050
(dp2062
g2044
(dp2063
g58
g705
sssg2054
(dp2064
ssg454
g2057
sg69
(dp2065
sg456
g258
sg457
g2057
sg458
(dp2066
g2044
(dp2067
g2050
g2063
ssg2047
(dp2068
g2044
g2060
ssg2050
(dp2069
sg2054
(dp2070
g2044
g2059
sssbsg551
(lp2071
g2050
ag2044
ag2047
ag2054
asg824
(lp2072
(iconstruction
TP_REL
p2073
(dp2074
g830
g2044
sg58
g705
sg556
I61
sg831
g2050
sg39
VIS_61
p2075
sba(iconstruction
TP_REL
p2076
(dp2077
g830
g2047
sg58
g684
sg556
I62
sg831
g2044
sg39
VACT_AGT_62
p2078
sba(iconstruction
TP_REL
p2079
(dp2080
g830
g2054
sg58
g678
sg556
I63
sg831
g2044
sg39
VACT_PT_63
p2081
sbasg556
I54
sg39
g1642
sbsg1737
(iconstruction
TP_SYNFORM
p2082
(dp2083
g556
I55
sg1740
(lp2084
(iconstruction
TP_SLOT
p2085
(dp2086
g1744
(lp2087
VNP
p2088
aVN
p2089
asg1747
I0
sg556
I64
sg39
g2031
sba(iconstruction
TP_PHON
p2090
(dp2091
g1750
I2
sg1747
I1
sg556
I65
sg1751
Vis
p2092
sg39
VS2_65
p2093
sba(iconstruction
TP_SLOT
p2094
(dp2095
g1744
(lp2096
VVP
p2097
aVV
p2098
asg1747
I2
sg556
I66
sg39
g2033
sba(iconstruction
TP_PHON
p2099
(dp2100
g1750
I2
sg1747
I3
sg556
I67
sg1751
V-ed
p2101
sg39
VS4_67
p2102
sba(iconstruction
TP_PHON
p2103
(dp2104
g1750
I2
sg1747
I4
sg556
I68
sg1751
Vby
p2105
sg39
VS5_68
p2106
sba(iconstruction
TP_SLOT
p2107
(dp2108
g1744
(lp2109
VNP
p2110
aVN
p2111
asg1747
I5
sg556
I69
sg39
g2035
sbasg39
g1642
sbsg1758
I1
sba(iconstruction
CXN
p2112
(dp2113
g1700
(iconstruction
TP_SYMLINKS
p2114
(dp2115
g1703
(dp2116
VACT_74
p2117
VS2_83
p2118
sVRCPT_77
p2119
VS3_84
p2120
sVTHEME_76
p2121
VS4_85
p2122
sVAGT_75
p2123
VS1_82
p2124
ssg556
I72
sg39
g1642
sbsg1709
VS
p2125
sg1711
I2
sg39
VDOUBLE_OBJ
p2126
sg1712
(iconstruction
TP_SEMFRAME
p2127
(dp2128
g69
g0
(g70
g2
Ntp2129
Rp2130
(dp2131
g74
(dp2132
(iconstruction
TP_NODE
p2133
(dp2134
g1721
I01
sg58
g711
sg39
VEVT_73
p2135
sg1722
I01
sg1723
I00
sg556
I73
sb(dp2136
g1722
I01
sg58
g711
ss(iconstruction
TP_NODE
p2137
(dp2138
g1721
I00
sg58
g714
sg39
g2123
sg1722
I01
sg1723
I01
sg556
I75
sb(dp2139
g1722
I01
sg58
g714
ss(iconstruction
TP_NODE
p2140
(dp2141
g1721
I00
sg58
g558
sg39
g2117
sg1722
I01
sg1723
I00
sg556
I74
sb(dp2142
g1722
I01
sg58
g558
ss(iconstruction
TP_NODE
p2143
(dp2144
g1721
I00
sg58
g714
sg39
g2119
sg1722
I01
sg1723
I00
sg556
I77
sb(dp2145
g1722
I01
sg58
g714
ss(iconstruction
TP_NODE
p2146
(dp2147
g1721
I00
sg58
g714
sg39
g2121
sg1722
I01
sg1723
I00
sg556
I76
sb(dp2148
g1722
I01
sg58
g714
sssg257
g258
sg259
g258
sg260
(dp2149
g2133
(dp2150
g2140
(dp2151
g58
g705
sssg2137
(dp2152
sg2140
(dp2153
g2137
(dp2154
g58
g684
ssg2143
(dp2155
g58
g669
ssg2146
(dp2156
g58
g666
sssg2143
(dp2157
sg2146
(dp2158
ssg454
g2149
sg69
(dp2159
sg456
g258
sg457
g2149
sg458
(dp2160
g2133
(dp2161
sg2137
(dp2162
g2140
g2154
ssg2140
(dp2163
g2133
g2151
ssg2143
(dp2164
g2140
g2155
ssg2146
(dp2165
g2140
g2156
sssbsg551
(lp2166
g2133
ag2140
ag2137
ag2146
ag2143
asg824
(lp2167
(iconstruction
TP_REL
p2168
(dp2169
g830
g2140
sg58
g705
sg556
I78
sg831
g2133
sg39
VIS_78
p2170
sba(iconstruction
TP_REL
p2171
(dp2172
g830
g2137
sg58
g684
sg556
I79
sg831
g2140
sg39
VACT_AGT_79
p2173
sba(iconstruction
TP_REL
p2174
(dp2175
g830
g2146
sg58
g666
sg556
I80
sg831
g2140
sg39
VACT_THEME_80
p2176
sba(iconstruction
TP_REL
p2177
(dp2178
g830
g2143
sg58
g669
sg556
I81
sg831
g2140
sg39
VACT_RCPT_81
p2179
sbasg556
I70
sg39
g1642
sbsg1737
(iconstruction
TP_SYNFORM
p2180
(dp2181
g556
I71
sg1740
(lp2182
(iconstruction
TP_SLOT
p2183
(dp2184
g1744
(lp2185
VNP
p2186
aVN
p2187
asg1747
I0
sg556
I82
sg39
g2124
sba(iconstruction
TP_SLOT
p2188
(dp2189
g1744
(lp2190
VVP
p2191
aVV
p2192
asg1747
I1
sg556
I83
sg39
g2118
sba(iconstruction
TP_SLOT
p2193
(dp2194
g1744
(lp2195
VNP
p2196
aVN
p2197
asg1747
I2
sg556
I84
sg39
g2120
sba(iconstruction
TP_SLOT
p2198
(dp2199
g1744
(lp2200
VNP
p2201
aVN
p2202
asg1747
I3
sg556
I85
sg39
g2122
sbasg39
g1642
sbsg1758
I1
sba(iconstruction
CXN
p2203
(dp2204
g1700
(iconstruction
TP_SYMLINKS
p2205
(dp2206
g1703
(dp2207
VAGT_91
p2208
VS1_98
p2209
sVRCPT_93
p2210
VS5_102
p2211
sVACT_90
p2212
VS2_99
p2213
sVTHEME_92
p2214
VS3_100
p2215
ssg556
I88
sg39
g1642
sbsg1709
VS
p2216
sg1711
I2
sg39
VOBLIQUE_DATIVE
p2217
sg1712
(iconstruction
TP_SEMFRAME
p2218
(dp2219
g69
g0
(g70
g2
Ntp2220
Rp2221
(dp2222
g74
(dp2223
(iconstruction
TP_NODE
p2224
(dp2225
g1721
I01
sg58
g711
sg39
VEVT_89
p2226
sg1722
I01
sg1723
I00
sg556
I89
sb(dp2227
g1722
I01
sg58
g711
ss(iconstruction
TP_NODE
p2228
(dp2229
g1721
I00
sg58
g714
sg39
g2208
sg1722
I01
sg1723
I01
sg556
I91
sb(dp2230
g1722
I01
sg58
g714
ss(iconstruction
TP_NODE
p2231
(dp2232
g1721
I00
sg58
g714
sg39
g2214
sg1722
I01
sg1723
I00
sg556
I92
sb(dp2233
g1722
I01
sg58
g714
ss(iconstruction
TP_NODE
p2234
(dp2235
g1721
I00
sg58
g606
sg39
g2212
sg1722
I01
sg1723
I00
sg556
I90
sb(dp2236
g1722
I01
sg58
g606
ss(iconstruction
TP_NODE
p2237
(dp2238
g1721
I00
sg58
g714
sg39
g2210
sg1722
I01
sg1723
I00
sg556
I93
sb(dp2239
g1722
I01
sg58
g714
sssg257
g258
sg259
g258
sg260
(dp2240
g2224
(dp2241
g2234
(dp2242
g58
g705
sssg2228
(dp2243
sg2231
(dp2244
sg2234
(dp2245
g2228
(dp2246
g58
g684
ssg2237
(dp2247
g58
g669
ssg2231
(dp2248
g58
g666
sssg2237
(dp2249
ssg454
g2240
sg69
(dp2250
sg456
g258
sg457
g2240
sg458
(dp2251
g2224
(dp2252
sg2228
(dp2253
g2234
g2246
ssg2231
(dp2254
g2234
g2248
ssg2234
(dp2255
g2224
g2242
ssg2237
(dp2256
g2234
g2247
sssbsg551
(lp2257
g2224
ag2234
ag2228
ag2231
ag2237
asg824
(lp2258
(iconstruction
TP_REL
p2259
(dp2260
g830
g2234
sg58
g705
sg556
I94
sg831
g2224
sg39
VIS_94
p2261
sba(iconstruction
TP_REL
p2262
(dp2263
g830
g2228
sg58
g684
sg556
I95
sg831
g2234
sg39
VACT_AGT_95
p2264
sba(iconstruction
TP_REL
p2265
(dp2266
g830
g2231
sg58
g666
sg556
I96
sg831
g2234
sg39
VACT_THEME_96
p2267
sba(iconstruction
TP_REL
p2268
(dp2269
g830
g2237
sg58
g669
sg556
I97
sg831
g2234
sg39
VACT_RCPT_97
p2270
sbasg556
I86
sg39
g1642
sbsg1737
(iconstruction
TP_SYNFORM
p2271
(dp2272
g556
I87
sg1740
(lp2273
(iconstruction
TP_SLOT
p2274
(dp2275
g1744
(lp2276
VNP
p2277
aVN
p2278
asg1747
I0
sg556
I98
sg39
g2209
sba(iconstruction
TP_SLOT
p2279
(dp2280
g1744
(lp2281
VVP
p2282
aVV
p2283
asg1747
I1
sg556
I99
sg39
g2213
sba(iconstruction
TP_SLOT
p2284
(dp2285
g1744
(lp2286
VNP
p2287
aVN
p2288
asg1747
I2
sg556
I100
sg39
g2215
sba(iconstruction
TP_PHON
p2289
(dp2290
g1750
I2
sg1747
I3
sg556
I101
sg1751
Vto
p2291
sg39
VS4_101
p2292
sba(iconstruction
TP_SLOT
p2293
(dp2294
g1744
(lp2295
VNP
p2296
aVN
p2297
asg1747
I4
sg556
I102
sg39
g2211
sbasg39
g1642
sbsg1758
I1
sba(iconstruction
CXN
p2298
(dp2299
g1700
(iconstruction
TP_SYMLINKS
p2300
(dp2301
g1703
(dp2302
VATTR_108
p2303
VS3_113
p2304
sVENT_107
p2305
VS1_111
p2306
ssg556
I105
sg39
g1642
sbsg1709
VS
p2307
sg1711
I2
sg39
VSPA
p2308
sg1712
(iconstruction
TP_SEMFRAME
p2309
(dp2310
g69
g0
(g70
g2
Ntp2311
Rp2312
(dp2313
g74
(dp2314
(iconstruction
TP_NODE
p2315
(dp2316
g1721
I00
sg58
g714
sg39
g2305
sg1722
I01
sg1723
I01
sg556
I107
sb(dp2317
g1722
I01
sg58
g714
ss(iconstruction
TP_NODE
p2318
(dp2319
g1721
I00
sg58
g615
sg39
g2303
sg1722
I00
sg1723
I00
sg556
I108
sb(dp2320
g1722
I00
sg58
g615
ss(iconstruction
TP_NODE
p2321
(dp2322
g1721
I01
sg58
g711
sg39
VEVT_106
p2323
sg1722
I01
sg1723
I00
sg556
I106
sb(dp2324
g1722
I01
sg58
g711
sssg257
g258
sg259
g258
sg260
(dp2325
g2315
(dp2326
sg2318
(dp2327
sg2321
(dp2328
g2315
(dp2329
g58
g705
ssg2318
(dp2330
g58
g663
ssssg454
g2325
sg69
(dp2331
sg456
g258
sg457
g2325
sg458
(dp2332
g2315
(dp2333
g2321
g2329
ssg2318
(dp2334
g2321
g2330
ssg2321
(dp2335
ssbsg551
(lp2336
g2321
ag2315
ag2318
asg824
(lp2337
(iconstruction
TP_REL
p2338
(dp2339
g830
g2315
sg58
g705
sg556
I109
sg831
g2321
sg39
VIS_109
p2340
sba(iconstruction
TP_REL
p2341
(dp2342
g830
g2318
sg58
g663
sg556
I110
sg831
g2321
sg39
VEVT_ATTR_110
p2343
sbasg556
I103
sg39
g1642
sbsg1737
(iconstruction
TP_SYNFORM
p2344
(dp2345
g556
I104
sg1740
(lp2346
(iconstruction
TP_SLOT
p2347
(dp2348
g1744
(lp2349
VNP
p2350
aVN
p2351
asg1747
I0
sg556
I111
sg39
g2306
sba(iconstruction
TP_PHON
p2352
(dp2353
g1750
I2
sg1747
I1
sg556
I112
sg1751
Vis
p2354
sg39
VS2_112
p2355
sba(iconstruction
TP_SLOT
p2356
(dp2357
g1744
(lp2358
VA
p2359
asg1747
I2
sg556
I113
sg39
g2304
sbasg39
g1642
sbsg1758
I1
sba(iconstruction
CXN
p2360
(dp2361
g1700
(iconstruction
TP_SYMLINKS
p2362
(dp2363
g1703
(dp2364
VAGT_119
p2365
VS1_122
p2366
sVACT_118
p2367
VS2_123
p2368
ssg556
I116
sg39
g1642
sbsg1709
VS
p2369
sg1711
I2
sg39
VSV
p2370
sg1712
(iconstruction
TP_SEMFRAME
p2371
(dp2372
g69
g0
(g70
g2
Ntp2373
Rp2374
(dp2375
g74
(dp2376
(iconstruction
TP_NODE
p2377
(dp2378
g1721
I00
sg58
g570
sg39
g2367
sg1722
I01
sg1723
I00
sg556
I118
sb(dp2379
g1722
I01
sg58
g570
ss(iconstruction
TP_NODE
p2380
(dp2381
g1721
I00
sg58
g714
sg39
g2365
sg1722
I01
sg1723
I01
sg556
I119
sb(dp2382
g1722
I01
sg58
g714
ss(iconstruction
TP_NODE
p2383
(dp2384
g1721
I01
sg58
g711
sg39
VEVT_117
p2385
sg1722
I01
sg1723
I00
sg556
I117
sb(dp2386
g1722
I01
sg58
g711
sssg257
g258
sg259
g258
sg260
(dp2387
g2377
(dp2388
g2380
(dp2389
g58
g684
sssg2380
(dp2390
sg2383
(dp2391
g2377
(dp2392
g58
g705
ssssg454
g2387
sg69
(dp2393
sg456
g258
sg457
g2387
sg458
(dp2394
g2377
(dp2395
g2383
g2392
ssg2380
(dp2396
g2377
g2389
ssg2383
(dp2397
ssbsg551
(lp2398
g2383
ag2377
ag2380
asg824
(lp2399
(iconstruction
TP_REL
p2400
(dp2401
g830
g2377
sg58
g705
sg556
I120
sg831
g2383
sg39
VIS_120
p2402
sba(iconstruction
TP_REL
p2403
(dp2404
g830
g2380
sg58
g684
sg556
I121
sg831
g2377
sg39
VACT_AGT_121
p2405
sbasg556
I114
sg39
g1642
sbsg1737
(iconstruction
TP_SYNFORM
p2406
(dp2407
g556
I115
sg1740
(lp2408
(iconstruction
TP_SLOT
p2409
(dp2410
g1744
(lp2411
VNP
p2412
aVN
p2413
asg1747
I0
sg556
I122
sg39
g2366
sba(iconstruction
TP_SLOT
p2414
(dp2415
g1744
(lp2416
VVP
p2417
aVV
p2418
asg1747
I1
sg556
I123
sg39
g2368
sbasg39
g1642
sbsg1758
I1
sba(iconstruction
CXN
p2419
(dp2420
g1700
(iconstruction
TP_SYMLINKS
p2421
(dp2422
g1703
(dp2423
VEVT_127
p2424
VS1_130
p2425
sVPLACE_128
p2426
VS3_132
p2427
ssg556
I126
sg39
g1642
sbsg1709
VS
p2428
sg1711
I2
sg39
VPP_IN
p2429
sg1712
(iconstruction
TP_SEMFRAME
p2430
(dp2431
g69
g0
(g70
g2
Ntp2432
Rp2433
(dp2434
g74
(dp2435
(iconstruction
TP_NODE
p2436
(dp2437
g1721
I00
sg58
g714
sg39
g2426
sg1722
I01
sg1723
I00
sg556
I128
sb(dp2438
g1722
I01
sg58
g714
ss(iconstruction
TP_NODE
p2439
(dp2440
g1721
I01
sg58
g711
sg39
g2424
sg1722
I01
sg1723
I00
sg556
I127
sb(dp2441
g1722
I01
sg58
g711
sssg257
g258
sg259
g258
sg260
(dp2442
g2436
(dp2443
sg2439
(dp2444
g2436
(dp2445
g58
g702
ssssg454
g2442
sg69
(dp2446
sg456
g258
sg457
g2442
sg458
(dp2447
g2436
(dp2448
g2439
g2445
ssg2439
(dp2449
ssbsg551
(lp2450
g2439
ag2436
asg824
(lp2451
(iconstruction
TP_REL
p2452
(dp2453
g830
g2436
sg58
g702
sg556
I129
sg831
g2439
sg39
VEVT_PP_129
p2454
sbasg556
I124
sg39
g1642
sbsg1737
(iconstruction
TP_SYNFORM
p2455
(dp2456
g556
I125
sg1740
(lp2457
(iconstruction
TP_SLOT
p2458
(dp2459
g1744
(lp2460
VS
p2461
asg1747
I0
sg556
I130
sg39
g2425
sba(iconstruction
TP_PHON
p2462
(dp2463
g1750
I2
sg1747
I1
sg556
I131
sg1751
Vin
p2464
sg39
VS2_131
p2465
sba(iconstruction
TP_SLOT
p2466
(dp2467
g1744
(lp2468
VNP
p2469
aVN
p2470
asg1747
I2
sg556
I132
sg39
g2427
sbasg39
g1642
sbsg1758
I1
sba(iconstruction
CXN
p2471
(dp2472
g1700
(iconstruction
TP_SYMLINKS
p2473
(dp2474
g1703
(dp2475
VEVT2_137
p2476
VS2_140
p2477
sVEVT1_136
p2478
VS1_139
p2479
ssg556
I135
sg39
g1642
sbsg1709
VS
p2480
sg1711
I2
sg39
VS_PP
p2481
sg1712
(iconstruction
TP_SEMFRAME
p2482
(dp2483
g69
g0
(g70
g2
Ntp2484
Rp2485
(dp2486
g74
(dp2487
(iconstruction
TP_NODE
p2488
(dp2489
g1721
I01
sg58
g711
sg39
g2478
sg1722
I01
sg1723
I01
sg556
I136
sb(dp2490
g1722
I01
sg58
g711
ss(iconstruction
TP_NODE
p2491
(dp2492
g1721
I00
sg58
g711
sg39
g2476
sg1722
I01
sg1723
I00
sg556
I137
sb(dp2493
g1722
I01
sg58
g711
sssg257
g258
sg259
g258
sg260
(dp2494
g2488
(dp2495
g2491
(dp2496
g58
g663
sssg2491
(dp2497
ssg454
g2494
sg69
(dp2498
sg456
g258
sg457
g2494
sg458
(dp2499
g2488
(dp2500
sg2491
(dp2501
g2488
g2496
sssbsg551
(lp2502
g2488
ag2491
asg824
(lp2503
(iconstruction
TP_REL
p2504
(dp2505
g830
g2491
sg58
g663
sg556
I138
sg831
g2488
sg39
VMOD_138
p2506
sbasg556
I133
sg39
g1642
sbsg1737
(iconstruction
TP_SYNFORM
p2507
(dp2508
g556
I134
sg1740
(lp2509
(iconstruction
TP_SLOT
p2510
(dp2511
g1744
(lp2512
VS
p2513
asg1747
I0
sg556
I139
sg39
g2479
sba(iconstruction
TP_SLOT
p2514
(dp2515
g1744
(lp2516
VPP
p2517
asg1747
I1
sg556
I140
sg39
g2477
sbasg39
g1642
sbsg1758
I1
sba(iconstruction
CXN
p2518
(dp2519
g1700
(iconstruction
TP_SYMLINKS
p2520
(dp2521
g1703
(dp2522
VENT_144
p2523
VS2_148
p2524
sVATTR_145
p2525
VS1_147
p2526
ssg556
I143
sg39
g1642
sbsg1709
VN
p2527
sg1711
I2
sg39
VADJUNCT_N
p2528
sg1712
(iconstruction
TP_SEMFRAME
p2529
(dp2530
g69
g0
(g70
g2
Ntp2531
Rp2532
(dp2533
g74
(dp2534
(iconstruction
TP_NODE
p2535
(dp2536
g1721
I01
sg58
g714
sg39
g2523
sg1722
I01
sg1723
I00
sg556
I144
sb(dp2537
g1722
I01
sg58
g714
ss(iconstruction
TP_NODE
p2538
(dp2539
g1721
I00
sg58
g615
sg39
g2525
sg1722
I00
sg1723
I00
sg556
I145
sb(dp2540
g1722
I00
sg58
g615
sssg257
g258
sg259
g258
sg260
(dp2541
g2535
(dp2542
g2538
(dp2543
g58
g663
sssg2538
(dp2544
ssg454
g2541
sg69
(dp2545
sg456
g258
sg457
g2541
sg458
(dp2546
g2535
(dp2547
sg2538
(dp2548
g2535
g2543
sssbsg551
(lp2549
g2535
ag2538
asg824
(lp2550
(iconstruction
TP_REL
p2551
(dp2552
g830
g2538
sg58
g663
sg556
I146
sg831
g2535
sg39
VENT_ATTR_146
p2553
sbasg556
I141
sg39
g1642
sbsg1737
(iconstruction
TP_SYNFORM
p2554
(dp2555
g556
I142
sg1740
(lp2556
(iconstruction
TP_SLOT
p2557
(dp2558
g1744
(lp2559
VA
p2560
asg1747
I0
sg556
I147
sg39
g2526
sba(iconstruction
TP_SLOT
p2561
(dp2562
g1744
(lp2563
VN
p2564
asg1747
I1
sg556
I148
sg39
g2524
sbasg39
g1642
sbsg1758
I1
sba(iconstruction
CXN
p2565
(dp2566
g1700
(iconstruction
TP_SYMLINKS
p2567
(dp2568
g1703
(dp2569
VAGT_154
p2570
VS1_160
p2571
sVACT_153
p2572
VS3_162
p2573
sVPT_155
p2574
VS4_163
p2575
ssg556
I151
sg39
g1642
sbsg1709
VN
p2576
sg1711
I2
sg39
VSUBJ_REL_SVO
p2577
sg1712
(iconstruction
TP_SEMFRAME
p2578
(dp2579
g69
g0
(g70
g2
Ntp2580
Rp2581
(dp2582
g74
(dp2583
(iconstruction
TP_NODE
p2584
(dp2585
g1721
I00
sg58
g711
sg39
VEVT_152
p2586
sg1722
I01
sg1723
I00
sg556
I152
sb(dp2587
g1722
I01
sg58
g711
ss(iconstruction
TP_NODE
p2588
(dp2589
g1721
I01
sg58
g714
sg39
g2570
sg1722
I01
sg1723
I00
sg556
I154
sb(dp2590
g1722
I01
sg58
g714
ss(iconstruction
TP_NODE
p2591
(dp2592
g1721
I00
sg58
g576
sg39
g2572
sg1722
I01
sg1723
I01
sg556
I153
sb(dp2593
g1722
I01
sg58
g576
ss(iconstruction
TP_NODE
p2594
(dp2595
g1721
I00
sg58
g714
sg39
g2574
sg1722
I01
sg1723
I00
sg556
I155
sb(dp2596
g1722
I01
sg58
g714
sssg257
g258
sg259
g258
sg260
(dp2597
g2584
(dp2598
g2591
(dp2599
g58
g705
sssg2588
(dp2600
g2584
(dp2601
g58
g663
sssg2591
(dp2602
g2588
(dp2603
g58
g684
ssg2594
(dp2604
g58
g678
sssg2594
(dp2605
ssg454
g2597
sg69
(dp2606
sg456
g258
sg457
g2597
sg458
(dp2607
g2584
(dp2608
g2588
g2601
ssg2588
(dp2609
g2591
g2603
ssg2591
(dp2610
g2584
g2599
ssg2594
(dp2611
g2591
g2604
sssbsg551
(lp2612
g2584
ag2591
ag2588
ag2594
asg824
(lp2613
(iconstruction
TP_REL
p2614
(dp2615
g830
g2591
sg58
g705
sg556
I156
sg831
g2584
sg39
VIS_156
p2616
sba(iconstruction
TP_REL
p2617
(dp2618
g830
g2588
sg58
g684
sg556
I157
sg831
g2591
sg39
VACT_AGT_157
p2619
sba(iconstruction
TP_REL
p2620
(dp2621
g830
g2594
sg58
g678
sg556
I158
sg831
g2591
sg39
VACT_PT_158
p2622
sba(iconstruction
TP_REL
p2623
(dp2624
g830
g2584
sg58
g663
sg556
I159
sg831
g2588
sg39
VAGT_EVT_159
p2625
sbasg556
I149
sg39
g1642
sbsg1737
(iconstruction
TP_SYNFORM
p2626
(dp2627
g556
I150
sg1740
(lp2628
(iconstruction
TP_SLOT
p2629
(dp2630
g1744
(lp2631
VN
p2632
asg1747
I0
sg556
I160
sg39
g2571
sba(iconstruction
TP_PHON
p2633
(dp2634
g1750
I4
sg1747
I1
sg556
I161
sg1751
Vthat
p2635
sg39
VS2_161
p2636
sba(iconstruction
TP_SLOT
p2637
(dp2638
g1744
(lp2639
VVP
p2640
aVV
p2641
asg1747
I2
sg556
I162
sg39
g2573
sba(iconstruction
TP_SLOT
p2642
(dp2643
g1744
(lp2644
VNP
p2645
aVN
p2646
asg1747
I3
sg556
I163
sg39
g2575
sbasg39
g1642
sbsg1758
I1
sba(iconstruction
CXN
p2647
(dp2648
g1700
(iconstruction
TP_SYMLINKS
p2649
(dp2650
g1703
(dp2651
VAGT_169
p2652
VS1_173
p2653
sVACT_168
p2654
VS3_175
p2655
ssg556
I166
sg39
g1642
sbsg1709
VN
p2656
sg1711
I2
sg39
VSUBJ_REL_SV
p2657
sg1712
(iconstruction
TP_SEMFRAME
p2658
(dp2659
g69
g0
(g70
g2
Ntp2660
Rp2661
(dp2662
g74
(dp2663
(iconstruction
TP_NODE
p2664
(dp2665
g1721
I00
sg58
g711
sg39
VEVT_167
p2666
sg1722
I01
sg1723
I00
sg556
I167
sb(dp2667
g1722
I01
sg58
g711
ss(iconstruction
TP_NODE
p2668
(dp2669
g1721
I01
sg58
g714
sg39
g2652
sg1722
I01
sg1723
I00
sg556
I169
sb(dp2670
g1722
I01
sg58
g714
ss(iconstruction
TP_NODE
p2671
(dp2672
g1721
I00
sg58
g558
sg39
g2654
sg1722
I01
sg1723
I01
sg556
I168
sb(dp2673
g1722
I01
sg58
g558
sssg257
g258
sg259
g258
sg260
(dp2674
g2664
(dp2675
g2671
(dp2676
g58
g705
sssg2668
(dp2677
g2664
(dp2678
g58
g663
sssg2671
(dp2679
g2668
(dp2680
g58
g684
ssssg454
g2674
sg69
(dp2681
sg456
g258
sg457
g2674
sg458
(dp2682
g2664
(dp2683
g2668
g2678
ssg2668
(dp2684
g2671
g2680
ssg2671
(dp2685
g2664
g2676
sssbsg551
(lp2686
g2664
ag2671
ag2668
asg824
(lp2687
(iconstruction
TP_REL
p2688
(dp2689
g830
g2671
sg58
g705
sg556
I170
sg831
g2664
sg39
VIS_170
p2690
sba(iconstruction
TP_REL
p2691
(dp2692
g830
g2668
sg58
g684
sg556
I171
sg831
g2671
sg39
VACT_AGT_171
p2693
sba(iconstruction
TP_REL
p2694
(dp2695
g830
g2664
sg58
g663
sg556
I172
sg831
g2668
sg39
VAGT_EVT_172
p2696
sbasg556
I164
sg39
g1642
sbsg1737
(iconstruction
TP_SYNFORM
p2697
(dp2698
g556
I165
sg1740
(lp2699
(iconstruction
TP_SLOT
p2700
(dp2701
g1744
(lp2702
VN
p2703
asg1747
I0
sg556
I173
sg39
g2653
sba(iconstruction
TP_PHON
p2704
(dp2705
g1750
I4
sg1747
I1
sg556
I174
sg1751
Vthat
p2706
sg39
VS2_174
p2707
sba(iconstruction
TP_SLOT
p2708
(dp2709
g1744
(lp2710
VVP
p2711
aVV
p2712
asg1747
I2
sg556
I175
sg39
g2655
sbasg39
g1642
sbsg1758
I1
sba(iconstruction
CXN
p2713
(dp2714
g1700
(iconstruction
TP_SYMLINKS
p2715
(dp2716
g1703
(dp2717
VAGT_181
p2718
VS7_193
p2719
sVPT_182
p2720
VS1_187
p2721
sVACT_180
p2722
VS4_190
p2723
ssg556
I178
sg39
g1642
sbsg1709
VN
p2724
sg1711
I2
sg39
VSUBJ_REL_PAS_SVO
p2725
sg1712
(iconstruction
TP_SEMFRAME
p2726
(dp2727
g69
g0
(g70
g2
Ntp2728
Rp2729
(dp2730
g74
(dp2731
(iconstruction
TP_NODE
p2732
(dp2733
g1721
I00
sg58
g711
sg39
VEVT_179
p2734
sg1722
I01
sg1723
I00
sg556
I179
sb(dp2735
g1722
I01
sg58
g711
ss(iconstruction
TP_NODE
p2736
(dp2737
g1721
I00
sg58
g714
sg39
g2718
sg1722
I01
sg1723
I00
sg556
I181
sb(dp2738
g1722
I01
sg58
g714
ss(iconstruction
TP_NODE
p2739
(dp2740
g1721
I01
sg58
g714
sg39
g2720
sg1722
I01
sg1723
I00
sg556
I182
sb(dp2741
g1722
I01
sg58
g714
ss(iconstruction
TP_NODE
p2742
(dp2743
g1721
I00
sg58
g558
sg39
g2722
sg1722
I01
sg1723
I01
sg556
I180
sb(dp2744
g1722
I01
sg58
g558
sssg257
g258
sg259
g258
sg260
(dp2745
g2732
(dp2746
g2742
(dp2747
g58
g705
sssg2736
(dp2748
sg2739
(dp2749
g2732
(dp2750
g58
g663
sssg2742
(dp2751
g2736
(dp2752
g58
g684
ssg2739
(dp2753
g58
g678
ssssg454
g2745
sg69
(dp2754
sg456
g258
sg457
g2745
sg458
(dp2755
g2732
(dp2756
g2739
g2750
ssg2736
(dp2757
g2742
g2752
ssg2739
(dp2758
g2742
g2753
ssg2742
(dp2759
g2732
g2747
sssbsg551
(lp2760
g2732
ag2742
ag2736
ag2739
asg824
(lp2761
(iconstruction
TP_REL
p2762
(dp2763
g830
g2742
sg58
g705
sg556
I183
sg831
g2732
sg39
VIS_183
p2764
sba(iconstruction
TP_REL
p2765
(dp2766
g830
g2736
sg58
g684
sg556
I184
sg831
g2742
sg39
VACT_AGT_184
p2767
sba(iconstruction
TP_REL
p2768
(dp2769
g830
g2739
sg58
g678
sg556
I185
sg831
g2742
sg39
VACT_PT_185
p2770
sba(iconstruction
TP_REL
p2771
(dp2772
g830
g2732
sg58
g663
sg556
I186
sg831
g2739
sg39
VPT_EVT_186
p2773
sbasg556
I176
sg39
g1642
sbsg1737
(iconstruction
TP_SYNFORM
p2774
(dp2775
g556
I177
sg1740
(lp2776
(iconstruction
TP_SLOT
p2777
(dp2778
g1744
(lp2779
VN
p2780
asg1747
I0
sg556
I187
sg39
g2721
sba(iconstruction
TP_PHON
p2781
(dp2782
g1750
I4
sg1747
I1
sg556
I188
sg1751
Vthat
p2783
sg39
VS2_188
p2784
sba(iconstruction
TP_PHON
p2785
(dp2786
g1750
I2
sg1747
I2
sg556
I189
sg1751
Vis
p2787
sg39
VS3_189
p2788
sba(iconstruction
TP_SLOT
p2789
(dp2790
g1744
(lp2791
VVP
p2792
aVV
p2793
asg1747
I3
sg556
I190
sg39
g2723
sba(iconstruction
TP_PHON
p2794
(dp2795
g1750
I2
sg1747
I4
sg556
I191
sg1751
V-ed
p2796
sg39
VS5_191
p2797
sba(iconstruction
TP_PHON
p2798
(dp2799
g1750
I2
sg1747
I5
sg556
I192
sg1751
Vby
p2800
sg39
VS6_192
p2801
sba(iconstruction
TP_SLOT
p2802
(dp2803
g1744
(lp2804
VNP
p2805
aVN
p2806
asg1747
I6
sg556
I193
sg39
g2719
sbasg39
g1642
sbsg1758
I1
sba(iconstruction
CXN
p2807
(dp2808
g1700
(iconstruction
TP_SYMLINKS
p2809
(dp2810
g1703
(dp2811
VAGT_199
p2812
VS3_207
p2813
sVACT_198
p2814
VS4_208
p2815
sVPT_200
p2816
VS1_205
p2817
ssg556
I196
sg39
g1642
sbsg1709
VN
p2818
sg1711
I2
sg39
VOBJ_REL_SVO
p2819
sg1712
(iconstruction
TP_SEMFRAME
p2820
(dp2821
g69
g0
(g70
g2
Ntp2822
Rp2823
(dp2824
g74
(dp2825
(iconstruction
TP_NODE
p2826
(dp2827
g1721
I00
sg58
g711
sg39
VEVT_197
p2828
sg1722
I01
sg1723
I00
sg556
I197
sb(dp2829
g1722
I01
sg58
g711
ss(iconstruction
TP_NODE
p2830
(dp2831
g1721
I00
sg58
g714
sg39
g2812
sg1722
I01
sg1723
I00
sg556
I199
sb(dp2832
g1722
I01
sg58
g714
ss(iconstruction
TP_NODE
p2833
(dp2834
g1721
I01
sg58
g714
sg39
g2816
sg1722
I01
sg1723
I00
sg556
I200
sb(dp2835
g1722
I01
sg58
g714
ss(iconstruction
TP_NODE
p2836
(dp2837
g1721
I00
sg58
g558
sg39
g2814
sg1722
I01
sg1723
I01
sg556
I198
sb(dp2838
g1722
I01
sg58
g558
sssg257
g258
sg259
g258
sg260
(dp2839
g2826
(dp2840
g2836
(dp2841
g58
g705
sssg2830
(dp2842
sg2833
(dp2843
g2826
(dp2844
g58
g663
sssg2836
(dp2845
g2830
(dp2846
g58
g684
ssg2833
(dp2847
g58
g678
ssssg454
g2839
sg69
(dp2848
sg456
g258
sg457
g2839
sg458
(dp2849
g2826
(dp2850
g2833
g2844
ssg2830
(dp2851
g2836
g2846
ssg2833
(dp2852
g2836
g2847
ssg2836
(dp2853
g2826
g2841
sssbsg551
(lp2854
g2826
ag2836
ag2830
ag2833
asg824
(lp2855
(iconstruction
TP_REL
p2856
(dp2857
g830
g2836
sg58
g705
sg556
I201
sg831
g2826
sg39
VIS_201
p2858
sba(iconstruction
TP_REL
p2859
(dp2860
g830
g2830
sg58
g684
sg556
I202
sg831
g2836
sg39
VACT_AGT_202
p2861
sba(iconstruction
TP_REL
p2862
(dp2863
g830
g2833
sg58
g678
sg556
I203
sg831
g2836
sg39
VACT_PT_203
p2864
sba(iconstruction
TP_REL
p2865
(dp2866
g830
g2826
sg58
g663
sg556
I204
sg831
g2833
sg39
VPT_EVT_204
p2867
sbasg556
I194
sg39
g1642
sbsg1737
(iconstruction
TP_SYNFORM
p2868
(dp2869
g556
I195
sg1740
(lp2870
(iconstruction
TP_SLOT
p2871
(dp2872
g1744
(lp2873
VN
p2874
asg1747
I0
sg556
I205
sg39
g2817
sba(iconstruction
TP_PHON
p2875
(dp2876
g1750
I4
sg1747
I1
sg556
I206
sg1751
Vthat
p2877
sg39
VS2_206
p2878
sba(iconstruction
TP_SLOT
p2879
(dp2880
g1744
(lp2881
VNP
p2882
aVN
p2883
asg1747
I2
sg556
I207
sg39
g2813
sba(iconstruction
TP_SLOT
p2884
(dp2885
g1744
(lp2886
VVP
p2887
aVV
p2888
asg1747
I3
sg556
I208
sg39
g2815
sbasg39
g1642
sbsg1758
I1
sba(iconstruction
CXN
p2889
(dp2890
g1700
(iconstruction
TP_SYMLINKS
p2891
(dp2892
g1703
(dp2893
VPT_215
p2894
VS3_222
p2895
sVACT_213
p2896
VS5_224
p2897
sVAGT_214
p2898
VS1_220
p2899
ssg556
I211
sg39
g1642
sbsg1709
VN
p2900
sg1711
I2
sg39
VOBJ_REL_PAS_SVO
p2901
sg1712
(iconstruction
TP_SEMFRAME
p2902
(dp2903
g69
g0
(g70
g2
Ntp2904
Rp2905
(dp2906
g74
(dp2907
(iconstruction
TP_NODE
p2908
(dp2909
g1721
I00
sg58
g711
sg39
VEVT_212
p2910
sg1722
I01
sg1723
I00
sg556
I212
sb(dp2911
g1722
I01
sg58
g711
ss(iconstruction
TP_NODE
p2912
(dp2913
g1721
I01
sg58
g714
sg39
g2898
sg1722
I01
sg1723
I00
sg556
I214
sb(dp2914
g1722
I01
sg58
g714
ss(iconstruction
TP_NODE
p2915
(dp2916
g1721
I00
sg58
g558
sg39
g2896
sg1722
I01
sg1723
I01
sg556
I213
sb(dp2917
g1722
I01
sg58
g558
ss(iconstruction
TP_NODE
p2918
(dp2919
g1721
I00
sg58
g714
sg39
g2894
sg1722
I01
sg1723
I00
sg556
I215
sb(dp2920
g1722
I01
sg58
g714
sssg257
g258
sg259
g258
sg260
(dp2921
g2908
(dp2922
g2915
(dp2923
g58
g705
sssg2912
(dp2924
g2908
(dp2925
g58
g663
sssg2915
(dp2926
g2912
(dp2927
g58
g684
ssg2918
(dp2928
g58
g678
sssg2918
(dp2929
ssg454
g2921
sg69
(dp2930
sg456
g258
sg457
g2921
sg458
(dp2931
g2908
(dp2932
g2912
g2925
ssg2912
(dp2933
g2915
g2927
ssg2915
(dp2934
g2908
g2923
ssg2918
(dp2935
g2915
g2928
sssbsg551
(lp2936
g2908
ag2915
ag2912
ag2918
asg824
(lp2937
(iconstruction
TP_REL
p2938
(dp2939
g830
g2915
sg58
g705
sg556
I216
sg831
g2908
sg39
VIS_216
p2940
sba(iconstruction
TP_REL
p2941
(dp2942
g830
g2912
sg58
g684
sg556
I217
sg831
g2915
sg39
VACT_AGT_217
p2943
sba(iconstruction
TP_REL
p2944
(dp2945
g830
g2918
sg58
g678
sg556
I218
sg831
g2915
sg39
VACT_PT_218
p2946
sba(iconstruction
TP_REL
p2947
(dp2948
g830
g2908
sg58
g663
sg556
I219
sg831
g2912
sg39
VAGT_EVT_219
p2949
sbasg556
I209
sg39
g1642
sbsg1737
(iconstruction
TP_SYNFORM
p2950
(dp2951
g556
I210
sg1740
(lp2952
(iconstruction
TP_SLOT
p2953
(dp2954
g1744
(lp2955
VN
p2956
asg1747
I0
sg556
I220
sg39
g2899
sba(iconstruction
TP_PHON
p2957
(dp2958
g1750
I4
sg1747
I1
sg556
I221
sg1751
Vthat
p2959
sg39
VS2_221
p2960
sba(iconstruction
TP_SLOT
p2961
(dp2962
g1744
(lp2963
VNP
p2964
aVN
p2965
asg1747
I2
sg556
I222
sg39
g2895
sba(iconstruction
TP_PHON
p2966
(dp2967
g1750
I2
sg1747
I3
sg556
I223
sg1751
Vis
p2968
sg39
VS4_223
p2969
sba(iconstruction
TP_SLOT
p2970
(dp2971
g1744
(lp2972
VVP
p2973
aVV
p2974
asg1747
I4
sg556
I224
sg39
g2897
sba(iconstruction
TP_PHON
p2975
(dp2976
g1750
I2
sg1747
I5
sg556
I225
sg1751
V-ed
p2977
sg39
VS6_225
p2978
sba(iconstruction
TP_PHON
p2979
(dp2980
g1750
I2
sg1747
I6
sg556
I226
sg1751
Vby
p2981
sg39
VS7_226
p2982
sbasg39
g1642
sbsg1758
I1
sba(iconstruction
CXN
p2983
(dp2984
g1700
(iconstruction
TP_SYMLINKS
p2985
(dp2986
g1703
(dp2987
VATTR_232
p2988
VS4_238
p2989
sVENT_231
p2990
VS1_235
p2991
ssg556
I229
sg39
g1642
sbsg1709
VN
p2992
sg1711
I2
sg39
VREL_SPA
p2993
sg1712
(iconstruction
TP_SEMFRAME
p2994
(dp2995
g69
g0
(g70
g2
Ntp2996
Rp2997
(dp2998
g74
(dp2999
(iconstruction
TP_NODE
p3000
(dp3001
g1721
I00
sg58
g711
sg39
VEVT_230
p3002
sg1722
I01
sg1723
I00
sg556
I230
sb(dp3003
g1722
I01
sg58
g711
ss(iconstruction
TP_NODE
p3004
(dp3005
g1721
I00
sg58
g615
sg39
g2988
sg1722
I00
sg1723
I00
sg556
I232
sb(dp3006
g1722
I00
sg58
g615
ss(iconstruction
TP_NODE
p3007
(dp3008
g1721
I01
sg58
g714
sg39
g2990
sg1722
I01
sg1723
I01
sg556
I231
sb(dp3009
g1722
I01
sg58
g714
sssg257
g258
sg259
g258
sg260
(dp3010
g3000
(dp3011
g3004
(dp3012
g58
g663
ssg3007
(dp3013
g58
g705
sssg3004
(dp3014
sg3007
(dp3015
ssg454
g3010
sg69
(dp3016
sg456
g258
sg457
g3010
sg458
(dp3017
g3000
(dp3018
sg3004
(dp3019
g3000
g3012
ssg3007
(dp3020
g3000
g3013
sssbsg551
(lp3021
g3000
ag3007
ag3004
asg824
(lp3022
(iconstruction
TP_REL
p3023
(dp3024
g830
g3007
sg58
g705
sg556
I233
sg831
g3000
sg39
VIS_233
p3025
sba(iconstruction
TP_REL
p3026
(dp3027
g830
g3004
sg58
g663
sg556
I234
sg831
g3000
sg39
VEVT_ATTR_234
p3028
sbasg556
I227
sg39
g1642
sbsg1737
(iconstruction
TP_SYNFORM
p3029
(dp3030
g556
I228
sg1740
(lp3031
(iconstruction
TP_SLOT
p3032
(dp3033
g1744
(lp3034
VN
p3035
asg1747
I0
sg556
I235
sg39
g2991
sba(iconstruction
TP_PHON
p3036
(dp3037
g1750
I4
sg1747
I1
sg556
I236
sg1751
Vthat
p3038
sg39
VS2_236
p3039
sba(iconstruction
TP_PHON
p3040
(dp3041
g1750
I2
sg1747
I2
sg556
I237
sg1751
Vis
p3042
sg39
VS3_237
p3043
sba(iconstruction
TP_SLOT
p3044
(dp3045
g1744
(lp3046
VA
p3047
asg1747
I3
sg556
I238
sg39
g2989
sbasg39
g1642
sbsg1758
I1
sba(iconstruction
CXN
p3048
(dp3049
g1700
(iconstruction
TP_SYMLINKS
p3050
(dp3051
g1703
(dp3052
VAGT_244
p3053
VS1_251
p3054
sVCOLOR_246
p3055
VS3_253
p3056
ssg556
I241
sg39
g1642
sbsg1709
VN
p3057
sg1711
I2
sg39
VIN_COLOR
p3058
sg1712
(iconstruction
TP_SEMFRAME
p3059
(dp3060
g69
g0
(g70
g2
Ntp3061
Rp3062
(dp3063
g74
(dp3064
(iconstruction
TP_NODE
p3065
(dp3066
g1721
I00
sg58
g711
sg39
VEVT_242
p3067
sg1722
I01
sg1723
I00
sg556
I242
sb(dp3068
g1722
I01
sg58
g711
ss(iconstruction
TP_NODE
p3069
(dp3070
g1721
I01
sg58
g723
sg39
g3053
sg1722
I01
sg1723
I00
sg556
I244
sb(dp3071
g1722
I01
sg58
g723
ss(iconstruction
TP_NODE
p3072
(dp3073
g1721
I00
sg58
g603
sg39
VACT_243
p3074
sg1722
I01
sg1723
I00
sg556
I243
sb(dp3075
g1722
I01
sg58
g603
ss(iconstruction
TP_NODE
p3076
(dp3077
g1721
I00
sg58
g618
sg39
g3055
sg1722
I00
sg1723
I01
sg556
I246
sb(dp3078
g1722
I00
sg58
g618
ss(iconstruction
TP_NODE
p3079
(dp3080
g1721
I00
sg58
g753
sg39
VPT_245
p3081
sg1722
I01
sg1723
I00
sg556
I245
sb(dp3082
g1722
I01
sg58
g753
sssg257
g258
sg259
g258
sg260
(dp3083
g3065
(dp3084
g3072
(dp3085
g58
g705
sssg3069
(dp3086
sg3072
(dp3087
g3069
(dp3088
g58
g684
ssg3079
(dp3089
g58
g678
sssg3076
(dp3090
sg3079
(dp3091
g3076
(dp3092
g58
g663
ssssg454
g3083
sg69
(dp3093
sg456
g258
sg457
g3083
sg458
(dp3094
g3065
(dp3095
sg3069
(dp3096
g3072
g3088
ssg3072
(dp3097
g3065
g3085
ssg3076
(dp3098
g3079
g3092
ssg3079
(dp3099
g3072
g3089
sssbsg551
(lp3100
g3065
ag3072
ag3069
ag3079
ag3076
asg824
(lp3101
(iconstruction
TP_REL
p3102
(dp3103
g830
g3072
sg58
g705
sg556
I247
sg831
g3065
sg39
VIS_247
p3104
sba(iconstruction
TP_REL
p3105
(dp3106
g830
g3069
sg58
g684
sg556
I248
sg831
g3072
sg39
VACT_AGT_248
p3107
sba(iconstruction
TP_REL
p3108
(dp3109
g830
g3079
sg58
g678
sg556
I249
sg831
g3072
sg39
VACT_PT_249
p3110
sba(iconstruction
TP_REL
p3111
(dp3112
g830
g3076
sg58
g663
sg556
I250
sg831
g3079
sg39
VPT_COLOR_250
p3113
sbasg556
I239
sg39
g1642
sbsg1737
(iconstruction
TP_SYNFORM
p3114
(dp3115
g556
I240
sg1740
(lp3116
(iconstruction
TP_SLOT
p3117
(dp3118
g1744
(lp3119
VN
p3120
asg1747
I0
sg556
I251
sg39
g3054
sba(iconstruction
TP_PHON
p3121
(dp3122
g1750
I2
sg1747
I1
sg556
I252
sg1751
Vin
p3123
sg39
VS2_252
p3124
sba(iconstruction
TP_SLOT
p3125
(dp3126
g1744
(lp3127
VA
p3128
asg1747
I2
sg556
I253
sg39
g3056
sbasg39
g1642
sbsg1758
I1
sba(iconstruction
CXN
p3129
(dp3130
g1700
(iconstruction
TP_SYMLINKS
p3131
(dp3132
g1703
(dp3133
VN1_258
p3134
VS1_260
p3135
ssg556
I256
sg39
g1642
sbsg1709
VV
p3136
sg1711
I1
sg39
VHIT
p3137
sg1712
(iconstruction
TP_SEMFRAME
p3138
(dp3139
g69
g0
(g70
g2
Ntp3140
Rp3141
(dp3142
g74
(dp3143
(iconstruction
TP_NODE
p3144
(dp3145
g1721
I00
sg58
g579
sg39
g3134
sg1722
I00
sg1723
I00
sg556
I258
sb(dp3146
g1722
I00
sg58
g579
ss(iconstruction
TP_NODE
p3147
(dp3148
g1721
I01
sg58
g558
sg39
VACT_257
p3149
sg1722
I01
sg1723
I00
sg556
I257
sb(dp3150
g1722
I01
sg58
g558
sssg257
g258
sg259
g258
sg260
(dp3151
g3144
(dp3152
sg3147
(dp3153
g3144
(dp3154
g58
g705
ssssg454
g3151
sg69
(dp3155
sg456
g258
sg457
g3151
sg458
(dp3156
g3144
(dp3157
g3147
g3154
ssg3147
(dp3158
ssbsg551
(lp3159
g3147
ag3144
asg824
(lp3160
(iconstruction
TP_REL
p3161
(dp3162
g830
g3144
sg58
g705
sg556
I259
sg831
g3147
sg39
VIS_259
p3163
sbasg556
I254
sg39
g1642
sbsg1737
(iconstruction
TP_SYNFORM
p3164
(dp3165
g556
I255
sg1740
(lp3166
(iconstruction
TP_PHON
p3167
(dp3168
g1750
I3
sg1747
I0
sg556
I260
sg1751
Vhit
p3169
sg39
g3135
sbasg39
g1642
sbsg1758
I1
sba(iconstruction
CXN
p3170
(dp3171
g1700
(iconstruction
TP_SYMLINKS
p3172
(dp3173
g1703
(dp3174
VN1_265
p3175
VS1_267
p3176
ssg556
I263
sg39
g1642
sbsg1709
VV
p3177
sg1711
I1
sg39
VKICK
p3178
sg1712
(iconstruction
TP_SEMFRAME
p3179
(dp3180
g69
g0
(g70
g2
Ntp3181
Rp3182
(dp3183
g74
(dp3184
(iconstruction
TP_NODE
p3185
(dp3186
g1721
I00
sg58
g600
sg39
g3175
sg1722
I00
sg1723
I00
sg556
I265
sb(dp3187
g1722
I00
sg58
g600
ss(iconstruction
TP_NODE
p3188
(dp3189
g1721
I01
sg58
g558
sg39
VACT_264
p3190
sg1722
I01
sg1723
I00
sg556
I264
sb(dp3191
g1722
I01
sg58
g558
sssg257
g258
sg259
g258
sg260
(dp3192
g3185
(dp3193
sg3188
(dp3194
g3185
(dp3195
g58
g705
ssssg454
g3192
sg69
(dp3196
sg456
g258
sg457
g3192
sg458
(dp3197
g3185
(dp3198
g3188
g3195
ssg3188
(dp3199
ssbsg551
(lp3200
g3188
ag3185
asg824
(lp3201
(iconstruction
TP_REL
p3202
(dp3203
g830
g3185
sg58
g705
sg556
I266
sg831
g3188
sg39
VIS_266
p3204
sbasg556
I261
sg39
g1642
sbsg1737
(iconstruction
TP_SYNFORM
p3205
(dp3206
g556
I262
sg1740
(lp3207
(iconstruction
TP_PHON
p3208
(dp3209
g1750
I4
sg1747
I0
sg556
I267
sg1751
Vkick
p3210
sg39
g3176
sbasg39
g1642
sbsg1758
I1
sba(iconstruction
CXN
p3211
(dp3212
g1700
(iconstruction
TP_SYMLINKS
p3213
(dp3214
g1703
(dp3215
VN1_272
p3216
VS1_274
p3217
ssg556
I270
sg39
g1642
sbsg1709
VV
p3218
sg1711
I1
sg39
VPUNCH
p3219
sg1712
(iconstruction
TP_SEMFRAME
p3220
(dp3221
g69
g0
(g70
g2
Ntp3222
Rp3223
(dp3224
g74
(dp3225
(iconstruction
TP_NODE
p3226
(dp3227
g1721
I01
sg58
g558
sg39
VACT_271
p3228
sg1722
I01
sg1723
I00
sg556
I271
sb(dp3229
g1722
I01
sg58
g558
ss(iconstruction
TP_NODE
p3230
(dp3231
g1721
I00
sg58
g585
sg39
g3216
sg1722
I00
sg1723
I00
sg556
I272
sb(dp3232
g1722
I00
sg58
g585
sssg257
g258
sg259
g258
sg260
(dp3233
g3226
(dp3234
g3230
(dp3235
g58
g705
sssg3230
(dp3236
ssg454
g3233
sg69
(dp3237
sg456
g258
sg457
g3233
sg458
(dp3238
g3226
(dp3239
sg3230
(dp3240
g3226
g3235
sssbsg551
(lp3241
g3226
ag3230
asg824
(lp3242
(iconstruction
TP_REL
p3243
(dp3244
g830
g3230
sg58
g705
sg556
I273
sg831
g3226
sg39
VIS_273
p3245
sbasg556
I268
sg39
g1642
sbsg1737
(iconstruction
TP_SYNFORM
p3246
(dp3247
g556
I269
sg1740
(lp3248
(iconstruction
TP_PHON
p3249
(dp3250
g1750
I5
sg1747
I0
sg556
I274
sg1751
Vpunch
p3251
sg39
g3217
sbasg39
g1642
sbsg1758
I1
sba(iconstruction
CXN
p3252
(dp3253
g1700
(iconstruction
TP_SYMLINKS
p3254
(dp3255
g1703
(dp3256
VN1_279
p3257
VS1_281
p3258
ssg556
I277
sg39
g1642
sbsg1709
VV
p3259
sg1711
I1
sg39
VWEAR
p3260
sg1712
(iconstruction
TP_SEMFRAME
p3261
(dp3262
g69
g0
(g70
g2
Ntp3263
Rp3264
(dp3265
g74
(dp3266
(iconstruction
TP_NODE
p3267
(dp3268
g1721
I00
sg58
g603
sg39
g3257
sg1722
I00
sg1723
I00
sg556
I279
sb(dp3269
g1722
I00
sg58
g603
ss(iconstruction
TP_NODE
p3270
(dp3271
g1721
I01
sg58
g558
sg39
VACT_278
p3272
sg1722
I01
sg1723
I00
sg556
I278
sb(dp3273
g1722
I01
sg58
g558
sssg257
g258
sg259
g258
sg260
(dp3274
g3267
(dp3275
sg3270
(dp3276
g3267
(dp3277
g58
g705
ssssg454
g3274
sg69
(dp3278
sg456
g258
sg457
g3274
sg458
(dp3279
g3267
(dp3280
g3270
g3277
ssg3270
(dp3281
ssbsg551
(lp3282
g3270
ag3267
asg824
(lp3283
(iconstruction
TP_REL
p3284
(dp3285
g830
g3267
sg58
g705
sg556
I280
sg831
g3270
sg39
VIS_280
p3286
sbasg556
I275
sg39
g1642
sbsg1737
(iconstruction
TP_SYNFORM
p3287
(dp3288
g556
I276
sg1740
(lp3289
(iconstruction
TP_PHON
p3290
(dp3291
g1750
I4
sg1747
I0
sg556
I281
sg1751
Vwear
p3292
sg39
g3258
sbasg39
g1642
sbsg1758
I1
sba(iconstruction
CXN
p3293
(dp3294
g1700
(iconstruction
TP_SYMLINKS
p3295
(dp3296
g1703
(dp3297
VN1_286
p3298
VS1_288
p3299
ssg556
I284
sg39
g1642
sbsg1709
VV
p3300
sg1711
I1
sg39
VLAUGH
p3301
sg1712
(iconstruction
TP_SEMFRAME
p3302
(dp3303
g69
g0
(g70
g2
Ntp3304
Rp3305
(dp3306
g74
(dp3307
(iconstruction
TP_NODE
p3308
(dp3309
g1721
I01
sg58
g558
sg39
VACT_285
p3310
sg1722
I01
sg1723
I00
sg556
I285
sb(dp3311
g1722
I01
sg58
g558
ss(iconstruction
TP_NODE
p3312
(dp3313
g1721
I00
sg58
g573
sg39
g3298
sg1722
I00
sg1723
I00
sg556
I286
sb(dp3314
g1722
I00
sg58
g573
sssg257
g258
sg259
g258
sg260
(dp3315
g3308
(dp3316
g3312
(dp3317
g58
g705
sssg3312
(dp3318
ssg454
g3315
sg69
(dp3319
sg456
g258
sg457
g3315
sg458
(dp3320
g3308
(dp3321
sg3312
(dp3322
g3308
g3317
sssbsg551
(lp3323
g3308
ag3312
asg824
(lp3324
(iconstruction
TP_REL
p3325
(dp3326
g830
g3312
sg58
g705
sg556
I287
sg831
g3308
sg39
VIS_287
p3327
sbasg556
I282
sg39
g1642
sbsg1737
(iconstruction
TP_SYNFORM
p3328
(dp3329
g556
I283
sg1740
(lp3330
(iconstruction
TP_PHON
p3331
(dp3332
g1750
I5
sg1747
I0
sg556
I288
sg1751
Vlaugh
p3333
sg39
g3299
sbasg39
g1642
sbsg1758
I1
sba(iconstruction
CXN
p3334
(dp3335
g1700
(iconstruction
TP_SYMLINKS
p3336
(dp3337
g1703
(dp3338
VN1_293
p3339
VS1_295
p3340
ssg556
I291
sg39
g1642
sbsg1709
VV
p3341
sg1711
I1
sg39
VWATCH
p3342
sg1712
(iconstruction
TP_SEMFRAME
p3343
(dp3344
g69
g0
(g70
g2
Ntp3345
Rp3346
(dp3347
g74
(dp3348
(iconstruction
TP_NODE
p3349
(dp3350
g1721
I00
sg58
g582
sg39
g3339
sg1722
I00
sg1723
I00
sg556
I293
sb(dp3351
g1722
I00
sg58
g582
ss(iconstruction
TP_NODE
p3352
(dp3353
g1721
I01
sg58
g558
sg39
VACT_292
p3354
sg1722
I01
sg1723
I00
sg556
I292
sb(dp3355
g1722
I01
sg58
g558
sssg257
g258
sg259
g258
sg260
(dp3356
g3349
(dp3357
sg3352
(dp3358
g3349
(dp3359
g58
g705
ssssg454
g3356
sg69
(dp3360
sg456
g258
sg457
g3356
sg458
(dp3361
g3349
(dp3362
g3352
g3359
ssg3352
(dp3363
ssbsg551
(lp3364
g3352
ag3349
asg824
(lp3365
(iconstruction
TP_REL
p3366
(dp3367
g830
g3349
sg58
g705
sg556
I294
sg831
g3352
sg39
VIS_294
p3368
sbasg556
I289
sg39
g1642
sbsg1737
(iconstruction
TP_SYNFORM
p3369
(dp3370
g556
I290
sg1740
(lp3371
(iconstruction
TP_PHON
p3372
(dp3373
g1750
I5
sg1747
I0
sg556
I295
sg1751
Vwatch
p3374
sg39
g3340
sbasg39
g1642
sbsg1758
I1
sba(iconstruction
CXN
p3375
(dp3376
g1700
(iconstruction
TP_SYMLINKS
p3377
(dp3378
g1703
(dp3379
VN1_300
p3380
VS1_302
p3381
ssg556
I298
sg39
g1642
sbsg1709
VV
p3382
sg1711
I1
sg39
VTALK
p3383
sg1712
(iconstruction
TP_SEMFRAME
p3384
(dp3385
g69
g0
(g70
g2
Ntp3386
Rp3387
(dp3388
g74
(dp3389
(iconstruction
TP_NODE
p3390
(dp3391
g1721
I00
sg58
g591
sg39
g3380
sg1722
I00
sg1723
I00
sg556
I300
sb(dp3392
g1722
I00
sg58
g591
ss(iconstruction
TP_NODE
p3393
(dp3394
g1721
I01
sg58
g558
sg39
VACT_299
p3395
sg1722
I01
sg1723
I00
sg556
I299
sb(dp3396
g1722
I01
sg58
g558
sssg257
g258
sg259
g258
sg260
(dp3397
g3390
(dp3398
sg3393
(dp3399
g3390
(dp3400
g58
g705
ssssg454
g3397
sg69
(dp3401
sg456
g258
sg457
g3397
sg458
(dp3402
g3390
(dp3403
g3393
g3400
ssg3393
(dp3404
ssbsg551
(lp3405
g3393
ag3390
asg824
(lp3406
(iconstruction
TP_REL
p3407
(dp3408
g830
g3390
sg58
g705
sg556
I301
sg831
g3393
sg39
VIS_301
p3409
sbasg556
I296
sg39
g1642
sbsg1737
(iconstruction
TP_SYNFORM
p3410
(dp3411
g556
I297
sg1740
(lp3412
(iconstruction
TP_PHON
p3413
(dp3414
g1750
I4
sg1747
I0
sg556
I302
sg1751
Vtalk
p3415
sg39
g3381
sba(iconstruction
TP_PHON
p3416
(dp3417
g1750
I2
sg1747
I1
sg556
I303
sg1751
Vto
p3418
sg39
VS2_303
p3419
sbasg39
g1642
sbsg1758
I1
sba(iconstruction
CXN
p3420
(dp3421
g1700
(iconstruction
TP_SYMLINKS
p3422
(dp3423
g1703
(dp3424
VN1_308
p3425
VS1_310
p3426
ssg556
I306
sg39
g1642
sbsg1709
VV
p3427
sg1711
I1
sg39
VSQUIRT
p3428
sg1712
(iconstruction
TP_SEMFRAME
p3429
(dp3430
g69
g0
(g70
g2
Ntp3431
Rp3432
(dp3433
g74
(dp3434
(iconstruction
TP_NODE
p3435
(dp3436
g1721
I00
sg58
g597
sg39
g3425
sg1722
I00
sg1723
I00
sg556
I308
sb(dp3437
g1722
I00
sg58
g597
ss(iconstruction
TP_NODE
p3438
(dp3439
g1721
I01
sg58
g558
sg39
VACT_307
p3440
sg1722
I01
sg1723
I00
sg556
I307
sb(dp3441
g1722
I01
sg58
g558
sssg257
g258
sg259
g258
sg260
(dp3442
g3435
(dp3443
sg3438
(dp3444
g3435
(dp3445
g58
g705
ssssg454
g3442
sg69
(dp3446
sg456
g258
sg457
g3442
sg458
(dp3447
g3435
(dp3448
g3438
g3445
ssg3438
(dp3449
ssbsg551
(lp3450
g3438
ag3435
asg824
(lp3451
(iconstruction
TP_REL
p3452
(dp3453
g830
g3435
sg58
g705
sg556
I309
sg831
g3438
sg39
VIS_309
p3454
sbasg556
I304
sg39
g1642
sbsg1737
(iconstruction
TP_SYNFORM
p3455
(dp3456
g556
I305
sg1740
(lp3457
(iconstruction
TP_PHON
p3458
(dp3459
g1750
I6
sg1747
I0
sg556
I310
sg1751
Vsquirt
p3460
sg39
g3426
sba(iconstruction
TP_PHON
p3461
(dp3462
g1750
I2
sg1747
I1
sg556
I311
sg1751
Vat
p3463
sg39
VS2_311
p3464
sbasg39
g1642
sbsg1758
I1
sba(iconstruction
CXN
p3465
(dp3466
g1700
(iconstruction
TP_SYMLINKS
p3467
(dp3468
g1703
(dp3469
VN1_316
p3470
VS1_318
p3471
ssg556
I314
sg39
g1642
sbsg1709
VV
p3472
sg1711
I1
sg39
VSPLASH
p3473
sg1712
(iconstruction
TP_SEMFRAME
p3474
(dp3475
g69
g0
(g70
g2
Ntp3476
Rp3477
(dp3478
g74
(dp3479
(iconstruction
TP_NODE
p3480
(dp3481
g1721
I00
sg58
g588
sg39
g3470
sg1722
I00
sg1723
I00
sg556
I316
sb(dp3482
g1722
I00
sg58
g588
ss(iconstruction
TP_NODE
p3483
(dp3484
g1721
I01
sg58
g558
sg39
VACT_315
p3485
sg1722
I01
sg1723
I00
sg556
I315
sb(dp3486
g1722
I01
sg58
g558
sssg257
g258
sg259
g258
sg260
(dp3487
g3480
(dp3488
sg3483
(dp3489
g3480
(dp3490
g58
g705
ssssg454
g3487
sg69
(dp3491
sg456
g258
sg457
g3487
sg458
(dp3492
g3480
(dp3493
g3483
g3490
ssg3483
(dp3494
ssbsg551
(lp3495
g3483
ag3480
asg824
(lp3496
(iconstruction
TP_REL
p3497
(dp3498
g830
g3480
sg58
g705
sg556
I317
sg831
g3483
sg39
VIS_317
p3499
sbasg556
I312
sg39
g1642
sbsg1737
(iconstruction
TP_SYNFORM
p3500
(dp3501
g556
I313
sg1740
(lp3502
(iconstruction
TP_PHON
p3503
(dp3504
g1750
I6
sg1747
I0
sg556
I318
sg1751
Vsplash
p3505
sg39
g3471
sbasg39
g1642
sbsg1758
I1
sba(iconstruction
CXN
p3506
(dp3507
g1700
(iconstruction
TP_SYMLINKS
p3508
(dp3509
g1703
(dp3510
VN1_323
p3511
VS1_325
p3512
ssg556
I321
sg39
g1642
sbsg1709
VV
p3513
sg1711
I1
sg39
VGIVE
p3514
sg1712
(iconstruction
TP_SEMFRAME
p3515
(dp3516
g69
g0
(g70
g2
Ntp3517
Rp3518
(dp3519
g74
(dp3520
(iconstruction
TP_NODE
p3521
(dp3522
g1721
I01
sg58
g558
sg39
VACT_322
p3523
sg1722
I01
sg1723
I00
sg556
I322
sb(dp3524
g1722
I01
sg58
g558
ss(iconstruction
TP_NODE
p3525
(dp3526
g1721
I00
sg58
g612
sg39
g3511
sg1722
I00
sg1723
I00
sg556
I323
sb(dp3527
g1722
I00
sg58
g612
sssg257
g258
sg259
g258
sg260
(dp3528
g3521
(dp3529
g3525
(dp3530
g58
g705
sssg3525
(dp3531
ssg454
g3528
sg69
(dp3532
sg456
g258
sg457
g3528
sg458
(dp3533
g3521
(dp3534
sg3525
(dp3535
g3521
g3530
sssbsg551
(lp3536
g3521
ag3525
asg824
(lp3537
(iconstruction
TP_REL
p3538
(dp3539
g830
g3525
sg58
g705
sg556
I324
sg831
g3521
sg39
VIS_324
p3540
sbasg556
I319
sg39
g1642
sbsg1737
(iconstruction
TP_SYNFORM
p3541
(dp3542
g556
I320
sg1740
(lp3543
(iconstruction
TP_PHON
p3544
(dp3545
g1750
I4
sg1747
I0
sg556
I325
sg1751
Vgive
p3546
sg39
g3512
sbasg39
g1642
sbsg1758
I1
sba(iconstruction
CXN
p3547
(dp3548
g1700
(iconstruction
TP_SYMLINKS
p3549
(dp3550
g1703
(dp3551
VN1_330
p3552
VS1_332
p3553
ssg556
I328
sg39
g1642
sbsg1709
VV
p3554
sg1711
I1
sg39
VSEND
p3555
sg1712
(iconstruction
TP_SEMFRAME
p3556
(dp3557
g69
g0
(g70
g2
Ntp3558
Rp3559
(dp3560
g74
(dp3561
(iconstruction
TP_NODE
p3562
(dp3563
g1721
I00
sg58
g609
sg39
g3552
sg1722
I00
sg1723
I00
sg556
I330
sb(dp3564
g1722
I00
sg58
g609
ss(iconstruction
TP_NODE
p3565
(dp3566
g1721
I01
sg58
g558
sg39
VACT_329
p3567
sg1722
I01
sg1723
I00
sg556
I329
sb(dp3568
g1722
I01
sg58
g558
sssg257
g258
sg259
g258
sg260
(dp3569
g3562
(dp3570
sg3565
(dp3571
g3562
(dp3572
g58
g705
ssssg454
g3569
sg69
(dp3573
sg456
g258
sg457
g3569
sg458
(dp3574
g3562
(dp3575
g3565
g3572
ssg3565
(dp3576
ssbsg551
(lp3577
g3565
ag3562
asg824
(lp3578
(iconstruction
TP_REL
p3579
(dp3580
g830
g3562
sg58
g705
sg556
I331
sg831
g3565
sg39
VIS_331
p3581
sbasg556
I326
sg39
g1642
sbsg1737
(iconstruction
TP_SYNFORM
p3582
(dp3583
g556
I327
sg1740
(lp3584
(iconstruction
TP_PHON
p3585
(dp3586
g1750
I4
sg1747
I0
sg556
I332
sg1751
Vsend
p3587
sg39
g3553
sbasg39
g1642
sbsg1758
I1
sba(iconstruction
CXN
p3588
(dp3589
g1700
(iconstruction
TP_SYMLINKS
p3590
(dp3591
g1703
(dp3592
VN1_337
p3593
VS1_339
p3594
ssg556
I335
sg39
g1642
sbsg1709
VV
p3595
sg1711
I1
sg39
VMEET
p3596
sg1712
(iconstruction
TP_SEMFRAME
p3597
(dp3598
g69
g0
(g70
g2
Ntp3599
Rp3600
(dp3601
g74
(dp3602
(iconstruction
TP_NODE
p3603
(dp3604
g1721
I01
sg58
g558
sg39
VACT_336
p3605
sg1722
I01
sg1723
I00
sg556
I336
sb(dp3606
g1722
I01
sg58
g558
ss(iconstruction
TP_NODE
p3607
(dp3608
g1721
I00
sg58
g564
sg39
g3593
sg1722
I00
sg1723
I00
sg556
I337
sb(dp3609
g1722
I00
sg58
g564
sssg257
g258
sg259
g258
sg260
(dp3610
g3603
(dp3611
g3607
(dp3612
g58
g705
sssg3607
(dp3613
ssg454
g3610
sg69
(dp3614
sg456
g258
sg457
g3610
sg458
(dp3615
g3603
(dp3616
sg3607
(dp3617
g3603
g3612
sssbsg551
(lp3618
g3603
ag3607
asg824
(lp3619
(iconstruction
TP_REL
p3620
(dp3621
g830
g3607
sg58
g705
sg556
I338
sg831
g3603
sg39
VIS_338
p3622
sbasg556
I333
sg39
g1642
sbsg1737
(iconstruction
TP_SYNFORM
p3623
(dp3624
g556
I334
sg1740
(lp3625
(iconstruction
TP_PHON
p3626
(dp3627
g1750
I4
sg1747
I0
sg556
I339
sg1751
Vmeet
p3628
sg39
g3594
sbasg39
g1642
sbsg1758
I1
sba(iconstruction
CXN
p3629
(dp3630
g1700
(iconstruction
TP_SYMLINKS
p3631
(dp3632
g1703
(dp3633
VN1_344
p3634
VS1_346
p3635
ssg556
I342
sg39
g1642
sbsg1709
VV
p3636
sg1711
I1
sg39
VKISS
p3637
sg1712
(iconstruction
TP_SEMFRAME
p3638
(dp3639
g69
g0
(g70
g2
Ntp3640
Rp3641
(dp3642
g74
(dp3643
(iconstruction
TP_NODE
p3644
(dp3645
g1721
I01
sg58
g558
sg39
VACT_343
p3646
sg1722
I01
sg1723
I00
sg556
I343
sb(dp3647
g1722
I01
sg58
g558
ss(iconstruction
TP_NODE
p3648
(dp3649
g1721
I00
sg58
g594
sg39
g3634
sg1722
I00
sg1723
I00
sg556
I344
sb(dp3650
g1722
I00
sg58
g594
sssg257
g258
sg259
g258
sg260
(dp3651
g3644
(dp3652
g3648
(dp3653
g58
g705
sssg3648
(dp3654
ssg454
g3651
sg69
(dp3655
sg456
g258
sg457
g3651
sg458
(dp3656
g3644
(dp3657
sg3648
(dp3658
g3644
g3653
sssbsg551
(lp3659
g3644
ag3648
asg824
(lp3660
(iconstruction
TP_REL
p3661
(dp3662
g830
g3648
sg58
g705
sg556
I345
sg831
g3644
sg39
VIS_345
p3663
sbasg556
I340
sg39
g1642
sbsg1737
(iconstruction
TP_SYNFORM
p3664
(dp3665
g556
I341
sg1740
(lp3666
(iconstruction
TP_PHON
p3667
(dp3668
g1750
I4
sg1747
I0
sg556
I346
sg1751
Vkiss
p3669
sg39
g3635
sbasg39
g1642
sbsg1758
I1
sba(iconstruction
CXN
p3670
(dp3671
g1700
(iconstruction
TP_SYMLINKS
p3672
(dp3673
g1703
(dp3674
VN1_351
p3675
VS1_353
p3676
ssg556
I349
sg39
g1642
sbsg1709
VV
p3677
sg1711
I1
sg39
VSHAKE_HANDS
p3678
sg1712
(iconstruction
TP_SEMFRAME
p3679
(dp3680
g69
g0
(g70
g2
Ntp3681
Rp3682
(dp3683
g74
(dp3684
(iconstruction
TP_NODE
p3685
(dp3686
g1721
I00
sg58
g567
sg39
g3675
sg1722
I00
sg1723
I00
sg556
I351
sb(dp3687
g1722
I00
sg58
g567
ss(iconstruction
TP_NODE
p3688
(dp3689
g1721
I01
sg58
g558
sg39
VACT_350
p3690
sg1722
I01
sg1723
I00
sg556
I350
sb(dp3691
g1722
I01
sg58
g558
sssg257
g258
sg259
g258
sg260
(dp3692
g3685
(dp3693
sg3688
(dp3694
g3685
(dp3695
g58
g705
ssssg454
g3692
sg69
(dp3696
sg456
g258
sg457
g3692
sg458
(dp3697
g3685
(dp3698
g3688
g3695
ssg3688
(dp3699
ssbsg551
(lp3700
g3688
ag3685
asg824
(lp3701
(iconstruction
TP_REL
p3702
(dp3703
g830
g3685
sg58
g705
sg556
I352
sg831
g3688
sg39
VIS_352
p3704
sbasg556
I347
sg39
g1642
sbsg1737
(iconstruction
TP_SYNFORM
p3705
(dp3706
g556
I348
sg1740
(lp3707
(iconstruction
TP_PHON
p3708
(dp3709
g1750
I10
sg1747
I0
sg556
I353
sg1751
Vshake hands
p3710
sg39
g3676
sbasg39
g1642
sbsg1758
I1
sba(iconstruction
CXN
p3711
(dp3712
g1700
(iconstruction
TP_SYMLINKS
p3713
(dp3714
g1703
(dp3715
VN1_357
p3716
VS1_358
p3717
ssg556
I356
sg39
g1642
sbsg1709
VA
p3718
sg1711
I1
sg39
VBLUE
p3719
sg1712
(iconstruction
TP_SEMFRAME
p3720
(dp3721
g69
g0
(g70
g2
Ntp3722
Rp3723
(dp3724
g74
(dp3725
(iconstruction
TP_NODE
p3726
(dp3727
g1721
I01
sg58
g621
sg39
g3716
sg1722
I00
sg1723
I00
sg556
I357
sb(dp3728
g1722
I00
sg58
g621
sssg257
g258
sg259
g258
sg260
(dp3729
g3726
(dp3730
ssg454
g3729
sg69
(dp3731
sg456
g258
sg457
g3729
sg458
(dp3732
g3726
(dp3733
ssbsg551
(lp3734
g3726
asg824
(lp3735
sg556
I354
sg39
g1642
sbsg1737
(iconstruction
TP_SYNFORM
p3736
(dp3737
g556
I355
sg1740
(lp3738
(iconstruction
TP_PHON
p3739
(dp3740
g1750
I4
sg1747
I0
sg556
I358
sg1751
Vblue
p3741
sg39
g3717
sbasg39
g1642
sbsg1758
I1
sba(iconstruction
CXN
p3742
(dp3743
g1700
(iconstruction
TP_SYMLINKS
p3744
(dp3745
g1703
(dp3746
VN1_362
p3747
VS1_363
p3748
ssg556
I361
sg39
g1642
sbsg1709
VA
p3749
sg1711
I1
sg39
VBLACK
p3750
sg1712
(iconstruction
TP_SEMFRAME
p3751
(dp3752
g69
g0
(g70
g2
Ntp3753
Rp3754
(dp3755
g74
(dp3756
(iconstruction
TP_NODE
p3757
(dp3758
g1721
I01
sg58
g630
sg39
g3747
sg1722
I00
sg1723
I00
sg556
I362
sb(dp3759
g1722
I00
sg58
g630
sssg257
g258
sg259
g258
sg260
(dp3760
g3757
(dp3761
ssg454
g3760
sg69
(dp3762
sg456
g258
sg457
g3760
sg458
(dp3763
g3757
(dp3764
ssbsg551
(lp3765
g3757
asg824
(lp3766
sg556
I359
sg39
g1642
sbsg1737
(iconstruction
TP_SYNFORM
p3767
(dp3768
g556
I360
sg1740
(lp3769
(iconstruction
TP_PHON
p3770
(dp3771
g1750
I5
sg1747
I0
sg556
I363
sg1751
Vblack
p3772
sg39
g3748
sbasg39
g1642
sbsg1758
I1
sba(iconstruction
CXN
p3773
(dp3774
g1700
(iconstruction
TP_SYMLINKS
p3775
(dp3776
g1703
(dp3777
VN1_367
p3778
VS1_368
p3779
ssg556
I366
sg39
g1642
sbsg1709
VA
p3780
sg1711
I1
sg39
VGREEN
p3781
sg1712
(iconstruction
TP_SEMFRAME
p3782
(dp3783
g69
g0
(g70
g2
Ntp3784
Rp3785
(dp3786
g74
(dp3787
(iconstruction
TP_NODE
p3788
(dp3789
g1721
I01
sg58
g624
sg39
g3778
sg1722
I00
sg1723
I00
sg556
I367
sb(dp3790
g1722
I00
sg58
g624
sssg257
g258
sg259
g258
sg260
(dp3791
g3788
(dp3792
ssg454
g3791
sg69
(dp3793
sg456
g258
sg457
g3791
sg458
(dp3794
g3788
(dp3795
ssbsg551
(lp3796
g3788
asg824
(lp3797
sg556
I364
sg39
g1642
sbsg1737
(iconstruction
TP_SYNFORM
p3798
(dp3799
g556
I365
sg1740
(lp3800
(iconstruction
TP_PHON
p3801
(dp3802
g1750
I5
sg1747
I0
sg556
I368
sg1751
Vgreen
p3803
sg39
g3779
sbasg39
g1642
sbsg1758
I1
sba(iconstruction
CXN
p3804
(dp3805
g1700
(iconstruction
TP_SYMLINKS
p3806
(dp3807
g1703
(dp3808
VN1_372
p3809
VS1_373
p3810
ssg556
I371
sg39
g1642
sbsg1709
VA
p3811
sg1711
I1
sg39
VSMALL
p3812
sg1712
(iconstruction
TP_SEMFRAME
p3813
(dp3814
g69
g0
(g70
g2
Ntp3815
Rp3816
(dp3817
g74
(dp3818
(iconstruction
TP_NODE
p3819
(dp3820
g1721
I01
sg58
g651
sg39
g3809
sg1722
I00
sg1723
I00
sg556
I372
sb(dp3821
g1722
I00
sg58
g651
sssg257
g258
sg259
g258
sg260
(dp3822
g3819
(dp3823
ssg454
g3822
sg69
(dp3824
sg456
g258
sg457
g3822
sg458
(dp3825
g3819
(dp3826
ssbsg551
(lp3827
g3819
asg824
(lp3828
sg556
I369
sg39
g1642
sbsg1737
(iconstruction
TP_SYNFORM
p3829
(dp3830
g556
I370
sg1740
(lp3831
(iconstruction
TP_PHON
p3832
(dp3833
g1750
I5
sg1747
I0
sg556
I373
sg1751
Vsmall
p3834
sg39
g3810
sbasg39
g1642
sbsg1758
I1
sba(iconstruction
CXN
p3835
(dp3836
g1700
(iconstruction
TP_SYMLINKS
p3837
(dp3838
g1703
(dp3839
VN1_377
p3840
VS1_378
p3841
ssg556
I376
sg39
g1642
sbsg1709
VA
p3842
sg1711
I1
sg39
VBIG
p3843
sg1712
(iconstruction
TP_SEMFRAME
p3844
(dp3845
g69
g0
(g70
g2
Ntp3846
Rp3847
(dp3848
g74
(dp3849
(iconstruction
TP_NODE
p3850
(dp3851
g1721
I01
sg58
g654
sg39
g3840
sg1722
I00
sg1723
I00
sg556
I377
sb(dp3852
g1722
I00
sg58
g654
sssg257
g258
sg259
g258
sg260
(dp3853
g3850
(dp3854
ssg454
g3853
sg69
(dp3855
sg456
g258
sg457
g3853
sg458
(dp3856
g3850
(dp3857
ssbsg551
(lp3858
g3850
asg824
(lp3859
sg556
I374
sg39
g1642
sbsg1737
(iconstruction
TP_SYNFORM
p3860
(dp3861
g556
I375
sg1740
(lp3862
(iconstruction
TP_PHON
p3863
(dp3864
g1750
I3
sg1747
I0
sg556
I378
sg1751
Vbig
p3865
sg39
g3841
sbasg39
g1642
sbsg1758
I1
sba(iconstruction
CXN
p3866
(dp3867
g1700
(iconstruction
TP_SYMLINKS
p3868
(dp3869
g1703
(dp3870
VN1_382
p3871
VS1_383
p3872
ssg556
I381
sg39
g1642
sbsg1709
VA
p3873
sg1711
I1
sg39
VHANDSOME
p3874
sg1712
(iconstruction
TP_SEMFRAME
p3875
(dp3876
g69
g0
(g70
g2
Ntp3877
Rp3878
(dp3879
g74
(dp3880
(iconstruction
TP_NODE
p3881
(dp3882
g1721
I01
sg58
g645
sg39
g3871
sg1722
I00
sg1723
I00
sg556
I382
sb(dp3883
g1722
I00
sg58
g645
sssg257
g258
sg259
g258
sg260
(dp3884
g3881
(dp3885
ssg454
g3884
sg69
(dp3886
sg456
g258
sg457
g3884
sg458
(dp3887
g3881
(dp3888
ssbsg551
(lp3889
g3881
asg824
(lp3890
sg556
I379
sg39
g1642
sbsg1737
(iconstruction
TP_SYNFORM
p3891
(dp3892
g556
I380
sg1740
(lp3893
(iconstruction
TP_PHON
p3894
(dp3895
g1750
I8
sg1747
I0
sg556
I383
sg1751
Vhandsome
p3896
sg39
g3872
sbasg39
g1642
sbsg1758
I1
sba(iconstruction
CXN
p3897
(dp3898
g1700
(iconstruction
TP_SYMLINKS
p3899
(dp3900
g1703
(dp3901
VN1_387
p3902
VS1_388
p3903
ssg556
I386
sg39
g1642
sbsg1709
VA
p3904
sg1711
I1
sg39
VPRETTY
p3905
sg1712
(iconstruction
TP_SEMFRAME
p3906
(dp3907
g69
g0
(g70
g2
Ntp3908
Rp3909
(dp3910
g74
(dp3911
(iconstruction
TP_NODE
p3912
(dp3913
g1721
I01
sg58
g642
sg39
g3902
sg1722
I00
sg1723
I00
sg556
I387
sb(dp3914
g1722
I00
sg58
g642
sssg257
g258
sg259
g258
sg260
(dp3915
g3912
(dp3916
ssg454
g3915
sg69
(dp3917
sg456
g258
sg457
g3915
sg458
(dp3918
g3912
(dp3919
ssbsg551
(lp3920
g3912
asg824
(lp3921
sg556
I384
sg39
g1642
sbsg1737
(iconstruction
TP_SYNFORM
p3922
(dp3923
g556
I385
sg1740
(lp3924
(iconstruction
TP_PHON
p3925
(dp3926
g1750
I6
sg1747
I0
sg556
I388
sg1751
Vpretty
p3927
sg39
g3903
sbasg39
g1642
sbsg1758
I1
sba(iconstruction
CXN
p3928
(dp3929
g1700
(iconstruction
TP_SYMLINKS
p3930
(dp3931
g1703
(dp3932
VN1_392
p3933
VS1_393
p3934
ssg556
I391
sg39
g1642
sbsg1709
VA
p3935
sg1711
I1
sg39
VYOUNG
p3936
sg1712
(iconstruction
TP_SEMFRAME
p3937
(dp3938
g69
g0
(g70
g2
Ntp3939
Rp3940
(dp3941
g74
(dp3942
(iconstruction
TP_NODE
p3943
(dp3944
g1721
I01
sg58
g639
sg39
g3933
sg1722
I00
sg1723
I00
sg556
I392
sb(dp3945
g1722
I00
sg58
g639
sssg257
g258
sg259
g258
sg260
(dp3946
g3943
(dp3947
ssg454
g3946
sg69
(dp3948
sg456
g258
sg457
g3946
sg458
(dp3949
g3943
(dp3950
ssbsg551
(lp3951
g3943
asg824
(lp3952
sg556
I389
sg39
g1642
sbsg1737
(iconstruction
TP_SYNFORM
p3953
(dp3954
g556
I390
sg1740
(lp3955
(iconstruction
TP_PHON
p3956
(dp3957
g1750
I5
sg1747
I0
sg556
I393
sg1751
Vyoung
p3958
sg39
g3934
sbasg39
g1642
sbsg1758
I1
sba(iconstruction
CXN
p3959
(dp3960
g1700
(iconstruction
TP_SYMLINKS
p3961
(dp3962
g1703
(dp3963
VN1_398
p3964
VS1_400
p3965
ssg556
I396
sg39
g1642
sbsg1709
VN
p3966
sg1711
I1
sg39
VWOMAN
p3967
sg1712
(iconstruction
TP_SEMFRAME
p3968
(dp3969
g69
g0
(g70
g2
Ntp3970
Rp3971
(dp3972
g74
(dp3973
(iconstruction
TP_NODE
p3974
(dp3975
g1721
I00
sg58
g780
sg39
g3964
sg1722
I00
sg1723
I00
sg556
I398
sb(dp3976
g1722
I00
sg58
g780
ss(iconstruction
TP_NODE
p3977
(dp3978
g1721
I01
sg58
g714
sg39
VENT_397
p3979
sg1722
I01
sg1723
I00
sg556
I397
sb(dp3980
g1722
I01
sg58
g714
sssg257
g258
sg259
g258
sg260
(dp3981
g3974
(dp3982
sg3977
(dp3983
g3974
(dp3984
g58
g705
ssssg454
g3981
sg69
(dp3985
sg456
g258
sg457
g3981
sg458
(dp3986
g3974
(dp3987
g3977
g3984
ssg3977
(dp3988
ssbsg551
(lp3989
g3977
ag3974
asg824
(lp3990
(iconstruction
TP_REL
p3991
(dp3992
g830
g3974
sg58
g705
sg556
I399
sg831
g3977
sg39
VIS_399
p3993
sbasg556
I394
sg39
g1642
sbsg1737
(iconstruction
TP_SYNFORM
p3994
(dp3995
g556
I395
sg1740
(lp3996
(iconstruction
TP_PHON
p3997
(dp3998
g1750
I5
sg1747
I0
sg556
I400
sg1751
Vwoman
p3999
sg39
g3965
sbasg39
g1642
sbsg1758
I1
sba(iconstruction
CXN
p4000
(dp4001
g1700
(iconstruction
TP_SYMLINKS
p4002
(dp4003
g1703
(dp4004
VN1_405
p4005
VS1_407
p4006
ssg556
I403
sg39
g1642
sbsg1709
VN
p4007
sg1711
I1
sg39
VWOMAN2
p4008
sg1712
(iconstruction
TP_SEMFRAME
p4009
(dp4010
g69
g0
(g70
g2
Ntp4011
Rp4012
(dp4013
g74
(dp4014
(iconstruction
TP_NODE
p4015
(dp4016
g1721
I01
sg58
g714
sg39
VENT_404
p4017
sg1722
I01
sg1723
I00
sg556
I404
sb(dp4018
g1722
I01
sg58
g714
ss(iconstruction
TP_NODE
p4019
(dp4020
g1721
I00
sg58
g780
sg39
g4005
sg1722
I00
sg1723
I00
sg556
I405
sb(dp4021
g1722
I00
sg58
g780
sssg257
g258
sg259
g258
sg260
(dp4022
g4015
(dp4023
g4019
(dp4024
g58
g705
sssg4019
(dp4025
ssg454
g4022
sg69
(dp4026
sg456
g258
sg457
g4022
sg458
(dp4027
g4015
(dp4028
sg4019
(dp4029
g4015
g4024
sssbsg551
(lp4030
g4015
ag4019
asg824
(lp4031
(iconstruction
TP_REL
p4032
(dp4033
g830
g4019
sg58
g705
sg556
I406
sg831
g4015
sg39
VIS_406
p4034
sbasg556
I401
sg39
g1642
sbsg1737
(iconstruction
TP_SYNFORM
p4035
(dp4036
g556
I402
sg1740
(lp4037
(iconstruction
TP_PHON
p4038
(dp4039
g1750
I4
sg1747
I0
sg556
I407
sg1751
Vlady
p4040
sg39
g4006
sbasg39
g1642
sbsg1758
I1
sba(iconstruction
CXN
p4041
(dp4042
g1700
(iconstruction
TP_SYMLINKS
p4043
(dp4044
g1703
(dp4045
VN1_412
p4046
VS1_414
p4047
ssg556
I410
sg39
g1642
sbsg1709
VN
p4048
sg1711
I1
sg39
VMAN
p4049
sg1712
(iconstruction
TP_SEMFRAME
p4050
(dp4051
g69
g0
(g70
g2
Ntp4052
Rp4053
(dp4054
g74
(dp4055
(iconstruction
TP_NODE
p4056
(dp4057
g1721
I00
sg58
g807
sg39
g4046
sg1722
I00
sg1723
I00
sg556
I412
sb(dp4058
g1722
I00
sg58
g807
ss(iconstruction
TP_NODE
p4059
(dp4060
g1721
I01
sg58
g714
sg39
VENT_411
p4061
sg1722
I01
sg1723
I00
sg556
I411
sb(dp4062
g1722
I01
sg58
g714
sssg257
g258
sg259
g258
sg260
(dp4063
g4056
(dp4064
sg4059
(dp4065
g4056
(dp4066
g58
g705
ssssg454
g4063
sg69
(dp4067
sg456
g258
sg457
g4063
sg458
(dp4068
g4056
(dp4069
g4059
g4066
ssg4059
(dp4070
ssbsg551
(lp4071
g4059
ag4056
asg824
(lp4072
(iconstruction
TP_REL
p4073
(dp4074
g830
g4056
sg58
g705
sg556
I413
sg831
g4059
sg39
VIS_413
p4075
sbasg556
I408
sg39
g1642
sbsg1737
(iconstruction
TP_SYNFORM
p4076
(dp4077
g556
I409
sg1740
(lp4078
(iconstruction
TP_PHON
p4079
(dp4080
g1750
I3
sg1747
I0
sg556
I414
sg1751
Vman
p4081
sg39
g4047
sbasg39
g1642
sbsg1758
I1
sba(iconstruction
CXN
p4082
(dp4083
g1700
(iconstruction
TP_SYMLINKS
p4084
(dp4085
g1703
(dp4086
VN1_419
p4087
VS1_421
p4088
ssg556
I417
sg39
g1642
sbsg1709
VN
p4089
sg1711
I1
sg39
VGIRL
p4090
sg1712
(iconstruction
TP_SEMFRAME
p4091
(dp4092
g69
g0
(g70
g2
Ntp4093
Rp4094
(dp4095
g74
(dp4096
(iconstruction
TP_NODE
p4097
(dp4098
g1721
I00
sg58
g798
sg39
g4087
sg1722
I00
sg1723
I00
sg556
I419
sb(dp4099
g1722
I00
sg58
g798
ss(iconstruction
TP_NODE
p4100
(dp4101
g1721
I01
sg58
g714
sg39
VENT_418
p4102
sg1722
I01
sg1723
I00
sg556
I418
sb(dp4103
g1722
I01
sg58
g714
sssg257
g258
sg259
g258
sg260
(dp4104
g4097
(dp4105
sg4100
(dp4106
g4097
(dp4107
g58
g705
ssssg454
g4104
sg69
(dp4108
sg456
g258
sg457
g4104
sg458
(dp4109
g4097
(dp4110
g4100
g4107
ssg4100
(dp4111
ssbsg551
(lp4112
g4100
ag4097
asg824
(lp4113
(iconstruction
TP_REL
p4114
(dp4115
g830
g4097
sg58
g705
sg556
I420
sg831
g4100
sg39
VIS_420
p4116
sbasg556
I415
sg39
g1642
sbsg1737
(iconstruction
TP_SYNFORM
p4117
(dp4118
g556
I416
sg1740
(lp4119
(iconstruction
TP_PHON
p4120
(dp4121
g1750
I4
sg1747
I0
sg556
I421
sg1751
Vgirl
p4122
sg39
g4088
sbasg39
g1642
sbsg1758
I1
sba(iconstruction
CXN
p4123
(dp4124
g1700
(iconstruction
TP_SYMLINKS
p4125
(dp4126
g1703
(dp4127
VN1_426
p4128
VS1_428
p4129
ssg556
I424
sg39
g1642
sbsg1709
VN
p4130
sg1711
I1
sg39
VBOY
p4131
sg1712
(iconstruction
TP_SEMFRAME
p4132
(dp4133
g69
g0
(g70
g2
Ntp4134
Rp4135
(dp4136
g74
(dp4137
(iconstruction
TP_NODE
p4138
(dp4139
g1721
I01
sg58
g714
sg39
VENT_425
p4140
sg1722
I01
sg1723
I00
sg556
I425
sb(dp4141
g1722
I01
sg58
g714
ss(iconstruction
TP_NODE
p4142
(dp4143
g1721
I00
sg58
g777
sg39
g4128
sg1722
I00
sg1723
I00
sg556
I426
sb(dp4144
g1722
I00
sg58
g777
sssg257
g258
sg259
g258
sg260
(dp4145
g4138
(dp4146
g4142
(dp4147
g58
g705
sssg4142
(dp4148
ssg454
g4145
sg69
(dp4149
sg456
g258
sg457
g4145
sg458
(dp4150
g4138
(dp4151
sg4142
(dp4152
g4138
g4147
sssbsg551
(lp4153
g4138
ag4142
asg824
(lp4154
(iconstruction
TP_REL
p4155
(dp4156
g830
g4142
sg58
g705
sg556
I427
sg831
g4138
sg39
VIS_427
p4157
sbasg556
I422
sg39
g1642
sbsg1737
(iconstruction
TP_SYNFORM
p4158
(dp4159
g556
I423
sg1740
(lp4160
(iconstruction
TP_PHON
p4161
(dp4162
g1750
I3
sg1747
I0
sg556
I428
sg1751
Vboy
p4163
sg39
g4129
sbasg39
g1642
sbsg1758
I1
sba(iconstruction
CXN
p4164
(dp4165
g1700
(iconstruction
TP_SYMLINKS
p4166
(dp4167
g1703
(dp4168
VN1_433
p4169
VS1_435
p4170
ssg556
I431
sg39
g1642
sbsg1709
VN
p4171
sg1711
I1
sg39
VPEOPLE
p4172
sg1712
(iconstruction
TP_SEMFRAME
p4173
(dp4174
g69
g0
(g70
g2
Ntp4175
Rp4176
(dp4177
g74
(dp4178
(iconstruction
TP_NODE
p4179
(dp4180
g1721
I00
sg58
g783
sg39
g4169
sg1722
I00
sg1723
I00
sg556
I433
sb(dp4181
g1722
I00
sg58
g783
ss(iconstruction
TP_NODE
p4182
(dp4183
g1721
I01
sg58
g714
sg39
VENT_432
p4184
sg1722
I01
sg1723
I00
sg556
I432
sb(dp4185
g1722
I01
sg58
g714
sssg257
g258
sg259
g258
sg260
(dp4186
g4179
(dp4187
sg4182
(dp4188
g4179
(dp4189
g58
g705
ssssg454
g4186
sg69
(dp4190
sg456
g258
sg457
g4186
sg458
(dp4191
g4179
(dp4192
g4182
g4189
ssg4182
(dp4193
ssbsg551
(lp4194
g4182
ag4179
asg824
(lp4195
(iconstruction
TP_REL
p4196
(dp4197
g830
g4179
sg58
g705
sg556
I434
sg831
g4182
sg39
VIS_434
p4198
sbasg556
I429
sg39
g1642
sbsg1737
(iconstruction
TP_SYNFORM
p4199
(dp4200
g556
I430
sg1740
(lp4201
(iconstruction
TP_PHON
p4202
(dp4203
g1750
I6
sg1747
I0
sg556
I435
sg1751
Vpeople
p4204
sg39
g4170
sbasg39
g1642
sbsg1758
I1
sba(iconstruction
CXN
p4205
(dp4206
g1700
(iconstruction
TP_SYMLINKS
p4207
(dp4208
g1703
(dp4209
VN1_440
p4210
VS1_442
p4211
ssg556
I438
sg39
g1642
sbsg1709
VN
p4212
sg1711
I1
sg39
VMOUSE
p4213
sg1712
(iconstruction
TP_SEMFRAME
p4214
(dp4215
g69
g0
(g70
g2
Ntp4216
Rp4217
(dp4218
g74
(dp4219
(iconstruction
TP_NODE
p4220
(dp4221
g1721
I01
sg58
g714
sg39
VENT_439
p4222
sg1722
I01
sg1723
I00
sg556
I439
sb(dp4223
g1722
I01
sg58
g714
ss(iconstruction
TP_NODE
p4224
(dp4225
g1721
I00
sg58
g771
sg39
g4210
sg1722
I00
sg1723
I00
sg556
I440
sb(dp4226
g1722
I00
sg58
g771
sssg257
g258
sg259
g258
sg260
(dp4227
g4220
(dp4228
g4224
(dp4229
g58
g705
sssg4224
(dp4230
ssg454
g4227
sg69
(dp4231
sg456
g258
sg457
g4227
sg458
(dp4232
g4220
(dp4233
sg4224
(dp4234
g4220
g4229
sssbsg551
(lp4235
g4220
ag4224
asg824
(lp4236
(iconstruction
TP_REL
p4237
(dp4238
g830
g4224
sg58
g705
sg556
I441
sg831
g4220
sg39
VIS_441
p4239
sbasg556
I436
sg39
g1642
sbsg1737
(iconstruction
TP_SYNFORM
p4240
(dp4241
g556
I437
sg1740
(lp4242
(iconstruction
TP_PHON
p4243
(dp4244
g1750
I5
sg1747
I0
sg556
I442
sg1751
Vmouse
p4245
sg39
g4211
sbasg39
g1642
sbsg1758
I1
sba(iconstruction
CXN
p4246
(dp4247
g1700
(iconstruction
TP_SYMLINKS
p4248
(dp4249
g1703
(dp4250
VN1_447
p4251
VS1_449
p4252
ssg556
I445
sg39
g1642
sbsg1709
VN
p4253
sg1711
I1
sg39
VTURTLE
p4254
sg1712
(iconstruction
TP_SEMFRAME
p4255
(dp4256
g69
g0
(g70
g2
Ntp4257
Rp4258
(dp4259
g74
(dp4260
(iconstruction
TP_NODE
p4261
(dp4262
g1721
I00
sg58
g768
sg39
g4251
sg1722
I00
sg1723
I00
sg556
I447
sb(dp4263
g1722
I00
sg58
g768
ss(iconstruction
TP_NODE
p4264
(dp4265
g1721
I01
sg58
g714
sg39
VENT_446
p4266
sg1722
I01
sg1723
I00
sg556
I446
sb(dp4267
g1722
I01
sg58
g714
sssg257
g258
sg259
g258
sg260
(dp4268
g4261
(dp4269
sg4264
(dp4270
g4261
(dp4271
g58
g705
ssssg454
g4268
sg69
(dp4272
sg456
g258
sg457
g4268
sg458
(dp4273
g4261
(dp4274
g4264
g4271
ssg4264
(dp4275
ssbsg551
(lp4276
g4264
ag4261
asg824
(lp4277
(iconstruction
TP_REL
p4278
(dp4279
g830
g4261
sg58
g705
sg556
I448
sg831
g4264
sg39
VIS_448
p4280
sbasg556
I443
sg39
g1642
sbsg1737
(iconstruction
TP_SYNFORM
p4281
(dp4282
g556
I444
sg1740
(lp4283
(iconstruction
TP_PHON
p4284
(dp4285
g1750
I6
sg1747
I0
sg556
I449
sg1751
Vturtle
p4286
sg39
g4252
sbasg39
g1642
sbsg1758
I1
sba(iconstruction
CXN
p4287
(dp4288
g1700
(iconstruction
TP_SYMLINKS
p4289
(dp4290
g1703
(dp4291
VN1_454
p4292
VS1_456
p4293
ssg556
I452
sg39
g1642
sbsg1709
VN
p4294
sg1711
I1
sg39
VDRESS
p4295
sg1712
(iconstruction
TP_SEMFRAME
p4296
(dp4297
g69
g0
(g70
g2
Ntp4298
Rp4299
(dp4300
g74
(dp4301
(iconstruction
TP_NODE
p4302
(dp4303
g1721
I00
sg58
g759
sg39
g4292
sg1722
I00
sg1723
I00
sg556
I454
sb(dp4304
g1722
I00
sg58
g759
ss(iconstruction
TP_NODE
p4305
(dp4306
g1721
I01
sg58
g714
sg39
VENT_453
p4307
sg1722
I01
sg1723
I00
sg556
I453
sb(dp4308
g1722
I01
sg58
g714
sssg257
g258
sg259
g258
sg260
(dp4309
g4302
(dp4310
sg4305
(dp4311
g4302
(dp4312
g58
g705
ssssg454
g4309
sg69
(dp4313
sg456
g258
sg457
g4309
sg458
(dp4314
g4302
(dp4315
g4305
g4312
ssg4305
(dp4316
ssbsg551
(lp4317
g4305
ag4302
asg824
(lp4318
(iconstruction
TP_REL
p4319
(dp4320
g830
g4302
sg58
g705
sg556
I455
sg831
g4305
sg39
VIS_455
p4321
sbasg556
I450
sg39
g1642
sbsg1737
(iconstruction
TP_SYNFORM
p4322
(dp4323
g556
I451
sg1740
(lp4324
(iconstruction
TP_PHON
p4325
(dp4326
g1750
I5
sg1747
I0
sg556
I456
sg1751
Vdress
p4327
sg39
g4293
sbasg39
g1642
sbsg1758
I1
sba(iconstruction
CXN
p4328
(dp4329
g1700
(iconstruction
TP_SYMLINKS
p4330
(dp4331
g1703
(dp4332
VN1_461
p4333
VS1_463
p4334
ssg556
I459
sg39
g1642
sbsg1709
VN
p4335
sg1711
I1
sg39
VTSHIRT
p4336
sg1712
(iconstruction
TP_SEMFRAME
p4337
(dp4338
g69
g0
(g70
g2
Ntp4339
Rp4340
(dp4341
g74
(dp4342
(iconstruction
TP_NODE
p4343
(dp4344
g1721
I01
sg58
g714
sg39
VENT_460
p4345
sg1722
I01
sg1723
I00
sg556
I460
sb(dp4346
g1722
I01
sg58
g714
ss(iconstruction
TP_NODE
p4347
(dp4348
g1721
I00
sg58
g756
sg39
g4333
sg1722
I00
sg1723
I00
sg556
I461
sb(dp4349
g1722
I00
sg58
g756
sssg257
g258
sg259
g258
sg260
(dp4350
g4343
(dp4351
g4347
(dp4352
g58
g705
sssg4347
(dp4353
ssg454
g4350
sg69
(dp4354
sg456
g258
sg457
g4350
sg458
(dp4355
g4343
(dp4356
sg4347
(dp4357
g4343
g4352
sssbsg551
(lp4358
g4343
ag4347
asg824
(lp4359
(iconstruction
TP_REL
p4360
(dp4361
g830
g4347
sg58
g705
sg556
I462
sg831
g4343
sg39
VIS_462
p4362
sbasg556
I457
sg39
g1642
sbsg1737
(iconstruction
TP_SYNFORM
p4363
(dp4364
g556
I458
sg1740
(lp4365
(iconstruction
TP_PHON
p4366
(dp4367
g1750
I6
sg1747
I0
sg556
I463
sg1751
Vt-shirt
p4368
sg39
g4334
sbasg39
g1642
sbsg1758
I1
sba(iconstruction
CXN
p4369
(dp4370
g1700
(iconstruction
TP_SYMLINKS
p4371
(dp4372
g1703
(dp4373
VN1_468
p4374
VS2_471
p4375
ssg556
I466
sg39
g1642
sbsg1709
VN
p4376
sg1711
I1
sg39
VBOXINGRING
p4377
sg1712
(iconstruction
TP_SEMFRAME
p4378
(dp4379
g69
g0
(g70
g2
Ntp4380
Rp4381
(dp4382
g74
(dp4383
(iconstruction
TP_NODE
p4384
(dp4385
g1721
I00
sg58
g813
sg39
g4374
sg1722
I00
sg1723
I00
sg556
I468
sb(dp4386
g1722
I00
sg58
g813
ss(iconstruction
TP_NODE
p4387
(dp4388
g1721
I01
sg58
g714
sg39
VENT_467
p4389
sg1722
I01
sg1723
I00
sg556
I467
sb(dp4390
g1722
I01
sg58
g714
sssg257
g258
sg259
g258
sg260
(dp4391
g4384
(dp4392
sg4387
(dp4393
g4384
(dp4394
g58
g705
ssssg454
g4391
sg69
(dp4395
sg456
g258
sg457
g4391
sg458
(dp4396
g4384
(dp4397
g4387
g4394
ssg4387
(dp4398
ssbsg551
(lp4399
g4387
ag4384
asg824
(lp4400
(iconstruction
TP_REL
p4401
(dp4402
g830
g4384
sg58
g705
sg556
I469
sg831
g4387
sg39
VIS_469
p4403
sbasg556
I464
sg39
g1642
sbsg1737
(iconstruction
TP_SYNFORM
p4404
(dp4405
g556
I465
sg1740
(lp4406
(iconstruction
TP_PHON
p4407
(dp4408
g1750
I6
sg1747
I0
sg556
I470
sg1751
Vboxing
p4409
sg39
VS1_470
p4410
sba(iconstruction
TP_PHON
p4411
(dp4412
g1750
I4
sg1747
I1
sg556
I471
sg1751
Vring
p4413
sg39
g4375
sbasg39
g1642
sbsg1758
I1
sba(iconstruction
CXN
p4414
(dp4415
g1700
(iconstruction
TP_SYMLINKS
p4416
(dp4417
g1703
(dp4418
VN1_476
p4419
VS1_478
p4420
ssg556
I474
sg39
g1642
sbsg1709
VN
p4421
sg1711
I1
sg39
VPARK
p4422
sg1712
(iconstruction
TP_SEMFRAME
p4423
(dp4424
g69
g0
(g70
g2
Ntp4425
Rp4426
(dp4427
g74
(dp4428
(iconstruction
TP_NODE
p4429
(dp4430
g1721
I00
sg58
g816
sg39
g4419
sg1722
I00
sg1723
I00
sg556
I476
sb(dp4431
g1722
I00
sg58
g816
ss(iconstruction
TP_NODE
p4432
(dp4433
g1721
I01
sg58
g714
sg39
VENT_475
p4434
sg1722
I01
sg1723
I00
sg556
I475
sb(dp4435
g1722
I01
sg58
g714
sssg257
g258
sg259
g258
sg260
(dp4436
g4429
(dp4437
sg4432
(dp4438
g4429
(dp4439
g58
g705
ssssg454
g4436
sg69
(dp4440
sg456
g258
sg457
g4436
sg458
(dp4441
g4429
(dp4442
g4432
g4439
ssg4432
(dp4443
ssbsg551
(lp4444
g4432
ag4429
asg824
(lp4445
(iconstruction
TP_REL
p4446
(dp4447
g830
g4429
sg58
g705
sg556
I477
sg831
g4432
sg39
VIS_477
p4448
sbasg556
I472
sg39
g1642
sbsg1737
(iconstruction
TP_SYNFORM
p4449
(dp4450
g556
I473
sg1740
(lp4451
(iconstruction
TP_PHON
p4452
(dp4453
g1750
I4
sg1747
I0
sg556
I478
sg1751
Vpark
p4454
sg39
g4420
sbasg39
g1642
sbsg1758
I1
sba(iconstruction
CXN
p4455
(dp4456
g1700
(iconstruction
TP_SYMLINKS
p4457
(dp4458
g1703
(dp4459
VN1_483
p4460
VS1_485
p4461
ssg556
I481
sg39
g1642
sbsg1709
VN
p4462
sg1711
I1
sg39
VSHIRT
p4463
sg1712
(iconstruction
TP_SEMFRAME
p4464
(dp4465
g69
g0
(g70
g2
Ntp4466
Rp4467
(dp4468
g74
(dp4469
(iconstruction
TP_NODE
p4470
(dp4471
g1721
I01
sg58
g714
sg39
VENT_482
p4472
sg1722
I01
sg1723
I00
sg556
I482
sb(dp4473
g1722
I01
sg58
g714
ss(iconstruction
TP_NODE
p4474
(dp4475
g1721
I00
sg58
g762
sg39
g4460
sg1722
I00
sg1723
I00
sg556
I483
sb(dp4476
g1722
I00
sg58
g762
sssg257
g258
sg259
g258
sg260
(dp4477
g4470
(dp4478
g4474
(dp4479
g58
g705
sssg4474
(dp4480
ssg454
g4477
sg69
(dp4481
sg456
g258
sg457
g4477
sg458
(dp4482
g4470
(dp4483
sg4474
(dp4484
g4470
g4479
sssbsg551
(lp4485
g4470
ag4474
asg824
(lp4486
(iconstruction
TP_REL
p4487
(dp4488
g830
g4474
sg58
g705
sg556
I484
sg831
g4470
sg39
VIS_484
p4489
sbasg556
I479
sg39
g1642
sbsg1737
(iconstruction
TP_SYNFORM
p4490
(dp4491
g556
I480
sg1740
(lp4492
(iconstruction
TP_PHON
p4493
(dp4494
g1750
I5
sg1747
I0
sg556
I485
sg1751
Vshirt
p4495
sg39
g4461
sbasg39
g1642
sbsg1758
I1
sba(iconstruction
CXN
p4496
(dp4497
g1700
(iconstruction
TP_SYMLINKS
p4498
(dp4499
g1703
(dp4500
VN1_490
p4501
VS1_492
p4502
ssg556
I488
sg39
g1642
sbsg1709
VN
p4503
sg1711
I1
sg39
VSUIT
p4504
sg1712
(iconstruction
TP_SEMFRAME
p4505
(dp4506
g69
g0
(g70
g2
Ntp4507
Rp4508
(dp4509
g74
(dp4510
(iconstruction
TP_NODE
p4511
(dp4512
g1721
I00
sg58
g765
sg39
g4501
sg1722
I00
sg1723
I00
sg556
I490
sb(dp4513
g1722
I00
sg58
g765
ss(iconstruction
TP_NODE
p4514
(dp4515
g1721
I01
sg58
g714
sg39
VENT_489
p4516
sg1722
I01
sg1723
I00
sg556
I489
sb(dp4517
g1722
I01
sg58
g714
sssg257
g258
sg259
g258
sg260
(dp4518
g4511
(dp4519
sg4514
(dp4520
g4511
(dp4521
g58
g705
ssssg454
g4518
sg69
(dp4522
sg456
g258
sg457
g4518
sg458
(dp4523
g4511
(dp4524
g4514
g4521
ssg4514
(dp4525
ssbsg551
(lp4526
g4514
ag4511
asg824
(lp4527
(iconstruction
TP_REL
p4528
(dp4529
g830
g4511
sg58
g705
sg556
I491
sg831
g4514
sg39
VIS_491
p4530
sbasg556
I486
sg39
g1642
sbsg1737
(iconstruction
TP_SYNFORM
p4531
(dp4532
g556
I487
sg1740
(lp4533
(iconstruction
TP_PHON
p4534
(dp4535
g1750
I4
sg1747
I0
sg556
I492
sg1751
Vsuit
p4536
sg39
g4502
sbasg39
g1642
sbsg1758
I1
sba(iconstruction
CXN
p4537
(dp4538
g1700
(iconstruction
TP_SYMLINKS
p4539
(dp4540
g1703
(dp4541
VN1_497
p4542
VS1_499
p4543
ssg556
I495
sg39
g1642
sbsg1709
VN
p4544
sg1711
I1
sg39
VCELLO
p4545
sg1712
(iconstruction
TP_SEMFRAME
p4546
(dp4547
g69
g0
(g70
g2
Ntp4548
Rp4549
(dp4550
g74
(dp4551
(iconstruction
TP_NODE
p4552
(dp4553
g1721
I00
sg58
g747
sg39
g4542
sg1722
I00
sg1723
I00
sg556
I497
sb(dp4554
g1722
I00
sg58
g747
ss(iconstruction
TP_NODE
p4555
(dp4556
g1721
I01
sg58
g714
sg39
VENT_496
p4557
sg1722
I01
sg1723
I00
sg556
I496
sb(dp4558
g1722
I01
sg58
g714
sssg257
g258
sg259
g258
sg260
(dp4559
g4552
(dp4560
sg4555
(dp4561
g4552
(dp4562
g58
g705
ssssg454
g4559
sg69
(dp4563
sg456
g258
sg457
g4559
sg458
(dp4564
g4552
(dp4565
g4555
g4562
ssg4555
(dp4566
ssbsg551
(lp4567
g4555
ag4552
asg824
(lp4568
(iconstruction
TP_REL
p4569
(dp4570
g830
g4552
sg58
g705
sg556
I498
sg831
g4555
sg39
VIS_498
p4571
sbasg556
I493
sg39
g1642
sbsg1737
(iconstruction
TP_SYNFORM
p4572
(dp4573
g556
I494
sg1740
(lp4574
(iconstruction
TP_PHON
p4575
(dp4576
g1750
I5
sg1747
I0
sg556
I499
sg1751
VCELLO
p4577
sg39
g4543
sbasg39
g1642
sbsg1758
I1
sba(iconstruction
CXN
p4578
(dp4579
g1700
(iconstruction
TP_SYMLINKS
p4580
(dp4581
g1703
(dp4582
VN1_504
p4583
VS1_506
p4584
ssg556
I502
sg39
g1642
sbsg1709
VN
p4585
sg1711
I1
sg39
VBAG
p4586
sg1712
(iconstruction
TP_SEMFRAME
p4587
(dp4588
g69
g0
(g70
g2
Ntp4589
Rp4590
(dp4591
g74
(dp4592
(iconstruction
TP_NODE
p4593
(dp4594
g1721
I01
sg58
g714
sg39
VENT_503
p4595
sg1722
I01
sg1723
I00
sg556
I503
sb(dp4596
g1722
I01
sg58
g714
ss(iconstruction
TP_NODE
p4597
(dp4598
g1721
I00
sg58
g738
sg39
g4583
sg1722
I00
sg1723
I00
sg556
I504
sb(dp4599
g1722
I00
sg58
g738
sssg257
g258
sg259
g258
sg260
(dp4600
g4593
(dp4601
g4597
(dp4602
g58
g705
sssg4597
(dp4603
ssg454
g4600
sg69
(dp4604
sg456
g258
sg457
g4600
sg458
(dp4605
g4593
(dp4606
sg4597
(dp4607
g4593
g4602
sssbsg551
(lp4608
g4593
ag4597
asg824
(lp4609
(iconstruction
TP_REL
p4610
(dp4611
g830
g4597
sg58
g705
sg556
I505
sg831
g4593
sg39
VIS_505
p4612
sbasg556
I500
sg39
g1642
sbsg1737
(iconstruction
TP_SYNFORM
p4613
(dp4614
g556
I501
sg1740
(lp4615
(iconstruction
TP_PHON
p4616
(dp4617
g1750
I3
sg1747
I0
sg556
I506
sg1751
Vbag
p4618
sg39
g4584
sbasg39
g1642
sbsg1758
I1
sba(iconstruction
CXN
p4619
(dp4620
g1700
(iconstruction
TP_SYMLINKS
p4621
(dp4622
g1703
(dp4623
VN1_511
p4624
VS2_514
p4625
ssg556
I509
sg39
g1642
sbsg1709
VN
p4626
sg1711
I1
sg39
VWATERING_CAN
p4627
sg1712
(iconstruction
TP_SEMFRAME
p4628
(dp4629
g69
g0
(g70
g2
Ntp4630
Rp4631
(dp4632
g74
(dp4633
(iconstruction
TP_NODE
p4634
(dp4635
g1721
I00
sg58
g735
sg39
g4624
sg1722
I00
sg1723
I00
sg556
I511
sb(dp4636
g1722
I00
sg58
g735
ss(iconstruction
TP_NODE
p4637
(dp4638
g1721
I01
sg58
g714
sg39
VENT_510
p4639
sg1722
I01
sg1723
I00
sg556
I510
sb(dp4640
g1722
I01
sg58
g714
sssg257
g258
sg259
g258
sg260
(dp4641
g4634
(dp4642
sg4637
(dp4643
g4634
(dp4644
g58
g705
ssssg454
g4641
sg69
(dp4645
sg456
g258
sg457
g4641
sg458
(dp4646
g4634
(dp4647
g4637
g4644
ssg4637
(dp4648
ssbsg551
(lp4649
g4637
ag4634
asg824
(lp4650
(iconstruction
TP_REL
p4651
(dp4652
g830
g4634
sg58
g705
sg556
I512
sg831
g4637
sg39
VIS_512
p4653
sbasg556
I507
sg39
g1642
sbsg1737
(iconstruction
TP_SYNFORM
p4654
(dp4655
g556
I508
sg1740
(lp4656
(iconstruction
TP_PHON
p4657
(dp4658
g1750
I8
sg1747
I0
sg556
I513
sg1751
Vwatering
p4659
sg39
VS1_513
p4660
sba(iconstruction
TP_PHON
p4661
(dp4662
g1750
I3
sg1747
I1
sg556
I514
sg1751
Vcan
p4663
sg39
g4625
sbasg39
g1642
sbsg1758
I1
sba(iconstruction
CXN
p4664
(dp4665
g1700
(iconstruction
TP_SYMLINKS
p4666
(dp4667
g1703
(dp4668
VN1_519
p4669
VS1_521
p4670
ssg556
I517
sg39
g1642
sbsg1709
VN
p4671
sg1711
I1
sg39
VBALLERINA
p4672
sg1712
(iconstruction
TP_SEMFRAME
p4673
(dp4674
g69
g0
(g70
g2
Ntp4675
Rp4676
(dp4677
g74
(dp4678
(iconstruction
TP_NODE
p4679
(dp4680
g1721
I00
sg58
g792
sg39
g4669
sg1722
I00
sg1723
I00
sg556
I519
sb(dp4681
g1722
I00
sg58
g792
ss(iconstruction
TP_NODE
p4682
(dp4683
g1721
I01
sg58
g714
sg39
VENT_518
p4684
sg1722
I01
sg1723
I00
sg556
I518
sb(dp4685
g1722
I01
sg58
g714
sssg257
g258
sg259
g258
sg260
(dp4686
g4679
(dp4687
sg4682
(dp4688
g4679
(dp4689
g58
g705
ssssg454
g4686
sg69
(dp4690
sg456
g258
sg457
g4686
sg458
(dp4691
g4679
(dp4692
g4682
g4689
ssg4682
(dp4693
ssbsg551
(lp4694
g4682
ag4679
asg824
(lp4695
(iconstruction
TP_REL
p4696
(dp4697
g830
g4679
sg58
g705
sg556
I520
sg831
g4682
sg39
VIS_520
p4698
sbasg556
I515
sg39
g1642
sbsg1737
(iconstruction
TP_SYNFORM
p4699
(dp4700
g556
I516
sg1740
(lp4701
(iconstruction
TP_PHON
p4702
(dp4703
g1750
I9
sg1747
I0
sg556
I521
sg1751
Vballerina
p4704
sg39
g4670
sbasg39
g1642
sbsg1758
I1
sba(iconstruction
CXN
p4705
(dp4706
g1700
(iconstruction
TP_SYMLINKS
p4707
(dp4708
g1703
(dp4709
VN1_526
p4710
VS1_528
p4711
ssg556
I524
sg39
g1642
sbsg1709
VN
p4712
sg1711
I1
sg39
VCELLIST
p4713
sg1712
(iconstruction
TP_SEMFRAME
p4714
(dp4715
g69
g0
(g70
g2
Ntp4716
Rp4717
(dp4718
g74
(dp4719
(iconstruction
TP_NODE
p4720
(dp4721
g1721
I01
sg58
g714
sg39
VENT_525
p4722
sg1722
I01
sg1723
I00
sg556
I525
sb(dp4723
g1722
I01
sg58
g714
ss(iconstruction
TP_NODE
p4724
(dp4725
g1721
I00
sg58
g795
sg39
g4710
sg1722
I00
sg1723
I00
sg556
I526
sb(dp4726
g1722
I00
sg58
g795
sssg257
g258
sg259
g258
sg260
(dp4727
g4720
(dp4728
g4724
(dp4729
g58
g705
sssg4724
(dp4730
ssg454
g4727
sg69
(dp4731
sg456
g258
sg457
g4727
sg458
(dp4732
g4720
(dp4733
sg4724
(dp4734
g4720
g4729
sssbsg551
(lp4735
g4720
ag4724
asg824
(lp4736
(iconstruction
TP_REL
p4737
(dp4738
g830
g4724
sg58
g705
sg556
I527
sg831
g4720
sg39
VIS_527
p4739
sbasg556
I522
sg39
g1642
sbsg1737
(iconstruction
TP_SYNFORM
p4740
(dp4741
g556
I523
sg1740
(lp4742
(iconstruction
TP_PHON
p4743
(dp4744
g1750
I7
sg1747
I0
sg556
I528
sg1751
Vcellist
p4745
sg39
g4711
sbasg39
g1642
sbsg1758
I1
sba(iconstruction
CXN
p4746
(dp4747
g1700
(iconstruction
TP_SYMLINKS
p4748
(dp4749
g1703
(dp4750
VN1_533
p4751
VS1_535
p4752
ssg556
I531
sg39
g1642
sbsg1709
VN
p4753
sg1711
I1
sg39
VFENCER
p4754
sg1712
(iconstruction
TP_SEMFRAME
p4755
(dp4756
g69
g0
(g70
g2
Ntp4757
Rp4758
(dp4759
g74
(dp4760
(iconstruction
TP_NODE
p4761
(dp4762
g1721
I00
sg58
g801
sg39
g4751
sg1722
I00
sg1723
I00
sg556
I533
sb(dp4763
g1722
I00
sg58
g801
ss(iconstruction
TP_NODE
p4764
(dp4765
g1721
I01
sg58
g714
sg39
VENT_532
p4766
sg1722
I01
sg1723
I00
sg556
I532
sb(dp4767
g1722
I01
sg58
g714
sssg257
g258
sg259
g258
sg260
(dp4768
g4761
(dp4769
sg4764
(dp4770
g4761
(dp4771
g58
g705
ssssg454
g4768
sg69
(dp4772
sg456
g258
sg457
g4768
sg458
(dp4773
g4761
(dp4774
g4764
g4771
ssg4764
(dp4775
ssbsg551
(lp4776
g4764
ag4761
asg824
(lp4777
(iconstruction
TP_REL
p4778
(dp4779
g830
g4761
sg58
g705
sg556
I534
sg831
g4764
sg39
VIS_534
p4780
sbasg556
I529
sg39
g1642
sbsg1737
(iconstruction
TP_SYNFORM
p4781
(dp4782
g556
I530
sg1740
(lp4783
(iconstruction
TP_PHON
p4784
(dp4785
g1750
I6
sg1747
I0
sg556
I535
sg1751
Vfencer
p4786
sg39
g4752
sbasg39
g1642
sbsg1758
I1
sba(iconstruction
CXN
p4787
(dp4788
g1700
(iconstruction
TP_SYMLINKS
p4789
(dp4790
g1703
(dp4791
VN1_540
p4792
VS1_542
p4793
ssg556
I538
sg39
g1642
sbsg1709
VN
p4794
sg1711
I1
sg39
VROBBER
p4795
sg1712
(iconstruction
TP_SEMFRAME
p4796
(dp4797
g69
g0
(g70
g2
Ntp4798
Rp4799
(dp4800
g74
(dp4801
(iconstruction
TP_NODE
p4802
(dp4803
g1721
I00
sg58
g804
sg39
g4792
sg1722
I00
sg1723
I00
sg556
I540
sb(dp4804
g1722
I00
sg58
g804
ss(iconstruction
TP_NODE
p4805
(dp4806
g1721
I01
sg58
g714
sg39
VENT_539
p4807
sg1722
I01
sg1723
I00
sg556
I539
sb(dp4808
g1722
I01
sg58
g714
sssg257
g258
sg259
g258
sg260
(dp4809
g4802
(dp4810
sg4805
(dp4811
g4802
(dp4812
g58
g705
ssssg454
g4809
sg69
(dp4813
sg456
g258
sg457
g4809
sg458
(dp4814
g4802
(dp4815
g4805
g4812
ssg4805
(dp4816
ssbsg551
(lp4817
g4805
ag4802
asg824
(lp4818
(iconstruction
TP_REL
p4819
(dp4820
g830
g4802
sg58
g705
sg556
I541
sg831
g4805
sg39
VIS_541
p4821
sbasg556
I536
sg39
g1642
sbsg1737
(iconstruction
TP_SYNFORM
p4822
(dp4823
g556
I537
sg1740
(lp4824
(iconstruction
TP_PHON
p4825
(dp4826
g1750
I5
sg1747
I0
sg556
I542
sg1751
Vthief
p4827
sg39
g4793
sbasg39
g1642
sbsg1758
I1
sba(iconstruction
CXN
p4828
(dp4829
g1700
(iconstruction
TP_SYMLINKS
p4830
(dp4831
g1703
(dp4832
VN1_547
p4833
VS1_549
p4834
ssg556
I545
sg39
g1642
sbsg1709
VN
p4835
sg1711
I1
sg39
VPOLICEMAN
p4836
sg1712
(iconstruction
TP_SEMFRAME
p4837
(dp4838
g69
g0
(g70
g2
Ntp4839
Rp4840
(dp4841
g74
(dp4842
(iconstruction
TP_NODE
p4843
(dp4844
g1721
I01
sg58
g714
sg39
VENT_546
p4845
sg1722
I01
sg1723
I00
sg556
I546
sb(dp4846
g1722
I01
sg58
g714
ss(iconstruction
TP_NODE
p4847
(dp4848
g1721
I00
sg58
g786
sg39
g4833
sg1722
I00
sg1723
I00
sg556
I547
sb(dp4849
g1722
I00
sg58
g786
sssg257
g258
sg259
g258
sg260
(dp4850
g4843
(dp4851
g4847
(dp4852
g58
g705
sssg4847
(dp4853
ssg454
g4850
sg69
(dp4854
sg456
g258
sg457
g4850
sg458
(dp4855
g4843
(dp4856
sg4847
(dp4857
g4843
g4852
sssbsg551
(lp4858
g4843
ag4847
asg824
(lp4859
(iconstruction
TP_REL
p4860
(dp4861
g830
g4847
sg58
g705
sg556
I548
sg831
g4843
sg39
VIS_548
p4862
sbasg556
I543
sg39
g1642
sbsg1737
(iconstruction
TP_SYNFORM
p4863
(dp4864
g556
I544
sg1740
(lp4865
(iconstruction
TP_PHON
p4866
(dp4867
g1750
I9
sg1747
I0
sg556
I549
sg1751
Vpoliceman
p4868
sg39
g4834
sbasg39
g1642
sbsg1758
I1
sba(iconstruction
CXN
p4869
(dp4870
g1700
(iconstruction
TP_SYMLINKS
p4871
(dp4872
g1703
(dp4873
VN1_554
p4874
VS1_556
p4875
ssg556
I552
sg39
g1642
sbsg1709
VN
p4876
sg1711
I1
sg39
VHUNTER
p4877
sg1712
(iconstruction
TP_SEMFRAME
p4878
(dp4879
g69
g0
(g70
g2
Ntp4880
Rp4881
(dp4882
g74
(dp4883
(iconstruction
TP_NODE
p4884
(dp4885
g1721
I00
sg58
g789
sg39
g4874
sg1722
I00
sg1723
I00
sg556
I554
sb(dp4886
g1722
I00
sg58
g789
ss(iconstruction
TP_NODE
p4887
(dp4888
g1721
I01
sg58
g714
sg39
VENT_553
p4889
sg1722
I01
sg1723
I00
sg556
I553
sb(dp4890
g1722
I01
sg58
g714
sssg257
g258
sg259
g258
sg260
(dp4891
g4884
(dp4892
sg4887
(dp4893
g4884
(dp4894
g58
g705
ssssg454
g4891
sg69
(dp4895
sg456
g258
sg457
g4891
sg458
(dp4896
g4884
(dp4897
g4887
g4894
ssg4887
(dp4898
ssbsg551
(lp4899
g4887
ag4884
asg824
(lp4900
(iconstruction
TP_REL
p4901
(dp4902
g830
g4884
sg58
g705
sg556
I555
sg831
g4887
sg39
VIS_555
p4903
sbasg556
I550
sg39
g1642
sbsg1737
(iconstruction
TP_SYNFORM
p4904
(dp4905
g556
I551
sg1740
(lp4906
(iconstruction
TP_PHON
p4907
(dp4908
g1750
I6
sg1747
I0
sg556
I556
sg1751
Vhunter
p4909
sg39
g4875
sbasg39
g1642
sbsg1758
I1
sba(iconstruction
CXN
p4910
(dp4911
g1700
(iconstruction
TP_SYMLINKS
p4912
(dp4913
g1703
(dp4914
VN1_561
p4915
VS1_563
p4916
ssg556
I559
sg39
g1642
sbsg1709
VN
p4917
sg1711
I1
sg39
VDOG
p4918
sg1712
(iconstruction
TP_SEMFRAME
p4919
(dp4920
g69
g0
(g70
g2
Ntp4921
Rp4922
(dp4923
g74
(dp4924
(iconstruction
TP_NODE
p4925
(dp4926
g1721
I01
sg58
g714
sg39
VENT_560
p4927
sg1722
I01
sg1723
I00
sg556
I560
sb(dp4928
g1722
I01
sg58
g714
ss(iconstruction
TP_NODE
p4929
(dp4930
g1721
I00
sg58
g774
sg39
g4915
sg1722
I00
sg1723
I00
sg556
I561
sb(dp4931
g1722
I00
sg58
g774
sssg257
g258
sg259
g258
sg260
(dp4932
g4925
(dp4933
g4929
(dp4934
g58
g705
sssg4929
(dp4935
ssg454
g4932
sg69
(dp4936
sg456
g258
sg457
g4932
sg458
(dp4937
g4925
(dp4938
sg4929
(dp4939
g4925
g4934
sssbsg551
(lp4940
g4925
ag4929
asg824
(lp4941
(iconstruction
TP_REL
p4942
(dp4943
g830
g4929
sg58
g705
sg556
I562
sg831
g4925
sg39
VIS_562
p4944
sbasg556
I557
sg39
g1642
sbsg1737
(iconstruction
TP_SYNFORM
p4945
(dp4946
g556
I558
sg1740
(lp4947
(iconstruction
TP_PHON
p4948
(dp4949
g1750
I3
sg1747
I0
sg556
I563
sg1751
Vdog
p4950
sg39
g4916
sbasg39
g1642
sbsg1758
I1
sba(iconstruction
CXN
p4951
(dp4952
g1700
(iconstruction
TP_SYMLINKS
p4953
(dp4954
g1703
(dp4955
VN1_568
p4956
VS1_570
p4957
ssg556
I566
sg39
g1642
sbsg1709
VN
p4958
sg1711
I1
sg39
VHOOK
p4959
sg1712
(iconstruction
TP_SEMFRAME
p4960
(dp4961
g69
g0
(g70
g2
Ntp4962
Rp4963
(dp4964
g74
(dp4965
(iconstruction
TP_NODE
p4966
(dp4967
g1721
I00
sg58
g744
sg39
g4956
sg1722
I00
sg1723
I00
sg556
I568
sb(dp4968
g1722
I00
sg58
g744
ss(iconstruction
TP_NODE
p4969
(dp4970
g1721
I01
sg58
g714
sg39
VENT_567
p4971
sg1722
I01
sg1723
I00
sg556
I567
sb(dp4972
g1722
I01
sg58
g714
sssg257
g258
sg259
g258
sg260
(dp4973
g4966
(dp4974
sg4969
(dp4975
g4966
(dp4976
g58
g705
ssssg454
g4973
sg69
(dp4977
sg456
g258
sg457
g4973
sg458
(dp4978
g4966
(dp4979
g4969
g4976
ssg4969
(dp4980
ssbsg551
(lp4981
g4969
ag4966
asg824
(lp4982
(iconstruction
TP_REL
p4983
(dp4984
g830
g4966
sg58
g705
sg556
I569
sg831
g4969
sg39
VIS_569
p4985
sbasg556
I564
sg39
g1642
sbsg1737
(iconstruction
TP_SYNFORM
p4986
(dp4987
g556
I565
sg1740
(lp4988
(iconstruction
TP_PHON
p4989
(dp4990
g1750
I4
sg1747
I0
sg556
I570
sg1751
Vhook
p4991
sg39
g4957
sbasg39
g1642
sbsg1758
I1
sba(iconstruction
CXN
p4992
(dp4993
g1700
(iconstruction
TP_SYMLINKS
p4994
(dp4995
g1703
(dp4996
VN1_575
p4997
VS1_577
p4998
ssg556
I573
sg39
g1642
sbsg1709
VN
p4999
sg1711
I1
sg39
VBOOKSHELF
p5000
sg1712
(iconstruction
TP_SEMFRAME
p5001
(dp5002
g69
g0
(g70
g2
Ntp5003
Rp5004
(dp5005
g74
(dp5006
(iconstruction
TP_NODE
p5007
(dp5008
g1721
I00
sg58
g750
sg39
g4997
sg1722
I00
sg1723
I00
sg556
I575
sb(dp5009
g1722
I00
sg58
g750
ss(iconstruction
TP_NODE
p5010
(dp5011
g1721
I01
sg58
g714
sg39
VENT_574
p5012
sg1722
I01
sg1723
I00
sg556
I574
sb(dp5013
g1722
I01
sg58
g714
sssg257
g258
sg259
g258
sg260
(dp5014
g5007
(dp5015
sg5010
(dp5016
g5007
(dp5017
g58
g705
ssssg454
g5014
sg69
(dp5018
sg456
g258
sg457
g5014
sg458
(dp5019
g5007
(dp5020
g5010
g5017
ssg5010
(dp5021
ssbsg551
(lp5022
g5010
ag5007
asg824
(lp5023
(iconstruction
TP_REL
p5024
(dp5025
g830
g5007
sg58
g705
sg556
I576
sg831
g5010
sg39
VIS_576
p5026
sbasg556
I571
sg39
g1642
sbsg1737
(iconstruction
TP_SYNFORM
p5027
(dp5028
g556
I572
sg1740
(lp5029
(iconstruction
TP_PHON
p5030
(dp5031
g1750
I9
sg1747
I0
sg556
I577
sg1751
Vbookshelf
p5032
sg39
g4998
sbasg39
g1642
sbsg1758
I1
sba(iconstruction
CXN
p5033
(dp5034
g1700
(iconstruction
TP_SYMLINKS
p5035
(dp5036
g1703
(dp5037
VN1_582
p5038
VS1_584
p5039
ssg556
I580
sg39
g1642
sbsg1709
VN
p5040
sg1711
I1
sg39
VWAGON
p5041
sg1712
(iconstruction
TP_SEMFRAME
p5042
(dp5043
g69
g0
(g70
g2
Ntp5044
Rp5045
(dp5046
g74
(dp5047
(iconstruction
TP_NODE
p5048
(dp5049
g1721
I01
sg58
g714
sg39
VENT_581
p5050
sg1722
I01
sg1723
I00
sg556
I581
sb(dp5051
g1722
I01
sg58
g714
ss(iconstruction
TP_NODE
p5052
(dp5053
g1721
I00
sg58
g732
sg39
g5038
sg1722
I00
sg1723
I00
sg556
I582
sb(dp5054
g1722
I00
sg58
g732
sssg257
g258
sg259
g258
sg260
(dp5055
g5048
(dp5056
g5052
(dp5057
g58
g705
sssg5052
(dp5058
ssg454
g5055
sg69
(dp5059
sg456
g258
sg457
g5055
sg458
(dp5060
g5048
(dp5061
sg5052
(dp5062
g5048
g5057
sssbsg551
(lp5063
g5048
ag5052
asg824
(lp5064
(iconstruction
TP_REL
p5065
(dp5066
g830
g5052
sg58
g705
sg556
I583
sg831
g5048
sg39
VIS_583
p5067
sbasg556
I578
sg39
g1642
sbsg1737
(iconstruction
TP_SYNFORM
p5068
(dp5069
g556
I579
sg1740
(lp5070
(iconstruction
TP_PHON
p5071
(dp5072
g1750
I5
sg1747
I0
sg556
I584
sg1751
Vwagon
p5073
sg39
g5039
sbasg39
g1642
sbsg1758
I1
sba(iconstruction
CXN
p5074
(dp5075
g1700
(iconstruction
TP_SYMLINKS
p5076
(dp5077
g1703
(dp5078
VN1_589
p5079
VS1_591
p5080
ssg556
I587
sg39
g1642
sbsg1709
VN
p5081
sg1711
I1
sg39
VTREE
p5082
sg1712
(iconstruction
TP_SEMFRAME
p5083
(dp5084
g69
g0
(g70
g2
Ntp5085
Rp5086
(dp5087
g74
(dp5088
(iconstruction
TP_NODE
p5089
(dp5090
g1721
I00
sg58
g741
sg39
g5079
sg1722
I00
sg1723
I00
sg556
I589
sb(dp5091
g1722
I00
sg58
g741
ss(iconstruction
TP_NODE
p5092
(dp5093
g1721
I01
sg58
g714
sg39
VENT_588
p5094
sg1722
I01
sg1723
I00
sg556
I588
sb(dp5095
g1722
I01
sg58
g714
sssg257
g258
sg259
g258
sg260
(dp5096
g5089
(dp5097
sg5092
(dp5098
g5089
(dp5099
g58
g705
ssssg454
g5096
sg69
(dp5100
sg456
g258
sg457
g5096
sg458
(dp5101
g5089
(dp5102
g5092
g5099
ssg5092
(dp5103
ssbsg551
(lp5104
g5092
ag5089
asg824
(lp5105
(iconstruction
TP_REL
p5106
(dp5107
g830
g5089
sg58
g705
sg556
I590
sg831
g5092
sg39
VIS_590
p5108
sbasg556
I585
sg39
g1642
sbsg1737
(iconstruction
TP_SYNFORM
p5109
(dp5110
g556
I586
sg1740
(lp5111
(iconstruction
TP_PHON
p5112
(dp5113
g1750
I4
sg1747
I0
sg556
I591
sg1751
Vtree
p5114
sg39
g5080
sbasg39
g1642
sbsg1758
I1
sbasbsg39
g1655
sg41
(lp5115
g0
(g43
g2
Ntp5116
Rp5117
(dp5118
g1545
Nsg39
g1551
sg48
Nsg49
Nsg1547
Nsg266
g1490
sg556
I20
sg1491
g1761
sbag0
(g43
g2
Ntp5119
Rp5120
(dp5121
g39
S'to_cxn_retrieval_C'
p5122
sg48
Nsg49
g1692
sg266
g1490
sg556
I21
sg1491
g1761
sbasg1496
(dp5123
g1551
Nsg5122
Nssg1498
(lp5124
sg1501
F1.0
sg1502
(lp5125
sg1504
(dp5126
g1129
F0.3
ssg1506
I0
sg1507
I0
sg1127
g1510
sg556
I4
sS'schemas'
p5127
g1692
sbsg1129
F0.3
sbag0
(g1693
g2
Ntp5128
Rp5129
(dp5130
g39
g1779
sg56
g1769
sg1127
Nsg556
I100
sg1128
g1761
sg1129
F0.3
sbag0
(g1693
g2
Ntp5131
Rp5132
(dp5133
g39
g1830
sg56
g1820
sg1127
Nsg556
I101
sg1128
g1761
sg1129
F0.3
sbag0
(g1693
g2
Ntp5134
Rp5135
(dp5136
g39
g1883
sg56
g1871
sg1127
Nsg556
I102
sg1128
g1761
sg1129
F0.3
sbag0
(g1693
g2
Ntp5137
Rp5138
(dp5139
g39
g1962
sg56
g1950
sg1127
Nsg556
I103
sg1128
g1761
sg1129
F0.3
sbag0
(g1693
g2
Ntp5140
Rp5141
(dp5142
g39
g2037
sg56
g2025
sg1127
Nsg556
I104
sg1128
g1761
sg1129
F0.3
sbag0
(g1693
g2
Ntp5143
Rp5144
(dp5145
g39
g2126
sg56
g2112
sg1127
Nsg556
I105
sg1128
g1761
sg1129
F0.3
sbag0
(g1693
g2
Ntp5146
Rp5147
(dp5148
g39
g2217
sg56
g2203
sg1127
Nsg556
I106
sg1128
g1761
sg1129
F0.3
sbag0
(g1693
g2
Ntp5149
Rp5150
(dp5151
g39
g2308
sg56
g2298
sg1127
Nsg556
I107
sg1128
g1761
sg1129
F0.3
sbag0
(g1693
g2
Ntp5152
Rp5153
(dp5154
g39
g2370
sg56
g2360
sg1127
Nsg556
I108
sg1128
g1761
sg1129
F0.3
sbag0
(g1693
g2
Ntp5155
Rp5156
(dp5157
g39
g2429
sg56
g2419
sg1127
Nsg556
I109
sg1128
g1761
sg1129
F0.3
sbag0
(g1693
g2
Ntp5158
Rp5159
(dp5160
g39
g2481
sg56
g2471
sg1127
Nsg556
I110
sg1128
g1761
sg1129
F0.3
sbag0
(g1693
g2
Ntp5161
Rp5162
(dp5163
g39
g2528
sg56
g2518
sg1127
Nsg556
I111
sg1128
g1761
sg1129
F0.3
sbag0
(g1693
g2
Ntp5164
Rp5165
(dp5166
g39
g2577
sg56
g2565
sg1127
Nsg556
I112
sg1128
g1761
sg1129
F0.3
sbag0
(g1693
g2
Ntp5167
Rp5168
(dp5169
g39
g2657
sg56
g2647
sg1127
Nsg556
I113
sg1128
g1761
sg1129
F0.3
sbag0
(g1693
g2
Ntp5170
Rp5171
(dp5172
g39
g2725
sg56
g2713
sg1127
Nsg556
I114
sg1128
g1761
sg1129
F0.3
sbag0
(g1693
g2
Ntp5173
Rp5174
(dp5175
g39
g2819
sg56
g2807
sg1127
Nsg556
I115
sg1128
g1761
sg1129
F0.3
sbag0
(g1693
g2
Ntp5176
Rp5177
(dp5178
g39
g2901
sg56
g2889
sg1127
Nsg556
I116
sg1128
g1761
sg1129
F0.3
sbag0
(g1693
g2
Ntp5179
Rp5180
(dp5181
g39
g2993
sg56
g2983
sg1127
Nsg556
I117
sg1128
g1761
sg1129
F0.3
sbag0
(g1693
g2
Ntp5182
Rp5183
(dp5184
g39
g3058
sg56
g3048
sg1127
Nsg556
I118
sg1128
g1761
sg1129
F0.3
sbag0
(g1693
g2
Ntp5185
Rp5186
(dp5187
g39
g3137
sg56
g3129
sg1127
Nsg556
I119
sg1128
g1761
sg1129
F0.3
sbag0
(g1693
g2
Ntp5188
Rp5189
(dp5190
g39
g3178
sg56
g3170
sg1127
Nsg556
I120
sg1128
g1761
sg1129
F0.3
sbag0
(g1693
g2
Ntp5191
Rp5192
(dp5193
g39
g3219
sg56
g3211
sg1127
Nsg556
I121
sg1128
g1761
sg1129
F0.3
sbag0
(g1693
g2
Ntp5194
Rp5195
(dp5196
g39
g3260
sg56
g3252
sg1127
Nsg556
I122
sg1128
g1761
sg1129
F0.3
sbag0
(g1693
g2
Ntp5197
Rp5198
(dp5199
g39
g3301
sg56
g3293
sg1127
Nsg556
I123
sg1128
g1761
sg1129
F0.3
sbag0
(g1693
g2
Ntp5200
Rp5201
(dp5202
g39
g3342
sg56
g3334
sg1127
Nsg556
I124
sg1128
g1761
sg1129
F0.3
sbag0
(g1693
g2
Ntp5203
Rp5204
(dp5205
g39
g3383
sg56
g3375
sg1127
Nsg556
I125
sg1128
g1761
sg1129
F0.3
sbag0
(g1693
g2
Ntp5206
Rp5207
(dp5208
g39
g3428
sg56
g3420
sg1127
Nsg556
I126
sg1128
g1761
sg1129
F0.3
sbag0
(g1693
g2
Ntp5209
Rp5210
(dp5211
g39
g3473
sg56
g3465
sg1127
Nsg556
I127
sg1128
g1761
sg1129
F0.3
sbag0
(g1693
g2
Ntp5212
Rp5213
(dp5214
g39
g3514
sg56
g3506
sg1127
Nsg556
I128
sg1128
g1761
sg1129
F0.3
sbag0
(g1693
g2
Ntp5215
Rp5216
(dp5217
g39
g3555
sg56
g3547
sg1127
Nsg556
I129
sg1128
g1761
sg1129
F0.3
sbag0
(g1693
g2
Ntp5218
Rp5219
(dp5220
g39
g3596
sg56
g3588
sg1127
Nsg556
I130
sg1128
g1761
sg1129
F0.3
sbag0
(g1693
g2
Ntp5221
Rp5222
(dp5223
g39
g3637
sg56
g3629
sg1127
Nsg556
I131
sg1128
g1761
sg1129
F0.3
sbag0
(g1693
g2
Ntp5224
Rp5225
(dp5226
g39
g3678
sg56
g3670
sg1127
Nsg556
I132
sg1128
g1761
sg1129
F0.3
sbag0
(g1693
g2
Ntp5227
Rp5228
(dp5229
g39
g3719
sg56
g3711
sg1127
Nsg556
I133
sg1128
g1761
sg1129
F0.3
sbag0
(g1693
g2
Ntp5230
Rp5231
(dp5232
g39
g3750
sg56
g3742
sg1127
Nsg556
I134
sg1128
g1761
sg1129
F0.3
sbag0
(g1693
g2
Ntp5233
Rp5234
(dp5235
g39
g3781
sg56
g3773
sg1127
Nsg556
I135
sg1128
g1761
sg1129
F0.3
sbag0
(g1693
g2
Ntp5236
Rp5237
(dp5238
g39
g3812
sg56
g3804
sg1127
Nsg556
I136
sg1128
g1761
sg1129
F0.3
sbag0
(g1693
g2
Ntp5239
Rp5240
(dp5241
g39
g3843
sg56
g3835
sg1127
Nsg556
I137
sg1128
g1761
sg1129
F0.3
sbag0
(g1693
g2
Ntp5242
Rp5243
(dp5244
g39
g3874
sg56
g3866
sg1127
Nsg556
I138
sg1128
g1761
sg1129
F0.3
sbag0
(g1693
g2
Ntp5245
Rp5246
(dp5247
g39
g3905
sg56
g3897
sg1127
Nsg556
I139
sg1128
g1761
sg1129
F0.3
sbag0
(g1693
g2
Ntp5248
Rp5249
(dp5250
g39
g3936
sg56
g3928
sg1127
Nsg556
I140
sg1128
g1761
sg1129
F0.3
sbag0
(g1693
g2
Ntp5251
Rp5252
(dp5253
g39
g3967
sg56
g3959
sg1127
Nsg556
I141
sg1128
g1761
sg1129
F0.3
sbag0
(g1693
g2
Ntp5254
Rp5255
(dp5256
g39
g4008
sg56
g4000
sg1127
Nsg556
I142
sg1128
g1761
sg1129
F0.3
sbag0
(g1693
g2
Ntp5257
Rp5258
(dp5259
g39
g4049
sg56
g4041
sg1127
Nsg556
I143
sg1128
g1761
sg1129
F0.3
sbag0
(g1693
g2
Ntp5260
Rp5261
(dp5262
g39
g4090
sg56
g4082
sg1127
Nsg556
I144
sg1128
g1761
sg1129
F0.3
sbag0
(g1693
g2
Ntp5263
Rp5264
(dp5265
g39
g4131
sg56
g4123
sg1127
Nsg556
I145
sg1128
g1761
sg1129
F0.3
sbag0
(g1693
g2
Ntp5266
Rp5267
(dp5268
g39
g4172
sg56
g4164
sg1127
Nsg556
I146
sg1128
g1761
sg1129
F0.3
sbag0
(g1693
g2
Ntp5269
Rp5270
(dp5271
g39
g4213
sg56
g4205
sg1127
Nsg556
I147
sg1128
g1761
sg1129
F0.3
sbag0
(g1693
g2
Ntp5272
Rp5273
(dp5274
g39
g4254
sg56
g4246
sg1127
Nsg556
I148
sg1128
g1761
sg1129
F0.3
sbag0
(g1693
g2
Ntp5275
Rp5276
(dp5277
g39
g4295
sg56
g4287
sg1127
Nsg556
I149
sg1128
g1761
sg1129
F0.3
sbag0
(g1693
g2
Ntp5278
Rp5279
(dp5280
g39
g4336
sg56
g4328
sg1127
Nsg556
I150
sg1128
g1761
sg1129
F0.3
sbag0
(g1693
g2
Ntp5281
Rp5282
(dp5283
g39
g4377
sg56
g4369
sg1127
Nsg556
I151
sg1128
g1761
sg1129
F0.3
sbag0
(g1693
g2
Ntp5284
Rp5285
(dp5286
g39
g4422
sg56
g4414
sg1127
Nsg556
I152
sg1128
g1761
sg1129
F0.3
sbag0
(g1693
g2
Ntp5287
Rp5288
(dp5289
g39
g4463
sg56
g4455
sg1127
Nsg556
I153
sg1128
g1761
sg1129
F0.3
sbag0
(g1693
g2
Ntp5290
Rp5291
(dp5292
g39
g4504
sg56
g4496
sg1127
Nsg556
I154
sg1128
g1761
sg1129
F0.3
sbag0
(g1693
g2
Ntp5293
Rp5294
(dp5295
g39
g4545
sg56
g4537
sg1127
Nsg556
I155
sg1128
g1761
sg1129
F0.3
sbag0
(g1693
g2
Ntp5296
Rp5297
(dp5298
g39
g4586
sg56
g4578
sg1127
Nsg556
I156
sg1128
g1761
sg1129
F0.3
sbag0
(g1693
g2
Ntp5299
Rp5300
(dp5301
g39
g4627
sg56
g4619
sg1127
Nsg556
I157
sg1128
g1761
sg1129
F0.3
sbag0
(g1693
g2
Ntp5302
Rp5303
(dp5304
g39
g4672
sg56
g4664
sg1127
Nsg556
I158
sg1128
g1761
sg1129
F0.3
sbag0
(g1693
g2
Ntp5305
Rp5306
(dp5307
g39
g4713
sg56
g4705
sg1127
Nsg556
I159
sg1128
g1761
sg1129
F0.3
sbag0
(g1693
g2
Ntp5308
Rp5309
(dp5310
g39
g4754
sg56
g4746
sg1127
Nsg556
I160
sg1128
g1761
sg1129
F0.3
sbag0
(g1693
g2
Ntp5311
Rp5312
(dp5313
g39
g4795
sg56
g4787
sg1127
Nsg556
I161
sg1128
g1761
sg1129
F0.3
sbag0
(g1693
g2
Ntp5314
Rp5315
(dp5316
g39
g4836
sg56
g4828
sg1127
Nsg556
I162
sg1128
g1761
sg1129
F0.3
sbag0
(g1693
g2
Ntp5317
Rp5318
(dp5319
g39
g4877
sg56
g4869
sg1127
Nsg556
I163
sg1128
g1761
sg1129
F0.3
sbag0
(g1693
g2
Ntp5320
Rp5321
(dp5322
g39
g4918
sg56
g4910
sg1127
Nsg556
I164
sg1128
g1761
sg1129
F0.3
sbag0
(g1693
g2
Ntp5323
Rp5324
(dp5325
g39
g4959
sg56
g4951
sg1127
Nsg556
I165
sg1128
g1761
sg1129
F0.3
sbag0
(g1693
g2
Ntp5326
Rp5327
(dp5328
g39
g5000
sg56
g4992
sg1127
Nsg556
I166
sg1128
g1761
sg1129
F0.3
sbag0
(g1693
g2
Ntp5329
Rp5330
(dp5331
g39
g5041
sg56
g5033
sg1127
Nsg556
I167
sg1128
g1761
sg1129
F0.3
sbag0
(g1693
g2
Ntp5332
Rp5333
(dp5334
g39
g5082
sg56
g5074
sg1127
Nsg556
I168
sg1128
g1761
sg1129
F0.3
sbasg1547
Nsg266
g1526
sg556
I22
sg1491
g1677
sbag1672
asg1504
(dp5335
sg1506
I0
sg1507
I0
sg1127
g1510
sg556
I5
sbsbsS'port_from'
p5336
g1549
sg1127
g1510
sg556
I1
sbag0
(g1664
g2
Ntp5337
Rp5338
(dp5339
g1668
I0
sg39
g1642
sg1669
I0
sg1670
g1690
sg5336
g5117
sg1127
g1510
sg556
I2
sbag0
(g1664
g2
Ntp5340
Rp5341
(dp5342
g1668
I0
sg39
g1642
sg1669
I0
sg1670
g0
(g43
g2
Ntp5343
Rp5344
(dp5345
g1545
Nsg39
S'from_cxn_retrieval_P'
p5346
sg48
Nsg49
Nsg1547
Nsg266
g1526
sg556
I14
sg1491
g0
(clanguage_schemas
GRAMMATICAL_WM_P
p5347
g2
Ntp5348
Rp5349
(dp5350
g37
(dp5351
g5346
NsS'from_phonological_WM_P'
p5352
Nsg1674
Nsg1534
Nssg1536
(lp5353
sg39
g1651
sg1539
(lp5354
sg41
(lp5355
g0
(g43
g2
Ntp5356
Rp5357
(dp5358
g1545
Nsg39
g1495
sg48
Nsg49
Nsg1547
Nsg266
g1490
sg556
I17
sg1491
g5349
sbag0
(g43
g2
Ntp5359
Rp5360
(dp5361
g1545
Nsg39
S'to_phonological_WM_P'
p5362
sg48
Nsg49
Nsg1547
Nsg266
g1490
sg556
I18
sg1491
g5349
sbag0
(g43
g2
Ntp5363
Rp5364
(dp5365
g39
g1563
sg48
Nsg49
Nsg266
g1490
sg556
I19
sg1491
g5349
sbasg1496
(dp5366
g1563
Nsg5362
Nsg1495
Nssg1501
F1.0
sg1565
(lp5367
sg1502
(lp5368
g0
(g43
g2
Ntp5369
Rp5370
(dp5371
g1545
Nsg39
g1674
sg48
Nsg49
(dp5372
g551
(dp5373
VEVENT_2534319
p5374
cnumpy.core.multiarray
scalar
p5375
(cnumpy
dtype
p5376
(S'f8'
p5377
I0
I1
tp5378
Rp5379
(I3
S'<'
p5380
NNNI-1
I-1
I0
tp5381
bS'\xde\xe8\xdc\x1e\x03\xad\xeb?'
p5382
tp5383
Rp5384
sVEVENT_2534335
p5385
g5375
(g5379
S"0\xd2\x02'\xc0\xcc\xeb?"
p5386
tp5387
Rp5388
sVWATERING_CAN_2534333
p5389
g5375
(g5379
S'\xd2\x1f\xcep-\xd4\xeb?'
p5390
tp5391
Rp5392
sVKICK_2534338
p5393
g5375
(g5379
S'\x18\xaa\xffs\xa7\xe0\xeb?'
p5394
tp5395
Rp5396
sVMAN_2534314
p5397
g5375
(g5379
S'\x19\xe7\xecgw\x99\xeb?'
p5398
tp5399
Rp5400
sVWOMAN_2534317
p5401
g5375
(g5379
S'\x9bn\x07)i\x97\xeb?'
p5402
tp5403
Rp5404
sVACTION_2534320
p5405
g5375
(g5379
S'\xc0\x10c\xa6X\xa9\xeb?'
p5406
tp5407
Rp5408
sVENTITY_2534313
p5409
g5375
(g5379
S'\xdd\xcd\x80\xed\x9e\xab\xeb?'
p5410
tp5411
Rp5412
sVENTITY_2534332
p5413
g5375
(g5379
S's\x18b\x9b\xa1\xd7\xeb?'
p5414
tp5415
Rp5416
sVPUNCH_2534322
p5417
g5375
(g5379
S'\xba\x06s\xbeh\xae\xeb?'
p5418
tp5419
Rp5420
sVENTITY_2534316
p5421
g5375
(g5379
S'\x17DX\xbcF\x84\xeb?'
p5422
tp5423
Rp5424
sVACTION_2534336
p5425
g5375
(g5379
S'\x8b\x96 \x83\x91\xdf\xeb?'
p5426
tp5427
Rp5428
ssg824
(dp5429
(g5425
g5409
tp5430
g5375
(g5379
S' \x10\xbb\xbf\xac\xd8\xeb?'
p5431
tp5432
Rp5433
s(g5405
g5421
tp5434
g5375
(g5379
S'\xbd\x7f\xbc\xfd\xac\xa4\xeb?'
p5435
tp5436
Rp5437
s(g5421
g5401
tp5438
g5375
(g5379
S'E\xe0\x15\x18\x8d\x8d\xeb?'
p5439
tp5440
Rp5441
s(g5425
g5393
tp5442
g5375
(g5379
S'rRP\xbbc\xc4\xeb?'
p5443
tp5444
Rp5445
s(g5409
g5385
tp5446
g5375
(g5379
S'\xed\xbc\x90\xf4\xca\xcd\xeb?'
p5447
tp5448
Rp5449
s(g5425
g5413
tp5450
g5375
(g5379
S'\x9c\xbe|\x9dy\xb2\xeb?'
p5451
tp5452
Rp5453
s(g5413
g5389
tp5454
g5375
(g5379
S'\xc0\x1b\xe9GP\xca\xeb?'
p5455
tp5456
Rp5457
s(g5374
g5405
tp5458
g5375
(g5379
S'\xb8\xb6YO\x0c\xa2\xeb?'
p5459
tp5460
Rp5461
s(g5405
g5409
tp5462
g5375
(g5379
S'/\xcb\xdf\xca\xd4\xb1\xeb?'
p5463
tp5464
Rp5465
s(g5409
g5397
tp5466
g5375
(g5379
S'\x1a d\xcc\x93\xa8\xeb?'
p5467
tp5468
Rp5469
s(g5405
g5417
tp5470
g5375
(g5379
S'\xa9:\xe5\x0co\x9a\xeb?'
p5471
tp5472
Rp5473
s(g5385
g5425
tp5474
g5375
(g5379
S'<W\xd0\x90!\xc7\xeb?'
p5475
tp5476
Rp5477
sssg1547
Nsg266
g1526
sg556
I13
sg1491
g5349
sbag5344
ag0
(g43
g2
Ntp5478
Rp5479
(dp5480
g1545
Nsg39
g1534
sg48
Nsg49
(dp5481
S'params_style'
p5482
(dp5483
S'continuity'
p5484
F0.1
sS'form_length'
p5485
F0.0
sS'sem_length'
p5486
F0.5
sS'activation'
p5487
F0.7
ssS'pressure'
p5488
g5375
(g5379
S'+\x87\x16\xd9\xce\xf7\xef?'
p5489
tp5490
Rp5491
sg1580
I01
ssg1547
Nsg266
g1526
sg556
I15
sg1491
g5349
sbag0
(g43
g2
Ntp5492
Rp5493
(dp5494
g1545
Nsg39
g5352
sg48
Nsg49
(lp5495
sg1547
Nsg266
g1526
sg556
I16
sg1491
g5349
sbasg1581
(dp5496
g1583
(dp5497
sg1585
(dp5498
g1587
(lp5499
sg1589
(dp5500
g1591
(lp5501
sg1593
(lp5502
sg1595
(lp5503
ssg1597
(lp5504
sg1506
(lp5505
sg1600
(lp5506
sssg1504
(dp5507
g1603
(dp5508
g1605
F1.0
sS'deact_weight'
p5509
F0.0
sg1606
F-10.0
sg1607
F1.0
sg1608
F1.0
sg1609
F1.0
sS'sub_threshold_r'
p5510
F0.8
sg1610
F0.3
sg1611
F0.0
sg1612
F0.01
ssg1613
(dp5511
g1615
g5375
(g5379
S'\x00\x00\x00\x00\x00@\x8f@'
p5512
tp5513
Rp5514
sg1616
g5375
(g5379
S'\x00\x00\x00\x00\x00\x00$@'
p5515
tp5516
Rp5517
sg1617
F0.001
sg1618
F0.0
sg1619
g5375
(g5379
S'\x00\x00\x00\x00\x00\x00\x00@'
p5518
tp5519
Rp5520
sg1620
g5375
(g5379
S'\x00\x00\x00\x00\x00\x00$@'
p5521
tp5522
Rp5523
sg1621
F1.0
ssS'style'
p5524
(dp5525
g5484
F0.1
sg5485
F0.0
sg5486
F0.5
sg5487
F0.7
sssg1506
I0
sg1507
I0
sg1127
g1510
sg556
I3
sbsbsg5336
g1683
sg1127
g1510
sg556
I3
sbag0
(g1664
g2
Ntp5526
Rp5527
(dp5528
g1668
I0
sg39
g1642
sg1669
I0
sg1670
g5370
sg5336
g1543
sg1127
g1510
sg556
I4
sbag0
(g1664
g2
Ntp5529
Rp5530
(dp5531
g1668
I0
sg39
g1642
sg1669
I0
sg1670
g1575
sg5336
g5357
sg1127
g1510
sg556
I5
sbag0
(g1664
g2
Ntp5532
Rp5533
(dp5534
g1668
I0
sg39
g1642
sg1669
I0
sg1670
g0
(g43
g2
Ntp5535
Rp5536
(dp5537
g1545
Nsg39
g1532
sg48
Nsg49
Nsg1547
Nsg266
g1526
sg556
I25
sg1491
g0
(clanguage_schemas
PHON_WM_P
p5538
g2
Ntp5539
Rp5540
(dp5541
g37
(dp5542
g1532
Nssg1536
(lp5543
sg39
g1647
sg1539
(lp5544
sg41
(lp5545
g0
(g43
g2
Ntp5546
Rp5547
(dp5548
g1545
Nsg39
S'to_utter'
p5549
sg48
Nsg49
Nsg1547
Nsg266
g1490
sg556
I26
sg1491
g5540
sbag0
(g43
g2
Ntp5550
Rp5551
(dp5552
g1545
Nsg39
g1546
sg48
Nsg49
Nsg1547
Nsg266
g1490
sg556
I27
sg1491
g5540
sbag0
(g43
g2
Ntp5553
Rp5554
(dp5555
g1545
Nsg39
g1555
sg48
Nsg49
Nsg1547
Nsg266
g1490
sg556
I28
sg1491
g5540
sbag0
(g43
g2
Ntp5556
Rp5557
(dp5558
g39
g1563
sg48
Nsg49
Nsg266
g1490
sg556
I29
sg1491
g5540
sbasg1496
(dp5559
g1563
Nsg1546
Nsg5549
Nsg1555
NssS'needs_filler'
p5560
I01
sg1501
F1.0
sg1565
(lp5561
sg1502
(lp5562
g5536
asS'filler'
p5563
S'....'
p5564
sg1581
(dp5565
g1583
(dp5566
sg1585
(dp5567
g1587
(lp5568
sg1589
(dp5569
g1591
(lp5570
sg1593
(lp5571
sg1595
(lp5572
ssg1597
(lp5573
sg1506
(lp5574
sg1600
(lp5575
sssg1504
(dp5576
g1603
(dp5577
g1605
F1.0
sg1606
F0.0
sg1607
F1.0
sg1608
F1.0
sg1609
F0.0
sg1610
F0.0
sg1611
F0.0
sg1612
F0.01
ssg1613
(dp5578
g1615
F100.0
sg1616
F10.0
sg1617
F0.001
sg1618
F0.0
sg1619
F1.0
sg1620
F1.0
sg1621
F1.0
sssg1506
I0
sg1507
I0
sg1127
g1510
sS'phon_sequence'
p5579
(lp5580
sg556
I6
sbsbsg5336
g5360
sg1127
g1510
sg556
I6
sbag0
(g1664
g2
Ntp5581
Rp5582
(dp5583
g1668
I0
sg39
g1642
sg1669
I0
sg1670
g5493
sg5336
g5551
sg1127
g1510
sg556
I7
sbag0
(g1664
g2
Ntp5584
Rp5585
(dp5586
g1668
I0
sg39
g1642
sg1669
I0
sg1670
g0
(g43
g2
Ntp5587
Rp5588
(dp5589
g1545
Nsg39
g1674
sg48
Nsg49
I01
sg1547
Nsg266
g1526
sg556
I32
sg1491
g0
(clanguage_schemas
CONTROL
p5590
g2
Ntp5591
Rp5592
(dp5593
g37
(dp5594
g5352
Nsg1674
Nssg39
g1637
sg41
(lp5595
g0
(g43
g2
Ntp5596
Rp5597
(dp5598
g1545
Nsg39
g1495
sg48
Nsg49
Nsg1547
Nsg266
g1490
sg556
I34
sg1491
g5592
sbag0
(g43
g2
Ntp5599
Rp5600
(dp5601
g1545
Nsg39
g1546
sg48
Nsg49
Nsg1547
Nsg266
g1490
sg556
I35
sg1491
g5592
sbag0
(g43
g2
Ntp5602
Rp5603
(dp5604
g39
S'to_grammatical_WM_C'
p5605
sg48
Nsg49
I00
sg266
g1490
sg556
I36
sg1491
g5592
sbasg1496
(dp5606
g1546
Nsg5605
Nsg1495
Nssg1501
F1.0
sg1502
(lp5607
g5588
ag0
(g43
g2
Ntp5608
Rp5609
(dp5610
g1545
Nsg39
g5352
sg48
Nsg49
Nsg1547
Nsg266
g1526
sg556
I33
sg1491
g5592
sbasS'state'
p5611
(dp5612
g1580
I00
sS'unexpressed_sem'
p5613
I00
sS'mode'
p5614
g1580
sS'last_prod_time'
p5615
I0
ssg1504
(dp5616
g5524
(dp5617
g5484
F0.1
sg5485
F0.0
sg5487
F0.7
sg5486
F0.5
ssS'task'
p5618
(dp5619
S'time_pressure'
p5620
g5375
(g5379
S'\x00\x00\x00\x00\x00@\x8f@'
p5621
tp5622
Rp5623
sS'start_produce'
p5624
g5375
(g5379
S'\x00\x00\x00\x00\x00@\x8f@'
p5625
tp5626
Rp5627
sssg1506
I0
sg1507
I0
sg1127
g1510
sg556
I8
sbsbsg5336
g1553
sg1127
g1510
sg556
I8
sbag0
(g1664
g2
Ntp5628
Rp5629
(dp5630
g1668
I0
sg39
g1642
sg1669
I0
sg1670
g0
(g43
g2
Ntp5631
Rp5632
(dp5633
g1545
Nsg39
g5352
sg48
Nsg49
Nsg1547
Nsg266
g1526
sg556
I30
sg1491
g0
(clanguage_schemas
UTTER
p5634
g2
Ntp5635
Rp5636
(dp5637
g37
(dp5638
g5352
Nssg39
g1640
sg41
(lp5639
g0
(g43
g2
Ntp5640
Rp5641
(dp5642
g39
g1563
sg48
Nsg49
Nsg266
g1490
sg556
I31
sg1491
g5636
sbasg1496
(dp5643
g1563
NssS'utterance_stack'
p5644
(lp5645
sg1501
F1.0
sg1502
(lp5646
g5632
asg1504
(dp5647
S'speech_rate'
p5648
F1.0
ssg1506
I0
sg1507
I0
sg1127
g1510
sg556
I7
sbsbsg5336
g5547
sg1127
g1510
sg556
I9
sbag0
(g1664
g2
Ntp5649
Rp5650
(dp5651
g1668
I0
sg39
g1642
sg1669
I0
sg1670
g5609
sg5336
g5554
sg1127
g1510
sg556
I10
sbag0
(g1664
g2
Ntp5652
Rp5653
(dp5654
g1668
I0
sg39
g1642
sg1669
I0
sg1670
g5479
sg5336
g5600
sg1127
g1510
sg556
I11
sbag0
(g1664
g2
Ntp5655
Rp5656
(dp5657
g1668
I0
sg39
g1642
sg1669
I0
sg1670
g1578
sg5336
g5597
sg1127
g1510
sg556
I12
sbasg1504
(dp5658
g1637
g5616
sg1647
g5576
sg40
g1505
sg1655
g5126
sg1659
g5335
sg1538
g1602
sg1640
g5647
sg1651
g5507
ssg1506
F0.0
sS'set_up_time'
p5659
I10
sS'input'
p5660
NsS'default_params'
p5661
Nsg1501
F1.0
sS'output_ports'
p5662
(lp5663
g5641
ag5557
ag5364
ag1561
asg5127
(dp5664
g1637
g5592
sg1647
g5540
sg40
g35
sg1659
g1677
sg1651
g5349
sg1538
g1529
sg1640
g5636
sg1655
g1761
ssbsg556
I2
sg5127
g50
sbsS'speed_param'
p5665
I100
sS'ground_truths'
p5666
(lp5667
Vwoman wear blue dress
p5668
aVwoman in blue
p5669
aVlady wear blue dress
p5670
aVlady in blue
p5671
asS'is_macro'
p5672
I01
sb.