ccopy_reg
_reconstructor
p0
(clanguage_schemas
SEM_GENERATOR
p1
c__builtin__
object
p2
Ntp3
Rp4
(dp5
S'sem_inputs'
p6
(dp7
S'{}'
p8
(dp9
Vtiming
p10
(lp11
F0.0
aF100.0
aF200.0
aF300.0
asVsem_rate
p12
I1
sVpropositions
p13
(dp14
VMAN_AREA
p15
(lp16
VENTITY(e1,F)
p17
aVMAN(man)
p18
aVIS(is1)
p19
aVis1(e1, man)
p20
asVKICK_AREA
p21
(lp22
VACTION(a1,F)
p23
aVKICK(kick)
p24
aVIS(is4)
p25
aVis4(a1, kick)
p26
asVACTION_AREA
p27
(lp28
VEVENT(evt1,F)
p29
aVIS(is3)
p30
aVis3(evt1,a1)
p31
aVAGENT(agt)
p32
aVPATIENT(pt)
p33
aVagt(a1, e2)
p34
aVpt(a1, e1)
p35
asVGIRL_AREA
p36
(lp37
VENTITY(e2,F)
p38
aVGIRL(girl)
p39
aVIS(is2)
p40
aVis2(e2, girl)
p41
assVcomments
p42
VEasy objects, hard action, agent_cued, no lexical competition
p43
sVsequence
p44
(lp45
VGIRL_AREA
p46
aVMAN_AREA
p47
aVKICK_AREA
p48
aVACTION_AREA
p49
asssS'is_macro'
p50
I01
sS'ground_truths'
p51
NsS'speed_param'
p52
I100
sS'interpreter'
p53
g0
(clanguage_schemas
ISRF_INTERPRETER
p54
g2
Ntp55
Rp56
(dp57
S'name_table'
p58
(dp59
sS'conceptLTM'
p60
g0
(clanguage_schemas
CONCEPT_LTM
p61
g2
Ntp62
Rp63
(dp64
S'inputs'
p65
(dp66
sS'name'
p67
S'Concept_LTM'
p68
sS'out_ports'
p69
(lp70
g0
(cschema_theory
PORT
p71
g2
Ntp72
Rp73
(dp74
g67
S'to_conceptualizer'
p75
sS'data'
p76
NsS'value'
p77
NsS'type'
p78
S'OUT'
p79
sS'id'
p80
I11
sS'schema'
p81
g63
sbag0
(g71
g2
Ntp82
Rp83
(dp84
g67
S'to_semantic_WM'
p85
sg76
Nsg77
Nsg78
g79
sg80
I12
sg81
g63
sbasS'outputs'
p86
(dp87
g75
Nsg85
NssS'connections'
p88
(lp89
sS'cpt_knowledge'
p90
g0
(cconcept
CONCEPTUAL_KNOWLEDGE
p91
g2
Ntp92
Rp93
(dp94
S'graph'
p95
g0
(cnetworkx.classes.digraph
DiGraph
p96
g2
Ntp97
Rp98
(dp99
S'node'
p100
(dp101
I1
(dp102
S'meaning'
p103
S'?'
p104
ssI2
(dp105
g103
S'CONCEPT'
p106
ssI3
(dp107
g103
VACTION
p108
ssI4
(dp109
g103
VSYMMETRIC
p110
ssI5
(dp111
g103
VMEET
p112
ssI6
(dp113
g103
VSHAKE_HANDS
p114
ssI7
(dp115
g103
VINTRANSITIVE
p116
ssI8
(dp117
g103
VLAUGH
p118
ssI9
(dp119
g103
VTRANSITIVE
p120
ssI10
(dp121
g103
VHIT
p122
ssI11
(dp123
g103
VWATCH
p124
ssI12
(dp125
g103
VPUNCH
p126
ssI13
(dp127
g103
VSPLASH
p128
ssI14
(dp129
g103
VTALK
p130
ssI15
(dp131
g103
VKISS
p132
ssI16
(dp133
g103
VSQUIRT
p134
ssI17
(dp135
g103
VKICK
p136
ssI18
(dp137
g103
VWEAR
p138
ssI19
(dp139
g103
VDITRANSITIVE
p140
ssI20
(dp141
g103
VSEND
p142
ssI21
(dp143
g103
VGIVE
p144
ssI22
(dp145
g103
VPROPERTY
p146
ssI23
(dp147
g103
VCOLOR
p148
ssI24
(dp149
g103
VBLUE
p150
ssI25
(dp151
g103
VGREEN
p152
ssI26
(dp153
g103
VWHITE
p154
ssI27
(dp155
g103
VBLACK
p156
ssI28
(dp157
g103
VRED
p158
ssI29
(dp159
g103
VAPPEARANCE
p160
ssI30
(dp161
g103
VYOUNG
p162
ssI31
(dp163
g103
VPRETTY
p164
ssI32
(dp165
g103
VHANDSOME
p166
ssI33
(dp167
g103
VSIZE
p168
ssI34
(dp169
g103
VSMALL
p170
ssI35
(dp171
g103
VBIG
p172
ssI36
(dp173
g103
VRELATION
p174
ssI37
(dp175
g103
VACTION_FRAME
p176
ssI38
(dp177
g103
VMODIFY
p178
ssI39
(dp179
g103
VTHEME
p180
ssI40
(dp181
g103
VRECIPIENT
p182
ssI41
(dp183
g103
VATTR
p184
ssI42
(dp185
g103
VAGT_PT
p186
ssI43
(dp187
g103
VPATIENT
p188
ssI44
(dp189
g103
VAGT+PT
p190
ssI45
(dp191
g103
VAGENT
p192
ssI46
(dp193
g103
VEVENT_FRAME
p194
ssI47
(dp195
g103
VTEMPORAL
p196
ssI48
(dp197
g103
VCONCURRENT
p198
ssI49
(dp199
g103
VSUCCESSIVE
p200
ssI50
(dp201
g103
VSPATIAL
p202
ssI51
(dp203
g103
VIN
p204
ssI52
(dp205
g103
VIS
p206
ssI53
(dp207
g103
VOBJECT_FRAME
p208
ssI54
(dp209
g103
VEVENT
p210
ssI55
(dp211
g103
VENTITY
p212
ssI56
(dp213
g103
VANIMATE
p214
ssI57
(dp215
g103
VANIMAL
p216
ssI58
(dp217
g103
VHUMAN
p218
ssI59
(dp219
g103
VOBJECT
p220
ssI60
(dp221
g103
VITEM
p222
ssI61
(dp223
g103
VWAGON
p224
ssI62
(dp225
g103
VWATERING_CAN
p226
ssI63
(dp227
g103
VBAG
p228
ssI64
(dp229
g103
VTREE
p230
ssI65
(dp231
g103
VHOOK
p232
ssI66
(dp233
g103
VCELLO
p234
ssI67
(dp235
g103
VBOOKSHELF
p236
ssI68
(dp237
g103
VCLOTHING
p238
ssI69
(dp239
g103
VTSHIRT
p240
ssI70
(dp241
g103
VDRESS
p242
ssI71
(dp243
g103
VSHIRT
p244
ssI72
(dp245
g103
VSUIT
p246
ssI73
(dp247
g103
VTURTLE
p248
ssI74
(dp249
g103
VMOUSE
p250
ssI75
(dp251
g103
VDOG
p252
ssI76
(dp253
g103
VBOY
p254
ssI77
(dp255
g103
VWOMAN
p256
ssI78
(dp257
g103
VPEOPLE
p258
ssI79
(dp259
g103
VPOLICEMAN
p260
ssI80
(dp261
g103
VHUNTER
p262
ssI81
(dp263
g103
VBALLERINA
p264
ssI82
(dp265
g103
VCELLIST
p266
ssI83
(dp267
g103
VGIRL
p268
ssI84
(dp269
g103
VFENCER
p270
ssI85
(dp271
g103
VROBBER
p272
ssI86
(dp273
g103
VMAN
p274
ssI87
(dp275
g103
VPLACE
p276
ssI88
(dp277
g103
VBOXINGRING
p278
ssI89
(dp279
g103
VPARK
p280
ssI90
(dp281
g103
VMALE
p282
ssI91
(dp283
g103
VFEMALE
p284
sssS'node_dict_factory'
p285
c__builtin__
dict
p286
sS'edge_attr_dict_factory'
p287
g286
sS'succ'
p288
(dp289
I1
(dp290
sI2
(dp291
sI3
(dp292
I2
(dp293
g78
S'is_a'
p294
sssI4
(dp295
I3
(dp296
g78
g294
sssI5
(dp297
I4
(dp298
g78
g294
sssI6
(dp299
I4
(dp300
g78
g294
sssI7
(dp301
I3
(dp302
g78
g294
sssI8
(dp303
I7
(dp304
g78
g294
sssI9
(dp305
I3
(dp306
g78
g294
sssI10
(dp307
I9
(dp308
g78
g294
sssI11
(dp309
I9
(dp310
g78
g294
sssI12
(dp311
I9
(dp312
g78
g294
sssI13
(dp313
I9
(dp314
g78
g294
sssI14
(dp315
I9
(dp316
g78
g294
sssI15
(dp317
I9
(dp318
g78
g294
sssI16
(dp319
I9
(dp320
g78
g294
sssI17
(dp321
I9
(dp322
g78
g294
sssI18
(dp323
I9
(dp324
g78
g294
sssI19
(dp325
I3
(dp326
g78
g294
sssI20
(dp327
I19
(dp328
g78
g294
sssI21
(dp329
I19
(dp330
g78
g294
sssI22
(dp331
I2
(dp332
g78
g294
sssI23
(dp333
I22
(dp334
g78
g294
sssI24
(dp335
I23
(dp336
g78
g294
sssI25
(dp337
I23
(dp338
g78
g294
sssI26
(dp339
I23
(dp340
g78
g294
sssI27
(dp341
I23
(dp342
g78
g294
sssI28
(dp343
I23
(dp344
g78
g294
sssI29
(dp345
I22
(dp346
g78
g294
sssI30
(dp347
I29
(dp348
g78
g294
sssI31
(dp349
I29
(dp350
g78
g294
sssI32
(dp351
I29
(dp352
g78
g294
sssI33
(dp353
I22
(dp354
g78
g294
sssI34
(dp355
I33
(dp356
g78
g294
sssI35
(dp357
I33
(dp358
g78
g294
sssI36
(dp359
I2
(dp360
g78
g294
sssI37
(dp361
I36
(dp362
g78
g294
sssI38
(dp363
I37
(dp364
g78
g294
ssI53
(dp365
g78
g294
sssI39
(dp366
I37
(dp367
g78
g294
sssI40
(dp368
I37
(dp369
g78
g294
sssI41
(dp370
I37
(dp371
g78
g294
ssI53
(dp372
g78
g294
sssI42
(dp373
I37
(dp374
g78
g294
sssI43
(dp375
I42
(dp376
g78
g294
sssI44
(dp377
I43
(dp378
g78
g294
ssI45
(dp379
g78
g294
sssI45
(dp380
I42
(dp381
g78
g294
sssI46
(dp382
I36
(dp383
g78
g294
sssI47
(dp384
I46
(dp385
g78
g294
sssI48
(dp386
I47
(dp387
g78
g294
sssI49
(dp388
I47
(dp389
g78
g294
sssI50
(dp390
I46
(dp391
g78
g294
sssI51
(dp392
I50
(dp393
g78
g294
sssI52
(dp394
I36
(dp395
g78
g294
sssI53
(dp396
I36
(dp397
g78
g294
sssI54
(dp398
I2
(dp399
g78
g294
sssI55
(dp400
I2
(dp401
g78
g294
sssI56
(dp402
I55
(dp403
g78
g294
sssI57
(dp404
I56
(dp405
g78
g294
ssI59
(dp406
g78
g294
sssI58
(dp407
I56
(dp408
g78
g294
ssI59
(dp409
g78
g294
sssI59
(dp410
I55
(dp411
g78
g294
sssI60
(dp412
I59
(dp413
g78
g294
sssI61
(dp414
I60
(dp415
g78
g294
sssI62
(dp416
I60
(dp417
g78
g294
sssI63
(dp418
I60
(dp419
g78
g294
sssI64
(dp420
I60
(dp421
g78
g294
sssI65
(dp422
I60
(dp423
g78
g294
sssI66
(dp424
I60
(dp425
g78
g294
sssI67
(dp426
I60
(dp427
g78
g294
sssI68
(dp428
I60
(dp429
g78
g294
sssI69
(dp430
I68
(dp431
g78
g294
sssI70
(dp432
I68
(dp433
g78
g294
sssI71
(dp434
I68
(dp435
g78
g294
sssI72
(dp436
I68
(dp437
g78
g294
sssI73
(dp438
I57
(dp439
g78
g294
sssI74
(dp440
I57
(dp441
g78
g294
sssI75
(dp442
I57
(dp443
g78
g294
sssI76
(dp444
I58
(dp445
g78
g294
ssI90
(dp446
g78
g294
sssI77
(dp447
I58
(dp448
g78
g294
ssI91
(dp449
g78
g294
sssI78
(dp450
I58
(dp451
g78
g294
sssI79
(dp452
I58
(dp453
g78
g294
sssI80
(dp454
I58
(dp455
g78
g294
sssI81
(dp456
I58
(dp457
g78
g294
ssI91
(dp458
g78
g294
sssI82
(dp459
I58
(dp460
g78
g294
sssI83
(dp461
I58
(dp462
g78
g294
ssI91
(dp463
g78
g294
sssI84
(dp464
I58
(dp465
g78
g294
sssI85
(dp466
I58
(dp467
g78
g294
sssI86
(dp468
I58
(dp469
g78
g294
ssI90
(dp470
g78
g294
sssI87
(dp471
I55
(dp472
g78
g294
sssI88
(dp473
I87
(dp474
g78
g294
sssI89
(dp475
I87
(dp476
g78
g294
sssI90
(dp477
I55
(dp478
g78
g294
sssI91
(dp479
I55
(dp480
g78
g294
ssssS'edge'
p481
g289
sg95
(dp482
sS'adjlist_dict_factory'
p483
g286
sS'adj'
p484
g289
sS'pred'
p485
(dp486
I1
(dp487
sI2
(dp488
I3
g293
sI36
g360
sI54
g399
sI22
g332
sI55
g401
ssI3
(dp489
I9
g306
sI19
g326
sI4
g296
sI7
g302
ssI4
(dp490
I5
g298
sI6
g300
ssI5
(dp491
sI6
(dp492
sI7
(dp493
I8
g304
ssI8
(dp494
sI9
(dp495
I10
g308
sI11
g310
sI12
g312
sI13
g314
sI14
g316
sI15
g318
sI16
g320
sI17
g322
sI18
g324
ssI10
(dp496
sI11
(dp497
sI12
(dp498
sI13
(dp499
sI14
(dp500
sI15
(dp501
sI16
(dp502
sI17
(dp503
sI18
(dp504
sI19
(dp505
I20
g328
sI21
g330
ssI20
(dp506
sI21
(dp507
sI22
(dp508
I33
g354
sI29
g346
sI23
g334
ssI23
(dp509
I24
g336
sI25
g338
sI26
g340
sI27
g342
sI28
g344
ssI24
(dp510
sI25
(dp511
sI26
(dp512
sI27
(dp513
sI28
(dp514
sI29
(dp515
I32
g352
sI30
g348
sI31
g350
ssI30
(dp516
sI31
(dp517
sI32
(dp518
sI33
(dp519
I34
g356
sI35
g358
ssI34
(dp520
sI35
(dp521
sI36
(dp522
I52
g395
sI37
g362
sI46
g383
sI53
g397
ssI37
(dp523
I40
g369
sI41
g371
sI42
g374
sI38
g364
sI39
g367
ssI38
(dp524
sI39
(dp525
sI40
(dp526
sI41
(dp527
sI42
(dp528
I43
g376
sI45
g381
ssI43
(dp529
I44
g378
ssI44
(dp530
sI45
(dp531
I44
g379
ssI46
(dp532
I50
g391
sI47
g385
ssI47
(dp533
I48
g387
sI49
g389
ssI48
(dp534
sI49
(dp535
sI50
(dp536
I51
g393
ssI51
(dp537
sI52
(dp538
sI53
(dp539
I41
g372
sI38
g365
ssI54
(dp540
sI55
(dp541
I56
g403
sI91
g480
sI90
g478
sI59
g411
sI87
g472
ssI56
(dp542
I57
g405
sI58
g408
ssI57
(dp543
I73
g439
sI74
g441
sI75
g443
ssI58
(dp544
I76
g445
sI77
g448
sI78
g451
sI79
g453
sI80
g455
sI81
g457
sI82
g460
sI83
g462
sI84
g465
sI85
g467
sI86
g469
ssI59
(dp545
I57
g406
sI58
g409
sI60
g413
ssI60
(dp546
I64
g421
sI65
g423
sI66
g425
sI67
g427
sI68
g429
sI61
g415
sI62
g417
sI63
g419
ssI61
(dp547
sI62
(dp548
sI63
(dp549
sI64
(dp550
sI65
(dp551
sI66
(dp552
sI67
(dp553
sI68
(dp554
I72
g437
sI69
g431
sI70
g433
sI71
g435
ssI69
(dp555
sI70
(dp556
sI71
(dp557
sI72
(dp558
sI73
(dp559
sI74
(dp560
sI75
(dp561
sI76
(dp562
sI77
(dp563
sI78
(dp564
sI79
(dp565
sI80
(dp566
sI81
(dp567
sI82
(dp568
sI83
(dp569
sI84
(dp570
sI85
(dp571
sI86
(dp572
sI87
(dp573
I88
g474
sI89
g476
ssI88
(dp574
sI89
(dp575
sI90
(dp576
I76
g446
sI86
g470
ssI91
(dp577
I81
g458
sI83
g463
sI77
g449
sssbsS'nodes'
p578
(lp579
g0
(cconcept
CONCEPT
p580
g2
Ntp581
Rp582
(dp583
g103
g104
sS'conceptual_knowledge'
p584
g93
sg80
I1
sg67
g104
sbag0
(g580
g2
Ntp585
Rp586
(dp587
g103
g106
sg584
g93
sg80
I2
sg67
g106
sbag0
(g580
g2
Ntp588
Rp589
(dp590
g103
g108
sg584
g93
sg80
I3
sg67
g108
sbag0
(g580
g2
Ntp591
Rp592
(dp593
g103
g110
sg584
g93
sg80
I4
sg67
g110
sbag0
(g580
g2
Ntp594
Rp595
(dp596
g103
g112
sg584
g93
sg80
I5
sg67
g112
sbag0
(g580
g2
Ntp597
Rp598
(dp599
g103
g114
sg584
g93
sg80
I6
sg67
g114
sbag0
(g580
g2
Ntp600
Rp601
(dp602
g103
g116
sg584
g93
sg80
I7
sg67
g116
sbag0
(g580
g2
Ntp603
Rp604
(dp605
g103
g118
sg584
g93
sg80
I8
sg67
g118
sbag0
(g580
g2
Ntp606
Rp607
(dp608
g103
g120
sg584
g93
sg80
I9
sg67
g120
sbag0
(g580
g2
Ntp609
Rp610
(dp611
g103
g122
sg584
g93
sg80
I10
sg67
g122
sbag0
(g580
g2
Ntp612
Rp613
(dp614
g103
g124
sg584
g93
sg80
I11
sg67
g124
sbag0
(g580
g2
Ntp615
Rp616
(dp617
g103
g126
sg584
g93
sg80
I12
sg67
g126
sbag0
(g580
g2
Ntp618
Rp619
(dp620
g103
g128
sg584
g93
sg80
I13
sg67
g128
sbag0
(g580
g2
Ntp621
Rp622
(dp623
g103
g130
sg584
g93
sg80
I14
sg67
g130
sbag0
(g580
g2
Ntp624
Rp625
(dp626
g103
g132
sg584
g93
sg80
I15
sg67
g132
sbag0
(g580
g2
Ntp627
Rp628
(dp629
g103
g134
sg584
g93
sg80
I16
sg67
g134
sbag0
(g580
g2
Ntp630
Rp631
(dp632
g103
g136
sg584
g93
sg80
I17
sg67
g136
sbag0
(g580
g2
Ntp633
Rp634
(dp635
g103
g138
sg584
g93
sg80
I18
sg67
g138
sbag0
(g580
g2
Ntp636
Rp637
(dp638
g103
g140
sg584
g93
sg80
I19
sg67
g140
sbag0
(g580
g2
Ntp639
Rp640
(dp641
g103
g142
sg584
g93
sg80
I20
sg67
g142
sbag0
(g580
g2
Ntp642
Rp643
(dp644
g103
g144
sg584
g93
sg80
I21
sg67
g144
sbag0
(g580
g2
Ntp645
Rp646
(dp647
g103
g146
sg584
g93
sg80
I22
sg67
g146
sbag0
(g580
g2
Ntp648
Rp649
(dp650
g103
g148
sg584
g93
sg80
I23
sg67
g148
sbag0
(g580
g2
Ntp651
Rp652
(dp653
g103
g150
sg584
g93
sg80
I24
sg67
g150
sbag0
(g580
g2
Ntp654
Rp655
(dp656
g103
g152
sg584
g93
sg80
I25
sg67
g152
sbag0
(g580
g2
Ntp657
Rp658
(dp659
g103
g154
sg584
g93
sg80
I26
sg67
g154
sbag0
(g580
g2
Ntp660
Rp661
(dp662
g103
g156
sg584
g93
sg80
I27
sg67
g156
sbag0
(g580
g2
Ntp663
Rp664
(dp665
g103
g158
sg584
g93
sg80
I28
sg67
g158
sbag0
(g580
g2
Ntp666
Rp667
(dp668
g103
g160
sg584
g93
sg80
I29
sg67
g160
sbag0
(g580
g2
Ntp669
Rp670
(dp671
g103
g162
sg584
g93
sg80
I30
sg67
g162
sbag0
(g580
g2
Ntp672
Rp673
(dp674
g103
g164
sg584
g93
sg80
I31
sg67
g164
sbag0
(g580
g2
Ntp675
Rp676
(dp677
g103
g166
sg584
g93
sg80
I32
sg67
g166
sbag0
(g580
g2
Ntp678
Rp679
(dp680
g103
g168
sg584
g93
sg80
I33
sg67
g168
sbag0
(g580
g2
Ntp681
Rp682
(dp683
g103
g170
sg584
g93
sg80
I34
sg67
g170
sbag0
(g580
g2
Ntp684
Rp685
(dp686
g103
g172
sg584
g93
sg80
I35
sg67
g172
sbag0
(g580
g2
Ntp687
Rp688
(dp689
g103
g174
sg584
g93
sg80
I36
sg67
g174
sbag0
(g580
g2
Ntp690
Rp691
(dp692
g103
g176
sg584
g93
sg80
I37
sg67
g176
sbag0
(g580
g2
Ntp693
Rp694
(dp695
g103
g178
sg584
g93
sg80
I38
sg67
g178
sbag0
(g580
g2
Ntp696
Rp697
(dp698
g103
g180
sg584
g93
sg80
I39
sg67
g180
sbag0
(g580
g2
Ntp699
Rp700
(dp701
g103
g182
sg584
g93
sg80
I40
sg67
g182
sbag0
(g580
g2
Ntp702
Rp703
(dp704
g103
g184
sg584
g93
sg80
I41
sg67
g184
sbag0
(g580
g2
Ntp705
Rp706
(dp707
g103
g186
sg584
g93
sg80
I42
sg67
g186
sbag0
(g580
g2
Ntp708
Rp709
(dp710
g103
g188
sg584
g93
sg80
I43
sg67
g188
sbag0
(g580
g2
Ntp711
Rp712
(dp713
g103
g190
sg584
g93
sg80
I44
sg67
g190
sbag0
(g580
g2
Ntp714
Rp715
(dp716
g103
g192
sg584
g93
sg80
I45
sg67
g192
sbag0
(g580
g2
Ntp717
Rp718
(dp719
g103
g194
sg584
g93
sg80
I46
sg67
g194
sbag0
(g580
g2
Ntp720
Rp721
(dp722
g103
g196
sg584
g93
sg80
I47
sg67
g196
sbag0
(g580
g2
Ntp723
Rp724
(dp725
g103
g198
sg584
g93
sg80
I48
sg67
g198
sbag0
(g580
g2
Ntp726
Rp727
(dp728
g103
g200
sg584
g93
sg80
I49
sg67
g200
sbag0
(g580
g2
Ntp729
Rp730
(dp731
g103
g202
sg584
g93
sg80
I50
sg67
g202
sbag0
(g580
g2
Ntp732
Rp733
(dp734
g103
g204
sg584
g93
sg80
I51
sg67
g204
sbag0
(g580
g2
Ntp735
Rp736
(dp737
g103
g206
sg584
g93
sg80
I52
sg67
g206
sbag0
(g580
g2
Ntp738
Rp739
(dp740
g103
g208
sg584
g93
sg80
I53
sg67
g208
sbag0
(g580
g2
Ntp741
Rp742
(dp743
g103
g210
sg584
g93
sg80
I54
sg67
g210
sbag0
(g580
g2
Ntp744
Rp745
(dp746
g103
g212
sg584
g93
sg80
I55
sg67
g212
sbag0
(g580
g2
Ntp747
Rp748
(dp749
g103
g214
sg584
g93
sg80
I56
sg67
g214
sbag0
(g580
g2
Ntp750
Rp751
(dp752
g103
g216
sg584
g93
sg80
I57
sg67
g216
sbag0
(g580
g2
Ntp753
Rp754
(dp755
g103
g218
sg584
g93
sg80
I58
sg67
g218
sbag0
(g580
g2
Ntp756
Rp757
(dp758
g103
g220
sg584
g93
sg80
I59
sg67
g220
sbag0
(g580
g2
Ntp759
Rp760
(dp761
g103
g222
sg584
g93
sg80
I60
sg67
g222
sbag0
(g580
g2
Ntp762
Rp763
(dp764
g103
g224
sg584
g93
sg80
I61
sg67
g224
sbag0
(g580
g2
Ntp765
Rp766
(dp767
g103
g226
sg584
g93
sg80
I62
sg67
g226
sbag0
(g580
g2
Ntp768
Rp769
(dp770
g103
g228
sg584
g93
sg80
I63
sg67
g228
sbag0
(g580
g2
Ntp771
Rp772
(dp773
g103
g230
sg584
g93
sg80
I64
sg67
g230
sbag0
(g580
g2
Ntp774
Rp775
(dp776
g103
g232
sg584
g93
sg80
I65
sg67
g232
sbag0
(g580
g2
Ntp777
Rp778
(dp779
g103
g234
sg584
g93
sg80
I66
sg67
g234
sbag0
(g580
g2
Ntp780
Rp781
(dp782
g103
g236
sg584
g93
sg80
I67
sg67
g236
sbag0
(g580
g2
Ntp783
Rp784
(dp785
g103
g238
sg584
g93
sg80
I68
sg67
g238
sbag0
(g580
g2
Ntp786
Rp787
(dp788
g103
g240
sg584
g93
sg80
I69
sg67
g240
sbag0
(g580
g2
Ntp789
Rp790
(dp791
g103
g242
sg584
g93
sg80
I70
sg67
g242
sbag0
(g580
g2
Ntp792
Rp793
(dp794
g103
g244
sg584
g93
sg80
I71
sg67
g244
sbag0
(g580
g2
Ntp795
Rp796
(dp797
g103
g246
sg584
g93
sg80
I72
sg67
g246
sbag0
(g580
g2
Ntp798
Rp799
(dp800
g103
g248
sg584
g93
sg80
I73
sg67
g248
sbag0
(g580
g2
Ntp801
Rp802
(dp803
g103
g250
sg584
g93
sg80
I74
sg67
g250
sbag0
(g580
g2
Ntp804
Rp805
(dp806
g103
g252
sg584
g93
sg80
I75
sg67
g252
sbag0
(g580
g2
Ntp807
Rp808
(dp809
g103
g254
sg584
g93
sg80
I76
sg67
g254
sbag0
(g580
g2
Ntp810
Rp811
(dp812
g103
g256
sg584
g93
sg80
I77
sg67
g256
sbag0
(g580
g2
Ntp813
Rp814
(dp815
g103
g258
sg584
g93
sg80
I78
sg67
g258
sbag0
(g580
g2
Ntp816
Rp817
(dp818
g103
g260
sg584
g93
sg80
I79
sg67
g260
sbag0
(g580
g2
Ntp819
Rp820
(dp821
g103
g262
sg584
g93
sg80
I80
sg67
g262
sbag0
(g580
g2
Ntp822
Rp823
(dp824
g103
g264
sg584
g93
sg80
I81
sg67
g264
sbag0
(g580
g2
Ntp825
Rp826
(dp827
g103
g266
sg584
g93
sg80
I82
sg67
g266
sbag0
(g580
g2
Ntp828
Rp829
(dp830
g103
g268
sg584
g93
sg80
I83
sg67
g268
sbag0
(g580
g2
Ntp831
Rp832
(dp833
g103
g270
sg584
g93
sg80
I84
sg67
g270
sbag0
(g580
g2
Ntp834
Rp835
(dp836
g103
g272
sg584
g93
sg80
I85
sg67
g272
sbag0
(g580
g2
Ntp837
Rp838
(dp839
g103
g274
sg584
g93
sg80
I86
sg67
g274
sbag0
(g580
g2
Ntp840
Rp841
(dp842
g103
g276
sg584
g93
sg80
I87
sg67
g276
sbag0
(g580
g2
Ntp843
Rp844
(dp845
g103
g278
sg584
g93
sg80
I88
sg67
g278
sbag0
(g580
g2
Ntp846
Rp847
(dp848
g103
g280
sg584
g93
sg80
I89
sg67
g280
sbag0
(g580
g2
Ntp849
Rp850
(dp851
g103
g282
sg584
g93
sg80
I90
sg67
g282
sbag0
(g580
g2
Ntp852
Rp853
(dp854
g103
g284
sg584
g93
sg80
I91
sg67
g284
sbasS'edges'
p855
(lp856
g0
(cconcept
SEM_REL
p857
g2
Ntp858
Rp859
(dp860
S'pTo'
p861
g586
sg78
g294
sS'pFrom'
p862
g589
sbag0
(g857
g2
Ntp863
Rp864
(dp865
g861
g589
sg78
g294
sg862
g592
sbag0
(g857
g2
Ntp866
Rp867
(dp868
g861
g592
sg78
g294
sg862
g595
sbag0
(g857
g2
Ntp869
Rp870
(dp871
g861
g592
sg78
g294
sg862
g598
sbag0
(g857
g2
Ntp872
Rp873
(dp874
g861
g589
sg78
g294
sg862
g601
sbag0
(g857
g2
Ntp875
Rp876
(dp877
g861
g601
sg78
g294
sg862
g604
sbag0
(g857
g2
Ntp878
Rp879
(dp880
g861
g589
sg78
g294
sg862
g607
sbag0
(g857
g2
Ntp881
Rp882
(dp883
g861
g607
sg78
g294
sg862
g610
sbag0
(g857
g2
Ntp884
Rp885
(dp886
g861
g607
sg78
g294
sg862
g613
sbag0
(g857
g2
Ntp887
Rp888
(dp889
g861
g607
sg78
g294
sg862
g616
sbag0
(g857
g2
Ntp890
Rp891
(dp892
g861
g607
sg78
g294
sg862
g619
sbag0
(g857
g2
Ntp893
Rp894
(dp895
g861
g607
sg78
g294
sg862
g622
sbag0
(g857
g2
Ntp896
Rp897
(dp898
g861
g607
sg78
g294
sg862
g625
sbag0
(g857
g2
Ntp899
Rp900
(dp901
g861
g607
sg78
g294
sg862
g628
sbag0
(g857
g2
Ntp902
Rp903
(dp904
g861
g607
sg78
g294
sg862
g631
sbag0
(g857
g2
Ntp905
Rp906
(dp907
g861
g607
sg78
g294
sg862
g634
sbag0
(g857
g2
Ntp908
Rp909
(dp910
g861
g589
sg78
g294
sg862
g637
sbag0
(g857
g2
Ntp911
Rp912
(dp913
g861
g637
sg78
g294
sg862
g640
sbag0
(g857
g2
Ntp914
Rp915
(dp916
g861
g637
sg78
g294
sg862
g643
sbag0
(g857
g2
Ntp917
Rp918
(dp919
g861
g586
sg78
g294
sg862
g646
sbag0
(g857
g2
Ntp920
Rp921
(dp922
g861
g646
sg78
g294
sg862
g649
sbag0
(g857
g2
Ntp923
Rp924
(dp925
g861
g649
sg78
g294
sg862
g652
sbag0
(g857
g2
Ntp926
Rp927
(dp928
g861
g649
sg78
g294
sg862
g655
sbag0
(g857
g2
Ntp929
Rp930
(dp931
g861
g649
sg78
g294
sg862
g658
sbag0
(g857
g2
Ntp932
Rp933
(dp934
g861
g649
sg78
g294
sg862
g661
sbag0
(g857
g2
Ntp935
Rp936
(dp937
g861
g649
sg78
g294
sg862
g664
sbag0
(g857
g2
Ntp938
Rp939
(dp940
g861
g646
sg78
g294
sg862
g667
sbag0
(g857
g2
Ntp941
Rp942
(dp943
g861
g667
sg78
g294
sg862
g670
sbag0
(g857
g2
Ntp944
Rp945
(dp946
g861
g667
sg78
g294
sg862
g673
sbag0
(g857
g2
Ntp947
Rp948
(dp949
g861
g667
sg78
g294
sg862
g676
sbag0
(g857
g2
Ntp950
Rp951
(dp952
g861
g646
sg78
g294
sg862
g679
sbag0
(g857
g2
Ntp953
Rp954
(dp955
g861
g679
sg78
g294
sg862
g682
sbag0
(g857
g2
Ntp956
Rp957
(dp958
g861
g679
sg78
g294
sg862
g685
sbag0
(g857
g2
Ntp959
Rp960
(dp961
g861
g586
sg78
g294
sg862
g688
sbag0
(g857
g2
Ntp962
Rp963
(dp964
g861
g688
sg78
g294
sg862
g691
sbag0
(g857
g2
Ntp965
Rp966
(dp967
g861
g691
sg78
g294
sg862
g694
sbag0
(g857
g2
Ntp968
Rp969
(dp970
g861
g691
sg78
g294
sg862
g697
sbag0
(g857
g2
Ntp971
Rp972
(dp973
g861
g691
sg78
g294
sg862
g700
sbag0
(g857
g2
Ntp974
Rp975
(dp976
g861
g691
sg78
g294
sg862
g703
sbag0
(g857
g2
Ntp977
Rp978
(dp979
g861
g691
sg78
g294
sg862
g706
sbag0
(g857
g2
Ntp980
Rp981
(dp982
g861
g706
sg78
g294
sg862
g709
sbag0
(g857
g2
Ntp983
Rp984
(dp985
g861
g709
sg78
g294
sg862
g712
sbag0
(g857
g2
Ntp986
Rp987
(dp988
g861
g706
sg78
g294
sg862
g715
sbag0
(g857
g2
Ntp989
Rp990
(dp991
g861
g715
sg78
g294
sg862
g712
sbag0
(g857
g2
Ntp992
Rp993
(dp994
g861
g688
sg78
g294
sg862
g718
sbag0
(g857
g2
Ntp995
Rp996
(dp997
g861
g718
sg78
g294
sg862
g721
sbag0
(g857
g2
Ntp998
Rp999
(dp1000
g861
g721
sg78
g294
sg862
g724
sbag0
(g857
g2
Ntp1001
Rp1002
(dp1003
g861
g721
sg78
g294
sg862
g727
sbag0
(g857
g2
Ntp1004
Rp1005
(dp1006
g861
g718
sg78
g294
sg862
g730
sbag0
(g857
g2
Ntp1007
Rp1008
(dp1009
g861
g730
sg78
g294
sg862
g733
sbag0
(g857
g2
Ntp1010
Rp1011
(dp1012
g861
g688
sg78
g294
sg862
g736
sbag0
(g857
g2
Ntp1013
Rp1014
(dp1015
g861
g688
sg78
g294
sg862
g739
sbag0
(g857
g2
Ntp1016
Rp1017
(dp1018
g861
g739
sg78
g294
sg862
g694
sbag0
(g857
g2
Ntp1019
Rp1020
(dp1021
g861
g739
sg78
g294
sg862
g703
sbag0
(g857
g2
Ntp1022
Rp1023
(dp1024
g861
g586
sg78
g294
sg862
g742
sbag0
(g857
g2
Ntp1025
Rp1026
(dp1027
g861
g586
sg78
g294
sg862
g745
sbag0
(g857
g2
Ntp1028
Rp1029
(dp1030
g861
g745
sg78
g294
sg862
g748
sbag0
(g857
g2
Ntp1031
Rp1032
(dp1033
g861
g748
sg78
g294
sg862
g751
sbag0
(g857
g2
Ntp1034
Rp1035
(dp1036
g861
g748
sg78
g294
sg862
g754
sbag0
(g857
g2
Ntp1037
Rp1038
(dp1039
g861
g745
sg78
g294
sg862
g757
sbag0
(g857
g2
Ntp1040
Rp1041
(dp1042
g861
g757
sg78
g294
sg862
g760
sbag0
(g857
g2
Ntp1043
Rp1044
(dp1045
g861
g760
sg78
g294
sg862
g763
sbag0
(g857
g2
Ntp1046
Rp1047
(dp1048
g861
g760
sg78
g294
sg862
g766
sbag0
(g857
g2
Ntp1049
Rp1050
(dp1051
g861
g760
sg78
g294
sg862
g769
sbag0
(g857
g2
Ntp1052
Rp1053
(dp1054
g861
g760
sg78
g294
sg862
g772
sbag0
(g857
g2
Ntp1055
Rp1056
(dp1057
g861
g760
sg78
g294
sg862
g775
sbag0
(g857
g2
Ntp1058
Rp1059
(dp1060
g861
g760
sg78
g294
sg862
g778
sbag0
(g857
g2
Ntp1061
Rp1062
(dp1063
g861
g760
sg78
g294
sg862
g781
sbag0
(g857
g2
Ntp1064
Rp1065
(dp1066
g861
g760
sg78
g294
sg862
g784
sbag0
(g857
g2
Ntp1067
Rp1068
(dp1069
g861
g784
sg78
g294
sg862
g787
sbag0
(g857
g2
Ntp1070
Rp1071
(dp1072
g861
g784
sg78
g294
sg862
g790
sbag0
(g857
g2
Ntp1073
Rp1074
(dp1075
g861
g784
sg78
g294
sg862
g793
sbag0
(g857
g2
Ntp1076
Rp1077
(dp1078
g861
g784
sg78
g294
sg862
g796
sbag0
(g857
g2
Ntp1079
Rp1080
(dp1081
g861
g757
sg78
g294
sg862
g751
sbag0
(g857
g2
Ntp1082
Rp1083
(dp1084
g861
g751
sg78
g294
sg862
g799
sbag0
(g857
g2
Ntp1085
Rp1086
(dp1087
g861
g751
sg78
g294
sg862
g802
sbag0
(g857
g2
Ntp1088
Rp1089
(dp1090
g861
g751
sg78
g294
sg862
g805
sbag0
(g857
g2
Ntp1091
Rp1092
(dp1093
g861
g757
sg78
g294
sg862
g754
sbag0
(g857
g2
Ntp1094
Rp1095
(dp1096
g861
g754
sg78
g294
sg862
g808
sbag0
(g857
g2
Ntp1097
Rp1098
(dp1099
g861
g754
sg78
g294
sg862
g811
sbag0
(g857
g2
Ntp1100
Rp1101
(dp1102
g861
g754
sg78
g294
sg862
g814
sbag0
(g857
g2
Ntp1103
Rp1104
(dp1105
g861
g754
sg78
g294
sg862
g817
sbag0
(g857
g2
Ntp1106
Rp1107
(dp1108
g861
g754
sg78
g294
sg862
g820
sbag0
(g857
g2
Ntp1109
Rp1110
(dp1111
g861
g754
sg78
g294
sg862
g823
sbag0
(g857
g2
Ntp1112
Rp1113
(dp1114
g861
g754
sg78
g294
sg862
g826
sbag0
(g857
g2
Ntp1115
Rp1116
(dp1117
g861
g754
sg78
g294
sg862
g829
sbag0
(g857
g2
Ntp1118
Rp1119
(dp1120
g861
g754
sg78
g294
sg862
g832
sbag0
(g857
g2
Ntp1121
Rp1122
(dp1123
g861
g754
sg78
g294
sg862
g835
sbag0
(g857
g2
Ntp1124
Rp1125
(dp1126
g861
g754
sg78
g294
sg862
g838
sbag0
(g857
g2
Ntp1127
Rp1128
(dp1129
g861
g745
sg78
g294
sg862
g841
sbag0
(g857
g2
Ntp1130
Rp1131
(dp1132
g861
g841
sg78
g294
sg862
g844
sbag0
(g857
g2
Ntp1133
Rp1134
(dp1135
g861
g841
sg78
g294
sg862
g847
sbag0
(g857
g2
Ntp1136
Rp1137
(dp1138
g861
g745
sg78
g294
sg862
g850
sbag0
(g857
g2
Ntp1139
Rp1140
(dp1141
g861
g850
sg78
g294
sg862
g808
sbag0
(g857
g2
Ntp1142
Rp1143
(dp1144
g861
g850
sg78
g294
sg862
g838
sbag0
(g857
g2
Ntp1145
Rp1146
(dp1147
g861
g745
sg78
g294
sg862
g853
sbag0
(g857
g2
Ntp1148
Rp1149
(dp1150
g861
g853
sg78
g294
sg862
g823
sbag0
(g857
g2
Ntp1151
Rp1152
(dp1153
g861
g853
sg78
g294
sg862
g829
sbag0
(g857
g2
Ntp1154
Rp1155
(dp1156
g861
g853
sg78
g294
sg862
g811
sbasS'neutral'
p1157
g582
sbsS'dt'
p1158
F1.0
sS'in_ports'
p1159
(lp1160
sS'params'
p1161
(dp1162
S'init_act'
p1163
F1.0
ssS't'
p1164
F0.0
sS'activity'
p1165
F0.0
sS'model'
p1166
g0
(cschema_theory
MODEL
p1167
g2
Ntp1168
Rp1169
(dp1170
S'verbose'
p1171
I00
sg67
S'language_system_P'
p1172
sS'sim_data'
p1173
(dp1174
S'system_states'
p1175
(dp1176
sg1166
(dp1177
ssg86
(dp1178
sS'input_ports'
p1179
(lp1180
g0
(g71
g2
Ntp1181
Rp1182
(dp1183
g67
S'from_conceptualizer'
p1184
sg76
Nsg77
Nsg78
S'IN'
p1185
sg80
I1
sg81
g0
(clanguage_schemas
SEMANTIC_WM
p1186
g2
Ntp1187
Rp1188
(dp1189
g65
(dp1190
S'from_grammatical_WM_P'
p1191
NsS'from_concept_LTM'
p1192
NsS'from_control'
p1193
NsS'from_grammatical_WM_C'
p1194
Nsg1184
NssS'schema_insts'
p1195
(lp1196
sg67
S'Semantic_WM'
p1197
sS'comp_links'
p1198
(lp1199
sg69
(lp1200
g0
(g71
g2
Ntp1201
Rp1202
(dp1203
g67
S'to_grammatical_WM_P'
p1204
sg76
Nsg77
Nsg78
g79
sg80
I6
sg81
g1188
sbag0
(g71
g2
Ntp1205
Rp1206
(dp1207
g67
S'to_cxn_retrieval_P'
p1208
sg76
Nsg77
Nsg78
g79
sg80
I7
sg81
g1188
sbag0
(g71
g2
Ntp1209
Rp1210
(dp1211
g67
S'to_control'
p1212
sg76
Nsg77
Nsg78
g79
sg80
I8
sg81
g1188
sbag0
(g71
g2
Ntp1213
Rp1214
(dp1215
g67
S'to_visual_WM'
p1216
sg76
Nsg77
Nsg78
g79
sg80
I9
sg81
g1188
sbag0
(g71
g2
Ntp1217
Rp1218
(dp1219
g67
S'to_output'
p1220
sg76
Nsg77
Nsg78
g79
sg80
I10
sg81
g1188
sbasg86
(dp1221
g1220
Nsg1204
Nsg1216
Nsg1208
Nsg1212
Nssg1158
F1.0
sS'coop_links'
p1222
(lp1223
sg1159
(lp1224
g1182
ag0
(g71
g2
Ntp1225
Rp1226
(dp1227
g67
g1192
sg76
Nsg77
Nsg78
g1185
sg80
I2
sg81
g1188
sbag0
(g71
g2
Ntp1228
Rp1229
(dp1230
g67
g1194
sg76
Nsg77
Nsg78
g1185
sg80
I3
sg81
g1188
sbag0
(g71
g2
Ntp1231
Rp1232
(dp1233
g67
g1191
sg76
Nsg77
Nsg78
g1185
sg80
I4
sg81
g1188
sbag0
(g71
g2
Ntp1234
Rp1235
(dp1236
g67
g1193
sg76
Nsg77
Nsg78
g1185
sg80
I5
sg81
g1188
sbasS'save_state'
p1237
(dp1238
S'insts'
p1239
(dp1240
sS'WM_activity'
p1241
(dp1242
S'comp'
p1243
(lp1244
sS'c2_network'
p1245
(dp1246
S'num_insts'
p1247
(lp1248
sS'num_coop_links'
p1249
(lp1250
sS'num_comp_links'
p1251
(lp1252
ssS'coop'
p1253
(lp1254
sg1164
(lp1255
sS'act'
p1256
(lp1257
sssg1161
(dp1258
S'C2'
p1259
(dp1260
S'P_comp'
p1261
F1.0
sS'max_capacity'
p1262
NsS'comp_weight'
p1263
F0.0
sS'P_coop'
p1264
F1.0
sS'coop_asymmetry'
p1265
F1.0
sS'coop_weight'
p1266
F0.0
sS'confidence_threshold'
p1267
F0.0
sS'comp_asymmetry'
p1268
F0.0
sS'prune_threshold'
p1269
F0.01
ssS'dyn'
p1270
(dp1271
S'tau'
p1272
F10000.0
sS'k'
p1273
F10.0
sS'act_rest'
p1274
F0.001
sS'noise_mean'
p1275
F0.0
sS'noise_std'
p1276
F1.0
sS'ext_weight'
p1277
F1.0
sS'int_weight'
p1278
F1.0
sssg1164
F0.0
sg1165
F0.0
sg1166
g1169
sS'SemRep'
p1279
g0
(g96
g2
Ntp1280
Rp1281
(dp1282
g100
(dp1283
sg285
g286
sg287
g286
sg288
(dp1284
sg481
g1284
sg95
(dp1285
sg483
g286
sg484
g1284
sg485
(dp1286
sbsg80
I1
sbsbasS'brain_mapping'
p1287
g0
(cschema_theory
BRAIN_MAPPING
p1288
g2
Ntp1289
Rp1290
(dp1291
S'schema_mapping'
p1292
(dp1293
S'Control'
p1294
(lp1295
S'DLPFC'
p1296
asS'Utter'
p1297
(lp1298
S''
p1299
asg1197
(lp1300
S'left_SFG'
p1301
aS'LIP'
p1302
aS'Hippocampus'
p1303
asS'Phonological_WM_P'
p1304
(lp1305
S'left_BA6'
p1306
asg68
(lp1307
g1299
asS'Grammatical_WM_P'
p1308
(lp1309
S'left_BA45'
p1310
aS'leftBA44'
p1311
asS'Grammatical_LTM'
p1312
(lp1313
S'left_STG'
p1314
aS'left_MTG'
p1315
asS'Cxn_retrieval_P'
p1316
(lp1317
ssS'connect_mapping'
p1318
(dp1319
sbsg88
(lp1320
g0
(cschema_theory
CONNECT
p1321
g2
Ntp1322
Rp1323
(dp1324
S'delay'
p1325
I0
sg67
g1299
sS'weight'
p1326
I0
sS'port_to'
p1327
g0
(g71
g2
Ntp1328
Rp1329
(dp1330
g67
S'from_semantic_WM'
p1331
sg76
Nsg77
Nsg78
g1185
sg80
I23
sg81
g0
(clanguage_schemas
CXN_RETRIEVAL_P
p1332
g2
Ntp1333
Rp1334
(dp1335
g65
(dp1336
g1331
NsS'from_grammatical_LTM'
p1337
Nssg67
g1316
sg69
(lp1338
g0
(g71
g2
Ntp1339
Rp1340
(dp1341
g67
g1204
sg76
Nsg77
Nsg78
g79
sg80
I24
sg81
g1334
sbasg86
(dp1342
g1204
NssS'cxn_instances'
p1343
(lp1344
sg1158
F1.0
sg1159
(lp1345
g0
(g71
g2
Ntp1346
Rp1347
(dp1348
g67
g1337
sg76
Nsg77
Nsg78
g1185
sg80
I22
sg81
g1334
sbag1329
asg1161
(dp1349
sg1164
F0.0
sg1165
F0.0
sg1166
g1169
sg80
I5
sbsbsS'port_from'
p1350
g1206
sg1166
g1169
sg80
I1
sbag0
(g1321
g2
Ntp1351
Rp1352
(dp1353
g1325
I0
sg67
g1299
sg1326
I0
sg1327
g1347
sg1350
g0
(g71
g2
Ntp1354
Rp1355
(dp1356
g67
g1208
sg76
Nsg77
Nsg78
g79
sg80
I20
sg81
g0
(clanguage_schemas
GRAMMATICAL_LTM
p1357
g2
Ntp1358
Rp1359
(dp1360
g65
(dp1361
sS'grammar'
p1362
(iconstruction
GRAMMAR
p1363
(dp1364
S'constructions'
p1365
(lp1366
(iconstruction
CXN
p1367
(dp1368
S'SymLinks'
p1369
(iconstruction
TP_SYMLINKS
p1370
(dp1371
S'SL'
p1372
(dp1373
VEVT1_4
p1374
VS1_6
p1375
sVEVT2_5
p1376
VS3_8
p1377
ssg80
I3
sg67
g1299
sbsS'clss'
p1378
VD
p1379
sS'group'
p1380
I3
sg67
VCNJ_AND
p1381
sS'SemFrame'
p1382
(iconstruction
TP_SEMFRAME
p1383
(dp1384
g95
g0
(g96
g2
Ntp1385
Rp1386
(dp1387
g100
(dp1388
(iconstruction
TP_NODE
p1389
(dp1390
S'head'
p1391
I00
sS'concept'
p1392
g742
sg67
g1374
sS'frame'
p1393
I00
sS'focus'
p1394
I01
sg80
I4
sb(dp1395
g1393
I00
sg1392
g742
ss(iconstruction
TP_NODE
p1396
(dp1397
g1391
I00
sg1392
g742
sg67
g1376
sg1393
I00
sg1394
I00
sg80
I5
sb(dp1398
g1393
I00
sg1392
g742
sssg285
g286
sg287
g286
sg288
(dp1399
g1389
(dp1400
sg1396
(dp1401
ssg481
g1399
sg95
(dp1402
sg483
g286
sg484
g1399
sg485
(dp1403
g1389
(dp1404
sg1396
(dp1405
ssbsg578
(lp1406
g1389
ag1396
asg855
(lp1407
sg80
I1
sg67
g1299
sbsS'SynForm'
p1408
(iconstruction
TP_SYNFORM
p1409
(dp1410
g80
I2
sS'form'
p1411
(lp1412
(iconstruction
TP_SLOT
p1413
(dp1414
S'cxn_classes'
p1415
(lp1416
VS
p1417
asS'order'
p1418
I0
sg80
I6
sg67
g1375
sba(iconstruction
TP_PHON
p1419
(dp1420
S'num_syllables'
p1421
I3
sg1418
I1
sg80
I7
sS'cxn_phonetics'
p1422
Vand
p1423
sg67
VS2_7
p1424
sba(iconstruction
TP_SLOT
p1425
(dp1426
g1415
(lp1427
VS
p1428
asg1418
I2
sg80
I8
sg67
g1377
sbasg67
g1299
sbsS'preference'
p1429
I1
sba(iconstruction
CXN
p1430
(dp1431
g1369
(iconstruction
TP_SYMLINKS
p1432
(dp1433
g1372
(dp1434
VEVT2_13
p1435
VS3_17
p1436
sVEVT1_12
p1437
VS1_15
p1438
ssg80
I11
sg67
g1299
sbsg1378
VD
p1439
sg1380
I3
sg67
VCNJ_THEN
p1440
sg1382
(iconstruction
TP_SEMFRAME
p1441
(dp1442
g95
g0
(g96
g2
Ntp1443
Rp1444
(dp1445
g100
(dp1446
(iconstruction
TP_NODE
p1447
(dp1448
g1391
I00
sg1392
g742
sg67
g1437
sg1393
I00
sg1394
I00
sg80
I12
sb(dp1449
g1393
I00
sg1392
g742
ss(iconstruction
TP_NODE
p1450
(dp1451
g1391
I00
sg1392
g742
sg67
g1435
sg1393
I00
sg1394
I00
sg80
I13
sb(dp1452
g1393
I00
sg1392
g742
sssg285
g286
sg287
g286
sg288
(dp1453
g1447
(dp1454
g1450
(dp1455
g1392
g727
sssg1450
(dp1456
ssg481
g1453
sg95
(dp1457
sg483
g286
sg484
g1453
sg485
(dp1458
g1447
(dp1459
sg1450
(dp1460
g1447
g1455
sssbsg578
(lp1461
g1447
ag1450
asg855
(lp1462
(iconstruction
TP_REL
p1463
(dp1464
g861
g1450
sg1392
g727
sg80
I14
sg862
g1447
sg67
VEVT1_EVT2_14
p1465
sbasg80
I9
sg67
g1299
sbsg1408
(iconstruction
TP_SYNFORM
p1466
(dp1467
g80
I10
sg1411
(lp1468
(iconstruction
TP_SLOT
p1469
(dp1470
g1415
(lp1471
VS
p1472
asg1418
I0
sg80
I15
sg67
g1438
sba(iconstruction
TP_PHON
p1473
(dp1474
g1421
I4
sg1418
I1
sg80
I16
sg1422
Vthen
p1475
sg67
VS2_16
p1476
sba(iconstruction
TP_SLOT
p1477
(dp1478
g1415
(lp1479
VS
p1480
asg1418
I2
sg80
I17
sg67
g1436
sbasg67
g1299
sbsg1429
I1
sba(iconstruction
CXN
p1481
(dp1482
g1369
(iconstruction
TP_SYMLINKS
p1483
(dp1484
g1372
(dp1485
VEVT2_22
p1486
VS3_26
p1487
sVEVT1_21
p1488
VS1_24
p1489
ssg80
I20
sg67
g1299
sbsg1378
VD
p1490
sg1380
I3
sg67
VCNJ_WHILE
p1491
sg1382
(iconstruction
TP_SEMFRAME
p1492
(dp1493
g95
g0
(g96
g2
Ntp1494
Rp1495
(dp1496
g100
(dp1497
(iconstruction
TP_NODE
p1498
(dp1499
g1391
I00
sg1392
g742
sg67
g1486
sg1393
I00
sg1394
I00
sg80
I22
sb(dp1500
g1393
I00
sg1392
g742
ss(iconstruction
TP_NODE
p1501
(dp1502
g1391
I00
sg1392
g742
sg67
g1488
sg1393
I00
sg1394
I01
sg80
I21
sb(dp1503
g1393
I00
sg1392
g742
sssg285
g286
sg287
g286
sg288
(dp1504
g1498
(dp1505
sg1501
(dp1506
g1498
(dp1507
g1392
g724
ssssg481
g1504
sg95
(dp1508
sg483
g286
sg484
g1504
sg485
(dp1509
g1498
(dp1510
g1501
g1507
ssg1501
(dp1511
ssbsg578
(lp1512
g1501
ag1498
asg855
(lp1513
(iconstruction
TP_REL
p1514
(dp1515
g861
g1498
sg1392
g724
sg80
I23
sg862
g1501
sg67
VEVT1_EVT2_23
p1516
sbasg80
I18
sg67
g1299
sbsg1408
(iconstruction
TP_SYNFORM
p1517
(dp1518
g80
I19
sg1411
(lp1519
(iconstruction
TP_SLOT
p1520
(dp1521
g1415
(lp1522
VS
p1523
asg1418
I0
sg80
I24
sg67
g1489
sba(iconstruction
TP_PHON
p1524
(dp1525
g1421
I5
sg1418
I1
sg80
I25
sg1422
Vwhile
p1526
sg67
VS2_25
p1527
sba(iconstruction
TP_SLOT
p1528
(dp1529
g1415
(lp1530
VS
p1531
asg1418
I2
sg80
I26
sg67
g1487
sbasg67
g1299
sbsg1429
I1
sba(iconstruction
CXN
p1532
(dp1533
g1369
(iconstruction
TP_SYMLINKS
p1534
(dp1535
g1372
(dp1536
VACT_31
p1537
VS4_40
p1538
sVACTOR_1_32
p1539
VS1_37
p1540
sVACTOR_2_33
p1541
VS3_39
p1542
ssg80
I29
sg67
g1299
sbsg1378
VS
p1543
sg1380
Nsg67
VSYMMETRIC_TRANS
p1544
sg1382
(iconstruction
TP_SEMFRAME
p1545
(dp1546
g95
g0
(g96
g2
Ntp1547
Rp1548
(dp1549
g100
(dp1550
(iconstruction
TP_NODE
p1551
(dp1552
g1391
I01
sg1392
g742
sg67
VEVT_30
p1553
sg1393
I01
sg1394
I00
sg80
I30
sb(dp1554
g1393
I01
sg1392
g742
ss(iconstruction
TP_NODE
p1555
(dp1556
g1391
I00
sg1392
g745
sg67
g1539
sg1393
I01
sg1394
I01
sg80
I32
sb(dp1557
g1393
I01
sg1392
g745
ss(iconstruction
TP_NODE
p1558
(dp1559
g1391
I00
sg1392
g589
sg67
g1537
sg1393
I01
sg1394
I00
sg80
I31
sb(dp1560
g1393
I01
sg1392
g589
ss(iconstruction
TP_NODE
p1561
(dp1562
g1391
I00
sg1392
g745
sg67
g1541
sg1393
I01
sg1394
I00
sg80
I33
sb(dp1563
g1393
I01
sg1392
g745
sssg285
g286
sg287
g286
sg288
(dp1564
g1551
(dp1565
g1558
(dp1566
g1392
g736
sssg1555
(dp1567
sg1558
(dp1568
g1561
(dp1569
g1392
g712
ssg1555
(dp1570
g1392
g712
sssg1561
(dp1571
ssg481
g1564
sg95
(dp1572
sg483
g286
sg484
g1564
sg485
(dp1573
g1551
(dp1574
sg1555
(dp1575
g1558
g1570
ssg1558
(dp1576
g1551
g1566
ssg1561
(dp1577
g1558
g1569
sssbsg578
(lp1578
g1551
ag1558
ag1555
ag1561
asg855
(lp1579
(iconstruction
TP_REL
p1580
(dp1581
g861
g1558
sg1392
g736
sg80
I34
sg862
g1551
sg67
VIS_34
p1582
sba(iconstruction
TP_REL
p1583
(dp1584
g861
g1555
sg1392
g712
sg80
I35
sg862
g1558
sg67
VAGT_PT_1_35
p1585
sba(iconstruction
TP_REL
p1586
(dp1587
g861
g1561
sg1392
g712
sg80
I36
sg862
g1558
sg67
VAGT_PT_2_36
p1588
sbasg80
I27
sg67
g1299
sbsg1408
(iconstruction
TP_SYNFORM
p1589
(dp1590
g80
I28
sg1411
(lp1591
(iconstruction
TP_SLOT
p1592
(dp1593
g1415
(lp1594
VNP
p1595
aVN
p1596
asg1418
I0
sg80
I37
sg67
g1540
sba(iconstruction
TP_PHON
p1597
(dp1598
g1421
I3
sg1418
I1
sg80
I38
sg1422
Vand
p1599
sg67
VS2_38
p1600
sba(iconstruction
TP_SLOT
p1601
(dp1602
g1415
(lp1603
VNP
p1604
aVN
p1605
asg1418
I2
sg80
I39
sg67
g1542
sba(iconstruction
TP_SLOT
p1606
(dp1607
g1415
(lp1608
VVP
p1609
aVV
p1610
asg1418
I3
sg80
I40
sg67
g1538
sbasg67
g1299
sbsg1429
I1
sba(iconstruction
CXN
p1611
(dp1612
g1369
(iconstruction
TP_SYMLINKS
p1613
(dp1614
g1372
(dp1615
VAGT_46
p1616
VS1_51
p1617
sVACT_45
p1618
VS2_52
p1619
sVPT_47
p1620
VS3_53
p1621
ssg80
I43
sg67
g1299
sbsg1378
VS
p1622
sg1380
I2
sg67
VSVO
p1623
sg1382
(iconstruction
TP_SEMFRAME
p1624
(dp1625
g95
g0
(g96
g2
Ntp1626
Rp1627
(dp1628
g100
(dp1629
(iconstruction
TP_NODE
p1630
(dp1631
g1391
I00
sg1392
g589
sg67
g1618
sg1393
I01
sg1394
I00
sg80
I45
sb(dp1632
g1393
I01
sg1392
g589
ss(iconstruction
TP_NODE
p1633
(dp1634
g1391
I00
sg1392
g745
sg67
g1616
sg1393
I01
sg1394
I01
sg80
I46
sb(dp1635
g1393
I01
sg1392
g745
ss(iconstruction
TP_NODE
p1636
(dp1637
g1391
I01
sg1392
g742
sg67
VEVT_44
p1638
sg1393
I01
sg1394
I00
sg80
I44
sb(dp1639
g1393
I01
sg1392
g742
ss(iconstruction
TP_NODE
p1640
(dp1641
g1391
I00
sg1392
g745
sg67
g1620
sg1393
I01
sg1394
I00
sg80
I47
sb(dp1642
g1393
I01
sg1392
g745
sssg285
g286
sg287
g286
sg288
(dp1643
g1630
(dp1644
g1640
(dp1645
g1392
g709
ssg1633
(dp1646
g1392
g715
sssg1633
(dp1647
sg1636
(dp1648
g1630
(dp1649
g1392
g736
sssg1640
(dp1650
ssg481
g1643
sg95
(dp1651
sg483
g286
sg484
g1643
sg485
(dp1652
g1630
(dp1653
g1636
g1649
ssg1633
(dp1654
g1630
g1646
ssg1636
(dp1655
sg1640
(dp1656
g1630
g1645
sssbsg578
(lp1657
g1636
ag1630
ag1633
ag1640
asg855
(lp1658
(iconstruction
TP_REL
p1659
(dp1660
g861
g1630
sg1392
g736
sg80
I48
sg862
g1636
sg67
VIS_48
p1661
sba(iconstruction
TP_REL
p1662
(dp1663
g861
g1633
sg1392
g715
sg80
I49
sg862
g1630
sg67
VACT_AGT_49
p1664
sba(iconstruction
TP_REL
p1665
(dp1666
g861
g1640
sg1392
g709
sg80
I50
sg862
g1630
sg67
VACT_PT_50
p1667
sbasg80
I41
sg67
g1299
sbsg1408
(iconstruction
TP_SYNFORM
p1668
(dp1669
g80
I42
sg1411
(lp1670
(iconstruction
TP_SLOT
p1671
(dp1672
g1415
(lp1673
VNP
p1674
aVN
p1675
asg1418
I0
sg80
I51
sg67
g1617
sba(iconstruction
TP_SLOT
p1676
(dp1677
g1415
(lp1678
VVP
p1679
aVV
p1680
asg1418
I1
sg80
I52
sg67
g1619
sba(iconstruction
TP_SLOT
p1681
(dp1682
g1415
(lp1683
VNP
p1684
aVN
p1685
asg1418
I2
sg80
I53
sg67
g1621
sbasg67
g1299
sbsg1429
I1
sba(iconstruction
CXN
p1686
(dp1687
g1369
(iconstruction
TP_SYMLINKS
p1688
(dp1689
g1372
(dp1690
VPT_60
p1691
VS1_64
p1692
sVACT_58
p1693
VS3_66
p1694
sVAGT_59
p1695
VS6_69
p1696
ssg80
I56
sg67
g1299
sbsg1378
VS
p1697
sg1380
I2
sg67
VPAS_SVO
p1698
sg1382
(iconstruction
TP_SEMFRAME
p1699
(dp1700
g95
g0
(g96
g2
Ntp1701
Rp1702
(dp1703
g100
(dp1704
(iconstruction
TP_NODE
p1705
(dp1706
g1391
I01
sg1392
g742
sg67
VEVT_57
p1707
sg1393
I01
sg1394
I00
sg80
I57
sb(dp1708
g1393
I01
sg1392
g742
ss(iconstruction
TP_NODE
p1709
(dp1710
g1391
I00
sg1392
g745
sg67
g1695
sg1393
I01
sg1394
I00
sg80
I59
sb(dp1711
g1393
I01
sg1392
g745
ss(iconstruction
TP_NODE
p1712
(dp1713
g1391
I00
sg1392
g745
sg67
g1691
sg1393
I01
sg1394
I01
sg80
I60
sb(dp1714
g1393
I01
sg1392
g745
ss(iconstruction
TP_NODE
p1715
(dp1716
g1391
I00
sg1392
g589
sg67
g1693
sg1393
I01
sg1394
I00
sg80
I58
sb(dp1717
g1393
I01
sg1392
g589
sssg285
g286
sg287
g286
sg288
(dp1718
g1705
(dp1719
g1715
(dp1720
g1392
g736
sssg1709
(dp1721
sg1712
(dp1722
sg1715
(dp1723
g1709
(dp1724
g1392
g715
ssg1712
(dp1725
g1392
g709
ssssg481
g1718
sg95
(dp1726
sg483
g286
sg484
g1718
sg485
(dp1727
g1705
(dp1728
sg1709
(dp1729
g1715
g1724
ssg1712
(dp1730
g1715
g1725
ssg1715
(dp1731
g1705
g1720
sssbsg578
(lp1732
g1705
ag1715
ag1709
ag1712
asg855
(lp1733
(iconstruction
TP_REL
p1734
(dp1735
g861
g1715
sg1392
g736
sg80
I61
sg862
g1705
sg67
VIS_61
p1736
sba(iconstruction
TP_REL
p1737
(dp1738
g861
g1709
sg1392
g715
sg80
I62
sg862
g1715
sg67
VACT_AGT_62
p1739
sba(iconstruction
TP_REL
p1740
(dp1741
g861
g1712
sg1392
g709
sg80
I63
sg862
g1715
sg67
VACT_PT_63
p1742
sbasg80
I54
sg67
g1299
sbsg1408
(iconstruction
TP_SYNFORM
p1743
(dp1744
g80
I55
sg1411
(lp1745
(iconstruction
TP_SLOT
p1746
(dp1747
g1415
(lp1748
VNP
p1749
aVN
p1750
asg1418
I0
sg80
I64
sg67
g1692
sba(iconstruction
TP_PHON
p1751
(dp1752
g1421
I2
sg1418
I1
sg80
I65
sg1422
Vis
p1753
sg67
VS2_65
p1754
sba(iconstruction
TP_SLOT
p1755
(dp1756
g1415
(lp1757
VVP
p1758
aVV
p1759
asg1418
I2
sg80
I66
sg67
g1694
sba(iconstruction
TP_PHON
p1760
(dp1761
g1421
I2
sg1418
I3
sg80
I67
sg1422
V-ed
p1762
sg67
VS4_67
p1763
sba(iconstruction
TP_PHON
p1764
(dp1765
g1421
I2
sg1418
I4
sg80
I68
sg1422
Vby
p1766
sg67
VS5_68
p1767
sba(iconstruction
TP_SLOT
p1768
(dp1769
g1415
(lp1770
VNP
p1771
aVN
p1772
asg1418
I5
sg80
I69
sg67
g1696
sbasg67
g1299
sbsg1429
I1
sba(iconstruction
CXN
p1773
(dp1774
g1369
(iconstruction
TP_SYMLINKS
p1775
(dp1776
g1372
(dp1777
VACT_74
p1778
VS2_83
p1779
sVRCPT_77
p1780
VS3_84
p1781
sVTHEME_76
p1782
VS4_85
p1783
sVAGT_75
p1784
VS1_82
p1785
ssg80
I72
sg67
g1299
sbsg1378
VS
p1786
sg1380
I2
sg67
VDOUBLE_OBJ
p1787
sg1382
(iconstruction
TP_SEMFRAME
p1788
(dp1789
g95
g0
(g96
g2
Ntp1790
Rp1791
(dp1792
g100
(dp1793
(iconstruction
TP_NODE
p1794
(dp1795
g1391
I01
sg1392
g742
sg67
VEVT_73
p1796
sg1393
I01
sg1394
I00
sg80
I73
sb(dp1797
g1393
I01
sg1392
g742
ss(iconstruction
TP_NODE
p1798
(dp1799
g1391
I00
sg1392
g745
sg67
g1784
sg1393
I01
sg1394
I01
sg80
I75
sb(dp1800
g1393
I01
sg1392
g745
ss(iconstruction
TP_NODE
p1801
(dp1802
g1391
I00
sg1392
g745
sg67
g1780
sg1393
I01
sg1394
I00
sg80
I77
sb(dp1803
g1393
I01
sg1392
g745
ss(iconstruction
TP_NODE
p1804
(dp1805
g1391
I00
sg1392
g589
sg67
g1778
sg1393
I01
sg1394
I00
sg80
I74
sb(dp1806
g1393
I01
sg1392
g589
ss(iconstruction
TP_NODE
p1807
(dp1808
g1391
I00
sg1392
g745
sg67
g1782
sg1393
I01
sg1394
I00
sg80
I76
sb(dp1809
g1393
I01
sg1392
g745
sssg285
g286
sg287
g286
sg288
(dp1810
g1794
(dp1811
g1804
(dp1812
g1392
g736
sssg1798
(dp1813
sg1801
(dp1814
sg1804
(dp1815
g1798
(dp1816
g1392
g715
ssg1801
(dp1817
g1392
g700
ssg1807
(dp1818
g1392
g697
sssg1807
(dp1819
ssg481
g1810
sg95
(dp1820
sg483
g286
sg484
g1810
sg485
(dp1821
g1794
(dp1822
sg1798
(dp1823
g1804
g1816
ssg1801
(dp1824
g1804
g1817
ssg1804
(dp1825
g1794
g1812
ssg1807
(dp1826
g1804
g1818
sssbsg578
(lp1827
g1794
ag1804
ag1798
ag1807
ag1801
asg855
(lp1828
(iconstruction
TP_REL
p1829
(dp1830
g861
g1804
sg1392
g736
sg80
I78
sg862
g1794
sg67
VIS_78
p1831
sba(iconstruction
TP_REL
p1832
(dp1833
g861
g1798
sg1392
g715
sg80
I79
sg862
g1804
sg67
VACT_AGT_79
p1834
sba(iconstruction
TP_REL
p1835
(dp1836
g861
g1807
sg1392
g697
sg80
I80
sg862
g1804
sg67
VACT_THEME_80
p1837
sba(iconstruction
TP_REL
p1838
(dp1839
g861
g1801
sg1392
g700
sg80
I81
sg862
g1804
sg67
VACT_RCPT_81
p1840
sbasg80
I70
sg67
g1299
sbsg1408
(iconstruction
TP_SYNFORM
p1841
(dp1842
g80
I71
sg1411
(lp1843
(iconstruction
TP_SLOT
p1844
(dp1845
g1415
(lp1846
VNP
p1847
aVN
p1848
asg1418
I0
sg80
I82
sg67
g1785
sba(iconstruction
TP_SLOT
p1849
(dp1850
g1415
(lp1851
VVP
p1852
aVV
p1853
asg1418
I1
sg80
I83
sg67
g1779
sba(iconstruction
TP_SLOT
p1854
(dp1855
g1415
(lp1856
VNP
p1857
aVN
p1858
asg1418
I2
sg80
I84
sg67
g1781
sba(iconstruction
TP_SLOT
p1859
(dp1860
g1415
(lp1861
VNP
p1862
aVN
p1863
asg1418
I3
sg80
I85
sg67
g1783
sbasg67
g1299
sbsg1429
I1
sba(iconstruction
CXN
p1864
(dp1865
g1369
(iconstruction
TP_SYMLINKS
p1866
(dp1867
g1372
(dp1868
VAGT_91
p1869
VS1_98
p1870
sVRCPT_93
p1871
VS5_102
p1872
sVACT_90
p1873
VS2_99
p1874
sVTHEME_92
p1875
VS3_100
p1876
ssg80
I88
sg67
g1299
sbsg1378
VS
p1877
sg1380
I2
sg67
VOBLIQUE_DATIVE
p1878
sg1382
(iconstruction
TP_SEMFRAME
p1879
(dp1880
g95
g0
(g96
g2
Ntp1881
Rp1882
(dp1883
g100
(dp1884
(iconstruction
TP_NODE
p1885
(dp1886
g1391
I00
sg1392
g637
sg67
g1873
sg1393
I01
sg1394
I00
sg80
I90
sb(dp1887
g1393
I01
sg1392
g637
ss(iconstruction
TP_NODE
p1888
(dp1889
g1391
I00
sg1392
g745
sg67
g1869
sg1393
I01
sg1394
I01
sg80
I91
sb(dp1890
g1393
I01
sg1392
g745
ss(iconstruction
TP_NODE
p1891
(dp1892
g1391
I01
sg1392
g742
sg67
VEVT_89
p1893
sg1393
I01
sg1394
I00
sg80
I89
sb(dp1894
g1393
I01
sg1392
g742
ss(iconstruction
TP_NODE
p1895
(dp1896
g1391
I00
sg1392
g745
sg67
g1871
sg1393
I01
sg1394
I00
sg80
I93
sb(dp1897
g1393
I01
sg1392
g745
ss(iconstruction
TP_NODE
p1898
(dp1899
g1391
I00
sg1392
g745
sg67
g1875
sg1393
I01
sg1394
I00
sg80
I92
sb(dp1900
g1393
I01
sg1392
g745
sssg285
g286
sg287
g286
sg288
(dp1901
g1885
(dp1902
g1898
(dp1903
g1392
g697
ssg1895
(dp1904
g1392
g700
ssg1888
(dp1905
g1392
g715
sssg1888
(dp1906
sg1891
(dp1907
g1885
(dp1908
g1392
g736
sssg1895
(dp1909
sg1898
(dp1910
ssg481
g1901
sg95
(dp1911
sg483
g286
sg484
g1901
sg485
(dp1912
g1885
(dp1913
g1891
g1908
ssg1888
(dp1914
g1885
g1905
ssg1891
(dp1915
sg1895
(dp1916
g1885
g1904
ssg1898
(dp1917
g1885
g1903
sssbsg578
(lp1918
g1891
ag1885
ag1888
ag1898
ag1895
asg855
(lp1919
(iconstruction
TP_REL
p1920
(dp1921
g861
g1885
sg1392
g736
sg80
I94
sg862
g1891
sg67
VIS_94
p1922
sba(iconstruction
TP_REL
p1923
(dp1924
g861
g1888
sg1392
g715
sg80
I95
sg862
g1885
sg67
VACT_AGT_95
p1925
sba(iconstruction
TP_REL
p1926
(dp1927
g861
g1898
sg1392
g697
sg80
I96
sg862
g1885
sg67
VACT_THEME_96
p1928
sba(iconstruction
TP_REL
p1929
(dp1930
g861
g1895
sg1392
g700
sg80
I97
sg862
g1885
sg67
VACT_RCPT_97
p1931
sbasg80
I86
sg67
g1299
sbsg1408
(iconstruction
TP_SYNFORM
p1932
(dp1933
g80
I87
sg1411
(lp1934
(iconstruction
TP_SLOT
p1935
(dp1936
g1415
(lp1937
VNP
p1938
aVN
p1939
asg1418
I0
sg80
I98
sg67
g1870
sba(iconstruction
TP_SLOT
p1940
(dp1941
g1415
(lp1942
VVP
p1943
aVV
p1944
asg1418
I1
sg80
I99
sg67
g1874
sba(iconstruction
TP_SLOT
p1945
(dp1946
g1415
(lp1947
VNP
p1948
aVN
p1949
asg1418
I2
sg80
I100
sg67
g1876
sba(iconstruction
TP_PHON
p1950
(dp1951
g1421
I2
sg1418
I3
sg80
I101
sg1422
Vto
p1952
sg67
VS4_101
p1953
sba(iconstruction
TP_SLOT
p1954
(dp1955
g1415
(lp1956
VNP
p1957
aVN
p1958
asg1418
I4
sg80
I102
sg67
g1872
sbasg67
g1299
sbsg1429
I1
sba(iconstruction
CXN
p1959
(dp1960
g1369
(iconstruction
TP_SYMLINKS
p1961
(dp1962
g1372
(dp1963
VATTR_108
p1964
VS3_113
p1965
sVENT_107
p1966
VS1_111
p1967
ssg80
I105
sg67
g1299
sbsg1378
VS
p1968
sg1380
I2
sg67
VSPA
p1969
sg1382
(iconstruction
TP_SEMFRAME
p1970
(dp1971
g95
g0
(g96
g2
Ntp1972
Rp1973
(dp1974
g100
(dp1975
(iconstruction
TP_NODE
p1976
(dp1977
g1391
I01
sg1392
g742
sg67
VEVT_106
p1978
sg1393
I01
sg1394
I00
sg80
I106
sb(dp1979
g1393
I01
sg1392
g742
ss(iconstruction
TP_NODE
p1980
(dp1981
g1391
I00
sg1392
g646
sg67
g1964
sg1393
I00
sg1394
I00
sg80
I108
sb(dp1982
g1393
I00
sg1392
g646
ss(iconstruction
TP_NODE
p1983
(dp1984
g1391
I00
sg1392
g745
sg67
g1966
sg1393
I01
sg1394
I01
sg80
I107
sb(dp1985
g1393
I01
sg1392
g745
sssg285
g286
sg287
g286
sg288
(dp1986
g1976
(dp1987
g1980
(dp1988
g1392
g694
ssg1983
(dp1989
g1392
g736
sssg1980
(dp1990
sg1983
(dp1991
ssg481
g1986
sg95
(dp1992
sg483
g286
sg484
g1986
sg485
(dp1993
g1976
(dp1994
sg1980
(dp1995
g1976
g1988
ssg1983
(dp1996
g1976
g1989
sssbsg578
(lp1997
g1976
ag1983
ag1980
asg855
(lp1998
(iconstruction
TP_REL
p1999
(dp2000
g861
g1983
sg1392
g736
sg80
I109
sg862
g1976
sg67
VIS_109
p2001
sba(iconstruction
TP_REL
p2002
(dp2003
g861
g1980
sg1392
g694
sg80
I110
sg862
g1976
sg67
VEVT_ATTR_110
p2004
sbasg80
I103
sg67
g1299
sbsg1408
(iconstruction
TP_SYNFORM
p2005
(dp2006
g80
I104
sg1411
(lp2007
(iconstruction
TP_SLOT
p2008
(dp2009
g1415
(lp2010
VNP
p2011
aVN
p2012
asg1418
I0
sg80
I111
sg67
g1967
sba(iconstruction
TP_PHON
p2013
(dp2014
g1421
I2
sg1418
I1
sg80
I112
sg1422
Vis
p2015
sg67
VS2_112
p2016
sba(iconstruction
TP_SLOT
p2017
(dp2018
g1415
(lp2019
VA
p2020
asg1418
I2
sg80
I113
sg67
g1965
sbasg67
g1299
sbsg1429
I1
sba(iconstruction
CXN
p2021
(dp2022
g1369
(iconstruction
TP_SYMLINKS
p2023
(dp2024
g1372
(dp2025
VAGT_119
p2026
VS1_122
p2027
sVACT_118
p2028
VS2_123
p2029
ssg80
I116
sg67
g1299
sbsg1378
VS
p2030
sg1380
I2
sg67
VSV
p2031
sg1382
(iconstruction
TP_SEMFRAME
p2032
(dp2033
g95
g0
(g96
g2
Ntp2034
Rp2035
(dp2036
g100
(dp2037
(iconstruction
TP_NODE
p2038
(dp2039
g1391
I00
sg1392
g601
sg67
g2028
sg1393
I01
sg1394
I00
sg80
I118
sb(dp2040
g1393
I01
sg1392
g601
ss(iconstruction
TP_NODE
p2041
(dp2042
g1391
I00
sg1392
g745
sg67
g2026
sg1393
I01
sg1394
I01
sg80
I119
sb(dp2043
g1393
I01
sg1392
g745
ss(iconstruction
TP_NODE
p2044
(dp2045
g1391
I01
sg1392
g742
sg67
VEVT_117
p2046
sg1393
I01
sg1394
I00
sg80
I117
sb(dp2047
g1393
I01
sg1392
g742
sssg285
g286
sg287
g286
sg288
(dp2048
g2038
(dp2049
g2041
(dp2050
g1392
g715
sssg2041
(dp2051
sg2044
(dp2052
g2038
(dp2053
g1392
g736
ssssg481
g2048
sg95
(dp2054
sg483
g286
sg484
g2048
sg485
(dp2055
g2038
(dp2056
g2044
g2053
ssg2041
(dp2057
g2038
g2050
ssg2044
(dp2058
ssbsg578
(lp2059
g2044
ag2038
ag2041
asg855
(lp2060
(iconstruction
TP_REL
p2061
(dp2062
g861
g2038
sg1392
g736
sg80
I120
sg862
g2044
sg67
VIS_120
p2063
sba(iconstruction
TP_REL
p2064
(dp2065
g861
g2041
sg1392
g715
sg80
I121
sg862
g2038
sg67
VACT_AGT_121
p2066
sbasg80
I114
sg67
g1299
sbsg1408
(iconstruction
TP_SYNFORM
p2067
(dp2068
g80
I115
sg1411
(lp2069
(iconstruction
TP_SLOT
p2070
(dp2071
g1415
(lp2072
VNP
p2073
aVN
p2074
asg1418
I0
sg80
I122
sg67
g2027
sba(iconstruction
TP_SLOT
p2075
(dp2076
g1415
(lp2077
VVP
p2078
aVV
p2079
asg1418
I1
sg80
I123
sg67
g2029
sbasg67
g1299
sbsg1429
I1
sba(iconstruction
CXN
p2080
(dp2081
g1369
(iconstruction
TP_SYMLINKS
p2082
(dp2083
g1372
(dp2084
VEVT_127
p2085
VS1_130
p2086
sVPLACE_128
p2087
VS3_132
p2088
ssg80
I126
sg67
g1299
sbsg1378
VS
p2089
sg1380
I2
sg67
VPP_IN
p2090
sg1382
(iconstruction
TP_SEMFRAME
p2091
(dp2092
g95
g0
(g96
g2
Ntp2093
Rp2094
(dp2095
g100
(dp2096
(iconstruction
TP_NODE
p2097
(dp2098
g1391
I00
sg1392
g745
sg67
g2087
sg1393
I01
sg1394
I00
sg80
I128
sb(dp2099
g1393
I01
sg1392
g745
ss(iconstruction
TP_NODE
p2100
(dp2101
g1391
I01
sg1392
g742
sg67
g2085
sg1393
I01
sg1394
I00
sg80
I127
sb(dp2102
g1393
I01
sg1392
g742
sssg285
g286
sg287
g286
sg288
(dp2103
g2097
(dp2104
sg2100
(dp2105
g2097
(dp2106
g1392
g733
ssssg481
g2103
sg95
(dp2107
sg483
g286
sg484
g2103
sg485
(dp2108
g2097
(dp2109
g2100
g2106
ssg2100
(dp2110
ssbsg578
(lp2111
g2100
ag2097
asg855
(lp2112
(iconstruction
TP_REL
p2113
(dp2114
g861
g2097
sg1392
g733
sg80
I129
sg862
g2100
sg67
VEVT_PP_129
p2115
sbasg80
I124
sg67
g1299
sbsg1408
(iconstruction
TP_SYNFORM
p2116
(dp2117
g80
I125
sg1411
(lp2118
(iconstruction
TP_SLOT
p2119
(dp2120
g1415
(lp2121
VS
p2122
asg1418
I0
sg80
I130
sg67
g2086
sba(iconstruction
TP_PHON
p2123
(dp2124
g1421
I2
sg1418
I1
sg80
I131
sg1422
Vin
p2125
sg67
VS2_131
p2126
sba(iconstruction
TP_SLOT
p2127
(dp2128
g1415
(lp2129
VNP
p2130
aVN
p2131
asg1418
I2
sg80
I132
sg67
g2088
sbasg67
g1299
sbsg1429
I1
sba(iconstruction
CXN
p2132
(dp2133
g1369
(iconstruction
TP_SYMLINKS
p2134
(dp2135
g1372
(dp2136
VEVT2_137
p2137
VS2_140
p2138
sVEVT1_136
p2139
VS1_139
p2140
ssg80
I135
sg67
g1299
sbsg1378
VS
p2141
sg1380
I2
sg67
VS_PP
p2142
sg1382
(iconstruction
TP_SEMFRAME
p2143
(dp2144
g95
g0
(g96
g2
Ntp2145
Rp2146
(dp2147
g100
(dp2148
(iconstruction
TP_NODE
p2149
(dp2150
g1391
I00
sg1392
g742
sg67
g2137
sg1393
I01
sg1394
I00
sg80
I137
sb(dp2151
g1393
I01
sg1392
g742
ss(iconstruction
TP_NODE
p2152
(dp2153
g1391
I01
sg1392
g742
sg67
g2139
sg1393
I01
sg1394
I01
sg80
I136
sb(dp2154
g1393
I01
sg1392
g742
sssg285
g286
sg287
g286
sg288
(dp2155
g2149
(dp2156
sg2152
(dp2157
g2149
(dp2158
g1392
g694
ssssg481
g2155
sg95
(dp2159
sg483
g286
sg484
g2155
sg485
(dp2160
g2149
(dp2161
g2152
g2158
ssg2152
(dp2162
ssbsg578
(lp2163
g2152
ag2149
asg855
(lp2164
(iconstruction
TP_REL
p2165
(dp2166
g861
g2149
sg1392
g694
sg80
I138
sg862
g2152
sg67
VMOD_138
p2167
sbasg80
I133
sg67
g1299
sbsg1408
(iconstruction
TP_SYNFORM
p2168
(dp2169
g80
I134
sg1411
(lp2170
(iconstruction
TP_SLOT
p2171
(dp2172
g1415
(lp2173
VS
p2174
asg1418
I0
sg80
I139
sg67
g2140
sba(iconstruction
TP_SLOT
p2175
(dp2176
g1415
(lp2177
VPP
p2178
asg1418
I1
sg80
I140
sg67
g2138
sbasg67
g1299
sbsg1429
I1
sba(iconstruction
CXN
p2179
(dp2180
g1369
(iconstruction
TP_SYMLINKS
p2181
(dp2182
g1372
(dp2183
VENT_144
p2184
VS2_148
p2185
sVATTR_145
p2186
VS1_147
p2187
ssg80
I143
sg67
g1299
sbsg1378
VN
p2188
sg1380
I2
sg67
VADJUNCT_N
p2189
sg1382
(iconstruction
TP_SEMFRAME
p2190
(dp2191
g95
g0
(g96
g2
Ntp2192
Rp2193
(dp2194
g100
(dp2195
(iconstruction
TP_NODE
p2196
(dp2197
g1391
I00
sg1392
g646
sg67
g2186
sg1393
I00
sg1394
I00
sg80
I145
sb(dp2198
g1393
I00
sg1392
g646
ss(iconstruction
TP_NODE
p2199
(dp2200
g1391
I01
sg1392
g745
sg67
g2184
sg1393
I01
sg1394
I00
sg80
I144
sb(dp2201
g1393
I01
sg1392
g745
sssg285
g286
sg287
g286
sg288
(dp2202
g2196
(dp2203
sg2199
(dp2204
g2196
(dp2205
g1392
g694
ssssg481
g2202
sg95
(dp2206
sg483
g286
sg484
g2202
sg485
(dp2207
g2196
(dp2208
g2199
g2205
ssg2199
(dp2209
ssbsg578
(lp2210
g2199
ag2196
asg855
(lp2211
(iconstruction
TP_REL
p2212
(dp2213
g861
g2196
sg1392
g694
sg80
I146
sg862
g2199
sg67
VENT_ATTR_146
p2214
sbasg80
I141
sg67
g1299
sbsg1408
(iconstruction
TP_SYNFORM
p2215
(dp2216
g80
I142
sg1411
(lp2217
(iconstruction
TP_SLOT
p2218
(dp2219
g1415
(lp2220
VA
p2221
asg1418
I0
sg80
I147
sg67
g2187
sba(iconstruction
TP_SLOT
p2222
(dp2223
g1415
(lp2224
VN
p2225
asg1418
I1
sg80
I148
sg67
g2185
sbasg67
g1299
sbsg1429
I1
sba(iconstruction
CXN
p2226
(dp2227
g1369
(iconstruction
TP_SYMLINKS
p2228
(dp2229
g1372
(dp2230
VAGT_154
p2231
VS1_160
p2232
sVACT_153
p2233
VS3_162
p2234
sVPT_155
p2235
VS4_163
p2236
ssg80
I151
sg67
g1299
sbsg1378
VN
p2237
sg1380
I2
sg67
VSUBJ_REL_SVO
p2238
sg1382
(iconstruction
TP_SEMFRAME
p2239
(dp2240
g95
g0
(g96
g2
Ntp2241
Rp2242
(dp2243
g100
(dp2244
(iconstruction
TP_NODE
p2245
(dp2246
g1391
I00
sg1392
g607
sg67
g2233
sg1393
I01
sg1394
I01
sg80
I153
sb(dp2247
g1393
I01
sg1392
g607
ss(iconstruction
TP_NODE
p2248
(dp2249
g1391
I01
sg1392
g745
sg67
g2231
sg1393
I01
sg1394
I00
sg80
I154
sb(dp2250
g1393
I01
sg1392
g745
ss(iconstruction
TP_NODE
p2251
(dp2252
g1391
I00
sg1392
g745
sg67
g2235
sg1393
I01
sg1394
I00
sg80
I155
sb(dp2253
g1393
I01
sg1392
g745
ss(iconstruction
TP_NODE
p2254
(dp2255
g1391
I00
sg1392
g742
sg67
VEVT_152
p2256
sg1393
I01
sg1394
I00
sg80
I152
sb(dp2257
g1393
I01
sg1392
g742
sssg285
g286
sg287
g286
sg288
(dp2258
g2245
(dp2259
g2251
(dp2260
g1392
g709
ssg2248
(dp2261
g1392
g715
sssg2248
(dp2262
g2254
(dp2263
g1392
g694
sssg2251
(dp2264
sg2254
(dp2265
g2245
(dp2266
g1392
g736
ssssg481
g2258
sg95
(dp2267
sg483
g286
sg484
g2258
sg485
(dp2268
g2245
(dp2269
g2254
g2266
ssg2248
(dp2270
g2245
g2261
ssg2251
(dp2271
g2245
g2260
ssg2254
(dp2272
g2248
g2263
sssbsg578
(lp2273
g2254
ag2245
ag2248
ag2251
asg855
(lp2274
(iconstruction
TP_REL
p2275
(dp2276
g861
g2245
sg1392
g736
sg80
I156
sg862
g2254
sg67
VIS_156
p2277
sba(iconstruction
TP_REL
p2278
(dp2279
g861
g2248
sg1392
g715
sg80
I157
sg862
g2245
sg67
VACT_AGT_157
p2280
sba(iconstruction
TP_REL
p2281
(dp2282
g861
g2251
sg1392
g709
sg80
I158
sg862
g2245
sg67
VACT_PT_158
p2283
sba(iconstruction
TP_REL
p2284
(dp2285
g861
g2254
sg1392
g694
sg80
I159
sg862
g2248
sg67
VAGT_EVT_159
p2286
sbasg80
I149
sg67
g1299
sbsg1408
(iconstruction
TP_SYNFORM
p2287
(dp2288
g80
I150
sg1411
(lp2289
(iconstruction
TP_SLOT
p2290
(dp2291
g1415
(lp2292
VN
p2293
asg1418
I0
sg80
I160
sg67
g2232
sba(iconstruction
TP_PHON
p2294
(dp2295
g1421
I4
sg1418
I1
sg80
I161
sg1422
Vthat
p2296
sg67
VS2_161
p2297
sba(iconstruction
TP_SLOT
p2298
(dp2299
g1415
(lp2300
VVP
p2301
aVV
p2302
asg1418
I2
sg80
I162
sg67
g2234
sba(iconstruction
TP_SLOT
p2303
(dp2304
g1415
(lp2305
VNP
p2306
aVN
p2307
asg1418
I3
sg80
I163
sg67
g2236
sbasg67
g1299
sbsg1429
I1
sba(iconstruction
CXN
p2308
(dp2309
g1369
(iconstruction
TP_SYMLINKS
p2310
(dp2311
g1372
(dp2312
VAGT_169
p2313
VS1_173
p2314
sVACT_168
p2315
VS3_175
p2316
ssg80
I166
sg67
g1299
sbsg1378
VN
p2317
sg1380
I2
sg67
VSUBJ_REL_SV
p2318
sg1382
(iconstruction
TP_SEMFRAME
p2319
(dp2320
g95
g0
(g96
g2
Ntp2321
Rp2322
(dp2323
g100
(dp2324
(iconstruction
TP_NODE
p2325
(dp2326
g1391
I00
sg1392
g742
sg67
VEVT_167
p2327
sg1393
I01
sg1394
I00
sg80
I167
sb(dp2328
g1393
I01
sg1392
g742
ss(iconstruction
TP_NODE
p2329
(dp2330
g1391
I01
sg1392
g745
sg67
g2313
sg1393
I01
sg1394
I00
sg80
I169
sb(dp2331
g1393
I01
sg1392
g745
ss(iconstruction
TP_NODE
p2332
(dp2333
g1391
I00
sg1392
g589
sg67
g2315
sg1393
I01
sg1394
I01
sg80
I168
sb(dp2334
g1393
I01
sg1392
g589
sssg285
g286
sg287
g286
sg288
(dp2335
g2325
(dp2336
g2332
(dp2337
g1392
g736
sssg2329
(dp2338
g2325
(dp2339
g1392
g694
sssg2332
(dp2340
g2329
(dp2341
g1392
g715
ssssg481
g2335
sg95
(dp2342
sg483
g286
sg484
g2335
sg485
(dp2343
g2325
(dp2344
g2329
g2339
ssg2329
(dp2345
g2332
g2341
ssg2332
(dp2346
g2325
g2337
sssbsg578
(lp2347
g2325
ag2332
ag2329
asg855
(lp2348
(iconstruction
TP_REL
p2349
(dp2350
g861
g2332
sg1392
g736
sg80
I170
sg862
g2325
sg67
VIS_170
p2351
sba(iconstruction
TP_REL
p2352
(dp2353
g861
g2329
sg1392
g715
sg80
I171
sg862
g2332
sg67
VACT_AGT_171
p2354
sba(iconstruction
TP_REL
p2355
(dp2356
g861
g2325
sg1392
g694
sg80
I172
sg862
g2329
sg67
VAGT_EVT_172
p2357
sbasg80
I164
sg67
g1299
sbsg1408
(iconstruction
TP_SYNFORM
p2358
(dp2359
g80
I165
sg1411
(lp2360
(iconstruction
TP_SLOT
p2361
(dp2362
g1415
(lp2363
VN
p2364
asg1418
I0
sg80
I173
sg67
g2314
sba(iconstruction
TP_PHON
p2365
(dp2366
g1421
I4
sg1418
I1
sg80
I174
sg1422
Vthat
p2367
sg67
VS2_174
p2368
sba(iconstruction
TP_SLOT
p2369
(dp2370
g1415
(lp2371
VVP
p2372
aVV
p2373
asg1418
I2
sg80
I175
sg67
g2316
sbasg67
g1299
sbsg1429
I1
sba(iconstruction
CXN
p2374
(dp2375
g1369
(iconstruction
TP_SYMLINKS
p2376
(dp2377
g1372
(dp2378
VAGT_181
p2379
VS7_193
p2380
sVPT_182
p2381
VS1_187
p2382
sVACT_180
p2383
VS4_190
p2384
ssg80
I178
sg67
g1299
sbsg1378
VN
p2385
sg1380
I2
sg67
VSUBJ_REL_PAS_SVO
p2386
sg1382
(iconstruction
TP_SEMFRAME
p2387
(dp2388
g95
g0
(g96
g2
Ntp2389
Rp2390
(dp2391
g100
(dp2392
(iconstruction
TP_NODE
p2393
(dp2394
g1391
I00
sg1392
g589
sg67
g2383
sg1393
I01
sg1394
I01
sg80
I180
sb(dp2395
g1393
I01
sg1392
g589
ss(iconstruction
TP_NODE
p2396
(dp2397
g1391
I00
sg1392
g745
sg67
g2379
sg1393
I01
sg1394
I00
sg80
I181
sb(dp2398
g1393
I01
sg1392
g745
ss(iconstruction
TP_NODE
p2399
(dp2400
g1391
I00
sg1392
g742
sg67
VEVT_179
p2401
sg1393
I01
sg1394
I00
sg80
I179
sb(dp2402
g1393
I01
sg1392
g742
ss(iconstruction
TP_NODE
p2403
(dp2404
g1391
I01
sg1392
g745
sg67
g2381
sg1393
I01
sg1394
I00
sg80
I182
sb(dp2405
g1393
I01
sg1392
g745
sssg285
g286
sg287
g286
sg288
(dp2406
g2393
(dp2407
g2403
(dp2408
g1392
g709
ssg2396
(dp2409
g1392
g715
sssg2396
(dp2410
sg2399
(dp2411
g2393
(dp2412
g1392
g736
sssg2403
(dp2413
g2399
(dp2414
g1392
g694
ssssg481
g2406
sg95
(dp2415
sg483
g286
sg484
g2406
sg485
(dp2416
g2393
(dp2417
g2399
g2412
ssg2396
(dp2418
g2393
g2409
ssg2399
(dp2419
g2403
g2414
ssg2403
(dp2420
g2393
g2408
sssbsg578
(lp2421
g2399
ag2393
ag2396
ag2403
asg855
(lp2422
(iconstruction
TP_REL
p2423
(dp2424
g861
g2393
sg1392
g736
sg80
I183
sg862
g2399
sg67
VIS_183
p2425
sba(iconstruction
TP_REL
p2426
(dp2427
g861
g2396
sg1392
g715
sg80
I184
sg862
g2393
sg67
VACT_AGT_184
p2428
sba(iconstruction
TP_REL
p2429
(dp2430
g861
g2403
sg1392
g709
sg80
I185
sg862
g2393
sg67
VACT_PT_185
p2431
sba(iconstruction
TP_REL
p2432
(dp2433
g861
g2399
sg1392
g694
sg80
I186
sg862
g2403
sg67
VPT_EVT_186
p2434
sbasg80
I176
sg67
g1299
sbsg1408
(iconstruction
TP_SYNFORM
p2435
(dp2436
g80
I177
sg1411
(lp2437
(iconstruction
TP_SLOT
p2438
(dp2439
g1415
(lp2440
VN
p2441
asg1418
I0
sg80
I187
sg67
g2382
sba(iconstruction
TP_PHON
p2442
(dp2443
g1421
I4
sg1418
I1
sg80
I188
sg1422
Vthat
p2444
sg67
VS2_188
p2445
sba(iconstruction
TP_PHON
p2446
(dp2447
g1421
I2
sg1418
I2
sg80
I189
sg1422
Vis
p2448
sg67
VS3_189
p2449
sba(iconstruction
TP_SLOT
p2450
(dp2451
g1415
(lp2452
VVP
p2453
aVV
p2454
asg1418
I3
sg80
I190
sg67
g2384
sba(iconstruction
TP_PHON
p2455
(dp2456
g1421
I2
sg1418
I4
sg80
I191
sg1422
V-ed
p2457
sg67
VS5_191
p2458
sba(iconstruction
TP_PHON
p2459
(dp2460
g1421
I2
sg1418
I5
sg80
I192
sg1422
Vby
p2461
sg67
VS6_192
p2462
sba(iconstruction
TP_SLOT
p2463
(dp2464
g1415
(lp2465
VNP
p2466
aVN
p2467
asg1418
I6
sg80
I193
sg67
g2380
sbasg67
g1299
sbsg1429
I1
sba(iconstruction
CXN
p2468
(dp2469
g1369
(iconstruction
TP_SYMLINKS
p2470
(dp2471
g1372
(dp2472
VAGT_199
p2473
VS3_207
p2474
sVACT_198
p2475
VS4_208
p2476
sVPT_200
p2477
VS1_205
p2478
ssg80
I196
sg67
g1299
sbsg1378
VN
p2479
sg1380
I2
sg67
VOBJ_REL_SVO
p2480
sg1382
(iconstruction
TP_SEMFRAME
p2481
(dp2482
g95
g0
(g96
g2
Ntp2483
Rp2484
(dp2485
g100
(dp2486
(iconstruction
TP_NODE
p2487
(dp2488
g1391
I00
sg1392
g589
sg67
g2475
sg1393
I01
sg1394
I01
sg80
I198
sb(dp2489
g1393
I01
sg1392
g589
ss(iconstruction
TP_NODE
p2490
(dp2491
g1391
I00
sg1392
g745
sg67
g2473
sg1393
I01
sg1394
I00
sg80
I199
sb(dp2492
g1393
I01
sg1392
g745
ss(iconstruction
TP_NODE
p2493
(dp2494
g1391
I01
sg1392
g745
sg67
g2477
sg1393
I01
sg1394
I00
sg80
I200
sb(dp2495
g1393
I01
sg1392
g745
ss(iconstruction
TP_NODE
p2496
(dp2497
g1391
I00
sg1392
g742
sg67
VEVT_197
p2498
sg1393
I01
sg1394
I00
sg80
I197
sb(dp2499
g1393
I01
sg1392
g742
sssg285
g286
sg287
g286
sg288
(dp2500
g2487
(dp2501
g2493
(dp2502
g1392
g709
ssg2490
(dp2503
g1392
g715
sssg2490
(dp2504
sg2493
(dp2505
g2496
(dp2506
g1392
g694
sssg2496
(dp2507
g2487
(dp2508
g1392
g736
ssssg481
g2500
sg95
(dp2509
sg483
g286
sg484
g2500
sg485
(dp2510
g2487
(dp2511
g2496
g2508
ssg2490
(dp2512
g2487
g2503
ssg2493
(dp2513
g2487
g2502
ssg2496
(dp2514
g2493
g2506
sssbsg578
(lp2515
g2496
ag2487
ag2490
ag2493
asg855
(lp2516
(iconstruction
TP_REL
p2517
(dp2518
g861
g2487
sg1392
g736
sg80
I201
sg862
g2496
sg67
VIS_201
p2519
sba(iconstruction
TP_REL
p2520
(dp2521
g861
g2490
sg1392
g715
sg80
I202
sg862
g2487
sg67
VACT_AGT_202
p2522
sba(iconstruction
TP_REL
p2523
(dp2524
g861
g2493
sg1392
g709
sg80
I203
sg862
g2487
sg67
VACT_PT_203
p2525
sba(iconstruction
TP_REL
p2526
(dp2527
g861
g2496
sg1392
g694
sg80
I204
sg862
g2493
sg67
VPT_EVT_204
p2528
sbasg80
I194
sg67
g1299
sbsg1408
(iconstruction
TP_SYNFORM
p2529
(dp2530
g80
I195
sg1411
(lp2531
(iconstruction
TP_SLOT
p2532
(dp2533
g1415
(lp2534
VN
p2535
asg1418
I0
sg80
I205
sg67
g2478
sba(iconstruction
TP_PHON
p2536
(dp2537
g1421
I4
sg1418
I1
sg80
I206
sg1422
Vthat
p2538
sg67
VS2_206
p2539
sba(iconstruction
TP_SLOT
p2540
(dp2541
g1415
(lp2542
VNP
p2543
aVN
p2544
asg1418
I2
sg80
I207
sg67
g2474
sba(iconstruction
TP_SLOT
p2545
(dp2546
g1415
(lp2547
VVP
p2548
aVV
p2549
asg1418
I3
sg80
I208
sg67
g2476
sbasg67
g1299
sbsg1429
I1
sba(iconstruction
CXN
p2550
(dp2551
g1369
(iconstruction
TP_SYMLINKS
p2552
(dp2553
g1372
(dp2554
VPT_215
p2555
VS3_222
p2556
sVACT_213
p2557
VS5_224
p2558
sVAGT_214
p2559
VS1_220
p2560
ssg80
I211
sg67
g1299
sbsg1378
VN
p2561
sg1380
I2
sg67
VOBJ_REL_PAS_SVO
p2562
sg1382
(iconstruction
TP_SEMFRAME
p2563
(dp2564
g95
g0
(g96
g2
Ntp2565
Rp2566
(dp2567
g100
(dp2568
(iconstruction
TP_NODE
p2569
(dp2570
g1391
I00
sg1392
g742
sg67
VEVT_212
p2571
sg1393
I01
sg1394
I00
sg80
I212
sb(dp2572
g1393
I01
sg1392
g742
ss(iconstruction
TP_NODE
p2573
(dp2574
g1391
I01
sg1392
g745
sg67
g2559
sg1393
I01
sg1394
I00
sg80
I214
sb(dp2575
g1393
I01
sg1392
g745
ss(iconstruction
TP_NODE
p2576
(dp2577
g1391
I00
sg1392
g745
sg67
g2555
sg1393
I01
sg1394
I00
sg80
I215
sb(dp2578
g1393
I01
sg1392
g745
ss(iconstruction
TP_NODE
p2579
(dp2580
g1391
I00
sg1392
g589
sg67
g2557
sg1393
I01
sg1394
I01
sg80
I213
sb(dp2581
g1393
I01
sg1392
g589
sssg285
g286
sg287
g286
sg288
(dp2582
g2569
(dp2583
g2579
(dp2584
g1392
g736
sssg2573
(dp2585
g2569
(dp2586
g1392
g694
sssg2576
(dp2587
sg2579
(dp2588
g2573
(dp2589
g1392
g715
ssg2576
(dp2590
g1392
g709
ssssg481
g2582
sg95
(dp2591
sg483
g286
sg484
g2582
sg485
(dp2592
g2569
(dp2593
g2573
g2586
ssg2573
(dp2594
g2579
g2589
ssg2576
(dp2595
g2579
g2590
ssg2579
(dp2596
g2569
g2584
sssbsg578
(lp2597
g2569
ag2579
ag2573
ag2576
asg855
(lp2598
(iconstruction
TP_REL
p2599
(dp2600
g861
g2579
sg1392
g736
sg80
I216
sg862
g2569
sg67
VIS_216
p2601
sba(iconstruction
TP_REL
p2602
(dp2603
g861
g2573
sg1392
g715
sg80
I217
sg862
g2579
sg67
VACT_AGT_217
p2604
sba(iconstruction
TP_REL
p2605
(dp2606
g861
g2576
sg1392
g709
sg80
I218
sg862
g2579
sg67
VACT_PT_218
p2607
sba(iconstruction
TP_REL
p2608
(dp2609
g861
g2569
sg1392
g694
sg80
I219
sg862
g2573
sg67
VAGT_EVT_219
p2610
sbasg80
I209
sg67
g1299
sbsg1408
(iconstruction
TP_SYNFORM
p2611
(dp2612
g80
I210
sg1411
(lp2613
(iconstruction
TP_SLOT
p2614
(dp2615
g1415
(lp2616
VN
p2617
asg1418
I0
sg80
I220
sg67
g2560
sba(iconstruction
TP_PHON
p2618
(dp2619
g1421
I4
sg1418
I1
sg80
I221
sg1422
Vthat
p2620
sg67
VS2_221
p2621
sba(iconstruction
TP_SLOT
p2622
(dp2623
g1415
(lp2624
VNP
p2625
aVN
p2626
asg1418
I2
sg80
I222
sg67
g2556
sba(iconstruction
TP_PHON
p2627
(dp2628
g1421
I2
sg1418
I3
sg80
I223
sg1422
Vis
p2629
sg67
VS4_223
p2630
sba(iconstruction
TP_SLOT
p2631
(dp2632
g1415
(lp2633
VVP
p2634
aVV
p2635
asg1418
I4
sg80
I224
sg67
g2558
sba(iconstruction
TP_PHON
p2636
(dp2637
g1421
I2
sg1418
I5
sg80
I225
sg1422
V-ed
p2638
sg67
VS6_225
p2639
sba(iconstruction
TP_PHON
p2640
(dp2641
g1421
I2
sg1418
I6
sg80
I226
sg1422
Vby
p2642
sg67
VS7_226
p2643
sbasg67
g1299
sbsg1429
I1
sba(iconstruction
CXN
p2644
(dp2645
g1369
(iconstruction
TP_SYMLINKS
p2646
(dp2647
g1372
(dp2648
VATTR_232
p2649
VS4_238
p2650
sVENT_231
p2651
VS1_235
p2652
ssg80
I229
sg67
g1299
sbsg1378
VN
p2653
sg1380
I2
sg67
VREL_SPA
p2654
sg1382
(iconstruction
TP_SEMFRAME
p2655
(dp2656
g95
g0
(g96
g2
Ntp2657
Rp2658
(dp2659
g100
(dp2660
(iconstruction
TP_NODE
p2661
(dp2662
g1391
I01
sg1392
g745
sg67
g2651
sg1393
I01
sg1394
I01
sg80
I231
sb(dp2663
g1393
I01
sg1392
g745
ss(iconstruction
TP_NODE
p2664
(dp2665
g1391
I00
sg1392
g646
sg67
g2649
sg1393
I00
sg1394
I00
sg80
I232
sb(dp2666
g1393
I00
sg1392
g646
ss(iconstruction
TP_NODE
p2667
(dp2668
g1391
I00
sg1392
g742
sg67
VEVT_230
p2669
sg1393
I01
sg1394
I00
sg80
I230
sb(dp2670
g1393
I01
sg1392
g742
sssg285
g286
sg287
g286
sg288
(dp2671
g2661
(dp2672
sg2664
(dp2673
sg2667
(dp2674
g2661
(dp2675
g1392
g736
ssg2664
(dp2676
g1392
g694
ssssg481
g2671
sg95
(dp2677
sg483
g286
sg484
g2671
sg485
(dp2678
g2661
(dp2679
g2667
g2675
ssg2664
(dp2680
g2667
g2676
ssg2667
(dp2681
ssbsg578
(lp2682
g2667
ag2661
ag2664
asg855
(lp2683
(iconstruction
TP_REL
p2684
(dp2685
g861
g2661
sg1392
g736
sg80
I233
sg862
g2667
sg67
VIS_233
p2686
sba(iconstruction
TP_REL
p2687
(dp2688
g861
g2664
sg1392
g694
sg80
I234
sg862
g2667
sg67
VEVT_ATTR_234
p2689
sbasg80
I227
sg67
g1299
sbsg1408
(iconstruction
TP_SYNFORM
p2690
(dp2691
g80
I228
sg1411
(lp2692
(iconstruction
TP_SLOT
p2693
(dp2694
g1415
(lp2695
VN
p2696
asg1418
I0
sg80
I235
sg67
g2652
sba(iconstruction
TP_PHON
p2697
(dp2698
g1421
I4
sg1418
I1
sg80
I236
sg1422
Vthat
p2699
sg67
VS2_236
p2700
sba(iconstruction
TP_PHON
p2701
(dp2702
g1421
I2
sg1418
I2
sg80
I237
sg1422
Vis
p2703
sg67
VS3_237
p2704
sba(iconstruction
TP_SLOT
p2705
(dp2706
g1415
(lp2707
VA
p2708
asg1418
I3
sg80
I238
sg67
g2650
sbasg67
g1299
sbsg1429
I1
sba(iconstruction
CXN
p2709
(dp2710
g1369
(iconstruction
TP_SYMLINKS
p2711
(dp2712
g1372
(dp2713
VAGT_244
p2714
VS1_251
p2715
sVCOLOR_246
p2716
VS3_253
p2717
ssg80
I241
sg67
g1299
sbsg1378
VN
p2718
sg1380
I2
sg67
VIN_COLOR
p2719
sg1382
(iconstruction
TP_SEMFRAME
p2720
(dp2721
g95
g0
(g96
g2
Ntp2722
Rp2723
(dp2724
g100
(dp2725
(iconstruction
TP_NODE
p2726
(dp2727
g1391
I00
sg1392
g634
sg67
VACT_243
p2728
sg1393
I01
sg1394
I00
sg80
I243
sb(dp2729
g1393
I01
sg1392
g634
ss(iconstruction
TP_NODE
p2730
(dp2731
g1391
I01
sg1392
g754
sg67
g2714
sg1393
I01
sg1394
I00
sg80
I244
sb(dp2732
g1393
I01
sg1392
g754
ss(iconstruction
TP_NODE
p2733
(dp2734
g1391
I00
sg1392
g784
sg67
VPT_245
p2735
sg1393
I01
sg1394
I00
sg80
I245
sb(dp2736
g1393
I01
sg1392
g784
ss(iconstruction
TP_NODE
p2737
(dp2738
g1391
I00
sg1392
g742
sg67
VEVT_242
p2739
sg1393
I01
sg1394
I00
sg80
I242
sb(dp2740
g1393
I01
sg1392
g742
ss(iconstruction
TP_NODE
p2741
(dp2742
g1391
I00
sg1392
g649
sg67
g2716
sg1393
I00
sg1394
I01
sg80
I246
sb(dp2743
g1393
I00
sg1392
g649
sssg285
g286
sg287
g286
sg288
(dp2744
g2726
(dp2745
g2733
(dp2746
g1392
g709
ssg2730
(dp2747
g1392
g715
sssg2730
(dp2748
sg2733
(dp2749
g2741
(dp2750
g1392
g694
sssg2737
(dp2751
g2726
(dp2752
g1392
g736
sssg2741
(dp2753
ssg481
g2744
sg95
(dp2754
sg483
g286
sg484
g2744
sg485
(dp2755
g2726
(dp2756
g2737
g2752
ssg2730
(dp2757
g2726
g2747
ssg2733
(dp2758
g2726
g2746
ssg2737
(dp2759
sg2741
(dp2760
g2733
g2750
sssbsg578
(lp2761
g2737
ag2726
ag2730
ag2733
ag2741
asg855
(lp2762
(iconstruction
TP_REL
p2763
(dp2764
g861
g2726
sg1392
g736
sg80
I247
sg862
g2737
sg67
VIS_247
p2765
sba(iconstruction
TP_REL
p2766
(dp2767
g861
g2730
sg1392
g715
sg80
I248
sg862
g2726
sg67
VACT_AGT_248
p2768
sba(iconstruction
TP_REL
p2769
(dp2770
g861
g2733
sg1392
g709
sg80
I249
sg862
g2726
sg67
VACT_PT_249
p2771
sba(iconstruction
TP_REL
p2772
(dp2773
g861
g2741
sg1392
g694
sg80
I250
sg862
g2733
sg67
VPT_COLOR_250
p2774
sbasg80
I239
sg67
g1299
sbsg1408
(iconstruction
TP_SYNFORM
p2775
(dp2776
g80
I240
sg1411
(lp2777
(iconstruction
TP_SLOT
p2778
(dp2779
g1415
(lp2780
VN
p2781
asg1418
I0
sg80
I251
sg67
g2715
sba(iconstruction
TP_PHON
p2782
(dp2783
g1421
I2
sg1418
I1
sg80
I252
sg1422
Vin
p2784
sg67
VS2_252
p2785
sba(iconstruction
TP_SLOT
p2786
(dp2787
g1415
(lp2788
VA
p2789
asg1418
I2
sg80
I253
sg67
g2717
sbasg67
g1299
sbsg1429
I1
sba(iconstruction
CXN
p2790
(dp2791
g1369
(iconstruction
TP_SYMLINKS
p2792
(dp2793
g1372
(dp2794
VN1_258
p2795
VS1_260
p2796
ssg80
I256
sg67
g1299
sbsg1378
VV
p2797
sg1380
I1
sg67
VHIT
p2798
sg1382
(iconstruction
TP_SEMFRAME
p2799
(dp2800
g95
g0
(g96
g2
Ntp2801
Rp2802
(dp2803
g100
(dp2804
(iconstruction
TP_NODE
p2805
(dp2806
g1391
I01
sg1392
g589
sg67
VACT_257
p2807
sg1393
I01
sg1394
I00
sg80
I257
sb(dp2808
g1393
I01
sg1392
g589
ss(iconstruction
TP_NODE
p2809
(dp2810
g1391
I00
sg1392
g610
sg67
g2795
sg1393
I00
sg1394
I00
sg80
I258
sb(dp2811
g1393
I00
sg1392
g610
sssg285
g286
sg287
g286
sg288
(dp2812
g2805
(dp2813
g2809
(dp2814
g1392
g736
sssg2809
(dp2815
ssg481
g2812
sg95
(dp2816
sg483
g286
sg484
g2812
sg485
(dp2817
g2805
(dp2818
sg2809
(dp2819
g2805
g2814
sssbsg578
(lp2820
g2805
ag2809
asg855
(lp2821
(iconstruction
TP_REL
p2822
(dp2823
g861
g2809
sg1392
g736
sg80
I259
sg862
g2805
sg67
VIS_259
p2824
sbasg80
I254
sg67
g1299
sbsg1408
(iconstruction
TP_SYNFORM
p2825
(dp2826
g80
I255
sg1411
(lp2827
(iconstruction
TP_PHON
p2828
(dp2829
g1421
I3
sg1418
I0
sg80
I260
sg1422
Vhit
p2830
sg67
g2796
sbasg67
g1299
sbsg1429
I1
sba(iconstruction
CXN
p2831
(dp2832
g1369
(iconstruction
TP_SYMLINKS
p2833
(dp2834
g1372
(dp2835
VN1_265
p2836
VS1_267
p2837
ssg80
I263
sg67
g1299
sbsg1378
VV
p2838
sg1380
I1
sg67
VKICK
p2839
sg1382
(iconstruction
TP_SEMFRAME
p2840
(dp2841
g95
g0
(g96
g2
Ntp2842
Rp2843
(dp2844
g100
(dp2845
(iconstruction
TP_NODE
p2846
(dp2847
g1391
I00
sg1392
g631
sg67
g2836
sg1393
I00
sg1394
I00
sg80
I265
sb(dp2848
g1393
I00
sg1392
g631
ss(iconstruction
TP_NODE
p2849
(dp2850
g1391
I01
sg1392
g589
sg67
VACT_264
p2851
sg1393
I01
sg1394
I00
sg80
I264
sb(dp2852
g1393
I01
sg1392
g589
sssg285
g286
sg287
g286
sg288
(dp2853
g2846
(dp2854
sg2849
(dp2855
g2846
(dp2856
g1392
g736
ssssg481
g2853
sg95
(dp2857
sg483
g286
sg484
g2853
sg485
(dp2858
g2846
(dp2859
g2849
g2856
ssg2849
(dp2860
ssbsg578
(lp2861
g2849
ag2846
asg855
(lp2862
(iconstruction
TP_REL
p2863
(dp2864
g861
g2846
sg1392
g736
sg80
I266
sg862
g2849
sg67
VIS_266
p2865
sbasg80
I261
sg67
g1299
sbsg1408
(iconstruction
TP_SYNFORM
p2866
(dp2867
g80
I262
sg1411
(lp2868
(iconstruction
TP_PHON
p2869
(dp2870
g1421
I4
sg1418
I0
sg80
I267
sg1422
Vkick
p2871
sg67
g2837
sbasg67
g1299
sbsg1429
I1
sba(iconstruction
CXN
p2872
(dp2873
g1369
(iconstruction
TP_SYMLINKS
p2874
(dp2875
g1372
(dp2876
VN1_272
p2877
VS1_274
p2878
ssg80
I270
sg67
g1299
sbsg1378
VV
p2879
sg1380
I1
sg67
VPUNCH
p2880
sg1382
(iconstruction
TP_SEMFRAME
p2881
(dp2882
g95
g0
(g96
g2
Ntp2883
Rp2884
(dp2885
g100
(dp2886
(iconstruction
TP_NODE
p2887
(dp2888
g1391
I01
sg1392
g589
sg67
VACT_271
p2889
sg1393
I01
sg1394
I00
sg80
I271
sb(dp2890
g1393
I01
sg1392
g589
ss(iconstruction
TP_NODE
p2891
(dp2892
g1391
I00
sg1392
g616
sg67
g2877
sg1393
I00
sg1394
I00
sg80
I272
sb(dp2893
g1393
I00
sg1392
g616
sssg285
g286
sg287
g286
sg288
(dp2894
g2887
(dp2895
g2891
(dp2896
g1392
g736
sssg2891
(dp2897
ssg481
g2894
sg95
(dp2898
sg483
g286
sg484
g2894
sg485
(dp2899
g2887
(dp2900
sg2891
(dp2901
g2887
g2896
sssbsg578
(lp2902
g2887
ag2891
asg855
(lp2903
(iconstruction
TP_REL
p2904
(dp2905
g861
g2891
sg1392
g736
sg80
I273
sg862
g2887
sg67
VIS_273
p2906
sbasg80
I268
sg67
g1299
sbsg1408
(iconstruction
TP_SYNFORM
p2907
(dp2908
g80
I269
sg1411
(lp2909
(iconstruction
TP_PHON
p2910
(dp2911
g1421
I5
sg1418
I0
sg80
I274
sg1422
Vpunch
p2912
sg67
g2878
sbasg67
g1299
sbsg1429
I1
sba(iconstruction
CXN
p2913
(dp2914
g1369
(iconstruction
TP_SYMLINKS
p2915
(dp2916
g1372
(dp2917
VN1_279
p2918
VS1_281
p2919
ssg80
I277
sg67
g1299
sbsg1378
VV
p2920
sg1380
I1
sg67
VWEAR
p2921
sg1382
(iconstruction
TP_SEMFRAME
p2922
(dp2923
g95
g0
(g96
g2
Ntp2924
Rp2925
(dp2926
g100
(dp2927
(iconstruction
TP_NODE
p2928
(dp2929
g1391
I01
sg1392
g589
sg67
VACT_278
p2930
sg1393
I01
sg1394
I00
sg80
I278
sb(dp2931
g1393
I01
sg1392
g589
ss(iconstruction
TP_NODE
p2932
(dp2933
g1391
I00
sg1392
g634
sg67
g2918
sg1393
I00
sg1394
I00
sg80
I279
sb(dp2934
g1393
I00
sg1392
g634
sssg285
g286
sg287
g286
sg288
(dp2935
g2928
(dp2936
g2932
(dp2937
g1392
g736
sssg2932
(dp2938
ssg481
g2935
sg95
(dp2939
sg483
g286
sg484
g2935
sg485
(dp2940
g2928
(dp2941
sg2932
(dp2942
g2928
g2937
sssbsg578
(lp2943
g2928
ag2932
asg855
(lp2944
(iconstruction
TP_REL
p2945
(dp2946
g861
g2932
sg1392
g736
sg80
I280
sg862
g2928
sg67
VIS_280
p2947
sbasg80
I275
sg67
g1299
sbsg1408
(iconstruction
TP_SYNFORM
p2948
(dp2949
g80
I276
sg1411
(lp2950
(iconstruction
TP_PHON
p2951
(dp2952
g1421
I4
sg1418
I0
sg80
I281
sg1422
Vwear
p2953
sg67
g2919
sbasg67
g1299
sbsg1429
I1
sba(iconstruction
CXN
p2954
(dp2955
g1369
(iconstruction
TP_SYMLINKS
p2956
(dp2957
g1372
(dp2958
VN1_286
p2959
VS1_288
p2960
ssg80
I284
sg67
g1299
sbsg1378
VV
p2961
sg1380
I1
sg67
VLAUGH
p2962
sg1382
(iconstruction
TP_SEMFRAME
p2963
(dp2964
g95
g0
(g96
g2
Ntp2965
Rp2966
(dp2967
g100
(dp2968
(iconstruction
TP_NODE
p2969
(dp2970
g1391
I00
sg1392
g604
sg67
g2959
sg1393
I00
sg1394
I00
sg80
I286
sb(dp2971
g1393
I00
sg1392
g604
ss(iconstruction
TP_NODE
p2972
(dp2973
g1391
I01
sg1392
g589
sg67
VACT_285
p2974
sg1393
I01
sg1394
I00
sg80
I285
sb(dp2975
g1393
I01
sg1392
g589
sssg285
g286
sg287
g286
sg288
(dp2976
g2969
(dp2977
sg2972
(dp2978
g2969
(dp2979
g1392
g736
ssssg481
g2976
sg95
(dp2980
sg483
g286
sg484
g2976
sg485
(dp2981
g2969
(dp2982
g2972
g2979
ssg2972
(dp2983
ssbsg578
(lp2984
g2972
ag2969
asg855
(lp2985
(iconstruction
TP_REL
p2986
(dp2987
g861
g2969
sg1392
g736
sg80
I287
sg862
g2972
sg67
VIS_287
p2988
sbasg80
I282
sg67
g1299
sbsg1408
(iconstruction
TP_SYNFORM
p2989
(dp2990
g80
I283
sg1411
(lp2991
(iconstruction
TP_PHON
p2992
(dp2993
g1421
I5
sg1418
I0
sg80
I288
sg1422
Vlaugh
p2994
sg67
g2960
sbasg67
g1299
sbsg1429
I1
sba(iconstruction
CXN
p2995
(dp2996
g1369
(iconstruction
TP_SYMLINKS
p2997
(dp2998
g1372
(dp2999
VN1_293
p3000
VS1_295
p3001
ssg80
I291
sg67
g1299
sbsg1378
VV
p3002
sg1380
I1
sg67
VWATCH
p3003
sg1382
(iconstruction
TP_SEMFRAME
p3004
(dp3005
g95
g0
(g96
g2
Ntp3006
Rp3007
(dp3008
g100
(dp3009
(iconstruction
TP_NODE
p3010
(dp3011
g1391
I01
sg1392
g589
sg67
VACT_292
p3012
sg1393
I01
sg1394
I00
sg80
I292
sb(dp3013
g1393
I01
sg1392
g589
ss(iconstruction
TP_NODE
p3014
(dp3015
g1391
I00
sg1392
g613
sg67
g3000
sg1393
I00
sg1394
I00
sg80
I293
sb(dp3016
g1393
I00
sg1392
g613
sssg285
g286
sg287
g286
sg288
(dp3017
g3010
(dp3018
g3014
(dp3019
g1392
g736
sssg3014
(dp3020
ssg481
g3017
sg95
(dp3021
sg483
g286
sg484
g3017
sg485
(dp3022
g3010
(dp3023
sg3014
(dp3024
g3010
g3019
sssbsg578
(lp3025
g3010
ag3014
asg855
(lp3026
(iconstruction
TP_REL
p3027
(dp3028
g861
g3014
sg1392
g736
sg80
I294
sg862
g3010
sg67
VIS_294
p3029
sbasg80
I289
sg67
g1299
sbsg1408
(iconstruction
TP_SYNFORM
p3030
(dp3031
g80
I290
sg1411
(lp3032
(iconstruction
TP_PHON
p3033
(dp3034
g1421
I5
sg1418
I0
sg80
I295
sg1422
Vwatch
p3035
sg67
g3001
sbasg67
g1299
sbsg1429
I1
sba(iconstruction
CXN
p3036
(dp3037
g1369
(iconstruction
TP_SYMLINKS
p3038
(dp3039
g1372
(dp3040
VN1_300
p3041
VS1_302
p3042
ssg80
I298
sg67
g1299
sbsg1378
VV
p3043
sg1380
I1
sg67
VTALK
p3044
sg1382
(iconstruction
TP_SEMFRAME
p3045
(dp3046
g95
g0
(g96
g2
Ntp3047
Rp3048
(dp3049
g100
(dp3050
(iconstruction
TP_NODE
p3051
(dp3052
g1391
I00
sg1392
g622
sg67
g3041
sg1393
I00
sg1394
I00
sg80
I300
sb(dp3053
g1393
I00
sg1392
g622
ss(iconstruction
TP_NODE
p3054
(dp3055
g1391
I01
sg1392
g589
sg67
VACT_299
p3056
sg1393
I01
sg1394
I00
sg80
I299
sb(dp3057
g1393
I01
sg1392
g589
sssg285
g286
sg287
g286
sg288
(dp3058
g3051
(dp3059
sg3054
(dp3060
g3051
(dp3061
g1392
g736
ssssg481
g3058
sg95
(dp3062
sg483
g286
sg484
g3058
sg485
(dp3063
g3051
(dp3064
g3054
g3061
ssg3054
(dp3065
ssbsg578
(lp3066
g3054
ag3051
asg855
(lp3067
(iconstruction
TP_REL
p3068
(dp3069
g861
g3051
sg1392
g736
sg80
I301
sg862
g3054
sg67
VIS_301
p3070
sbasg80
I296
sg67
g1299
sbsg1408
(iconstruction
TP_SYNFORM
p3071
(dp3072
g80
I297
sg1411
(lp3073
(iconstruction
TP_PHON
p3074
(dp3075
g1421
I4
sg1418
I0
sg80
I302
sg1422
Vtalk
p3076
sg67
g3042
sba(iconstruction
TP_PHON
p3077
(dp3078
g1421
I2
sg1418
I1
sg80
I303
sg1422
Vto
p3079
sg67
VS2_303
p3080
sbasg67
g1299
sbsg1429
I1
sba(iconstruction
CXN
p3081
(dp3082
g1369
(iconstruction
TP_SYMLINKS
p3083
(dp3084
g1372
(dp3085
VN1_308
p3086
VS1_310
p3087
ssg80
I306
sg67
g1299
sbsg1378
VV
p3088
sg1380
I1
sg67
VSQUIRT
p3089
sg1382
(iconstruction
TP_SEMFRAME
p3090
(dp3091
g95
g0
(g96
g2
Ntp3092
Rp3093
(dp3094
g100
(dp3095
(iconstruction
TP_NODE
p3096
(dp3097
g1391
I00
sg1392
g628
sg67
g3086
sg1393
I00
sg1394
I00
sg80
I308
sb(dp3098
g1393
I00
sg1392
g628
ss(iconstruction
TP_NODE
p3099
(dp3100
g1391
I01
sg1392
g589
sg67
VACT_307
p3101
sg1393
I01
sg1394
I00
sg80
I307
sb(dp3102
g1393
I01
sg1392
g589
sssg285
g286
sg287
g286
sg288
(dp3103
g3096
(dp3104
sg3099
(dp3105
g3096
(dp3106
g1392
g736
ssssg481
g3103
sg95
(dp3107
sg483
g286
sg484
g3103
sg485
(dp3108
g3096
(dp3109
g3099
g3106
ssg3099
(dp3110
ssbsg578
(lp3111
g3099
ag3096
asg855
(lp3112
(iconstruction
TP_REL
p3113
(dp3114
g861
g3096
sg1392
g736
sg80
I309
sg862
g3099
sg67
VIS_309
p3115
sbasg80
I304
sg67
g1299
sbsg1408
(iconstruction
TP_SYNFORM
p3116
(dp3117
g80
I305
sg1411
(lp3118
(iconstruction
TP_PHON
p3119
(dp3120
g1421
I6
sg1418
I0
sg80
I310
sg1422
Vsquirt
p3121
sg67
g3087
sba(iconstruction
TP_PHON
p3122
(dp3123
g1421
I2
sg1418
I1
sg80
I311
sg1422
Vat
p3124
sg67
VS2_311
p3125
sbasg67
g1299
sbsg1429
I1
sba(iconstruction
CXN
p3126
(dp3127
g1369
(iconstruction
TP_SYMLINKS
p3128
(dp3129
g1372
(dp3130
VN1_316
p3131
VS1_318
p3132
ssg80
I314
sg67
g1299
sbsg1378
VV
p3133
sg1380
I1
sg67
VSPLASH
p3134
sg1382
(iconstruction
TP_SEMFRAME
p3135
(dp3136
g95
g0
(g96
g2
Ntp3137
Rp3138
(dp3139
g100
(dp3140
(iconstruction
TP_NODE
p3141
(dp3142
g1391
I01
sg1392
g589
sg67
VACT_315
p3143
sg1393
I01
sg1394
I00
sg80
I315
sb(dp3144
g1393
I01
sg1392
g589
ss(iconstruction
TP_NODE
p3145
(dp3146
g1391
I00
sg1392
g619
sg67
g3131
sg1393
I00
sg1394
I00
sg80
I316
sb(dp3147
g1393
I00
sg1392
g619
sssg285
g286
sg287
g286
sg288
(dp3148
g3141
(dp3149
g3145
(dp3150
g1392
g736
sssg3145
(dp3151
ssg481
g3148
sg95
(dp3152
sg483
g286
sg484
g3148
sg485
(dp3153
g3141
(dp3154
sg3145
(dp3155
g3141
g3150
sssbsg578
(lp3156
g3141
ag3145
asg855
(lp3157
(iconstruction
TP_REL
p3158
(dp3159
g861
g3145
sg1392
g736
sg80
I317
sg862
g3141
sg67
VIS_317
p3160
sbasg80
I312
sg67
g1299
sbsg1408
(iconstruction
TP_SYNFORM
p3161
(dp3162
g80
I313
sg1411
(lp3163
(iconstruction
TP_PHON
p3164
(dp3165
g1421
I6
sg1418
I0
sg80
I318
sg1422
Vsplash
p3166
sg67
g3132
sbasg67
g1299
sbsg1429
I1
sba(iconstruction
CXN
p3167
(dp3168
g1369
(iconstruction
TP_SYMLINKS
p3169
(dp3170
g1372
(dp3171
VN1_323
p3172
VS1_325
p3173
ssg80
I321
sg67
g1299
sbsg1378
VV
p3174
sg1380
I1
sg67
VGIVE
p3175
sg1382
(iconstruction
TP_SEMFRAME
p3176
(dp3177
g95
g0
(g96
g2
Ntp3178
Rp3179
(dp3180
g100
(dp3181
(iconstruction
TP_NODE
p3182
(dp3183
g1391
I00
sg1392
g643
sg67
g3172
sg1393
I00
sg1394
I00
sg80
I323
sb(dp3184
g1393
I00
sg1392
g643
ss(iconstruction
TP_NODE
p3185
(dp3186
g1391
I01
sg1392
g589
sg67
VACT_322
p3187
sg1393
I01
sg1394
I00
sg80
I322
sb(dp3188
g1393
I01
sg1392
g589
sssg285
g286
sg287
g286
sg288
(dp3189
g3182
(dp3190
sg3185
(dp3191
g3182
(dp3192
g1392
g736
ssssg481
g3189
sg95
(dp3193
sg483
g286
sg484
g3189
sg485
(dp3194
g3182
(dp3195
g3185
g3192
ssg3185
(dp3196
ssbsg578
(lp3197
g3185
ag3182
asg855
(lp3198
(iconstruction
TP_REL
p3199
(dp3200
g861
g3182
sg1392
g736
sg80
I324
sg862
g3185
sg67
VIS_324
p3201
sbasg80
I319
sg67
g1299
sbsg1408
(iconstruction
TP_SYNFORM
p3202
(dp3203
g80
I320
sg1411
(lp3204
(iconstruction
TP_PHON
p3205
(dp3206
g1421
I4
sg1418
I0
sg80
I325
sg1422
Vgive
p3207
sg67
g3173
sbasg67
g1299
sbsg1429
I1
sba(iconstruction
CXN
p3208
(dp3209
g1369
(iconstruction
TP_SYMLINKS
p3210
(dp3211
g1372
(dp3212
VN1_330
p3213
VS1_332
p3214
ssg80
I328
sg67
g1299
sbsg1378
VV
p3215
sg1380
I1
sg67
VSEND
p3216
sg1382
(iconstruction
TP_SEMFRAME
p3217
(dp3218
g95
g0
(g96
g2
Ntp3219
Rp3220
(dp3221
g100
(dp3222
(iconstruction
TP_NODE
p3223
(dp3224
g1391
I01
sg1392
g589
sg67
VACT_329
p3225
sg1393
I01
sg1394
I00
sg80
I329
sb(dp3226
g1393
I01
sg1392
g589
ss(iconstruction
TP_NODE
p3227
(dp3228
g1391
I00
sg1392
g640
sg67
g3213
sg1393
I00
sg1394
I00
sg80
I330
sb(dp3229
g1393
I00
sg1392
g640
sssg285
g286
sg287
g286
sg288
(dp3230
g3223
(dp3231
g3227
(dp3232
g1392
g736
sssg3227
(dp3233
ssg481
g3230
sg95
(dp3234
sg483
g286
sg484
g3230
sg485
(dp3235
g3223
(dp3236
sg3227
(dp3237
g3223
g3232
sssbsg578
(lp3238
g3223
ag3227
asg855
(lp3239
(iconstruction
TP_REL
p3240
(dp3241
g861
g3227
sg1392
g736
sg80
I331
sg862
g3223
sg67
VIS_331
p3242
sbasg80
I326
sg67
g1299
sbsg1408
(iconstruction
TP_SYNFORM
p3243
(dp3244
g80
I327
sg1411
(lp3245
(iconstruction
TP_PHON
p3246
(dp3247
g1421
I4
sg1418
I0
sg80
I332
sg1422
Vsend
p3248
sg67
g3214
sbasg67
g1299
sbsg1429
I1
sba(iconstruction
CXN
p3249
(dp3250
g1369
(iconstruction
TP_SYMLINKS
p3251
(dp3252
g1372
(dp3253
VN1_337
p3254
VS1_339
p3255
ssg80
I335
sg67
g1299
sbsg1378
VV
p3256
sg1380
I1
sg67
VMEET
p3257
sg1382
(iconstruction
TP_SEMFRAME
p3258
(dp3259
g95
g0
(g96
g2
Ntp3260
Rp3261
(dp3262
g100
(dp3263
(iconstruction
TP_NODE
p3264
(dp3265
g1391
I00
sg1392
g595
sg67
g3254
sg1393
I00
sg1394
I00
sg80
I337
sb(dp3266
g1393
I00
sg1392
g595
ss(iconstruction
TP_NODE
p3267
(dp3268
g1391
I01
sg1392
g589
sg67
VACT_336
p3269
sg1393
I01
sg1394
I00
sg80
I336
sb(dp3270
g1393
I01
sg1392
g589
sssg285
g286
sg287
g286
sg288
(dp3271
g3264
(dp3272
sg3267
(dp3273
g3264
(dp3274
g1392
g736
ssssg481
g3271
sg95
(dp3275
sg483
g286
sg484
g3271
sg485
(dp3276
g3264
(dp3277
g3267
g3274
ssg3267
(dp3278
ssbsg578
(lp3279
g3267
ag3264
asg855
(lp3280
(iconstruction
TP_REL
p3281
(dp3282
g861
g3264
sg1392
g736
sg80
I338
sg862
g3267
sg67
VIS_338
p3283
sbasg80
I333
sg67
g1299
sbsg1408
(iconstruction
TP_SYNFORM
p3284
(dp3285
g80
I334
sg1411
(lp3286
(iconstruction
TP_PHON
p3287
(dp3288
g1421
I4
sg1418
I0
sg80
I339
sg1422
Vmeet
p3289
sg67
g3255
sbasg67
g1299
sbsg1429
I1
sba(iconstruction
CXN
p3290
(dp3291
g1369
(iconstruction
TP_SYMLINKS
p3292
(dp3293
g1372
(dp3294
VN1_344
p3295
VS1_346
p3296
ssg80
I342
sg67
g1299
sbsg1378
VV
p3297
sg1380
I1
sg67
VKISS
p3298
sg1382
(iconstruction
TP_SEMFRAME
p3299
(dp3300
g95
g0
(g96
g2
Ntp3301
Rp3302
(dp3303
g100
(dp3304
(iconstruction
TP_NODE
p3305
(dp3306
g1391
I01
sg1392
g589
sg67
VACT_343
p3307
sg1393
I01
sg1394
I00
sg80
I343
sb(dp3308
g1393
I01
sg1392
g589
ss(iconstruction
TP_NODE
p3309
(dp3310
g1391
I00
sg1392
g625
sg67
g3295
sg1393
I00
sg1394
I00
sg80
I344
sb(dp3311
g1393
I00
sg1392
g625
sssg285
g286
sg287
g286
sg288
(dp3312
g3305
(dp3313
g3309
(dp3314
g1392
g736
sssg3309
(dp3315
ssg481
g3312
sg95
(dp3316
sg483
g286
sg484
g3312
sg485
(dp3317
g3305
(dp3318
sg3309
(dp3319
g3305
g3314
sssbsg578
(lp3320
g3305
ag3309
asg855
(lp3321
(iconstruction
TP_REL
p3322
(dp3323
g861
g3309
sg1392
g736
sg80
I345
sg862
g3305
sg67
VIS_345
p3324
sbasg80
I340
sg67
g1299
sbsg1408
(iconstruction
TP_SYNFORM
p3325
(dp3326
g80
I341
sg1411
(lp3327
(iconstruction
TP_PHON
p3328
(dp3329
g1421
I4
sg1418
I0
sg80
I346
sg1422
Vkiss
p3330
sg67
g3296
sbasg67
g1299
sbsg1429
I1
sba(iconstruction
CXN
p3331
(dp3332
g1369
(iconstruction
TP_SYMLINKS
p3333
(dp3334
g1372
(dp3335
VN1_351
p3336
VS1_353
p3337
ssg80
I349
sg67
g1299
sbsg1378
VV
p3338
sg1380
I1
sg67
VSHAKE_HANDS
p3339
sg1382
(iconstruction
TP_SEMFRAME
p3340
(dp3341
g95
g0
(g96
g2
Ntp3342
Rp3343
(dp3344
g100
(dp3345
(iconstruction
TP_NODE
p3346
(dp3347
g1391
I00
sg1392
g598
sg67
g3336
sg1393
I00
sg1394
I00
sg80
I351
sb(dp3348
g1393
I00
sg1392
g598
ss(iconstruction
TP_NODE
p3349
(dp3350
g1391
I01
sg1392
g589
sg67
VACT_350
p3351
sg1393
I01
sg1394
I00
sg80
I350
sb(dp3352
g1393
I01
sg1392
g589
sssg285
g286
sg287
g286
sg288
(dp3353
g3346
(dp3354
sg3349
(dp3355
g3346
(dp3356
g1392
g736
ssssg481
g3353
sg95
(dp3357
sg483
g286
sg484
g3353
sg485
(dp3358
g3346
(dp3359
g3349
g3356
ssg3349
(dp3360
ssbsg578
(lp3361
g3349
ag3346
asg855
(lp3362
(iconstruction
TP_REL
p3363
(dp3364
g861
g3346
sg1392
g736
sg80
I352
sg862
g3349
sg67
VIS_352
p3365
sbasg80
I347
sg67
g1299
sbsg1408
(iconstruction
TP_SYNFORM
p3366
(dp3367
g80
I348
sg1411
(lp3368
(iconstruction
TP_PHON
p3369
(dp3370
g1421
I10
sg1418
I0
sg80
I353
sg1422
Vshake hands
p3371
sg67
g3337
sbasg67
g1299
sbsg1429
I1
sba(iconstruction
CXN
p3372
(dp3373
g1369
(iconstruction
TP_SYMLINKS
p3374
(dp3375
g1372
(dp3376
VN1_357
p3377
VS1_358
p3378
ssg80
I356
sg67
g1299
sbsg1378
VA
p3379
sg1380
I1
sg67
VBLUE
p3380
sg1382
(iconstruction
TP_SEMFRAME
p3381
(dp3382
g95
g0
(g96
g2
Ntp3383
Rp3384
(dp3385
g100
(dp3386
(iconstruction
TP_NODE
p3387
(dp3388
g1391
I01
sg1392
g652
sg67
g3377
sg1393
I00
sg1394
I00
sg80
I357
sb(dp3389
g1393
I00
sg1392
g652
sssg285
g286
sg287
g286
sg288
(dp3390
g3387
(dp3391
ssg481
g3390
sg95
(dp3392
sg483
g286
sg484
g3390
sg485
(dp3393
g3387
(dp3394
ssbsg578
(lp3395
g3387
asg855
(lp3396
sg80
I354
sg67
g1299
sbsg1408
(iconstruction
TP_SYNFORM
p3397
(dp3398
g80
I355
sg1411
(lp3399
(iconstruction
TP_PHON
p3400
(dp3401
g1421
I4
sg1418
I0
sg80
I358
sg1422
Vblue
p3402
sg67
g3378
sbasg67
g1299
sbsg1429
I1
sba(iconstruction
CXN
p3403
(dp3404
g1369
(iconstruction
TP_SYMLINKS
p3405
(dp3406
g1372
(dp3407
VN1_362
p3408
VS1_363
p3409
ssg80
I361
sg67
g1299
sbsg1378
VA
p3410
sg1380
I1
sg67
VBLACK
p3411
sg1382
(iconstruction
TP_SEMFRAME
p3412
(dp3413
g95
g0
(g96
g2
Ntp3414
Rp3415
(dp3416
g100
(dp3417
(iconstruction
TP_NODE
p3418
(dp3419
g1391
I01
sg1392
g661
sg67
g3408
sg1393
I00
sg1394
I00
sg80
I362
sb(dp3420
g1393
I00
sg1392
g661
sssg285
g286
sg287
g286
sg288
(dp3421
g3418
(dp3422
ssg481
g3421
sg95
(dp3423
sg483
g286
sg484
g3421
sg485
(dp3424
g3418
(dp3425
ssbsg578
(lp3426
g3418
asg855
(lp3427
sg80
I359
sg67
g1299
sbsg1408
(iconstruction
TP_SYNFORM
p3428
(dp3429
g80
I360
sg1411
(lp3430
(iconstruction
TP_PHON
p3431
(dp3432
g1421
I5
sg1418
I0
sg80
I363
sg1422
Vblack
p3433
sg67
g3409
sbasg67
g1299
sbsg1429
I1
sba(iconstruction
CXN
p3434
(dp3435
g1369
(iconstruction
TP_SYMLINKS
p3436
(dp3437
g1372
(dp3438
VN1_367
p3439
VS1_368
p3440
ssg80
I366
sg67
g1299
sbsg1378
VA
p3441
sg1380
I1
sg67
VGREEN
p3442
sg1382
(iconstruction
TP_SEMFRAME
p3443
(dp3444
g95
g0
(g96
g2
Ntp3445
Rp3446
(dp3447
g100
(dp3448
(iconstruction
TP_NODE
p3449
(dp3450
g1391
I01
sg1392
g655
sg67
g3439
sg1393
I00
sg1394
I00
sg80
I367
sb(dp3451
g1393
I00
sg1392
g655
sssg285
g286
sg287
g286
sg288
(dp3452
g3449
(dp3453
ssg481
g3452
sg95
(dp3454
sg483
g286
sg484
g3452
sg485
(dp3455
g3449
(dp3456
ssbsg578
(lp3457
g3449
asg855
(lp3458
sg80
I364
sg67
g1299
sbsg1408
(iconstruction
TP_SYNFORM
p3459
(dp3460
g80
I365
sg1411
(lp3461
(iconstruction
TP_PHON
p3462
(dp3463
g1421
I5
sg1418
I0
sg80
I368
sg1422
Vgreen
p3464
sg67
g3440
sbasg67
g1299
sbsg1429
I1
sba(iconstruction
CXN
p3465
(dp3466
g1369
(iconstruction
TP_SYMLINKS
p3467
(dp3468
g1372
(dp3469
VN1_372
p3470
VS1_373
p3471
ssg80
I371
sg67
g1299
sbsg1378
VA
p3472
sg1380
I1
sg67
VSMALL
p3473
sg1382
(iconstruction
TP_SEMFRAME
p3474
(dp3475
g95
g0
(g96
g2
Ntp3476
Rp3477
(dp3478
g100
(dp3479
(iconstruction
TP_NODE
p3480
(dp3481
g1391
I01
sg1392
g682
sg67
g3470
sg1393
I00
sg1394
I00
sg80
I372
sb(dp3482
g1393
I00
sg1392
g682
sssg285
g286
sg287
g286
sg288
(dp3483
g3480
(dp3484
ssg481
g3483
sg95
(dp3485
sg483
g286
sg484
g3483
sg485
(dp3486
g3480
(dp3487
ssbsg578
(lp3488
g3480
asg855
(lp3489
sg80
I369
sg67
g1299
sbsg1408
(iconstruction
TP_SYNFORM
p3490
(dp3491
g80
I370
sg1411
(lp3492
(iconstruction
TP_PHON
p3493
(dp3494
g1421
I5
sg1418
I0
sg80
I373
sg1422
Vsmall
p3495
sg67
g3471
sbasg67
g1299
sbsg1429
I1
sba(iconstruction
CXN
p3496
(dp3497
g1369
(iconstruction
TP_SYMLINKS
p3498
(dp3499
g1372
(dp3500
VN1_377
p3501
VS1_378
p3502
ssg80
I376
sg67
g1299
sbsg1378
VA
p3503
sg1380
I1
sg67
VBIG
p3504
sg1382
(iconstruction
TP_SEMFRAME
p3505
(dp3506
g95
g0
(g96
g2
Ntp3507
Rp3508
(dp3509
g100
(dp3510
(iconstruction
TP_NODE
p3511
(dp3512
g1391
I01
sg1392
g685
sg67
g3501
sg1393
I00
sg1394
I00
sg80
I377
sb(dp3513
g1393
I00
sg1392
g685
sssg285
g286
sg287
g286
sg288
(dp3514
g3511
(dp3515
ssg481
g3514
sg95
(dp3516
sg483
g286
sg484
g3514
sg485
(dp3517
g3511
(dp3518
ssbsg578
(lp3519
g3511
asg855
(lp3520
sg80
I374
sg67
g1299
sbsg1408
(iconstruction
TP_SYNFORM
p3521
(dp3522
g80
I375
sg1411
(lp3523
(iconstruction
TP_PHON
p3524
(dp3525
g1421
I3
sg1418
I0
sg80
I378
sg1422
Vbig
p3526
sg67
g3502
sbasg67
g1299
sbsg1429
I1
sba(iconstruction
CXN
p3527
(dp3528
g1369
(iconstruction
TP_SYMLINKS
p3529
(dp3530
g1372
(dp3531
VN1_382
p3532
VS1_383
p3533
ssg80
I381
sg67
g1299
sbsg1378
VA
p3534
sg1380
I1
sg67
VHANDSOME
p3535
sg1382
(iconstruction
TP_SEMFRAME
p3536
(dp3537
g95
g0
(g96
g2
Ntp3538
Rp3539
(dp3540
g100
(dp3541
(iconstruction
TP_NODE
p3542
(dp3543
g1391
I01
sg1392
g676
sg67
g3532
sg1393
I00
sg1394
I00
sg80
I382
sb(dp3544
g1393
I00
sg1392
g676
sssg285
g286
sg287
g286
sg288
(dp3545
g3542
(dp3546
ssg481
g3545
sg95
(dp3547
sg483
g286
sg484
g3545
sg485
(dp3548
g3542
(dp3549
ssbsg578
(lp3550
g3542
asg855
(lp3551
sg80
I379
sg67
g1299
sbsg1408
(iconstruction
TP_SYNFORM
p3552
(dp3553
g80
I380
sg1411
(lp3554
(iconstruction
TP_PHON
p3555
(dp3556
g1421
I8
sg1418
I0
sg80
I383
sg1422
Vhandsome
p3557
sg67
g3533
sbasg67
g1299
sbsg1429
I1
sba(iconstruction
CXN
p3558
(dp3559
g1369
(iconstruction
TP_SYMLINKS
p3560
(dp3561
g1372
(dp3562
VN1_387
p3563
VS1_388
p3564
ssg80
I386
sg67
g1299
sbsg1378
VA
p3565
sg1380
I1
sg67
VPRETTY
p3566
sg1382
(iconstruction
TP_SEMFRAME
p3567
(dp3568
g95
g0
(g96
g2
Ntp3569
Rp3570
(dp3571
g100
(dp3572
(iconstruction
TP_NODE
p3573
(dp3574
g1391
I01
sg1392
g673
sg67
g3563
sg1393
I00
sg1394
I00
sg80
I387
sb(dp3575
g1393
I00
sg1392
g673
sssg285
g286
sg287
g286
sg288
(dp3576
g3573
(dp3577
ssg481
g3576
sg95
(dp3578
sg483
g286
sg484
g3576
sg485
(dp3579
g3573
(dp3580
ssbsg578
(lp3581
g3573
asg855
(lp3582
sg80
I384
sg67
g1299
sbsg1408
(iconstruction
TP_SYNFORM
p3583
(dp3584
g80
I385
sg1411
(lp3585
(iconstruction
TP_PHON
p3586
(dp3587
g1421
I6
sg1418
I0
sg80
I388
sg1422
Vpretty
p3588
sg67
g3564
sbasg67
g1299
sbsg1429
I1
sba(iconstruction
CXN
p3589
(dp3590
g1369
(iconstruction
TP_SYMLINKS
p3591
(dp3592
g1372
(dp3593
VN1_392
p3594
VS1_393
p3595
ssg80
I391
sg67
g1299
sbsg1378
VA
p3596
sg1380
I1
sg67
VYOUNG
p3597
sg1382
(iconstruction
TP_SEMFRAME
p3598
(dp3599
g95
g0
(g96
g2
Ntp3600
Rp3601
(dp3602
g100
(dp3603
(iconstruction
TP_NODE
p3604
(dp3605
g1391
I01
sg1392
g670
sg67
g3594
sg1393
I00
sg1394
I00
sg80
I392
sb(dp3606
g1393
I00
sg1392
g670
sssg285
g286
sg287
g286
sg288
(dp3607
g3604
(dp3608
ssg481
g3607
sg95
(dp3609
sg483
g286
sg484
g3607
sg485
(dp3610
g3604
(dp3611
ssbsg578
(lp3612
g3604
asg855
(lp3613
sg80
I389
sg67
g1299
sbsg1408
(iconstruction
TP_SYNFORM
p3614
(dp3615
g80
I390
sg1411
(lp3616
(iconstruction
TP_PHON
p3617
(dp3618
g1421
I5
sg1418
I0
sg80
I393
sg1422
Vyoung
p3619
sg67
g3595
sbasg67
g1299
sbsg1429
I1
sba(iconstruction
CXN
p3620
(dp3621
g1369
(iconstruction
TP_SYMLINKS
p3622
(dp3623
g1372
(dp3624
VN1_398
p3625
VS1_400
p3626
ssg80
I396
sg67
g1299
sbsg1378
VN
p3627
sg1380
I1
sg67
VWOMAN
p3628
sg1382
(iconstruction
TP_SEMFRAME
p3629
(dp3630
g95
g0
(g96
g2
Ntp3631
Rp3632
(dp3633
g100
(dp3634
(iconstruction
TP_NODE
p3635
(dp3636
g1391
I01
sg1392
g745
sg67
VENT_397
p3637
sg1393
I01
sg1394
I00
sg80
I397
sb(dp3638
g1393
I01
sg1392
g745
ss(iconstruction
TP_NODE
p3639
(dp3640
g1391
I00
sg1392
g811
sg67
g3625
sg1393
I00
sg1394
I00
sg80
I398
sb(dp3641
g1393
I00
sg1392
g811
sssg285
g286
sg287
g286
sg288
(dp3642
g3635
(dp3643
g3639
(dp3644
g1392
g736
sssg3639
(dp3645
ssg481
g3642
sg95
(dp3646
sg483
g286
sg484
g3642
sg485
(dp3647
g3635
(dp3648
sg3639
(dp3649
g3635
g3644
sssbsg578
(lp3650
g3635
ag3639
asg855
(lp3651
(iconstruction
TP_REL
p3652
(dp3653
g861
g3639
sg1392
g736
sg80
I399
sg862
g3635
sg67
VIS_399
p3654
sbasg80
I394
sg67
g1299
sbsg1408
(iconstruction
TP_SYNFORM
p3655
(dp3656
g80
I395
sg1411
(lp3657
(iconstruction
TP_PHON
p3658
(dp3659
g1421
I5
sg1418
I0
sg80
I400
sg1422
Vwoman
p3660
sg67
g3626
sbasg67
g1299
sbsg1429
I1
sba(iconstruction
CXN
p3661
(dp3662
g1369
(iconstruction
TP_SYMLINKS
p3663
(dp3664
g1372
(dp3665
VN1_405
p3666
VS1_407
p3667
ssg80
I403
sg67
g1299
sbsg1378
VN
p3668
sg1380
I1
sg67
VWOMAN2
p3669
sg1382
(iconstruction
TP_SEMFRAME
p3670
(dp3671
g95
g0
(g96
g2
Ntp3672
Rp3673
(dp3674
g100
(dp3675
(iconstruction
TP_NODE
p3676
(dp3677
g1391
I00
sg1392
g811
sg67
g3666
sg1393
I00
sg1394
I00
sg80
I405
sb(dp3678
g1393
I00
sg1392
g811
ss(iconstruction
TP_NODE
p3679
(dp3680
g1391
I01
sg1392
g745
sg67
VENT_404
p3681
sg1393
I01
sg1394
I00
sg80
I404
sb(dp3682
g1393
I01
sg1392
g745
sssg285
g286
sg287
g286
sg288
(dp3683
g3676
(dp3684
sg3679
(dp3685
g3676
(dp3686
g1392
g736
ssssg481
g3683
sg95
(dp3687
sg483
g286
sg484
g3683
sg485
(dp3688
g3676
(dp3689
g3679
g3686
ssg3679
(dp3690
ssbsg578
(lp3691
g3679
ag3676
asg855
(lp3692
(iconstruction
TP_REL
p3693
(dp3694
g861
g3676
sg1392
g736
sg80
I406
sg862
g3679
sg67
VIS_406
p3695
sbasg80
I401
sg67
g1299
sbsg1408
(iconstruction
TP_SYNFORM
p3696
(dp3697
g80
I402
sg1411
(lp3698
(iconstruction
TP_PHON
p3699
(dp3700
g1421
I4
sg1418
I0
sg80
I407
sg1422
Vlady
p3701
sg67
g3667
sbasg67
g1299
sbsg1429
I1
sba(iconstruction
CXN
p3702
(dp3703
g1369
(iconstruction
TP_SYMLINKS
p3704
(dp3705
g1372
(dp3706
VN1_412
p3707
VS1_414
p3708
ssg80
I410
sg67
g1299
sbsg1378
VN
p3709
sg1380
I1
sg67
VMAN
p3710
sg1382
(iconstruction
TP_SEMFRAME
p3711
(dp3712
g95
g0
(g96
g2
Ntp3713
Rp3714
(dp3715
g100
(dp3716
(iconstruction
TP_NODE
p3717
(dp3718
g1391
I01
sg1392
g745
sg67
VENT_411
p3719
sg1393
I01
sg1394
I00
sg80
I411
sb(dp3720
g1393
I01
sg1392
g745
ss(iconstruction
TP_NODE
p3721
(dp3722
g1391
I00
sg1392
g838
sg67
g3707
sg1393
I00
sg1394
I00
sg80
I412
sb(dp3723
g1393
I00
sg1392
g838
sssg285
g286
sg287
g286
sg288
(dp3724
g3717
(dp3725
g3721
(dp3726
g1392
g736
sssg3721
(dp3727
ssg481
g3724
sg95
(dp3728
sg483
g286
sg484
g3724
sg485
(dp3729
g3717
(dp3730
sg3721
(dp3731
g3717
g3726
sssbsg578
(lp3732
g3717
ag3721
asg855
(lp3733
(iconstruction
TP_REL
p3734
(dp3735
g861
g3721
sg1392
g736
sg80
I413
sg862
g3717
sg67
VIS_413
p3736
sbasg80
I408
sg67
g1299
sbsg1408
(iconstruction
TP_SYNFORM
p3737
(dp3738
g80
I409
sg1411
(lp3739
(iconstruction
TP_PHON
p3740
(dp3741
g1421
I3
sg1418
I0
sg80
I414
sg1422
Vman
p3742
sg67
g3708
sbasg67
g1299
sbsg1429
I1
sba(iconstruction
CXN
p3743
(dp3744
g1369
(iconstruction
TP_SYMLINKS
p3745
(dp3746
g1372
(dp3747
VN1_419
p3748
VS1_421
p3749
ssg80
I417
sg67
g1299
sbsg1378
VN
p3750
sg1380
I1
sg67
VGIRL
p3751
sg1382
(iconstruction
TP_SEMFRAME
p3752
(dp3753
g95
g0
(g96
g2
Ntp3754
Rp3755
(dp3756
g100
(dp3757
(iconstruction
TP_NODE
p3758
(dp3759
g1391
I00
sg1392
g829
sg67
g3748
sg1393
I00
sg1394
I00
sg80
I419
sb(dp3760
g1393
I00
sg1392
g829
ss(iconstruction
TP_NODE
p3761
(dp3762
g1391
I01
sg1392
g745
sg67
VENT_418
p3763
sg1393
I01
sg1394
I00
sg80
I418
sb(dp3764
g1393
I01
sg1392
g745
sssg285
g286
sg287
g286
sg288
(dp3765
g3758
(dp3766
sg3761
(dp3767
g3758
(dp3768
g1392
g736
ssssg481
g3765
sg95
(dp3769
sg483
g286
sg484
g3765
sg485
(dp3770
g3758
(dp3771
g3761
g3768
ssg3761
(dp3772
ssbsg578
(lp3773
g3761
ag3758
asg855
(lp3774
(iconstruction
TP_REL
p3775
(dp3776
g861
g3758
sg1392
g736
sg80
I420
sg862
g3761
sg67
VIS_420
p3777
sbasg80
I415
sg67
g1299
sbsg1408
(iconstruction
TP_SYNFORM
p3778
(dp3779
g80
I416
sg1411
(lp3780
(iconstruction
TP_PHON
p3781
(dp3782
g1421
I4
sg1418
I0
sg80
I421
sg1422
Vgirl
p3783
sg67
g3749
sbasg67
g1299
sbsg1429
I1
sba(iconstruction
CXN
p3784
(dp3785
g1369
(iconstruction
TP_SYMLINKS
p3786
(dp3787
g1372
(dp3788
VN1_426
p3789
VS1_428
p3790
ssg80
I424
sg67
g1299
sbsg1378
VN
p3791
sg1380
I1
sg67
VBOY
p3792
sg1382
(iconstruction
TP_SEMFRAME
p3793
(dp3794
g95
g0
(g96
g2
Ntp3795
Rp3796
(dp3797
g100
(dp3798
(iconstruction
TP_NODE
p3799
(dp3800
g1391
I01
sg1392
g745
sg67
VENT_425
p3801
sg1393
I01
sg1394
I00
sg80
I425
sb(dp3802
g1393
I01
sg1392
g745
ss(iconstruction
TP_NODE
p3803
(dp3804
g1391
I00
sg1392
g808
sg67
g3789
sg1393
I00
sg1394
I00
sg80
I426
sb(dp3805
g1393
I00
sg1392
g808
sssg285
g286
sg287
g286
sg288
(dp3806
g3799
(dp3807
g3803
(dp3808
g1392
g736
sssg3803
(dp3809
ssg481
g3806
sg95
(dp3810
sg483
g286
sg484
g3806
sg485
(dp3811
g3799
(dp3812
sg3803
(dp3813
g3799
g3808
sssbsg578
(lp3814
g3799
ag3803
asg855
(lp3815
(iconstruction
TP_REL
p3816
(dp3817
g861
g3803
sg1392
g736
sg80
I427
sg862
g3799
sg67
VIS_427
p3818
sbasg80
I422
sg67
g1299
sbsg1408
(iconstruction
TP_SYNFORM
p3819
(dp3820
g80
I423
sg1411
(lp3821
(iconstruction
TP_PHON
p3822
(dp3823
g1421
I3
sg1418
I0
sg80
I428
sg1422
Vboy
p3824
sg67
g3790
sbasg67
g1299
sbsg1429
I1
sba(iconstruction
CXN
p3825
(dp3826
g1369
(iconstruction
TP_SYMLINKS
p3827
(dp3828
g1372
(dp3829
VN1_433
p3830
VS1_435
p3831
ssg80
I431
sg67
g1299
sbsg1378
VN
p3832
sg1380
I1
sg67
VPEOPLE
p3833
sg1382
(iconstruction
TP_SEMFRAME
p3834
(dp3835
g95
g0
(g96
g2
Ntp3836
Rp3837
(dp3838
g100
(dp3839
(iconstruction
TP_NODE
p3840
(dp3841
g1391
I01
sg1392
g745
sg67
VENT_432
p3842
sg1393
I01
sg1394
I00
sg80
I432
sb(dp3843
g1393
I01
sg1392
g745
ss(iconstruction
TP_NODE
p3844
(dp3845
g1391
I00
sg1392
g814
sg67
g3830
sg1393
I00
sg1394
I00
sg80
I433
sb(dp3846
g1393
I00
sg1392
g814
sssg285
g286
sg287
g286
sg288
(dp3847
g3840
(dp3848
g3844
(dp3849
g1392
g736
sssg3844
(dp3850
ssg481
g3847
sg95
(dp3851
sg483
g286
sg484
g3847
sg485
(dp3852
g3840
(dp3853
sg3844
(dp3854
g3840
g3849
sssbsg578
(lp3855
g3840
ag3844
asg855
(lp3856
(iconstruction
TP_REL
p3857
(dp3858
g861
g3844
sg1392
g736
sg80
I434
sg862
g3840
sg67
VIS_434
p3859
sbasg80
I429
sg67
g1299
sbsg1408
(iconstruction
TP_SYNFORM
p3860
(dp3861
g80
I430
sg1411
(lp3862
(iconstruction
TP_PHON
p3863
(dp3864
g1421
I6
sg1418
I0
sg80
I435
sg1422
Vpeople
p3865
sg67
g3831
sbasg67
g1299
sbsg1429
I1
sba(iconstruction
CXN
p3866
(dp3867
g1369
(iconstruction
TP_SYMLINKS
p3868
(dp3869
g1372
(dp3870
VN1_440
p3871
VS1_442
p3872
ssg80
I438
sg67
g1299
sbsg1378
VN
p3873
sg1380
I1
sg67
VMOUSE
p3874
sg1382
(iconstruction
TP_SEMFRAME
p3875
(dp3876
g95
g0
(g96
g2
Ntp3877
Rp3878
(dp3879
g100
(dp3880
(iconstruction
TP_NODE
p3881
(dp3882
g1391
I00
sg1392
g802
sg67
g3871
sg1393
I00
sg1394
I00
sg80
I440
sb(dp3883
g1393
I00
sg1392
g802
ss(iconstruction
TP_NODE
p3884
(dp3885
g1391
I01
sg1392
g745
sg67
VENT_439
p3886
sg1393
I01
sg1394
I00
sg80
I439
sb(dp3887
g1393
I01
sg1392
g745
sssg285
g286
sg287
g286
sg288
(dp3888
g3881
(dp3889
sg3884
(dp3890
g3881
(dp3891
g1392
g736
ssssg481
g3888
sg95
(dp3892
sg483
g286
sg484
g3888
sg485
(dp3893
g3881
(dp3894
g3884
g3891
ssg3884
(dp3895
ssbsg578
(lp3896
g3884
ag3881
asg855
(lp3897
(iconstruction
TP_REL
p3898
(dp3899
g861
g3881
sg1392
g736
sg80
I441
sg862
g3884
sg67
VIS_441
p3900
sbasg80
I436
sg67
g1299
sbsg1408
(iconstruction
TP_SYNFORM
p3901
(dp3902
g80
I437
sg1411
(lp3903
(iconstruction
TP_PHON
p3904
(dp3905
g1421
I5
sg1418
I0
sg80
I442
sg1422
Vmouse
p3906
sg67
g3872
sbasg67
g1299
sbsg1429
I1
sba(iconstruction
CXN
p3907
(dp3908
g1369
(iconstruction
TP_SYMLINKS
p3909
(dp3910
g1372
(dp3911
VN1_447
p3912
VS1_449
p3913
ssg80
I445
sg67
g1299
sbsg1378
VN
p3914
sg1380
I1
sg67
VTURTLE
p3915
sg1382
(iconstruction
TP_SEMFRAME
p3916
(dp3917
g95
g0
(g96
g2
Ntp3918
Rp3919
(dp3920
g100
(dp3921
(iconstruction
TP_NODE
p3922
(dp3923
g1391
I01
sg1392
g745
sg67
VENT_446
p3924
sg1393
I01
sg1394
I00
sg80
I446
sb(dp3925
g1393
I01
sg1392
g745
ss(iconstruction
TP_NODE
p3926
(dp3927
g1391
I00
sg1392
g799
sg67
g3912
sg1393
I00
sg1394
I00
sg80
I447
sb(dp3928
g1393
I00
sg1392
g799
sssg285
g286
sg287
g286
sg288
(dp3929
g3922
(dp3930
g3926
(dp3931
g1392
g736
sssg3926
(dp3932
ssg481
g3929
sg95
(dp3933
sg483
g286
sg484
g3929
sg485
(dp3934
g3922
(dp3935
sg3926
(dp3936
g3922
g3931
sssbsg578
(lp3937
g3922
ag3926
asg855
(lp3938
(iconstruction
TP_REL
p3939
(dp3940
g861
g3926
sg1392
g736
sg80
I448
sg862
g3922
sg67
VIS_448
p3941
sbasg80
I443
sg67
g1299
sbsg1408
(iconstruction
TP_SYNFORM
p3942
(dp3943
g80
I444
sg1411
(lp3944
(iconstruction
TP_PHON
p3945
(dp3946
g1421
I6
sg1418
I0
sg80
I449
sg1422
Vturtle
p3947
sg67
g3913
sbasg67
g1299
sbsg1429
I1
sba(iconstruction
CXN
p3948
(dp3949
g1369
(iconstruction
TP_SYMLINKS
p3950
(dp3951
g1372
(dp3952
VN1_454
p3953
VS1_456
p3954
ssg80
I452
sg67
g1299
sbsg1378
VN
p3955
sg1380
I1
sg67
VDRESS
p3956
sg1382
(iconstruction
TP_SEMFRAME
p3957
(dp3958
g95
g0
(g96
g2
Ntp3959
Rp3960
(dp3961
g100
(dp3962
(iconstruction
TP_NODE
p3963
(dp3964
g1391
I00
sg1392
g790
sg67
g3953
sg1393
I00
sg1394
I00
sg80
I454
sb(dp3965
g1393
I00
sg1392
g790
ss(iconstruction
TP_NODE
p3966
(dp3967
g1391
I01
sg1392
g745
sg67
VENT_453
p3968
sg1393
I01
sg1394
I00
sg80
I453
sb(dp3969
g1393
I01
sg1392
g745
sssg285
g286
sg287
g286
sg288
(dp3970
g3963
(dp3971
sg3966
(dp3972
g3963
(dp3973
g1392
g736
ssssg481
g3970
sg95
(dp3974
sg483
g286
sg484
g3970
sg485
(dp3975
g3963
(dp3976
g3966
g3973
ssg3966
(dp3977
ssbsg578
(lp3978
g3966
ag3963
asg855
(lp3979
(iconstruction
TP_REL
p3980
(dp3981
g861
g3963
sg1392
g736
sg80
I455
sg862
g3966
sg67
VIS_455
p3982
sbasg80
I450
sg67
g1299
sbsg1408
(iconstruction
TP_SYNFORM
p3983
(dp3984
g80
I451
sg1411
(lp3985
(iconstruction
TP_PHON
p3986
(dp3987
g1421
I5
sg1418
I0
sg80
I456
sg1422
Vdress
p3988
sg67
g3954
sbasg67
g1299
sbsg1429
I1
sba(iconstruction
CXN
p3989
(dp3990
g1369
(iconstruction
TP_SYMLINKS
p3991
(dp3992
g1372
(dp3993
VN1_461
p3994
VS1_463
p3995
ssg80
I459
sg67
g1299
sbsg1378
VN
p3996
sg1380
I1
sg67
VTSHIRT
p3997
sg1382
(iconstruction
TP_SEMFRAME
p3998
(dp3999
g95
g0
(g96
g2
Ntp4000
Rp4001
(dp4002
g100
(dp4003
(iconstruction
TP_NODE
p4004
(dp4005
g1391
I01
sg1392
g745
sg67
VENT_460
p4006
sg1393
I01
sg1394
I00
sg80
I460
sb(dp4007
g1393
I01
sg1392
g745
ss(iconstruction
TP_NODE
p4008
(dp4009
g1391
I00
sg1392
g787
sg67
g3994
sg1393
I00
sg1394
I00
sg80
I461
sb(dp4010
g1393
I00
sg1392
g787
sssg285
g286
sg287
g286
sg288
(dp4011
g4004
(dp4012
g4008
(dp4013
g1392
g736
sssg4008
(dp4014
ssg481
g4011
sg95
(dp4015
sg483
g286
sg484
g4011
sg485
(dp4016
g4004
(dp4017
sg4008
(dp4018
g4004
g4013
sssbsg578
(lp4019
g4004
ag4008
asg855
(lp4020
(iconstruction
TP_REL
p4021
(dp4022
g861
g4008
sg1392
g736
sg80
I462
sg862
g4004
sg67
VIS_462
p4023
sbasg80
I457
sg67
g1299
sbsg1408
(iconstruction
TP_SYNFORM
p4024
(dp4025
g80
I458
sg1411
(lp4026
(iconstruction
TP_PHON
p4027
(dp4028
g1421
I6
sg1418
I0
sg80
I463
sg1422
Vt-shirt
p4029
sg67
g3995
sbasg67
g1299
sbsg1429
I1
sba(iconstruction
CXN
p4030
(dp4031
g1369
(iconstruction
TP_SYMLINKS
p4032
(dp4033
g1372
(dp4034
VN1_468
p4035
VS2_471
p4036
ssg80
I466
sg67
g1299
sbsg1378
VN
p4037
sg1380
I1
sg67
VBOXINGRING
p4038
sg1382
(iconstruction
TP_SEMFRAME
p4039
(dp4040
g95
g0
(g96
g2
Ntp4041
Rp4042
(dp4043
g100
(dp4044
(iconstruction
TP_NODE
p4045
(dp4046
g1391
I00
sg1392
g844
sg67
g4035
sg1393
I00
sg1394
I00
sg80
I468
sb(dp4047
g1393
I00
sg1392
g844
ss(iconstruction
TP_NODE
p4048
(dp4049
g1391
I01
sg1392
g745
sg67
VENT_467
p4050
sg1393
I01
sg1394
I00
sg80
I467
sb(dp4051
g1393
I01
sg1392
g745
sssg285
g286
sg287
g286
sg288
(dp4052
g4045
(dp4053
sg4048
(dp4054
g4045
(dp4055
g1392
g736
ssssg481
g4052
sg95
(dp4056
sg483
g286
sg484
g4052
sg485
(dp4057
g4045
(dp4058
g4048
g4055
ssg4048
(dp4059
ssbsg578
(lp4060
g4048
ag4045
asg855
(lp4061
(iconstruction
TP_REL
p4062
(dp4063
g861
g4045
sg1392
g736
sg80
I469
sg862
g4048
sg67
VIS_469
p4064
sbasg80
I464
sg67
g1299
sbsg1408
(iconstruction
TP_SYNFORM
p4065
(dp4066
g80
I465
sg1411
(lp4067
(iconstruction
TP_PHON
p4068
(dp4069
g1421
I6
sg1418
I0
sg80
I470
sg1422
Vboxing
p4070
sg67
VS1_470
p4071
sba(iconstruction
TP_PHON
p4072
(dp4073
g1421
I4
sg1418
I1
sg80
I471
sg1422
Vring
p4074
sg67
g4036
sbasg67
g1299
sbsg1429
I1
sba(iconstruction
CXN
p4075
(dp4076
g1369
(iconstruction
TP_SYMLINKS
p4077
(dp4078
g1372
(dp4079
VN1_476
p4080
VS1_478
p4081
ssg80
I474
sg67
g1299
sbsg1378
VN
p4082
sg1380
I1
sg67
VPARK
p4083
sg1382
(iconstruction
TP_SEMFRAME
p4084
(dp4085
g95
g0
(g96
g2
Ntp4086
Rp4087
(dp4088
g100
(dp4089
(iconstruction
TP_NODE
p4090
(dp4091
g1391
I01
sg1392
g745
sg67
VENT_475
p4092
sg1393
I01
sg1394
I00
sg80
I475
sb(dp4093
g1393
I01
sg1392
g745
ss(iconstruction
TP_NODE
p4094
(dp4095
g1391
I00
sg1392
g847
sg67
g4080
sg1393
I00
sg1394
I00
sg80
I476
sb(dp4096
g1393
I00
sg1392
g847
sssg285
g286
sg287
g286
sg288
(dp4097
g4090
(dp4098
g4094
(dp4099
g1392
g736
sssg4094
(dp4100
ssg481
g4097
sg95
(dp4101
sg483
g286
sg484
g4097
sg485
(dp4102
g4090
(dp4103
sg4094
(dp4104
g4090
g4099
sssbsg578
(lp4105
g4090
ag4094
asg855
(lp4106
(iconstruction
TP_REL
p4107
(dp4108
g861
g4094
sg1392
g736
sg80
I477
sg862
g4090
sg67
VIS_477
p4109
sbasg80
I472
sg67
g1299
sbsg1408
(iconstruction
TP_SYNFORM
p4110
(dp4111
g80
I473
sg1411
(lp4112
(iconstruction
TP_PHON
p4113
(dp4114
g1421
I4
sg1418
I0
sg80
I478
sg1422
Vpark
p4115
sg67
g4081
sbasg67
g1299
sbsg1429
I1
sba(iconstruction
CXN
p4116
(dp4117
g1369
(iconstruction
TP_SYMLINKS
p4118
(dp4119
g1372
(dp4120
VN1_483
p4121
VS1_485
p4122
ssg80
I481
sg67
g1299
sbsg1378
VN
p4123
sg1380
I1
sg67
VSHIRT
p4124
sg1382
(iconstruction
TP_SEMFRAME
p4125
(dp4126
g95
g0
(g96
g2
Ntp4127
Rp4128
(dp4129
g100
(dp4130
(iconstruction
TP_NODE
p4131
(dp4132
g1391
I00
sg1392
g793
sg67
g4121
sg1393
I00
sg1394
I00
sg80
I483
sb(dp4133
g1393
I00
sg1392
g793
ss(iconstruction
TP_NODE
p4134
(dp4135
g1391
I01
sg1392
g745
sg67
VENT_482
p4136
sg1393
I01
sg1394
I00
sg80
I482
sb(dp4137
g1393
I01
sg1392
g745
sssg285
g286
sg287
g286
sg288
(dp4138
g4131
(dp4139
sg4134
(dp4140
g4131
(dp4141
g1392
g736
ssssg481
g4138
sg95
(dp4142
sg483
g286
sg484
g4138
sg485
(dp4143
g4131
(dp4144
g4134
g4141
ssg4134
(dp4145
ssbsg578
(lp4146
g4134
ag4131
asg855
(lp4147
(iconstruction
TP_REL
p4148
(dp4149
g861
g4131
sg1392
g736
sg80
I484
sg862
g4134
sg67
VIS_484
p4150
sbasg80
I479
sg67
g1299
sbsg1408
(iconstruction
TP_SYNFORM
p4151
(dp4152
g80
I480
sg1411
(lp4153
(iconstruction
TP_PHON
p4154
(dp4155
g1421
I5
sg1418
I0
sg80
I485
sg1422
Vshirt
p4156
sg67
g4122
sbasg67
g1299
sbsg1429
I1
sba(iconstruction
CXN
p4157
(dp4158
g1369
(iconstruction
TP_SYMLINKS
p4159
(dp4160
g1372
(dp4161
VN1_490
p4162
VS1_492
p4163
ssg80
I488
sg67
g1299
sbsg1378
VN
p4164
sg1380
I1
sg67
VSUIT
p4165
sg1382
(iconstruction
TP_SEMFRAME
p4166
(dp4167
g95
g0
(g96
g2
Ntp4168
Rp4169
(dp4170
g100
(dp4171
(iconstruction
TP_NODE
p4172
(dp4173
g1391
I01
sg1392
g745
sg67
VENT_489
p4174
sg1393
I01
sg1394
I00
sg80
I489
sb(dp4175
g1393
I01
sg1392
g745
ss(iconstruction
TP_NODE
p4176
(dp4177
g1391
I00
sg1392
g796
sg67
g4162
sg1393
I00
sg1394
I00
sg80
I490
sb(dp4178
g1393
I00
sg1392
g796
sssg285
g286
sg287
g286
sg288
(dp4179
g4172
(dp4180
g4176
(dp4181
g1392
g736
sssg4176
(dp4182
ssg481
g4179
sg95
(dp4183
sg483
g286
sg484
g4179
sg485
(dp4184
g4172
(dp4185
sg4176
(dp4186
g4172
g4181
sssbsg578
(lp4187
g4172
ag4176
asg855
(lp4188
(iconstruction
TP_REL
p4189
(dp4190
g861
g4176
sg1392
g736
sg80
I491
sg862
g4172
sg67
VIS_491
p4191
sbasg80
I486
sg67
g1299
sbsg1408
(iconstruction
TP_SYNFORM
p4192
(dp4193
g80
I487
sg1411
(lp4194
(iconstruction
TP_PHON
p4195
(dp4196
g1421
I4
sg1418
I0
sg80
I492
sg1422
Vsuit
p4197
sg67
g4163
sbasg67
g1299
sbsg1429
I1
sba(iconstruction
CXN
p4198
(dp4199
g1369
(iconstruction
TP_SYMLINKS
p4200
(dp4201
g1372
(dp4202
VN1_497
p4203
VS1_499
p4204
ssg80
I495
sg67
g1299
sbsg1378
VN
p4205
sg1380
I1
sg67
VCELLO
p4206
sg1382
(iconstruction
TP_SEMFRAME
p4207
(dp4208
g95
g0
(g96
g2
Ntp4209
Rp4210
(dp4211
g100
(dp4212
(iconstruction
TP_NODE
p4213
(dp4214
g1391
I00
sg1392
g778
sg67
g4203
sg1393
I00
sg1394
I00
sg80
I497
sb(dp4215
g1393
I00
sg1392
g778
ss(iconstruction
TP_NODE
p4216
(dp4217
g1391
I01
sg1392
g745
sg67
VENT_496
p4218
sg1393
I01
sg1394
I00
sg80
I496
sb(dp4219
g1393
I01
sg1392
g745
sssg285
g286
sg287
g286
sg288
(dp4220
g4213
(dp4221
sg4216
(dp4222
g4213
(dp4223
g1392
g736
ssssg481
g4220
sg95
(dp4224
sg483
g286
sg484
g4220
sg485
(dp4225
g4213
(dp4226
g4216
g4223
ssg4216
(dp4227
ssbsg578
(lp4228
g4216
ag4213
asg855
(lp4229
(iconstruction
TP_REL
p4230
(dp4231
g861
g4213
sg1392
g736
sg80
I498
sg862
g4216
sg67
VIS_498
p4232
sbasg80
I493
sg67
g1299
sbsg1408
(iconstruction
TP_SYNFORM
p4233
(dp4234
g80
I494
sg1411
(lp4235
(iconstruction
TP_PHON
p4236
(dp4237
g1421
I5
sg1418
I0
sg80
I499
sg1422
VCELLO
p4238
sg67
g4204
sbasg67
g1299
sbsg1429
I1
sba(iconstruction
CXN
p4239
(dp4240
g1369
(iconstruction
TP_SYMLINKS
p4241
(dp4242
g1372
(dp4243
VN1_504
p4244
VS1_506
p4245
ssg80
I502
sg67
g1299
sbsg1378
VN
p4246
sg1380
I1
sg67
VBAG
p4247
sg1382
(iconstruction
TP_SEMFRAME
p4248
(dp4249
g95
g0
(g96
g2
Ntp4250
Rp4251
(dp4252
g100
(dp4253
(iconstruction
TP_NODE
p4254
(dp4255
g1391
I01
sg1392
g745
sg67
VENT_503
p4256
sg1393
I01
sg1394
I00
sg80
I503
sb(dp4257
g1393
I01
sg1392
g745
ss(iconstruction
TP_NODE
p4258
(dp4259
g1391
I00
sg1392
g769
sg67
g4244
sg1393
I00
sg1394
I00
sg80
I504
sb(dp4260
g1393
I00
sg1392
g769
sssg285
g286
sg287
g286
sg288
(dp4261
g4254
(dp4262
g4258
(dp4263
g1392
g736
sssg4258
(dp4264
ssg481
g4261
sg95
(dp4265
sg483
g286
sg484
g4261
sg485
(dp4266
g4254
(dp4267
sg4258
(dp4268
g4254
g4263
sssbsg578
(lp4269
g4254
ag4258
asg855
(lp4270
(iconstruction
TP_REL
p4271
(dp4272
g861
g4258
sg1392
g736
sg80
I505
sg862
g4254
sg67
VIS_505
p4273
sbasg80
I500
sg67
g1299
sbsg1408
(iconstruction
TP_SYNFORM
p4274
(dp4275
g80
I501
sg1411
(lp4276
(iconstruction
TP_PHON
p4277
(dp4278
g1421
I3
sg1418
I0
sg80
I506
sg1422
Vbag
p4279
sg67
g4245
sbasg67
g1299
sbsg1429
I1
sba(iconstruction
CXN
p4280
(dp4281
g1369
(iconstruction
TP_SYMLINKS
p4282
(dp4283
g1372
(dp4284
VN1_511
p4285
VS2_514
p4286
ssg80
I509
sg67
g1299
sbsg1378
VN
p4287
sg1380
I1
sg67
VWATERING_CAN
p4288
sg1382
(iconstruction
TP_SEMFRAME
p4289
(dp4290
g95
g0
(g96
g2
Ntp4291
Rp4292
(dp4293
g100
(dp4294
(iconstruction
TP_NODE
p4295
(dp4296
g1391
I01
sg1392
g745
sg67
VENT_510
p4297
sg1393
I01
sg1394
I00
sg80
I510
sb(dp4298
g1393
I01
sg1392
g745
ss(iconstruction
TP_NODE
p4299
(dp4300
g1391
I00
sg1392
g766
sg67
g4285
sg1393
I00
sg1394
I00
sg80
I511
sb(dp4301
g1393
I00
sg1392
g766
sssg285
g286
sg287
g286
sg288
(dp4302
g4295
(dp4303
g4299
(dp4304
g1392
g736
sssg4299
(dp4305
ssg481
g4302
sg95
(dp4306
sg483
g286
sg484
g4302
sg485
(dp4307
g4295
(dp4308
sg4299
(dp4309
g4295
g4304
sssbsg578
(lp4310
g4295
ag4299
asg855
(lp4311
(iconstruction
TP_REL
p4312
(dp4313
g861
g4299
sg1392
g736
sg80
I512
sg862
g4295
sg67
VIS_512
p4314
sbasg80
I507
sg67
g1299
sbsg1408
(iconstruction
TP_SYNFORM
p4315
(dp4316
g80
I508
sg1411
(lp4317
(iconstruction
TP_PHON
p4318
(dp4319
g1421
I8
sg1418
I0
sg80
I513
sg1422
Vwatering
p4320
sg67
VS1_513
p4321
sba(iconstruction
TP_PHON
p4322
(dp4323
g1421
I3
sg1418
I1
sg80
I514
sg1422
Vcan
p4324
sg67
g4286
sbasg67
g1299
sbsg1429
I1
sba(iconstruction
CXN
p4325
(dp4326
g1369
(iconstruction
TP_SYMLINKS
p4327
(dp4328
g1372
(dp4329
VN1_519
p4330
VS1_521
p4331
ssg80
I517
sg67
g1299
sbsg1378
VN
p4332
sg1380
I1
sg67
VBALLERINA
p4333
sg1382
(iconstruction
TP_SEMFRAME
p4334
(dp4335
g95
g0
(g96
g2
Ntp4336
Rp4337
(dp4338
g100
(dp4339
(iconstruction
TP_NODE
p4340
(dp4341
g1391
I01
sg1392
g745
sg67
VENT_518
p4342
sg1393
I01
sg1394
I00
sg80
I518
sb(dp4343
g1393
I01
sg1392
g745
ss(iconstruction
TP_NODE
p4344
(dp4345
g1391
I00
sg1392
g823
sg67
g4330
sg1393
I00
sg1394
I00
sg80
I519
sb(dp4346
g1393
I00
sg1392
g823
sssg285
g286
sg287
g286
sg288
(dp4347
g4340
(dp4348
g4344
(dp4349
g1392
g736
sssg4344
(dp4350
ssg481
g4347
sg95
(dp4351
sg483
g286
sg484
g4347
sg485
(dp4352
g4340
(dp4353
sg4344
(dp4354
g4340
g4349
sssbsg578
(lp4355
g4340
ag4344
asg855
(lp4356
(iconstruction
TP_REL
p4357
(dp4358
g861
g4344
sg1392
g736
sg80
I520
sg862
g4340
sg67
VIS_520
p4359
sbasg80
I515
sg67
g1299
sbsg1408
(iconstruction
TP_SYNFORM
p4360
(dp4361
g80
I516
sg1411
(lp4362
(iconstruction
TP_PHON
p4363
(dp4364
g1421
I9
sg1418
I0
sg80
I521
sg1422
Vballerina
p4365
sg67
g4331
sbasg67
g1299
sbsg1429
I1
sba(iconstruction
CXN
p4366
(dp4367
g1369
(iconstruction
TP_SYMLINKS
p4368
(dp4369
g1372
(dp4370
VN1_526
p4371
VS1_528
p4372
ssg80
I524
sg67
g1299
sbsg1378
VN
p4373
sg1380
I1
sg67
VCELLIST
p4374
sg1382
(iconstruction
TP_SEMFRAME
p4375
(dp4376
g95
g0
(g96
g2
Ntp4377
Rp4378
(dp4379
g100
(dp4380
(iconstruction
TP_NODE
p4381
(dp4382
g1391
I00
sg1392
g826
sg67
g4371
sg1393
I00
sg1394
I00
sg80
I526
sb(dp4383
g1393
I00
sg1392
g826
ss(iconstruction
TP_NODE
p4384
(dp4385
g1391
I01
sg1392
g745
sg67
VENT_525
p4386
sg1393
I01
sg1394
I00
sg80
I525
sb(dp4387
g1393
I01
sg1392
g745
sssg285
g286
sg287
g286
sg288
(dp4388
g4381
(dp4389
sg4384
(dp4390
g4381
(dp4391
g1392
g736
ssssg481
g4388
sg95
(dp4392
sg483
g286
sg484
g4388
sg485
(dp4393
g4381
(dp4394
g4384
g4391
ssg4384
(dp4395
ssbsg578
(lp4396
g4384
ag4381
asg855
(lp4397
(iconstruction
TP_REL
p4398
(dp4399
g861
g4381
sg1392
g736
sg80
I527
sg862
g4384
sg67
VIS_527
p4400
sbasg80
I522
sg67
g1299
sbsg1408
(iconstruction
TP_SYNFORM
p4401
(dp4402
g80
I523
sg1411
(lp4403
(iconstruction
TP_PHON
p4404
(dp4405
g1421
I7
sg1418
I0
sg80
I528
sg1422
Vcellist
p4406
sg67
g4372
sbasg67
g1299
sbsg1429
I1
sba(iconstruction
CXN
p4407
(dp4408
g1369
(iconstruction
TP_SYMLINKS
p4409
(dp4410
g1372
(dp4411
VN1_533
p4412
VS1_535
p4413
ssg80
I531
sg67
g1299
sbsg1378
VN
p4414
sg1380
I1
sg67
VFENCER
p4415
sg1382
(iconstruction
TP_SEMFRAME
p4416
(dp4417
g95
g0
(g96
g2
Ntp4418
Rp4419
(dp4420
g100
(dp4421
(iconstruction
TP_NODE
p4422
(dp4423
g1391
I01
sg1392
g745
sg67
VENT_532
p4424
sg1393
I01
sg1394
I00
sg80
I532
sb(dp4425
g1393
I01
sg1392
g745
ss(iconstruction
TP_NODE
p4426
(dp4427
g1391
I00
sg1392
g832
sg67
g4412
sg1393
I00
sg1394
I00
sg80
I533
sb(dp4428
g1393
I00
sg1392
g832
sssg285
g286
sg287
g286
sg288
(dp4429
g4422
(dp4430
g4426
(dp4431
g1392
g736
sssg4426
(dp4432
ssg481
g4429
sg95
(dp4433
sg483
g286
sg484
g4429
sg485
(dp4434
g4422
(dp4435
sg4426
(dp4436
g4422
g4431
sssbsg578
(lp4437
g4422
ag4426
asg855
(lp4438
(iconstruction
TP_REL
p4439
(dp4440
g861
g4426
sg1392
g736
sg80
I534
sg862
g4422
sg67
VIS_534
p4441
sbasg80
I529
sg67
g1299
sbsg1408
(iconstruction
TP_SYNFORM
p4442
(dp4443
g80
I530
sg1411
(lp4444
(iconstruction
TP_PHON
p4445
(dp4446
g1421
I6
sg1418
I0
sg80
I535
sg1422
Vfencer
p4447
sg67
g4413
sbasg67
g1299
sbsg1429
I1
sba(iconstruction
CXN
p4448
(dp4449
g1369
(iconstruction
TP_SYMLINKS
p4450
(dp4451
g1372
(dp4452
VN1_540
p4453
VS1_542
p4454
ssg80
I538
sg67
g1299
sbsg1378
VN
p4455
sg1380
I1
sg67
VROBBER
p4456
sg1382
(iconstruction
TP_SEMFRAME
p4457
(dp4458
g95
g0
(g96
g2
Ntp4459
Rp4460
(dp4461
g100
(dp4462
(iconstruction
TP_NODE
p4463
(dp4464
g1391
I00
sg1392
g835
sg67
g4453
sg1393
I00
sg1394
I00
sg80
I540
sb(dp4465
g1393
I00
sg1392
g835
ss(iconstruction
TP_NODE
p4466
(dp4467
g1391
I01
sg1392
g745
sg67
VENT_539
p4468
sg1393
I01
sg1394
I00
sg80
I539
sb(dp4469
g1393
I01
sg1392
g745
sssg285
g286
sg287
g286
sg288
(dp4470
g4463
(dp4471
sg4466
(dp4472
g4463
(dp4473
g1392
g736
ssssg481
g4470
sg95
(dp4474
sg483
g286
sg484
g4470
sg485
(dp4475
g4463
(dp4476
g4466
g4473
ssg4466
(dp4477
ssbsg578
(lp4478
g4466
ag4463
asg855
(lp4479
(iconstruction
TP_REL
p4480
(dp4481
g861
g4463
sg1392
g736
sg80
I541
sg862
g4466
sg67
VIS_541
p4482
sbasg80
I536
sg67
g1299
sbsg1408
(iconstruction
TP_SYNFORM
p4483
(dp4484
g80
I537
sg1411
(lp4485
(iconstruction
TP_PHON
p4486
(dp4487
g1421
I5
sg1418
I0
sg80
I542
sg1422
Vthief
p4488
sg67
g4454
sbasg67
g1299
sbsg1429
I1
sba(iconstruction
CXN
p4489
(dp4490
g1369
(iconstruction
TP_SYMLINKS
p4491
(dp4492
g1372
(dp4493
VN1_547
p4494
VS1_549
p4495
ssg80
I545
sg67
g1299
sbsg1378
VN
p4496
sg1380
I1
sg67
VPOLICEMAN
p4497
sg1382
(iconstruction
TP_SEMFRAME
p4498
(dp4499
g95
g0
(g96
g2
Ntp4500
Rp4501
(dp4502
g100
(dp4503
(iconstruction
TP_NODE
p4504
(dp4505
g1391
I01
sg1392
g745
sg67
VENT_546
p4506
sg1393
I01
sg1394
I00
sg80
I546
sb(dp4507
g1393
I01
sg1392
g745
ss(iconstruction
TP_NODE
p4508
(dp4509
g1391
I00
sg1392
g817
sg67
g4494
sg1393
I00
sg1394
I00
sg80
I547
sb(dp4510
g1393
I00
sg1392
g817
sssg285
g286
sg287
g286
sg288
(dp4511
g4504
(dp4512
g4508
(dp4513
g1392
g736
sssg4508
(dp4514
ssg481
g4511
sg95
(dp4515
sg483
g286
sg484
g4511
sg485
(dp4516
g4504
(dp4517
sg4508
(dp4518
g4504
g4513
sssbsg578
(lp4519
g4504
ag4508
asg855
(lp4520
(iconstruction
TP_REL
p4521
(dp4522
g861
g4508
sg1392
g736
sg80
I548
sg862
g4504
sg67
VIS_548
p4523
sbasg80
I543
sg67
g1299
sbsg1408
(iconstruction
TP_SYNFORM
p4524
(dp4525
g80
I544
sg1411
(lp4526
(iconstruction
TP_PHON
p4527
(dp4528
g1421
I9
sg1418
I0
sg80
I549
sg1422
Vpoliceman
p4529
sg67
g4495
sbasg67
g1299
sbsg1429
I1
sba(iconstruction
CXN
p4530
(dp4531
g1369
(iconstruction
TP_SYMLINKS
p4532
(dp4533
g1372
(dp4534
VN1_554
p4535
VS1_556
p4536
ssg80
I552
sg67
g1299
sbsg1378
VN
p4537
sg1380
I1
sg67
VHUNTER
p4538
sg1382
(iconstruction
TP_SEMFRAME
p4539
(dp4540
g95
g0
(g96
g2
Ntp4541
Rp4542
(dp4543
g100
(dp4544
(iconstruction
TP_NODE
p4545
(dp4546
g1391
I01
sg1392
g745
sg67
VENT_553
p4547
sg1393
I01
sg1394
I00
sg80
I553
sb(dp4548
g1393
I01
sg1392
g745
ss(iconstruction
TP_NODE
p4549
(dp4550
g1391
I00
sg1392
g820
sg67
g4535
sg1393
I00
sg1394
I00
sg80
I554
sb(dp4551
g1393
I00
sg1392
g820
sssg285
g286
sg287
g286
sg288
(dp4552
g4545
(dp4553
g4549
(dp4554
g1392
g736
sssg4549
(dp4555
ssg481
g4552
sg95
(dp4556
sg483
g286
sg484
g4552
sg485
(dp4557
g4545
(dp4558
sg4549
(dp4559
g4545
g4554
sssbsg578
(lp4560
g4545
ag4549
asg855
(lp4561
(iconstruction
TP_REL
p4562
(dp4563
g861
g4549
sg1392
g736
sg80
I555
sg862
g4545
sg67
VIS_555
p4564
sbasg80
I550
sg67
g1299
sbsg1408
(iconstruction
TP_SYNFORM
p4565
(dp4566
g80
I551
sg1411
(lp4567
(iconstruction
TP_PHON
p4568
(dp4569
g1421
I6
sg1418
I0
sg80
I556
sg1422
Vhunter
p4570
sg67
g4536
sbasg67
g1299
sbsg1429
I1
sba(iconstruction
CXN
p4571
(dp4572
g1369
(iconstruction
TP_SYMLINKS
p4573
(dp4574
g1372
(dp4575
VN1_561
p4576
VS1_563
p4577
ssg80
I559
sg67
g1299
sbsg1378
VN
p4578
sg1380
I1
sg67
VDOG
p4579
sg1382
(iconstruction
TP_SEMFRAME
p4580
(dp4581
g95
g0
(g96
g2
Ntp4582
Rp4583
(dp4584
g100
(dp4585
(iconstruction
TP_NODE
p4586
(dp4587
g1391
I00
sg1392
g805
sg67
g4576
sg1393
I00
sg1394
I00
sg80
I561
sb(dp4588
g1393
I00
sg1392
g805
ss(iconstruction
TP_NODE
p4589
(dp4590
g1391
I01
sg1392
g745
sg67
VENT_560
p4591
sg1393
I01
sg1394
I00
sg80
I560
sb(dp4592
g1393
I01
sg1392
g745
sssg285
g286
sg287
g286
sg288
(dp4593
g4586
(dp4594
sg4589
(dp4595
g4586
(dp4596
g1392
g736
ssssg481
g4593
sg95
(dp4597
sg483
g286
sg484
g4593
sg485
(dp4598
g4586
(dp4599
g4589
g4596
ssg4589
(dp4600
ssbsg578
(lp4601
g4589
ag4586
asg855
(lp4602
(iconstruction
TP_REL
p4603
(dp4604
g861
g4586
sg1392
g736
sg80
I562
sg862
g4589
sg67
VIS_562
p4605
sbasg80
I557
sg67
g1299
sbsg1408
(iconstruction
TP_SYNFORM
p4606
(dp4607
g80
I558
sg1411
(lp4608
(iconstruction
TP_PHON
p4609
(dp4610
g1421
I3
sg1418
I0
sg80
I563
sg1422
Vdog
p4611
sg67
g4577
sbasg67
g1299
sbsg1429
I1
sba(iconstruction
CXN
p4612
(dp4613
g1369
(iconstruction
TP_SYMLINKS
p4614
(dp4615
g1372
(dp4616
VN1_568
p4617
VS1_570
p4618
ssg80
I566
sg67
g1299
sbsg1378
VN
p4619
sg1380
I1
sg67
VHOOK
p4620
sg1382
(iconstruction
TP_SEMFRAME
p4621
(dp4622
g95
g0
(g96
g2
Ntp4623
Rp4624
(dp4625
g100
(dp4626
(iconstruction
TP_NODE
p4627
(dp4628
g1391
I01
sg1392
g745
sg67
VENT_567
p4629
sg1393
I01
sg1394
I00
sg80
I567
sb(dp4630
g1393
I01
sg1392
g745
ss(iconstruction
TP_NODE
p4631
(dp4632
g1391
I00
sg1392
g775
sg67
g4617
sg1393
I00
sg1394
I00
sg80
I568
sb(dp4633
g1393
I00
sg1392
g775
sssg285
g286
sg287
g286
sg288
(dp4634
g4627
(dp4635
g4631
(dp4636
g1392
g736
sssg4631
(dp4637
ssg481
g4634
sg95
(dp4638
sg483
g286
sg484
g4634
sg485
(dp4639
g4627
(dp4640
sg4631
(dp4641
g4627
g4636
sssbsg578
(lp4642
g4627
ag4631
asg855
(lp4643
(iconstruction
TP_REL
p4644
(dp4645
g861
g4631
sg1392
g736
sg80
I569
sg862
g4627
sg67
VIS_569
p4646
sbasg80
I564
sg67
g1299
sbsg1408
(iconstruction
TP_SYNFORM
p4647
(dp4648
g80
I565
sg1411
(lp4649
(iconstruction
TP_PHON
p4650
(dp4651
g1421
I4
sg1418
I0
sg80
I570
sg1422
Vhook
p4652
sg67
g4618
sbasg67
g1299
sbsg1429
I1
sba(iconstruction
CXN
p4653
(dp4654
g1369
(iconstruction
TP_SYMLINKS
p4655
(dp4656
g1372
(dp4657
VN1_575
p4658
VS1_577
p4659
ssg80
I573
sg67
g1299
sbsg1378
VN
p4660
sg1380
I1
sg67
VBOOKSHELF
p4661
sg1382
(iconstruction
TP_SEMFRAME
p4662
(dp4663
g95
g0
(g96
g2
Ntp4664
Rp4665
(dp4666
g100
(dp4667
(iconstruction
TP_NODE
p4668
(dp4669
g1391
I00
sg1392
g781
sg67
g4658
sg1393
I00
sg1394
I00
sg80
I575
sb(dp4670
g1393
I00
sg1392
g781
ss(iconstruction
TP_NODE
p4671
(dp4672
g1391
I01
sg1392
g745
sg67
VENT_574
p4673
sg1393
I01
sg1394
I00
sg80
I574
sb(dp4674
g1393
I01
sg1392
g745
sssg285
g286
sg287
g286
sg288
(dp4675
g4668
(dp4676
sg4671
(dp4677
g4668
(dp4678
g1392
g736
ssssg481
g4675
sg95
(dp4679
sg483
g286
sg484
g4675
sg485
(dp4680
g4668
(dp4681
g4671
g4678
ssg4671
(dp4682
ssbsg578
(lp4683
g4671
ag4668
asg855
(lp4684
(iconstruction
TP_REL
p4685
(dp4686
g861
g4668
sg1392
g736
sg80
I576
sg862
g4671
sg67
VIS_576
p4687
sbasg80
I571
sg67
g1299
sbsg1408
(iconstruction
TP_SYNFORM
p4688
(dp4689
g80
I572
sg1411
(lp4690
(iconstruction
TP_PHON
p4691
(dp4692
g1421
I9
sg1418
I0
sg80
I577
sg1422
Vbookshelf
p4693
sg67
g4659
sbasg67
g1299
sbsg1429
I1
sba(iconstruction
CXN
p4694
(dp4695
g1369
(iconstruction
TP_SYMLINKS
p4696
(dp4697
g1372
(dp4698
VN1_582
p4699
VS1_584
p4700
ssg80
I580
sg67
g1299
sbsg1378
VN
p4701
sg1380
I1
sg67
VWAGON
p4702
sg1382
(iconstruction
TP_SEMFRAME
p4703
(dp4704
g95
g0
(g96
g2
Ntp4705
Rp4706
(dp4707
g100
(dp4708
(iconstruction
TP_NODE
p4709
(dp4710
g1391
I01
sg1392
g745
sg67
VENT_581
p4711
sg1393
I01
sg1394
I00
sg80
I581
sb(dp4712
g1393
I01
sg1392
g745
ss(iconstruction
TP_NODE
p4713
(dp4714
g1391
I00
sg1392
g763
sg67
g4699
sg1393
I00
sg1394
I00
sg80
I582
sb(dp4715
g1393
I00
sg1392
g763
sssg285
g286
sg287
g286
sg288
(dp4716
g4709
(dp4717
g4713
(dp4718
g1392
g736
sssg4713
(dp4719
ssg481
g4716
sg95
(dp4720
sg483
g286
sg484
g4716
sg485
(dp4721
g4709
(dp4722
sg4713
(dp4723
g4709
g4718
sssbsg578
(lp4724
g4709
ag4713
asg855
(lp4725
(iconstruction
TP_REL
p4726
(dp4727
g861
g4713
sg1392
g736
sg80
I583
sg862
g4709
sg67
VIS_583
p4728
sbasg80
I578
sg67
g1299
sbsg1408
(iconstruction
TP_SYNFORM
p4729
(dp4730
g80
I579
sg1411
(lp4731
(iconstruction
TP_PHON
p4732
(dp4733
g1421
I5
sg1418
I0
sg80
I584
sg1422
Vwagon
p4734
sg67
g4700
sbasg67
g1299
sbsg1429
I1
sba(iconstruction
CXN
p4735
(dp4736
g1369
(iconstruction
TP_SYMLINKS
p4737
(dp4738
g1372
(dp4739
VN1_589
p4740
VS1_591
p4741
ssg80
I587
sg67
g1299
sbsg1378
VN
p4742
sg1380
I1
sg67
VTREE
p4743
sg1382
(iconstruction
TP_SEMFRAME
p4744
(dp4745
g95
g0
(g96
g2
Ntp4746
Rp4747
(dp4748
g100
(dp4749
(iconstruction
TP_NODE
p4750
(dp4751
g1391
I00
sg1392
g772
sg67
g4740
sg1393
I00
sg1394
I00
sg80
I589
sb(dp4752
g1393
I00
sg1392
g772
ss(iconstruction
TP_NODE
p4753
(dp4754
g1391
I01
sg1392
g745
sg67
VENT_588
p4755
sg1393
I01
sg1394
I00
sg80
I588
sb(dp4756
g1393
I01
sg1392
g745
sssg285
g286
sg287
g286
sg288
(dp4757
g4750
(dp4758
sg4753
(dp4759
g4750
(dp4760
g1392
g736
ssssg481
g4757
sg95
(dp4761
sg483
g286
sg484
g4757
sg485
(dp4762
g4750
(dp4763
g4753
g4760
ssg4753
(dp4764
ssbsg578
(lp4765
g4753
ag4750
asg855
(lp4766
(iconstruction
TP_REL
p4767
(dp4768
g861
g4750
sg1392
g736
sg80
I590
sg862
g4753
sg67
VIS_590
p4769
sbasg80
I585
sg67
g1299
sbsg1408
(iconstruction
TP_SYNFORM
p4770
(dp4771
g80
I586
sg1411
(lp4772
(iconstruction
TP_PHON
p4773
(dp4774
g1421
I4
sg1418
I0
sg80
I591
sg1422
Vtree
p4775
sg67
g4741
sbasg67
g1299
sbsg1429
I1
sbasbsg67
g1312
sg69
(lp4776
g1355
ag0
(g71
g2
Ntp4777
Rp4778
(dp4779
g67
S'to_cxn_retrieval_C'
p4780
sg76
Nsg77
Nsg78
g79
sg80
I21
sg81
g1359
sbasg86
(dp4781
g1208
Nsg4780
Nssg88
(lp4782
sg1158
F1.0
sg1159
(lp4783
sg1161
(dp4784
g1163
F0.3
ssg1164
F0.0
sg1165
F0.0
sg1166
g1169
sg80
I4
sS'schemas'
p4785
(lp4786
g0
(clanguage_schemas
CXN_SCHEMA
p4787
g2
Ntp4788
Rp4789
(dp4790
g67
g1381
sS'content'
p4791
g1367
sg1166
Nsg80
I99
sS'LTM'
p4792
g1359
sg1163
F0.3
sbag0
(g4787
g2
Ntp4793
Rp4794
(dp4795
g67
g1440
sg4791
g1430
sg1166
Nsg80
I100
sg4792
g1359
sg1163
F0.3
sbag0
(g4787
g2
Ntp4796
Rp4797
(dp4798
g67
g1491
sg4791
g1481
sg1166
Nsg80
I101
sg4792
g1359
sg1163
F0.3
sbag0
(g4787
g2
Ntp4799
Rp4800
(dp4801
g67
g1544
sg4791
g1532
sg1166
Nsg80
I102
sg4792
g1359
sg1163
F0.3
sbag0
(g4787
g2
Ntp4802
Rp4803
(dp4804
g67
g1623
sg4791
g1611
sg1166
Nsg80
I103
sg4792
g1359
sg1163
F0.3
sbag0
(g4787
g2
Ntp4805
Rp4806
(dp4807
g67
g1698
sg4791
g1686
sg1166
Nsg80
I104
sg4792
g1359
sg1163
F0.3
sbag0
(g4787
g2
Ntp4808
Rp4809
(dp4810
g67
g1787
sg4791
g1773
sg1166
Nsg80
I105
sg4792
g1359
sg1163
F0.3
sbag0
(g4787
g2
Ntp4811
Rp4812
(dp4813
g67
g1878
sg4791
g1864
sg1166
Nsg80
I106
sg4792
g1359
sg1163
F0.3
sbag0
(g4787
g2
Ntp4814
Rp4815
(dp4816
g67
g1969
sg4791
g1959
sg1166
Nsg80
I107
sg4792
g1359
sg1163
F0.3
sbag0
(g4787
g2
Ntp4817
Rp4818
(dp4819
g67
g2031
sg4791
g2021
sg1166
Nsg80
I108
sg4792
g1359
sg1163
F0.3
sbag0
(g4787
g2
Ntp4820
Rp4821
(dp4822
g67
g2090
sg4791
g2080
sg1166
Nsg80
I109
sg4792
g1359
sg1163
F0.3
sbag0
(g4787
g2
Ntp4823
Rp4824
(dp4825
g67
g2142
sg4791
g2132
sg1166
Nsg80
I110
sg4792
g1359
sg1163
F0.3
sbag0
(g4787
g2
Ntp4826
Rp4827
(dp4828
g67
g2189
sg4791
g2179
sg1166
Nsg80
I111
sg4792
g1359
sg1163
F0.3
sbag0
(g4787
g2
Ntp4829
Rp4830
(dp4831
g67
g2238
sg4791
g2226
sg1166
Nsg80
I112
sg4792
g1359
sg1163
F0.3
sbag0
(g4787
g2
Ntp4832
Rp4833
(dp4834
g67
g2318
sg4791
g2308
sg1166
Nsg80
I113
sg4792
g1359
sg1163
F0.3
sbag0
(g4787
g2
Ntp4835
Rp4836
(dp4837
g67
g2386
sg4791
g2374
sg1166
Nsg80
I114
sg4792
g1359
sg1163
F0.3
sbag0
(g4787
g2
Ntp4838
Rp4839
(dp4840
g67
g2480
sg4791
g2468
sg1166
Nsg80
I115
sg4792
g1359
sg1163
F0.3
sbag0
(g4787
g2
Ntp4841
Rp4842
(dp4843
g67
g2562
sg4791
g2550
sg1166
Nsg80
I116
sg4792
g1359
sg1163
F0.3
sbag0
(g4787
g2
Ntp4844
Rp4845
(dp4846
g67
g2654
sg4791
g2644
sg1166
Nsg80
I117
sg4792
g1359
sg1163
F0.3
sbag0
(g4787
g2
Ntp4847
Rp4848
(dp4849
g67
g2719
sg4791
g2709
sg1166
Nsg80
I118
sg4792
g1359
sg1163
F0.3
sbag0
(g4787
g2
Ntp4850
Rp4851
(dp4852
g67
g2798
sg4791
g2790
sg1166
Nsg80
I119
sg4792
g1359
sg1163
F0.3
sbag0
(g4787
g2
Ntp4853
Rp4854
(dp4855
g67
g2839
sg4791
g2831
sg1166
Nsg80
I120
sg4792
g1359
sg1163
F0.3
sbag0
(g4787
g2
Ntp4856
Rp4857
(dp4858
g67
g2880
sg4791
g2872
sg1166
Nsg80
I121
sg4792
g1359
sg1163
F0.3
sbag0
(g4787
g2
Ntp4859
Rp4860
(dp4861
g67
g2921
sg4791
g2913
sg1166
Nsg80
I122
sg4792
g1359
sg1163
F0.3
sbag0
(g4787
g2
Ntp4862
Rp4863
(dp4864
g67
g2962
sg4791
g2954
sg1166
Nsg80
I123
sg4792
g1359
sg1163
F0.3
sbag0
(g4787
g2
Ntp4865
Rp4866
(dp4867
g67
g3003
sg4791
g2995
sg1166
Nsg80
I124
sg4792
g1359
sg1163
F0.3
sbag0
(g4787
g2
Ntp4868
Rp4869
(dp4870
g67
g3044
sg4791
g3036
sg1166
Nsg80
I125
sg4792
g1359
sg1163
F0.3
sbag0
(g4787
g2
Ntp4871
Rp4872
(dp4873
g67
g3089
sg4791
g3081
sg1166
Nsg80
I126
sg4792
g1359
sg1163
F0.3
sbag0
(g4787
g2
Ntp4874
Rp4875
(dp4876
g67
g3134
sg4791
g3126
sg1166
Nsg80
I127
sg4792
g1359
sg1163
F0.3
sbag0
(g4787
g2
Ntp4877
Rp4878
(dp4879
g67
g3175
sg4791
g3167
sg1166
Nsg80
I128
sg4792
g1359
sg1163
F0.3
sbag0
(g4787
g2
Ntp4880
Rp4881
(dp4882
g67
g3216
sg4791
g3208
sg1166
Nsg80
I129
sg4792
g1359
sg1163
F0.3
sbag0
(g4787
g2
Ntp4883
Rp4884
(dp4885
g67
g3257
sg4791
g3249
sg1166
Nsg80
I130
sg4792
g1359
sg1163
F0.3
sbag0
(g4787
g2
Ntp4886
Rp4887
(dp4888
g67
g3298
sg4791
g3290
sg1166
Nsg80
I131
sg4792
g1359
sg1163
F0.3
sbag0
(g4787
g2
Ntp4889
Rp4890
(dp4891
g67
g3339
sg4791
g3331
sg1166
Nsg80
I132
sg4792
g1359
sg1163
F0.3
sbag0
(g4787
g2
Ntp4892
Rp4893
(dp4894
g67
g3380
sg4791
g3372
sg1166
Nsg80
I133
sg4792
g1359
sg1163
F0.3
sbag0
(g4787
g2
Ntp4895
Rp4896
(dp4897
g67
g3411
sg4791
g3403
sg1166
Nsg80
I134
sg4792
g1359
sg1163
F0.3
sbag0
(g4787
g2
Ntp4898
Rp4899
(dp4900
g67
g3442
sg4791
g3434
sg1166
Nsg80
I135
sg4792
g1359
sg1163
F0.3
sbag0
(g4787
g2
Ntp4901
Rp4902
(dp4903
g67
g3473
sg4791
g3465
sg1166
Nsg80
I136
sg4792
g1359
sg1163
F0.3
sbag0
(g4787
g2
Ntp4904
Rp4905
(dp4906
g67
g3504
sg4791
g3496
sg1166
Nsg80
I137
sg4792
g1359
sg1163
F0.3
sbag0
(g4787
g2
Ntp4907
Rp4908
(dp4909
g67
g3535
sg4791
g3527
sg1166
Nsg80
I138
sg4792
g1359
sg1163
F0.3
sbag0
(g4787
g2
Ntp4910
Rp4911
(dp4912
g67
g3566
sg4791
g3558
sg1166
Nsg80
I139
sg4792
g1359
sg1163
F0.3
sbag0
(g4787
g2
Ntp4913
Rp4914
(dp4915
g67
g3597
sg4791
g3589
sg1166
Nsg80
I140
sg4792
g1359
sg1163
F0.3
sbag0
(g4787
g2
Ntp4916
Rp4917
(dp4918
g67
g3628
sg4791
g3620
sg1166
Nsg80
I141
sg4792
g1359
sg1163
F0.3
sbag0
(g4787
g2
Ntp4919
Rp4920
(dp4921
g67
g3669
sg4791
g3661
sg1166
Nsg80
I142
sg4792
g1359
sg1163
F0.3
sbag0
(g4787
g2
Ntp4922
Rp4923
(dp4924
g67
g3710
sg4791
g3702
sg1166
Nsg80
I143
sg4792
g1359
sg1163
F0.3
sbag0
(g4787
g2
Ntp4925
Rp4926
(dp4927
g67
g3751
sg4791
g3743
sg1166
Nsg80
I144
sg4792
g1359
sg1163
F0.3
sbag0
(g4787
g2
Ntp4928
Rp4929
(dp4930
g67
g3792
sg4791
g3784
sg1166
Nsg80
I145
sg4792
g1359
sg1163
F0.3
sbag0
(g4787
g2
Ntp4931
Rp4932
(dp4933
g67
g3833
sg4791
g3825
sg1166
Nsg80
I146
sg4792
g1359
sg1163
F0.3
sbag0
(g4787
g2
Ntp4934
Rp4935
(dp4936
g67
g3874
sg4791
g3866
sg1166
Nsg80
I147
sg4792
g1359
sg1163
F0.3
sbag0
(g4787
g2
Ntp4937
Rp4938
(dp4939
g67
g3915
sg4791
g3907
sg1166
Nsg80
I148
sg4792
g1359
sg1163
F0.3
sbag0
(g4787
g2
Ntp4940
Rp4941
(dp4942
g67
g3956
sg4791
g3948
sg1166
Nsg80
I149
sg4792
g1359
sg1163
F0.3
sbag0
(g4787
g2
Ntp4943
Rp4944
(dp4945
g67
g3997
sg4791
g3989
sg1166
Nsg80
I150
sg4792
g1359
sg1163
F0.3
sbag0
(g4787
g2
Ntp4946
Rp4947
(dp4948
g67
g4038
sg4791
g4030
sg1166
Nsg80
I151
sg4792
g1359
sg1163
F0.3
sbag0
(g4787
g2
Ntp4949
Rp4950
(dp4951
g67
g4083
sg4791
g4075
sg1166
Nsg80
I152
sg4792
g1359
sg1163
F0.3
sbag0
(g4787
g2
Ntp4952
Rp4953
(dp4954
g67
g4124
sg4791
g4116
sg1166
Nsg80
I153
sg4792
g1359
sg1163
F0.3
sbag0
(g4787
g2
Ntp4955
Rp4956
(dp4957
g67
g4165
sg4791
g4157
sg1166
Nsg80
I154
sg4792
g1359
sg1163
F0.3
sbag0
(g4787
g2
Ntp4958
Rp4959
(dp4960
g67
g4206
sg4791
g4198
sg1166
Nsg80
I155
sg4792
g1359
sg1163
F0.3
sbag0
(g4787
g2
Ntp4961
Rp4962
(dp4963
g67
g4247
sg4791
g4239
sg1166
Nsg80
I156
sg4792
g1359
sg1163
F0.3
sbag0
(g4787
g2
Ntp4964
Rp4965
(dp4966
g67
g4288
sg4791
g4280
sg1166
Nsg80
I157
sg4792
g1359
sg1163
F0.3
sbag0
(g4787
g2
Ntp4967
Rp4968
(dp4969
g67
g4333
sg4791
g4325
sg1166
Nsg80
I158
sg4792
g1359
sg1163
F0.3
sbag0
(g4787
g2
Ntp4970
Rp4971
(dp4972
g67
g4374
sg4791
g4366
sg1166
Nsg80
I159
sg4792
g1359
sg1163
F0.3
sbag0
(g4787
g2
Ntp4973
Rp4974
(dp4975
g67
g4415
sg4791
g4407
sg1166
Nsg80
I160
sg4792
g1359
sg1163
F0.3
sbag0
(g4787
g2
Ntp4976
Rp4977
(dp4978
g67
g4456
sg4791
g4448
sg1166
Nsg80
I161
sg4792
g1359
sg1163
F0.3
sbag0
(g4787
g2
Ntp4979
Rp4980
(dp4981
g67
g4497
sg4791
g4489
sg1166
Nsg80
I162
sg4792
g1359
sg1163
F0.3
sbag0
(g4787
g2
Ntp4982
Rp4983
(dp4984
g67
g4538
sg4791
g4530
sg1166
Nsg80
I163
sg4792
g1359
sg1163
F0.3
sbag0
(g4787
g2
Ntp4985
Rp4986
(dp4987
g67
g4579
sg4791
g4571
sg1166
Nsg80
I164
sg4792
g1359
sg1163
F0.3
sbag0
(g4787
g2
Ntp4988
Rp4989
(dp4990
g67
g4620
sg4791
g4612
sg1166
Nsg80
I165
sg4792
g1359
sg1163
F0.3
sbag0
(g4787
g2
Ntp4991
Rp4992
(dp4993
g67
g4661
sg4791
g4653
sg1166
Nsg80
I166
sg4792
g1359
sg1163
F0.3
sbag0
(g4787
g2
Ntp4994
Rp4995
(dp4996
g67
g4702
sg4791
g4694
sg1166
Nsg80
I167
sg4792
g1359
sg1163
F0.3
sbag0
(g4787
g2
Ntp4997
Rp4998
(dp4999
g67
g4743
sg4791
g4735
sg1166
Nsg80
I168
sg4792
g1359
sg1163
F0.3
sbasbsbsg1166
g1169
sg80
I2
sbag0
(g1321
g2
Ntp5000
Rp5001
(dp5002
g1325
I0
sg67
g1299
sg1326
I0
sg1327
g0
(g71
g2
Ntp5003
Rp5004
(dp5005
g67
S'from_cxn_retrieval_P'
p5006
sg76
Nsg77
Nsg78
g1185
sg80
I14
sg81
g0
(clanguage_schemas
GRAMMATICAL_WM_P
p5007
g2
Ntp5008
Rp5009
(dp5010
g65
(dp5011
g5006
NsS'from_phonological_WM_P'
p5012
Nsg1331
Nsg1193
Nssg1195
(lp5013
sg67
g1308
sg1198
(lp5014
sg69
(lp5015
g0
(g71
g2
Ntp5016
Rp5017
(dp5018
g67
g85
sg76
Nsg77
Nsg78
g79
sg80
I17
sg81
g5009
sbag0
(g71
g2
Ntp5019
Rp5020
(dp5021
g67
S'to_phonological_WM_P'
p5022
sg76
Nsg77
Nsg78
g79
sg80
I18
sg81
g5009
sbag0
(g71
g2
Ntp5023
Rp5024
(dp5025
g67
g1220
sg76
Nsg77
Nsg78
g79
sg80
I19
sg81
g5009
sbasg86
(dp5026
g1220
Nsg5022
Nsg85
NssS'time_to_next_prod'
p5027
I0
sg1158
F1.0
sg1222
(lp5028
sg1159
(lp5029
g0
(g71
g2
Ntp5030
Rp5031
(dp5032
g67
g1331
sg76
Nsg77
Nsg78
g1185
sg80
I13
sg81
g5009
sbag5004
ag0
(g71
g2
Ntp5033
Rp5034
(dp5035
g67
g1193
sg76
Nsg77
Nsg78
g1185
sg80
I15
sg81
g5009
sbag0
(g71
g2
Ntp5036
Rp5037
(dp5038
g67
g5012
sg76
Nsg77
Nsg78
g1185
sg80
I16
sg81
g5009
sbasS'refractory_period'
p5039
I10
sg1237
(dp5040
g1239
(dp5041
sg1241
(dp5042
g1243
(lp5043
sg1245
(dp5044
g1247
(lp5045
sg1249
(lp5046
sg1251
(lp5047
ssg1253
(lp5048
sg1164
(lp5049
sg1256
(lp5050
sssg1161
(dp5051
g1259
(dp5052
g1265
F1.0
sg1266
F1.0
sS'sub_threshold_r'
p5053
F0.8
sg1268
F0.0
sS'deact_weight'
p5054
F0.0
sg1267
F0.3
sg1269
F0.01
sg5039
I10
sg1261
F1.0
sg1262
Nsg1263
F-10.0
sg1264
F1.0
ssg1270
(dp5055
g1272
F100.0
sg1273
F10.0
sg1274
F0.001
sg1275
F0.0
sg1276
F0.1
sg1277
F1.0
sg1278
F1.0
ssS'style'
p5056
(dp5057
S'continuity'
p5058
I0
sS'form_length'
p5059
I0
sS'activation'
p5060
F1.0
sS'sem_length'
p5061
I0
sssg1164
F0.0
sg1165
F0.0
sg1166
g1169
sg80
I3
sbsbsg1350
g1340
sg1166
g1169
sg80
I3
sbag0
(g1321
g2
Ntp5062
Rp5063
(dp5064
g1325
I0
sg67
g1299
sg1326
I0
sg1327
g5031
sg1350
g1202
sg1166
g1169
sg80
I4
sbag0
(g1321
g2
Ntp5065
Rp5066
(dp5067
g1325
I0
sg67
g1299
sg1326
I0
sg1327
g1232
sg1350
g5017
sg1166
g1169
sg80
I5
sbag0
(g1321
g2
Ntp5068
Rp5069
(dp5070
g1325
I0
sg67
g1299
sg1326
I0
sg1327
g0
(g71
g2
Ntp5071
Rp5072
(dp5073
g67
g1191
sg76
Nsg77
Nsg78
g1185
sg80
I25
sg81
g0
(clanguage_schemas
PHON_WM_P
p5074
g2
Ntp5075
Rp5076
(dp5077
g65
(dp5078
g1191
Nssg1195
(lp5079
sg67
g1304
sg1198
(lp5080
sg69
(lp5081
g0
(g71
g2
Ntp5082
Rp5083
(dp5084
g67
S'to_utter'
p5085
sg76
Nsg77
Nsg78
g79
sg80
I26
sg81
g5076
sbag0
(g71
g2
Ntp5086
Rp5087
(dp5088
g67
g1204
sg76
Nsg77
Nsg78
g79
sg80
I27
sg81
g5076
sbag0
(g71
g2
Ntp5089
Rp5090
(dp5091
g67
g1212
sg76
Nsg77
Nsg78
g79
sg80
I28
sg81
g5076
sbag0
(g71
g2
Ntp5092
Rp5093
(dp5094
g67
g1220
sg76
Nsg77
Nsg78
g79
sg80
I29
sg81
g5076
sbasg86
(dp5095
g1220
Nsg1204
Nsg5085
Nsg1212
NssS'needs_filler'
p5096
I00
sg1158
F1.0
sg1222
(lp5097
sg1159
(lp5098
g5072
asS'filler'
p5099
S'....'
p5100
sg1237
(dp5101
g1239
(dp5102
sg1241
(dp5103
g1243
(lp5104
sg1245
(dp5105
g1247
(lp5106
sg1249
(lp5107
sg1251
(lp5108
ssg1253
(lp5109
sg1164
(lp5110
sg1256
(lp5111
sssg1161
(dp5112
g1259
(dp5113
g1261
F1.0
sg1262
Nsg1263
F0.0
sg1264
F1.0
sg1265
F1.0
sg1266
F0.0
sg1267
F0.0
sg1268
F0.0
sg1269
F0.01
ssg1270
(dp5114
g1272
F100.0
sg1273
F10.0
sg1274
F0.001
sg1275
F0.0
sg1276
F1.0
sg1277
F1.0
sg1278
F1.0
sssg1164
F0.0
sg1165
F0.0
sg1166
g1169
sS'phon_sequence'
p5115
(lp5116
sg80
I6
sbsbsg1350
g5020
sg1166
g1169
sg80
I6
sbag0
(g1321
g2
Ntp5117
Rp5118
(dp5119
g1325
I0
sg67
g1299
sg1326
I0
sg1327
g5037
sg1350
g5087
sg1166
g1169
sg80
I7
sbag0
(g1321
g2
Ntp5120
Rp5121
(dp5122
g1325
I0
sg67
g1299
sg1326
I0
sg1327
g0
(g71
g2
Ntp5123
Rp5124
(dp5125
g67
g1331
sg76
Nsg77
Nsg78
g1185
sg80
I32
sg81
g0
(clanguage_schemas
CONTROL
p5126
g2
Ntp5127
Rp5128
(dp5129
g65
(dp5130
g5012
Nsg1331
Nssg67
g1294
sg69
(lp5131
g0
(g71
g2
Ntp5132
Rp5133
(dp5134
g67
g85
sg76
Nsg77
Nsg78
g79
sg80
I34
sg81
g5128
sbag0
(g71
g2
Ntp5135
Rp5136
(dp5137
g67
g1204
sg76
Nsg77
Nsg78
g79
sg80
I35
sg81
g5128
sbag0
(g71
g2
Ntp5138
Rp5139
(dp5140
g67
S'to_grammatical_WM_C'
p5141
sg76
Nsg77
Nsg78
g79
sg80
I36
sg81
g5128
sbasg86
(dp5142
g1204
Nsg5141
Nsg85
Nssg1158
F1.0
sg1159
(lp5143
g5124
ag0
(g71
g2
Ntp5144
Rp5145
(dp5146
g67
g5012
sg76
Nsg77
Nsg78
g1185
sg80
I33
sg81
g5128
sbasS'state'
p5147
(dp5148
S'produce'
p5149
I00
sS'unexpressed_sem'
p5150
I00
sS'mode'
p5151
g5149
sS'last_prod_time'
p5152
I0
ssg1161
(dp5153
g5056
(dp5154
g5058
F0.3
sg5059
F0.0
sg5060
F0.7
sg5061
F0.0
ssS'task'
p5155
(dp5156
S'time_pressure'
p5157
F10.0
sS'start_produce'
p5158
F1.0
sssg1164
F0.0
sg1165
F0.0
sg1166
g1169
sg80
I8
sbsbsg1350
g1210
sg1166
g1169
sg80
I8
sbag0
(g1321
g2
Ntp5159
Rp5160
(dp5161
g1325
I0
sg67
g1299
sg1326
I0
sg1327
g0
(g71
g2
Ntp5162
Rp5163
(dp5164
g67
g5012
sg76
Nsg77
Nsg78
g1185
sg80
I30
sg81
g0
(clanguage_schemas
UTTER
p5165
g2
Ntp5166
Rp5167
(dp5168
g65
(dp5169
g5012
Nssg67
g1297
sg69
(lp5170
g0
(g71
g2
Ntp5171
Rp5172
(dp5173
g67
g1220
sg76
Nsg77
Nsg78
g79
sg80
I31
sg81
g5167
sbasg86
(dp5174
g1220
NssS'utterance_stack'
p5175
(lp5176
sg1158
F1.0
sg1159
(lp5177
g5163
asg1161
(dp5178
S'speech_rate'
p5179
F1.0
ssg1164
F0.0
sg1165
F0.0
sg1166
g1169
sg80
I7
sbsbsg1350
g5083
sg1166
g1169
sg80
I9
sbag0
(g1321
g2
Ntp5180
Rp5181
(dp5182
g1325
I0
sg67
g1299
sg1326
I0
sg1327
g5145
sg1350
g5090
sg1166
g1169
sg80
I10
sbag0
(g1321
g2
Ntp5183
Rp5184
(dp5185
g1325
I0
sg67
g1299
sg1326
I0
sg1327
g5034
sg1350
g5136
sg1166
g1169
sg80
I11
sbag0
(g1321
g2
Ntp5186
Rp5187
(dp5188
g1325
I0
sg67
g1299
sg1326
I0
sg1327
g1235
sg1350
g5133
sg1166
g1169
sg80
I12
sbasg1161
(dp5189
g1294
g5153
sg1304
g5112
sg68
g1162
sg1312
g4784
sg1316
g1349
sg1197
g1258
sg1297
g5178
sg1308
g5051
ssg1164
F0.0
sS'set_up_time'
p5190
I10
sS'input'
p5191
NsS'default_params'
p5192
Nsg1158
F1.0
sS'output_ports'
p5193
(lp5194
g5172
ag5093
ag5024
ag1218
asg4785
(dp5195
g1294
g5128
sg1304
g5076
sg68
g63
sg1316
g1334
sg1308
g5009
sg1197
g1188
sg1297
g5167
sg1312
g1359
ssbsg80
I2
sg4785
(lp5196
g0
(clanguage_schemas
CPT_EVENT_SCHEMA
p5197
g2
Ntp5198
Rp5199
(dp5200
g67
g104
sg4791
(dp5201
g1392
g582
ssg1166
Nsg80
I9
sg4792
g63
sg1163
F1.0
sbag0
(clanguage_schemas
CPT_ACTION_SCHEMA
p5202
g2
Ntp5203
Rp5204
(dp5205
g67
g108
sg4791
(dp5206
g1392
g589
ssg1166
Nsg80
I10
sg4792
g63
sg1163
F1.0
sbag0
(g5202
g2
Ntp5207
Rp5208
(dp5209
g67
g110
sg4791
(dp5210
g1392
g592
ssg1166
Nsg80
I11
sg4792
g63
sg1163
F1.0
sbag0
(g5202
g2
Ntp5211
Rp5212
(dp5213
g67
g112
sg4791
(dp5214
g1392
g595
ssg1166
Nsg80
I12
sg4792
g63
sg1163
F1.0
sbag0
(g5202
g2
Ntp5215
Rp5216
(dp5217
g67
g114
sg4791
(dp5218
g1392
g598
ssg1166
Nsg80
I13
sg4792
g63
sg1163
F1.0
sbag0
(g5202
g2
Ntp5219
Rp5220
(dp5221
g67
g116
sg4791
(dp5222
g1392
g601
ssg1166
Nsg80
I14
sg4792
g63
sg1163
F1.0
sbag0
(g5202
g2
Ntp5223
Rp5224
(dp5225
g67
g118
sg4791
(dp5226
g1392
g604
ssg1166
Nsg80
I15
sg4792
g63
sg1163
F1.0
sbag0
(g5202
g2
Ntp5227
Rp5228
(dp5229
g67
g120
sg4791
(dp5230
g1392
g607
ssg1166
Nsg80
I16
sg4792
g63
sg1163
F1.0
sbag0
(g5202
g2
Ntp5231
Rp5232
(dp5233
g67
g122
sg4791
(dp5234
g1392
g610
ssg1166
Nsg80
I17
sg4792
g63
sg1163
F1.0
sbag0
(g5202
g2
Ntp5235
Rp5236
(dp5237
g67
g124
sg4791
(dp5238
g1392
g613
ssg1166
Nsg80
I18
sg4792
g63
sg1163
F1.0
sbag0
(g5202
g2
Ntp5239
Rp5240
(dp5241
g67
g126
sg4791
(dp5242
g1392
g616
ssg1166
Nsg80
I19
sg4792
g63
sg1163
F1.0
sbag0
(g5202
g2
Ntp5243
Rp5244
(dp5245
g67
g128
sg4791
(dp5246
g1392
g619
ssg1166
Nsg80
I20
sg4792
g63
sg1163
F1.0
sbag0
(g5202
g2
Ntp5247
Rp5248
(dp5249
g67
g130
sg4791
(dp5250
g1392
g622
ssg1166
Nsg80
I21
sg4792
g63
sg1163
F1.0
sbag0
(g5202
g2
Ntp5251
Rp5252
(dp5253
g67
g132
sg4791
(dp5254
g1392
g625
ssg1166
Nsg80
I22
sg4792
g63
sg1163
F1.0
sbag0
(g5202
g2
Ntp5255
Rp5256
(dp5257
g67
g134
sg4791
(dp5258
g1392
g628
ssg1166
Nsg80
I23
sg4792
g63
sg1163
F1.0
sbag0
(g5202
g2
Ntp5259
Rp5260
(dp5261
g67
g136
sg4791
(dp5262
g1392
g631
ssg1166
Nsg80
I24
sg4792
g63
sg1163
F1.0
sbag0
(g5202
g2
Ntp5263
Rp5264
(dp5265
g67
g138
sg4791
(dp5266
g1392
g634
ssg1166
Nsg80
I25
sg4792
g63
sg1163
F1.0
sbag0
(g5202
g2
Ntp5267
Rp5268
(dp5269
g67
g140
sg4791
(dp5270
g1392
g637
ssg1166
Nsg80
I26
sg4792
g63
sg1163
F1.0
sbag0
(g5202
g2
Ntp5271
Rp5272
(dp5273
g67
g142
sg4791
(dp5274
g1392
g640
ssg1166
Nsg80
I27
sg4792
g63
sg1163
F1.0
sbag0
(g5202
g2
Ntp5275
Rp5276
(dp5277
g67
g144
sg4791
(dp5278
g1392
g643
ssg1166
Nsg80
I28
sg4792
g63
sg1163
F1.0
sbag0
(clanguage_schemas
CPT_PROPERTY_SCHEMA
p5279
g2
Ntp5280
Rp5281
(dp5282
g67
g146
sg4791
(dp5283
g1392
g646
ssg1166
Nsg80
I29
sg4792
g63
sg1163
F1.0
sbag0
(g5279
g2
Ntp5284
Rp5285
(dp5286
g67
g148
sg4791
(dp5287
g1392
g649
ssg1166
Nsg80
I30
sg4792
g63
sg1163
F1.0
sbag0
(g5279
g2
Ntp5288
Rp5289
(dp5290
g67
g150
sg4791
(dp5291
g1392
g652
ssg1166
Nsg80
I31
sg4792
g63
sg1163
F1.0
sbag0
(g5279
g2
Ntp5292
Rp5293
(dp5294
g67
g152
sg4791
(dp5295
g1392
g655
ssg1166
Nsg80
I32
sg4792
g63
sg1163
F1.0
sbag0
(g5279
g2
Ntp5296
Rp5297
(dp5298
g67
g154
sg4791
(dp5299
g1392
g658
ssg1166
Nsg80
I33
sg4792
g63
sg1163
F1.0
sbag0
(g5279
g2
Ntp5300
Rp5301
(dp5302
g67
g156
sg4791
(dp5303
g1392
g661
ssg1166
Nsg80
I34
sg4792
g63
sg1163
F1.0
sbag0
(g5279
g2
Ntp5304
Rp5305
(dp5306
g67
g158
sg4791
(dp5307
g1392
g664
ssg1166
Nsg80
I35
sg4792
g63
sg1163
F1.0
sbag0
(g5279
g2
Ntp5308
Rp5309
(dp5310
g67
g160
sg4791
(dp5311
g1392
g667
ssg1166
Nsg80
I36
sg4792
g63
sg1163
F1.0
sbag0
(g5279
g2
Ntp5312
Rp5313
(dp5314
g67
g162
sg4791
(dp5315
g1392
g670
ssg1166
Nsg80
I37
sg4792
g63
sg1163
F1.0
sbag0
(g5279
g2
Ntp5316
Rp5317
(dp5318
g67
g164
sg4791
(dp5319
g1392
g673
ssg1166
Nsg80
I38
sg4792
g63
sg1163
F1.0
sbag0
(g5279
g2
Ntp5320
Rp5321
(dp5322
g67
g166
sg4791
(dp5323
g1392
g676
ssg1166
Nsg80
I39
sg4792
g63
sg1163
F1.0
sbag0
(g5279
g2
Ntp5324
Rp5325
(dp5326
g67
g168
sg4791
(dp5327
g1392
g679
ssg1166
Nsg80
I40
sg4792
g63
sg1163
F1.0
sbag0
(g5279
g2
Ntp5328
Rp5329
(dp5330
g67
g170
sg4791
(dp5331
g1392
g682
ssg1166
Nsg80
I41
sg4792
g63
sg1163
F1.0
sbag0
(g5279
g2
Ntp5332
Rp5333
(dp5334
g67
g172
sg4791
(dp5335
g1392
g685
ssg1166
Nsg80
I42
sg4792
g63
sg1163
F1.0
sbag0
(clanguage_schemas
CPT_RELATION_SCHEMA
p5336
g2
Ntp5337
Rp5338
(dp5339
g67
g174
sg4791
(dp5340
g861
Nsg1392
g688
sg862
Nssg1166
Nsg80
I43
sg4792
g63
sg1163
F1.0
sbag0
(g5336
g2
Ntp5341
Rp5342
(dp5343
g67
g176
sg4791
(dp5344
g861
Nsg1392
g691
sg862
Nssg1166
Nsg80
I44
sg4792
g63
sg1163
F1.0
sbag0
(g5336
g2
Ntp5345
Rp5346
(dp5347
g67
g178
sg4791
(dp5348
g861
Nsg1392
g694
sg862
Nssg1166
Nsg80
I45
sg4792
g63
sg1163
F1.0
sbag0
(g5336
g2
Ntp5349
Rp5350
(dp5351
g67
g180
sg4791
(dp5352
g861
Nsg1392
g697
sg862
Nssg1166
Nsg80
I46
sg4792
g63
sg1163
F1.0
sbag0
(g5336
g2
Ntp5353
Rp5354
(dp5355
g67
g182
sg4791
(dp5356
g861
Nsg1392
g700
sg862
Nssg1166
Nsg80
I47
sg4792
g63
sg1163
F1.0
sbag0
(g5336
g2
Ntp5357
Rp5358
(dp5359
g67
g184
sg4791
(dp5360
g861
Nsg1392
g703
sg862
Nssg1166
Nsg80
I48
sg4792
g63
sg1163
F1.0
sbag0
(g5336
g2
Ntp5361
Rp5362
(dp5363
g67
g186
sg4791
(dp5364
g861
Nsg1392
g706
sg862
Nssg1166
Nsg80
I49
sg4792
g63
sg1163
F1.0
sbag0
(g5336
g2
Ntp5365
Rp5366
(dp5367
g67
g188
sg4791
(dp5368
g861
Nsg1392
g709
sg862
Nssg1166
Nsg80
I50
sg4792
g63
sg1163
F1.0
sbag0
(g5336
g2
Ntp5369
Rp5370
(dp5371
g67
g190
sg4791
(dp5372
g861
Nsg1392
g712
sg862
Nssg1166
Nsg80
I51
sg4792
g63
sg1163
F1.0
sbag0
(g5336
g2
Ntp5373
Rp5374
(dp5375
g67
g192
sg4791
(dp5376
g861
Nsg1392
g715
sg862
Nssg1166
Nsg80
I52
sg4792
g63
sg1163
F1.0
sbag0
(g5336
g2
Ntp5377
Rp5378
(dp5379
g67
g194
sg4791
(dp5380
g861
Nsg1392
g718
sg862
Nssg1166
Nsg80
I53
sg4792
g63
sg1163
F1.0
sbag0
(g5336
g2
Ntp5381
Rp5382
(dp5383
g67
g196
sg4791
(dp5384
g861
Nsg1392
g721
sg862
Nssg1166
Nsg80
I54
sg4792
g63
sg1163
F1.0
sbag0
(g5336
g2
Ntp5385
Rp5386
(dp5387
g67
g198
sg4791
(dp5388
g861
Nsg1392
g724
sg862
Nssg1166
Nsg80
I55
sg4792
g63
sg1163
F1.0
sbag0
(g5336
g2
Ntp5389
Rp5390
(dp5391
g67
g200
sg4791
(dp5392
g861
Nsg1392
g727
sg862
Nssg1166
Nsg80
I56
sg4792
g63
sg1163
F1.0
sbag0
(g5336
g2
Ntp5393
Rp5394
(dp5395
g67
g202
sg4791
(dp5396
g861
Nsg1392
g730
sg862
Nssg1166
Nsg80
I57
sg4792
g63
sg1163
F1.0
sbag0
(g5336
g2
Ntp5397
Rp5398
(dp5399
g67
g204
sg4791
(dp5400
g861
Nsg1392
g733
sg862
Nssg1166
Nsg80
I58
sg4792
g63
sg1163
F1.0
sbag0
(g5336
g2
Ntp5401
Rp5402
(dp5403
g67
g206
sg4791
(dp5404
g861
Nsg1392
g736
sg862
Nssg1166
Nsg80
I59
sg4792
g63
sg1163
F1.0
sbag0
(g5336
g2
Ntp5405
Rp5406
(dp5407
g67
g208
sg4791
(dp5408
g861
Nsg1392
g739
sg862
Nssg1166
Nsg80
I60
sg4792
g63
sg1163
F1.0
sbag0
(g5197
g2
Ntp5409
Rp5410
(dp5411
g67
g210
sg4791
(dp5412
g1392
g742
ssg1166
Nsg80
I61
sg4792
g63
sg1163
F1.0
sbag0
(clanguage_schemas
CPT_ENTITY_SCHEMA
p5413
g2
Ntp5414
Rp5415
(dp5416
g67
g212
sg4791
(dp5417
g1392
g745
ssg1166
Nsg80
I62
sg4792
g63
sg1163
F1.0
sbag0
(g5413
g2
Ntp5418
Rp5419
(dp5420
g67
g214
sg4791
(dp5421
g1392
g748
ssg1166
Nsg80
I63
sg4792
g63
sg1163
F1.0
sbag0
(g5413
g2
Ntp5422
Rp5423
(dp5424
g67
g216
sg4791
(dp5425
g1392
g751
ssg1166
Nsg80
I64
sg4792
g63
sg1163
F1.0
sbag0
(g5413
g2
Ntp5426
Rp5427
(dp5428
g67
g218
sg4791
(dp5429
g1392
g754
ssg1166
Nsg80
I65
sg4792
g63
sg1163
F1.0
sbag0
(g5413
g2
Ntp5430
Rp5431
(dp5432
g67
g220
sg4791
(dp5433
g1392
g757
ssg1166
Nsg80
I66
sg4792
g63
sg1163
F1.0
sbag0
(g5413
g2
Ntp5434
Rp5435
(dp5436
g67
g222
sg4791
(dp5437
g1392
g760
ssg1166
Nsg80
I67
sg4792
g63
sg1163
F1.0
sbag0
(g5413
g2
Ntp5438
Rp5439
(dp5440
g67
g224
sg4791
(dp5441
g1392
g763
ssg1166
Nsg80
I68
sg4792
g63
sg1163
F1.0
sbag0
(g5413
g2
Ntp5442
Rp5443
(dp5444
g67
g226
sg4791
(dp5445
g1392
g766
ssg1166
Nsg80
I69
sg4792
g63
sg1163
F1.0
sbag0
(g5413
g2
Ntp5446
Rp5447
(dp5448
g67
g228
sg4791
(dp5449
g1392
g769
ssg1166
Nsg80
I70
sg4792
g63
sg1163
F1.0
sbag0
(g5413
g2
Ntp5450
Rp5451
(dp5452
g67
g230
sg4791
(dp5453
g1392
g772
ssg1166
Nsg80
I71
sg4792
g63
sg1163
F1.0
sbag0
(g5413
g2
Ntp5454
Rp5455
(dp5456
g67
g232
sg4791
(dp5457
g1392
g775
ssg1166
Nsg80
I72
sg4792
g63
sg1163
F1.0
sbag0
(g5413
g2
Ntp5458
Rp5459
(dp5460
g67
g234
sg4791
(dp5461
g1392
g778
ssg1166
Nsg80
I73
sg4792
g63
sg1163
F1.0
sbag0
(g5413
g2
Ntp5462
Rp5463
(dp5464
g67
g236
sg4791
(dp5465
g1392
g781
ssg1166
Nsg80
I74
sg4792
g63
sg1163
F1.0
sbag0
(g5413
g2
Ntp5466
Rp5467
(dp5468
g67
g238
sg4791
(dp5469
g1392
g784
ssg1166
Nsg80
I75
sg4792
g63
sg1163
F1.0
sbag0
(g5413
g2
Ntp5470
Rp5471
(dp5472
g67
g240
sg4791
(dp5473
g1392
g787
ssg1166
Nsg80
I76
sg4792
g63
sg1163
F1.0
sbag0
(g5413
g2
Ntp5474
Rp5475
(dp5476
g67
g242
sg4791
(dp5477
g1392
g790
ssg1166
Nsg80
I77
sg4792
g63
sg1163
F1.0
sbag0
(g5413
g2
Ntp5478
Rp5479
(dp5480
g67
g244
sg4791
(dp5481
g1392
g793
ssg1166
Nsg80
I78
sg4792
g63
sg1163
F1.0
sbag0
(g5413
g2
Ntp5482
Rp5483
(dp5484
g67
g246
sg4791
(dp5485
g1392
g796
ssg1166
Nsg80
I79
sg4792
g63
sg1163
F1.0
sbag0
(g5413
g2
Ntp5486
Rp5487
(dp5488
g67
g248
sg4791
(dp5489
g1392
g799
ssg1166
Nsg80
I80
sg4792
g63
sg1163
F1.0
sbag0
(g5413
g2
Ntp5490
Rp5491
(dp5492
g67
g250
sg4791
(dp5493
g1392
g802
ssg1166
Nsg80
I81
sg4792
g63
sg1163
F1.0
sbag0
(g5413
g2
Ntp5494
Rp5495
(dp5496
g67
g252
sg4791
(dp5497
g1392
g805
ssg1166
Nsg80
I82
sg4792
g63
sg1163
F1.0
sbag0
(g5413
g2
Ntp5498
Rp5499
(dp5500
g67
g254
sg4791
(dp5501
g1392
g808
ssg1166
Nsg80
I83
sg4792
g63
sg1163
F1.0
sbag0
(g5413
g2
Ntp5502
Rp5503
(dp5504
g67
g256
sg4791
(dp5505
g1392
g811
ssg1166
Nsg80
I84
sg4792
g63
sg1163
F1.0
sbag0
(g5413
g2
Ntp5506
Rp5507
(dp5508
g67
g258
sg4791
(dp5509
g1392
g814
ssg1166
Nsg80
I85
sg4792
g63
sg1163
F1.0
sbag0
(g5413
g2
Ntp5510
Rp5511
(dp5512
g67
g260
sg4791
(dp5513
g1392
g817
ssg1166
Nsg80
I86
sg4792
g63
sg1163
F1.0
sbag0
(g5413
g2
Ntp5514
Rp5515
(dp5516
g67
g262
sg4791
(dp5517
g1392
g820
ssg1166
Nsg80
I87
sg4792
g63
sg1163
F1.0
sbag0
(g5413
g2
Ntp5518
Rp5519
(dp5520
g67
g264
sg4791
(dp5521
g1392
g823
ssg1166
Nsg80
I88
sg4792
g63
sg1163
F1.0
sbag0
(g5413
g2
Ntp5522
Rp5523
(dp5524
g67
g266
sg4791
(dp5525
g1392
g826
ssg1166
Nsg80
I89
sg4792
g63
sg1163
F1.0
sbag0
(g5413
g2
Ntp5526
Rp5527
(dp5528
g67
g268
sg4791
(dp5529
g1392
g829
ssg1166
Nsg80
I90
sg4792
g63
sg1163
F1.0
sbag0
(g5413
g2
Ntp5530
Rp5531
(dp5532
g67
g270
sg4791
(dp5533
g1392
g832
ssg1166
Nsg80
I91
sg4792
g63
sg1163
F1.0
sbag0
(g5413
g2
Ntp5534
Rp5535
(dp5536
g67
g272
sg4791
(dp5537
g1392
g835
ssg1166
Nsg80
I92
sg4792
g63
sg1163
F1.0
sbag0
(g5413
g2
Ntp5538
Rp5539
(dp5540
g67
g274
sg4791
(dp5541
g1392
g838
ssg1166
Nsg80
I93
sg4792
g63
sg1163
F1.0
sbag0
(g5413
g2
Ntp5542
Rp5543
(dp5544
g67
g276
sg4791
(dp5545
g1392
g841
ssg1166
Nsg80
I94
sg4792
g63
sg1163
F1.0
sbag0
(g5413
g2
Ntp5546
Rp5547
(dp5548
g67
g278
sg4791
(dp5549
g1392
g844
ssg1166
Nsg80
I95
sg4792
g63
sg1163
F1.0
sbag0
(g5413
g2
Ntp5550
Rp5551
(dp5552
g67
g280
sg4791
(dp5553
g1392
g847
ssg1166
Nsg80
I96
sg4792
g63
sg1163
F1.0
sbag0
(g5413
g2
Ntp5554
Rp5555
(dp5556
g67
g282
sg4791
(dp5557
g1392
g850
ssg1166
Nsg80
I97
sg4792
g63
sg1163
F1.0
sbag0
(g5413
g2
Ntp5558
Rp5559
(dp5560
g67
g284
sg4791
(dp5561
g1392
g853
ssg1166
Nsg80
I98
sg4792
g63
sg1163
F1.0
sbasbsbsb.