ccopy_reg
_reconstructor
p0
(clanguage_schemas
SEM_GENERATOR
p1
c__builtin__
object
p2
Ntp3
Rp4
(dp5
S'sem_inputs'
p6
(dp7
S'{}'
p8
(dp9
Vtiming
p10
(lp11
F0.0
aF100.0
aF200.0
aF300.0
aF400.0
asVsem_rate
p12
I1
sVpropositions
p13
(dp14
VMAN_AREA
p15
(lp16
VENTITY(e1,F)
p17
aVMAN(man)
p18
aVIS(is1)
p19
aVis1(e1, man)
p20
asVWOMAN_FACE_AREA
p21
(lp22
VYOUNG(young)
p23
aVMODIFY(mod)
p24
aVmod(e2, young)
p25
asVWOMAN
p26
(lp27
VENTITY(e2,F)
p28
aVWOMAN(woman)
p29
aVIS(is2)
p30
aVis2(e2, woman)
p31
asVKICK_AREA
p32
(lp33
VKICK(kick)
p34
aVIS(is4)
p35
aVis4(a1, kick)
p36
aVENTITY(e2,F)
p37
aVENTITY(e1,F)
p38
aVAGENT(agt)
p39
aVPATIENT(pt)
p40
aVagt(a1, e2)
p41
aVpt(a1, e1)
p42
asVACTION_AREA
p43
(lp44
VEVENT(evt1,F)
p45
aVACTION(a1,F)
p46
aVIS(is3)
p47
aVis3(evt1,a1)
p48
assVcomments
p49
VEasy action, hard objects + modifier
p50
sVsequence
p51
(lp52
VACTION_AREA
p53
aVKICK_AREA
p54
aVWOMAN_AREA
p55
aVMAN_AREA
p56
aVWOMAN_FACE_AREA
p57
asssS'is_macro'
p58
I01
sS'ground_truths'
p59
NsS'speed_param'
p60
I100
sS'interpreter'
p61
g0
(clanguage_schemas
ISRF_INTERPRETER
p62
g2
Ntp63
Rp64
(dp65
S'name_table'
p66
(dp67
sS'conceptLTM'
p68
g0
(clanguage_schemas
CONCEPT_LTM
p69
g2
Ntp70
Rp71
(dp72
S'inputs'
p73
(dp74
sS'name'
p75
S'Concept_LTM'
p76
sS'out_ports'
p77
(lp78
g0
(cschema_theory
PORT
p79
g2
Ntp80
Rp81
(dp82
g75
S'to_conceptualizer'
p83
sS'data'
p84
NsS'value'
p85
(lp86
g0
(clanguage_schemas
CPT_EVENT_SCHEMA
p87
g2
Ntp88
Rp89
(dp90
g75
S'?'
p91
sS'content'
p92
(dp93
S'concept'
p94
g0
(cconcept
CONCEPT
p95
g2
Ntp96
Rp97
(dp98
S'meaning'
p99
g91
sS'conceptual_knowledge'
p100
g0
(cconcept
CONCEPTUAL_KNOWLEDGE
p101
g2
Ntp102
Rp103
(dp104
S'graph'
p105
g0
(cnetworkx.classes.digraph
DiGraph
p106
g2
Ntp107
Rp108
(dp109
S'node'
p110
(dp111
I1
(dp112
g99
g91
ssI2
(dp113
g99
S'CONCEPT'
p114
ssI3
(dp115
g99
VACTION
p116
ssI4
(dp117
g99
VSYMMETRIC
p118
ssI5
(dp119
g99
VMEET
p120
ssI6
(dp121
g99
VSHAKE_HANDS
p122
ssI7
(dp123
g99
VINTRANSITIVE
p124
ssI8
(dp125
g99
VLAUGH
p126
ssI9
(dp127
g99
VTRANSITIVE
p128
ssI10
(dp129
g99
VHIT
p130
ssI11
(dp131
g99
VWATCH
p132
ssI12
(dp133
g99
VPUNCH
p134
ssI13
(dp135
g99
VSPLASH
p136
ssI14
(dp137
g99
VTALK
p138
ssI15
(dp139
g99
VKISS
p140
ssI16
(dp141
g99
VSQUIRT
p142
ssI17
(dp143
g99
VKICK
p144
ssI18
(dp145
g99
VWEAR
p146
ssI19
(dp147
g99
VDITRANSITIVE
p148
ssI20
(dp149
g99
VSEND
p150
ssI21
(dp151
g99
VGIVE
p152
ssI22
(dp153
g99
VPROPERTY
p154
ssI23
(dp155
g99
VCOLOR
p156
ssI24
(dp157
g99
VBLUE
p158
ssI25
(dp159
g99
VGREEN
p160
ssI26
(dp161
g99
VWHITE
p162
ssI27
(dp163
g99
VBLACK
p164
ssI28
(dp165
g99
VRED
p166
ssI29
(dp167
g99
VAPPEARANCE
p168
ssI30
(dp169
g99
VYOUNG
p170
ssI31
(dp171
g99
VPRETTY
p172
ssI32
(dp173
g99
VHANDSOME
p174
ssI33
(dp175
g99
VSIZE
p176
ssI34
(dp177
g99
VSMALL
p178
ssI35
(dp179
g99
VBIG
p180
ssI36
(dp181
g99
VRELATION
p182
ssI37
(dp183
g99
VACTION_FRAME
p184
ssI38
(dp185
g99
VMODIFY
p186
ssI39
(dp187
g99
VTHEME
p188
ssI40
(dp189
g99
VRECIPIENT
p190
ssI41
(dp191
g99
VATTR
p192
ssI42
(dp193
g99
VAGT_PT
p194
ssI43
(dp195
g99
VPATIENT
p196
ssI44
(dp197
g99
VAGT+PT
p198
ssI45
(dp199
g99
VAGENT
p200
ssI46
(dp201
g99
VEVENT_FRAME
p202
ssI47
(dp203
g99
VTEMPORAL
p204
ssI48
(dp205
g99
VCONCURRENT
p206
ssI49
(dp207
g99
VSUCCESSIVE
p208
ssI50
(dp209
g99
VSPATIAL
p210
ssI51
(dp211
g99
VIN
p212
ssI52
(dp213
g99
VIS
p214
ssI53
(dp215
g99
VOBJECT_FRAME
p216
ssI54
(dp217
g99
VEVENT
p218
ssI55
(dp219
g99
VENTITY
p220
ssI56
(dp221
g99
VANIMATE
p222
ssI57
(dp223
g99
VANIMAL
p224
ssI58
(dp225
g99
VHUMAN
p226
ssI59
(dp227
g99
VOBJECT
p228
ssI60
(dp229
g99
VITEM
p230
ssI61
(dp231
g99
VWAGON
p232
ssI62
(dp233
g99
VWATERING_CAN
p234
ssI63
(dp235
g99
VBAG
p236
ssI64
(dp237
g99
VTREE
p238
ssI65
(dp239
g99
VHOOK
p240
ssI66
(dp241
g99
VCELLO
p242
ssI67
(dp243
g99
VBOOKSHELF
p244
ssI68
(dp245
g99
VCLOTHING
p246
ssI69
(dp247
g99
VTSHIRT
p248
ssI70
(dp249
g99
VDRESS
p250
ssI71
(dp251
g99
VSHIRT
p252
ssI72
(dp253
g99
VSUIT
p254
ssI73
(dp255
g99
VTURTLE
p256
ssI74
(dp257
g99
VMOUSE
p258
ssI75
(dp259
g99
VDOG
p260
ssI76
(dp261
g99
VBOY
p262
ssI77
(dp263
g99
VWOMAN
p264
ssI78
(dp265
g99
VPEOPLE
p266
ssI79
(dp267
g99
VPOLICEMAN
p268
ssI80
(dp269
g99
VHUNTER
p270
ssI81
(dp271
g99
VBALLERINA
p272
ssI82
(dp273
g99
VCELLIST
p274
ssI83
(dp275
g99
VGIRL
p276
ssI84
(dp277
g99
VFENCER
p278
ssI85
(dp279
g99
VROBBER
p280
ssI86
(dp281
g99
VMAN
p282
ssI87
(dp283
g99
VPLACE
p284
ssI88
(dp285
g99
VBOXINGRING
p286
ssI89
(dp287
g99
VPARK
p288
ssI90
(dp289
g99
VMALE
p290
ssI91
(dp291
g99
VFEMALE
p292
sssS'node_dict_factory'
p293
c__builtin__
dict
p294
sS'edge_attr_dict_factory'
p295
g294
sS'succ'
p296
(dp297
I1
(dp298
sI2
(dp299
sI3
(dp300
I2
(dp301
S'type'
p302
S'is_a'
p303
sssI4
(dp304
I3
(dp305
g302
g303
sssI5
(dp306
I4
(dp307
g302
g303
sssI6
(dp308
I4
(dp309
g302
g303
sssI7
(dp310
I3
(dp311
g302
g303
sssI8
(dp312
I7
(dp313
g302
g303
sssI9
(dp314
I3
(dp315
g302
g303
sssI10
(dp316
I9
(dp317
g302
g303
sssI11
(dp318
I9
(dp319
g302
g303
sssI12
(dp320
I9
(dp321
g302
g303
sssI13
(dp322
I9
(dp323
g302
g303
sssI14
(dp324
I9
(dp325
g302
g303
sssI15
(dp326
I9
(dp327
g302
g303
sssI16
(dp328
I9
(dp329
g302
g303
sssI17
(dp330
I9
(dp331
g302
g303
sssI18
(dp332
I9
(dp333
g302
g303
sssI19
(dp334
I3
(dp335
g302
g303
sssI20
(dp336
I19
(dp337
g302
g303
sssI21
(dp338
I19
(dp339
g302
g303
sssI22
(dp340
I2
(dp341
g302
g303
sssI23
(dp342
I22
(dp343
g302
g303
sssI24
(dp344
I23
(dp345
g302
g303
sssI25
(dp346
I23
(dp347
g302
g303
sssI26
(dp348
I23
(dp349
g302
g303
sssI27
(dp350
I23
(dp351
g302
g303
sssI28
(dp352
I23
(dp353
g302
g303
sssI29
(dp354
I22
(dp355
g302
g303
sssI30
(dp356
I29
(dp357
g302
g303
sssI31
(dp358
I29
(dp359
g302
g303
sssI32
(dp360
I29
(dp361
g302
g303
sssI33
(dp362
I22
(dp363
g302
g303
sssI34
(dp364
I33
(dp365
g302
g303
sssI35
(dp366
I33
(dp367
g302
g303
sssI36
(dp368
I2
(dp369
g302
g303
sssI37
(dp370
I36
(dp371
g302
g303
sssI38
(dp372
I37
(dp373
g302
g303
ssI53
(dp374
g302
g303
sssI39
(dp375
I37
(dp376
g302
g303
sssI40
(dp377
I37
(dp378
g302
g303
sssI41
(dp379
I37
(dp380
g302
g303
ssI53
(dp381
g302
g303
sssI42
(dp382
I37
(dp383
g302
g303
sssI43
(dp384
I42
(dp385
g302
g303
sssI44
(dp386
I43
(dp387
g302
g303
ssI45
(dp388
g302
g303
sssI45
(dp389
I42
(dp390
g302
g303
sssI46
(dp391
I36
(dp392
g302
g303
sssI47
(dp393
I46
(dp394
g302
g303
sssI48
(dp395
I47
(dp396
g302
g303
sssI49
(dp397
I47
(dp398
g302
g303
sssI50
(dp399
I46
(dp400
g302
g303
sssI51
(dp401
I50
(dp402
g302
g303
sssI52
(dp403
I36
(dp404
g302
g303
sssI53
(dp405
I36
(dp406
g302
g303
sssI54
(dp407
I2
(dp408
g302
g303
sssI55
(dp409
I2
(dp410
g302
g303
sssI56
(dp411
I55
(dp412
g302
g303
sssI57
(dp413
I56
(dp414
g302
g303
ssI59
(dp415
g302
g303
sssI58
(dp416
I56
(dp417
g302
g303
ssI59
(dp418
g302
g303
sssI59
(dp419
I55
(dp420
g302
g303
sssI60
(dp421
I59
(dp422
g302
g303
sssI61
(dp423
I60
(dp424
g302
g303
sssI62
(dp425
I60
(dp426
g302
g303
sssI63
(dp427
I60
(dp428
g302
g303
sssI64
(dp429
I60
(dp430
g302
g303
sssI65
(dp431
I60
(dp432
g302
g303
sssI66
(dp433
I60
(dp434
g302
g303
sssI67
(dp435
I60
(dp436
g302
g303
sssI68
(dp437
I60
(dp438
g302
g303
sssI69
(dp439
I68
(dp440
g302
g303
sssI70
(dp441
I68
(dp442
g302
g303
sssI71
(dp443
I68
(dp444
g302
g303
sssI72
(dp445
I68
(dp446
g302
g303
sssI73
(dp447
I57
(dp448
g302
g303
sssI74
(dp449
I57
(dp450
g302
g303
sssI75
(dp451
I57
(dp452
g302
g303
sssI76
(dp453
I58
(dp454
g302
g303
ssI90
(dp455
g302
g303
sssI77
(dp456
I58
(dp457
g302
g303
ssI91
(dp458
g302
g303
sssI78
(dp459
I58
(dp460
g302
g303
sssI79
(dp461
I58
(dp462
g302
g303
sssI80
(dp463
I58
(dp464
g302
g303
sssI81
(dp465
I58
(dp466
g302
g303
ssI91
(dp467
g302
g303
sssI82
(dp468
I58
(dp469
g302
g303
sssI83
(dp470
I58
(dp471
g302
g303
ssI91
(dp472
g302
g303
sssI84
(dp473
I58
(dp474
g302
g303
sssI85
(dp475
I58
(dp476
g302
g303
sssI86
(dp477
I58
(dp478
g302
g303
ssI90
(dp479
g302
g303
sssI87
(dp480
I55
(dp481
g302
g303
sssI88
(dp482
I87
(dp483
g302
g303
sssI89
(dp484
I87
(dp485
g302
g303
sssI90
(dp486
I55
(dp487
g302
g303
sssI91
(dp488
I55
(dp489
g302
g303
ssssS'edge'
p490
g297
sg105
(dp491
sS'adjlist_dict_factory'
p492
g294
sS'adj'
p493
g297
sS'pred'
p494
(dp495
I1
(dp496
sI2
(dp497
I3
g301
sI36
g369
sI54
g408
sI22
g341
sI55
g410
ssI3
(dp498
I9
g315
sI19
g335
sI4
g305
sI7
g311
ssI4
(dp499
I5
g307
sI6
g309
ssI5
(dp500
sI6
(dp501
sI7
(dp502
I8
g313
ssI8
(dp503
sI9
(dp504
I10
g317
sI11
g319
sI12
g321
sI13
g323
sI14
g325
sI15
g327
sI16
g329
sI17
g331
sI18
g333
ssI10
(dp505
sI11
(dp506
sI12
(dp507
sI13
(dp508
sI14
(dp509
sI15
(dp510
sI16
(dp511
sI17
(dp512
sI18
(dp513
sI19
(dp514
I20
g337
sI21
g339
ssI20
(dp515
sI21
(dp516
sI22
(dp517
I33
g363
sI29
g355
sI23
g343
ssI23
(dp518
I24
g345
sI25
g347
sI26
g349
sI27
g351
sI28
g353
ssI24
(dp519
sI25
(dp520
sI26
(dp521
sI27
(dp522
sI28
(dp523
sI29
(dp524
I32
g361
sI30
g357
sI31
g359
ssI30
(dp525
sI31
(dp526
sI32
(dp527
sI33
(dp528
I34
g365
sI35
g367
ssI34
(dp529
sI35
(dp530
sI36
(dp531
I52
g404
sI37
g371
sI46
g392
sI53
g406
ssI37
(dp532
I40
g378
sI41
g380
sI42
g383
sI38
g373
sI39
g376
ssI38
(dp533
sI39
(dp534
sI40
(dp535
sI41
(dp536
sI42
(dp537
I43
g385
sI45
g390
ssI43
(dp538
I44
g387
ssI44
(dp539
sI45
(dp540
I44
g388
ssI46
(dp541
I50
g400
sI47
g394
ssI47
(dp542
I48
g396
sI49
g398
ssI48
(dp543
sI49
(dp544
sI50
(dp545
I51
g402
ssI51
(dp546
sI52
(dp547
sI53
(dp548
I41
g381
sI38
g374
ssI54
(dp549
sI55
(dp550
I56
g412
sI91
g489
sI90
g487
sI59
g420
sI87
g481
ssI56
(dp551
I57
g414
sI58
g417
ssI57
(dp552
I73
g448
sI74
g450
sI75
g452
ssI58
(dp553
I76
g454
sI77
g457
sI78
g460
sI79
g462
sI80
g464
sI81
g466
sI82
g469
sI83
g471
sI84
g474
sI85
g476
sI86
g478
ssI59
(dp554
I57
g415
sI58
g418
sI60
g422
ssI60
(dp555
I64
g430
sI65
g432
sI66
g434
sI67
g436
sI68
g438
sI61
g424
sI62
g426
sI63
g428
ssI61
(dp556
sI62
(dp557
sI63
(dp558
sI64
(dp559
sI65
(dp560
sI66
(dp561
sI67
(dp562
sI68
(dp563
I72
g446
sI69
g440
sI70
g442
sI71
g444
ssI69
(dp564
sI70
(dp565
sI71
(dp566
sI72
(dp567
sI73
(dp568
sI74
(dp569
sI75
(dp570
sI76
(dp571
sI77
(dp572
sI78
(dp573
sI79
(dp574
sI80
(dp575
sI81
(dp576
sI82
(dp577
sI83
(dp578
sI84
(dp579
sI85
(dp580
sI86
(dp581
sI87
(dp582
I88
g483
sI89
g485
ssI88
(dp583
sI89
(dp584
sI90
(dp585
I76
g455
sI86
g479
ssI91
(dp586
I81
g467
sI83
g472
sI77
g458
sssbsS'nodes'
p587
(lp588
g97
ag0
(g95
g2
Ntp589
Rp590
(dp591
g99
g114
sg100
g103
sS'id'
p592
I2
sg75
g114
sbag0
(g95
g2
Ntp593
Rp594
(dp595
g99
g116
sg100
g103
sg592
I3
sg75
g116
sbag0
(g95
g2
Ntp596
Rp597
(dp598
g99
g118
sg100
g103
sg592
I4
sg75
g118
sbag0
(g95
g2
Ntp599
Rp600
(dp601
g99
g120
sg100
g103
sg592
I5
sg75
g120
sbag0
(g95
g2
Ntp602
Rp603
(dp604
g99
g122
sg100
g103
sg592
I6
sg75
g122
sbag0
(g95
g2
Ntp605
Rp606
(dp607
g99
g124
sg100
g103
sg592
I7
sg75
g124
sbag0
(g95
g2
Ntp608
Rp609
(dp610
g99
g126
sg100
g103
sg592
I8
sg75
g126
sbag0
(g95
g2
Ntp611
Rp612
(dp613
g99
g128
sg100
g103
sg592
I9
sg75
g128
sbag0
(g95
g2
Ntp614
Rp615
(dp616
g99
g130
sg100
g103
sg592
I10
sg75
g130
sbag0
(g95
g2
Ntp617
Rp618
(dp619
g99
g132
sg100
g103
sg592
I11
sg75
g132
sbag0
(g95
g2
Ntp620
Rp621
(dp622
g99
g134
sg100
g103
sg592
I12
sg75
g134
sbag0
(g95
g2
Ntp623
Rp624
(dp625
g99
g136
sg100
g103
sg592
I13
sg75
g136
sbag0
(g95
g2
Ntp626
Rp627
(dp628
g99
g138
sg100
g103
sg592
I14
sg75
g138
sbag0
(g95
g2
Ntp629
Rp630
(dp631
g99
g140
sg100
g103
sg592
I15
sg75
g140
sbag0
(g95
g2
Ntp632
Rp633
(dp634
g99
g142
sg100
g103
sg592
I16
sg75
g142
sbag0
(g95
g2
Ntp635
Rp636
(dp637
g99
g144
sg100
g103
sg592
I17
sg75
g144
sbag0
(g95
g2
Ntp638
Rp639
(dp640
g99
g146
sg100
g103
sg592
I18
sg75
g146
sbag0
(g95
g2
Ntp641
Rp642
(dp643
g99
g148
sg100
g103
sg592
I19
sg75
g148
sbag0
(g95
g2
Ntp644
Rp645
(dp646
g99
g150
sg100
g103
sg592
I20
sg75
g150
sbag0
(g95
g2
Ntp647
Rp648
(dp649
g99
g152
sg100
g103
sg592
I21
sg75
g152
sbag0
(g95
g2
Ntp650
Rp651
(dp652
g99
g154
sg100
g103
sg592
I22
sg75
g154
sbag0
(g95
g2
Ntp653
Rp654
(dp655
g99
g156
sg100
g103
sg592
I23
sg75
g156
sbag0
(g95
g2
Ntp656
Rp657
(dp658
g99
g158
sg100
g103
sg592
I24
sg75
g158
sbag0
(g95
g2
Ntp659
Rp660
(dp661
g99
g160
sg100
g103
sg592
I25
sg75
g160
sbag0
(g95
g2
Ntp662
Rp663
(dp664
g99
g162
sg100
g103
sg592
I26
sg75
g162
sbag0
(g95
g2
Ntp665
Rp666
(dp667
g99
g164
sg100
g103
sg592
I27
sg75
g164
sbag0
(g95
g2
Ntp668
Rp669
(dp670
g99
g166
sg100
g103
sg592
I28
sg75
g166
sbag0
(g95
g2
Ntp671
Rp672
(dp673
g99
g168
sg100
g103
sg592
I29
sg75
g168
sbag0
(g95
g2
Ntp674
Rp675
(dp676
g99
g170
sg100
g103
sg592
I30
sg75
g170
sbag0
(g95
g2
Ntp677
Rp678
(dp679
g99
g172
sg100
g103
sg592
I31
sg75
g172
sbag0
(g95
g2
Ntp680
Rp681
(dp682
g99
g174
sg100
g103
sg592
I32
sg75
g174
sbag0
(g95
g2
Ntp683
Rp684
(dp685
g99
g176
sg100
g103
sg592
I33
sg75
g176
sbag0
(g95
g2
Ntp686
Rp687
(dp688
g99
g178
sg100
g103
sg592
I34
sg75
g178
sbag0
(g95
g2
Ntp689
Rp690
(dp691
g99
g180
sg100
g103
sg592
I35
sg75
g180
sbag0
(g95
g2
Ntp692
Rp693
(dp694
g99
g182
sg100
g103
sg592
I36
sg75
g182
sbag0
(g95
g2
Ntp695
Rp696
(dp697
g99
g184
sg100
g103
sg592
I37
sg75
g184
sbag0
(g95
g2
Ntp698
Rp699
(dp700
g99
g186
sg100
g103
sg592
I38
sg75
g186
sbag0
(g95
g2
Ntp701
Rp702
(dp703
g99
g188
sg100
g103
sg592
I39
sg75
g188
sbag0
(g95
g2
Ntp704
Rp705
(dp706
g99
g190
sg100
g103
sg592
I40
sg75
g190
sbag0
(g95
g2
Ntp707
Rp708
(dp709
g99
g192
sg100
g103
sg592
I41
sg75
g192
sbag0
(g95
g2
Ntp710
Rp711
(dp712
g99
g194
sg100
g103
sg592
I42
sg75
g194
sbag0
(g95
g2
Ntp713
Rp714
(dp715
g99
g196
sg100
g103
sg592
I43
sg75
g196
sbag0
(g95
g2
Ntp716
Rp717
(dp718
g99
g198
sg100
g103
sg592
I44
sg75
g198
sbag0
(g95
g2
Ntp719
Rp720
(dp721
g99
g200
sg100
g103
sg592
I45
sg75
g200
sbag0
(g95
g2
Ntp722
Rp723
(dp724
g99
g202
sg100
g103
sg592
I46
sg75
g202
sbag0
(g95
g2
Ntp725
Rp726
(dp727
g99
g204
sg100
g103
sg592
I47
sg75
g204
sbag0
(g95
g2
Ntp728
Rp729
(dp730
g99
g206
sg100
g103
sg592
I48
sg75
g206
sbag0
(g95
g2
Ntp731
Rp732
(dp733
g99
g208
sg100
g103
sg592
I49
sg75
g208
sbag0
(g95
g2
Ntp734
Rp735
(dp736
g99
g210
sg100
g103
sg592
I50
sg75
g210
sbag0
(g95
g2
Ntp737
Rp738
(dp739
g99
g212
sg100
g103
sg592
I51
sg75
g212
sbag0
(g95
g2
Ntp740
Rp741
(dp742
g99
g214
sg100
g103
sg592
I52
sg75
g214
sbag0
(g95
g2
Ntp743
Rp744
(dp745
g99
g216
sg100
g103
sg592
I53
sg75
g216
sbag0
(g95
g2
Ntp746
Rp747
(dp748
g99
g218
sg100
g103
sg592
I54
sg75
g218
sbag0
(g95
g2
Ntp749
Rp750
(dp751
g99
g220
sg100
g103
sg592
I55
sg75
g220
sbag0
(g95
g2
Ntp752
Rp753
(dp754
g99
g222
sg100
g103
sg592
I56
sg75
g222
sbag0
(g95
g2
Ntp755
Rp756
(dp757
g99
g224
sg100
g103
sg592
I57
sg75
g224
sbag0
(g95
g2
Ntp758
Rp759
(dp760
g99
g226
sg100
g103
sg592
I58
sg75
g226
sbag0
(g95
g2
Ntp761
Rp762
(dp763
g99
g228
sg100
g103
sg592
I59
sg75
g228
sbag0
(g95
g2
Ntp764
Rp765
(dp766
g99
g230
sg100
g103
sg592
I60
sg75
g230
sbag0
(g95
g2
Ntp767
Rp768
(dp769
g99
g232
sg100
g103
sg592
I61
sg75
g232
sbag0
(g95
g2
Ntp770
Rp771
(dp772
g99
g234
sg100
g103
sg592
I62
sg75
g234
sbag0
(g95
g2
Ntp773
Rp774
(dp775
g99
g236
sg100
g103
sg592
I63
sg75
g236
sbag0
(g95
g2
Ntp776
Rp777
(dp778
g99
g238
sg100
g103
sg592
I64
sg75
g238
sbag0
(g95
g2
Ntp779
Rp780
(dp781
g99
g240
sg100
g103
sg592
I65
sg75
g240
sbag0
(g95
g2
Ntp782
Rp783
(dp784
g99
g242
sg100
g103
sg592
I66
sg75
g242
sbag0
(g95
g2
Ntp785
Rp786
(dp787
g99
g244
sg100
g103
sg592
I67
sg75
g244
sbag0
(g95
g2
Ntp788
Rp789
(dp790
g99
g246
sg100
g103
sg592
I68
sg75
g246
sbag0
(g95
g2
Ntp791
Rp792
(dp793
g99
g248
sg100
g103
sg592
I69
sg75
g248
sbag0
(g95
g2
Ntp794
Rp795
(dp796
g99
g250
sg100
g103
sg592
I70
sg75
g250
sbag0
(g95
g2
Ntp797
Rp798
(dp799
g99
g252
sg100
g103
sg592
I71
sg75
g252
sbag0
(g95
g2
Ntp800
Rp801
(dp802
g99
g254
sg100
g103
sg592
I72
sg75
g254
sbag0
(g95
g2
Ntp803
Rp804
(dp805
g99
g256
sg100
g103
sg592
I73
sg75
g256
sbag0
(g95
g2
Ntp806
Rp807
(dp808
g99
g258
sg100
g103
sg592
I74
sg75
g258
sbag0
(g95
g2
Ntp809
Rp810
(dp811
g99
g260
sg100
g103
sg592
I75
sg75
g260
sbag0
(g95
g2
Ntp812
Rp813
(dp814
g99
g262
sg100
g103
sg592
I76
sg75
g262
sbag0
(g95
g2
Ntp815
Rp816
(dp817
g99
g264
sg100
g103
sg592
I77
sg75
g264
sbag0
(g95
g2
Ntp818
Rp819
(dp820
g99
g266
sg100
g103
sg592
I78
sg75
g266
sbag0
(g95
g2
Ntp821
Rp822
(dp823
g99
g268
sg100
g103
sg592
I79
sg75
g268
sbag0
(g95
g2
Ntp824
Rp825
(dp826
g99
g270
sg100
g103
sg592
I80
sg75
g270
sbag0
(g95
g2
Ntp827
Rp828
(dp829
g99
g272
sg100
g103
sg592
I81
sg75
g272
sbag0
(g95
g2
Ntp830
Rp831
(dp832
g99
g274
sg100
g103
sg592
I82
sg75
g274
sbag0
(g95
g2
Ntp833
Rp834
(dp835
g99
g276
sg100
g103
sg592
I83
sg75
g276
sbag0
(g95
g2
Ntp836
Rp837
(dp838
g99
g278
sg100
g103
sg592
I84
sg75
g278
sbag0
(g95
g2
Ntp839
Rp840
(dp841
g99
g280
sg100
g103
sg592
I85
sg75
g280
sbag0
(g95
g2
Ntp842
Rp843
(dp844
g99
g282
sg100
g103
sg592
I86
sg75
g282
sbag0
(g95
g2
Ntp845
Rp846
(dp847
g99
g284
sg100
g103
sg592
I87
sg75
g284
sbag0
(g95
g2
Ntp848
Rp849
(dp850
g99
g286
sg100
g103
sg592
I88
sg75
g286
sbag0
(g95
g2
Ntp851
Rp852
(dp853
g99
g288
sg100
g103
sg592
I89
sg75
g288
sbag0
(g95
g2
Ntp854
Rp855
(dp856
g99
g290
sg100
g103
sg592
I90
sg75
g290
sbag0
(g95
g2
Ntp857
Rp858
(dp859
g99
g292
sg100
g103
sg592
I91
sg75
g292
sbasS'edges'
p860
(lp861
g0
(cconcept
SEM_REL
p862
g2
Ntp863
Rp864
(dp865
S'pTo'
p866
g590
sg302
g303
sS'pFrom'
p867
g594
sbag0
(g862
g2
Ntp868
Rp869
(dp870
g866
g594
sg302
g303
sg867
g597
sbag0
(g862
g2
Ntp871
Rp872
(dp873
g866
g597
sg302
g303
sg867
g600
sbag0
(g862
g2
Ntp874
Rp875
(dp876
g866
g597
sg302
g303
sg867
g603
sbag0
(g862
g2
Ntp877
Rp878
(dp879
g866
g594
sg302
g303
sg867
g606
sbag0
(g862
g2
Ntp880
Rp881
(dp882
g866
g606
sg302
g303
sg867
g609
sbag0
(g862
g2
Ntp883
Rp884
(dp885
g866
g594
sg302
g303
sg867
g612
sbag0
(g862
g2
Ntp886
Rp887
(dp888
g866
g612
sg302
g303
sg867
g615
sbag0
(g862
g2
Ntp889
Rp890
(dp891
g866
g612
sg302
g303
sg867
g618
sbag0
(g862
g2
Ntp892
Rp893
(dp894
g866
g612
sg302
g303
sg867
g621
sbag0
(g862
g2
Ntp895
Rp896
(dp897
g866
g612
sg302
g303
sg867
g624
sbag0
(g862
g2
Ntp898
Rp899
(dp900
g866
g612
sg302
g303
sg867
g627
sbag0
(g862
g2
Ntp901
Rp902
(dp903
g866
g612
sg302
g303
sg867
g630
sbag0
(g862
g2
Ntp904
Rp905
(dp906
g866
g612
sg302
g303
sg867
g633
sbag0
(g862
g2
Ntp907
Rp908
(dp909
g866
g612
sg302
g303
sg867
g636
sbag0
(g862
g2
Ntp910
Rp911
(dp912
g866
g612
sg302
g303
sg867
g639
sbag0
(g862
g2
Ntp913
Rp914
(dp915
g866
g594
sg302
g303
sg867
g642
sbag0
(g862
g2
Ntp916
Rp917
(dp918
g866
g642
sg302
g303
sg867
g645
sbag0
(g862
g2
Ntp919
Rp920
(dp921
g866
g642
sg302
g303
sg867
g648
sbag0
(g862
g2
Ntp922
Rp923
(dp924
g866
g590
sg302
g303
sg867
g651
sbag0
(g862
g2
Ntp925
Rp926
(dp927
g866
g651
sg302
g303
sg867
g654
sbag0
(g862
g2
Ntp928
Rp929
(dp930
g866
g654
sg302
g303
sg867
g657
sbag0
(g862
g2
Ntp931
Rp932
(dp933
g866
g654
sg302
g303
sg867
g660
sbag0
(g862
g2
Ntp934
Rp935
(dp936
g866
g654
sg302
g303
sg867
g663
sbag0
(g862
g2
Ntp937
Rp938
(dp939
g866
g654
sg302
g303
sg867
g666
sbag0
(g862
g2
Ntp940
Rp941
(dp942
g866
g654
sg302
g303
sg867
g669
sbag0
(g862
g2
Ntp943
Rp944
(dp945
g866
g651
sg302
g303
sg867
g672
sbag0
(g862
g2
Ntp946
Rp947
(dp948
g866
g672
sg302
g303
sg867
g675
sbag0
(g862
g2
Ntp949
Rp950
(dp951
g866
g672
sg302
g303
sg867
g678
sbag0
(g862
g2
Ntp952
Rp953
(dp954
g866
g672
sg302
g303
sg867
g681
sbag0
(g862
g2
Ntp955
Rp956
(dp957
g866
g651
sg302
g303
sg867
g684
sbag0
(g862
g2
Ntp958
Rp959
(dp960
g866
g684
sg302
g303
sg867
g687
sbag0
(g862
g2
Ntp961
Rp962
(dp963
g866
g684
sg302
g303
sg867
g690
sbag0
(g862
g2
Ntp964
Rp965
(dp966
g866
g590
sg302
g303
sg867
g693
sbag0
(g862
g2
Ntp967
Rp968
(dp969
g866
g693
sg302
g303
sg867
g696
sbag0
(g862
g2
Ntp970
Rp971
(dp972
g866
g696
sg302
g303
sg867
g699
sbag0
(g862
g2
Ntp973
Rp974
(dp975
g866
g696
sg302
g303
sg867
g702
sbag0
(g862
g2
Ntp976
Rp977
(dp978
g866
g696
sg302
g303
sg867
g705
sbag0
(g862
g2
Ntp979
Rp980
(dp981
g866
g696
sg302
g303
sg867
g708
sbag0
(g862
g2
Ntp982
Rp983
(dp984
g866
g696
sg302
g303
sg867
g711
sbag0
(g862
g2
Ntp985
Rp986
(dp987
g866
g711
sg302
g303
sg867
g714
sbag0
(g862
g2
Ntp988
Rp989
(dp990
g866
g714
sg302
g303
sg867
g717
sbag0
(g862
g2
Ntp991
Rp992
(dp993
g866
g711
sg302
g303
sg867
g720
sbag0
(g862
g2
Ntp994
Rp995
(dp996
g866
g720
sg302
g303
sg867
g717
sbag0
(g862
g2
Ntp997
Rp998
(dp999
g866
g693
sg302
g303
sg867
g723
sbag0
(g862
g2
Ntp1000
Rp1001
(dp1002
g866
g723
sg302
g303
sg867
g726
sbag0
(g862
g2
Ntp1003
Rp1004
(dp1005
g866
g726
sg302
g303
sg867
g729
sbag0
(g862
g2
Ntp1006
Rp1007
(dp1008
g866
g726
sg302
g303
sg867
g732
sbag0
(g862
g2
Ntp1009
Rp1010
(dp1011
g866
g723
sg302
g303
sg867
g735
sbag0
(g862
g2
Ntp1012
Rp1013
(dp1014
g866
g735
sg302
g303
sg867
g738
sbag0
(g862
g2
Ntp1015
Rp1016
(dp1017
g866
g693
sg302
g303
sg867
g741
sbag0
(g862
g2
Ntp1018
Rp1019
(dp1020
g866
g693
sg302
g303
sg867
g744
sbag0
(g862
g2
Ntp1021
Rp1022
(dp1023
g866
g744
sg302
g303
sg867
g699
sbag0
(g862
g2
Ntp1024
Rp1025
(dp1026
g866
g744
sg302
g303
sg867
g708
sbag0
(g862
g2
Ntp1027
Rp1028
(dp1029
g866
g590
sg302
g303
sg867
g747
sbag0
(g862
g2
Ntp1030
Rp1031
(dp1032
g866
g590
sg302
g303
sg867
g750
sbag0
(g862
g2
Ntp1033
Rp1034
(dp1035
g866
g750
sg302
g303
sg867
g753
sbag0
(g862
g2
Ntp1036
Rp1037
(dp1038
g866
g753
sg302
g303
sg867
g756
sbag0
(g862
g2
Ntp1039
Rp1040
(dp1041
g866
g753
sg302
g303
sg867
g759
sbag0
(g862
g2
Ntp1042
Rp1043
(dp1044
g866
g750
sg302
g303
sg867
g762
sbag0
(g862
g2
Ntp1045
Rp1046
(dp1047
g866
g762
sg302
g303
sg867
g765
sbag0
(g862
g2
Ntp1048
Rp1049
(dp1050
g866
g765
sg302
g303
sg867
g768
sbag0
(g862
g2
Ntp1051
Rp1052
(dp1053
g866
g765
sg302
g303
sg867
g771
sbag0
(g862
g2
Ntp1054
Rp1055
(dp1056
g866
g765
sg302
g303
sg867
g774
sbag0
(g862
g2
Ntp1057
Rp1058
(dp1059
g866
g765
sg302
g303
sg867
g777
sbag0
(g862
g2
Ntp1060
Rp1061
(dp1062
g866
g765
sg302
g303
sg867
g780
sbag0
(g862
g2
Ntp1063
Rp1064
(dp1065
g866
g765
sg302
g303
sg867
g783
sbag0
(g862
g2
Ntp1066
Rp1067
(dp1068
g866
g765
sg302
g303
sg867
g786
sbag0
(g862
g2
Ntp1069
Rp1070
(dp1071
g866
g765
sg302
g303
sg867
g789
sbag0
(g862
g2
Ntp1072
Rp1073
(dp1074
g866
g789
sg302
g303
sg867
g792
sbag0
(g862
g2
Ntp1075
Rp1076
(dp1077
g866
g789
sg302
g303
sg867
g795
sbag0
(g862
g2
Ntp1078
Rp1079
(dp1080
g866
g789
sg302
g303
sg867
g798
sbag0
(g862
g2
Ntp1081
Rp1082
(dp1083
g866
g789
sg302
g303
sg867
g801
sbag0
(g862
g2
Ntp1084
Rp1085
(dp1086
g866
g762
sg302
g303
sg867
g756
sbag0
(g862
g2
Ntp1087
Rp1088
(dp1089
g866
g756
sg302
g303
sg867
g804
sbag0
(g862
g2
Ntp1090
Rp1091
(dp1092
g866
g756
sg302
g303
sg867
g807
sbag0
(g862
g2
Ntp1093
Rp1094
(dp1095
g866
g756
sg302
g303
sg867
g810
sbag0
(g862
g2
Ntp1096
Rp1097
(dp1098
g866
g762
sg302
g303
sg867
g759
sbag0
(g862
g2
Ntp1099
Rp1100
(dp1101
g866
g759
sg302
g303
sg867
g813
sbag0
(g862
g2
Ntp1102
Rp1103
(dp1104
g866
g759
sg302
g303
sg867
g816
sbag0
(g862
g2
Ntp1105
Rp1106
(dp1107
g866
g759
sg302
g303
sg867
g819
sbag0
(g862
g2
Ntp1108
Rp1109
(dp1110
g866
g759
sg302
g303
sg867
g822
sbag0
(g862
g2
Ntp1111
Rp1112
(dp1113
g866
g759
sg302
g303
sg867
g825
sbag0
(g862
g2
Ntp1114
Rp1115
(dp1116
g866
g759
sg302
g303
sg867
g828
sbag0
(g862
g2
Ntp1117
Rp1118
(dp1119
g866
g759
sg302
g303
sg867
g831
sbag0
(g862
g2
Ntp1120
Rp1121
(dp1122
g866
g759
sg302
g303
sg867
g834
sbag0
(g862
g2
Ntp1123
Rp1124
(dp1125
g866
g759
sg302
g303
sg867
g837
sbag0
(g862
g2
Ntp1126
Rp1127
(dp1128
g866
g759
sg302
g303
sg867
g840
sbag0
(g862
g2
Ntp1129
Rp1130
(dp1131
g866
g759
sg302
g303
sg867
g843
sbag0
(g862
g2
Ntp1132
Rp1133
(dp1134
g866
g750
sg302
g303
sg867
g846
sbag0
(g862
g2
Ntp1135
Rp1136
(dp1137
g866
g846
sg302
g303
sg867
g849
sbag0
(g862
g2
Ntp1138
Rp1139
(dp1140
g866
g846
sg302
g303
sg867
g852
sbag0
(g862
g2
Ntp1141
Rp1142
(dp1143
g866
g750
sg302
g303
sg867
g855
sbag0
(g862
g2
Ntp1144
Rp1145
(dp1146
g866
g855
sg302
g303
sg867
g813
sbag0
(g862
g2
Ntp1147
Rp1148
(dp1149
g866
g855
sg302
g303
sg867
g843
sbag0
(g862
g2
Ntp1150
Rp1151
(dp1152
g866
g750
sg302
g303
sg867
g858
sbag0
(g862
g2
Ntp1153
Rp1154
(dp1155
g866
g858
sg302
g303
sg867
g828
sbag0
(g862
g2
Ntp1156
Rp1157
(dp1158
g866
g858
sg302
g303
sg867
g834
sbag0
(g862
g2
Ntp1159
Rp1160
(dp1161
g866
g858
sg302
g303
sg867
g816
sbasS'neutral'
p1162
g97
sbsg592
I1
sg75
g91
sbssS'model'
p1163
Nsg592
I9
sS'LTM'
p1164
g71
sS'init_act'
p1165
F1.0
sbag0
(clanguage_schemas
CPT_ACTION_SCHEMA
p1166
g2
Ntp1167
Rp1168
(dp1169
g75
g116
sg92
(dp1170
g94
g594
ssg1163
Nsg592
I10
sg1164
g71
sg1165
F1.0
sbag0
(g1166
g2
Ntp1171
Rp1172
(dp1173
g75
g118
sg92
(dp1174
g94
g597
ssg1163
Nsg592
I11
sg1164
g71
sg1165
F1.0
sbag0
(g1166
g2
Ntp1175
Rp1176
(dp1177
g75
g120
sg92
(dp1178
g94
g600
ssg1163
Nsg592
I12
sg1164
g71
sg1165
F1.0
sbag0
(g1166
g2
Ntp1179
Rp1180
(dp1181
g75
g122
sg92
(dp1182
g94
g603
ssg1163
Nsg592
I13
sg1164
g71
sg1165
F1.0
sbag0
(g1166
g2
Ntp1183
Rp1184
(dp1185
g75
g124
sg92
(dp1186
g94
g606
ssg1163
Nsg592
I14
sg1164
g71
sg1165
F1.0
sbag0
(g1166
g2
Ntp1187
Rp1188
(dp1189
g75
g126
sg92
(dp1190
g94
g609
ssg1163
Nsg592
I15
sg1164
g71
sg1165
F1.0
sbag0
(g1166
g2
Ntp1191
Rp1192
(dp1193
g75
g128
sg92
(dp1194
g94
g612
ssg1163
Nsg592
I16
sg1164
g71
sg1165
F1.0
sbag0
(g1166
g2
Ntp1195
Rp1196
(dp1197
g75
g130
sg92
(dp1198
g94
g615
ssg1163
Nsg592
I17
sg1164
g71
sg1165
F1.0
sbag0
(g1166
g2
Ntp1199
Rp1200
(dp1201
g75
g132
sg92
(dp1202
g94
g618
ssg1163
Nsg592
I18
sg1164
g71
sg1165
F1.0
sbag0
(g1166
g2
Ntp1203
Rp1204
(dp1205
g75
g134
sg92
(dp1206
g94
g621
ssg1163
Nsg592
I19
sg1164
g71
sg1165
F1.0
sbag0
(g1166
g2
Ntp1207
Rp1208
(dp1209
g75
g136
sg92
(dp1210
g94
g624
ssg1163
Nsg592
I20
sg1164
g71
sg1165
F1.0
sbag0
(g1166
g2
Ntp1211
Rp1212
(dp1213
g75
g138
sg92
(dp1214
g94
g627
ssg1163
Nsg592
I21
sg1164
g71
sg1165
F1.0
sbag0
(g1166
g2
Ntp1215
Rp1216
(dp1217
g75
g140
sg92
(dp1218
g94
g630
ssg1163
Nsg592
I22
sg1164
g71
sg1165
F1.0
sbag0
(g1166
g2
Ntp1219
Rp1220
(dp1221
g75
g142
sg92
(dp1222
g94
g633
ssg1163
Nsg592
I23
sg1164
g71
sg1165
F1.0
sbag0
(g1166
g2
Ntp1223
Rp1224
(dp1225
g75
g144
sg92
(dp1226
g94
g636
ssg1163
Nsg592
I24
sg1164
g71
sg1165
F1.0
sbag0
(g1166
g2
Ntp1227
Rp1228
(dp1229
g75
g146
sg92
(dp1230
g94
g639
ssg1163
Nsg592
I25
sg1164
g71
sg1165
F1.0
sbag0
(g1166
g2
Ntp1231
Rp1232
(dp1233
g75
g148
sg92
(dp1234
g94
g642
ssg1163
Nsg592
I26
sg1164
g71
sg1165
F1.0
sbag0
(g1166
g2
Ntp1235
Rp1236
(dp1237
g75
g150
sg92
(dp1238
g94
g645
ssg1163
Nsg592
I27
sg1164
g71
sg1165
F1.0
sbag0
(g1166
g2
Ntp1239
Rp1240
(dp1241
g75
g152
sg92
(dp1242
g94
g648
ssg1163
Nsg592
I28
sg1164
g71
sg1165
F1.0
sbag0
(clanguage_schemas
CPT_PROPERTY_SCHEMA
p1243
g2
Ntp1244
Rp1245
(dp1246
g75
g154
sg92
(dp1247
g94
g651
ssg1163
Nsg592
I29
sg1164
g71
sg1165
F1.0
sbag0
(g1243
g2
Ntp1248
Rp1249
(dp1250
g75
g156
sg92
(dp1251
g94
g654
ssg1163
Nsg592
I30
sg1164
g71
sg1165
F1.0
sbag0
(g1243
g2
Ntp1252
Rp1253
(dp1254
g75
g158
sg92
(dp1255
g94
g657
ssg1163
Nsg592
I31
sg1164
g71
sg1165
F1.0
sbag0
(g1243
g2
Ntp1256
Rp1257
(dp1258
g75
g160
sg92
(dp1259
g94
g660
ssg1163
Nsg592
I32
sg1164
g71
sg1165
F1.0
sbag0
(g1243
g2
Ntp1260
Rp1261
(dp1262
g75
g162
sg92
(dp1263
g94
g663
ssg1163
Nsg592
I33
sg1164
g71
sg1165
F1.0
sbag0
(g1243
g2
Ntp1264
Rp1265
(dp1266
g75
g164
sg92
(dp1267
g94
g666
ssg1163
Nsg592
I34
sg1164
g71
sg1165
F1.0
sbag0
(g1243
g2
Ntp1268
Rp1269
(dp1270
g75
g166
sg92
(dp1271
g94
g669
ssg1163
Nsg592
I35
sg1164
g71
sg1165
F1.0
sbag0
(g1243
g2
Ntp1272
Rp1273
(dp1274
g75
g168
sg92
(dp1275
g94
g672
ssg1163
Nsg592
I36
sg1164
g71
sg1165
F1.0
sbag0
(g1243
g2
Ntp1276
Rp1277
(dp1278
g75
g170
sg92
(dp1279
g94
g675
ssg1163
Nsg592
I37
sg1164
g71
sg1165
F1.0
sbag0
(g1243
g2
Ntp1280
Rp1281
(dp1282
g75
g172
sg92
(dp1283
g94
g678
ssg1163
Nsg592
I38
sg1164
g71
sg1165
F1.0
sbag0
(g1243
g2
Ntp1284
Rp1285
(dp1286
g75
g174
sg92
(dp1287
g94
g681
ssg1163
Nsg592
I39
sg1164
g71
sg1165
F1.0
sbag0
(g1243
g2
Ntp1288
Rp1289
(dp1290
g75
g176
sg92
(dp1291
g94
g684
ssg1163
Nsg592
I40
sg1164
g71
sg1165
F1.0
sbag0
(g1243
g2
Ntp1292
Rp1293
(dp1294
g75
g178
sg92
(dp1295
g94
g687
ssg1163
Nsg592
I41
sg1164
g71
sg1165
F1.0
sbag0
(g1243
g2
Ntp1296
Rp1297
(dp1298
g75
g180
sg92
(dp1299
g94
g690
ssg1163
Nsg592
I42
sg1164
g71
sg1165
F1.0
sbag0
(clanguage_schemas
CPT_RELATION_SCHEMA
p1300
g2
Ntp1301
Rp1302
(dp1303
g75
g182
sg92
(dp1304
g866
Nsg94
g693
sg867
Nssg1163
Nsg592
I43
sg1164
g71
sg1165
F1.0
sbag0
(g1300
g2
Ntp1305
Rp1306
(dp1307
g75
g184
sg92
(dp1308
g866
Nsg94
g696
sg867
Nssg1163
Nsg592
I44
sg1164
g71
sg1165
F1.0
sbag0
(g1300
g2
Ntp1309
Rp1310
(dp1311
g75
g186
sg92
(dp1312
g866
Nsg94
g699
sg867
Nssg1163
Nsg592
I45
sg1164
g71
sg1165
F1.0
sbag0
(g1300
g2
Ntp1313
Rp1314
(dp1315
g75
g188
sg92
(dp1316
g866
Nsg94
g702
sg867
Nssg1163
Nsg592
I46
sg1164
g71
sg1165
F1.0
sbag0
(g1300
g2
Ntp1317
Rp1318
(dp1319
g75
g190
sg92
(dp1320
g866
Nsg94
g705
sg867
Nssg1163
Nsg592
I47
sg1164
g71
sg1165
F1.0
sbag0
(g1300
g2
Ntp1321
Rp1322
(dp1323
g75
g192
sg92
(dp1324
g866
Nsg94
g708
sg867
Nssg1163
Nsg592
I48
sg1164
g71
sg1165
F1.0
sbag0
(g1300
g2
Ntp1325
Rp1326
(dp1327
g75
g194
sg92
(dp1328
g866
Nsg94
g711
sg867
Nssg1163
Nsg592
I49
sg1164
g71
sg1165
F1.0
sbag0
(g1300
g2
Ntp1329
Rp1330
(dp1331
g75
g196
sg92
(dp1332
g866
Nsg94
g714
sg867
Nssg1163
Nsg592
I50
sg1164
g71
sg1165
F1.0
sbag0
(g1300
g2
Ntp1333
Rp1334
(dp1335
g75
g198
sg92
(dp1336
g866
Nsg94
g717
sg867
Nssg1163
Nsg592
I51
sg1164
g71
sg1165
F1.0
sbag0
(g1300
g2
Ntp1337
Rp1338
(dp1339
g75
g200
sg92
(dp1340
g866
Nsg94
g720
sg867
Nssg1163
Nsg592
I52
sg1164
g71
sg1165
F1.0
sbag0
(g1300
g2
Ntp1341
Rp1342
(dp1343
g75
g202
sg92
(dp1344
g866
Nsg94
g723
sg867
Nssg1163
Nsg592
I53
sg1164
g71
sg1165
F1.0
sbag0
(g1300
g2
Ntp1345
Rp1346
(dp1347
g75
g204
sg92
(dp1348
g866
Nsg94
g726
sg867
Nssg1163
Nsg592
I54
sg1164
g71
sg1165
F1.0
sbag0
(g1300
g2
Ntp1349
Rp1350
(dp1351
g75
g206
sg92
(dp1352
g866
Nsg94
g729
sg867
Nssg1163
Nsg592
I55
sg1164
g71
sg1165
F1.0
sbag0
(g1300
g2
Ntp1353
Rp1354
(dp1355
g75
g208
sg92
(dp1356
g866
Nsg94
g732
sg867
Nssg1163
Nsg592
I56
sg1164
g71
sg1165
F1.0
sbag0
(g1300
g2
Ntp1357
Rp1358
(dp1359
g75
g210
sg92
(dp1360
g866
Nsg94
g735
sg867
Nssg1163
Nsg592
I57
sg1164
g71
sg1165
F1.0
sbag0
(g1300
g2
Ntp1361
Rp1362
(dp1363
g75
g212
sg92
(dp1364
g866
Nsg94
g738
sg867
Nssg1163
Nsg592
I58
sg1164
g71
sg1165
F1.0
sbag0
(g1300
g2
Ntp1365
Rp1366
(dp1367
g75
g214
sg92
(dp1368
g866
Nsg94
g741
sg867
Nssg1163
Nsg592
I59
sg1164
g71
sg1165
F1.0
sbag0
(g1300
g2
Ntp1369
Rp1370
(dp1371
g75
g216
sg92
(dp1372
g866
Nsg94
g744
sg867
Nssg1163
Nsg592
I60
sg1164
g71
sg1165
F1.0
sbag0
(g87
g2
Ntp1373
Rp1374
(dp1375
g75
g218
sg92
(dp1376
g94
g747
ssg1163
Nsg592
I61
sg1164
g71
sg1165
F1.0
sbag0
(clanguage_schemas
CPT_ENTITY_SCHEMA
p1377
g2
Ntp1378
Rp1379
(dp1380
g75
g220
sg92
(dp1381
g94
g750
ssg1163
Nsg592
I62
sg1164
g71
sg1165
F1.0
sbag0
(g1377
g2
Ntp1382
Rp1383
(dp1384
g75
g222
sg92
(dp1385
g94
g753
ssg1163
Nsg592
I63
sg1164
g71
sg1165
F1.0
sbag0
(g1377
g2
Ntp1386
Rp1387
(dp1388
g75
g224
sg92
(dp1389
g94
g756
ssg1163
Nsg592
I64
sg1164
g71
sg1165
F1.0
sbag0
(g1377
g2
Ntp1390
Rp1391
(dp1392
g75
g226
sg92
(dp1393
g94
g759
ssg1163
Nsg592
I65
sg1164
g71
sg1165
F1.0
sbag0
(g1377
g2
Ntp1394
Rp1395
(dp1396
g75
g228
sg92
(dp1397
g94
g762
ssg1163
Nsg592
I66
sg1164
g71
sg1165
F1.0
sbag0
(g1377
g2
Ntp1398
Rp1399
(dp1400
g75
g230
sg92
(dp1401
g94
g765
ssg1163
Nsg592
I67
sg1164
g71
sg1165
F1.0
sbag0
(g1377
g2
Ntp1402
Rp1403
(dp1404
g75
g232
sg92
(dp1405
g94
g768
ssg1163
Nsg592
I68
sg1164
g71
sg1165
F1.0
sbag0
(g1377
g2
Ntp1406
Rp1407
(dp1408
g75
g234
sg92
(dp1409
g94
g771
ssg1163
Nsg592
I69
sg1164
g71
sg1165
F1.0
sbag0
(g1377
g2
Ntp1410
Rp1411
(dp1412
g75
g236
sg92
(dp1413
g94
g774
ssg1163
Nsg592
I70
sg1164
g71
sg1165
F1.0
sbag0
(g1377
g2
Ntp1414
Rp1415
(dp1416
g75
g238
sg92
(dp1417
g94
g777
ssg1163
Nsg592
I71
sg1164
g71
sg1165
F1.0
sbag0
(g1377
g2
Ntp1418
Rp1419
(dp1420
g75
g240
sg92
(dp1421
g94
g780
ssg1163
Nsg592
I72
sg1164
g71
sg1165
F1.0
sbag0
(g1377
g2
Ntp1422
Rp1423
(dp1424
g75
g242
sg92
(dp1425
g94
g783
ssg1163
Nsg592
I73
sg1164
g71
sg1165
F1.0
sbag0
(g1377
g2
Ntp1426
Rp1427
(dp1428
g75
g244
sg92
(dp1429
g94
g786
ssg1163
Nsg592
I74
sg1164
g71
sg1165
F1.0
sbag0
(g1377
g2
Ntp1430
Rp1431
(dp1432
g75
g246
sg92
(dp1433
g94
g789
ssg1163
Nsg592
I75
sg1164
g71
sg1165
F1.0
sbag0
(g1377
g2
Ntp1434
Rp1435
(dp1436
g75
g248
sg92
(dp1437
g94
g792
ssg1163
Nsg592
I76
sg1164
g71
sg1165
F1.0
sbag0
(g1377
g2
Ntp1438
Rp1439
(dp1440
g75
g250
sg92
(dp1441
g94
g795
ssg1163
Nsg592
I77
sg1164
g71
sg1165
F1.0
sbag0
(g1377
g2
Ntp1442
Rp1443
(dp1444
g75
g252
sg92
(dp1445
g94
g798
ssg1163
Nsg592
I78
sg1164
g71
sg1165
F1.0
sbag0
(g1377
g2
Ntp1446
Rp1447
(dp1448
g75
g254
sg92
(dp1449
g94
g801
ssg1163
Nsg592
I79
sg1164
g71
sg1165
F1.0
sbag0
(g1377
g2
Ntp1450
Rp1451
(dp1452
g75
g256
sg92
(dp1453
g94
g804
ssg1163
Nsg592
I80
sg1164
g71
sg1165
F1.0
sbag0
(g1377
g2
Ntp1454
Rp1455
(dp1456
g75
g258
sg92
(dp1457
g94
g807
ssg1163
Nsg592
I81
sg1164
g71
sg1165
F1.0
sbag0
(g1377
g2
Ntp1458
Rp1459
(dp1460
g75
g260
sg92
(dp1461
g94
g810
ssg1163
Nsg592
I82
sg1164
g71
sg1165
F1.0
sbag0
(g1377
g2
Ntp1462
Rp1463
(dp1464
g75
g262
sg92
(dp1465
g94
g813
ssg1163
Nsg592
I83
sg1164
g71
sg1165
F1.0
sbag0
(g1377
g2
Ntp1466
Rp1467
(dp1468
g75
g264
sg92
(dp1469
g94
g816
ssg1163
Nsg592
I84
sg1164
g71
sg1165
F1.0
sbag0
(g1377
g2
Ntp1470
Rp1471
(dp1472
g75
g266
sg92
(dp1473
g94
g819
ssg1163
Nsg592
I85
sg1164
g71
sg1165
F1.0
sbag0
(g1377
g2
Ntp1474
Rp1475
(dp1476
g75
g268
sg92
(dp1477
g94
g822
ssg1163
Nsg592
I86
sg1164
g71
sg1165
F1.0
sbag0
(g1377
g2
Ntp1478
Rp1479
(dp1480
g75
g270
sg92
(dp1481
g94
g825
ssg1163
Nsg592
I87
sg1164
g71
sg1165
F1.0
sbag0
(g1377
g2
Ntp1482
Rp1483
(dp1484
g75
g272
sg92
(dp1485
g94
g828
ssg1163
Nsg592
I88
sg1164
g71
sg1165
F1.0
sbag0
(g1377
g2
Ntp1486
Rp1487
(dp1488
g75
g274
sg92
(dp1489
g94
g831
ssg1163
Nsg592
I89
sg1164
g71
sg1165
F1.0
sbag0
(g1377
g2
Ntp1490
Rp1491
(dp1492
g75
g276
sg92
(dp1493
g94
g834
ssg1163
Nsg592
I90
sg1164
g71
sg1165
F1.0
sbag0
(g1377
g2
Ntp1494
Rp1495
(dp1496
g75
g278
sg92
(dp1497
g94
g837
ssg1163
Nsg592
I91
sg1164
g71
sg1165
F1.0
sbag0
(g1377
g2
Ntp1498
Rp1499
(dp1500
g75
g280
sg92
(dp1501
g94
g840
ssg1163
Nsg592
I92
sg1164
g71
sg1165
F1.0
sbag0
(g1377
g2
Ntp1502
Rp1503
(dp1504
g75
g282
sg92
(dp1505
g94
g843
ssg1163
Nsg592
I93
sg1164
g71
sg1165
F1.0
sbag0
(g1377
g2
Ntp1506
Rp1507
(dp1508
g75
g284
sg92
(dp1509
g94
g846
ssg1163
Nsg592
I94
sg1164
g71
sg1165
F1.0
sbag0
(g1377
g2
Ntp1510
Rp1511
(dp1512
g75
g286
sg92
(dp1513
g94
g849
ssg1163
Nsg592
I95
sg1164
g71
sg1165
F1.0
sbag0
(g1377
g2
Ntp1514
Rp1515
(dp1516
g75
g288
sg92
(dp1517
g94
g852
ssg1163
Nsg592
I96
sg1164
g71
sg1165
F1.0
sbag0
(g1377
g2
Ntp1518
Rp1519
(dp1520
g75
g290
sg92
(dp1521
g94
g855
ssg1163
Nsg592
I97
sg1164
g71
sg1165
F1.0
sbag0
(g1377
g2
Ntp1522
Rp1523
(dp1524
g75
g292
sg92
(dp1525
g94
g858
ssg1163
Nsg592
I98
sg1164
g71
sg1165
F1.0
sbasg302
S'OUT'
p1526
sg592
I11
sS'schema'
p1527
g71
sbag0
(g79
g2
Ntp1528
Rp1529
(dp1530
g75
S'to_semantic_WM'
p1531
sg84
Nsg85
g86
sg302
g1526
sg592
I12
sg1527
g71
sbasS'outputs'
p1532
(dp1533
g83
Nsg1531
NssS'connections'
p1534
(lp1535
sS'cpt_knowledge'
p1536
g103
sS'dt'
p1537
F1.0
sS'in_ports'
p1538
(lp1539
sS'params'
p1540
(dp1541
g1165
F1.0
ssS't'
p1542
I0
sS'activity'
p1543
I0
sg1163
g0
(cschema_theory
MODEL
p1544
g2
Ntp1545
Rp1546
(dp1547
S'verbose'
p1548
I00
sg75
S'language_system_P'
p1549
sS'sim_data'
p1550
(dp1551
S'system_states'
p1552
(dp1553
sg1163
(dp1554
ssg1532
(dp1555
sS'input_ports'
p1556
(lp1557
g0
(g79
g2
Ntp1558
Rp1559
(dp1560
g75
S'from_conceptualizer'
p1561
sg84
Nsg85
Nsg302
S'IN'
p1562
sg592
I1
sg1527
g0
(clanguage_schemas
SEMANTIC_WM
p1563
g2
Ntp1564
Rp1565
(dp1566
g73
(dp1567
S'from_grammatical_WM_P'
p1568
NsS'from_concept_LTM'
p1569
NsS'from_control'
p1570
NsS'from_grammatical_WM_C'
p1571
Nsg1561
NssS'schema_insts'
p1572
(lp1573
sg75
S'Semantic_WM'
p1574
sS'comp_links'
p1575
(lp1576
sg77
(lp1577
g0
(g79
g2
Ntp1578
Rp1579
(dp1580
S'port_data'
p1581
Nsg75
S'to_grammatical_WM_P'
p1582
sg84
Nsg85
NsS'port_value'
p1583
Nsg302
g1526
sg592
I6
sg1527
g1565
sbag0
(g79
g2
Ntp1584
Rp1585
(dp1586
g1581
Nsg75
S'to_cxn_retrieval_P'
p1587
sg84
Nsg85
Nsg1583
Nsg302
g1526
sg592
I7
sg1527
g1565
sbag0
(g79
g2
Ntp1588
Rp1589
(dp1590
g1581
Nsg75
S'to_control'
p1591
sg84
Nsg85
Nsg1583
Nsg302
g1526
sg592
I8
sg1527
g1565
sbag0
(g79
g2
Ntp1592
Rp1593
(dp1594
g75
S'to_visual_WM'
p1595
sg84
Nsg85
Nsg302
g1526
sg592
I9
sg1527
g1565
sbag0
(g79
g2
Ntp1596
Rp1597
(dp1598
g75
S'to_output'
p1599
sg84
Nsg85
Nsg302
g1526
sg592
I10
sg1527
g1565
sbasg1532
(dp1600
g1599
Nsg1582
Nsg1595
Nsg1587
Nsg1591
Nssg1537
F1.0
sS'coop_links'
p1601
(lp1602
sg1538
(lp1603
g1559
ag0
(g79
g2
Ntp1604
Rp1605
(dp1606
g75
g1569
sg84
Nsg85
Nsg302
g1562
sg592
I2
sg1527
g1565
sbag0
(g79
g2
Ntp1607
Rp1608
(dp1609
g75
g1571
sg84
Nsg85
Nsg302
g1562
sg592
I3
sg1527
g1565
sbag0
(g79
g2
Ntp1610
Rp1611
(dp1612
g1581
Nsg75
g1568
sg84
Nsg85
Nsg1583
Nsg302
g1562
sg592
I4
sg1527
g1565
sbag0
(g79
g2
Ntp1613
Rp1614
(dp1615
g1581
Nsg75
g1570
sg84
Nsg85
S'produce'
p1616
sg1583
Nsg302
g1562
sg592
I5
sg1527
g1565
sbasS'save_state'
p1617
(dp1618
S'insts'
p1619
(dp1620
sS'WM_activity'
p1621
(dp1622
S'comp'
p1623
(lp1624
sS'c2_network'
p1625
(dp1626
S'num_insts'
p1627
(lp1628
sS'num_coop_links'
p1629
(lp1630
sS'num_comp_links'
p1631
(lp1632
ssS'coop'
p1633
(lp1634
sg1542
(lp1635
sS'act'
p1636
(lp1637
sssg1540
(dp1638
S'C2'
p1639
(dp1640
S'P_comp'
p1641
F1.0
sS'max_capacity'
p1642
NsS'comp_weight'
p1643
F0.0
sS'P_coop'
p1644
F1.0
sS'coop_asymmetry'
p1645
F1.0
sS'coop_weight'
p1646
F0.0
sS'confidence_threshold'
p1647
F0.0
sS'comp_asymmetry'
p1648
F0.0
sS'prune_threshold'
p1649
F0.01
ssS'dyn'
p1650
(dp1651
S'tau'
p1652
F10000.0
sS'k'
p1653
F10.0
sS'act_rest'
p1654
F0.001
sS'noise_mean'
p1655
F0.0
sS'noise_std'
p1656
F1.0
sS'ext_weight'
p1657
F1.0
sS'int_weight'
p1658
F1.0
sssg1542
I0
sg1543
I0
sg1163
g1546
sS'SemRep'
p1659
g0
(g106
g2
Ntp1660
Rp1661
(dp1662
g110
(dp1663
sg293
g294
sg295
g294
sg296
(dp1664
sg490
g1664
sg105
(dp1665
sg492
g294
sg493
g1664
sg494
(dp1666
sbsg592
I1
sbsbasS'brain_mapping'
p1667
g0
(cschema_theory
BRAIN_MAPPING
p1668
g2
Ntp1669
Rp1670
(dp1671
S'schema_mapping'
p1672
(dp1673
S'Control'
p1674
(lp1675
S'DLPFC'
p1676
asS'Utter'
p1677
(lp1678
S''
p1679
asg1574
(lp1680
S'left_SFG'
p1681
aS'LIP'
p1682
aS'Hippocampus'
p1683
asS'Phonological_WM_P'
p1684
(lp1685
S'left_BA6'
p1686
asg76
(lp1687
g1679
asS'Grammatical_WM_P'
p1688
(lp1689
S'left_BA45'
p1690
aS'leftBA44'
p1691
asS'Grammatical_LTM'
p1692
(lp1693
S'left_STG'
p1694
aS'left_MTG'
p1695
asS'Cxn_retrieval_P'
p1696
(lp1697
ssS'connect_mapping'
p1698
(dp1699
sbsg1534
(lp1700
g0
(cschema_theory
CONNECT
p1701
g2
Ntp1702
Rp1703
(dp1704
S'delay'
p1705
I0
sg75
g1679
sS'weight'
p1706
I0
sS'port_to'
p1707
g0
(g79
g2
Ntp1708
Rp1709
(dp1710
g1581
Nsg75
S'from_semantic_WM'
p1711
sg84
Nsg85
Nsg1583
Nsg302
g1562
sg592
I23
sg1527
g0
(clanguage_schemas
CXN_RETRIEVAL_P
p1712
g2
Ntp1713
Rp1714
(dp1715
g73
(dp1716
g1711
NsS'from_grammatical_LTM'
p1717
Nssg75
g1696
sg77
(lp1718
g0
(g79
g2
Ntp1719
Rp1720
(dp1721
g1581
Nsg75
g1582
sg84
Nsg85
Nsg1583
Nsg302
g1526
sg592
I24
sg1527
g1714
sbasg1532
(dp1722
g1582
NssS'cxn_instances'
p1723
(lp1724
sg1537
F1.0
sg1538
(lp1725
g0
(g79
g2
Ntp1726
Rp1727
(dp1728
g1581
Nsg75
g1717
sg84
Nsg85
(lp1729
g0
(clanguage_schemas
CXN_SCHEMA
p1730
g2
Ntp1731
Rp1732
(dp1733
g75
VCNJ_AND
p1734
sg92
(iconstruction
CXN
p1735
(dp1736
S'SymLinks'
p1737
(iconstruction
TP_SYMLINKS
p1738
(dp1739
S'SL'
p1740
(dp1741
VEVT1_4
p1742
VS1_6
p1743
sVEVT2_5
p1744
VS3_8
p1745
ssg592
I3
sg75
g1679
sbsS'clss'
p1746
VD
p1747
sS'group'
p1748
I3
sg75
g1734
sS'SemFrame'
p1749
(iconstruction
TP_SEMFRAME
p1750
(dp1751
g105
g0
(g106
g2
Ntp1752
Rp1753
(dp1754
g110
(dp1755
(iconstruction
TP_NODE
p1756
(dp1757
S'head'
p1758
I00
sg94
g747
sg75
g1742
sS'frame'
p1759
I00
sS'focus'
p1760
I01
sg592
I4
sb(dp1761
g1759
I00
sg94
g747
ss(iconstruction
TP_NODE
p1762
(dp1763
g1758
I00
sg94
g747
sg75
g1744
sg1759
I00
sg1760
I00
sg592
I5
sb(dp1764
g1759
I00
sg94
g747
sssg293
g294
sg295
g294
sg296
(dp1765
g1756
(dp1766
sg1762
(dp1767
ssg490
g1765
sg105
(dp1768
sg492
g294
sg493
g1765
sg494
(dp1769
g1756
(dp1770
sg1762
(dp1771
ssbsg587
(lp1772
g1756
ag1762
asg860
(lp1773
sg592
I1
sg75
g1679
sbsS'SynForm'
p1774
(iconstruction
TP_SYNFORM
p1775
(dp1776
g592
I2
sS'form'
p1777
(lp1778
(iconstruction
TP_SLOT
p1779
(dp1780
S'cxn_classes'
p1781
(lp1782
VS
p1783
asS'order'
p1784
I0
sg592
I6
sg75
g1743
sba(iconstruction
TP_PHON
p1785
(dp1786
S'num_syllables'
p1787
I3
sg1784
I1
sg592
I7
sS'cxn_phonetics'
p1788
Vand
p1789
sg75
VS2_7
p1790
sba(iconstruction
TP_SLOT
p1791
(dp1792
g1781
(lp1793
VS
p1794
asg1784
I2
sg592
I8
sg75
g1745
sbasg75
g1679
sbsS'preference'
p1795
I1
sbsg1163
Nsg592
I99
sg1164
g0
(clanguage_schemas
GRAMMATICAL_LTM
p1796
g2
Ntp1797
Rp1798
(dp1799
g73
(dp1800
sS'grammar'
p1801
(iconstruction
GRAMMAR
p1802
(dp1803
S'constructions'
p1804
(lp1805
g1735
a(iconstruction
CXN
p1806
(dp1807
g1737
(iconstruction
TP_SYMLINKS
p1808
(dp1809
g1740
(dp1810
VEVT2_13
p1811
VS3_17
p1812
sVEVT1_12
p1813
VS1_15
p1814
ssg592
I11
sg75
g1679
sbsg1746
VD
p1815
sg1748
I3
sg75
VCNJ_THEN
p1816
sg1749
(iconstruction
TP_SEMFRAME
p1817
(dp1818
g105
g0
(g106
g2
Ntp1819
Rp1820
(dp1821
g110
(dp1822
(iconstruction
TP_NODE
p1823
(dp1824
g1758
I00
sg94
g747
sg75
g1813
sg1759
I00
sg1760
I00
sg592
I12
sb(dp1825
g1759
I00
sg94
g747
ss(iconstruction
TP_NODE
p1826
(dp1827
g1758
I00
sg94
g747
sg75
g1811
sg1759
I00
sg1760
I00
sg592
I13
sb(dp1828
g1759
I00
sg94
g747
sssg293
g294
sg295
g294
sg296
(dp1829
g1823
(dp1830
g1826
(dp1831
g94
g732
sssg1826
(dp1832
ssg490
g1829
sg105
(dp1833
sg492
g294
sg493
g1829
sg494
(dp1834
g1823
(dp1835
sg1826
(dp1836
g1823
g1831
sssbsg587
(lp1837
g1823
ag1826
asg860
(lp1838
(iconstruction
TP_REL
p1839
(dp1840
g866
g1826
sg94
g732
sg592
I14
sg867
g1823
sg75
VEVT1_EVT2_14
p1841
sbasg592
I9
sg75
g1679
sbsg1774
(iconstruction
TP_SYNFORM
p1842
(dp1843
g592
I10
sg1777
(lp1844
(iconstruction
TP_SLOT
p1845
(dp1846
g1781
(lp1847
VS
p1848
asg1784
I0
sg592
I15
sg75
g1814
sba(iconstruction
TP_PHON
p1849
(dp1850
g1787
I4
sg1784
I1
sg592
I16
sg1788
Vthen
p1851
sg75
VS2_16
p1852
sba(iconstruction
TP_SLOT
p1853
(dp1854
g1781
(lp1855
VS
p1856
asg1784
I2
sg592
I17
sg75
g1812
sbasg75
g1679
sbsg1795
I1
sba(iconstruction
CXN
p1857
(dp1858
g1737
(iconstruction
TP_SYMLINKS
p1859
(dp1860
g1740
(dp1861
VEVT2_22
p1862
VS3_26
p1863
sVEVT1_21
p1864
VS1_24
p1865
ssg592
I20
sg75
g1679
sbsg1746
VD
p1866
sg1748
I3
sg75
VCNJ_WHILE
p1867
sg1749
(iconstruction
TP_SEMFRAME
p1868
(dp1869
g105
g0
(g106
g2
Ntp1870
Rp1871
(dp1872
g110
(dp1873
(iconstruction
TP_NODE
p1874
(dp1875
g1758
I00
sg94
g747
sg75
g1862
sg1759
I00
sg1760
I00
sg592
I22
sb(dp1876
g1759
I00
sg94
g747
ss(iconstruction
TP_NODE
p1877
(dp1878
g1758
I00
sg94
g747
sg75
g1864
sg1759
I00
sg1760
I01
sg592
I21
sb(dp1879
g1759
I00
sg94
g747
sssg293
g294
sg295
g294
sg296
(dp1880
g1874
(dp1881
sg1877
(dp1882
g1874
(dp1883
g94
g729
ssssg490
g1880
sg105
(dp1884
sg492
g294
sg493
g1880
sg494
(dp1885
g1874
(dp1886
g1877
g1883
ssg1877
(dp1887
ssbsg587
(lp1888
g1877
ag1874
asg860
(lp1889
(iconstruction
TP_REL
p1890
(dp1891
g866
g1874
sg94
g729
sg592
I23
sg867
g1877
sg75
VEVT1_EVT2_23
p1892
sbasg592
I18
sg75
g1679
sbsg1774
(iconstruction
TP_SYNFORM
p1893
(dp1894
g592
I19
sg1777
(lp1895
(iconstruction
TP_SLOT
p1896
(dp1897
g1781
(lp1898
VS
p1899
asg1784
I0
sg592
I24
sg75
g1865
sba(iconstruction
TP_PHON
p1900
(dp1901
g1787
I5
sg1784
I1
sg592
I25
sg1788
Vwhile
p1902
sg75
VS2_25
p1903
sba(iconstruction
TP_SLOT
p1904
(dp1905
g1781
(lp1906
VS
p1907
asg1784
I2
sg592
I26
sg75
g1863
sbasg75
g1679
sbsg1795
I1
sba(iconstruction
CXN
p1908
(dp1909
g1737
(iconstruction
TP_SYMLINKS
p1910
(dp1911
g1740
(dp1912
VACT_31
p1913
VS4_40
p1914
sVACTOR_1_32
p1915
VS1_37
p1916
sVACTOR_2_33
p1917
VS3_39
p1918
ssg592
I29
sg75
g1679
sbsg1746
VS
p1919
sg1748
Nsg75
VSYMMETRIC_TRANS
p1920
sg1749
(iconstruction
TP_SEMFRAME
p1921
(dp1922
g105
g0
(g106
g2
Ntp1923
Rp1924
(dp1925
g110
(dp1926
(iconstruction
TP_NODE
p1927
(dp1928
g1758
I01
sg94
g747
sg75
VEVT_30
p1929
sg1759
I01
sg1760
I00
sg592
I30
sb(dp1930
g1759
I01
sg94
g747
ss(iconstruction
TP_NODE
p1931
(dp1932
g1758
I00
sg94
g750
sg75
g1915
sg1759
I01
sg1760
I01
sg592
I32
sb(dp1933
g1759
I01
sg94
g750
ss(iconstruction
TP_NODE
p1934
(dp1935
g1758
I00
sg94
g594
sg75
g1913
sg1759
I01
sg1760
I00
sg592
I31
sb(dp1936
g1759
I01
sg94
g594
ss(iconstruction
TP_NODE
p1937
(dp1938
g1758
I00
sg94
g750
sg75
g1917
sg1759
I01
sg1760
I00
sg592
I33
sb(dp1939
g1759
I01
sg94
g750
sssg293
g294
sg295
g294
sg296
(dp1940
g1927
(dp1941
g1934
(dp1942
g94
g741
sssg1931
(dp1943
sg1934
(dp1944
g1937
(dp1945
g94
g717
ssg1931
(dp1946
g94
g717
sssg1937
(dp1947
ssg490
g1940
sg105
(dp1948
sg492
g294
sg493
g1940
sg494
(dp1949
g1927
(dp1950
sg1931
(dp1951
g1934
g1946
ssg1934
(dp1952
g1927
g1942
ssg1937
(dp1953
g1934
g1945
sssbsg587
(lp1954
g1927
ag1934
ag1931
ag1937
asg860
(lp1955
(iconstruction
TP_REL
p1956
(dp1957
g866
g1934
sg94
g741
sg592
I34
sg867
g1927
sg75
VIS_34
p1958
sba(iconstruction
TP_REL
p1959
(dp1960
g866
g1931
sg94
g717
sg592
I35
sg867
g1934
sg75
VAGT_PT_1_35
p1961
sba(iconstruction
TP_REL
p1962
(dp1963
g866
g1937
sg94
g717
sg592
I36
sg867
g1934
sg75
VAGT_PT_2_36
p1964
sbasg592
I27
sg75
g1679
sbsg1774
(iconstruction
TP_SYNFORM
p1965
(dp1966
g592
I28
sg1777
(lp1967
(iconstruction
TP_SLOT
p1968
(dp1969
g1781
(lp1970
VNP
p1971
aVN
p1972
asg1784
I0
sg592
I37
sg75
g1916
sba(iconstruction
TP_PHON
p1973
(dp1974
g1787
I3
sg1784
I1
sg592
I38
sg1788
Vand
p1975
sg75
VS2_38
p1976
sba(iconstruction
TP_SLOT
p1977
(dp1978
g1781
(lp1979
VNP
p1980
aVN
p1981
asg1784
I2
sg592
I39
sg75
g1918
sba(iconstruction
TP_SLOT
p1982
(dp1983
g1781
(lp1984
VVP
p1985
aVV
p1986
asg1784
I3
sg592
I40
sg75
g1914
sbasg75
g1679
sbsg1795
I1
sba(iconstruction
CXN
p1987
(dp1988
g1737
(iconstruction
TP_SYMLINKS
p1989
(dp1990
g1740
(dp1991
VAGT_46
p1992
VS1_51
p1993
sVACT_45
p1994
VS2_52
p1995
sVPT_47
p1996
VS3_53
p1997
ssg592
I43
sg75
g1679
sbsg1746
VS
p1998
sg1748
I2
sg75
VSVO
p1999
sg1749
(iconstruction
TP_SEMFRAME
p2000
(dp2001
g105
g0
(g106
g2
Ntp2002
Rp2003
(dp2004
g110
(dp2005
(iconstruction
TP_NODE
p2006
(dp2007
g1758
I00
sg94
g594
sg75
g1994
sg1759
I01
sg1760
I00
sg592
I45
sb(dp2008
g1759
I01
sg94
g594
ss(iconstruction
TP_NODE
p2009
(dp2010
g1758
I00
sg94
g750
sg75
g1992
sg1759
I01
sg1760
I01
sg592
I46
sb(dp2011
g1759
I01
sg94
g750
ss(iconstruction
TP_NODE
p2012
(dp2013
g1758
I01
sg94
g747
sg75
VEVT_44
p2014
sg1759
I01
sg1760
I00
sg592
I44
sb(dp2015
g1759
I01
sg94
g747
ss(iconstruction
TP_NODE
p2016
(dp2017
g1758
I00
sg94
g750
sg75
g1996
sg1759
I01
sg1760
I00
sg592
I47
sb(dp2018
g1759
I01
sg94
g750
sssg293
g294
sg295
g294
sg296
(dp2019
g2006
(dp2020
g2016
(dp2021
g94
g714
ssg2009
(dp2022
g94
g720
sssg2009
(dp2023
sg2012
(dp2024
g2006
(dp2025
g94
g741
sssg2016
(dp2026
ssg490
g2019
sg105
(dp2027
sg492
g294
sg493
g2019
sg494
(dp2028
g2006
(dp2029
g2012
g2025
ssg2009
(dp2030
g2006
g2022
ssg2012
(dp2031
sg2016
(dp2032
g2006
g2021
sssbsg587
(lp2033
g2012
ag2006
ag2009
ag2016
asg860
(lp2034
(iconstruction
TP_REL
p2035
(dp2036
g866
g2006
sg94
g741
sg592
I48
sg867
g2012
sg75
VIS_48
p2037
sba(iconstruction
TP_REL
p2038
(dp2039
g866
g2009
sg94
g720
sg592
I49
sg867
g2006
sg75
VACT_AGT_49
p2040
sba(iconstruction
TP_REL
p2041
(dp2042
g866
g2016
sg94
g714
sg592
I50
sg867
g2006
sg75
VACT_PT_50
p2043
sbasg592
I41
sg75
g1679
sbsg1774
(iconstruction
TP_SYNFORM
p2044
(dp2045
g592
I42
sg1777
(lp2046
(iconstruction
TP_SLOT
p2047
(dp2048
g1781
(lp2049
VNP
p2050
aVN
p2051
asg1784
I0
sg592
I51
sg75
g1993
sba(iconstruction
TP_SLOT
p2052
(dp2053
g1781
(lp2054
VVP
p2055
aVV
p2056
asg1784
I1
sg592
I52
sg75
g1995
sba(iconstruction
TP_SLOT
p2057
(dp2058
g1781
(lp2059
VNP
p2060
aVN
p2061
asg1784
I2
sg592
I53
sg75
g1997
sbasg75
g1679
sbsg1795
I1
sba(iconstruction
CXN
p2062
(dp2063
g1737
(iconstruction
TP_SYMLINKS
p2064
(dp2065
g1740
(dp2066
VPT_60
p2067
VS1_64
p2068
sVACT_58
p2069
VS3_66
p2070
sVAGT_59
p2071
VS6_69
p2072
ssg592
I56
sg75
g1679
sbsg1746
VS
p2073
sg1748
I2
sg75
VPAS_SVO
p2074
sg1749
(iconstruction
TP_SEMFRAME
p2075
(dp2076
g105
g0
(g106
g2
Ntp2077
Rp2078
(dp2079
g110
(dp2080
(iconstruction
TP_NODE
p2081
(dp2082
g1758
I01
sg94
g747
sg75
VEVT_57
p2083
sg1759
I01
sg1760
I00
sg592
I57
sb(dp2084
g1759
I01
sg94
g747
ss(iconstruction
TP_NODE
p2085
(dp2086
g1758
I00
sg94
g750
sg75
g2071
sg1759
I01
sg1760
I00
sg592
I59
sb(dp2087
g1759
I01
sg94
g750
ss(iconstruction
TP_NODE
p2088
(dp2089
g1758
I00
sg94
g750
sg75
g2067
sg1759
I01
sg1760
I01
sg592
I60
sb(dp2090
g1759
I01
sg94
g750
ss(iconstruction
TP_NODE
p2091
(dp2092
g1758
I00
sg94
g594
sg75
g2069
sg1759
I01
sg1760
I00
sg592
I58
sb(dp2093
g1759
I01
sg94
g594
sssg293
g294
sg295
g294
sg296
(dp2094
g2081
(dp2095
g2091
(dp2096
g94
g741
sssg2085
(dp2097
sg2088
(dp2098
sg2091
(dp2099
g2085
(dp2100
g94
g720
ssg2088
(dp2101
g94
g714
ssssg490
g2094
sg105
(dp2102
sg492
g294
sg493
g2094
sg494
(dp2103
g2081
(dp2104
sg2085
(dp2105
g2091
g2100
ssg2088
(dp2106
g2091
g2101
ssg2091
(dp2107
g2081
g2096
sssbsg587
(lp2108
g2081
ag2091
ag2085
ag2088
asg860
(lp2109
(iconstruction
TP_REL
p2110
(dp2111
g866
g2091
sg94
g741
sg592
I61
sg867
g2081
sg75
VIS_61
p2112
sba(iconstruction
TP_REL
p2113
(dp2114
g866
g2085
sg94
g720
sg592
I62
sg867
g2091
sg75
VACT_AGT_62
p2115
sba(iconstruction
TP_REL
p2116
(dp2117
g866
g2088
sg94
g714
sg592
I63
sg867
g2091
sg75
VACT_PT_63
p2118
sbasg592
I54
sg75
g1679
sbsg1774
(iconstruction
TP_SYNFORM
p2119
(dp2120
g592
I55
sg1777
(lp2121
(iconstruction
TP_SLOT
p2122
(dp2123
g1781
(lp2124
VNP
p2125
aVN
p2126
asg1784
I0
sg592
I64
sg75
g2068
sba(iconstruction
TP_PHON
p2127
(dp2128
g1787
I2
sg1784
I1
sg592
I65
sg1788
Vis
p2129
sg75
VS2_65
p2130
sba(iconstruction
TP_SLOT
p2131
(dp2132
g1781
(lp2133
VVP
p2134
aVV
p2135
asg1784
I2
sg592
I66
sg75
g2070
sba(iconstruction
TP_PHON
p2136
(dp2137
g1787
I2
sg1784
I3
sg592
I67
sg1788
V-ed
p2138
sg75
VS4_67
p2139
sba(iconstruction
TP_PHON
p2140
(dp2141
g1787
I2
sg1784
I4
sg592
I68
sg1788
Vby
p2142
sg75
VS5_68
p2143
sba(iconstruction
TP_SLOT
p2144
(dp2145
g1781
(lp2146
VNP
p2147
aVN
p2148
asg1784
I5
sg592
I69
sg75
g2072
sbasg75
g1679
sbsg1795
I1
sba(iconstruction
CXN
p2149
(dp2150
g1737
(iconstruction
TP_SYMLINKS
p2151
(dp2152
g1740
(dp2153
VACT_74
p2154
VS2_83
p2155
sVRCPT_77
p2156
VS3_84
p2157
sVTHEME_76
p2158
VS4_85
p2159
sVAGT_75
p2160
VS1_82
p2161
ssg592
I72
sg75
g1679
sbsg1746
VS
p2162
sg1748
I2
sg75
VDOUBLE_OBJ
p2163
sg1749
(iconstruction
TP_SEMFRAME
p2164
(dp2165
g105
g0
(g106
g2
Ntp2166
Rp2167
(dp2168
g110
(dp2169
(iconstruction
TP_NODE
p2170
(dp2171
g1758
I01
sg94
g747
sg75
VEVT_73
p2172
sg1759
I01
sg1760
I00
sg592
I73
sb(dp2173
g1759
I01
sg94
g747
ss(iconstruction
TP_NODE
p2174
(dp2175
g1758
I00
sg94
g750
sg75
g2160
sg1759
I01
sg1760
I01
sg592
I75
sb(dp2176
g1759
I01
sg94
g750
ss(iconstruction
TP_NODE
p2177
(dp2178
g1758
I00
sg94
g750
sg75
g2156
sg1759
I01
sg1760
I00
sg592
I77
sb(dp2179
g1759
I01
sg94
g750
ss(iconstruction
TP_NODE
p2180
(dp2181
g1758
I00
sg94
g594
sg75
g2154
sg1759
I01
sg1760
I00
sg592
I74
sb(dp2182
g1759
I01
sg94
g594
ss(iconstruction
TP_NODE
p2183
(dp2184
g1758
I00
sg94
g750
sg75
g2158
sg1759
I01
sg1760
I00
sg592
I76
sb(dp2185
g1759
I01
sg94
g750
sssg293
g294
sg295
g294
sg296
(dp2186
g2170
(dp2187
g2180
(dp2188
g94
g741
sssg2174
(dp2189
sg2177
(dp2190
sg2180
(dp2191
g2174
(dp2192
g94
g720
ssg2177
(dp2193
g94
g705
ssg2183
(dp2194
g94
g702
sssg2183
(dp2195
ssg490
g2186
sg105
(dp2196
sg492
g294
sg493
g2186
sg494
(dp2197
g2170
(dp2198
sg2174
(dp2199
g2180
g2192
ssg2177
(dp2200
g2180
g2193
ssg2180
(dp2201
g2170
g2188
ssg2183
(dp2202
g2180
g2194
sssbsg587
(lp2203
g2170
ag2180
ag2174
ag2183
ag2177
asg860
(lp2204
(iconstruction
TP_REL
p2205
(dp2206
g866
g2180
sg94
g741
sg592
I78
sg867
g2170
sg75
VIS_78
p2207
sba(iconstruction
TP_REL
p2208
(dp2209
g866
g2174
sg94
g720
sg592
I79
sg867
g2180
sg75
VACT_AGT_79
p2210
sba(iconstruction
TP_REL
p2211
(dp2212
g866
g2183
sg94
g702
sg592
I80
sg867
g2180
sg75
VACT_THEME_80
p2213
sba(iconstruction
TP_REL
p2214
(dp2215
g866
g2177
sg94
g705
sg592
I81
sg867
g2180
sg75
VACT_RCPT_81
p2216
sbasg592
I70
sg75
g1679
sbsg1774
(iconstruction
TP_SYNFORM
p2217
(dp2218
g592
I71
sg1777
(lp2219
(iconstruction
TP_SLOT
p2220
(dp2221
g1781
(lp2222
VNP
p2223
aVN
p2224
asg1784
I0
sg592
I82
sg75
g2161
sba(iconstruction
TP_SLOT
p2225
(dp2226
g1781
(lp2227
VVP
p2228
aVV
p2229
asg1784
I1
sg592
I83
sg75
g2155
sba(iconstruction
TP_SLOT
p2230
(dp2231
g1781
(lp2232
VNP
p2233
aVN
p2234
asg1784
I2
sg592
I84
sg75
g2157
sba(iconstruction
TP_SLOT
p2235
(dp2236
g1781
(lp2237
VNP
p2238
aVN
p2239
asg1784
I3
sg592
I85
sg75
g2159
sbasg75
g1679
sbsg1795
I1
sba(iconstruction
CXN
p2240
(dp2241
g1737
(iconstruction
TP_SYMLINKS
p2242
(dp2243
g1740
(dp2244
VAGT_91
p2245
VS1_98
p2246
sVRCPT_93
p2247
VS5_102
p2248
sVACT_90
p2249
VS2_99
p2250
sVTHEME_92
p2251
VS3_100
p2252
ssg592
I88
sg75
g1679
sbsg1746
VS
p2253
sg1748
I2
sg75
VOBLIQUE_DATIVE
p2254
sg1749
(iconstruction
TP_SEMFRAME
p2255
(dp2256
g105
g0
(g106
g2
Ntp2257
Rp2258
(dp2259
g110
(dp2260
(iconstruction
TP_NODE
p2261
(dp2262
g1758
I00
sg94
g642
sg75
g2249
sg1759
I01
sg1760
I00
sg592
I90
sb(dp2263
g1759
I01
sg94
g642
ss(iconstruction
TP_NODE
p2264
(dp2265
g1758
I00
sg94
g750
sg75
g2245
sg1759
I01
sg1760
I01
sg592
I91
sb(dp2266
g1759
I01
sg94
g750
ss(iconstruction
TP_NODE
p2267
(dp2268
g1758
I01
sg94
g747
sg75
VEVT_89
p2269
sg1759
I01
sg1760
I00
sg592
I89
sb(dp2270
g1759
I01
sg94
g747
ss(iconstruction
TP_NODE
p2271
(dp2272
g1758
I00
sg94
g750
sg75
g2247
sg1759
I01
sg1760
I00
sg592
I93
sb(dp2273
g1759
I01
sg94
g750
ss(iconstruction
TP_NODE
p2274
(dp2275
g1758
I00
sg94
g750
sg75
g2251
sg1759
I01
sg1760
I00
sg592
I92
sb(dp2276
g1759
I01
sg94
g750
sssg293
g294
sg295
g294
sg296
(dp2277
g2261
(dp2278
g2274
(dp2279
g94
g702
ssg2271
(dp2280
g94
g705
ssg2264
(dp2281
g94
g720
sssg2264
(dp2282
sg2267
(dp2283
g2261
(dp2284
g94
g741
sssg2271
(dp2285
sg2274
(dp2286
ssg490
g2277
sg105
(dp2287
sg492
g294
sg493
g2277
sg494
(dp2288
g2261
(dp2289
g2267
g2284
ssg2264
(dp2290
g2261
g2281
ssg2267
(dp2291
sg2271
(dp2292
g2261
g2280
ssg2274
(dp2293
g2261
g2279
sssbsg587
(lp2294
g2267
ag2261
ag2264
ag2274
ag2271
asg860
(lp2295
(iconstruction
TP_REL
p2296
(dp2297
g866
g2261
sg94
g741
sg592
I94
sg867
g2267
sg75
VIS_94
p2298
sba(iconstruction
TP_REL
p2299
(dp2300
g866
g2264
sg94
g720
sg592
I95
sg867
g2261
sg75
VACT_AGT_95
p2301
sba(iconstruction
TP_REL
p2302
(dp2303
g866
g2274
sg94
g702
sg592
I96
sg867
g2261
sg75
VACT_THEME_96
p2304
sba(iconstruction
TP_REL
p2305
(dp2306
g866
g2271
sg94
g705
sg592
I97
sg867
g2261
sg75
VACT_RCPT_97
p2307
sbasg592
I86
sg75
g1679
sbsg1774
(iconstruction
TP_SYNFORM
p2308
(dp2309
g592
I87
sg1777
(lp2310
(iconstruction
TP_SLOT
p2311
(dp2312
g1781
(lp2313
VNP
p2314
aVN
p2315
asg1784
I0
sg592
I98
sg75
g2246
sba(iconstruction
TP_SLOT
p2316
(dp2317
g1781
(lp2318
VVP
p2319
aVV
p2320
asg1784
I1
sg592
I99
sg75
g2250
sba(iconstruction
TP_SLOT
p2321
(dp2322
g1781
(lp2323
VNP
p2324
aVN
p2325
asg1784
I2
sg592
I100
sg75
g2252
sba(iconstruction
TP_PHON
p2326
(dp2327
g1787
I2
sg1784
I3
sg592
I101
sg1788
Vto
p2328
sg75
VS4_101
p2329
sba(iconstruction
TP_SLOT
p2330
(dp2331
g1781
(lp2332
VNP
p2333
aVN
p2334
asg1784
I4
sg592
I102
sg75
g2248
sbasg75
g1679
sbsg1795
I1
sba(iconstruction
CXN
p2335
(dp2336
g1737
(iconstruction
TP_SYMLINKS
p2337
(dp2338
g1740
(dp2339
VATTR_108
p2340
VS3_113
p2341
sVENT_107
p2342
VS1_111
p2343
ssg592
I105
sg75
g1679
sbsg1746
VS
p2344
sg1748
I2
sg75
VSPA
p2345
sg1749
(iconstruction
TP_SEMFRAME
p2346
(dp2347
g105
g0
(g106
g2
Ntp2348
Rp2349
(dp2350
g110
(dp2351
(iconstruction
TP_NODE
p2352
(dp2353
g1758
I01
sg94
g747
sg75
VEVT_106
p2354
sg1759
I01
sg1760
I00
sg592
I106
sb(dp2355
g1759
I01
sg94
g747
ss(iconstruction
TP_NODE
p2356
(dp2357
g1758
I00
sg94
g651
sg75
g2340
sg1759
I00
sg1760
I00
sg592
I108
sb(dp2358
g1759
I00
sg94
g651
ss(iconstruction
TP_NODE
p2359
(dp2360
g1758
I00
sg94
g750
sg75
g2342
sg1759
I01
sg1760
I01
sg592
I107
sb(dp2361
g1759
I01
sg94
g750
sssg293
g294
sg295
g294
sg296
(dp2362
g2352
(dp2363
g2356
(dp2364
g94
g699
ssg2359
(dp2365
g94
g741
sssg2356
(dp2366
sg2359
(dp2367
ssg490
g2362
sg105
(dp2368
sg492
g294
sg493
g2362
sg494
(dp2369
g2352
(dp2370
sg2356
(dp2371
g2352
g2364
ssg2359
(dp2372
g2352
g2365
sssbsg587
(lp2373
g2352
ag2359
ag2356
asg860
(lp2374
(iconstruction
TP_REL
p2375
(dp2376
g866
g2359
sg94
g741
sg592
I109
sg867
g2352
sg75
VIS_109
p2377
sba(iconstruction
TP_REL
p2378
(dp2379
g866
g2356
sg94
g699
sg592
I110
sg867
g2352
sg75
VEVT_ATTR_110
p2380
sbasg592
I103
sg75
g1679
sbsg1774
(iconstruction
TP_SYNFORM
p2381
(dp2382
g592
I104
sg1777
(lp2383
(iconstruction
TP_SLOT
p2384
(dp2385
g1781
(lp2386
VNP
p2387
aVN
p2388
asg1784
I0
sg592
I111
sg75
g2343
sba(iconstruction
TP_PHON
p2389
(dp2390
g1787
I2
sg1784
I1
sg592
I112
sg1788
Vis
p2391
sg75
VS2_112
p2392
sba(iconstruction
TP_SLOT
p2393
(dp2394
g1781
(lp2395
VA
p2396
asg1784
I2
sg592
I113
sg75
g2341
sbasg75
g1679
sbsg1795
I1
sba(iconstruction
CXN
p2397
(dp2398
g1737
(iconstruction
TP_SYMLINKS
p2399
(dp2400
g1740
(dp2401
VAGT_119
p2402
VS1_122
p2403
sVACT_118
p2404
VS2_123
p2405
ssg592
I116
sg75
g1679
sbsg1746
VS
p2406
sg1748
I2
sg75
VSV
p2407
sg1749
(iconstruction
TP_SEMFRAME
p2408
(dp2409
g105
g0
(g106
g2
Ntp2410
Rp2411
(dp2412
g110
(dp2413
(iconstruction
TP_NODE
p2414
(dp2415
g1758
I00
sg94
g606
sg75
g2404
sg1759
I01
sg1760
I00
sg592
I118
sb(dp2416
g1759
I01
sg94
g606
ss(iconstruction
TP_NODE
p2417
(dp2418
g1758
I00
sg94
g750
sg75
g2402
sg1759
I01
sg1760
I01
sg592
I119
sb(dp2419
g1759
I01
sg94
g750
ss(iconstruction
TP_NODE
p2420
(dp2421
g1758
I01
sg94
g747
sg75
VEVT_117
p2422
sg1759
I01
sg1760
I00
sg592
I117
sb(dp2423
g1759
I01
sg94
g747
sssg293
g294
sg295
g294
sg296
(dp2424
g2414
(dp2425
g2417
(dp2426
g94
g720
sssg2417
(dp2427
sg2420
(dp2428
g2414
(dp2429
g94
g741
ssssg490
g2424
sg105
(dp2430
sg492
g294
sg493
g2424
sg494
(dp2431
g2414
(dp2432
g2420
g2429
ssg2417
(dp2433
g2414
g2426
ssg2420
(dp2434
ssbsg587
(lp2435
g2420
ag2414
ag2417
asg860
(lp2436
(iconstruction
TP_REL
p2437
(dp2438
g866
g2414
sg94
g741
sg592
I120
sg867
g2420
sg75
VIS_120
p2439
sba(iconstruction
TP_REL
p2440
(dp2441
g866
g2417
sg94
g720
sg592
I121
sg867
g2414
sg75
VACT_AGT_121
p2442
sbasg592
I114
sg75
g1679
sbsg1774
(iconstruction
TP_SYNFORM
p2443
(dp2444
g592
I115
sg1777
(lp2445
(iconstruction
TP_SLOT
p2446
(dp2447
g1781
(lp2448
VNP
p2449
aVN
p2450
asg1784
I0
sg592
I122
sg75
g2403
sba(iconstruction
TP_SLOT
p2451
(dp2452
g1781
(lp2453
VVP
p2454
aVV
p2455
asg1784
I1
sg592
I123
sg75
g2405
sbasg75
g1679
sbsg1795
I1
sba(iconstruction
CXN
p2456
(dp2457
g1737
(iconstruction
TP_SYMLINKS
p2458
(dp2459
g1740
(dp2460
VEVT_127
p2461
VS1_130
p2462
sVPLACE_128
p2463
VS3_132
p2464
ssg592
I126
sg75
g1679
sbsg1746
VS
p2465
sg1748
I2
sg75
VPP_IN
p2466
sg1749
(iconstruction
TP_SEMFRAME
p2467
(dp2468
g105
g0
(g106
g2
Ntp2469
Rp2470
(dp2471
g110
(dp2472
(iconstruction
TP_NODE
p2473
(dp2474
g1758
I00
sg94
g750
sg75
g2463
sg1759
I01
sg1760
I00
sg592
I128
sb(dp2475
g1759
I01
sg94
g750
ss(iconstruction
TP_NODE
p2476
(dp2477
g1758
I01
sg94
g747
sg75
g2461
sg1759
I01
sg1760
I00
sg592
I127
sb(dp2478
g1759
I01
sg94
g747
sssg293
g294
sg295
g294
sg296
(dp2479
g2473
(dp2480
sg2476
(dp2481
g2473
(dp2482
g94
g738
ssssg490
g2479
sg105
(dp2483
sg492
g294
sg493
g2479
sg494
(dp2484
g2473
(dp2485
g2476
g2482
ssg2476
(dp2486
ssbsg587
(lp2487
g2476
ag2473
asg860
(lp2488
(iconstruction
TP_REL
p2489
(dp2490
g866
g2473
sg94
g738
sg592
I129
sg867
g2476
sg75
VEVT_PP_129
p2491
sbasg592
I124
sg75
g1679
sbsg1774
(iconstruction
TP_SYNFORM
p2492
(dp2493
g592
I125
sg1777
(lp2494
(iconstruction
TP_SLOT
p2495
(dp2496
g1781
(lp2497
VS
p2498
asg1784
I0
sg592
I130
sg75
g2462
sba(iconstruction
TP_PHON
p2499
(dp2500
g1787
I2
sg1784
I1
sg592
I131
sg1788
Vin
p2501
sg75
VS2_131
p2502
sba(iconstruction
TP_SLOT
p2503
(dp2504
g1781
(lp2505
VNP
p2506
aVN
p2507
asg1784
I2
sg592
I132
sg75
g2464
sbasg75
g1679
sbsg1795
I1
sba(iconstruction
CXN
p2508
(dp2509
g1737
(iconstruction
TP_SYMLINKS
p2510
(dp2511
g1740
(dp2512
VEVT2_137
p2513
VS2_140
p2514
sVEVT1_136
p2515
VS1_139
p2516
ssg592
I135
sg75
g1679
sbsg1746
VS
p2517
sg1748
I2
sg75
VS_PP
p2518
sg1749
(iconstruction
TP_SEMFRAME
p2519
(dp2520
g105
g0
(g106
g2
Ntp2521
Rp2522
(dp2523
g110
(dp2524
(iconstruction
TP_NODE
p2525
(dp2526
g1758
I00
sg94
g747
sg75
g2513
sg1759
I01
sg1760
I00
sg592
I137
sb(dp2527
g1759
I01
sg94
g747
ss(iconstruction
TP_NODE
p2528
(dp2529
g1758
I01
sg94
g747
sg75
g2515
sg1759
I01
sg1760
I01
sg592
I136
sb(dp2530
g1759
I01
sg94
g747
sssg293
g294
sg295
g294
sg296
(dp2531
g2525
(dp2532
sg2528
(dp2533
g2525
(dp2534
g94
g699
ssssg490
g2531
sg105
(dp2535
sg492
g294
sg493
g2531
sg494
(dp2536
g2525
(dp2537
g2528
g2534
ssg2528
(dp2538
ssbsg587
(lp2539
g2528
ag2525
asg860
(lp2540
(iconstruction
TP_REL
p2541
(dp2542
g866
g2525
sg94
g699
sg592
I138
sg867
g2528
sg75
VMOD_138
p2543
sbasg592
I133
sg75
g1679
sbsg1774
(iconstruction
TP_SYNFORM
p2544
(dp2545
g592
I134
sg1777
(lp2546
(iconstruction
TP_SLOT
p2547
(dp2548
g1781
(lp2549
VS
p2550
asg1784
I0
sg592
I139
sg75
g2516
sba(iconstruction
TP_SLOT
p2551
(dp2552
g1781
(lp2553
VPP
p2554
asg1784
I1
sg592
I140
sg75
g2514
sbasg75
g1679
sbsg1795
I1
sba(iconstruction
CXN
p2555
(dp2556
g1737
(iconstruction
TP_SYMLINKS
p2557
(dp2558
g1740
(dp2559
VENT_144
p2560
VS2_148
p2561
sVATTR_145
p2562
VS1_147
p2563
ssg592
I143
sg75
g1679
sbsg1746
VN
p2564
sg1748
I2
sg75
VADJUNCT_N
p2565
sg1749
(iconstruction
TP_SEMFRAME
p2566
(dp2567
g105
g0
(g106
g2
Ntp2568
Rp2569
(dp2570
g110
(dp2571
(iconstruction
TP_NODE
p2572
(dp2573
g1758
I00
sg94
g651
sg75
g2562
sg1759
I00
sg1760
I00
sg592
I145
sb(dp2574
g1759
I00
sg94
g651
ss(iconstruction
TP_NODE
p2575
(dp2576
g1758
I01
sg94
g750
sg75
g2560
sg1759
I01
sg1760
I00
sg592
I144
sb(dp2577
g1759
I01
sg94
g750
sssg293
g294
sg295
g294
sg296
(dp2578
g2572
(dp2579
sg2575
(dp2580
g2572
(dp2581
g94
g699
ssssg490
g2578
sg105
(dp2582
sg492
g294
sg493
g2578
sg494
(dp2583
g2572
(dp2584
g2575
g2581
ssg2575
(dp2585
ssbsg587
(lp2586
g2575
ag2572
asg860
(lp2587
(iconstruction
TP_REL
p2588
(dp2589
g866
g2572
sg94
g699
sg592
I146
sg867
g2575
sg75
VENT_ATTR_146
p2590
sbasg592
I141
sg75
g1679
sbsg1774
(iconstruction
TP_SYNFORM
p2591
(dp2592
g592
I142
sg1777
(lp2593
(iconstruction
TP_SLOT
p2594
(dp2595
g1781
(lp2596
VA
p2597
asg1784
I0
sg592
I147
sg75
g2563
sba(iconstruction
TP_SLOT
p2598
(dp2599
g1781
(lp2600
VN
p2601
asg1784
I1
sg592
I148
sg75
g2561
sbasg75
g1679
sbsg1795
I1
sba(iconstruction
CXN
p2602
(dp2603
g1737
(iconstruction
TP_SYMLINKS
p2604
(dp2605
g1740
(dp2606
VAGT_154
p2607
VS1_160
p2608
sVACT_153
p2609
VS3_162
p2610
sVPT_155
p2611
VS4_163
p2612
ssg592
I151
sg75
g1679
sbsg1746
VN
p2613
sg1748
I2
sg75
VSUBJ_REL_SVO
p2614
sg1749
(iconstruction
TP_SEMFRAME
p2615
(dp2616
g105
g0
(g106
g2
Ntp2617
Rp2618
(dp2619
g110
(dp2620
(iconstruction
TP_NODE
p2621
(dp2622
g1758
I00
sg94
g612
sg75
g2609
sg1759
I01
sg1760
I01
sg592
I153
sb(dp2623
g1759
I01
sg94
g612
ss(iconstruction
TP_NODE
p2624
(dp2625
g1758
I01
sg94
g750
sg75
g2607
sg1759
I01
sg1760
I00
sg592
I154
sb(dp2626
g1759
I01
sg94
g750
ss(iconstruction
TP_NODE
p2627
(dp2628
g1758
I00
sg94
g750
sg75
g2611
sg1759
I01
sg1760
I00
sg592
I155
sb(dp2629
g1759
I01
sg94
g750
ss(iconstruction
TP_NODE
p2630
(dp2631
g1758
I00
sg94
g747
sg75
VEVT_152
p2632
sg1759
I01
sg1760
I00
sg592
I152
sb(dp2633
g1759
I01
sg94
g747
sssg293
g294
sg295
g294
sg296
(dp2634
g2621
(dp2635
g2627
(dp2636
g94
g714
ssg2624
(dp2637
g94
g720
sssg2624
(dp2638
g2630
(dp2639
g94
g699
sssg2627
(dp2640
sg2630
(dp2641
g2621
(dp2642
g94
g741
ssssg490
g2634
sg105
(dp2643
sg492
g294
sg493
g2634
sg494
(dp2644
g2621
(dp2645
g2630
g2642
ssg2624
(dp2646
g2621
g2637
ssg2627
(dp2647
g2621
g2636
ssg2630
(dp2648
g2624
g2639
sssbsg587
(lp2649
g2630
ag2621
ag2624
ag2627
asg860
(lp2650
(iconstruction
TP_REL
p2651
(dp2652
g866
g2621
sg94
g741
sg592
I156
sg867
g2630
sg75
VIS_156
p2653
sba(iconstruction
TP_REL
p2654
(dp2655
g866
g2624
sg94
g720
sg592
I157
sg867
g2621
sg75
VACT_AGT_157
p2656
sba(iconstruction
TP_REL
p2657
(dp2658
g866
g2627
sg94
g714
sg592
I158
sg867
g2621
sg75
VACT_PT_158
p2659
sba(iconstruction
TP_REL
p2660
(dp2661
g866
g2630
sg94
g699
sg592
I159
sg867
g2624
sg75
VAGT_EVT_159
p2662
sbasg592
I149
sg75
g1679
sbsg1774
(iconstruction
TP_SYNFORM
p2663
(dp2664
g592
I150
sg1777
(lp2665
(iconstruction
TP_SLOT
p2666
(dp2667
g1781
(lp2668
VN
p2669
asg1784
I0
sg592
I160
sg75
g2608
sba(iconstruction
TP_PHON
p2670
(dp2671
g1787
I4
sg1784
I1
sg592
I161
sg1788
Vthat
p2672
sg75
VS2_161
p2673
sba(iconstruction
TP_SLOT
p2674
(dp2675
g1781
(lp2676
VVP
p2677
aVV
p2678
asg1784
I2
sg592
I162
sg75
g2610
sba(iconstruction
TP_SLOT
p2679
(dp2680
g1781
(lp2681
VNP
p2682
aVN
p2683
asg1784
I3
sg592
I163
sg75
g2612
sbasg75
g1679
sbsg1795
I1
sba(iconstruction
CXN
p2684
(dp2685
g1737
(iconstruction
TP_SYMLINKS
p2686
(dp2687
g1740
(dp2688
VAGT_169
p2689
VS1_173
p2690
sVACT_168
p2691
VS3_175
p2692
ssg592
I166
sg75
g1679
sbsg1746
VN
p2693
sg1748
I2
sg75
VSUBJ_REL_SV
p2694
sg1749
(iconstruction
TP_SEMFRAME
p2695
(dp2696
g105
g0
(g106
g2
Ntp2697
Rp2698
(dp2699
g110
(dp2700
(iconstruction
TP_NODE
p2701
(dp2702
g1758
I00
sg94
g747
sg75
VEVT_167
p2703
sg1759
I01
sg1760
I00
sg592
I167
sb(dp2704
g1759
I01
sg94
g747
ss(iconstruction
TP_NODE
p2705
(dp2706
g1758
I01
sg94
g750
sg75
g2689
sg1759
I01
sg1760
I00
sg592
I169
sb(dp2707
g1759
I01
sg94
g750
ss(iconstruction
TP_NODE
p2708
(dp2709
g1758
I00
sg94
g594
sg75
g2691
sg1759
I01
sg1760
I01
sg592
I168
sb(dp2710
g1759
I01
sg94
g594
sssg293
g294
sg295
g294
sg296
(dp2711
g2701
(dp2712
g2708
(dp2713
g94
g741
sssg2705
(dp2714
g2701
(dp2715
g94
g699
sssg2708
(dp2716
g2705
(dp2717
g94
g720
ssssg490
g2711
sg105
(dp2718
sg492
g294
sg493
g2711
sg494
(dp2719
g2701
(dp2720
g2705
g2715
ssg2705
(dp2721
g2708
g2717
ssg2708
(dp2722
g2701
g2713
sssbsg587
(lp2723
g2701
ag2708
ag2705
asg860
(lp2724
(iconstruction
TP_REL
p2725
(dp2726
g866
g2708
sg94
g741
sg592
I170
sg867
g2701
sg75
VIS_170
p2727
sba(iconstruction
TP_REL
p2728
(dp2729
g866
g2705
sg94
g720
sg592
I171
sg867
g2708
sg75
VACT_AGT_171
p2730
sba(iconstruction
TP_REL
p2731
(dp2732
g866
g2701
sg94
g699
sg592
I172
sg867
g2705
sg75
VAGT_EVT_172
p2733
sbasg592
I164
sg75
g1679
sbsg1774
(iconstruction
TP_SYNFORM
p2734
(dp2735
g592
I165
sg1777
(lp2736
(iconstruction
TP_SLOT
p2737
(dp2738
g1781
(lp2739
VN
p2740
asg1784
I0
sg592
I173
sg75
g2690
sba(iconstruction
TP_PHON
p2741
(dp2742
g1787
I4
sg1784
I1
sg592
I174
sg1788
Vthat
p2743
sg75
VS2_174
p2744
sba(iconstruction
TP_SLOT
p2745
(dp2746
g1781
(lp2747
VVP
p2748
aVV
p2749
asg1784
I2
sg592
I175
sg75
g2692
sbasg75
g1679
sbsg1795
I1
sba(iconstruction
CXN
p2750
(dp2751
g1737
(iconstruction
TP_SYMLINKS
p2752
(dp2753
g1740
(dp2754
VAGT_181
p2755
VS7_193
p2756
sVPT_182
p2757
VS1_187
p2758
sVACT_180
p2759
VS4_190
p2760
ssg592
I178
sg75
g1679
sbsg1746
VN
p2761
sg1748
I2
sg75
VSUBJ_REL_PAS_SVO
p2762
sg1749
(iconstruction
TP_SEMFRAME
p2763
(dp2764
g105
g0
(g106
g2
Ntp2765
Rp2766
(dp2767
g110
(dp2768
(iconstruction
TP_NODE
p2769
(dp2770
g1758
I00
sg94
g594
sg75
g2759
sg1759
I01
sg1760
I01
sg592
I180
sb(dp2771
g1759
I01
sg94
g594
ss(iconstruction
TP_NODE
p2772
(dp2773
g1758
I00
sg94
g750
sg75
g2755
sg1759
I01
sg1760
I00
sg592
I181
sb(dp2774
g1759
I01
sg94
g750
ss(iconstruction
TP_NODE
p2775
(dp2776
g1758
I00
sg94
g747
sg75
VEVT_179
p2777
sg1759
I01
sg1760
I00
sg592
I179
sb(dp2778
g1759
I01
sg94
g747
ss(iconstruction
TP_NODE
p2779
(dp2780
g1758
I01
sg94
g750
sg75
g2757
sg1759
I01
sg1760
I00
sg592
I182
sb(dp2781
g1759
I01
sg94
g750
sssg293
g294
sg295
g294
sg296
(dp2782
g2769
(dp2783
g2779
(dp2784
g94
g714
ssg2772
(dp2785
g94
g720
sssg2772
(dp2786
sg2775
(dp2787
g2769
(dp2788
g94
g741
sssg2779
(dp2789
g2775
(dp2790
g94
g699
ssssg490
g2782
sg105
(dp2791
sg492
g294
sg493
g2782
sg494
(dp2792
g2769
(dp2793
g2775
g2788
ssg2772
(dp2794
g2769
g2785
ssg2775
(dp2795
g2779
g2790
ssg2779
(dp2796
g2769
g2784
sssbsg587
(lp2797
g2775
ag2769
ag2772
ag2779
asg860
(lp2798
(iconstruction
TP_REL
p2799
(dp2800
g866
g2769
sg94
g741
sg592
I183
sg867
g2775
sg75
VIS_183
p2801
sba(iconstruction
TP_REL
p2802
(dp2803
g866
g2772
sg94
g720
sg592
I184
sg867
g2769
sg75
VACT_AGT_184
p2804
sba(iconstruction
TP_REL
p2805
(dp2806
g866
g2779
sg94
g714
sg592
I185
sg867
g2769
sg75
VACT_PT_185
p2807
sba(iconstruction
TP_REL
p2808
(dp2809
g866
g2775
sg94
g699
sg592
I186
sg867
g2779
sg75
VPT_EVT_186
p2810
sbasg592
I176
sg75
g1679
sbsg1774
(iconstruction
TP_SYNFORM
p2811
(dp2812
g592
I177
sg1777
(lp2813
(iconstruction
TP_SLOT
p2814
(dp2815
g1781
(lp2816
VN
p2817
asg1784
I0
sg592
I187
sg75
g2758
sba(iconstruction
TP_PHON
p2818
(dp2819
g1787
I4
sg1784
I1
sg592
I188
sg1788
Vthat
p2820
sg75
VS2_188
p2821
sba(iconstruction
TP_PHON
p2822
(dp2823
g1787
I2
sg1784
I2
sg592
I189
sg1788
Vis
p2824
sg75
VS3_189
p2825
sba(iconstruction
TP_SLOT
p2826
(dp2827
g1781
(lp2828
VVP
p2829
aVV
p2830
asg1784
I3
sg592
I190
sg75
g2760
sba(iconstruction
TP_PHON
p2831
(dp2832
g1787
I2
sg1784
I4
sg592
I191
sg1788
V-ed
p2833
sg75
VS5_191
p2834
sba(iconstruction
TP_PHON
p2835
(dp2836
g1787
I2
sg1784
I5
sg592
I192
sg1788
Vby
p2837
sg75
VS6_192
p2838
sba(iconstruction
TP_SLOT
p2839
(dp2840
g1781
(lp2841
VNP
p2842
aVN
p2843
asg1784
I6
sg592
I193
sg75
g2756
sbasg75
g1679
sbsg1795
I1
sba(iconstruction
CXN
p2844
(dp2845
g1737
(iconstruction
TP_SYMLINKS
p2846
(dp2847
g1740
(dp2848
VAGT_199
p2849
VS3_207
p2850
sVACT_198
p2851
VS4_208
p2852
sVPT_200
p2853
VS1_205
p2854
ssg592
I196
sg75
g1679
sbsg1746
VN
p2855
sg1748
I2
sg75
VOBJ_REL_SVO
p2856
sg1749
(iconstruction
TP_SEMFRAME
p2857
(dp2858
g105
g0
(g106
g2
Ntp2859
Rp2860
(dp2861
g110
(dp2862
(iconstruction
TP_NODE
p2863
(dp2864
g1758
I00
sg94
g594
sg75
g2851
sg1759
I01
sg1760
I01
sg592
I198
sb(dp2865
g1759
I01
sg94
g594
ss(iconstruction
TP_NODE
p2866
(dp2867
g1758
I00
sg94
g750
sg75
g2849
sg1759
I01
sg1760
I00
sg592
I199
sb(dp2868
g1759
I01
sg94
g750
ss(iconstruction
TP_NODE
p2869
(dp2870
g1758
I01
sg94
g750
sg75
g2853
sg1759
I01
sg1760
I00
sg592
I200
sb(dp2871
g1759
I01
sg94
g750
ss(iconstruction
TP_NODE
p2872
(dp2873
g1758
I00
sg94
g747
sg75
VEVT_197
p2874
sg1759
I01
sg1760
I00
sg592
I197
sb(dp2875
g1759
I01
sg94
g747
sssg293
g294
sg295
g294
sg296
(dp2876
g2863
(dp2877
g2869
(dp2878
g94
g714
ssg2866
(dp2879
g94
g720
sssg2866
(dp2880
sg2869
(dp2881
g2872
(dp2882
g94
g699
sssg2872
(dp2883
g2863
(dp2884
g94
g741
ssssg490
g2876
sg105
(dp2885
sg492
g294
sg493
g2876
sg494
(dp2886
g2863
(dp2887
g2872
g2884
ssg2866
(dp2888
g2863
g2879
ssg2869
(dp2889
g2863
g2878
ssg2872
(dp2890
g2869
g2882
sssbsg587
(lp2891
g2872
ag2863
ag2866
ag2869
asg860
(lp2892
(iconstruction
TP_REL
p2893
(dp2894
g866
g2863
sg94
g741
sg592
I201
sg867
g2872
sg75
VIS_201
p2895
sba(iconstruction
TP_REL
p2896
(dp2897
g866
g2866
sg94
g720
sg592
I202
sg867
g2863
sg75
VACT_AGT_202
p2898
sba(iconstruction
TP_REL
p2899
(dp2900
g866
g2869
sg94
g714
sg592
I203
sg867
g2863
sg75
VACT_PT_203
p2901
sba(iconstruction
TP_REL
p2902
(dp2903
g866
g2872
sg94
g699
sg592
I204
sg867
g2869
sg75
VPT_EVT_204
p2904
sbasg592
I194
sg75
g1679
sbsg1774
(iconstruction
TP_SYNFORM
p2905
(dp2906
g592
I195
sg1777
(lp2907
(iconstruction
TP_SLOT
p2908
(dp2909
g1781
(lp2910
VN
p2911
asg1784
I0
sg592
I205
sg75
g2854
sba(iconstruction
TP_PHON
p2912
(dp2913
g1787
I4
sg1784
I1
sg592
I206
sg1788
Vthat
p2914
sg75
VS2_206
p2915
sba(iconstruction
TP_SLOT
p2916
(dp2917
g1781
(lp2918
VNP
p2919
aVN
p2920
asg1784
I2
sg592
I207
sg75
g2850
sba(iconstruction
TP_SLOT
p2921
(dp2922
g1781
(lp2923
VVP
p2924
aVV
p2925
asg1784
I3
sg592
I208
sg75
g2852
sbasg75
g1679
sbsg1795
I1
sba(iconstruction
CXN
p2926
(dp2927
g1737
(iconstruction
TP_SYMLINKS
p2928
(dp2929
g1740
(dp2930
VPT_215
p2931
VS3_222
p2932
sVACT_213
p2933
VS5_224
p2934
sVAGT_214
p2935
VS1_220
p2936
ssg592
I211
sg75
g1679
sbsg1746
VN
p2937
sg1748
I2
sg75
VOBJ_REL_PAS_SVO
p2938
sg1749
(iconstruction
TP_SEMFRAME
p2939
(dp2940
g105
g0
(g106
g2
Ntp2941
Rp2942
(dp2943
g110
(dp2944
(iconstruction
TP_NODE
p2945
(dp2946
g1758
I00
sg94
g747
sg75
VEVT_212
p2947
sg1759
I01
sg1760
I00
sg592
I212
sb(dp2948
g1759
I01
sg94
g747
ss(iconstruction
TP_NODE
p2949
(dp2950
g1758
I01
sg94
g750
sg75
g2935
sg1759
I01
sg1760
I00
sg592
I214
sb(dp2951
g1759
I01
sg94
g750
ss(iconstruction
TP_NODE
p2952
(dp2953
g1758
I00
sg94
g750
sg75
g2931
sg1759
I01
sg1760
I00
sg592
I215
sb(dp2954
g1759
I01
sg94
g750
ss(iconstruction
TP_NODE
p2955
(dp2956
g1758
I00
sg94
g594
sg75
g2933
sg1759
I01
sg1760
I01
sg592
I213
sb(dp2957
g1759
I01
sg94
g594
sssg293
g294
sg295
g294
sg296
(dp2958
g2945
(dp2959
g2955
(dp2960
g94
g741
sssg2949
(dp2961
g2945
(dp2962
g94
g699
sssg2952
(dp2963
sg2955
(dp2964
g2949
(dp2965
g94
g720
ssg2952
(dp2966
g94
g714
ssssg490
g2958
sg105
(dp2967
sg492
g294
sg493
g2958
sg494
(dp2968
g2945
(dp2969
g2949
g2962
ssg2949
(dp2970
g2955
g2965
ssg2952
(dp2971
g2955
g2966
ssg2955
(dp2972
g2945
g2960
sssbsg587
(lp2973
g2945
ag2955
ag2949
ag2952
asg860
(lp2974
(iconstruction
TP_REL
p2975
(dp2976
g866
g2955
sg94
g741
sg592
I216
sg867
g2945
sg75
VIS_216
p2977
sba(iconstruction
TP_REL
p2978
(dp2979
g866
g2949
sg94
g720
sg592
I217
sg867
g2955
sg75
VACT_AGT_217
p2980
sba(iconstruction
TP_REL
p2981
(dp2982
g866
g2952
sg94
g714
sg592
I218
sg867
g2955
sg75
VACT_PT_218
p2983
sba(iconstruction
TP_REL
p2984
(dp2985
g866
g2945
sg94
g699
sg592
I219
sg867
g2949
sg75
VAGT_EVT_219
p2986
sbasg592
I209
sg75
g1679
sbsg1774
(iconstruction
TP_SYNFORM
p2987
(dp2988
g592
I210
sg1777
(lp2989
(iconstruction
TP_SLOT
p2990
(dp2991
g1781
(lp2992
VN
p2993
asg1784
I0
sg592
I220
sg75
g2936
sba(iconstruction
TP_PHON
p2994
(dp2995
g1787
I4
sg1784
I1
sg592
I221
sg1788
Vthat
p2996
sg75
VS2_221
p2997
sba(iconstruction
TP_SLOT
p2998
(dp2999
g1781
(lp3000
VNP
p3001
aVN
p3002
asg1784
I2
sg592
I222
sg75
g2932
sba(iconstruction
TP_PHON
p3003
(dp3004
g1787
I2
sg1784
I3
sg592
I223
sg1788
Vis
p3005
sg75
VS4_223
p3006
sba(iconstruction
TP_SLOT
p3007
(dp3008
g1781
(lp3009
VVP
p3010
aVV
p3011
asg1784
I4
sg592
I224
sg75
g2934
sba(iconstruction
TP_PHON
p3012
(dp3013
g1787
I2
sg1784
I5
sg592
I225
sg1788
V-ed
p3014
sg75
VS6_225
p3015
sba(iconstruction
TP_PHON
p3016
(dp3017
g1787
I2
sg1784
I6
sg592
I226
sg1788
Vby
p3018
sg75
VS7_226
p3019
sbasg75
g1679
sbsg1795
I1
sba(iconstruction
CXN
p3020
(dp3021
g1737
(iconstruction
TP_SYMLINKS
p3022
(dp3023
g1740
(dp3024
VATTR_232
p3025
VS4_238
p3026
sVENT_231
p3027
VS1_235
p3028
ssg592
I229
sg75
g1679
sbsg1746
VN
p3029
sg1748
I2
sg75
VREL_SPA
p3030
sg1749
(iconstruction
TP_SEMFRAME
p3031
(dp3032
g105
g0
(g106
g2
Ntp3033
Rp3034
(dp3035
g110
(dp3036
(iconstruction
TP_NODE
p3037
(dp3038
g1758
I01
sg94
g750
sg75
g3027
sg1759
I01
sg1760
I01
sg592
I231
sb(dp3039
g1759
I01
sg94
g750
ss(iconstruction
TP_NODE
p3040
(dp3041
g1758
I00
sg94
g651
sg75
g3025
sg1759
I00
sg1760
I00
sg592
I232
sb(dp3042
g1759
I00
sg94
g651
ss(iconstruction
TP_NODE
p3043
(dp3044
g1758
I00
sg94
g747
sg75
VEVT_230
p3045
sg1759
I01
sg1760
I00
sg592
I230
sb(dp3046
g1759
I01
sg94
g747
sssg293
g294
sg295
g294
sg296
(dp3047
g3037
(dp3048
sg3040
(dp3049
sg3043
(dp3050
g3037
(dp3051
g94
g741
ssg3040
(dp3052
g94
g699
ssssg490
g3047
sg105
(dp3053
sg492
g294
sg493
g3047
sg494
(dp3054
g3037
(dp3055
g3043
g3051
ssg3040
(dp3056
g3043
g3052
ssg3043
(dp3057
ssbsg587
(lp3058
g3043
ag3037
ag3040
asg860
(lp3059
(iconstruction
TP_REL
p3060
(dp3061
g866
g3037
sg94
g741
sg592
I233
sg867
g3043
sg75
VIS_233
p3062
sba(iconstruction
TP_REL
p3063
(dp3064
g866
g3040
sg94
g699
sg592
I234
sg867
g3043
sg75
VEVT_ATTR_234
p3065
sbasg592
I227
sg75
g1679
sbsg1774
(iconstruction
TP_SYNFORM
p3066
(dp3067
g592
I228
sg1777
(lp3068
(iconstruction
TP_SLOT
p3069
(dp3070
g1781
(lp3071
VN
p3072
asg1784
I0
sg592
I235
sg75
g3028
sba(iconstruction
TP_PHON
p3073
(dp3074
g1787
I4
sg1784
I1
sg592
I236
sg1788
Vthat
p3075
sg75
VS2_236
p3076
sba(iconstruction
TP_PHON
p3077
(dp3078
g1787
I2
sg1784
I2
sg592
I237
sg1788
Vis
p3079
sg75
VS3_237
p3080
sba(iconstruction
TP_SLOT
p3081
(dp3082
g1781
(lp3083
VA
p3084
asg1784
I3
sg592
I238
sg75
g3026
sbasg75
g1679
sbsg1795
I1
sba(iconstruction
CXN
p3085
(dp3086
g1737
(iconstruction
TP_SYMLINKS
p3087
(dp3088
g1740
(dp3089
VAGT_244
p3090
VS1_251
p3091
sVCOLOR_246
p3092
VS3_253
p3093
ssg592
I241
sg75
g1679
sbsg1746
VN
p3094
sg1748
I2
sg75
VIN_COLOR
p3095
sg1749
(iconstruction
TP_SEMFRAME
p3096
(dp3097
g105
g0
(g106
g2
Ntp3098
Rp3099
(dp3100
g110
(dp3101
(iconstruction
TP_NODE
p3102
(dp3103
g1758
I00
sg94
g639
sg75
VACT_243
p3104
sg1759
I01
sg1760
I00
sg592
I243
sb(dp3105
g1759
I01
sg94
g639
ss(iconstruction
TP_NODE
p3106
(dp3107
g1758
I01
sg94
g759
sg75
g3090
sg1759
I01
sg1760
I00
sg592
I244
sb(dp3108
g1759
I01
sg94
g759
ss(iconstruction
TP_NODE
p3109
(dp3110
g1758
I00
sg94
g789
sg75
VPT_245
p3111
sg1759
I01
sg1760
I00
sg592
I245
sb(dp3112
g1759
I01
sg94
g789
ss(iconstruction
TP_NODE
p3113
(dp3114
g1758
I00
sg94
g747
sg75
VEVT_242
p3115
sg1759
I01
sg1760
I00
sg592
I242
sb(dp3116
g1759
I01
sg94
g747
ss(iconstruction
TP_NODE
p3117
(dp3118
g1758
I00
sg94
g654
sg75
g3092
sg1759
I00
sg1760
I01
sg592
I246
sb(dp3119
g1759
I00
sg94
g654
sssg293
g294
sg295
g294
sg296
(dp3120
g3102
(dp3121
g3109
(dp3122
g94
g714
ssg3106
(dp3123
g94
g720
sssg3106
(dp3124
sg3109
(dp3125
g3117
(dp3126
g94
g699
sssg3113
(dp3127
g3102
(dp3128
g94
g741
sssg3117
(dp3129
ssg490
g3120
sg105
(dp3130
sg492
g294
sg493
g3120
sg494
(dp3131
g3102
(dp3132
g3113
g3128
ssg3106
(dp3133
g3102
g3123
ssg3109
(dp3134
g3102
g3122
ssg3113
(dp3135
sg3117
(dp3136
g3109
g3126
sssbsg587
(lp3137
g3113
ag3102
ag3106
ag3109
ag3117
asg860
(lp3138
(iconstruction
TP_REL
p3139
(dp3140
g866
g3102
sg94
g741
sg592
I247
sg867
g3113
sg75
VIS_247
p3141
sba(iconstruction
TP_REL
p3142
(dp3143
g866
g3106
sg94
g720
sg592
I248
sg867
g3102
sg75
VACT_AGT_248
p3144
sba(iconstruction
TP_REL
p3145
(dp3146
g866
g3109
sg94
g714
sg592
I249
sg867
g3102
sg75
VACT_PT_249
p3147
sba(iconstruction
TP_REL
p3148
(dp3149
g866
g3117
sg94
g699
sg592
I250
sg867
g3109
sg75
VPT_COLOR_250
p3150
sbasg592
I239
sg75
g1679
sbsg1774
(iconstruction
TP_SYNFORM
p3151
(dp3152
g592
I240
sg1777
(lp3153
(iconstruction
TP_SLOT
p3154
(dp3155
g1781
(lp3156
VN
p3157
asg1784
I0
sg592
I251
sg75
g3091
sba(iconstruction
TP_PHON
p3158
(dp3159
g1787
I2
sg1784
I1
sg592
I252
sg1788
Vin
p3160
sg75
VS2_252
p3161
sba(iconstruction
TP_SLOT
p3162
(dp3163
g1781
(lp3164
VA
p3165
asg1784
I2
sg592
I253
sg75
g3093
sbasg75
g1679
sbsg1795
I1
sba(iconstruction
CXN
p3166
(dp3167
g1737
(iconstruction
TP_SYMLINKS
p3168
(dp3169
g1740
(dp3170
VN1_258
p3171
VS1_260
p3172
ssg592
I256
sg75
g1679
sbsg1746
VV
p3173
sg1748
I1
sg75
VHIT
p3174
sg1749
(iconstruction
TP_SEMFRAME
p3175
(dp3176
g105
g0
(g106
g2
Ntp3177
Rp3178
(dp3179
g110
(dp3180
(iconstruction
TP_NODE
p3181
(dp3182
g1758
I01
sg94
g594
sg75
VACT_257
p3183
sg1759
I01
sg1760
I00
sg592
I257
sb(dp3184
g1759
I01
sg94
g594
ss(iconstruction
TP_NODE
p3185
(dp3186
g1758
I00
sg94
g615
sg75
g3171
sg1759
I00
sg1760
I00
sg592
I258
sb(dp3187
g1759
I00
sg94
g615
sssg293
g294
sg295
g294
sg296
(dp3188
g3181
(dp3189
g3185
(dp3190
g94
g741
sssg3185
(dp3191
ssg490
g3188
sg105
(dp3192
sg492
g294
sg493
g3188
sg494
(dp3193
g3181
(dp3194
sg3185
(dp3195
g3181
g3190
sssbsg587
(lp3196
g3181
ag3185
asg860
(lp3197
(iconstruction
TP_REL
p3198
(dp3199
g866
g3185
sg94
g741
sg592
I259
sg867
g3181
sg75
VIS_259
p3200
sbasg592
I254
sg75
g1679
sbsg1774
(iconstruction
TP_SYNFORM
p3201
(dp3202
g592
I255
sg1777
(lp3203
(iconstruction
TP_PHON
p3204
(dp3205
g1787
I3
sg1784
I0
sg592
I260
sg1788
Vhit
p3206
sg75
g3172
sbasg75
g1679
sbsg1795
I1
sba(iconstruction
CXN
p3207
(dp3208
g1737
(iconstruction
TP_SYMLINKS
p3209
(dp3210
g1740
(dp3211
VN1_265
p3212
VS1_267
p3213
ssg592
I263
sg75
g1679
sbsg1746
VV
p3214
sg1748
I1
sg75
VKICK
p3215
sg1749
(iconstruction
TP_SEMFRAME
p3216
(dp3217
g105
g0
(g106
g2
Ntp3218
Rp3219
(dp3220
g110
(dp3221
(iconstruction
TP_NODE
p3222
(dp3223
g1758
I00
sg94
g636
sg75
g3212
sg1759
I00
sg1760
I00
sg592
I265
sb(dp3224
g1759
I00
sg94
g636
ss(iconstruction
TP_NODE
p3225
(dp3226
g1758
I01
sg94
g594
sg75
VACT_264
p3227
sg1759
I01
sg1760
I00
sg592
I264
sb(dp3228
g1759
I01
sg94
g594
sssg293
g294
sg295
g294
sg296
(dp3229
g3222
(dp3230
sg3225
(dp3231
g3222
(dp3232
g94
g741
ssssg490
g3229
sg105
(dp3233
sg492
g294
sg493
g3229
sg494
(dp3234
g3222
(dp3235
g3225
g3232
ssg3225
(dp3236
ssbsg587
(lp3237
g3225
ag3222
asg860
(lp3238
(iconstruction
TP_REL
p3239
(dp3240
g866
g3222
sg94
g741
sg592
I266
sg867
g3225
sg75
VIS_266
p3241
sbasg592
I261
sg75
g1679
sbsg1774
(iconstruction
TP_SYNFORM
p3242
(dp3243
g592
I262
sg1777
(lp3244
(iconstruction
TP_PHON
p3245
(dp3246
g1787
I4
sg1784
I0
sg592
I267
sg1788
Vkick
p3247
sg75
g3213
sbasg75
g1679
sbsg1795
I1
sba(iconstruction
CXN
p3248
(dp3249
g1737
(iconstruction
TP_SYMLINKS
p3250
(dp3251
g1740
(dp3252
VN1_272
p3253
VS1_274
p3254
ssg592
I270
sg75
g1679
sbsg1746
VV
p3255
sg1748
I1
sg75
VPUNCH
p3256
sg1749
(iconstruction
TP_SEMFRAME
p3257
(dp3258
g105
g0
(g106
g2
Ntp3259
Rp3260
(dp3261
g110
(dp3262
(iconstruction
TP_NODE
p3263
(dp3264
g1758
I01
sg94
g594
sg75
VACT_271
p3265
sg1759
I01
sg1760
I00
sg592
I271
sb(dp3266
g1759
I01
sg94
g594
ss(iconstruction
TP_NODE
p3267
(dp3268
g1758
I00
sg94
g621
sg75
g3253
sg1759
I00
sg1760
I00
sg592
I272
sb(dp3269
g1759
I00
sg94
g621
sssg293
g294
sg295
g294
sg296
(dp3270
g3263
(dp3271
g3267
(dp3272
g94
g741
sssg3267
(dp3273
ssg490
g3270
sg105
(dp3274
sg492
g294
sg493
g3270
sg494
(dp3275
g3263
(dp3276
sg3267
(dp3277
g3263
g3272
sssbsg587
(lp3278
g3263
ag3267
asg860
(lp3279
(iconstruction
TP_REL
p3280
(dp3281
g866
g3267
sg94
g741
sg592
I273
sg867
g3263
sg75
VIS_273
p3282
sbasg592
I268
sg75
g1679
sbsg1774
(iconstruction
TP_SYNFORM
p3283
(dp3284
g592
I269
sg1777
(lp3285
(iconstruction
TP_PHON
p3286
(dp3287
g1787
I5
sg1784
I0
sg592
I274
sg1788
Vpunch
p3288
sg75
g3254
sbasg75
g1679
sbsg1795
I1
sba(iconstruction
CXN
p3289
(dp3290
g1737
(iconstruction
TP_SYMLINKS
p3291
(dp3292
g1740
(dp3293
VN1_279
p3294
VS1_281
p3295
ssg592
I277
sg75
g1679
sbsg1746
VV
p3296
sg1748
I1
sg75
VWEAR
p3297
sg1749
(iconstruction
TP_SEMFRAME
p3298
(dp3299
g105
g0
(g106
g2
Ntp3300
Rp3301
(dp3302
g110
(dp3303
(iconstruction
TP_NODE
p3304
(dp3305
g1758
I01
sg94
g594
sg75
VACT_278
p3306
sg1759
I01
sg1760
I00
sg592
I278
sb(dp3307
g1759
I01
sg94
g594
ss(iconstruction
TP_NODE
p3308
(dp3309
g1758
I00
sg94
g639
sg75
g3294
sg1759
I00
sg1760
I00
sg592
I279
sb(dp3310
g1759
I00
sg94
g639
sssg293
g294
sg295
g294
sg296
(dp3311
g3304
(dp3312
g3308
(dp3313
g94
g741
sssg3308
(dp3314
ssg490
g3311
sg105
(dp3315
sg492
g294
sg493
g3311
sg494
(dp3316
g3304
(dp3317
sg3308
(dp3318
g3304
g3313
sssbsg587
(lp3319
g3304
ag3308
asg860
(lp3320
(iconstruction
TP_REL
p3321
(dp3322
g866
g3308
sg94
g741
sg592
I280
sg867
g3304
sg75
VIS_280
p3323
sbasg592
I275
sg75
g1679
sbsg1774
(iconstruction
TP_SYNFORM
p3324
(dp3325
g592
I276
sg1777
(lp3326
(iconstruction
TP_PHON
p3327
(dp3328
g1787
I4
sg1784
I0
sg592
I281
sg1788
Vwear
p3329
sg75
g3295
sbasg75
g1679
sbsg1795
I1
sba(iconstruction
CXN
p3330
(dp3331
g1737
(iconstruction
TP_SYMLINKS
p3332
(dp3333
g1740
(dp3334
VN1_286
p3335
VS1_288
p3336
ssg592
I284
sg75
g1679
sbsg1746
VV
p3337
sg1748
I1
sg75
VLAUGH
p3338
sg1749
(iconstruction
TP_SEMFRAME
p3339
(dp3340
g105
g0
(g106
g2
Ntp3341
Rp3342
(dp3343
g110
(dp3344
(iconstruction
TP_NODE
p3345
(dp3346
g1758
I00
sg94
g609
sg75
g3335
sg1759
I00
sg1760
I00
sg592
I286
sb(dp3347
g1759
I00
sg94
g609
ss(iconstruction
TP_NODE
p3348
(dp3349
g1758
I01
sg94
g594
sg75
VACT_285
p3350
sg1759
I01
sg1760
I00
sg592
I285
sb(dp3351
g1759
I01
sg94
g594
sssg293
g294
sg295
g294
sg296
(dp3352
g3345
(dp3353
sg3348
(dp3354
g3345
(dp3355
g94
g741
ssssg490
g3352
sg105
(dp3356
sg492
g294
sg493
g3352
sg494
(dp3357
g3345
(dp3358
g3348
g3355
ssg3348
(dp3359
ssbsg587
(lp3360
g3348
ag3345
asg860
(lp3361
(iconstruction
TP_REL
p3362
(dp3363
g866
g3345
sg94
g741
sg592
I287
sg867
g3348
sg75
VIS_287
p3364
sbasg592
I282
sg75
g1679
sbsg1774
(iconstruction
TP_SYNFORM
p3365
(dp3366
g592
I283
sg1777
(lp3367
(iconstruction
TP_PHON
p3368
(dp3369
g1787
I5
sg1784
I0
sg592
I288
sg1788
Vlaugh
p3370
sg75
g3336
sbasg75
g1679
sbsg1795
I1
sba(iconstruction
CXN
p3371
(dp3372
g1737
(iconstruction
TP_SYMLINKS
p3373
(dp3374
g1740
(dp3375
VN1_293
p3376
VS1_295
p3377
ssg592
I291
sg75
g1679
sbsg1746
VV
p3378
sg1748
I1
sg75
VWATCH
p3379
sg1749
(iconstruction
TP_SEMFRAME
p3380
(dp3381
g105
g0
(g106
g2
Ntp3382
Rp3383
(dp3384
g110
(dp3385
(iconstruction
TP_NODE
p3386
(dp3387
g1758
I01
sg94
g594
sg75
VACT_292
p3388
sg1759
I01
sg1760
I00
sg592
I292
sb(dp3389
g1759
I01
sg94
g594
ss(iconstruction
TP_NODE
p3390
(dp3391
g1758
I00
sg94
g618
sg75
g3376
sg1759
I00
sg1760
I00
sg592
I293
sb(dp3392
g1759
I00
sg94
g618
sssg293
g294
sg295
g294
sg296
(dp3393
g3386
(dp3394
g3390
(dp3395
g94
g741
sssg3390
(dp3396
ssg490
g3393
sg105
(dp3397
sg492
g294
sg493
g3393
sg494
(dp3398
g3386
(dp3399
sg3390
(dp3400
g3386
g3395
sssbsg587
(lp3401
g3386
ag3390
asg860
(lp3402
(iconstruction
TP_REL
p3403
(dp3404
g866
g3390
sg94
g741
sg592
I294
sg867
g3386
sg75
VIS_294
p3405
sbasg592
I289
sg75
g1679
sbsg1774
(iconstruction
TP_SYNFORM
p3406
(dp3407
g592
I290
sg1777
(lp3408
(iconstruction
TP_PHON
p3409
(dp3410
g1787
I5
sg1784
I0
sg592
I295
sg1788
Vwatch
p3411
sg75
g3377
sbasg75
g1679
sbsg1795
I1
sba(iconstruction
CXN
p3412
(dp3413
g1737
(iconstruction
TP_SYMLINKS
p3414
(dp3415
g1740
(dp3416
VN1_300
p3417
VS1_302
p3418
ssg592
I298
sg75
g1679
sbsg1746
VV
p3419
sg1748
I1
sg75
VTALK
p3420
sg1749
(iconstruction
TP_SEMFRAME
p3421
(dp3422
g105
g0
(g106
g2
Ntp3423
Rp3424
(dp3425
g110
(dp3426
(iconstruction
TP_NODE
p3427
(dp3428
g1758
I00
sg94
g627
sg75
g3417
sg1759
I00
sg1760
I00
sg592
I300
sb(dp3429
g1759
I00
sg94
g627
ss(iconstruction
TP_NODE
p3430
(dp3431
g1758
I01
sg94
g594
sg75
VACT_299
p3432
sg1759
I01
sg1760
I00
sg592
I299
sb(dp3433
g1759
I01
sg94
g594
sssg293
g294
sg295
g294
sg296
(dp3434
g3427
(dp3435
sg3430
(dp3436
g3427
(dp3437
g94
g741
ssssg490
g3434
sg105
(dp3438
sg492
g294
sg493
g3434
sg494
(dp3439
g3427
(dp3440
g3430
g3437
ssg3430
(dp3441
ssbsg587
(lp3442
g3430
ag3427
asg860
(lp3443
(iconstruction
TP_REL
p3444
(dp3445
g866
g3427
sg94
g741
sg592
I301
sg867
g3430
sg75
VIS_301
p3446
sbasg592
I296
sg75
g1679
sbsg1774
(iconstruction
TP_SYNFORM
p3447
(dp3448
g592
I297
sg1777
(lp3449
(iconstruction
TP_PHON
p3450
(dp3451
g1787
I4
sg1784
I0
sg592
I302
sg1788
Vtalk
p3452
sg75
g3418
sba(iconstruction
TP_PHON
p3453
(dp3454
g1787
I2
sg1784
I1
sg592
I303
sg1788
Vto
p3455
sg75
VS2_303
p3456
sbasg75
g1679
sbsg1795
I1
sba(iconstruction
CXN
p3457
(dp3458
g1737
(iconstruction
TP_SYMLINKS
p3459
(dp3460
g1740
(dp3461
VN1_308
p3462
VS1_310
p3463
ssg592
I306
sg75
g1679
sbsg1746
VV
p3464
sg1748
I1
sg75
VSQUIRT
p3465
sg1749
(iconstruction
TP_SEMFRAME
p3466
(dp3467
g105
g0
(g106
g2
Ntp3468
Rp3469
(dp3470
g110
(dp3471
(iconstruction
TP_NODE
p3472
(dp3473
g1758
I00
sg94
g633
sg75
g3462
sg1759
I00
sg1760
I00
sg592
I308
sb(dp3474
g1759
I00
sg94
g633
ss(iconstruction
TP_NODE
p3475
(dp3476
g1758
I01
sg94
g594
sg75
VACT_307
p3477
sg1759
I01
sg1760
I00
sg592
I307
sb(dp3478
g1759
I01
sg94
g594
sssg293
g294
sg295
g294
sg296
(dp3479
g3472
(dp3480
sg3475
(dp3481
g3472
(dp3482
g94
g741
ssssg490
g3479
sg105
(dp3483
sg492
g294
sg493
g3479
sg494
(dp3484
g3472
(dp3485
g3475
g3482
ssg3475
(dp3486
ssbsg587
(lp3487
g3475
ag3472
asg860
(lp3488
(iconstruction
TP_REL
p3489
(dp3490
g866
g3472
sg94
g741
sg592
I309
sg867
g3475
sg75
VIS_309
p3491
sbasg592
I304
sg75
g1679
sbsg1774
(iconstruction
TP_SYNFORM
p3492
(dp3493
g592
I305
sg1777
(lp3494
(iconstruction
TP_PHON
p3495
(dp3496
g1787
I6
sg1784
I0
sg592
I310
sg1788
Vsquirt
p3497
sg75
g3463
sba(iconstruction
TP_PHON
p3498
(dp3499
g1787
I2
sg1784
I1
sg592
I311
sg1788
Vat
p3500
sg75
VS2_311
p3501
sbasg75
g1679
sbsg1795
I1
sba(iconstruction
CXN
p3502
(dp3503
g1737
(iconstruction
TP_SYMLINKS
p3504
(dp3505
g1740
(dp3506
VN1_316
p3507
VS1_318
p3508
ssg592
I314
sg75
g1679
sbsg1746
VV
p3509
sg1748
I1
sg75
VSPLASH
p3510
sg1749
(iconstruction
TP_SEMFRAME
p3511
(dp3512
g105
g0
(g106
g2
Ntp3513
Rp3514
(dp3515
g110
(dp3516
(iconstruction
TP_NODE
p3517
(dp3518
g1758
I01
sg94
g594
sg75
VACT_315
p3519
sg1759
I01
sg1760
I00
sg592
I315
sb(dp3520
g1759
I01
sg94
g594
ss(iconstruction
TP_NODE
p3521
(dp3522
g1758
I00
sg94
g624
sg75
g3507
sg1759
I00
sg1760
I00
sg592
I316
sb(dp3523
g1759
I00
sg94
g624
sssg293
g294
sg295
g294
sg296
(dp3524
g3517
(dp3525
g3521
(dp3526
g94
g741
sssg3521
(dp3527
ssg490
g3524
sg105
(dp3528
sg492
g294
sg493
g3524
sg494
(dp3529
g3517
(dp3530
sg3521
(dp3531
g3517
g3526
sssbsg587
(lp3532
g3517
ag3521
asg860
(lp3533
(iconstruction
TP_REL
p3534
(dp3535
g866
g3521
sg94
g741
sg592
I317
sg867
g3517
sg75
VIS_317
p3536
sbasg592
I312
sg75
g1679
sbsg1774
(iconstruction
TP_SYNFORM
p3537
(dp3538
g592
I313
sg1777
(lp3539
(iconstruction
TP_PHON
p3540
(dp3541
g1787
I6
sg1784
I0
sg592
I318
sg1788
Vsplash
p3542
sg75
g3508
sbasg75
g1679
sbsg1795
I1
sba(iconstruction
CXN
p3543
(dp3544
g1737
(iconstruction
TP_SYMLINKS
p3545
(dp3546
g1740
(dp3547
VN1_323
p3548
VS1_325
p3549
ssg592
I321
sg75
g1679
sbsg1746
VV
p3550
sg1748
I1
sg75
VGIVE
p3551
sg1749
(iconstruction
TP_SEMFRAME
p3552
(dp3553
g105
g0
(g106
g2
Ntp3554
Rp3555
(dp3556
g110
(dp3557
(iconstruction
TP_NODE
p3558
(dp3559
g1758
I00
sg94
g648
sg75
g3548
sg1759
I00
sg1760
I00
sg592
I323
sb(dp3560
g1759
I00
sg94
g648
ss(iconstruction
TP_NODE
p3561
(dp3562
g1758
I01
sg94
g594
sg75
VACT_322
p3563
sg1759
I01
sg1760
I00
sg592
I322
sb(dp3564
g1759
I01
sg94
g594
sssg293
g294
sg295
g294
sg296
(dp3565
g3558
(dp3566
sg3561
(dp3567
g3558
(dp3568
g94
g741
ssssg490
g3565
sg105
(dp3569
sg492
g294
sg493
g3565
sg494
(dp3570
g3558
(dp3571
g3561
g3568
ssg3561
(dp3572
ssbsg587
(lp3573
g3561
ag3558
asg860
(lp3574
(iconstruction
TP_REL
p3575
(dp3576
g866
g3558
sg94
g741
sg592
I324
sg867
g3561
sg75
VIS_324
p3577
sbasg592
I319
sg75
g1679
sbsg1774
(iconstruction
TP_SYNFORM
p3578
(dp3579
g592
I320
sg1777
(lp3580
(iconstruction
TP_PHON
p3581
(dp3582
g1787
I4
sg1784
I0
sg592
I325
sg1788
Vgive
p3583
sg75
g3549
sbasg75
g1679
sbsg1795
I1
sba(iconstruction
CXN
p3584
(dp3585
g1737
(iconstruction
TP_SYMLINKS
p3586
(dp3587
g1740
(dp3588
VN1_330
p3589
VS1_332
p3590
ssg592
I328
sg75
g1679
sbsg1746
VV
p3591
sg1748
I1
sg75
VSEND
p3592
sg1749
(iconstruction
TP_SEMFRAME
p3593
(dp3594
g105
g0
(g106
g2
Ntp3595
Rp3596
(dp3597
g110
(dp3598
(iconstruction
TP_NODE
p3599
(dp3600
g1758
I01
sg94
g594
sg75
VACT_329
p3601
sg1759
I01
sg1760
I00
sg592
I329
sb(dp3602
g1759
I01
sg94
g594
ss(iconstruction
TP_NODE
p3603
(dp3604
g1758
I00
sg94
g645
sg75
g3589
sg1759
I00
sg1760
I00
sg592
I330
sb(dp3605
g1759
I00
sg94
g645
sssg293
g294
sg295
g294
sg296
(dp3606
g3599
(dp3607
g3603
(dp3608
g94
g741
sssg3603
(dp3609
ssg490
g3606
sg105
(dp3610
sg492
g294
sg493
g3606
sg494
(dp3611
g3599
(dp3612
sg3603
(dp3613
g3599
g3608
sssbsg587
(lp3614
g3599
ag3603
asg860
(lp3615
(iconstruction
TP_REL
p3616
(dp3617
g866
g3603
sg94
g741
sg592
I331
sg867
g3599
sg75
VIS_331
p3618
sbasg592
I326
sg75
g1679
sbsg1774
(iconstruction
TP_SYNFORM
p3619
(dp3620
g592
I327
sg1777
(lp3621
(iconstruction
TP_PHON
p3622
(dp3623
g1787
I4
sg1784
I0
sg592
I332
sg1788
Vsend
p3624
sg75
g3590
sbasg75
g1679
sbsg1795
I1
sba(iconstruction
CXN
p3625
(dp3626
g1737
(iconstruction
TP_SYMLINKS
p3627
(dp3628
g1740
(dp3629
VN1_337
p3630
VS1_339
p3631
ssg592
I335
sg75
g1679
sbsg1746
VV
p3632
sg1748
I1
sg75
VMEET
p3633
sg1749
(iconstruction
TP_SEMFRAME
p3634
(dp3635
g105
g0
(g106
g2
Ntp3636
Rp3637
(dp3638
g110
(dp3639
(iconstruction
TP_NODE
p3640
(dp3641
g1758
I00
sg94
g600
sg75
g3630
sg1759
I00
sg1760
I00
sg592
I337
sb(dp3642
g1759
I00
sg94
g600
ss(iconstruction
TP_NODE
p3643
(dp3644
g1758
I01
sg94
g594
sg75
VACT_336
p3645
sg1759
I01
sg1760
I00
sg592
I336
sb(dp3646
g1759
I01
sg94
g594
sssg293
g294
sg295
g294
sg296
(dp3647
g3640
(dp3648
sg3643
(dp3649
g3640
(dp3650
g94
g741
ssssg490
g3647
sg105
(dp3651
sg492
g294
sg493
g3647
sg494
(dp3652
g3640
(dp3653
g3643
g3650
ssg3643
(dp3654
ssbsg587
(lp3655
g3643
ag3640
asg860
(lp3656
(iconstruction
TP_REL
p3657
(dp3658
g866
g3640
sg94
g741
sg592
I338
sg867
g3643
sg75
VIS_338
p3659
sbasg592
I333
sg75
g1679
sbsg1774
(iconstruction
TP_SYNFORM
p3660
(dp3661
g592
I334
sg1777
(lp3662
(iconstruction
TP_PHON
p3663
(dp3664
g1787
I4
sg1784
I0
sg592
I339
sg1788
Vmeet
p3665
sg75
g3631
sbasg75
g1679
sbsg1795
I1
sba(iconstruction
CXN
p3666
(dp3667
g1737
(iconstruction
TP_SYMLINKS
p3668
(dp3669
g1740
(dp3670
VN1_344
p3671
VS1_346
p3672
ssg592
I342
sg75
g1679
sbsg1746
VV
p3673
sg1748
I1
sg75
VKISS
p3674
sg1749
(iconstruction
TP_SEMFRAME
p3675
(dp3676
g105
g0
(g106
g2
Ntp3677
Rp3678
(dp3679
g110
(dp3680
(iconstruction
TP_NODE
p3681
(dp3682
g1758
I01
sg94
g594
sg75
VACT_343
p3683
sg1759
I01
sg1760
I00
sg592
I343
sb(dp3684
g1759
I01
sg94
g594
ss(iconstruction
TP_NODE
p3685
(dp3686
g1758
I00
sg94
g630
sg75
g3671
sg1759
I00
sg1760
I00
sg592
I344
sb(dp3687
g1759
I00
sg94
g630
sssg293
g294
sg295
g294
sg296
(dp3688
g3681
(dp3689
g3685
(dp3690
g94
g741
sssg3685
(dp3691
ssg490
g3688
sg105
(dp3692
sg492
g294
sg493
g3688
sg494
(dp3693
g3681
(dp3694
sg3685
(dp3695
g3681
g3690
sssbsg587
(lp3696
g3681
ag3685
asg860
(lp3697
(iconstruction
TP_REL
p3698
(dp3699
g866
g3685
sg94
g741
sg592
I345
sg867
g3681
sg75
VIS_345
p3700
sbasg592
I340
sg75
g1679
sbsg1774
(iconstruction
TP_SYNFORM
p3701
(dp3702
g592
I341
sg1777
(lp3703
(iconstruction
TP_PHON
p3704
(dp3705
g1787
I4
sg1784
I0
sg592
I346
sg1788
Vkiss
p3706
sg75
g3672
sbasg75
g1679
sbsg1795
I1
sba(iconstruction
CXN
p3707
(dp3708
g1737
(iconstruction
TP_SYMLINKS
p3709
(dp3710
g1740
(dp3711
VN1_351
p3712
VS1_353
p3713
ssg592
I349
sg75
g1679
sbsg1746
VV
p3714
sg1748
I1
sg75
VSHAKE_HANDS
p3715
sg1749
(iconstruction
TP_SEMFRAME
p3716
(dp3717
g105
g0
(g106
g2
Ntp3718
Rp3719
(dp3720
g110
(dp3721
(iconstruction
TP_NODE
p3722
(dp3723
g1758
I00
sg94
g603
sg75
g3712
sg1759
I00
sg1760
I00
sg592
I351
sb(dp3724
g1759
I00
sg94
g603
ss(iconstruction
TP_NODE
p3725
(dp3726
g1758
I01
sg94
g594
sg75
VACT_350
p3727
sg1759
I01
sg1760
I00
sg592
I350
sb(dp3728
g1759
I01
sg94
g594
sssg293
g294
sg295
g294
sg296
(dp3729
g3722
(dp3730
sg3725
(dp3731
g3722
(dp3732
g94
g741
ssssg490
g3729
sg105
(dp3733
sg492
g294
sg493
g3729
sg494
(dp3734
g3722
(dp3735
g3725
g3732
ssg3725
(dp3736
ssbsg587
(lp3737
g3725
ag3722
asg860
(lp3738
(iconstruction
TP_REL
p3739
(dp3740
g866
g3722
sg94
g741
sg592
I352
sg867
g3725
sg75
VIS_352
p3741
sbasg592
I347
sg75
g1679
sbsg1774
(iconstruction
TP_SYNFORM
p3742
(dp3743
g592
I348
sg1777
(lp3744
(iconstruction
TP_PHON
p3745
(dp3746
g1787
I10
sg1784
I0
sg592
I353
sg1788
Vshake hands
p3747
sg75
g3713
sbasg75
g1679
sbsg1795
I1
sba(iconstruction
CXN
p3748
(dp3749
g1737
(iconstruction
TP_SYMLINKS
p3750
(dp3751
g1740
(dp3752
VN1_357
p3753
VS1_358
p3754
ssg592
I356
sg75
g1679
sbsg1746
VA
p3755
sg1748
I1
sg75
VBLUE
p3756
sg1749
(iconstruction
TP_SEMFRAME
p3757
(dp3758
g105
g0
(g106
g2
Ntp3759
Rp3760
(dp3761
g110
(dp3762
(iconstruction
TP_NODE
p3763
(dp3764
g1758
I01
sg94
g657
sg75
g3753
sg1759
I00
sg1760
I00
sg592
I357
sb(dp3765
g1759
I00
sg94
g657
sssg293
g294
sg295
g294
sg296
(dp3766
g3763
(dp3767
ssg490
g3766
sg105
(dp3768
sg492
g294
sg493
g3766
sg494
(dp3769
g3763
(dp3770
ssbsg587
(lp3771
g3763
asg860
(lp3772
sg592
I354
sg75
g1679
sbsg1774
(iconstruction
TP_SYNFORM
p3773
(dp3774
g592
I355
sg1777
(lp3775
(iconstruction
TP_PHON
p3776
(dp3777
g1787
I4
sg1784
I0
sg592
I358
sg1788
Vblue
p3778
sg75
g3754
sbasg75
g1679
sbsg1795
I1
sba(iconstruction
CXN
p3779
(dp3780
g1737
(iconstruction
TP_SYMLINKS
p3781
(dp3782
g1740
(dp3783
VN1_362
p3784
VS1_363
p3785
ssg592
I361
sg75
g1679
sbsg1746
VA
p3786
sg1748
I1
sg75
VBLACK
p3787
sg1749
(iconstruction
TP_SEMFRAME
p3788
(dp3789
g105
g0
(g106
g2
Ntp3790
Rp3791
(dp3792
g110
(dp3793
(iconstruction
TP_NODE
p3794
(dp3795
g1758
I01
sg94
g666
sg75
g3784
sg1759
I00
sg1760
I00
sg592
I362
sb(dp3796
g1759
I00
sg94
g666
sssg293
g294
sg295
g294
sg296
(dp3797
g3794
(dp3798
ssg490
g3797
sg105
(dp3799
sg492
g294
sg493
g3797
sg494
(dp3800
g3794
(dp3801
ssbsg587
(lp3802
g3794
asg860
(lp3803
sg592
I359
sg75
g1679
sbsg1774
(iconstruction
TP_SYNFORM
p3804
(dp3805
g592
I360
sg1777
(lp3806
(iconstruction
TP_PHON
p3807
(dp3808
g1787
I5
sg1784
I0
sg592
I363
sg1788
Vblack
p3809
sg75
g3785
sbasg75
g1679
sbsg1795
I1
sba(iconstruction
CXN
p3810
(dp3811
g1737
(iconstruction
TP_SYMLINKS
p3812
(dp3813
g1740
(dp3814
VN1_367
p3815
VS1_368
p3816
ssg592
I366
sg75
g1679
sbsg1746
VA
p3817
sg1748
I1
sg75
VGREEN
p3818
sg1749
(iconstruction
TP_SEMFRAME
p3819
(dp3820
g105
g0
(g106
g2
Ntp3821
Rp3822
(dp3823
g110
(dp3824
(iconstruction
TP_NODE
p3825
(dp3826
g1758
I01
sg94
g660
sg75
g3815
sg1759
I00
sg1760
I00
sg592
I367
sb(dp3827
g1759
I00
sg94
g660
sssg293
g294
sg295
g294
sg296
(dp3828
g3825
(dp3829
ssg490
g3828
sg105
(dp3830
sg492
g294
sg493
g3828
sg494
(dp3831
g3825
(dp3832
ssbsg587
(lp3833
g3825
asg860
(lp3834
sg592
I364
sg75
g1679
sbsg1774
(iconstruction
TP_SYNFORM
p3835
(dp3836
g592
I365
sg1777
(lp3837
(iconstruction
TP_PHON
p3838
(dp3839
g1787
I5
sg1784
I0
sg592
I368
sg1788
Vgreen
p3840
sg75
g3816
sbasg75
g1679
sbsg1795
I1
sba(iconstruction
CXN
p3841
(dp3842
g1737
(iconstruction
TP_SYMLINKS
p3843
(dp3844
g1740
(dp3845
VN1_372
p3846
VS1_373
p3847
ssg592
I371
sg75
g1679
sbsg1746
VA
p3848
sg1748
I1
sg75
VSMALL
p3849
sg1749
(iconstruction
TP_SEMFRAME
p3850
(dp3851
g105
g0
(g106
g2
Ntp3852
Rp3853
(dp3854
g110
(dp3855
(iconstruction
TP_NODE
p3856
(dp3857
g1758
I01
sg94
g687
sg75
g3846
sg1759
I00
sg1760
I00
sg592
I372
sb(dp3858
g1759
I00
sg94
g687
sssg293
g294
sg295
g294
sg296
(dp3859
g3856
(dp3860
ssg490
g3859
sg105
(dp3861
sg492
g294
sg493
g3859
sg494
(dp3862
g3856
(dp3863
ssbsg587
(lp3864
g3856
asg860
(lp3865
sg592
I369
sg75
g1679
sbsg1774
(iconstruction
TP_SYNFORM
p3866
(dp3867
g592
I370
sg1777
(lp3868
(iconstruction
TP_PHON
p3869
(dp3870
g1787
I5
sg1784
I0
sg592
I373
sg1788
Vsmall
p3871
sg75
g3847
sbasg75
g1679
sbsg1795
I1
sba(iconstruction
CXN
p3872
(dp3873
g1737
(iconstruction
TP_SYMLINKS
p3874
(dp3875
g1740
(dp3876
VN1_377
p3877
VS1_378
p3878
ssg592
I376
sg75
g1679
sbsg1746
VA
p3879
sg1748
I1
sg75
VBIG
p3880
sg1749
(iconstruction
TP_SEMFRAME
p3881
(dp3882
g105
g0
(g106
g2
Ntp3883
Rp3884
(dp3885
g110
(dp3886
(iconstruction
TP_NODE
p3887
(dp3888
g1758
I01
sg94
g690
sg75
g3877
sg1759
I00
sg1760
I00
sg592
I377
sb(dp3889
g1759
I00
sg94
g690
sssg293
g294
sg295
g294
sg296
(dp3890
g3887
(dp3891
ssg490
g3890
sg105
(dp3892
sg492
g294
sg493
g3890
sg494
(dp3893
g3887
(dp3894
ssbsg587
(lp3895
g3887
asg860
(lp3896
sg592
I374
sg75
g1679
sbsg1774
(iconstruction
TP_SYNFORM
p3897
(dp3898
g592
I375
sg1777
(lp3899
(iconstruction
TP_PHON
p3900
(dp3901
g1787
I3
sg1784
I0
sg592
I378
sg1788
Vbig
p3902
sg75
g3878
sbasg75
g1679
sbsg1795
I1
sba(iconstruction
CXN
p3903
(dp3904
g1737
(iconstruction
TP_SYMLINKS
p3905
(dp3906
g1740
(dp3907
VN1_382
p3908
VS1_383
p3909
ssg592
I381
sg75
g1679
sbsg1746
VA
p3910
sg1748
I1
sg75
VHANDSOME
p3911
sg1749
(iconstruction
TP_SEMFRAME
p3912
(dp3913
g105
g0
(g106
g2
Ntp3914
Rp3915
(dp3916
g110
(dp3917
(iconstruction
TP_NODE
p3918
(dp3919
g1758
I01
sg94
g681
sg75
g3908
sg1759
I00
sg1760
I00
sg592
I382
sb(dp3920
g1759
I00
sg94
g681
sssg293
g294
sg295
g294
sg296
(dp3921
g3918
(dp3922
ssg490
g3921
sg105
(dp3923
sg492
g294
sg493
g3921
sg494
(dp3924
g3918
(dp3925
ssbsg587
(lp3926
g3918
asg860
(lp3927
sg592
I379
sg75
g1679
sbsg1774
(iconstruction
TP_SYNFORM
p3928
(dp3929
g592
I380
sg1777
(lp3930
(iconstruction
TP_PHON
p3931
(dp3932
g1787
I8
sg1784
I0
sg592
I383
sg1788
Vhandsome
p3933
sg75
g3909
sbasg75
g1679
sbsg1795
I1
sba(iconstruction
CXN
p3934
(dp3935
g1737
(iconstruction
TP_SYMLINKS
p3936
(dp3937
g1740
(dp3938
VN1_387
p3939
VS1_388
p3940
ssg592
I386
sg75
g1679
sbsg1746
VA
p3941
sg1748
I1
sg75
VPRETTY
p3942
sg1749
(iconstruction
TP_SEMFRAME
p3943
(dp3944
g105
g0
(g106
g2
Ntp3945
Rp3946
(dp3947
g110
(dp3948
(iconstruction
TP_NODE
p3949
(dp3950
g1758
I01
sg94
g678
sg75
g3939
sg1759
I00
sg1760
I00
sg592
I387
sb(dp3951
g1759
I00
sg94
g678
sssg293
g294
sg295
g294
sg296
(dp3952
g3949
(dp3953
ssg490
g3952
sg105
(dp3954
sg492
g294
sg493
g3952
sg494
(dp3955
g3949
(dp3956
ssbsg587
(lp3957
g3949
asg860
(lp3958
sg592
I384
sg75
g1679
sbsg1774
(iconstruction
TP_SYNFORM
p3959
(dp3960
g592
I385
sg1777
(lp3961
(iconstruction
TP_PHON
p3962
(dp3963
g1787
I6
sg1784
I0
sg592
I388
sg1788
Vpretty
p3964
sg75
g3940
sbasg75
g1679
sbsg1795
I1
sba(iconstruction
CXN
p3965
(dp3966
g1737
(iconstruction
TP_SYMLINKS
p3967
(dp3968
g1740
(dp3969
VN1_392
p3970
VS1_393
p3971
ssg592
I391
sg75
g1679
sbsg1746
VA
p3972
sg1748
I1
sg75
VYOUNG
p3973
sg1749
(iconstruction
TP_SEMFRAME
p3974
(dp3975
g105
g0
(g106
g2
Ntp3976
Rp3977
(dp3978
g110
(dp3979
(iconstruction
TP_NODE
p3980
(dp3981
g1758
I01
sg94
g675
sg75
g3970
sg1759
I00
sg1760
I00
sg592
I392
sb(dp3982
g1759
I00
sg94
g675
sssg293
g294
sg295
g294
sg296
(dp3983
g3980
(dp3984
ssg490
g3983
sg105
(dp3985
sg492
g294
sg493
g3983
sg494
(dp3986
g3980
(dp3987
ssbsg587
(lp3988
g3980
asg860
(lp3989
sg592
I389
sg75
g1679
sbsg1774
(iconstruction
TP_SYNFORM
p3990
(dp3991
g592
I390
sg1777
(lp3992
(iconstruction
TP_PHON
p3993
(dp3994
g1787
I5
sg1784
I0
sg592
I393
sg1788
Vyoung
p3995
sg75
g3971
sbasg75
g1679
sbsg1795
I1
sba(iconstruction
CXN
p3996
(dp3997
g1737
(iconstruction
TP_SYMLINKS
p3998
(dp3999
g1740
(dp4000
VN1_398
p4001
VS1_400
p4002
ssg592
I396
sg75
g1679
sbsg1746
VN
p4003
sg1748
I1
sg75
VWOMAN
p4004
sg1749
(iconstruction
TP_SEMFRAME
p4005
(dp4006
g105
g0
(g106
g2
Ntp4007
Rp4008
(dp4009
g110
(dp4010
(iconstruction
TP_NODE
p4011
(dp4012
g1758
I01
sg94
g750
sg75
VENT_397
p4013
sg1759
I01
sg1760
I00
sg592
I397
sb(dp4014
g1759
I01
sg94
g750
ss(iconstruction
TP_NODE
p4015
(dp4016
g1758
I00
sg94
g816
sg75
g4001
sg1759
I00
sg1760
I00
sg592
I398
sb(dp4017
g1759
I00
sg94
g816
sssg293
g294
sg295
g294
sg296
(dp4018
g4011
(dp4019
g4015
(dp4020
g94
g741
sssg4015
(dp4021
ssg490
g4018
sg105
(dp4022
sg492
g294
sg493
g4018
sg494
(dp4023
g4011
(dp4024
sg4015
(dp4025
g4011
g4020
sssbsg587
(lp4026
g4011
ag4015
asg860
(lp4027
(iconstruction
TP_REL
p4028
(dp4029
g866
g4015
sg94
g741
sg592
I399
sg867
g4011
sg75
VIS_399
p4030
sbasg592
I394
sg75
g1679
sbsg1774
(iconstruction
TP_SYNFORM
p4031
(dp4032
g592
I395
sg1777
(lp4033
(iconstruction
TP_PHON
p4034
(dp4035
g1787
I5
sg1784
I0
sg592
I400
sg1788
Vwoman
p4036
sg75
g4002
sbasg75
g1679
sbsg1795
I1
sba(iconstruction
CXN
p4037
(dp4038
g1737
(iconstruction
TP_SYMLINKS
p4039
(dp4040
g1740
(dp4041
VN1_405
p4042
VS1_407
p4043
ssg592
I403
sg75
g1679
sbsg1746
VN
p4044
sg1748
I1
sg75
VWOMAN2
p4045
sg1749
(iconstruction
TP_SEMFRAME
p4046
(dp4047
g105
g0
(g106
g2
Ntp4048
Rp4049
(dp4050
g110
(dp4051
(iconstruction
TP_NODE
p4052
(dp4053
g1758
I00
sg94
g816
sg75
g4042
sg1759
I00
sg1760
I00
sg592
I405
sb(dp4054
g1759
I00
sg94
g816
ss(iconstruction
TP_NODE
p4055
(dp4056
g1758
I01
sg94
g750
sg75
VENT_404
p4057
sg1759
I01
sg1760
I00
sg592
I404
sb(dp4058
g1759
I01
sg94
g750
sssg293
g294
sg295
g294
sg296
(dp4059
g4052
(dp4060
sg4055
(dp4061
g4052
(dp4062
g94
g741
ssssg490
g4059
sg105
(dp4063
sg492
g294
sg493
g4059
sg494
(dp4064
g4052
(dp4065
g4055
g4062
ssg4055
(dp4066
ssbsg587
(lp4067
g4055
ag4052
asg860
(lp4068
(iconstruction
TP_REL
p4069
(dp4070
g866
g4052
sg94
g741
sg592
I406
sg867
g4055
sg75
VIS_406
p4071
sbasg592
I401
sg75
g1679
sbsg1774
(iconstruction
TP_SYNFORM
p4072
(dp4073
g592
I402
sg1777
(lp4074
(iconstruction
TP_PHON
p4075
(dp4076
g1787
I4
sg1784
I0
sg592
I407
sg1788
Vlady
p4077
sg75
g4043
sbasg75
g1679
sbsg1795
I1
sba(iconstruction
CXN
p4078
(dp4079
g1737
(iconstruction
TP_SYMLINKS
p4080
(dp4081
g1740
(dp4082
VN1_412
p4083
VS1_414
p4084
ssg592
I410
sg75
g1679
sbsg1746
VN
p4085
sg1748
I1
sg75
VMAN
p4086
sg1749
(iconstruction
TP_SEMFRAME
p4087
(dp4088
g105
g0
(g106
g2
Ntp4089
Rp4090
(dp4091
g110
(dp4092
(iconstruction
TP_NODE
p4093
(dp4094
g1758
I01
sg94
g750
sg75
VENT_411
p4095
sg1759
I01
sg1760
I00
sg592
I411
sb(dp4096
g1759
I01
sg94
g750
ss(iconstruction
TP_NODE
p4097
(dp4098
g1758
I00
sg94
g843
sg75
g4083
sg1759
I00
sg1760
I00
sg592
I412
sb(dp4099
g1759
I00
sg94
g843
sssg293
g294
sg295
g294
sg296
(dp4100
g4093
(dp4101
g4097
(dp4102
g94
g741
sssg4097
(dp4103
ssg490
g4100
sg105
(dp4104
sg492
g294
sg493
g4100
sg494
(dp4105
g4093
(dp4106
sg4097
(dp4107
g4093
g4102
sssbsg587
(lp4108
g4093
ag4097
asg860
(lp4109
(iconstruction
TP_REL
p4110
(dp4111
g866
g4097
sg94
g741
sg592
I413
sg867
g4093
sg75
VIS_413
p4112
sbasg592
I408
sg75
g1679
sbsg1774
(iconstruction
TP_SYNFORM
p4113
(dp4114
g592
I409
sg1777
(lp4115
(iconstruction
TP_PHON
p4116
(dp4117
g1787
I3
sg1784
I0
sg592
I414
sg1788
Vman
p4118
sg75
g4084
sbasg75
g1679
sbsg1795
I1
sba(iconstruction
CXN
p4119
(dp4120
g1737
(iconstruction
TP_SYMLINKS
p4121
(dp4122
g1740
(dp4123
VN1_419
p4124
VS1_421
p4125
ssg592
I417
sg75
g1679
sbsg1746
VN
p4126
sg1748
I1
sg75
VGIRL
p4127
sg1749
(iconstruction
TP_SEMFRAME
p4128
(dp4129
g105
g0
(g106
g2
Ntp4130
Rp4131
(dp4132
g110
(dp4133
(iconstruction
TP_NODE
p4134
(dp4135
g1758
I00
sg94
g834
sg75
g4124
sg1759
I00
sg1760
I00
sg592
I419
sb(dp4136
g1759
I00
sg94
g834
ss(iconstruction
TP_NODE
p4137
(dp4138
g1758
I01
sg94
g750
sg75
VENT_418
p4139
sg1759
I01
sg1760
I00
sg592
I418
sb(dp4140
g1759
I01
sg94
g750
sssg293
g294
sg295
g294
sg296
(dp4141
g4134
(dp4142
sg4137
(dp4143
g4134
(dp4144
g94
g741
ssssg490
g4141
sg105
(dp4145
sg492
g294
sg493
g4141
sg494
(dp4146
g4134
(dp4147
g4137
g4144
ssg4137
(dp4148
ssbsg587
(lp4149
g4137
ag4134
asg860
(lp4150
(iconstruction
TP_REL
p4151
(dp4152
g866
g4134
sg94
g741
sg592
I420
sg867
g4137
sg75
VIS_420
p4153
sbasg592
I415
sg75
g1679
sbsg1774
(iconstruction
TP_SYNFORM
p4154
(dp4155
g592
I416
sg1777
(lp4156
(iconstruction
TP_PHON
p4157
(dp4158
g1787
I4
sg1784
I0
sg592
I421
sg1788
Vgirl
p4159
sg75
g4125
sbasg75
g1679
sbsg1795
I1
sba(iconstruction
CXN
p4160
(dp4161
g1737
(iconstruction
TP_SYMLINKS
p4162
(dp4163
g1740
(dp4164
VN1_426
p4165
VS1_428
p4166
ssg592
I424
sg75
g1679
sbsg1746
VN
p4167
sg1748
I1
sg75
VBOY
p4168
sg1749
(iconstruction
TP_SEMFRAME
p4169
(dp4170
g105
g0
(g106
g2
Ntp4171
Rp4172
(dp4173
g110
(dp4174
(iconstruction
TP_NODE
p4175
(dp4176
g1758
I01
sg94
g750
sg75
VENT_425
p4177
sg1759
I01
sg1760
I00
sg592
I425
sb(dp4178
g1759
I01
sg94
g750
ss(iconstruction
TP_NODE
p4179
(dp4180
g1758
I00
sg94
g813
sg75
g4165
sg1759
I00
sg1760
I00
sg592
I426
sb(dp4181
g1759
I00
sg94
g813
sssg293
g294
sg295
g294
sg296
(dp4182
g4175
(dp4183
g4179
(dp4184
g94
g741
sssg4179
(dp4185
ssg490
g4182
sg105
(dp4186
sg492
g294
sg493
g4182
sg494
(dp4187
g4175
(dp4188
sg4179
(dp4189
g4175
g4184
sssbsg587
(lp4190
g4175
ag4179
asg860
(lp4191
(iconstruction
TP_REL
p4192
(dp4193
g866
g4179
sg94
g741
sg592
I427
sg867
g4175
sg75
VIS_427
p4194
sbasg592
I422
sg75
g1679
sbsg1774
(iconstruction
TP_SYNFORM
p4195
(dp4196
g592
I423
sg1777
(lp4197
(iconstruction
TP_PHON
p4198
(dp4199
g1787
I3
sg1784
I0
sg592
I428
sg1788
Vboy
p4200
sg75
g4166
sbasg75
g1679
sbsg1795
I1
sba(iconstruction
CXN
p4201
(dp4202
g1737
(iconstruction
TP_SYMLINKS
p4203
(dp4204
g1740
(dp4205
VN1_433
p4206
VS1_435
p4207
ssg592
I431
sg75
g1679
sbsg1746
VN
p4208
sg1748
I1
sg75
VPEOPLE
p4209
sg1749
(iconstruction
TP_SEMFRAME
p4210
(dp4211
g105
g0
(g106
g2
Ntp4212
Rp4213
(dp4214
g110
(dp4215
(iconstruction
TP_NODE
p4216
(dp4217
g1758
I01
sg94
g750
sg75
VENT_432
p4218
sg1759
I01
sg1760
I00
sg592
I432
sb(dp4219
g1759
I01
sg94
g750
ss(iconstruction
TP_NODE
p4220
(dp4221
g1758
I00
sg94
g819
sg75
g4206
sg1759
I00
sg1760
I00
sg592
I433
sb(dp4222
g1759
I00
sg94
g819
sssg293
g294
sg295
g294
sg296
(dp4223
g4216
(dp4224
g4220
(dp4225
g94
g741
sssg4220
(dp4226
ssg490
g4223
sg105
(dp4227
sg492
g294
sg493
g4223
sg494
(dp4228
g4216
(dp4229
sg4220
(dp4230
g4216
g4225
sssbsg587
(lp4231
g4216
ag4220
asg860
(lp4232
(iconstruction
TP_REL
p4233
(dp4234
g866
g4220
sg94
g741
sg592
I434
sg867
g4216
sg75
VIS_434
p4235
sbasg592
I429
sg75
g1679
sbsg1774
(iconstruction
TP_SYNFORM
p4236
(dp4237
g592
I430
sg1777
(lp4238
(iconstruction
TP_PHON
p4239
(dp4240
g1787
I6
sg1784
I0
sg592
I435
sg1788
Vpeople
p4241
sg75
g4207
sbasg75
g1679
sbsg1795
I1
sba(iconstruction
CXN
p4242
(dp4243
g1737
(iconstruction
TP_SYMLINKS
p4244
(dp4245
g1740
(dp4246
VN1_440
p4247
VS1_442
p4248
ssg592
I438
sg75
g1679
sbsg1746
VN
p4249
sg1748
I1
sg75
VMOUSE
p4250
sg1749
(iconstruction
TP_SEMFRAME
p4251
(dp4252
g105
g0
(g106
g2
Ntp4253
Rp4254
(dp4255
g110
(dp4256
(iconstruction
TP_NODE
p4257
(dp4258
g1758
I00
sg94
g807
sg75
g4247
sg1759
I00
sg1760
I00
sg592
I440
sb(dp4259
g1759
I00
sg94
g807
ss(iconstruction
TP_NODE
p4260
(dp4261
g1758
I01
sg94
g750
sg75
VENT_439
p4262
sg1759
I01
sg1760
I00
sg592
I439
sb(dp4263
g1759
I01
sg94
g750
sssg293
g294
sg295
g294
sg296
(dp4264
g4257
(dp4265
sg4260
(dp4266
g4257
(dp4267
g94
g741
ssssg490
g4264
sg105
(dp4268
sg492
g294
sg493
g4264
sg494
(dp4269
g4257
(dp4270
g4260
g4267
ssg4260
(dp4271
ssbsg587
(lp4272
g4260
ag4257
asg860
(lp4273
(iconstruction
TP_REL
p4274
(dp4275
g866
g4257
sg94
g741
sg592
I441
sg867
g4260
sg75
VIS_441
p4276
sbasg592
I436
sg75
g1679
sbsg1774
(iconstruction
TP_SYNFORM
p4277
(dp4278
g592
I437
sg1777
(lp4279
(iconstruction
TP_PHON
p4280
(dp4281
g1787
I5
sg1784
I0
sg592
I442
sg1788
Vmouse
p4282
sg75
g4248
sbasg75
g1679
sbsg1795
I1
sba(iconstruction
CXN
p4283
(dp4284
g1737
(iconstruction
TP_SYMLINKS
p4285
(dp4286
g1740
(dp4287
VN1_447
p4288
VS1_449
p4289
ssg592
I445
sg75
g1679
sbsg1746
VN
p4290
sg1748
I1
sg75
VTURTLE
p4291
sg1749
(iconstruction
TP_SEMFRAME
p4292
(dp4293
g105
g0
(g106
g2
Ntp4294
Rp4295
(dp4296
g110
(dp4297
(iconstruction
TP_NODE
p4298
(dp4299
g1758
I01
sg94
g750
sg75
VENT_446
p4300
sg1759
I01
sg1760
I00
sg592
I446
sb(dp4301
g1759
I01
sg94
g750
ss(iconstruction
TP_NODE
p4302
(dp4303
g1758
I00
sg94
g804
sg75
g4288
sg1759
I00
sg1760
I00
sg592
I447
sb(dp4304
g1759
I00
sg94
g804
sssg293
g294
sg295
g294
sg296
(dp4305
g4298
(dp4306
g4302
(dp4307
g94
g741
sssg4302
(dp4308
ssg490
g4305
sg105
(dp4309
sg492
g294
sg493
g4305
sg494
(dp4310
g4298
(dp4311
sg4302
(dp4312
g4298
g4307
sssbsg587
(lp4313
g4298
ag4302
asg860
(lp4314
(iconstruction
TP_REL
p4315
(dp4316
g866
g4302
sg94
g741
sg592
I448
sg867
g4298
sg75
VIS_448
p4317
sbasg592
I443
sg75
g1679
sbsg1774
(iconstruction
TP_SYNFORM
p4318
(dp4319
g592
I444
sg1777
(lp4320
(iconstruction
TP_PHON
p4321
(dp4322
g1787
I6
sg1784
I0
sg592
I449
sg1788
Vturtle
p4323
sg75
g4289
sbasg75
g1679
sbsg1795
I1
sba(iconstruction
CXN
p4324
(dp4325
g1737
(iconstruction
TP_SYMLINKS
p4326
(dp4327
g1740
(dp4328
VN1_454
p4329
VS1_456
p4330
ssg592
I452
sg75
g1679
sbsg1746
VN
p4331
sg1748
I1
sg75
VDRESS
p4332
sg1749
(iconstruction
TP_SEMFRAME
p4333
(dp4334
g105
g0
(g106
g2
Ntp4335
Rp4336
(dp4337
g110
(dp4338
(iconstruction
TP_NODE
p4339
(dp4340
g1758
I00
sg94
g795
sg75
g4329
sg1759
I00
sg1760
I00
sg592
I454
sb(dp4341
g1759
I00
sg94
g795
ss(iconstruction
TP_NODE
p4342
(dp4343
g1758
I01
sg94
g750
sg75
VENT_453
p4344
sg1759
I01
sg1760
I00
sg592
I453
sb(dp4345
g1759
I01
sg94
g750
sssg293
g294
sg295
g294
sg296
(dp4346
g4339
(dp4347
sg4342
(dp4348
g4339
(dp4349
g94
g741
ssssg490
g4346
sg105
(dp4350
sg492
g294
sg493
g4346
sg494
(dp4351
g4339
(dp4352
g4342
g4349
ssg4342
(dp4353
ssbsg587
(lp4354
g4342
ag4339
asg860
(lp4355
(iconstruction
TP_REL
p4356
(dp4357
g866
g4339
sg94
g741
sg592
I455
sg867
g4342
sg75
VIS_455
p4358
sbasg592
I450
sg75
g1679
sbsg1774
(iconstruction
TP_SYNFORM
p4359
(dp4360
g592
I451
sg1777
(lp4361
(iconstruction
TP_PHON
p4362
(dp4363
g1787
I5
sg1784
I0
sg592
I456
sg1788
Vdress
p4364
sg75
g4330
sbasg75
g1679
sbsg1795
I1
sba(iconstruction
CXN
p4365
(dp4366
g1737
(iconstruction
TP_SYMLINKS
p4367
(dp4368
g1740
(dp4369
VN1_461
p4370
VS1_463
p4371
ssg592
I459
sg75
g1679
sbsg1746
VN
p4372
sg1748
I1
sg75
VTSHIRT
p4373
sg1749
(iconstruction
TP_SEMFRAME
p4374
(dp4375
g105
g0
(g106
g2
Ntp4376
Rp4377
(dp4378
g110
(dp4379
(iconstruction
TP_NODE
p4380
(dp4381
g1758
I01
sg94
g750
sg75
VENT_460
p4382
sg1759
I01
sg1760
I00
sg592
I460
sb(dp4383
g1759
I01
sg94
g750
ss(iconstruction
TP_NODE
p4384
(dp4385
g1758
I00
sg94
g792
sg75
g4370
sg1759
I00
sg1760
I00
sg592
I461
sb(dp4386
g1759
I00
sg94
g792
sssg293
g294
sg295
g294
sg296
(dp4387
g4380
(dp4388
g4384
(dp4389
g94
g741
sssg4384
(dp4390
ssg490
g4387
sg105
(dp4391
sg492
g294
sg493
g4387
sg494
(dp4392
g4380
(dp4393
sg4384
(dp4394
g4380
g4389
sssbsg587
(lp4395
g4380
ag4384
asg860
(lp4396
(iconstruction
TP_REL
p4397
(dp4398
g866
g4384
sg94
g741
sg592
I462
sg867
g4380
sg75
VIS_462
p4399
sbasg592
I457
sg75
g1679
sbsg1774
(iconstruction
TP_SYNFORM
p4400
(dp4401
g592
I458
sg1777
(lp4402
(iconstruction
TP_PHON
p4403
(dp4404
g1787
I6
sg1784
I0
sg592
I463
sg1788
Vt-shirt
p4405
sg75
g4371
sbasg75
g1679
sbsg1795
I1
sba(iconstruction
CXN
p4406
(dp4407
g1737
(iconstruction
TP_SYMLINKS
p4408
(dp4409
g1740
(dp4410
VN1_468
p4411
VS2_471
p4412
ssg592
I466
sg75
g1679
sbsg1746
VN
p4413
sg1748
I1
sg75
VBOXINGRING
p4414
sg1749
(iconstruction
TP_SEMFRAME
p4415
(dp4416
g105
g0
(g106
g2
Ntp4417
Rp4418
(dp4419
g110
(dp4420
(iconstruction
TP_NODE
p4421
(dp4422
g1758
I00
sg94
g849
sg75
g4411
sg1759
I00
sg1760
I00
sg592
I468
sb(dp4423
g1759
I00
sg94
g849
ss(iconstruction
TP_NODE
p4424
(dp4425
g1758
I01
sg94
g750
sg75
VENT_467
p4426
sg1759
I01
sg1760
I00
sg592
I467
sb(dp4427
g1759
I01
sg94
g750
sssg293
g294
sg295
g294
sg296
(dp4428
g4421
(dp4429
sg4424
(dp4430
g4421
(dp4431
g94
g741
ssssg490
g4428
sg105
(dp4432
sg492
g294
sg493
g4428
sg494
(dp4433
g4421
(dp4434
g4424
g4431
ssg4424
(dp4435
ssbsg587
(lp4436
g4424
ag4421
asg860
(lp4437
(iconstruction
TP_REL
p4438
(dp4439
g866
g4421
sg94
g741
sg592
I469
sg867
g4424
sg75
VIS_469
p4440
sbasg592
I464
sg75
g1679
sbsg1774
(iconstruction
TP_SYNFORM
p4441
(dp4442
g592
I465
sg1777
(lp4443
(iconstruction
TP_PHON
p4444
(dp4445
g1787
I6
sg1784
I0
sg592
I470
sg1788
Vboxing
p4446
sg75
VS1_470
p4447
sba(iconstruction
TP_PHON
p4448
(dp4449
g1787
I4
sg1784
I1
sg592
I471
sg1788
Vring
p4450
sg75
g4412
sbasg75
g1679
sbsg1795
I1
sba(iconstruction
CXN
p4451
(dp4452
g1737
(iconstruction
TP_SYMLINKS
p4453
(dp4454
g1740
(dp4455
VN1_476
p4456
VS1_478
p4457
ssg592
I474
sg75
g1679
sbsg1746
VN
p4458
sg1748
I1
sg75
VPARK
p4459
sg1749
(iconstruction
TP_SEMFRAME
p4460
(dp4461
g105
g0
(g106
g2
Ntp4462
Rp4463
(dp4464
g110
(dp4465
(iconstruction
TP_NODE
p4466
(dp4467
g1758
I01
sg94
g750
sg75
VENT_475
p4468
sg1759
I01
sg1760
I00
sg592
I475
sb(dp4469
g1759
I01
sg94
g750
ss(iconstruction
TP_NODE
p4470
(dp4471
g1758
I00
sg94
g852
sg75
g4456
sg1759
I00
sg1760
I00
sg592
I476
sb(dp4472
g1759
I00
sg94
g852
sssg293
g294
sg295
g294
sg296
(dp4473
g4466
(dp4474
g4470
(dp4475
g94
g741
sssg4470
(dp4476
ssg490
g4473
sg105
(dp4477
sg492
g294
sg493
g4473
sg494
(dp4478
g4466
(dp4479
sg4470
(dp4480
g4466
g4475
sssbsg587
(lp4481
g4466
ag4470
asg860
(lp4482
(iconstruction
TP_REL
p4483
(dp4484
g866
g4470
sg94
g741
sg592
I477
sg867
g4466
sg75
VIS_477
p4485
sbasg592
I472
sg75
g1679
sbsg1774
(iconstruction
TP_SYNFORM
p4486
(dp4487
g592
I473
sg1777
(lp4488
(iconstruction
TP_PHON
p4489
(dp4490
g1787
I4
sg1784
I0
sg592
I478
sg1788
Vpark
p4491
sg75
g4457
sbasg75
g1679
sbsg1795
I1
sba(iconstruction
CXN
p4492
(dp4493
g1737
(iconstruction
TP_SYMLINKS
p4494
(dp4495
g1740
(dp4496
VN1_483
p4497
VS1_485
p4498
ssg592
I481
sg75
g1679
sbsg1746
VN
p4499
sg1748
I1
sg75
VSHIRT
p4500
sg1749
(iconstruction
TP_SEMFRAME
p4501
(dp4502
g105
g0
(g106
g2
Ntp4503
Rp4504
(dp4505
g110
(dp4506
(iconstruction
TP_NODE
p4507
(dp4508
g1758
I00
sg94
g798
sg75
g4497
sg1759
I00
sg1760
I00
sg592
I483
sb(dp4509
g1759
I00
sg94
g798
ss(iconstruction
TP_NODE
p4510
(dp4511
g1758
I01
sg94
g750
sg75
VENT_482
p4512
sg1759
I01
sg1760
I00
sg592
I482
sb(dp4513
g1759
I01
sg94
g750
sssg293
g294
sg295
g294
sg296
(dp4514
g4507
(dp4515
sg4510
(dp4516
g4507
(dp4517
g94
g741
ssssg490
g4514
sg105
(dp4518
sg492
g294
sg493
g4514
sg494
(dp4519
g4507
(dp4520
g4510
g4517
ssg4510
(dp4521
ssbsg587
(lp4522
g4510
ag4507
asg860
(lp4523
(iconstruction
TP_REL
p4524
(dp4525
g866
g4507
sg94
g741
sg592
I484
sg867
g4510
sg75
VIS_484
p4526
sbasg592
I479
sg75
g1679
sbsg1774
(iconstruction
TP_SYNFORM
p4527
(dp4528
g592
I480
sg1777
(lp4529
(iconstruction
TP_PHON
p4530
(dp4531
g1787
I5
sg1784
I0
sg592
I485
sg1788
Vshirt
p4532
sg75
g4498
sbasg75
g1679
sbsg1795
I1
sba(iconstruction
CXN
p4533
(dp4534
g1737
(iconstruction
TP_SYMLINKS
p4535
(dp4536
g1740
(dp4537
VN1_490
p4538
VS1_492
p4539
ssg592
I488
sg75
g1679
sbsg1746
VN
p4540
sg1748
I1
sg75
VSUIT
p4541
sg1749
(iconstruction
TP_SEMFRAME
p4542
(dp4543
g105
g0
(g106
g2
Ntp4544
Rp4545
(dp4546
g110
(dp4547
(iconstruction
TP_NODE
p4548
(dp4549
g1758
I01
sg94
g750
sg75
VENT_489
p4550
sg1759
I01
sg1760
I00
sg592
I489
sb(dp4551
g1759
I01
sg94
g750
ss(iconstruction
TP_NODE
p4552
(dp4553
g1758
I00
sg94
g801
sg75
g4538
sg1759
I00
sg1760
I00
sg592
I490
sb(dp4554
g1759
I00
sg94
g801
sssg293
g294
sg295
g294
sg296
(dp4555
g4548
(dp4556
g4552
(dp4557
g94
g741
sssg4552
(dp4558
ssg490
g4555
sg105
(dp4559
sg492
g294
sg493
g4555
sg494
(dp4560
g4548
(dp4561
sg4552
(dp4562
g4548
g4557
sssbsg587
(lp4563
g4548
ag4552
asg860
(lp4564
(iconstruction
TP_REL
p4565
(dp4566
g866
g4552
sg94
g741
sg592
I491
sg867
g4548
sg75
VIS_491
p4567
sbasg592
I486
sg75
g1679
sbsg1774
(iconstruction
TP_SYNFORM
p4568
(dp4569
g592
I487
sg1777
(lp4570
(iconstruction
TP_PHON
p4571
(dp4572
g1787
I4
sg1784
I0
sg592
I492
sg1788
Vsuit
p4573
sg75
g4539
sbasg75
g1679
sbsg1795
I1
sba(iconstruction
CXN
p4574
(dp4575
g1737
(iconstruction
TP_SYMLINKS
p4576
(dp4577
g1740
(dp4578
VN1_497
p4579
VS1_499
p4580
ssg592
I495
sg75
g1679
sbsg1746
VN
p4581
sg1748
I1
sg75
VCELLO
p4582
sg1749
(iconstruction
TP_SEMFRAME
p4583
(dp4584
g105
g0
(g106
g2
Ntp4585
Rp4586
(dp4587
g110
(dp4588
(iconstruction
TP_NODE
p4589
(dp4590
g1758
I00
sg94
g783
sg75
g4579
sg1759
I00
sg1760
I00
sg592
I497
sb(dp4591
g1759
I00
sg94
g783
ss(iconstruction
TP_NODE
p4592
(dp4593
g1758
I01
sg94
g750
sg75
VENT_496
p4594
sg1759
I01
sg1760
I00
sg592
I496
sb(dp4595
g1759
I01
sg94
g750
sssg293
g294
sg295
g294
sg296
(dp4596
g4589
(dp4597
sg4592
(dp4598
g4589
(dp4599
g94
g741
ssssg490
g4596
sg105
(dp4600
sg492
g294
sg493
g4596
sg494
(dp4601
g4589
(dp4602
g4592
g4599
ssg4592
(dp4603
ssbsg587
(lp4604
g4592
ag4589
asg860
(lp4605
(iconstruction
TP_REL
p4606
(dp4607
g866
g4589
sg94
g741
sg592
I498
sg867
g4592
sg75
VIS_498
p4608
sbasg592
I493
sg75
g1679
sbsg1774
(iconstruction
TP_SYNFORM
p4609
(dp4610
g592
I494
sg1777
(lp4611
(iconstruction
TP_PHON
p4612
(dp4613
g1787
I5
sg1784
I0
sg592
I499
sg1788
VCELLO
p4614
sg75
g4580
sbasg75
g1679
sbsg1795
I1
sba(iconstruction
CXN
p4615
(dp4616
g1737
(iconstruction
TP_SYMLINKS
p4617
(dp4618
g1740
(dp4619
VN1_504
p4620
VS1_506
p4621
ssg592
I502
sg75
g1679
sbsg1746
VN
p4622
sg1748
I1
sg75
VBAG
p4623
sg1749
(iconstruction
TP_SEMFRAME
p4624
(dp4625
g105
g0
(g106
g2
Ntp4626
Rp4627
(dp4628
g110
(dp4629
(iconstruction
TP_NODE
p4630
(dp4631
g1758
I01
sg94
g750
sg75
VENT_503
p4632
sg1759
I01
sg1760
I00
sg592
I503
sb(dp4633
g1759
I01
sg94
g750
ss(iconstruction
TP_NODE
p4634
(dp4635
g1758
I00
sg94
g774
sg75
g4620
sg1759
I00
sg1760
I00
sg592
I504
sb(dp4636
g1759
I00
sg94
g774
sssg293
g294
sg295
g294
sg296
(dp4637
g4630
(dp4638
g4634
(dp4639
g94
g741
sssg4634
(dp4640
ssg490
g4637
sg105
(dp4641
sg492
g294
sg493
g4637
sg494
(dp4642
g4630
(dp4643
sg4634
(dp4644
g4630
g4639
sssbsg587
(lp4645
g4630
ag4634
asg860
(lp4646
(iconstruction
TP_REL
p4647
(dp4648
g866
g4634
sg94
g741
sg592
I505
sg867
g4630
sg75
VIS_505
p4649
sbasg592
I500
sg75
g1679
sbsg1774
(iconstruction
TP_SYNFORM
p4650
(dp4651
g592
I501
sg1777
(lp4652
(iconstruction
TP_PHON
p4653
(dp4654
g1787
I3
sg1784
I0
sg592
I506
sg1788
Vbag
p4655
sg75
g4621
sbasg75
g1679
sbsg1795
I1
sba(iconstruction
CXN
p4656
(dp4657
g1737
(iconstruction
TP_SYMLINKS
p4658
(dp4659
g1740
(dp4660
VN1_511
p4661
VS2_514
p4662
ssg592
I509
sg75
g1679
sbsg1746
VN
p4663
sg1748
I1
sg75
VWATERING_CAN
p4664
sg1749
(iconstruction
TP_SEMFRAME
p4665
(dp4666
g105
g0
(g106
g2
Ntp4667
Rp4668
(dp4669
g110
(dp4670
(iconstruction
TP_NODE
p4671
(dp4672
g1758
I01
sg94
g750
sg75
VENT_510
p4673
sg1759
I01
sg1760
I00
sg592
I510
sb(dp4674
g1759
I01
sg94
g750
ss(iconstruction
TP_NODE
p4675
(dp4676
g1758
I00
sg94
g771
sg75
g4661
sg1759
I00
sg1760
I00
sg592
I511
sb(dp4677
g1759
I00
sg94
g771
sssg293
g294
sg295
g294
sg296
(dp4678
g4671
(dp4679
g4675
(dp4680
g94
g741
sssg4675
(dp4681
ssg490
g4678
sg105
(dp4682
sg492
g294
sg493
g4678
sg494
(dp4683
g4671
(dp4684
sg4675
(dp4685
g4671
g4680
sssbsg587
(lp4686
g4671
ag4675
asg860
(lp4687
(iconstruction
TP_REL
p4688
(dp4689
g866
g4675
sg94
g741
sg592
I512
sg867
g4671
sg75
VIS_512
p4690
sbasg592
I507
sg75
g1679
sbsg1774
(iconstruction
TP_SYNFORM
p4691
(dp4692
g592
I508
sg1777
(lp4693
(iconstruction
TP_PHON
p4694
(dp4695
g1787
I8
sg1784
I0
sg592
I513
sg1788
Vwatering
p4696
sg75
VS1_513
p4697
sba(iconstruction
TP_PHON
p4698
(dp4699
g1787
I3
sg1784
I1
sg592
I514
sg1788
Vcan
p4700
sg75
g4662
sbasg75
g1679
sbsg1795
I1
sba(iconstruction
CXN
p4701
(dp4702
g1737
(iconstruction
TP_SYMLINKS
p4703
(dp4704
g1740
(dp4705
VN1_519
p4706
VS1_521
p4707
ssg592
I517
sg75
g1679
sbsg1746
VN
p4708
sg1748
I1
sg75
VBALLERINA
p4709
sg1749
(iconstruction
TP_SEMFRAME
p4710
(dp4711
g105
g0
(g106
g2
Ntp4712
Rp4713
(dp4714
g110
(dp4715
(iconstruction
TP_NODE
p4716
(dp4717
g1758
I01
sg94
g750
sg75
VENT_518
p4718
sg1759
I01
sg1760
I00
sg592
I518
sb(dp4719
g1759
I01
sg94
g750
ss(iconstruction
TP_NODE
p4720
(dp4721
g1758
I00
sg94
g828
sg75
g4706
sg1759
I00
sg1760
I00
sg592
I519
sb(dp4722
g1759
I00
sg94
g828
sssg293
g294
sg295
g294
sg296
(dp4723
g4716
(dp4724
g4720
(dp4725
g94
g741
sssg4720
(dp4726
ssg490
g4723
sg105
(dp4727
sg492
g294
sg493
g4723
sg494
(dp4728
g4716
(dp4729
sg4720
(dp4730
g4716
g4725
sssbsg587
(lp4731
g4716
ag4720
asg860
(lp4732
(iconstruction
TP_REL
p4733
(dp4734
g866
g4720
sg94
g741
sg592
I520
sg867
g4716
sg75
VIS_520
p4735
sbasg592
I515
sg75
g1679
sbsg1774
(iconstruction
TP_SYNFORM
p4736
(dp4737
g592
I516
sg1777
(lp4738
(iconstruction
TP_PHON
p4739
(dp4740
g1787
I9
sg1784
I0
sg592
I521
sg1788
Vballerina
p4741
sg75
g4707
sbasg75
g1679
sbsg1795
I1
sba(iconstruction
CXN
p4742
(dp4743
g1737
(iconstruction
TP_SYMLINKS
p4744
(dp4745
g1740
(dp4746
VN1_526
p4747
VS1_528
p4748
ssg592
I524
sg75
g1679
sbsg1746
VN
p4749
sg1748
I1
sg75
VCELLIST
p4750
sg1749
(iconstruction
TP_SEMFRAME
p4751
(dp4752
g105
g0
(g106
g2
Ntp4753
Rp4754
(dp4755
g110
(dp4756
(iconstruction
TP_NODE
p4757
(dp4758
g1758
I00
sg94
g831
sg75
g4747
sg1759
I00
sg1760
I00
sg592
I526
sb(dp4759
g1759
I00
sg94
g831
ss(iconstruction
TP_NODE
p4760
(dp4761
g1758
I01
sg94
g750
sg75
VENT_525
p4762
sg1759
I01
sg1760
I00
sg592
I525
sb(dp4763
g1759
I01
sg94
g750
sssg293
g294
sg295
g294
sg296
(dp4764
g4757
(dp4765
sg4760
(dp4766
g4757
(dp4767
g94
g741
ssssg490
g4764
sg105
(dp4768
sg492
g294
sg493
g4764
sg494
(dp4769
g4757
(dp4770
g4760
g4767
ssg4760
(dp4771
ssbsg587
(lp4772
g4760
ag4757
asg860
(lp4773
(iconstruction
TP_REL
p4774
(dp4775
g866
g4757
sg94
g741
sg592
I527
sg867
g4760
sg75
VIS_527
p4776
sbasg592
I522
sg75
g1679
sbsg1774
(iconstruction
TP_SYNFORM
p4777
(dp4778
g592
I523
sg1777
(lp4779
(iconstruction
TP_PHON
p4780
(dp4781
g1787
I7
sg1784
I0
sg592
I528
sg1788
Vcellist
p4782
sg75
g4748
sbasg75
g1679
sbsg1795
I1
sba(iconstruction
CXN
p4783
(dp4784
g1737
(iconstruction
TP_SYMLINKS
p4785
(dp4786
g1740
(dp4787
VN1_533
p4788
VS1_535
p4789
ssg592
I531
sg75
g1679
sbsg1746
VN
p4790
sg1748
I1
sg75
VFENCER
p4791
sg1749
(iconstruction
TP_SEMFRAME
p4792
(dp4793
g105
g0
(g106
g2
Ntp4794
Rp4795
(dp4796
g110
(dp4797
(iconstruction
TP_NODE
p4798
(dp4799
g1758
I01
sg94
g750
sg75
VENT_532
p4800
sg1759
I01
sg1760
I00
sg592
I532
sb(dp4801
g1759
I01
sg94
g750
ss(iconstruction
TP_NODE
p4802
(dp4803
g1758
I00
sg94
g837
sg75
g4788
sg1759
I00
sg1760
I00
sg592
I533
sb(dp4804
g1759
I00
sg94
g837
sssg293
g294
sg295
g294
sg296
(dp4805
g4798
(dp4806
g4802
(dp4807
g94
g741
sssg4802
(dp4808
ssg490
g4805
sg105
(dp4809
sg492
g294
sg493
g4805
sg494
(dp4810
g4798
(dp4811
sg4802
(dp4812
g4798
g4807
sssbsg587
(lp4813
g4798
ag4802
asg860
(lp4814
(iconstruction
TP_REL
p4815
(dp4816
g866
g4802
sg94
g741
sg592
I534
sg867
g4798
sg75
VIS_534
p4817
sbasg592
I529
sg75
g1679
sbsg1774
(iconstruction
TP_SYNFORM
p4818
(dp4819
g592
I530
sg1777
(lp4820
(iconstruction
TP_PHON
p4821
(dp4822
g1787
I6
sg1784
I0
sg592
I535
sg1788
Vfencer
p4823
sg75
g4789
sbasg75
g1679
sbsg1795
I1
sba(iconstruction
CXN
p4824
(dp4825
g1737
(iconstruction
TP_SYMLINKS
p4826
(dp4827
g1740
(dp4828
VN1_540
p4829
VS1_542
p4830
ssg592
I538
sg75
g1679
sbsg1746
VN
p4831
sg1748
I1
sg75
VROBBER
p4832
sg1749
(iconstruction
TP_SEMFRAME
p4833
(dp4834
g105
g0
(g106
g2
Ntp4835
Rp4836
(dp4837
g110
(dp4838
(iconstruction
TP_NODE
p4839
(dp4840
g1758
I00
sg94
g840
sg75
g4829
sg1759
I00
sg1760
I00
sg592
I540
sb(dp4841
g1759
I00
sg94
g840
ss(iconstruction
TP_NODE
p4842
(dp4843
g1758
I01
sg94
g750
sg75
VENT_539
p4844
sg1759
I01
sg1760
I00
sg592
I539
sb(dp4845
g1759
I01
sg94
g750
sssg293
g294
sg295
g294
sg296
(dp4846
g4839
(dp4847
sg4842
(dp4848
g4839
(dp4849
g94
g741
ssssg490
g4846
sg105
(dp4850
sg492
g294
sg493
g4846
sg494
(dp4851
g4839
(dp4852
g4842
g4849
ssg4842
(dp4853
ssbsg587
(lp4854
g4842
ag4839
asg860
(lp4855
(iconstruction
TP_REL
p4856
(dp4857
g866
g4839
sg94
g741
sg592
I541
sg867
g4842
sg75
VIS_541
p4858
sbasg592
I536
sg75
g1679
sbsg1774
(iconstruction
TP_SYNFORM
p4859
(dp4860
g592
I537
sg1777
(lp4861
(iconstruction
TP_PHON
p4862
(dp4863
g1787
I5
sg1784
I0
sg592
I542
sg1788
Vthief
p4864
sg75
g4830
sbasg75
g1679
sbsg1795
I1
sba(iconstruction
CXN
p4865
(dp4866
g1737
(iconstruction
TP_SYMLINKS
p4867
(dp4868
g1740
(dp4869
VN1_547
p4870
VS1_549
p4871
ssg592
I545
sg75
g1679
sbsg1746
VN
p4872
sg1748
I1
sg75
VPOLICEMAN
p4873
sg1749
(iconstruction
TP_SEMFRAME
p4874
(dp4875
g105
g0
(g106
g2
Ntp4876
Rp4877
(dp4878
g110
(dp4879
(iconstruction
TP_NODE
p4880
(dp4881
g1758
I01
sg94
g750
sg75
VENT_546
p4882
sg1759
I01
sg1760
I00
sg592
I546
sb(dp4883
g1759
I01
sg94
g750
ss(iconstruction
TP_NODE
p4884
(dp4885
g1758
I00
sg94
g822
sg75
g4870
sg1759
I00
sg1760
I00
sg592
I547
sb(dp4886
g1759
I00
sg94
g822
sssg293
g294
sg295
g294
sg296
(dp4887
g4880
(dp4888
g4884
(dp4889
g94
g741
sssg4884
(dp4890
ssg490
g4887
sg105
(dp4891
sg492
g294
sg493
g4887
sg494
(dp4892
g4880
(dp4893
sg4884
(dp4894
g4880
g4889
sssbsg587
(lp4895
g4880
ag4884
asg860
(lp4896
(iconstruction
TP_REL
p4897
(dp4898
g866
g4884
sg94
g741
sg592
I548
sg867
g4880
sg75
VIS_548
p4899
sbasg592
I543
sg75
g1679
sbsg1774
(iconstruction
TP_SYNFORM
p4900
(dp4901
g592
I544
sg1777
(lp4902
(iconstruction
TP_PHON
p4903
(dp4904
g1787
I9
sg1784
I0
sg592
I549
sg1788
Vpoliceman
p4905
sg75
g4871
sbasg75
g1679
sbsg1795
I1
sba(iconstruction
CXN
p4906
(dp4907
g1737
(iconstruction
TP_SYMLINKS
p4908
(dp4909
g1740
(dp4910
VN1_554
p4911
VS1_556
p4912
ssg592
I552
sg75
g1679
sbsg1746
VN
p4913
sg1748
I1
sg75
VHUNTER
p4914
sg1749
(iconstruction
TP_SEMFRAME
p4915
(dp4916
g105
g0
(g106
g2
Ntp4917
Rp4918
(dp4919
g110
(dp4920
(iconstruction
TP_NODE
p4921
(dp4922
g1758
I01
sg94
g750
sg75
VENT_553
p4923
sg1759
I01
sg1760
I00
sg592
I553
sb(dp4924
g1759
I01
sg94
g750
ss(iconstruction
TP_NODE
p4925
(dp4926
g1758
I00
sg94
g825
sg75
g4911
sg1759
I00
sg1760
I00
sg592
I554
sb(dp4927
g1759
I00
sg94
g825
sssg293
g294
sg295
g294
sg296
(dp4928
g4921
(dp4929
g4925
(dp4930
g94
g741
sssg4925
(dp4931
ssg490
g4928
sg105
(dp4932
sg492
g294
sg493
g4928
sg494
(dp4933
g4921
(dp4934
sg4925
(dp4935
g4921
g4930
sssbsg587
(lp4936
g4921
ag4925
asg860
(lp4937
(iconstruction
TP_REL
p4938
(dp4939
g866
g4925
sg94
g741
sg592
I555
sg867
g4921
sg75
VIS_555
p4940
sbasg592
I550
sg75
g1679
sbsg1774
(iconstruction
TP_SYNFORM
p4941
(dp4942
g592
I551
sg1777
(lp4943
(iconstruction
TP_PHON
p4944
(dp4945
g1787
I6
sg1784
I0
sg592
I556
sg1788
Vhunter
p4946
sg75
g4912
sbasg75
g1679
sbsg1795
I1
sba(iconstruction
CXN
p4947
(dp4948
g1737
(iconstruction
TP_SYMLINKS
p4949
(dp4950
g1740
(dp4951
VN1_561
p4952
VS1_563
p4953
ssg592
I559
sg75
g1679
sbsg1746
VN
p4954
sg1748
I1
sg75
VDOG
p4955
sg1749
(iconstruction
TP_SEMFRAME
p4956
(dp4957
g105
g0
(g106
g2
Ntp4958
Rp4959
(dp4960
g110
(dp4961
(iconstruction
TP_NODE
p4962
(dp4963
g1758
I00
sg94
g810
sg75
g4952
sg1759
I00
sg1760
I00
sg592
I561
sb(dp4964
g1759
I00
sg94
g810
ss(iconstruction
TP_NODE
p4965
(dp4966
g1758
I01
sg94
g750
sg75
VENT_560
p4967
sg1759
I01
sg1760
I00
sg592
I560
sb(dp4968
g1759
I01
sg94
g750
sssg293
g294
sg295
g294
sg296
(dp4969
g4962
(dp4970
sg4965
(dp4971
g4962
(dp4972
g94
g741
ssssg490
g4969
sg105
(dp4973
sg492
g294
sg493
g4969
sg494
(dp4974
g4962
(dp4975
g4965
g4972
ssg4965
(dp4976
ssbsg587
(lp4977
g4965
ag4962
asg860
(lp4978
(iconstruction
TP_REL
p4979
(dp4980
g866
g4962
sg94
g741
sg592
I562
sg867
g4965
sg75
VIS_562
p4981
sbasg592
I557
sg75
g1679
sbsg1774
(iconstruction
TP_SYNFORM
p4982
(dp4983
g592
I558
sg1777
(lp4984
(iconstruction
TP_PHON
p4985
(dp4986
g1787
I3
sg1784
I0
sg592
I563
sg1788
Vdog
p4987
sg75
g4953
sbasg75
g1679
sbsg1795
I1
sba(iconstruction
CXN
p4988
(dp4989
g1737
(iconstruction
TP_SYMLINKS
p4990
(dp4991
g1740
(dp4992
VN1_568
p4993
VS1_570
p4994
ssg592
I566
sg75
g1679
sbsg1746
VN
p4995
sg1748
I1
sg75
VHOOK
p4996
sg1749
(iconstruction
TP_SEMFRAME
p4997
(dp4998
g105
g0
(g106
g2
Ntp4999
Rp5000
(dp5001
g110
(dp5002
(iconstruction
TP_NODE
p5003
(dp5004
g1758
I01
sg94
g750
sg75
VENT_567
p5005
sg1759
I01
sg1760
I00
sg592
I567
sb(dp5006
g1759
I01
sg94
g750
ss(iconstruction
TP_NODE
p5007
(dp5008
g1758
I00
sg94
g780
sg75
g4993
sg1759
I00
sg1760
I00
sg592
I568
sb(dp5009
g1759
I00
sg94
g780
sssg293
g294
sg295
g294
sg296
(dp5010
g5003
(dp5011
g5007
(dp5012
g94
g741
sssg5007
(dp5013
ssg490
g5010
sg105
(dp5014
sg492
g294
sg493
g5010
sg494
(dp5015
g5003
(dp5016
sg5007
(dp5017
g5003
g5012
sssbsg587
(lp5018
g5003
ag5007
asg860
(lp5019
(iconstruction
TP_REL
p5020
(dp5021
g866
g5007
sg94
g741
sg592
I569
sg867
g5003
sg75
VIS_569
p5022
sbasg592
I564
sg75
g1679
sbsg1774
(iconstruction
TP_SYNFORM
p5023
(dp5024
g592
I565
sg1777
(lp5025
(iconstruction
TP_PHON
p5026
(dp5027
g1787
I4
sg1784
I0
sg592
I570
sg1788
Vhook
p5028
sg75
g4994
sbasg75
g1679
sbsg1795
I1
sba(iconstruction
CXN
p5029
(dp5030
g1737
(iconstruction
TP_SYMLINKS
p5031
(dp5032
g1740
(dp5033
VN1_575
p5034
VS1_577
p5035
ssg592
I573
sg75
g1679
sbsg1746
VN
p5036
sg1748
I1
sg75
VBOOKSHELF
p5037
sg1749
(iconstruction
TP_SEMFRAME
p5038
(dp5039
g105
g0
(g106
g2
Ntp5040
Rp5041
(dp5042
g110
(dp5043
(iconstruction
TP_NODE
p5044
(dp5045
g1758
I00
sg94
g786
sg75
g5034
sg1759
I00
sg1760
I00
sg592
I575
sb(dp5046
g1759
I00
sg94
g786
ss(iconstruction
TP_NODE
p5047
(dp5048
g1758
I01
sg94
g750
sg75
VENT_574
p5049
sg1759
I01
sg1760
I00
sg592
I574
sb(dp5050
g1759
I01
sg94
g750
sssg293
g294
sg295
g294
sg296
(dp5051
g5044
(dp5052
sg5047
(dp5053
g5044
(dp5054
g94
g741
ssssg490
g5051
sg105
(dp5055
sg492
g294
sg493
g5051
sg494
(dp5056
g5044
(dp5057
g5047
g5054
ssg5047
(dp5058
ssbsg587
(lp5059
g5047
ag5044
asg860
(lp5060
(iconstruction
TP_REL
p5061
(dp5062
g866
g5044
sg94
g741
sg592
I576
sg867
g5047
sg75
VIS_576
p5063
sbasg592
I571
sg75
g1679
sbsg1774
(iconstruction
TP_SYNFORM
p5064
(dp5065
g592
I572
sg1777
(lp5066
(iconstruction
TP_PHON
p5067
(dp5068
g1787
I9
sg1784
I0
sg592
I577
sg1788
Vbookshelf
p5069
sg75
g5035
sbasg75
g1679
sbsg1795
I1
sba(iconstruction
CXN
p5070
(dp5071
g1737
(iconstruction
TP_SYMLINKS
p5072
(dp5073
g1740
(dp5074
VN1_582
p5075
VS1_584
p5076
ssg592
I580
sg75
g1679
sbsg1746
VN
p5077
sg1748
I1
sg75
VWAGON
p5078
sg1749
(iconstruction
TP_SEMFRAME
p5079
(dp5080
g105
g0
(g106
g2
Ntp5081
Rp5082
(dp5083
g110
(dp5084
(iconstruction
TP_NODE
p5085
(dp5086
g1758
I01
sg94
g750
sg75
VENT_581
p5087
sg1759
I01
sg1760
I00
sg592
I581
sb(dp5088
g1759
I01
sg94
g750
ss(iconstruction
TP_NODE
p5089
(dp5090
g1758
I00
sg94
g768
sg75
g5075
sg1759
I00
sg1760
I00
sg592
I582
sb(dp5091
g1759
I00
sg94
g768
sssg293
g294
sg295
g294
sg296
(dp5092
g5085
(dp5093
g5089
(dp5094
g94
g741
sssg5089
(dp5095
ssg490
g5092
sg105
(dp5096
sg492
g294
sg493
g5092
sg494
(dp5097
g5085
(dp5098
sg5089
(dp5099
g5085
g5094
sssbsg587
(lp5100
g5085
ag5089
asg860
(lp5101
(iconstruction
TP_REL
p5102
(dp5103
g866
g5089
sg94
g741
sg592
I583
sg867
g5085
sg75
VIS_583
p5104
sbasg592
I578
sg75
g1679
sbsg1774
(iconstruction
TP_SYNFORM
p5105
(dp5106
g592
I579
sg1777
(lp5107
(iconstruction
TP_PHON
p5108
(dp5109
g1787
I5
sg1784
I0
sg592
I584
sg1788
Vwagon
p5110
sg75
g5076
sbasg75
g1679
sbsg1795
I1
sba(iconstruction
CXN
p5111
(dp5112
g1737
(iconstruction
TP_SYMLINKS
p5113
(dp5114
g1740
(dp5115
VN1_589
p5116
VS1_591
p5117
ssg592
I587
sg75
g1679
sbsg1746
VN
p5118
sg1748
I1
sg75
VTREE
p5119
sg1749
(iconstruction
TP_SEMFRAME
p5120
(dp5121
g105
g0
(g106
g2
Ntp5122
Rp5123
(dp5124
g110
(dp5125
(iconstruction
TP_NODE
p5126
(dp5127
g1758
I00
sg94
g777
sg75
g5116
sg1759
I00
sg1760
I00
sg592
I589
sb(dp5128
g1759
I00
sg94
g777
ss(iconstruction
TP_NODE
p5129
(dp5130
g1758
I01
sg94
g750
sg75
VENT_588
p5131
sg1759
I01
sg1760
I00
sg592
I588
sb(dp5132
g1759
I01
sg94
g750
sssg293
g294
sg295
g294
sg296
(dp5133
g5126
(dp5134
sg5129
(dp5135
g5126
(dp5136
g94
g741
ssssg490
g5133
sg105
(dp5137
sg492
g294
sg493
g5133
sg494
(dp5138
g5126
(dp5139
g5129
g5136
ssg5129
(dp5140
ssbsg587
(lp5141
g5129
ag5126
asg860
(lp5142
(iconstruction
TP_REL
p5143
(dp5144
g866
g5126
sg94
g741
sg592
I590
sg867
g5129
sg75
VIS_590
p5145
sbasg592
I585
sg75
g1679
sbsg1774
(iconstruction
TP_SYNFORM
p5146
(dp5147
g592
I586
sg1777
(lp5148
(iconstruction
TP_PHON
p5149
(dp5150
g1787
I4
sg1784
I0
sg592
I591
sg1788
Vtree
p5151
sg75
g5117
sbasg75
g1679
sbsg1795
I1
sbasbsg75
g1692
sg77
(lp5152
g0
(g79
g2
Ntp5153
Rp5154
(dp5155
g1581
Nsg75
g1587
sg84
Nsg85
Nsg1583
Nsg302
g1526
sg592
I20
sg1527
g1798
sbag0
(g79
g2
Ntp5156
Rp5157
(dp5158
g75
S'to_cxn_retrieval_C'
p5159
sg84
Nsg85
g1729
sg302
g1526
sg592
I21
sg1527
g1798
sbasg1532
(dp5160
g1587
Nsg5159
Nssg1534
(lp5161
sg1537
F1.0
sg1538
(lp5162
sg1540
(dp5163
g1165
F0.3
ssg1542
I0
sg1543
I0
sg1163
g1546
sg592
I4
sS'schemas'
p5164
g1729
sbsg1165
F0.3
sbag0
(g1730
g2
Ntp5165
Rp5166
(dp5167
g75
g1816
sg92
g1806
sg1163
Nsg592
I100
sg1164
g1798
sg1165
F0.3
sbag0
(g1730
g2
Ntp5168
Rp5169
(dp5170
g75
g1867
sg92
g1857
sg1163
Nsg592
I101
sg1164
g1798
sg1165
F0.3
sbag0
(g1730
g2
Ntp5171
Rp5172
(dp5173
g75
g1920
sg92
g1908
sg1163
Nsg592
I102
sg1164
g1798
sg1165
F0.3
sbag0
(g1730
g2
Ntp5174
Rp5175
(dp5176
g75
g1999
sg92
g1987
sg1163
Nsg592
I103
sg1164
g1798
sg1165
F0.3
sbag0
(g1730
g2
Ntp5177
Rp5178
(dp5179
g75
g2074
sg92
g2062
sg1163
Nsg592
I104
sg1164
g1798
sg1165
F0.3
sbag0
(g1730
g2
Ntp5180
Rp5181
(dp5182
g75
g2163
sg92
g2149
sg1163
Nsg592
I105
sg1164
g1798
sg1165
F0.3
sbag0
(g1730
g2
Ntp5183
Rp5184
(dp5185
g75
g2254
sg92
g2240
sg1163
Nsg592
I106
sg1164
g1798
sg1165
F0.3
sbag0
(g1730
g2
Ntp5186
Rp5187
(dp5188
g75
g2345
sg92
g2335
sg1163
Nsg592
I107
sg1164
g1798
sg1165
F0.3
sbag0
(g1730
g2
Ntp5189
Rp5190
(dp5191
g75
g2407
sg92
g2397
sg1163
Nsg592
I108
sg1164
g1798
sg1165
F0.3
sbag0
(g1730
g2
Ntp5192
Rp5193
(dp5194
g75
g2466
sg92
g2456
sg1163
Nsg592
I109
sg1164
g1798
sg1165
F0.3
sbag0
(g1730
g2
Ntp5195
Rp5196
(dp5197
g75
g2518
sg92
g2508
sg1163
Nsg592
I110
sg1164
g1798
sg1165
F0.3
sbag0
(g1730
g2
Ntp5198
Rp5199
(dp5200
g75
g2565
sg92
g2555
sg1163
Nsg592
I111
sg1164
g1798
sg1165
F0.3
sbag0
(g1730
g2
Ntp5201
Rp5202
(dp5203
g75
g2614
sg92
g2602
sg1163
Nsg592
I112
sg1164
g1798
sg1165
F0.3
sbag0
(g1730
g2
Ntp5204
Rp5205
(dp5206
g75
g2694
sg92
g2684
sg1163
Nsg592
I113
sg1164
g1798
sg1165
F0.3
sbag0
(g1730
g2
Ntp5207
Rp5208
(dp5209
g75
g2762
sg92
g2750
sg1163
Nsg592
I114
sg1164
g1798
sg1165
F0.3
sbag0
(g1730
g2
Ntp5210
Rp5211
(dp5212
g75
g2856
sg92
g2844
sg1163
Nsg592
I115
sg1164
g1798
sg1165
F0.3
sbag0
(g1730
g2
Ntp5213
Rp5214
(dp5215
g75
g2938
sg92
g2926
sg1163
Nsg592
I116
sg1164
g1798
sg1165
F0.3
sbag0
(g1730
g2
Ntp5216
Rp5217
(dp5218
g75
g3030
sg92
g3020
sg1163
Nsg592
I117
sg1164
g1798
sg1165
F0.3
sbag0
(g1730
g2
Ntp5219
Rp5220
(dp5221
g75
g3095
sg92
g3085
sg1163
Nsg592
I118
sg1164
g1798
sg1165
F0.3
sbag0
(g1730
g2
Ntp5222
Rp5223
(dp5224
g75
g3174
sg92
g3166
sg1163
Nsg592
I119
sg1164
g1798
sg1165
F0.3
sbag0
(g1730
g2
Ntp5225
Rp5226
(dp5227
g75
g3215
sg92
g3207
sg1163
Nsg592
I120
sg1164
g1798
sg1165
F0.3
sbag0
(g1730
g2
Ntp5228
Rp5229
(dp5230
g75
g3256
sg92
g3248
sg1163
Nsg592
I121
sg1164
g1798
sg1165
F0.3
sbag0
(g1730
g2
Ntp5231
Rp5232
(dp5233
g75
g3297
sg92
g3289
sg1163
Nsg592
I122
sg1164
g1798
sg1165
F0.3
sbag0
(g1730
g2
Ntp5234
Rp5235
(dp5236
g75
g3338
sg92
g3330
sg1163
Nsg592
I123
sg1164
g1798
sg1165
F0.3
sbag0
(g1730
g2
Ntp5237
Rp5238
(dp5239
g75
g3379
sg92
g3371
sg1163
Nsg592
I124
sg1164
g1798
sg1165
F0.3
sbag0
(g1730
g2
Ntp5240
Rp5241
(dp5242
g75
g3420
sg92
g3412
sg1163
Nsg592
I125
sg1164
g1798
sg1165
F0.3
sbag0
(g1730
g2
Ntp5243
Rp5244
(dp5245
g75
g3465
sg92
g3457
sg1163
Nsg592
I126
sg1164
g1798
sg1165
F0.3
sbag0
(g1730
g2
Ntp5246
Rp5247
(dp5248
g75
g3510
sg92
g3502
sg1163
Nsg592
I127
sg1164
g1798
sg1165
F0.3
sbag0
(g1730
g2
Ntp5249
Rp5250
(dp5251
g75
g3551
sg92
g3543
sg1163
Nsg592
I128
sg1164
g1798
sg1165
F0.3
sbag0
(g1730
g2
Ntp5252
Rp5253
(dp5254
g75
g3592
sg92
g3584
sg1163
Nsg592
I129
sg1164
g1798
sg1165
F0.3
sbag0
(g1730
g2
Ntp5255
Rp5256
(dp5257
g75
g3633
sg92
g3625
sg1163
Nsg592
I130
sg1164
g1798
sg1165
F0.3
sbag0
(g1730
g2
Ntp5258
Rp5259
(dp5260
g75
g3674
sg92
g3666
sg1163
Nsg592
I131
sg1164
g1798
sg1165
F0.3
sbag0
(g1730
g2
Ntp5261
Rp5262
(dp5263
g75
g3715
sg92
g3707
sg1163
Nsg592
I132
sg1164
g1798
sg1165
F0.3
sbag0
(g1730
g2
Ntp5264
Rp5265
(dp5266
g75
g3756
sg92
g3748
sg1163
Nsg592
I133
sg1164
g1798
sg1165
F0.3
sbag0
(g1730
g2
Ntp5267
Rp5268
(dp5269
g75
g3787
sg92
g3779
sg1163
Nsg592
I134
sg1164
g1798
sg1165
F0.3
sbag0
(g1730
g2
Ntp5270
Rp5271
(dp5272
g75
g3818
sg92
g3810
sg1163
Nsg592
I135
sg1164
g1798
sg1165
F0.3
sbag0
(g1730
g2
Ntp5273
Rp5274
(dp5275
g75
g3849
sg92
g3841
sg1163
Nsg592
I136
sg1164
g1798
sg1165
F0.3
sbag0
(g1730
g2
Ntp5276
Rp5277
(dp5278
g75
g3880
sg92
g3872
sg1163
Nsg592
I137
sg1164
g1798
sg1165
F0.3
sbag0
(g1730
g2
Ntp5279
Rp5280
(dp5281
g75
g3911
sg92
g3903
sg1163
Nsg592
I138
sg1164
g1798
sg1165
F0.3
sbag0
(g1730
g2
Ntp5282
Rp5283
(dp5284
g75
g3942
sg92
g3934
sg1163
Nsg592
I139
sg1164
g1798
sg1165
F0.3
sbag0
(g1730
g2
Ntp5285
Rp5286
(dp5287
g75
g3973
sg92
g3965
sg1163
Nsg592
I140
sg1164
g1798
sg1165
F0.3
sbag0
(g1730
g2
Ntp5288
Rp5289
(dp5290
g75
g4004
sg92
g3996
sg1163
Nsg592
I141
sg1164
g1798
sg1165
F0.3
sbag0
(g1730
g2
Ntp5291
Rp5292
(dp5293
g75
g4045
sg92
g4037
sg1163
Nsg592
I142
sg1164
g1798
sg1165
F0.3
sbag0
(g1730
g2
Ntp5294
Rp5295
(dp5296
g75
g4086
sg92
g4078
sg1163
Nsg592
I143
sg1164
g1798
sg1165
F0.3
sbag0
(g1730
g2
Ntp5297
Rp5298
(dp5299
g75
g4127
sg92
g4119
sg1163
Nsg592
I144
sg1164
g1798
sg1165
F0.3
sbag0
(g1730
g2
Ntp5300
Rp5301
(dp5302
g75
g4168
sg92
g4160
sg1163
Nsg592
I145
sg1164
g1798
sg1165
F0.3
sbag0
(g1730
g2
Ntp5303
Rp5304
(dp5305
g75
g4209
sg92
g4201
sg1163
Nsg592
I146
sg1164
g1798
sg1165
F0.3
sbag0
(g1730
g2
Ntp5306
Rp5307
(dp5308
g75
g4250
sg92
g4242
sg1163
Nsg592
I147
sg1164
g1798
sg1165
F0.3
sbag0
(g1730
g2
Ntp5309
Rp5310
(dp5311
g75
g4291
sg92
g4283
sg1163
Nsg592
I148
sg1164
g1798
sg1165
F0.3
sbag0
(g1730
g2
Ntp5312
Rp5313
(dp5314
g75
g4332
sg92
g4324
sg1163
Nsg592
I149
sg1164
g1798
sg1165
F0.3
sbag0
(g1730
g2
Ntp5315
Rp5316
(dp5317
g75
g4373
sg92
g4365
sg1163
Nsg592
I150
sg1164
g1798
sg1165
F0.3
sbag0
(g1730
g2
Ntp5318
Rp5319
(dp5320
g75
g4414
sg92
g4406
sg1163
Nsg592
I151
sg1164
g1798
sg1165
F0.3
sbag0
(g1730
g2
Ntp5321
Rp5322
(dp5323
g75
g4459
sg92
g4451
sg1163
Nsg592
I152
sg1164
g1798
sg1165
F0.3
sbag0
(g1730
g2
Ntp5324
Rp5325
(dp5326
g75
g4500
sg92
g4492
sg1163
Nsg592
I153
sg1164
g1798
sg1165
F0.3
sbag0
(g1730
g2
Ntp5327
Rp5328
(dp5329
g75
g4541
sg92
g4533
sg1163
Nsg592
I154
sg1164
g1798
sg1165
F0.3
sbag0
(g1730
g2
Ntp5330
Rp5331
(dp5332
g75
g4582
sg92
g4574
sg1163
Nsg592
I155
sg1164
g1798
sg1165
F0.3
sbag0
(g1730
g2
Ntp5333
Rp5334
(dp5335
g75
g4623
sg92
g4615
sg1163
Nsg592
I156
sg1164
g1798
sg1165
F0.3
sbag0
(g1730
g2
Ntp5336
Rp5337
(dp5338
g75
g4664
sg92
g4656
sg1163
Nsg592
I157
sg1164
g1798
sg1165
F0.3
sbag0
(g1730
g2
Ntp5339
Rp5340
(dp5341
g75
g4709
sg92
g4701
sg1163
Nsg592
I158
sg1164
g1798
sg1165
F0.3
sbag0
(g1730
g2
Ntp5342
Rp5343
(dp5344
g75
g4750
sg92
g4742
sg1163
Nsg592
I159
sg1164
g1798
sg1165
F0.3
sbag0
(g1730
g2
Ntp5345
Rp5346
(dp5347
g75
g4791
sg92
g4783
sg1163
Nsg592
I160
sg1164
g1798
sg1165
F0.3
sbag0
(g1730
g2
Ntp5348
Rp5349
(dp5350
g75
g4832
sg92
g4824
sg1163
Nsg592
I161
sg1164
g1798
sg1165
F0.3
sbag0
(g1730
g2
Ntp5351
Rp5352
(dp5353
g75
g4873
sg92
g4865
sg1163
Nsg592
I162
sg1164
g1798
sg1165
F0.3
sbag0
(g1730
g2
Ntp5354
Rp5355
(dp5356
g75
g4914
sg92
g4906
sg1163
Nsg592
I163
sg1164
g1798
sg1165
F0.3
sbag0
(g1730
g2
Ntp5357
Rp5358
(dp5359
g75
g4955
sg92
g4947
sg1163
Nsg592
I164
sg1164
g1798
sg1165
F0.3
sbag0
(g1730
g2
Ntp5360
Rp5361
(dp5362
g75
g4996
sg92
g4988
sg1163
Nsg592
I165
sg1164
g1798
sg1165
F0.3
sbag0
(g1730
g2
Ntp5363
Rp5364
(dp5365
g75
g5037
sg92
g5029
sg1163
Nsg592
I166
sg1164
g1798
sg1165
F0.3
sbag0
(g1730
g2
Ntp5366
Rp5367
(dp5368
g75
g5078
sg92
g5070
sg1163
Nsg592
I167
sg1164
g1798
sg1165
F0.3
sbag0
(g1730
g2
Ntp5369
Rp5370
(dp5371
g75
g5119
sg92
g5111
sg1163
Nsg592
I168
sg1164
g1798
sg1165
F0.3
sbasg1583
Nsg302
g1562
sg592
I22
sg1527
g1714
sbag1709
asg1540
(dp5372
sg1542
I0
sg1543
I0
sg1163
g1546
sg592
I5
sbsbsS'port_from'
p5373
g1585
sg1163
g1546
sg592
I1
sbag0
(g1701
g2
Ntp5374
Rp5375
(dp5376
g1705
I0
sg75
g1679
sg1706
I0
sg1707
g1727
sg5373
g5154
sg1163
g1546
sg592
I2
sbag0
(g1701
g2
Ntp5377
Rp5378
(dp5379
g1705
I0
sg75
g1679
sg1706
I0
sg1707
g0
(g79
g2
Ntp5380
Rp5381
(dp5382
g1581
Nsg75
S'from_cxn_retrieval_P'
p5383
sg84
Nsg85
Nsg1583
Nsg302
g1562
sg592
I14
sg1527
g0
(clanguage_schemas
GRAMMATICAL_WM_P
p5384
g2
Ntp5385
Rp5386
(dp5387
g73
(dp5388
g5383
NsS'from_phonological_WM_P'
p5389
Nsg1711
Nsg1570
Nssg1572
(lp5390
sg75
g1688
sg1575
(lp5391
sg77
(lp5392
g0
(g79
g2
Ntp5393
Rp5394
(dp5395
g1581
Nsg75
g1531
sg84
Nsg85
Nsg1583
Nsg302
g1526
sg592
I17
sg1527
g5386
sbag0
(g79
g2
Ntp5396
Rp5397
(dp5398
g1581
Nsg75
S'to_phonological_WM_P'
p5399
sg84
Nsg85
Nsg1583
Nsg302
g1526
sg592
I18
sg1527
g5386
sbag0
(g79
g2
Ntp5400
Rp5401
(dp5402
g75
g1599
sg84
Nsg85
Nsg302
g1526
sg592
I19
sg1527
g5386
sbasg1532
(dp5403
g1599
Nsg5399
Nsg1531
NssS'time_to_next_prod'
p5404
I8
sg1537
F1.0
sg1601
(lp5405
sg1538
(lp5406
g0
(g79
g2
Ntp5407
Rp5408
(dp5409
g1581
Nsg75
g1711
sg84
Nsg85
(dp5410
g587
(dp5411
sg860
(dp5412
ssg1583
Nsg302
g1562
sg592
I13
sg1527
g5386
sbag5381
ag0
(g79
g2
Ntp5413
Rp5414
(dp5415
g1581
Nsg75
g1570
sg84
Nsg85
(dp5416
S'params_style'
p5417
(dp5418
S'continuity'
p5419
F0.3
sS'form_length'
p5420
F0.0
sS'sem_length'
p5421
F0.0
sS'activation'
p5422
F0.7
ssS'pressure'
p5423
I0
sg1616
I00
ssg1583
Nsg302
g1562
sg592
I15
sg1527
g5386
sbag0
(g79
g2
Ntp5424
Rp5425
(dp5426
g1581
Nsg75
g5389
sg84
Nsg85
(lp5427
g4159
ag3247
ag4077
asg1583
Nsg302
g1562
sg592
I16
sg1527
g5386
sbasS'refractory_period'
p5428
I10
sg1617
(dp5429
g1619
(dp5430
sg1621
(dp5431
g1623
(lp5432
sg1625
(dp5433
g1627
(lp5434
sg1629
(lp5435
sg1631
(lp5436
ssg1633
(lp5437
sg1542
(lp5438
sg1636
(lp5439
sssg1540
(dp5440
g1639
(dp5441
g1645
F1.0
sg1646
F1.0
sS'sub_threshold_r'
p5442
F0.8
sg1648
F0.0
sS'deact_weight'
p5443
F0.0
sg1647
F0.3
sg1649
F0.01
sg5428
I10
sg1641
F1.0
sg1642
Nsg1643
F-10.0
sg1644
F1.0
ssg1650
(dp5444
g1652
I100
sg1653
I10
sg1654
F0.001
sg1655
F0.0
sg1656
F1.0
sg1657
F1.0
sg1658
F1.0
ssS'style'
p5445
(dp5446
g5419
F0.3
sg5420
F0.0
sg5421
F0.0
sg5422
F0.7
sssg1542
I0
sg1543
I0
sg1163
g1546
sg592
I3
sbsbsg5373
g1720
sg1163
g1546
sg592
I3
sbag0
(g1701
g2
Ntp5447
Rp5448
(dp5449
g1705
I0
sg75
g1679
sg1706
I0
sg1707
g5408
sg5373
g1579
sg1163
g1546
sg592
I4
sbag0
(g1701
g2
Ntp5450
Rp5451
(dp5452
g1705
I0
sg75
g1679
sg1706
I0
sg1707
g1611
sg5373
g5394
sg1163
g1546
sg592
I5
sbag0
(g1701
g2
Ntp5453
Rp5454
(dp5455
g1705
I0
sg75
g1679
sg1706
I0
sg1707
g0
(g79
g2
Ntp5456
Rp5457
(dp5458
g1581
Nsg75
g1568
sg84
Nsg85
Nsg1583
Nsg302
g1562
sg592
I25
sg1527
g0
(clanguage_schemas
PHON_WM_P
p5459
g2
Ntp5460
Rp5461
(dp5462
g73
(dp5463
g1568
Nssg1572
(lp5464
sg75
g1684
sg1575
(lp5465
sg77
(lp5466
g0
(g79
g2
Ntp5467
Rp5468
(dp5469
g1581
Nsg75
S'to_utter'
p5470
sg84
Nsg85
Nsg1583
Nsg302
g1526
sg592
I26
sg1527
g5461
sbag0
(g79
g2
Ntp5471
Rp5472
(dp5473
g1581
Nsg75
g1582
sg84
Nsg85
Nsg1583
Nsg302
g1526
sg592
I27
sg1527
g5461
sbag0
(g79
g2
Ntp5474
Rp5475
(dp5476
g1581
Nsg75
g1591
sg84
Nsg85
Nsg1583
Nsg302
g1526
sg592
I28
sg1527
g5461
sbag0
(g79
g2
Ntp5477
Rp5478
(dp5479
g75
g1599
sg84
Nsg85
Nsg302
g1526
sg592
I29
sg1527
g5461
sbasg1532
(dp5480
g1599
Nsg1582
Nsg5470
Nsg1591
NssS'needs_filler'
p5481
I01
sg1537
F1.0
sg1601
(lp5482
sg1538
(lp5483
g5457
asS'filler'
p5484
S'....'
p5485
sg1617
(dp5486
g1619
(dp5487
sg1621
(dp5488
g1623
(lp5489
sg1625
(dp5490
g1627
(lp5491
sg1629
(lp5492
sg1631
(lp5493
ssg1633
(lp5494
sg1542
(lp5495
sg1636
(lp5496
sssg1540
(dp5497
g1639
(dp5498
g1641
F1.0
sg1642
Nsg1643
F0.0
sg1644
F1.0
sg1645
F1.0
sg1646
F0.0
sg1647
F0.0
sg1648
F0.0
sg1649
F0.01
ssg1650
(dp5499
g1652
F100.0
sg1653
F10.0
sg1654
F0.001
sg1655
F0.0
sg1656
F1.0
sg1657
F1.0
sg1658
F1.0
sssg1542
I0
sg1543
I0
sg1163
g1546
sS'phon_sequence'
p5500
(lp5501
sg592
I6
sbsbsg5373
g5397
sg1163
g1546
sg592
I6
sbag0
(g1701
g2
Ntp5502
Rp5503
(dp5504
g1705
I0
sg75
g1679
sg1706
I0
sg1707
g5425
sg5373
g5472
sg1163
g1546
sg592
I7
sbag0
(g1701
g2
Ntp5505
Rp5506
(dp5507
g1705
I0
sg75
g1679
sg1706
I0
sg1707
g0
(g79
g2
Ntp5508
Rp5509
(dp5510
g1581
Nsg75
g1711
sg84
Nsg85
I00
sg1583
Nsg302
g1562
sg592
I32
sg1527
g0
(clanguage_schemas
CONTROL
p5511
g2
Ntp5512
Rp5513
(dp5514
g73
(dp5515
g5389
Nsg1711
Nssg75
g1674
sg77
(lp5516
g0
(g79
g2
Ntp5517
Rp5518
(dp5519
g1581
Nsg75
g1531
sg84
Nsg85
Nsg1583
Nsg302
g1526
sg592
I34
sg1527
g5513
sbag0
(g79
g2
Ntp5520
Rp5521
(dp5522
g1581
Nsg75
g1582
sg84
Nsg85
Nsg1583
Nsg302
g1526
sg592
I35
sg1527
g5513
sbag0
(g79
g2
Ntp5523
Rp5524
(dp5525
g75
S'to_grammatical_WM_C'
p5526
sg84
Nsg85
I00
sg302
g1526
sg592
I36
sg1527
g5513
sbasg1532
(dp5527
g1582
Nsg5526
Nsg1531
Nssg1537
F1.0
sg1538
(lp5528
g5509
ag0
(g79
g2
Ntp5529
Rp5530
(dp5531
g1581
Nsg75
g5389
sg84
Nsg85
Nsg1583
Nsg302
g1562
sg592
I33
sg1527
g5513
sbasS'state'
p5532
(dp5533
g1616
I00
sS'unexpressed_sem'
p5534
I00
sS'mode'
p5535
g1616
sS'last_prod_time'
p5536
I0
ssg1540
(dp5537
g5445
(dp5538
g5419
F0.3
sg5420
F0.0
sg5422
F0.7
sg5421
F0.0
ssS'task'
p5539
(dp5540
S'time_pressure'
p5541
cnumpy.core.multiarray
scalar
p5542
(cnumpy
dtype
p5543
(S'f8'
p5544
I0
I1
tp5545
Rp5546
(I3
S'<'
p5547
NNNI-1
I-1
I0
tp5548
bS'\x00\x00\x00\x00\x00@\x8f@'
p5549
tp5550
Rp5551
sS'start_produce'
p5552
I1
sssg1542
I0
sg1543
I0
sg1163
g1546
sg592
I8
sbsbsg5373
g1589
sg1163
g1546
sg592
I8
sbag0
(g1701
g2
Ntp5553
Rp5554
(dp5555
g1705
I0
sg75
g1679
sg1706
I0
sg1707
g0
(g79
g2
Ntp5556
Rp5557
(dp5558
g1581
Nsg75
g5389
sg84
Nsg85
Nsg1583
Nsg302
g1562
sg592
I30
sg1527
g0
(clanguage_schemas
UTTER
p5559
g2
Ntp5560
Rp5561
(dp5562
g73
(dp5563
g5389
Nssg75
g1677
sg77
(lp5564
g0
(g79
g2
Ntp5565
Rp5566
(dp5567
g75
g1599
sg84
Nsg85
Nsg302
g1526
sg592
I31
sg1527
g5561
sbasg1532
(dp5568
g1599
NssS'utterance_stack'
p5569
(lp5570
sg1537
F1.0
sg1538
(lp5571
g5557
asg1540
(dp5572
S'speech_rate'
p5573
F1.0
ssg1542
I0
sg1543
I0
sg1163
g1546
sg592
I7
sbsbsg5373
g5468
sg1163
g1546
sg592
I9
sbag0
(g1701
g2
Ntp5574
Rp5575
(dp5576
g1705
I0
sg75
g1679
sg1706
I0
sg1707
g5530
sg5373
g5475
sg1163
g1546
sg592
I10
sbag0
(g1701
g2
Ntp5577
Rp5578
(dp5579
g1705
I0
sg75
g1679
sg1706
I0
sg1707
g5414
sg5373
g5521
sg1163
g1546
sg592
I11
sbag0
(g1701
g2
Ntp5580
Rp5581
(dp5582
g1705
I0
sg75
g1679
sg1706
I0
sg1707
g1614
sg5373
g5518
sg1163
g1546
sg592
I12
sbasg1540
(dp5583
g1674
g5537
sg1684
g5497
sg76
g1541
sg1692
g5163
sg1696
g5372
sg1574
g1638
sg1677
g5572
sg1688
g5440
ssg1542
F0.0
sS'set_up_time'
p5584
I10
sS'input'
p5585
NsS'default_params'
p5586
Nsg1537
F1.0
sS'output_ports'
p5587
(lp5588
g5566
ag5478
ag5401
ag1597
asg5164
(dp5589
g1674
g5513
sg1684
g5461
sg76
g71
sg1696
g1714
sg1688
g5386
sg1574
g1565
sg1677
g5561
sg1692
g1798
ssbsg592
I2
sg5164
g86
sbsbsb.