ccopy_reg
_reconstructor
p0
(cschema_theory
MODEL
p1
c__builtin__
object
p2
Ntp3
Rp4
(dp5
S'verbose'
p6
I00
sS'name'
p7
S'language_system_P'
p8
sS'sim_data'
p9
(dp10
S'system_states'
p11
(dp12
sS'model'
p13
(dp14
ssS'outputs'
p15
(dp16
sS'input_ports'
p17
(lp18
g0
(cschema_theory
PORT
p19
g2
Ntp20
Rp21
(dp22
g7
S'from_conceptualizer'
p23
sS'data'
p24
NsS'value'
p25
NsS'type'
p26
S'IN'
p27
sS'id'
p28
I1
sS'schema'
p29
g0
(clanguage_schemas
SEMANTIC_WM
p30
g2
Ntp31
Rp32
(dp33
S'inputs'
p34
(dp35
S'from_grammatical_WM_P'
p36
NsS'from_concept_LTM'
p37
NsS'from_control'
p38
NsS'from_grammatical_WM_C'
p39
Nsg23
NssS'schema_insts'
p40
(lp41
sg7
S'Semantic_WM'
p42
sS'comp_links'
p43
(lp44
sS'out_ports'
p45
(lp46
g0
(g19
g2
Ntp47
Rp48
(dp49
g7
S'to_grammatical_WM_P'
p50
sg24
Nsg25
Nsg26
S'OUT'
p51
sg28
I6
sg29
g32
sbag0
(g19
g2
Ntp52
Rp53
(dp54
g7
S'to_cxn_retrieval_P'
p55
sg24
Nsg25
Nsg26
g51
sg28
I7
sg29
g32
sbag0
(g19
g2
Ntp56
Rp57
(dp58
g7
S'to_control'
p59
sg24
Nsg25
Nsg26
g51
sg28
I8
sg29
g32
sbag0
(g19
g2
Ntp60
Rp61
(dp62
g7
S'to_visual_WM'
p63
sg24
Nsg25
Nsg26
g51
sg28
I9
sg29
g32
sbag0
(g19
g2
Ntp64
Rp65
(dp66
g7
S'to_output'
p67
sg24
Nsg25
Nsg26
g51
sg28
I10
sg29
g32
sbasg15
(dp68
g67
Nsg50
Nsg63
Nsg55
Nsg59
NssS'dt'
p69
F1.0
sS'coop_links'
p70
(lp71
sS'in_ports'
p72
(lp73
g21
ag0
(g19
g2
Ntp74
Rp75
(dp76
g7
g37
sg24
Nsg25
Nsg26
g27
sg28
I2
sg29
g32
sbag0
(g19
g2
Ntp77
Rp78
(dp79
g7
g39
sg24
Nsg25
Nsg26
g27
sg28
I3
sg29
g32
sbag0
(g19
g2
Ntp80
Rp81
(dp82
g7
g36
sg24
Nsg25
Nsg26
g27
sg28
I4
sg29
g32
sbag0
(g19
g2
Ntp83
Rp84
(dp85
g7
g38
sg24
Nsg25
Nsg26
g27
sg28
I5
sg29
g32
sbasS'save_state'
p86
(dp87
S'insts'
p88
(dp89
sS'WM_activity'
p90
(dp91
S'comp'
p92
(lp93
sS'c2_network'
p94
(dp95
S'num_insts'
p96
(lp97
sS'num_coop_links'
p98
(lp99
sS'num_comp_links'
p100
(lp101
ssS'coop'
p102
(lp103
sS't'
p104
(lp105
sS'act'
p106
(lp107
sssS'params'
p108
(dp109
S'C2'
p110
(dp111
S'P_comp'
p112
F1.0
sS'max_capacity'
p113
NsS'comp_weight'
p114
F0.0
sS'P_coop'
p115
F1.0
sS'coop_asymmetry'
p116
F1.0
sS'coop_weight'
p117
F0.0
sS'confidence_threshold'
p118
F0.0
sS'comp_asymmetry'
p119
F0.0
sS'prune_threshold'
p120
F0.01
ssS'dyn'
p121
(dp122
S'tau'
p123
F10000.0
sS'k'
p124
F10.0
sS'act_rest'
p125
F0.001
sS'noise_mean'
p126
F0.0
sS'noise_std'
p127
F1.0
sS'ext_weight'
p128
F1.0
sS'int_weight'
p129
F1.0
sssg104
F0.0
sS'activity'
p130
F0.0
sg13
g4
sS'SemRep'
p131
g0
(cnetworkx.classes.digraph
DiGraph
p132
g2
Ntp133
Rp134
(dp135
S'node'
p136
(dp137
sS'node_dict_factory'
p138
c__builtin__
dict
p139
sS'edge_attr_dict_factory'
p140
g139
sS'succ'
p141
(dp142
sS'edge'
p143
g142
sS'graph'
p144
(dp145
sS'adjlist_dict_factory'
p146
g139
sS'adj'
p147
g142
sS'pred'
p148
(dp149
sbsg28
I1
sbsbasS'brain_mapping'
p150
g0
(cschema_theory
BRAIN_MAPPING
p151
g2
Ntp152
Rp153
(dp154
S'schema_mapping'
p155
(dp156
S'Control'
p157
(lp158
S'DLPFC'
p159
asS'Utter'
p160
(lp161
S''
p162
asg42
(lp163
S'left_SFG'
p164
aS'LIP'
p165
aS'Hippocampus'
p166
asS'Phonological_WM_P'
p167
(lp168
S'left_BA6'
p169
asS'Concept_LTM'
p170
(lp171
g162
asS'Grammatical_WM_P'
p172
(lp173
S'left_BA45'
p174
aS'leftBA44'
p175
asS'Grammatical_LTM'
p176
(lp177
S'left_STG'
p178
aS'left_MTG'
p179
asS'Cxn_retrieval_P'
p180
(lp181
ssS'connect_mapping'
p182
(dp183
sbsS'connections'
p184
(lp185
g0
(cschema_theory
CONNECT
p186
g2
Ntp187
Rp188
(dp189
S'delay'
p190
I0
sg7
g162
sS'weight'
p191
I0
sS'port_to'
p192
g0
(g19
g2
Ntp193
Rp194
(dp195
g7
S'from_semantic_WM'
p196
sg24
Nsg25
Nsg26
g27
sg28
I23
sg29
g0
(clanguage_schemas
CXN_RETRIEVAL_P
p197
g2
Ntp198
Rp199
(dp200
g34
(dp201
g196
NsS'from_grammatical_LTM'
p202
Nssg7
g180
sg45
(lp203
g0
(g19
g2
Ntp204
Rp205
(dp206
g7
g50
sg24
Nsg25
Nsg26
g51
sg28
I24
sg29
g199
sbasg15
(dp207
g50
NssS'cxn_instances'
p208
(lp209
sg69
F1.0
sg72
(lp210
g0
(g19
g2
Ntp211
Rp212
(dp213
g7
g202
sg24
Nsg25
Nsg26
g27
sg28
I22
sg29
g199
sbag194
asg108
(dp214
sg104
F0.0
sg130
F0.0
sg13
g4
sg28
I5
sbsbsS'port_from'
p215
g53
sg13
g4
sg28
I1
sbag0
(g186
g2
Ntp216
Rp217
(dp218
g190
I0
sg7
g162
sg191
I0
sg192
g212
sg215
g0
(g19
g2
Ntp219
Rp220
(dp221
g7
g55
sg24
Nsg25
Nsg26
g51
sg28
I20
sg29
g0
(clanguage_schemas
GRAMMATICAL_LTM
p222
g2
Ntp223
Rp224
(dp225
g34
(dp226
sS'grammar'
p227
(iconstruction
GRAMMAR
p228
(dp229
S'constructions'
p230
(lp231
(iconstruction
CXN
p232
(dp233
S'SymLinks'
p234
(iconstruction
TP_SYMLINKS
p235
(dp236
S'SL'
p237
(dp238
VEVT1_4
p239
VS1_6
p240
sVEVT2_5
p241
VS3_8
p242
ssg28
I3
sg7
g162
sbsS'clss'
p243
VD
p244
sS'group'
p245
I3
sg7
VCNJ_AND
p246
sS'SemFrame'
p247
(iconstruction
TP_SEMFRAME
p248
(dp249
g144
g0
(g132
g2
Ntp250
Rp251
(dp252
g136
(dp253
(iconstruction
TP_NODE
p254
(dp255
S'head'
p256
I00
sS'concept'
p257
g0
(cconcept
CONCEPT
p258
g2
Ntp259
Rp260
(dp261
S'meaning'
p262
VEVENT
p263
sS'conceptual_knowledge'
p264
g0
(cconcept
CONCEPTUAL_KNOWLEDGE
p265
g2
Ntp266
Rp267
(dp268
g144
g0
(g132
g2
Ntp269
Rp270
(dp271
g136
(dp272
I1
(dp273
g262
S'?'
p274
ssI2
(dp275
g262
S'CONCEPT'
p276
ssI3
(dp277
g262
VACTION
p278
ssI4
(dp279
g262
VSYMMETRIC
p280
ssI5
(dp281
g262
VMEET
p282
ssI6
(dp283
g262
VSHAKE_HANDS
p284
ssI7
(dp285
g262
VINTRANSITIVE
p286
ssI8
(dp287
g262
VLAUGH
p288
ssI9
(dp289
g262
VTRANSITIVE
p290
ssI10
(dp291
g262
VHIT
p292
ssI11
(dp293
g262
VWATCH
p294
ssI12
(dp295
g262
VPUNCH
p296
ssI13
(dp297
g262
VSPLASH
p298
ssI14
(dp299
g262
VTALK
p300
ssI15
(dp301
g262
VKISS
p302
ssI16
(dp303
g262
VSQUIRT
p304
ssI17
(dp305
g262
VKICK
p306
ssI18
(dp307
g262
VWEAR
p308
ssI19
(dp309
g262
VDITRANSITIVE
p310
ssI20
(dp311
g262
VSEND
p312
ssI21
(dp313
g262
VGIVE
p314
ssI22
(dp315
g262
VPROPERTY
p316
ssI23
(dp317
g262
VCOLOR
p318
ssI24
(dp319
g262
VBLUE
p320
ssI25
(dp321
g262
VGREEN
p322
ssI26
(dp323
g262
VWHITE
p324
ssI27
(dp325
g262
VBLACK
p326
ssI28
(dp327
g262
VRED
p328
ssI29
(dp329
g262
VAPPEARANCE
p330
ssI30
(dp331
g262
VYOUNG
p332
ssI31
(dp333
g262
VPRETTY
p334
ssI32
(dp335
g262
VHANDSOME
p336
ssI33
(dp337
g262
VSIZE
p338
ssI34
(dp339
g262
VSMALL
p340
ssI35
(dp341
g262
VBIG
p342
ssI36
(dp343
g262
VRELATION
p344
ssI37
(dp345
g262
VACTION_FRAME
p346
ssI38
(dp347
g262
VMODIFY
p348
ssI39
(dp349
g262
VTHEME
p350
ssI40
(dp351
g262
VRECIPIENT
p352
ssI41
(dp353
g262
VATTR
p354
ssI42
(dp355
g262
VAGT_PT
p356
ssI43
(dp357
g262
VPATIENT
p358
ssI44
(dp359
g262
VAGT+PT
p360
ssI45
(dp361
g262
VAGENT
p362
ssI46
(dp363
g262
VEVENT_FRAME
p364
ssI47
(dp365
g262
VTEMPORAL
p366
ssI48
(dp367
g262
VCONCURRENT
p368
ssI49
(dp369
g262
VSUCCESSIVE
p370
ssI50
(dp371
g262
VSPATIAL
p372
ssI51
(dp373
g262
VIN
p374
ssI52
(dp375
g262
VIS
p376
ssI53
(dp377
g262
VOBJECT_FRAME
p378
ssI54
(dp379
g262
g263
ssI55
(dp380
g262
VENTITY
p381
ssI56
(dp382
g262
VANIMATE
p383
ssI57
(dp384
g262
VANIMAL
p385
ssI58
(dp386
g262
VHUMAN
p387
ssI59
(dp388
g262
VOBJECT
p389
ssI60
(dp390
g262
VITEM
p391
ssI61
(dp392
g262
VWAGON
p393
ssI62
(dp394
g262
VWATERING_CAN
p395
ssI63
(dp396
g262
VBAG
p397
ssI64
(dp398
g262
VTREE
p399
ssI65
(dp400
g262
VHOOK
p401
ssI66
(dp402
g262
VCELLO
p403
ssI67
(dp404
g262
VBOOKSHELF
p405
ssI68
(dp406
g262
VCLOTHING
p407
ssI69
(dp408
g262
VTSHIRT
p409
ssI70
(dp410
g262
VDRESS
p411
ssI71
(dp412
g262
VSHIRT
p413
ssI72
(dp414
g262
VSUIT
p415
ssI73
(dp416
g262
VTURTLE
p417
ssI74
(dp418
g262
VMOUSE
p419
ssI75
(dp420
g262
VDOG
p421
ssI76
(dp422
g262
VBOY
p423
ssI77
(dp424
g262
VWOMAN
p425
ssI78
(dp426
g262
VPEOPLE
p427
ssI79
(dp428
g262
VPOLICEMAN
p429
ssI80
(dp430
g262
VHUNTER
p431
ssI81
(dp432
g262
VBALLERINA
p433
ssI82
(dp434
g262
VCELLIST
p435
ssI83
(dp436
g262
VGIRL
p437
ssI84
(dp438
g262
VFENCER
p439
ssI85
(dp440
g262
VROBBER
p441
ssI86
(dp442
g262
VMAN
p443
ssI87
(dp444
g262
VPLACE
p445
ssI88
(dp446
g262
VBOXINGRING
p447
ssI89
(dp448
g262
VPARK
p449
ssI90
(dp450
g262
VMALE
p451
ssI91
(dp452
g262
VFEMALE
p453
sssg138
g139
sg140
g139
sg141
(dp454
I1
(dp455
sI2
(dp456
sI3
(dp457
I2
(dp458
g26
S'is_a'
p459
sssI4
(dp460
I3
(dp461
g26
g459
sssI5
(dp462
I4
(dp463
g26
g459
sssI6
(dp464
I4
(dp465
g26
g459
sssI7
(dp466
I3
(dp467
g26
g459
sssI8
(dp468
I7
(dp469
g26
g459
sssI9
(dp470
I3
(dp471
g26
g459
sssI10
(dp472
I9
(dp473
g26
g459
sssI11
(dp474
I9
(dp475
g26
g459
sssI12
(dp476
I9
(dp477
g26
g459
sssI13
(dp478
I9
(dp479
g26
g459
sssI14
(dp480
I9
(dp481
g26
g459
sssI15
(dp482
I9
(dp483
g26
g459
sssI16
(dp484
I9
(dp485
g26
g459
sssI17
(dp486
I9
(dp487
g26
g459
sssI18
(dp488
I9
(dp489
g26
g459
sssI19
(dp490
I3
(dp491
g26
g459
sssI20
(dp492
I19
(dp493
g26
g459
sssI21
(dp494
I19
(dp495
g26
g459
sssI22
(dp496
I2
(dp497
g26
g459
sssI23
(dp498
I22
(dp499
g26
g459
sssI24
(dp500
I23
(dp501
g26
g459
sssI25
(dp502
I23
(dp503
g26
g459
sssI26
(dp504
I23
(dp505
g26
g459
sssI27
(dp506
I23
(dp507
g26
g459
sssI28
(dp508
I23
(dp509
g26
g459
sssI29
(dp510
I22
(dp511
g26
g459
sssI30
(dp512
I29
(dp513
g26
g459
sssI31
(dp514
I29
(dp515
g26
g459
sssI32
(dp516
I29
(dp517
g26
g459
sssI33
(dp518
I22
(dp519
g26
g459
sssI34
(dp520
I33
(dp521
g26
g459
sssI35
(dp522
I33
(dp523
g26
g459
sssI36
(dp524
I2
(dp525
g26
g459
sssI37
(dp526
I36
(dp527
g26
g459
sssI38
(dp528
I37
(dp529
g26
g459
ssI53
(dp530
g26
g459
sssI39
(dp531
I37
(dp532
g26
g459
sssI40
(dp533
I37
(dp534
g26
g459
sssI41
(dp535
I37
(dp536
g26
g459
ssI53
(dp537
g26
g459
sssI42
(dp538
I37
(dp539
g26
g459
sssI43
(dp540
I42
(dp541
g26
g459
sssI44
(dp542
I43
(dp543
g26
g459
ssI45
(dp544
g26
g459
sssI45
(dp545
I42
(dp546
g26
g459
sssI46
(dp547
I36
(dp548
g26
g459
sssI47
(dp549
I46
(dp550
g26
g459
sssI48
(dp551
I47
(dp552
g26
g459
sssI49
(dp553
I47
(dp554
g26
g459
sssI50
(dp555
I46
(dp556
g26
g459
sssI51
(dp557
I50
(dp558
g26
g459
sssI52
(dp559
I36
(dp560
g26
g459
sssI53
(dp561
I36
(dp562
g26
g459
sssI54
(dp563
I2
(dp564
g26
g459
sssI55
(dp565
I2
(dp566
g26
g459
sssI56
(dp567
I55
(dp568
g26
g459
sssI57
(dp569
I56
(dp570
g26
g459
ssI59
(dp571
g26
g459
sssI58
(dp572
I56
(dp573
g26
g459
ssI59
(dp574
g26
g459
sssI59
(dp575
I55
(dp576
g26
g459
sssI60
(dp577
I59
(dp578
g26
g459
sssI61
(dp579
I60
(dp580
g26
g459
sssI62
(dp581
I60
(dp582
g26
g459
sssI63
(dp583
I60
(dp584
g26
g459
sssI64
(dp585
I60
(dp586
g26
g459
sssI65
(dp587
I60
(dp588
g26
g459
sssI66
(dp589
I60
(dp590
g26
g459
sssI67
(dp591
I60
(dp592
g26
g459
sssI68
(dp593
I60
(dp594
g26
g459
sssI69
(dp595
I68
(dp596
g26
g459
sssI70
(dp597
I68
(dp598
g26
g459
sssI71
(dp599
I68
(dp600
g26
g459
sssI72
(dp601
I68
(dp602
g26
g459
sssI73
(dp603
I57
(dp604
g26
g459
sssI74
(dp605
I57
(dp606
g26
g459
sssI75
(dp607
I57
(dp608
g26
g459
sssI76
(dp609
I58
(dp610
g26
g459
ssI90
(dp611
g26
g459
sssI77
(dp612
I58
(dp613
g26
g459
ssI91
(dp614
g26
g459
sssI78
(dp615
I58
(dp616
g26
g459
sssI79
(dp617
I58
(dp618
g26
g459
sssI80
(dp619
I58
(dp620
g26
g459
sssI81
(dp621
I58
(dp622
g26
g459
ssI91
(dp623
g26
g459
sssI82
(dp624
I58
(dp625
g26
g459
sssI83
(dp626
I58
(dp627
g26
g459
ssI91
(dp628
g26
g459
sssI84
(dp629
I58
(dp630
g26
g459
sssI85
(dp631
I58
(dp632
g26
g459
sssI86
(dp633
I58
(dp634
g26
g459
ssI90
(dp635
g26
g459
sssI87
(dp636
I55
(dp637
g26
g459
sssI88
(dp638
I87
(dp639
g26
g459
sssI89
(dp640
I87
(dp641
g26
g459
sssI90
(dp642
I55
(dp643
g26
g459
sssI91
(dp644
I55
(dp645
g26
g459
ssssg143
g454
sg144
(dp646
sg146
g139
sg147
g454
sg148
(dp647
I1
(dp648
sI2
(dp649
I3
g458
sI36
g525
sI54
g564
sI22
g497
sI55
g566
ssI3
(dp650
I9
g471
sI19
g491
sI4
g461
sI7
g467
ssI4
(dp651
I5
g463
sI6
g465
ssI5
(dp652
sI6
(dp653
sI7
(dp654
I8
g469
ssI8
(dp655
sI9
(dp656
I10
g473
sI11
g475
sI12
g477
sI13
g479
sI14
g481
sI15
g483
sI16
g485
sI17
g487
sI18
g489
ssI10
(dp657
sI11
(dp658
sI12
(dp659
sI13
(dp660
sI14
(dp661
sI15
(dp662
sI16
(dp663
sI17
(dp664
sI18
(dp665
sI19
(dp666
I20
g493
sI21
g495
ssI20
(dp667
sI21
(dp668
sI22
(dp669
I33
g519
sI29
g511
sI23
g499
ssI23
(dp670
I24
g501
sI25
g503
sI26
g505
sI27
g507
sI28
g509
ssI24
(dp671
sI25
(dp672
sI26
(dp673
sI27
(dp674
sI28
(dp675
sI29
(dp676
I32
g517
sI30
g513
sI31
g515
ssI30
(dp677
sI31
(dp678
sI32
(dp679
sI33
(dp680
I34
g521
sI35
g523
ssI34
(dp681
sI35
(dp682
sI36
(dp683
I52
g560
sI37
g527
sI46
g548
sI53
g562
ssI37
(dp684
I40
g534
sI41
g536
sI42
g539
sI38
g529
sI39
g532
ssI38
(dp685
sI39
(dp686
sI40
(dp687
sI41
(dp688
sI42
(dp689
I43
g541
sI45
g546
ssI43
(dp690
I44
g543
ssI44
(dp691
sI45
(dp692
I44
g544
ssI46
(dp693
I50
g556
sI47
g550
ssI47
(dp694
I48
g552
sI49
g554
ssI48
(dp695
sI49
(dp696
sI50
(dp697
I51
g558
ssI51
(dp698
sI52
(dp699
sI53
(dp700
I41
g537
sI38
g530
ssI54
(dp701
sI55
(dp702
I56
g568
sI91
g645
sI90
g643
sI59
g576
sI87
g637
ssI56
(dp703
I57
g570
sI58
g573
ssI57
(dp704
I73
g604
sI74
g606
sI75
g608
ssI58
(dp705
I76
g610
sI77
g613
sI78
g616
sI79
g618
sI80
g620
sI81
g622
sI82
g625
sI83
g627
sI84
g630
sI85
g632
sI86
g634
ssI59
(dp706
I57
g571
sI58
g574
sI60
g578
ssI60
(dp707
I64
g586
sI65
g588
sI66
g590
sI67
g592
sI68
g594
sI61
g580
sI62
g582
sI63
g584
ssI61
(dp708
sI62
(dp709
sI63
(dp710
sI64
(dp711
sI65
(dp712
sI66
(dp713
sI67
(dp714
sI68
(dp715
I72
g602
sI69
g596
sI70
g598
sI71
g600
ssI69
(dp716
sI70
(dp717
sI71
(dp718
sI72
(dp719
sI73
(dp720
sI74
(dp721
sI75
(dp722
sI76
(dp723
sI77
(dp724
sI78
(dp725
sI79
(dp726
sI80
(dp727
sI81
(dp728
sI82
(dp729
sI83
(dp730
sI84
(dp731
sI85
(dp732
sI86
(dp733
sI87
(dp734
I88
g639
sI89
g641
ssI88
(dp735
sI89
(dp736
sI90
(dp737
I76
g611
sI86
g635
ssI91
(dp738
I81
g623
sI83
g628
sI77
g614
sssbsS'nodes'
p739
(lp740
g0
(g258
g2
Ntp741
Rp742
(dp743
g262
g274
sg264
g267
sg28
I1
sg7
g274
sbag0
(g258
g2
Ntp744
Rp745
(dp746
g262
g276
sg264
g267
sg28
I2
sg7
g276
sbag0
(g258
g2
Ntp747
Rp748
(dp749
g262
g278
sg264
g267
sg28
I3
sg7
g278
sbag0
(g258
g2
Ntp750
Rp751
(dp752
g262
g280
sg264
g267
sg28
I4
sg7
g280
sbag0
(g258
g2
Ntp753
Rp754
(dp755
g262
g282
sg264
g267
sg28
I5
sg7
g282
sbag0
(g258
g2
Ntp756
Rp757
(dp758
g262
g284
sg264
g267
sg28
I6
sg7
g284
sbag0
(g258
g2
Ntp759
Rp760
(dp761
g262
g286
sg264
g267
sg28
I7
sg7
g286
sbag0
(g258
g2
Ntp762
Rp763
(dp764
g262
g288
sg264
g267
sg28
I8
sg7
g288
sbag0
(g258
g2
Ntp765
Rp766
(dp767
g262
g290
sg264
g267
sg28
I9
sg7
g290
sbag0
(g258
g2
Ntp768
Rp769
(dp770
g262
g292
sg264
g267
sg28
I10
sg7
g292
sbag0
(g258
g2
Ntp771
Rp772
(dp773
g262
g294
sg264
g267
sg28
I11
sg7
g294
sbag0
(g258
g2
Ntp774
Rp775
(dp776
g262
g296
sg264
g267
sg28
I12
sg7
g296
sbag0
(g258
g2
Ntp777
Rp778
(dp779
g262
g298
sg264
g267
sg28
I13
sg7
g298
sbag0
(g258
g2
Ntp780
Rp781
(dp782
g262
g300
sg264
g267
sg28
I14
sg7
g300
sbag0
(g258
g2
Ntp783
Rp784
(dp785
g262
g302
sg264
g267
sg28
I15
sg7
g302
sbag0
(g258
g2
Ntp786
Rp787
(dp788
g262
g304
sg264
g267
sg28
I16
sg7
g304
sbag0
(g258
g2
Ntp789
Rp790
(dp791
g262
g306
sg264
g267
sg28
I17
sg7
g306
sbag0
(g258
g2
Ntp792
Rp793
(dp794
g262
g308
sg264
g267
sg28
I18
sg7
g308
sbag0
(g258
g2
Ntp795
Rp796
(dp797
g262
g310
sg264
g267
sg28
I19
sg7
g310
sbag0
(g258
g2
Ntp798
Rp799
(dp800
g262
g312
sg264
g267
sg28
I20
sg7
g312
sbag0
(g258
g2
Ntp801
Rp802
(dp803
g262
g314
sg264
g267
sg28
I21
sg7
g314
sbag0
(g258
g2
Ntp804
Rp805
(dp806
g262
g316
sg264
g267
sg28
I22
sg7
g316
sbag0
(g258
g2
Ntp807
Rp808
(dp809
g262
g318
sg264
g267
sg28
I23
sg7
g318
sbag0
(g258
g2
Ntp810
Rp811
(dp812
g262
g320
sg264
g267
sg28
I24
sg7
g320
sbag0
(g258
g2
Ntp813
Rp814
(dp815
g262
g322
sg264
g267
sg28
I25
sg7
g322
sbag0
(g258
g2
Ntp816
Rp817
(dp818
g262
g324
sg264
g267
sg28
I26
sg7
g324
sbag0
(g258
g2
Ntp819
Rp820
(dp821
g262
g326
sg264
g267
sg28
I27
sg7
g326
sbag0
(g258
g2
Ntp822
Rp823
(dp824
g262
g328
sg264
g267
sg28
I28
sg7
g328
sbag0
(g258
g2
Ntp825
Rp826
(dp827
g262
g330
sg264
g267
sg28
I29
sg7
g330
sbag0
(g258
g2
Ntp828
Rp829
(dp830
g262
g332
sg264
g267
sg28
I30
sg7
g332
sbag0
(g258
g2
Ntp831
Rp832
(dp833
g262
g334
sg264
g267
sg28
I31
sg7
g334
sbag0
(g258
g2
Ntp834
Rp835
(dp836
g262
g336
sg264
g267
sg28
I32
sg7
g336
sbag0
(g258
g2
Ntp837
Rp838
(dp839
g262
g338
sg264
g267
sg28
I33
sg7
g338
sbag0
(g258
g2
Ntp840
Rp841
(dp842
g262
g340
sg264
g267
sg28
I34
sg7
g340
sbag0
(g258
g2
Ntp843
Rp844
(dp845
g262
g342
sg264
g267
sg28
I35
sg7
g342
sbag0
(g258
g2
Ntp846
Rp847
(dp848
g262
g344
sg264
g267
sg28
I36
sg7
g344
sbag0
(g258
g2
Ntp849
Rp850
(dp851
g262
g346
sg264
g267
sg28
I37
sg7
g346
sbag0
(g258
g2
Ntp852
Rp853
(dp854
g262
g348
sg264
g267
sg28
I38
sg7
g348
sbag0
(g258
g2
Ntp855
Rp856
(dp857
g262
g350
sg264
g267
sg28
I39
sg7
g350
sbag0
(g258
g2
Ntp858
Rp859
(dp860
g262
g352
sg264
g267
sg28
I40
sg7
g352
sbag0
(g258
g2
Ntp861
Rp862
(dp863
g262
g354
sg264
g267
sg28
I41
sg7
g354
sbag0
(g258
g2
Ntp864
Rp865
(dp866
g262
g356
sg264
g267
sg28
I42
sg7
g356
sbag0
(g258
g2
Ntp867
Rp868
(dp869
g262
g358
sg264
g267
sg28
I43
sg7
g358
sbag0
(g258
g2
Ntp870
Rp871
(dp872
g262
g360
sg264
g267
sg28
I44
sg7
g360
sbag0
(g258
g2
Ntp873
Rp874
(dp875
g262
g362
sg264
g267
sg28
I45
sg7
g362
sbag0
(g258
g2
Ntp876
Rp877
(dp878
g262
g364
sg264
g267
sg28
I46
sg7
g364
sbag0
(g258
g2
Ntp879
Rp880
(dp881
g262
g366
sg264
g267
sg28
I47
sg7
g366
sbag0
(g258
g2
Ntp882
Rp883
(dp884
g262
g368
sg264
g267
sg28
I48
sg7
g368
sbag0
(g258
g2
Ntp885
Rp886
(dp887
g262
g370
sg264
g267
sg28
I49
sg7
g370
sbag0
(g258
g2
Ntp888
Rp889
(dp890
g262
g372
sg264
g267
sg28
I50
sg7
g372
sbag0
(g258
g2
Ntp891
Rp892
(dp893
g262
g374
sg264
g267
sg28
I51
sg7
g374
sbag0
(g258
g2
Ntp894
Rp895
(dp896
g262
g376
sg264
g267
sg28
I52
sg7
g376
sbag0
(g258
g2
Ntp897
Rp898
(dp899
g262
g378
sg264
g267
sg28
I53
sg7
g378
sbag260
ag0
(g258
g2
Ntp900
Rp901
(dp902
g262
g381
sg264
g267
sg28
I55
sg7
g381
sbag0
(g258
g2
Ntp903
Rp904
(dp905
g262
g383
sg264
g267
sg28
I56
sg7
g383
sbag0
(g258
g2
Ntp906
Rp907
(dp908
g262
g385
sg264
g267
sg28
I57
sg7
g385
sbag0
(g258
g2
Ntp909
Rp910
(dp911
g262
g387
sg264
g267
sg28
I58
sg7
g387
sbag0
(g258
g2
Ntp912
Rp913
(dp914
g262
g389
sg264
g267
sg28
I59
sg7
g389
sbag0
(g258
g2
Ntp915
Rp916
(dp917
g262
g391
sg264
g267
sg28
I60
sg7
g391
sbag0
(g258
g2
Ntp918
Rp919
(dp920
g262
g393
sg264
g267
sg28
I61
sg7
g393
sbag0
(g258
g2
Ntp921
Rp922
(dp923
g262
g395
sg264
g267
sg28
I62
sg7
g395
sbag0
(g258
g2
Ntp924
Rp925
(dp926
g262
g397
sg264
g267
sg28
I63
sg7
g397
sbag0
(g258
g2
Ntp927
Rp928
(dp929
g262
g399
sg264
g267
sg28
I64
sg7
g399
sbag0
(g258
g2
Ntp930
Rp931
(dp932
g262
g401
sg264
g267
sg28
I65
sg7
g401
sbag0
(g258
g2
Ntp933
Rp934
(dp935
g262
g403
sg264
g267
sg28
I66
sg7
g403
sbag0
(g258
g2
Ntp936
Rp937
(dp938
g262
g405
sg264
g267
sg28
I67
sg7
g405
sbag0
(g258
g2
Ntp939
Rp940
(dp941
g262
g407
sg264
g267
sg28
I68
sg7
g407
sbag0
(g258
g2
Ntp942
Rp943
(dp944
g262
g409
sg264
g267
sg28
I69
sg7
g409
sbag0
(g258
g2
Ntp945
Rp946
(dp947
g262
g411
sg264
g267
sg28
I70
sg7
g411
sbag0
(g258
g2
Ntp948
Rp949
(dp950
g262
g413
sg264
g267
sg28
I71
sg7
g413
sbag0
(g258
g2
Ntp951
Rp952
(dp953
g262
g415
sg264
g267
sg28
I72
sg7
g415
sbag0
(g258
g2
Ntp954
Rp955
(dp956
g262
g417
sg264
g267
sg28
I73
sg7
g417
sbag0
(g258
g2
Ntp957
Rp958
(dp959
g262
g419
sg264
g267
sg28
I74
sg7
g419
sbag0
(g258
g2
Ntp960
Rp961
(dp962
g262
g421
sg264
g267
sg28
I75
sg7
g421
sbag0
(g258
g2
Ntp963
Rp964
(dp965
g262
g423
sg264
g267
sg28
I76
sg7
g423
sbag0
(g258
g2
Ntp966
Rp967
(dp968
g262
g425
sg264
g267
sg28
I77
sg7
g425
sbag0
(g258
g2
Ntp969
Rp970
(dp971
g262
g427
sg264
g267
sg28
I78
sg7
g427
sbag0
(g258
g2
Ntp972
Rp973
(dp974
g262
g429
sg264
g267
sg28
I79
sg7
g429
sbag0
(g258
g2
Ntp975
Rp976
(dp977
g262
g431
sg264
g267
sg28
I80
sg7
g431
sbag0
(g258
g2
Ntp978
Rp979
(dp980
g262
g433
sg264
g267
sg28
I81
sg7
g433
sbag0
(g258
g2
Ntp981
Rp982
(dp983
g262
g435
sg264
g267
sg28
I82
sg7
g435
sbag0
(g258
g2
Ntp984
Rp985
(dp986
g262
g437
sg264
g267
sg28
I83
sg7
g437
sbag0
(g258
g2
Ntp987
Rp988
(dp989
g262
g439
sg264
g267
sg28
I84
sg7
g439
sbag0
(g258
g2
Ntp990
Rp991
(dp992
g262
g441
sg264
g267
sg28
I85
sg7
g441
sbag0
(g258
g2
Ntp993
Rp994
(dp995
g262
g443
sg264
g267
sg28
I86
sg7
g443
sbag0
(g258
g2
Ntp996
Rp997
(dp998
g262
g445
sg264
g267
sg28
I87
sg7
g445
sbag0
(g258
g2
Ntp999
Rp1000
(dp1001
g262
g447
sg264
g267
sg28
I88
sg7
g447
sbag0
(g258
g2
Ntp1002
Rp1003
(dp1004
g262
g449
sg264
g267
sg28
I89
sg7
g449
sbag0
(g258
g2
Ntp1005
Rp1006
(dp1007
g262
g451
sg264
g267
sg28
I90
sg7
g451
sbag0
(g258
g2
Ntp1008
Rp1009
(dp1010
g262
g453
sg264
g267
sg28
I91
sg7
g453
sbasS'edges'
p1011
(lp1012
g0
(cconcept
SEM_REL
p1013
g2
Ntp1014
Rp1015
(dp1016
S'pTo'
p1017
g745
sg26
g459
sS'pFrom'
p1018
g748
sbag0
(g1013
g2
Ntp1019
Rp1020
(dp1021
g1017
g748
sg26
g459
sg1018
g751
sbag0
(g1013
g2
Ntp1022
Rp1023
(dp1024
g1017
g751
sg26
g459
sg1018
g754
sbag0
(g1013
g2
Ntp1025
Rp1026
(dp1027
g1017
g751
sg26
g459
sg1018
g757
sbag0
(g1013
g2
Ntp1028
Rp1029
(dp1030
g1017
g748
sg26
g459
sg1018
g760
sbag0
(g1013
g2
Ntp1031
Rp1032
(dp1033
g1017
g760
sg26
g459
sg1018
g763
sbag0
(g1013
g2
Ntp1034
Rp1035
(dp1036
g1017
g748
sg26
g459
sg1018
g766
sbag0
(g1013
g2
Ntp1037
Rp1038
(dp1039
g1017
g766
sg26
g459
sg1018
g769
sbag0
(g1013
g2
Ntp1040
Rp1041
(dp1042
g1017
g766
sg26
g459
sg1018
g772
sbag0
(g1013
g2
Ntp1043
Rp1044
(dp1045
g1017
g766
sg26
g459
sg1018
g775
sbag0
(g1013
g2
Ntp1046
Rp1047
(dp1048
g1017
g766
sg26
g459
sg1018
g778
sbag0
(g1013
g2
Ntp1049
Rp1050
(dp1051
g1017
g766
sg26
g459
sg1018
g781
sbag0
(g1013
g2
Ntp1052
Rp1053
(dp1054
g1017
g766
sg26
g459
sg1018
g784
sbag0
(g1013
g2
Ntp1055
Rp1056
(dp1057
g1017
g766
sg26
g459
sg1018
g787
sbag0
(g1013
g2
Ntp1058
Rp1059
(dp1060
g1017
g766
sg26
g459
sg1018
g790
sbag0
(g1013
g2
Ntp1061
Rp1062
(dp1063
g1017
g766
sg26
g459
sg1018
g793
sbag0
(g1013
g2
Ntp1064
Rp1065
(dp1066
g1017
g748
sg26
g459
sg1018
g796
sbag0
(g1013
g2
Ntp1067
Rp1068
(dp1069
g1017
g796
sg26
g459
sg1018
g799
sbag0
(g1013
g2
Ntp1070
Rp1071
(dp1072
g1017
g796
sg26
g459
sg1018
g802
sbag0
(g1013
g2
Ntp1073
Rp1074
(dp1075
g1017
g745
sg26
g459
sg1018
g805
sbag0
(g1013
g2
Ntp1076
Rp1077
(dp1078
g1017
g805
sg26
g459
sg1018
g808
sbag0
(g1013
g2
Ntp1079
Rp1080
(dp1081
g1017
g808
sg26
g459
sg1018
g811
sbag0
(g1013
g2
Ntp1082
Rp1083
(dp1084
g1017
g808
sg26
g459
sg1018
g814
sbag0
(g1013
g2
Ntp1085
Rp1086
(dp1087
g1017
g808
sg26
g459
sg1018
g817
sbag0
(g1013
g2
Ntp1088
Rp1089
(dp1090
g1017
g808
sg26
g459
sg1018
g820
sbag0
(g1013
g2
Ntp1091
Rp1092
(dp1093
g1017
g808
sg26
g459
sg1018
g823
sbag0
(g1013
g2
Ntp1094
Rp1095
(dp1096
g1017
g805
sg26
g459
sg1018
g826
sbag0
(g1013
g2
Ntp1097
Rp1098
(dp1099
g1017
g826
sg26
g459
sg1018
g829
sbag0
(g1013
g2
Ntp1100
Rp1101
(dp1102
g1017
g826
sg26
g459
sg1018
g832
sbag0
(g1013
g2
Ntp1103
Rp1104
(dp1105
g1017
g826
sg26
g459
sg1018
g835
sbag0
(g1013
g2
Ntp1106
Rp1107
(dp1108
g1017
g805
sg26
g459
sg1018
g838
sbag0
(g1013
g2
Ntp1109
Rp1110
(dp1111
g1017
g838
sg26
g459
sg1018
g841
sbag0
(g1013
g2
Ntp1112
Rp1113
(dp1114
g1017
g838
sg26
g459
sg1018
g844
sbag0
(g1013
g2
Ntp1115
Rp1116
(dp1117
g1017
g745
sg26
g459
sg1018
g847
sbag0
(g1013
g2
Ntp1118
Rp1119
(dp1120
g1017
g847
sg26
g459
sg1018
g850
sbag0
(g1013
g2
Ntp1121
Rp1122
(dp1123
g1017
g850
sg26
g459
sg1018
g853
sbag0
(g1013
g2
Ntp1124
Rp1125
(dp1126
g1017
g850
sg26
g459
sg1018
g856
sbag0
(g1013
g2
Ntp1127
Rp1128
(dp1129
g1017
g850
sg26
g459
sg1018
g859
sbag0
(g1013
g2
Ntp1130
Rp1131
(dp1132
g1017
g850
sg26
g459
sg1018
g862
sbag0
(g1013
g2
Ntp1133
Rp1134
(dp1135
g1017
g850
sg26
g459
sg1018
g865
sbag0
(g1013
g2
Ntp1136
Rp1137
(dp1138
g1017
g865
sg26
g459
sg1018
g868
sbag0
(g1013
g2
Ntp1139
Rp1140
(dp1141
g1017
g868
sg26
g459
sg1018
g871
sbag0
(g1013
g2
Ntp1142
Rp1143
(dp1144
g1017
g865
sg26
g459
sg1018
g874
sbag0
(g1013
g2
Ntp1145
Rp1146
(dp1147
g1017
g874
sg26
g459
sg1018
g871
sbag0
(g1013
g2
Ntp1148
Rp1149
(dp1150
g1017
g847
sg26
g459
sg1018
g877
sbag0
(g1013
g2
Ntp1151
Rp1152
(dp1153
g1017
g877
sg26
g459
sg1018
g880
sbag0
(g1013
g2
Ntp1154
Rp1155
(dp1156
g1017
g880
sg26
g459
sg1018
g883
sbag0
(g1013
g2
Ntp1157
Rp1158
(dp1159
g1017
g880
sg26
g459
sg1018
g886
sbag0
(g1013
g2
Ntp1160
Rp1161
(dp1162
g1017
g877
sg26
g459
sg1018
g889
sbag0
(g1013
g2
Ntp1163
Rp1164
(dp1165
g1017
g889
sg26
g459
sg1018
g892
sbag0
(g1013
g2
Ntp1166
Rp1167
(dp1168
g1017
g847
sg26
g459
sg1018
g895
sbag0
(g1013
g2
Ntp1169
Rp1170
(dp1171
g1017
g847
sg26
g459
sg1018
g898
sbag0
(g1013
g2
Ntp1172
Rp1173
(dp1174
g1017
g898
sg26
g459
sg1018
g853
sbag0
(g1013
g2
Ntp1175
Rp1176
(dp1177
g1017
g898
sg26
g459
sg1018
g862
sbag0
(g1013
g2
Ntp1178
Rp1179
(dp1180
g1017
g745
sg26
g459
sg1018
g260
sbag0
(g1013
g2
Ntp1181
Rp1182
(dp1183
g1017
g745
sg26
g459
sg1018
g901
sbag0
(g1013
g2
Ntp1184
Rp1185
(dp1186
g1017
g901
sg26
g459
sg1018
g904
sbag0
(g1013
g2
Ntp1187
Rp1188
(dp1189
g1017
g904
sg26
g459
sg1018
g907
sbag0
(g1013
g2
Ntp1190
Rp1191
(dp1192
g1017
g904
sg26
g459
sg1018
g910
sbag0
(g1013
g2
Ntp1193
Rp1194
(dp1195
g1017
g901
sg26
g459
sg1018
g913
sbag0
(g1013
g2
Ntp1196
Rp1197
(dp1198
g1017
g913
sg26
g459
sg1018
g916
sbag0
(g1013
g2
Ntp1199
Rp1200
(dp1201
g1017
g916
sg26
g459
sg1018
g919
sbag0
(g1013
g2
Ntp1202
Rp1203
(dp1204
g1017
g916
sg26
g459
sg1018
g922
sbag0
(g1013
g2
Ntp1205
Rp1206
(dp1207
g1017
g916
sg26
g459
sg1018
g925
sbag0
(g1013
g2
Ntp1208
Rp1209
(dp1210
g1017
g916
sg26
g459
sg1018
g928
sbag0
(g1013
g2
Ntp1211
Rp1212
(dp1213
g1017
g916
sg26
g459
sg1018
g931
sbag0
(g1013
g2
Ntp1214
Rp1215
(dp1216
g1017
g916
sg26
g459
sg1018
g934
sbag0
(g1013
g2
Ntp1217
Rp1218
(dp1219
g1017
g916
sg26
g459
sg1018
g937
sbag0
(g1013
g2
Ntp1220
Rp1221
(dp1222
g1017
g916
sg26
g459
sg1018
g940
sbag0
(g1013
g2
Ntp1223
Rp1224
(dp1225
g1017
g940
sg26
g459
sg1018
g943
sbag0
(g1013
g2
Ntp1226
Rp1227
(dp1228
g1017
g940
sg26
g459
sg1018
g946
sbag0
(g1013
g2
Ntp1229
Rp1230
(dp1231
g1017
g940
sg26
g459
sg1018
g949
sbag0
(g1013
g2
Ntp1232
Rp1233
(dp1234
g1017
g940
sg26
g459
sg1018
g952
sbag0
(g1013
g2
Ntp1235
Rp1236
(dp1237
g1017
g913
sg26
g459
sg1018
g907
sbag0
(g1013
g2
Ntp1238
Rp1239
(dp1240
g1017
g907
sg26
g459
sg1018
g955
sbag0
(g1013
g2
Ntp1241
Rp1242
(dp1243
g1017
g907
sg26
g459
sg1018
g958
sbag0
(g1013
g2
Ntp1244
Rp1245
(dp1246
g1017
g907
sg26
g459
sg1018
g961
sbag0
(g1013
g2
Ntp1247
Rp1248
(dp1249
g1017
g913
sg26
g459
sg1018
g910
sbag0
(g1013
g2
Ntp1250
Rp1251
(dp1252
g1017
g910
sg26
g459
sg1018
g964
sbag0
(g1013
g2
Ntp1253
Rp1254
(dp1255
g1017
g910
sg26
g459
sg1018
g967
sbag0
(g1013
g2
Ntp1256
Rp1257
(dp1258
g1017
g910
sg26
g459
sg1018
g970
sbag0
(g1013
g2
Ntp1259
Rp1260
(dp1261
g1017
g910
sg26
g459
sg1018
g973
sbag0
(g1013
g2
Ntp1262
Rp1263
(dp1264
g1017
g910
sg26
g459
sg1018
g976
sbag0
(g1013
g2
Ntp1265
Rp1266
(dp1267
g1017
g910
sg26
g459
sg1018
g979
sbag0
(g1013
g2
Ntp1268
Rp1269
(dp1270
g1017
g910
sg26
g459
sg1018
g982
sbag0
(g1013
g2
Ntp1271
Rp1272
(dp1273
g1017
g910
sg26
g459
sg1018
g985
sbag0
(g1013
g2
Ntp1274
Rp1275
(dp1276
g1017
g910
sg26
g459
sg1018
g988
sbag0
(g1013
g2
Ntp1277
Rp1278
(dp1279
g1017
g910
sg26
g459
sg1018
g991
sbag0
(g1013
g2
Ntp1280
Rp1281
(dp1282
g1017
g910
sg26
g459
sg1018
g994
sbag0
(g1013
g2
Ntp1283
Rp1284
(dp1285
g1017
g901
sg26
g459
sg1018
g997
sbag0
(g1013
g2
Ntp1286
Rp1287
(dp1288
g1017
g997
sg26
g459
sg1018
g1000
sbag0
(g1013
g2
Ntp1289
Rp1290
(dp1291
g1017
g997
sg26
g459
sg1018
g1003
sbag0
(g1013
g2
Ntp1292
Rp1293
(dp1294
g1017
g901
sg26
g459
sg1018
g1006
sbag0
(g1013
g2
Ntp1295
Rp1296
(dp1297
g1017
g1006
sg26
g459
sg1018
g964
sbag0
(g1013
g2
Ntp1298
Rp1299
(dp1300
g1017
g1006
sg26
g459
sg1018
g994
sbag0
(g1013
g2
Ntp1301
Rp1302
(dp1303
g1017
g901
sg26
g459
sg1018
g1009
sbag0
(g1013
g2
Ntp1304
Rp1305
(dp1306
g1017
g1009
sg26
g459
sg1018
g979
sbag0
(g1013
g2
Ntp1307
Rp1308
(dp1309
g1017
g1009
sg26
g459
sg1018
g985
sbag0
(g1013
g2
Ntp1310
Rp1311
(dp1312
g1017
g1009
sg26
g459
sg1018
g967
sbasS'neutral'
p1313
g742
sbsg28
I54
sg7
g263
sbsg7
g239
sS'frame'
p1314
I00
sS'focus'
p1315
I01
sg28
I4
sb(dp1316
g1314
I00
sg257
g260
ss(iconstruction
TP_NODE
p1317
(dp1318
g256
I00
sg257
g260
sg7
g241
sg1314
I00
sg1315
I00
sg28
I5
sb(dp1319
g1314
I00
sg257
g260
sssg138
g139
sg140
g139
sg141
(dp1320
g254
(dp1321
sg1317
(dp1322
ssg143
g1320
sg144
(dp1323
sg146
g139
sg147
g1320
sg148
(dp1324
g254
(dp1325
sg1317
(dp1326
ssbsg739
(lp1327
g254
ag1317
asg1011
(lp1328
sg28
I1
sg7
g162
sbsS'SynForm'
p1329
(iconstruction
TP_SYNFORM
p1330
(dp1331
g28
I2
sS'form'
p1332
(lp1333
(iconstruction
TP_SLOT
p1334
(dp1335
S'cxn_classes'
p1336
(lp1337
VS
p1338
asS'order'
p1339
I0
sg28
I6
sg7
g240
sba(iconstruction
TP_PHON
p1340
(dp1341
S'num_syllables'
p1342
I3
sg1339
I1
sg28
I7
sS'cxn_phonetics'
p1343
Vand
p1344
sg7
VS2_7
p1345
sba(iconstruction
TP_SLOT
p1346
(dp1347
g1336
(lp1348
VS
p1349
asg1339
I2
sg28
I8
sg7
g242
sbasg7
g162
sbsS'preference'
p1350
I1
sba(iconstruction
CXN
p1351
(dp1352
g234
(iconstruction
TP_SYMLINKS
p1353
(dp1354
g237
(dp1355
VEVT2_13
p1356
VS3_17
p1357
sVEVT1_12
p1358
VS1_15
p1359
ssg28
I11
sg7
g162
sbsg243
VD
p1360
sg245
I3
sg7
VCNJ_THEN
p1361
sg247
(iconstruction
TP_SEMFRAME
p1362
(dp1363
g144
g0
(g132
g2
Ntp1364
Rp1365
(dp1366
g136
(dp1367
(iconstruction
TP_NODE
p1368
(dp1369
g256
I00
sg257
g260
sg7
g1358
sg1314
I00
sg1315
I00
sg28
I12
sb(dp1370
g1314
I00
sg257
g260
ss(iconstruction
TP_NODE
p1371
(dp1372
g256
I00
sg257
g260
sg7
g1356
sg1314
I00
sg1315
I00
sg28
I13
sb(dp1373
g1314
I00
sg257
g260
sssg138
g139
sg140
g139
sg141
(dp1374
g1368
(dp1375
g1371
(dp1376
g257
g886
sssg1371
(dp1377
ssg143
g1374
sg144
(dp1378
sg146
g139
sg147
g1374
sg148
(dp1379
g1368
(dp1380
sg1371
(dp1381
g1368
g1376
sssbsg739
(lp1382
g1368
ag1371
asg1011
(lp1383
(iconstruction
TP_REL
p1384
(dp1385
g1017
g1371
sg257
g886
sg28
I14
sg1018
g1368
sg7
VEVT1_EVT2_14
p1386
sbasg28
I9
sg7
g162
sbsg1329
(iconstruction
TP_SYNFORM
p1387
(dp1388
g28
I10
sg1332
(lp1389
(iconstruction
TP_SLOT
p1390
(dp1391
g1336
(lp1392
VS
p1393
asg1339
I0
sg28
I15
sg7
g1359
sba(iconstruction
TP_PHON
p1394
(dp1395
g1342
I4
sg1339
I1
sg28
I16
sg1343
Vthen
p1396
sg7
VS2_16
p1397
sba(iconstruction
TP_SLOT
p1398
(dp1399
g1336
(lp1400
VS
p1401
asg1339
I2
sg28
I17
sg7
g1357
sbasg7
g162
sbsg1350
I1
sba(iconstruction
CXN
p1402
(dp1403
g234
(iconstruction
TP_SYMLINKS
p1404
(dp1405
g237
(dp1406
VEVT2_22
p1407
VS3_26
p1408
sVEVT1_21
p1409
VS1_24
p1410
ssg28
I20
sg7
g162
sbsg243
VD
p1411
sg245
I3
sg7
VCNJ_WHILE
p1412
sg247
(iconstruction
TP_SEMFRAME
p1413
(dp1414
g144
g0
(g132
g2
Ntp1415
Rp1416
(dp1417
g136
(dp1418
(iconstruction
TP_NODE
p1419
(dp1420
g256
I00
sg257
g260
sg7
g1407
sg1314
I00
sg1315
I00
sg28
I22
sb(dp1421
g1314
I00
sg257
g260
ss(iconstruction
TP_NODE
p1422
(dp1423
g256
I00
sg257
g260
sg7
g1409
sg1314
I00
sg1315
I01
sg28
I21
sb(dp1424
g1314
I00
sg257
g260
sssg138
g139
sg140
g139
sg141
(dp1425
g1419
(dp1426
sg1422
(dp1427
g1419
(dp1428
g257
g883
ssssg143
g1425
sg144
(dp1429
sg146
g139
sg147
g1425
sg148
(dp1430
g1419
(dp1431
g1422
g1428
ssg1422
(dp1432
ssbsg739
(lp1433
g1422
ag1419
asg1011
(lp1434
(iconstruction
TP_REL
p1435
(dp1436
g1017
g1419
sg257
g883
sg28
I23
sg1018
g1422
sg7
VEVT1_EVT2_23
p1437
sbasg28
I18
sg7
g162
sbsg1329
(iconstruction
TP_SYNFORM
p1438
(dp1439
g28
I19
sg1332
(lp1440
(iconstruction
TP_SLOT
p1441
(dp1442
g1336
(lp1443
VS
p1444
asg1339
I0
sg28
I24
sg7
g1410
sba(iconstruction
TP_PHON
p1445
(dp1446
g1342
I5
sg1339
I1
sg28
I25
sg1343
Vwhile
p1447
sg7
VS2_25
p1448
sba(iconstruction
TP_SLOT
p1449
(dp1450
g1336
(lp1451
VS
p1452
asg1339
I2
sg28
I26
sg7
g1408
sbasg7
g162
sbsg1350
I1
sba(iconstruction
CXN
p1453
(dp1454
g234
(iconstruction
TP_SYMLINKS
p1455
(dp1456
g237
(dp1457
VACT_31
p1458
VS4_40
p1459
sVACTOR_1_32
p1460
VS1_37
p1461
sVACTOR_2_33
p1462
VS3_39
p1463
ssg28
I29
sg7
g162
sbsg243
VS
p1464
sg245
Nsg7
VSYMMETRIC_TRANS
p1465
sg247
(iconstruction
TP_SEMFRAME
p1466
(dp1467
g144
g0
(g132
g2
Ntp1468
Rp1469
(dp1470
g136
(dp1471
(iconstruction
TP_NODE
p1472
(dp1473
g256
I01
sg257
g260
sg7
VEVT_30
p1474
sg1314
I01
sg1315
I00
sg28
I30
sb(dp1475
g1314
I01
sg257
g260
ss(iconstruction
TP_NODE
p1476
(dp1477
g256
I00
sg257
g901
sg7
g1460
sg1314
I01
sg1315
I01
sg28
I32
sb(dp1478
g1314
I01
sg257
g901
ss(iconstruction
TP_NODE
p1479
(dp1480
g256
I00
sg257
g901
sg7
g1462
sg1314
I01
sg1315
I00
sg28
I33
sb(dp1481
g1314
I01
sg257
g901
ss(iconstruction
TP_NODE
p1482
(dp1483
g256
I00
sg257
g748
sg7
g1458
sg1314
I01
sg1315
I00
sg28
I31
sb(dp1484
g1314
I01
sg257
g748
sssg138
g139
sg140
g139
sg141
(dp1485
g1472
(dp1486
g1482
(dp1487
g257
g895
sssg1476
(dp1488
sg1479
(dp1489
sg1482
(dp1490
g1476
(dp1491
g257
g871
ssg1479
(dp1492
g257
g871
ssssg143
g1485
sg144
(dp1493
sg146
g139
sg147
g1485
sg148
(dp1494
g1472
(dp1495
sg1476
(dp1496
g1482
g1491
ssg1479
(dp1497
g1482
g1492
ssg1482
(dp1498
g1472
g1487
sssbsg739
(lp1499
g1472
ag1482
ag1476
ag1479
asg1011
(lp1500
(iconstruction
TP_REL
p1501
(dp1502
g1017
g1482
sg257
g895
sg28
I34
sg1018
g1472
sg7
VIS_34
p1503
sba(iconstruction
TP_REL
p1504
(dp1505
g1017
g1476
sg257
g871
sg28
I35
sg1018
g1482
sg7
VAGT_PT_1_35
p1506
sba(iconstruction
TP_REL
p1507
(dp1508
g1017
g1479
sg257
g871
sg28
I36
sg1018
g1482
sg7
VAGT_PT_2_36
p1509
sbasg28
I27
sg7
g162
sbsg1329
(iconstruction
TP_SYNFORM
p1510
(dp1511
g28
I28
sg1332
(lp1512
(iconstruction
TP_SLOT
p1513
(dp1514
g1336
(lp1515
VNP
p1516
aVN
p1517
asg1339
I0
sg28
I37
sg7
g1461
sba(iconstruction
TP_PHON
p1518
(dp1519
g1342
I3
sg1339
I1
sg28
I38
sg1343
Vand
p1520
sg7
VS2_38
p1521
sba(iconstruction
TP_SLOT
p1522
(dp1523
g1336
(lp1524
VNP
p1525
aVN
p1526
asg1339
I2
sg28
I39
sg7
g1463
sba(iconstruction
TP_SLOT
p1527
(dp1528
g1336
(lp1529
VVP
p1530
aVV
p1531
asg1339
I3
sg28
I40
sg7
g1459
sbasg7
g162
sbsg1350
I1
sba(iconstruction
CXN
p1532
(dp1533
g234
(iconstruction
TP_SYMLINKS
p1534
(dp1535
g237
(dp1536
VAGT_46
p1537
VS1_51
p1538
sVACT_45
p1539
VS2_52
p1540
sVPT_47
p1541
VS3_53
p1542
ssg28
I43
sg7
g162
sbsg243
VS
p1543
sg245
I2
sg7
VSVO
p1544
sg247
(iconstruction
TP_SEMFRAME
p1545
(dp1546
g144
g0
(g132
g2
Ntp1547
Rp1548
(dp1549
g136
(dp1550
(iconstruction
TP_NODE
p1551
(dp1552
g256
I01
sg257
g260
sg7
VEVT_44
p1553
sg1314
I01
sg1315
I00
sg28
I44
sb(dp1554
g1314
I01
sg257
g260
ss(iconstruction
TP_NODE
p1555
(dp1556
g256
I00
sg257
g901
sg7
g1537
sg1314
I01
sg1315
I01
sg28
I46
sb(dp1557
g1314
I01
sg257
g901
ss(iconstruction
TP_NODE
p1558
(dp1559
g256
I00
sg257
g748
sg7
g1539
sg1314
I01
sg1315
I00
sg28
I45
sb(dp1560
g1314
I01
sg257
g748
ss(iconstruction
TP_NODE
p1561
(dp1562
g256
I00
sg257
g901
sg7
g1541
sg1314
I01
sg1315
I00
sg28
I47
sb(dp1563
g1314
I01
sg257
g901
sssg138
g139
sg140
g139
sg141
(dp1564
g1551
(dp1565
g1558
(dp1566
g257
g895
sssg1555
(dp1567
sg1558
(dp1568
g1555
(dp1569
g257
g874
ssg1561
(dp1570
g257
g868
sssg1561
(dp1571
ssg143
g1564
sg144
(dp1572
sg146
g139
sg147
g1564
sg148
(dp1573
g1551
(dp1574
sg1555
(dp1575
g1558
g1569
ssg1558
(dp1576
g1551
g1566
ssg1561
(dp1577
g1558
g1570
sssbsg739
(lp1578
g1551
ag1558
ag1555
ag1561
asg1011
(lp1579
(iconstruction
TP_REL
p1580
(dp1581
g1017
g1558
sg257
g895
sg28
I48
sg1018
g1551
sg7
VIS_48
p1582
sba(iconstruction
TP_REL
p1583
(dp1584
g1017
g1555
sg257
g874
sg28
I49
sg1018
g1558
sg7
VACT_AGT_49
p1585
sba(iconstruction
TP_REL
p1586
(dp1587
g1017
g1561
sg257
g868
sg28
I50
sg1018
g1558
sg7
VACT_PT_50
p1588
sbasg28
I41
sg7
g162
sbsg1329
(iconstruction
TP_SYNFORM
p1589
(dp1590
g28
I42
sg1332
(lp1591
(iconstruction
TP_SLOT
p1592
(dp1593
g1336
(lp1594
VNP
p1595
aVN
p1596
asg1339
I0
sg28
I51
sg7
g1538
sba(iconstruction
TP_SLOT
p1597
(dp1598
g1336
(lp1599
VVP
p1600
aVV
p1601
asg1339
I1
sg28
I52
sg7
g1540
sba(iconstruction
TP_SLOT
p1602
(dp1603
g1336
(lp1604
VNP
p1605
aVN
p1606
asg1339
I2
sg28
I53
sg7
g1542
sbasg7
g162
sbsg1350
I1
sba(iconstruction
CXN
p1607
(dp1608
g234
(iconstruction
TP_SYMLINKS
p1609
(dp1610
g237
(dp1611
VTHEME_60
p1612
VS4_69
p1613
sVRCPT_61
p1614
VS3_68
p1615
sVACT_58
p1616
VS2_67
p1617
sVAGT_59
p1618
VS1_66
p1619
ssg28
I56
sg7
g162
sbsg243
VS
p1620
sg245
I2
sg7
VDOUBLE_OBJ
p1621
sg247
(iconstruction
TP_SEMFRAME
p1622
(dp1623
g144
g0
(g132
g2
Ntp1624
Rp1625
(dp1626
g136
(dp1627
(iconstruction
TP_NODE
p1628
(dp1629
g256
I01
sg257
g260
sg7
VEVT_57
p1630
sg1314
I01
sg1315
I00
sg28
I57
sb(dp1631
g1314
I01
sg257
g260
ss(iconstruction
TP_NODE
p1632
(dp1633
g256
I00
sg257
g901
sg7
g1618
sg1314
I01
sg1315
I01
sg28
I59
sb(dp1634
g1314
I01
sg257
g901
ss(iconstruction
TP_NODE
p1635
(dp1636
g256
I00
sg257
g901
sg7
g1612
sg1314
I01
sg1315
I00
sg28
I60
sb(dp1637
g1314
I01
sg257
g901
ss(iconstruction
TP_NODE
p1638
(dp1639
g256
I00
sg257
g748
sg7
g1616
sg1314
I01
sg1315
I00
sg28
I58
sb(dp1640
g1314
I01
sg257
g748
ss(iconstruction
TP_NODE
p1641
(dp1642
g256
I00
sg257
g901
sg7
g1614
sg1314
I01
sg1315
I00
sg28
I61
sb(dp1643
g1314
I01
sg257
g901
sssg138
g139
sg140
g139
sg141
(dp1644
g1628
(dp1645
g1638
(dp1646
g257
g895
sssg1632
(dp1647
sg1635
(dp1648
sg1638
(dp1649
g1632
(dp1650
g257
g874
ssg1641
(dp1651
g257
g859
ssg1635
(dp1652
g257
g856
sssg1641
(dp1653
ssg143
g1644
sg144
(dp1654
sg146
g139
sg147
g1644
sg148
(dp1655
g1628
(dp1656
sg1632
(dp1657
g1638
g1650
ssg1635
(dp1658
g1638
g1652
ssg1638
(dp1659
g1628
g1646
ssg1641
(dp1660
g1638
g1651
sssbsg739
(lp1661
g1628
ag1638
ag1632
ag1635
ag1641
asg1011
(lp1662
(iconstruction
TP_REL
p1663
(dp1664
g1017
g1638
sg257
g895
sg28
I62
sg1018
g1628
sg7
VIS_62
p1665
sba(iconstruction
TP_REL
p1666
(dp1667
g1017
g1632
sg257
g874
sg28
I63
sg1018
g1638
sg7
VACT_AGT_63
p1668
sba(iconstruction
TP_REL
p1669
(dp1670
g1017
g1635
sg257
g856
sg28
I64
sg1018
g1638
sg7
VACT_THEME_64
p1671
sba(iconstruction
TP_REL
p1672
(dp1673
g1017
g1641
sg257
g859
sg28
I65
sg1018
g1638
sg7
VACT_RCPT_65
p1674
sbasg28
I54
sg7
g162
sbsg1329
(iconstruction
TP_SYNFORM
p1675
(dp1676
g28
I55
sg1332
(lp1677
(iconstruction
TP_SLOT
p1678
(dp1679
g1336
(lp1680
VNP
p1681
aVN
p1682
asg1339
I0
sg28
I66
sg7
g1619
sba(iconstruction
TP_SLOT
p1683
(dp1684
g1336
(lp1685
VVP
p1686
aVV
p1687
asg1339
I1
sg28
I67
sg7
g1617
sba(iconstruction
TP_SLOT
p1688
(dp1689
g1336
(lp1690
VNP
p1691
aVN
p1692
asg1339
I2
sg28
I68
sg7
g1615
sba(iconstruction
TP_SLOT
p1693
(dp1694
g1336
(lp1695
VNP
p1696
aVN
p1697
asg1339
I3
sg28
I69
sg7
g1613
sbasg7
g162
sbsg1350
I1
sba(iconstruction
CXN
p1698
(dp1699
g234
(iconstruction
TP_SYMLINKS
p1700
(dp1701
g237
(dp1702
VACT_74
p1703
VS2_83
p1704
sVRCPT_77
p1705
VS5_86
p1706
sVTHEME_76
p1707
VS3_84
p1708
sVAGT_75
p1709
VS1_82
p1710
ssg28
I72
sg7
g162
sbsg243
VS
p1711
sg245
I2
sg7
VOBLIQUE_DATIVE
p1712
sg247
(iconstruction
TP_SEMFRAME
p1713
(dp1714
g144
g0
(g132
g2
Ntp1715
Rp1716
(dp1717
g136
(dp1718
(iconstruction
TP_NODE
p1719
(dp1720
g256
I01
sg257
g260
sg7
VEVT_73
p1721
sg1314
I01
sg1315
I00
sg28
I73
sb(dp1722
g1314
I01
sg257
g260
ss(iconstruction
TP_NODE
p1723
(dp1724
g256
I00
sg257
g901
sg7
g1709
sg1314
I01
sg1315
I01
sg28
I75
sb(dp1725
g1314
I01
sg257
g901
ss(iconstruction
TP_NODE
p1726
(dp1727
g256
I00
sg257
g901
sg7
g1707
sg1314
I01
sg1315
I00
sg28
I76
sb(dp1728
g1314
I01
sg257
g901
ss(iconstruction
TP_NODE
p1729
(dp1730
g256
I00
sg257
g796
sg7
g1703
sg1314
I01
sg1315
I00
sg28
I74
sb(dp1731
g1314
I01
sg257
g796
ss(iconstruction
TP_NODE
p1732
(dp1733
g256
I00
sg257
g901
sg7
g1705
sg1314
I01
sg1315
I00
sg28
I77
sb(dp1734
g1314
I01
sg257
g901
sssg138
g139
sg140
g139
sg141
(dp1735
g1719
(dp1736
g1729
(dp1737
g257
g895
sssg1723
(dp1738
sg1726
(dp1739
sg1729
(dp1740
g1723
(dp1741
g257
g874
ssg1732
(dp1742
g257
g859
ssg1726
(dp1743
g257
g856
sssg1732
(dp1744
ssg143
g1735
sg144
(dp1745
sg146
g139
sg147
g1735
sg148
(dp1746
g1719
(dp1747
sg1723
(dp1748
g1729
g1741
ssg1726
(dp1749
g1729
g1743
ssg1729
(dp1750
g1719
g1737
ssg1732
(dp1751
g1729
g1742
sssbsg739
(lp1752
g1719
ag1729
ag1723
ag1726
ag1732
asg1011
(lp1753
(iconstruction
TP_REL
p1754
(dp1755
g1017
g1729
sg257
g895
sg28
I78
sg1018
g1719
sg7
VIS_78
p1756
sba(iconstruction
TP_REL
p1757
(dp1758
g1017
g1723
sg257
g874
sg28
I79
sg1018
g1729
sg7
VACT_AGT_79
p1759
sba(iconstruction
TP_REL
p1760
(dp1761
g1017
g1726
sg257
g856
sg28
I80
sg1018
g1729
sg7
VACT_THEME_80
p1762
sba(iconstruction
TP_REL
p1763
(dp1764
g1017
g1732
sg257
g859
sg28
I81
sg1018
g1729
sg7
VACT_RCPT_81
p1765
sbasg28
I70
sg7
g162
sbsg1329
(iconstruction
TP_SYNFORM
p1766
(dp1767
g28
I71
sg1332
(lp1768
(iconstruction
TP_SLOT
p1769
(dp1770
g1336
(lp1771
VNP
p1772
aVN
p1773
asg1339
I0
sg28
I82
sg7
g1710
sba(iconstruction
TP_SLOT
p1774
(dp1775
g1336
(lp1776
VVP
p1777
aVV
p1778
asg1339
I1
sg28
I83
sg7
g1704
sba(iconstruction
TP_SLOT
p1779
(dp1780
g1336
(lp1781
VNP
p1782
aVN
p1783
asg1339
I2
sg28
I84
sg7
g1708
sba(iconstruction
TP_PHON
p1784
(dp1785
g1342
I2
sg1339
I3
sg28
I85
sg1343
Vto
p1786
sg7
VS4_85
p1787
sba(iconstruction
TP_SLOT
p1788
(dp1789
g1336
(lp1790
VNP
p1791
aVN
p1792
asg1339
I4
sg28
I86
sg7
g1706
sbasg7
g162
sbsg1350
I1
sba(iconstruction
CXN
p1793
(dp1794
g234
(iconstruction
TP_SYMLINKS
p1795
(dp1796
g237
(dp1797
VENT_91
p1798
VS1_95
p1799
sVATTR_92
p1800
VS3_97
p1801
ssg28
I89
sg7
g162
sbsg243
VS
p1802
sg245
I2
sg7
VSPA
p1803
sg247
(iconstruction
TP_SEMFRAME
p1804
(dp1805
g144
g0
(g132
g2
Ntp1806
Rp1807
(dp1808
g136
(dp1809
(iconstruction
TP_NODE
p1810
(dp1811
g256
I00
sg257
g901
sg7
g1798
sg1314
I01
sg1315
I01
sg28
I91
sb(dp1812
g1314
I01
sg257
g901
ss(iconstruction
TP_NODE
p1813
(dp1814
g256
I00
sg257
g805
sg7
g1800
sg1314
I00
sg1315
I00
sg28
I92
sb(dp1815
g1314
I00
sg257
g805
ss(iconstruction
TP_NODE
p1816
(dp1817
g256
I01
sg257
g260
sg7
VEVT_90
p1818
sg1314
I01
sg1315
I00
sg28
I90
sb(dp1819
g1314
I01
sg257
g260
sssg138
g139
sg140
g139
sg141
(dp1820
g1810
(dp1821
sg1813
(dp1822
sg1816
(dp1823
g1810
(dp1824
g257
g895
ssg1813
(dp1825
g257
g853
ssssg143
g1820
sg144
(dp1826
sg146
g139
sg147
g1820
sg148
(dp1827
g1810
(dp1828
g1816
g1824
ssg1813
(dp1829
g1816
g1825
ssg1816
(dp1830
ssbsg739
(lp1831
g1816
ag1810
ag1813
asg1011
(lp1832
(iconstruction
TP_REL
p1833
(dp1834
g1017
g1810
sg257
g895
sg28
I93
sg1018
g1816
sg7
VIS_93
p1835
sba(iconstruction
TP_REL
p1836
(dp1837
g1017
g1813
sg257
g853
sg28
I94
sg1018
g1816
sg7
VEVT_ATTR_94
p1838
sbasg28
I87
sg7
g162
sbsg1329
(iconstruction
TP_SYNFORM
p1839
(dp1840
g28
I88
sg1332
(lp1841
(iconstruction
TP_SLOT
p1842
(dp1843
g1336
(lp1844
VNP
p1845
aVN
p1846
asg1339
I0
sg28
I95
sg7
g1799
sba(iconstruction
TP_PHON
p1847
(dp1848
g1342
I2
sg1339
I1
sg28
I96
sg1343
Vis
p1849
sg7
VS2_96
p1850
sba(iconstruction
TP_SLOT
p1851
(dp1852
g1336
(lp1853
VA
p1854
asg1339
I2
sg28
I97
sg7
g1801
sbasg7
g162
sbsg1350
I1
sba(iconstruction
CXN
p1855
(dp1856
g234
(iconstruction
TP_SYMLINKS
p1857
(dp1858
g237
(dp1859
VAGT_103
p1860
VS1_106
p1861
sVACT_102
p1862
VS2_107
p1863
ssg28
I100
sg7
g162
sbsg243
VS
p1864
sg245
I2
sg7
VSV
p1865
sg247
(iconstruction
TP_SEMFRAME
p1866
(dp1867
g144
g0
(g132
g2
Ntp1868
Rp1869
(dp1870
g136
(dp1871
(iconstruction
TP_NODE
p1872
(dp1873
g256
I00
sg257
g760
sg7
g1862
sg1314
I01
sg1315
I00
sg28
I102
sb(dp1874
g1314
I01
sg257
g760
ss(iconstruction
TP_NODE
p1875
(dp1876
g256
I00
sg257
g901
sg7
g1860
sg1314
I01
sg1315
I01
sg28
I103
sb(dp1877
g1314
I01
sg257
g901
ss(iconstruction
TP_NODE
p1878
(dp1879
g256
I01
sg257
g260
sg7
VEVT_101
p1880
sg1314
I01
sg1315
I00
sg28
I101
sb(dp1881
g1314
I01
sg257
g260
sssg138
g139
sg140
g139
sg141
(dp1882
g1872
(dp1883
g1875
(dp1884
g257
g874
sssg1875
(dp1885
sg1878
(dp1886
g1872
(dp1887
g257
g895
ssssg143
g1882
sg144
(dp1888
sg146
g139
sg147
g1882
sg148
(dp1889
g1872
(dp1890
g1878
g1887
ssg1875
(dp1891
g1872
g1884
ssg1878
(dp1892
ssbsg739
(lp1893
g1878
ag1872
ag1875
asg1011
(lp1894
(iconstruction
TP_REL
p1895
(dp1896
g1017
g1872
sg257
g895
sg28
I104
sg1018
g1878
sg7
VIS_104
p1897
sba(iconstruction
TP_REL
p1898
(dp1899
g1017
g1875
sg257
g874
sg28
I105
sg1018
g1872
sg7
VACT_AGT_105
p1900
sbasg28
I98
sg7
g162
sbsg1329
(iconstruction
TP_SYNFORM
p1901
(dp1902
g28
I99
sg1332
(lp1903
(iconstruction
TP_SLOT
p1904
(dp1905
g1336
(lp1906
VNP
p1907
aVN
p1908
asg1339
I0
sg28
I106
sg7
g1861
sba(iconstruction
TP_SLOT
p1909
(dp1910
g1336
(lp1911
VVP
p1912
aVV
p1913
asg1339
I1
sg28
I107
sg7
g1863
sbasg7
g162
sbsg1350
I1
sba(iconstruction
CXN
p1914
(dp1915
g234
(iconstruction
TP_SYMLINKS
p1916
(dp1917
g237
(dp1918
VPLACE_112
p1919
VS3_116
p1920
sVEVT_111
p1921
VS1_114
p1922
ssg28
I110
sg7
g162
sbsg243
VS
p1923
sg245
I2
sg7
VPP_IN
p1924
sg247
(iconstruction
TP_SEMFRAME
p1925
(dp1926
g144
g0
(g132
g2
Ntp1927
Rp1928
(dp1929
g136
(dp1930
(iconstruction
TP_NODE
p1931
(dp1932
g256
I00
sg257
g901
sg7
g1919
sg1314
I01
sg1315
I00
sg28
I112
sb(dp1933
g1314
I01
sg257
g901
ss(iconstruction
TP_NODE
p1934
(dp1935
g256
I01
sg257
g260
sg7
g1921
sg1314
I01
sg1315
I00
sg28
I111
sb(dp1936
g1314
I01
sg257
g260
sssg138
g139
sg140
g139
sg141
(dp1937
g1931
(dp1938
sg1934
(dp1939
g1931
(dp1940
g257
g892
ssssg143
g1937
sg144
(dp1941
sg146
g139
sg147
g1937
sg148
(dp1942
g1931
(dp1943
g1934
g1940
ssg1934
(dp1944
ssbsg739
(lp1945
g1934
ag1931
asg1011
(lp1946
(iconstruction
TP_REL
p1947
(dp1948
g1017
g1931
sg257
g892
sg28
I113
sg1018
g1934
sg7
VEVT_PP_113
p1949
sbasg28
I108
sg7
g162
sbsg1329
(iconstruction
TP_SYNFORM
p1950
(dp1951
g28
I109
sg1332
(lp1952
(iconstruction
TP_SLOT
p1953
(dp1954
g1336
(lp1955
VS
p1956
asg1339
I0
sg28
I114
sg7
g1922
sba(iconstruction
TP_PHON
p1957
(dp1958
g1342
I2
sg1339
I1
sg28
I115
sg1343
Vin
p1959
sg7
VS2_115
p1960
sba(iconstruction
TP_SLOT
p1961
(dp1962
g1336
(lp1963
VNP
p1964
aVN
p1965
asg1339
I2
sg28
I116
sg7
g1920
sbasg7
g162
sbsg1350
I1
sba(iconstruction
CXN
p1966
(dp1967
g234
(iconstruction
TP_SYMLINKS
p1968
(dp1969
g237
(dp1970
VEVT2_121
p1971
VS2_124
p1972
sVEVT1_120
p1973
VS1_123
p1974
ssg28
I119
sg7
g162
sbsg243
VS
p1975
sg245
I2
sg7
VS_PP
p1976
sg247
(iconstruction
TP_SEMFRAME
p1977
(dp1978
g144
g0
(g132
g2
Ntp1979
Rp1980
(dp1981
g136
(dp1982
(iconstruction
TP_NODE
p1983
(dp1984
g256
I01
sg257
g260
sg7
g1973
sg1314
I01
sg1315
I01
sg28
I120
sb(dp1985
g1314
I01
sg257
g260
ss(iconstruction
TP_NODE
p1986
(dp1987
g256
I00
sg257
g260
sg7
g1971
sg1314
I01
sg1315
I00
sg28
I121
sb(dp1988
g1314
I01
sg257
g260
sssg138
g139
sg140
g139
sg141
(dp1989
g1983
(dp1990
g1986
(dp1991
g257
g853
sssg1986
(dp1992
ssg143
g1989
sg144
(dp1993
sg146
g139
sg147
g1989
sg148
(dp1994
g1983
(dp1995
sg1986
(dp1996
g1983
g1991
sssbsg739
(lp1997
g1983
ag1986
asg1011
(lp1998
(iconstruction
TP_REL
p1999
(dp2000
g1017
g1986
sg257
g853
sg28
I122
sg1018
g1983
sg7
VMOD_122
p2001
sbasg28
I117
sg7
g162
sbsg1329
(iconstruction
TP_SYNFORM
p2002
(dp2003
g28
I118
sg1332
(lp2004
(iconstruction
TP_SLOT
p2005
(dp2006
g1336
(lp2007
VS
p2008
asg1339
I0
sg28
I123
sg7
g1974
sba(iconstruction
TP_SLOT
p2009
(dp2010
g1336
(lp2011
VPP
p2012
asg1339
I1
sg28
I124
sg7
g1972
sbasg7
g162
sbsg1350
I1
sba(iconstruction
CXN
p2013
(dp2014
g234
(iconstruction
TP_SYMLINKS
p2015
(dp2016
g237
(dp2017
VENT_128
p2018
VS2_132
p2019
sVATTR_129
p2020
VS1_131
p2021
ssg28
I127
sg7
g162
sbsg243
VN
p2022
sg245
I2
sg7
VADJUNCT_N
p2023
sg247
(iconstruction
TP_SEMFRAME
p2024
(dp2025
g144
g0
(g132
g2
Ntp2026
Rp2027
(dp2028
g136
(dp2029
(iconstruction
TP_NODE
p2030
(dp2031
g256
I01
sg257
g901
sg7
g2018
sg1314
I01
sg1315
I00
sg28
I128
sb(dp2032
g1314
I01
sg257
g901
ss(iconstruction
TP_NODE
p2033
(dp2034
g256
I00
sg257
g805
sg7
g2020
sg1314
I00
sg1315
I00
sg28
I129
sb(dp2035
g1314
I00
sg257
g805
sssg138
g139
sg140
g139
sg141
(dp2036
g2030
(dp2037
g2033
(dp2038
g257
g853
sssg2033
(dp2039
ssg143
g2036
sg144
(dp2040
sg146
g139
sg147
g2036
sg148
(dp2041
g2030
(dp2042
sg2033
(dp2043
g2030
g2038
sssbsg739
(lp2044
g2030
ag2033
asg1011
(lp2045
(iconstruction
TP_REL
p2046
(dp2047
g1017
g2033
sg257
g853
sg28
I130
sg1018
g2030
sg7
VENT_ATTR_130
p2048
sbasg28
I125
sg7
g162
sbsg1329
(iconstruction
TP_SYNFORM
p2049
(dp2050
g28
I126
sg1332
(lp2051
(iconstruction
TP_SLOT
p2052
(dp2053
g1336
(lp2054
VA
p2055
asg1339
I0
sg28
I131
sg7
g2021
sba(iconstruction
TP_SLOT
p2056
(dp2057
g1336
(lp2058
VN
p2059
asg1339
I1
sg28
I132
sg7
g2019
sbasg7
g162
sbsg1350
I1
sba(iconstruction
CXN
p2060
(dp2061
g234
(iconstruction
TP_SYMLINKS
p2062
(dp2063
g237
(dp2064
VACT_137
p2065
VS3_146
p2066
sVAGT_138
p2067
VS1_144
p2068
sVPT_139
p2069
VS4_147
p2070
ssg28
I135
sg7
g162
sbsg243
VN
p2071
sg245
I2
sg7
VSUBJ_REL_SVO
p2072
sg247
(iconstruction
TP_SEMFRAME
p2073
(dp2074
g144
g0
(g132
g2
Ntp2075
Rp2076
(dp2077
g136
(dp2078
(iconstruction
TP_NODE
p2079
(dp2080
g256
I00
sg257
g260
sg7
VEVT_136
p2081
sg1314
I01
sg1315
I00
sg28
I136
sb(dp2082
g1314
I01
sg257
g260
ss(iconstruction
TP_NODE
p2083
(dp2084
g256
I01
sg257
g901
sg7
g2067
sg1314
I01
sg1315
I00
sg28
I138
sb(dp2085
g1314
I01
sg257
g901
ss(iconstruction
TP_NODE
p2086
(dp2087
g256
I00
sg257
g766
sg7
g2065
sg1314
I01
sg1315
I01
sg28
I137
sb(dp2088
g1314
I01
sg257
g766
ss(iconstruction
TP_NODE
p2089
(dp2090
g256
I00
sg257
g901
sg7
g2069
sg1314
I01
sg1315
I00
sg28
I139
sb(dp2091
g1314
I01
sg257
g901
sssg138
g139
sg140
g139
sg141
(dp2092
g2079
(dp2093
g2086
(dp2094
g257
g895
sssg2083
(dp2095
g2079
(dp2096
g257
g853
sssg2086
(dp2097
g2083
(dp2098
g257
g874
ssg2089
(dp2099
g257
g868
sssg2089
(dp2100
ssg143
g2092
sg144
(dp2101
sg146
g139
sg147
g2092
sg148
(dp2102
g2079
(dp2103
g2083
g2096
ssg2083
(dp2104
g2086
g2098
ssg2086
(dp2105
g2079
g2094
ssg2089
(dp2106
g2086
g2099
sssbsg739
(lp2107
g2079
ag2086
ag2083
ag2089
asg1011
(lp2108
(iconstruction
TP_REL
p2109
(dp2110
g1017
g2086
sg257
g895
sg28
I140
sg1018
g2079
sg7
VIS_140
p2111
sba(iconstruction
TP_REL
p2112
(dp2113
g1017
g2083
sg257
g874
sg28
I141
sg1018
g2086
sg7
VACT_AGT_141
p2114
sba(iconstruction
TP_REL
p2115
(dp2116
g1017
g2089
sg257
g868
sg28
I142
sg1018
g2086
sg7
VACT_PT_142
p2117
sba(iconstruction
TP_REL
p2118
(dp2119
g1017
g2079
sg257
g853
sg28
I143
sg1018
g2083
sg7
VAGT_EVT_143
p2120
sbasg28
I133
sg7
g162
sbsg1329
(iconstruction
TP_SYNFORM
p2121
(dp2122
g28
I134
sg1332
(lp2123
(iconstruction
TP_SLOT
p2124
(dp2125
g1336
(lp2126
VN
p2127
asg1339
I0
sg28
I144
sg7
g2068
sba(iconstruction
TP_PHON
p2128
(dp2129
g1342
I4
sg1339
I1
sg28
I145
sg1343
Vthat
p2130
sg7
VS2_145
p2131
sba(iconstruction
TP_SLOT
p2132
(dp2133
g1336
(lp2134
VVP
p2135
aVV
p2136
asg1339
I2
sg28
I146
sg7
g2066
sba(iconstruction
TP_SLOT
p2137
(dp2138
g1336
(lp2139
VNP
p2140
aVN
p2141
asg1339
I3
sg28
I147
sg7
g2070
sbasg7
g162
sbsg1350
I1
sba(iconstruction
CXN
p2142
(dp2143
g234
(iconstruction
TP_SYMLINKS
p2144
(dp2145
g237
(dp2146
VACT_152
p2147
VS3_159
p2148
sVAGT_153
p2149
VS1_157
p2150
ssg28
I150
sg7
g162
sbsg243
VN
p2151
sg245
I2
sg7
VSUBJ_REL_SV
p2152
sg247
(iconstruction
TP_SEMFRAME
p2153
(dp2154
g144
g0
(g132
g2
Ntp2155
Rp2156
(dp2157
g136
(dp2158
(iconstruction
TP_NODE
p2159
(dp2160
g256
I00
sg257
g260
sg7
VEVT_151
p2161
sg1314
I01
sg1315
I00
sg28
I151
sb(dp2162
g1314
I01
sg257
g260
ss(iconstruction
TP_NODE
p2163
(dp2164
g256
I01
sg257
g901
sg7
g2149
sg1314
I01
sg1315
I00
sg28
I153
sb(dp2165
g1314
I01
sg257
g901
ss(iconstruction
TP_NODE
p2166
(dp2167
g256
I00
sg257
g748
sg7
g2147
sg1314
I01
sg1315
I01
sg28
I152
sb(dp2168
g1314
I01
sg257
g748
sssg138
g139
sg140
g139
sg141
(dp2169
g2159
(dp2170
g2166
(dp2171
g257
g895
sssg2163
(dp2172
g2159
(dp2173
g257
g853
sssg2166
(dp2174
g2163
(dp2175
g257
g874
ssssg143
g2169
sg144
(dp2176
sg146
g139
sg147
g2169
sg148
(dp2177
g2159
(dp2178
g2163
g2173
ssg2163
(dp2179
g2166
g2175
ssg2166
(dp2180
g2159
g2171
sssbsg739
(lp2181
g2159
ag2166
ag2163
asg1011
(lp2182
(iconstruction
TP_REL
p2183
(dp2184
g1017
g2166
sg257
g895
sg28
I154
sg1018
g2159
sg7
VIS_154
p2185
sba(iconstruction
TP_REL
p2186
(dp2187
g1017
g2163
sg257
g874
sg28
I155
sg1018
g2166
sg7
VACT_AGT_155
p2188
sba(iconstruction
TP_REL
p2189
(dp2190
g1017
g2159
sg257
g853
sg28
I156
sg1018
g2163
sg7
VAGT_EVT_156
p2191
sbasg28
I148
sg7
g162
sbsg1329
(iconstruction
TP_SYNFORM
p2192
(dp2193
g28
I149
sg1332
(lp2194
(iconstruction
TP_SLOT
p2195
(dp2196
g1336
(lp2197
VN
p2198
asg1339
I0
sg28
I157
sg7
g2150
sba(iconstruction
TP_PHON
p2199
(dp2200
g1342
I4
sg1339
I1
sg28
I158
sg1343
Vthat
p2201
sg7
VS2_158
p2202
sba(iconstruction
TP_SLOT
p2203
(dp2204
g1336
(lp2205
VVP
p2206
aVV
p2207
asg1339
I2
sg28
I159
sg7
g2148
sbasg7
g162
sbsg1350
I1
sba(iconstruction
CXN
p2208
(dp2209
g234
(iconstruction
TP_SYMLINKS
p2210
(dp2211
g237
(dp2212
VACT_164
p2213
VS4_174
p2214
sVPT_166
p2215
VS1_171
p2216
sVAGT_165
p2217
VS7_177
p2218
ssg28
I162
sg7
g162
sbsg243
VN
p2219
sg245
I2
sg7
VSUBJ_REL_PAS_SVO
p2220
sg247
(iconstruction
TP_SEMFRAME
p2221
(dp2222
g144
g0
(g132
g2
Ntp2223
Rp2224
(dp2225
g136
(dp2226
(iconstruction
TP_NODE
p2227
(dp2228
g256
I00
sg257
g260
sg7
VEVT_163
p2229
sg1314
I01
sg1315
I00
sg28
I163
sb(dp2230
g1314
I01
sg257
g260
ss(iconstruction
TP_NODE
p2231
(dp2232
g256
I00
sg257
g901
sg7
g2217
sg1314
I01
sg1315
I00
sg28
I165
sb(dp2233
g1314
I01
sg257
g901
ss(iconstruction
TP_NODE
p2234
(dp2235
g256
I01
sg257
g901
sg7
g2215
sg1314
I01
sg1315
I00
sg28
I166
sb(dp2236
g1314
I01
sg257
g901
ss(iconstruction
TP_NODE
p2237
(dp2238
g256
I00
sg257
g748
sg7
g2213
sg1314
I01
sg1315
I01
sg28
I164
sb(dp2239
g1314
I01
sg257
g748
sssg138
g139
sg140
g139
sg141
(dp2240
g2227
(dp2241
g2237
(dp2242
g257
g895
sssg2231
(dp2243
sg2234
(dp2244
g2227
(dp2245
g257
g853
sssg2237
(dp2246
g2231
(dp2247
g257
g874
ssg2234
(dp2248
g257
g868
ssssg143
g2240
sg144
(dp2249
sg146
g139
sg147
g2240
sg148
(dp2250
g2227
(dp2251
g2234
g2245
ssg2231
(dp2252
g2237
g2247
ssg2234
(dp2253
g2237
g2248
ssg2237
(dp2254
g2227
g2242
sssbsg739
(lp2255
g2227
ag2237
ag2231
ag2234
asg1011
(lp2256
(iconstruction
TP_REL
p2257
(dp2258
g1017
g2237
sg257
g895
sg28
I167
sg1018
g2227
sg7
VIS_167
p2259
sba(iconstruction
TP_REL
p2260
(dp2261
g1017
g2231
sg257
g874
sg28
I168
sg1018
g2237
sg7
VACT_AGT_168
p2262
sba(iconstruction
TP_REL
p2263
(dp2264
g1017
g2234
sg257
g868
sg28
I169
sg1018
g2237
sg7
VACT_PT_169
p2265
sba(iconstruction
TP_REL
p2266
(dp2267
g1017
g2227
sg257
g853
sg28
I170
sg1018
g2234
sg7
VPT_EVT_170
p2268
sbasg28
I160
sg7
g162
sbsg1329
(iconstruction
TP_SYNFORM
p2269
(dp2270
g28
I161
sg1332
(lp2271
(iconstruction
TP_SLOT
p2272
(dp2273
g1336
(lp2274
VN
p2275
asg1339
I0
sg28
I171
sg7
g2216
sba(iconstruction
TP_PHON
p2276
(dp2277
g1342
I4
sg1339
I1
sg28
I172
sg1343
Vthat
p2278
sg7
VS2_172
p2279
sba(iconstruction
TP_PHON
p2280
(dp2281
g1342
I2
sg1339
I2
sg28
I173
sg1343
Vis
p2282
sg7
VS3_173
p2283
sba(iconstruction
TP_SLOT
p2284
(dp2285
g1336
(lp2286
VVP
p2287
aVV
p2288
asg1339
I3
sg28
I174
sg7
g2214
sba(iconstruction
TP_PHON
p2289
(dp2290
g1342
I2
sg1339
I4
sg28
I175
sg1343
V-ed
p2291
sg7
VS5_175
p2292
sba(iconstruction
TP_PHON
p2293
(dp2294
g1342
I2
sg1339
I5
sg28
I176
sg1343
Vby
p2295
sg7
VS6_176
p2296
sba(iconstruction
TP_SLOT
p2297
(dp2298
g1336
(lp2299
VNP
p2300
aVN
p2301
asg1339
I6
sg28
I177
sg7
g2218
sbasg7
g162
sbsg1350
I1
sba(iconstruction
CXN
p2302
(dp2303
g234
(iconstruction
TP_SYMLINKS
p2304
(dp2305
g237
(dp2306
VAGT_183
p2307
VS3_191
p2308
sVPT_184
p2309
VS1_189
p2310
sVACT_182
p2311
VS4_192
p2312
ssg28
I180
sg7
g162
sbsg243
VN
p2313
sg245
I2
sg7
VOBJ_REL_SVO
p2314
sg247
(iconstruction
TP_SEMFRAME
p2315
(dp2316
g144
g0
(g132
g2
Ntp2317
Rp2318
(dp2319
g136
(dp2320
(iconstruction
TP_NODE
p2321
(dp2322
g256
I00
sg257
g260
sg7
VEVT_181
p2323
sg1314
I01
sg1315
I00
sg28
I181
sb(dp2324
g1314
I01
sg257
g260
ss(iconstruction
TP_NODE
p2325
(dp2326
g256
I00
sg257
g901
sg7
g2307
sg1314
I01
sg1315
I00
sg28
I183
sb(dp2327
g1314
I01
sg257
g901
ss(iconstruction
TP_NODE
p2328
(dp2329
g256
I00
sg257
g748
sg7
g2311
sg1314
I01
sg1315
I01
sg28
I182
sb(dp2330
g1314
I01
sg257
g748
ss(iconstruction
TP_NODE
p2331
(dp2332
g256
I01
sg257
g901
sg7
g2309
sg1314
I01
sg1315
I00
sg28
I184
sb(dp2333
g1314
I01
sg257
g901
sssg138
g139
sg140
g139
sg141
(dp2334
g2321
(dp2335
g2328
(dp2336
g257
g895
sssg2325
(dp2337
sg2328
(dp2338
g2325
(dp2339
g257
g874
ssg2331
(dp2340
g257
g868
sssg2331
(dp2341
g2321
(dp2342
g257
g853
ssssg143
g2334
sg144
(dp2343
sg146
g139
sg147
g2334
sg148
(dp2344
g2321
(dp2345
g2331
g2342
ssg2325
(dp2346
g2328
g2339
ssg2328
(dp2347
g2321
g2336
ssg2331
(dp2348
g2328
g2340
sssbsg739
(lp2349
g2321
ag2328
ag2325
ag2331
asg1011
(lp2350
(iconstruction
TP_REL
p2351
(dp2352
g1017
g2328
sg257
g895
sg28
I185
sg1018
g2321
sg7
VIS_185
p2353
sba(iconstruction
TP_REL
p2354
(dp2355
g1017
g2325
sg257
g874
sg28
I186
sg1018
g2328
sg7
VACT_AGT_186
p2356
sba(iconstruction
TP_REL
p2357
(dp2358
g1017
g2331
sg257
g868
sg28
I187
sg1018
g2328
sg7
VACT_PT_187
p2359
sba(iconstruction
TP_REL
p2360
(dp2361
g1017
g2321
sg257
g853
sg28
I188
sg1018
g2331
sg7
VPT_EVT_188
p2362
sbasg28
I178
sg7
g162
sbsg1329
(iconstruction
TP_SYNFORM
p2363
(dp2364
g28
I179
sg1332
(lp2365
(iconstruction
TP_SLOT
p2366
(dp2367
g1336
(lp2368
VN
p2369
asg1339
I0
sg28
I189
sg7
g2310
sba(iconstruction
TP_PHON
p2370
(dp2371
g1342
I4
sg1339
I1
sg28
I190
sg1343
Vthat
p2372
sg7
VS2_190
p2373
sba(iconstruction
TP_SLOT
p2374
(dp2375
g1336
(lp2376
VNP
p2377
aVN
p2378
asg1339
I2
sg28
I191
sg7
g2308
sba(iconstruction
TP_SLOT
p2379
(dp2380
g1336
(lp2381
VVP
p2382
aVV
p2383
asg1339
I3
sg28
I192
sg7
g2312
sbasg7
g162
sbsg1350
I1
sba(iconstruction
CXN
p2384
(dp2385
g234
(iconstruction
TP_SYMLINKS
p2386
(dp2387
g237
(dp2388
VAGT_198
p2389
VS1_204
p2390
sVACT_197
p2391
VS5_208
p2392
sVPT_199
p2393
VS3_206
p2394
ssg28
I195
sg7
g162
sbsg243
VN
p2395
sg245
I2
sg7
VOBJ_REL_PAS_SVO
p2396
sg247
(iconstruction
TP_SEMFRAME
p2397
(dp2398
g144
g0
(g132
g2
Ntp2399
Rp2400
(dp2401
g136
(dp2402
(iconstruction
TP_NODE
p2403
(dp2404
g256
I00
sg257
g260
sg7
VEVT_196
p2405
sg1314
I01
sg1315
I00
sg28
I196
sb(dp2406
g1314
I01
sg257
g260
ss(iconstruction
TP_NODE
p2407
(dp2408
g256
I01
sg257
g901
sg7
g2389
sg1314
I01
sg1315
I00
sg28
I198
sb(dp2409
g1314
I01
sg257
g901
ss(iconstruction
TP_NODE
p2410
(dp2411
g256
I00
sg257
g748
sg7
g2391
sg1314
I01
sg1315
I01
sg28
I197
sb(dp2412
g1314
I01
sg257
g748
ss(iconstruction
TP_NODE
p2413
(dp2414
g256
I00
sg257
g901
sg7
g2393
sg1314
I01
sg1315
I00
sg28
I199
sb(dp2415
g1314
I01
sg257
g901
sssg138
g139
sg140
g139
sg141
(dp2416
g2403
(dp2417
g2410
(dp2418
g257
g895
sssg2407
(dp2419
g2403
(dp2420
g257
g853
sssg2410
(dp2421
g2407
(dp2422
g257
g874
ssg2413
(dp2423
g257
g868
sssg2413
(dp2424
ssg143
g2416
sg144
(dp2425
sg146
g139
sg147
g2416
sg148
(dp2426
g2403
(dp2427
g2407
g2420
ssg2407
(dp2428
g2410
g2422
ssg2410
(dp2429
g2403
g2418
ssg2413
(dp2430
g2410
g2423
sssbsg739
(lp2431
g2403
ag2410
ag2407
ag2413
asg1011
(lp2432
(iconstruction
TP_REL
p2433
(dp2434
g1017
g2410
sg257
g895
sg28
I200
sg1018
g2403
sg7
VIS_200
p2435
sba(iconstruction
TP_REL
p2436
(dp2437
g1017
g2407
sg257
g874
sg28
I201
sg1018
g2410
sg7
VACT_AGT_201
p2438
sba(iconstruction
TP_REL
p2439
(dp2440
g1017
g2413
sg257
g868
sg28
I202
sg1018
g2410
sg7
VACT_PT_202
p2441
sba(iconstruction
TP_REL
p2442
(dp2443
g1017
g2403
sg257
g853
sg28
I203
sg1018
g2407
sg7
VAGT_EVT_203
p2444
sbasg28
I193
sg7
g162
sbsg1329
(iconstruction
TP_SYNFORM
p2445
(dp2446
g28
I194
sg1332
(lp2447
(iconstruction
TP_SLOT
p2448
(dp2449
g1336
(lp2450
VN
p2451
asg1339
I0
sg28
I204
sg7
g2390
sba(iconstruction
TP_PHON
p2452
(dp2453
g1342
I4
sg1339
I1
sg28
I205
sg1343
Vthat
p2454
sg7
VS2_205
p2455
sba(iconstruction
TP_SLOT
p2456
(dp2457
g1336
(lp2458
VNP
p2459
aVN
p2460
asg1339
I2
sg28
I206
sg7
g2394
sba(iconstruction
TP_PHON
p2461
(dp2462
g1342
I2
sg1339
I3
sg28
I207
sg1343
Vis
p2463
sg7
VS4_207
p2464
sba(iconstruction
TP_SLOT
p2465
(dp2466
g1336
(lp2467
VVP
p2468
aVV
p2469
asg1339
I4
sg28
I208
sg7
g2392
sba(iconstruction
TP_PHON
p2470
(dp2471
g1342
I2
sg1339
I5
sg28
I209
sg1343
V-ed
p2472
sg7
VS6_209
p2473
sba(iconstruction
TP_PHON
p2474
(dp2475
g1342
I2
sg1339
I6
sg28
I210
sg1343
Vby
p2476
sg7
VS7_210
p2477
sbasg7
g162
sbsg1350
I1
sba(iconstruction
CXN
p2478
(dp2479
g234
(iconstruction
TP_SYMLINKS
p2480
(dp2481
g237
(dp2482
VENT_215
p2483
VS1_219
p2484
sVATTR_216
p2485
VS4_222
p2486
ssg28
I213
sg7
g162
sbsg243
VN
p2487
sg245
I2
sg7
VREL_SPA
p2488
sg247
(iconstruction
TP_SEMFRAME
p2489
(dp2490
g144
g0
(g132
g2
Ntp2491
Rp2492
(dp2493
g136
(dp2494
(iconstruction
TP_NODE
p2495
(dp2496
g256
I00
sg257
g260
sg7
VEVT_214
p2497
sg1314
I01
sg1315
I00
sg28
I214
sb(dp2498
g1314
I01
sg257
g260
ss(iconstruction
TP_NODE
p2499
(dp2500
g256
I00
sg257
g805
sg7
g2485
sg1314
I00
sg1315
I00
sg28
I216
sb(dp2501
g1314
I00
sg257
g805
ss(iconstruction
TP_NODE
p2502
(dp2503
g256
I01
sg257
g901
sg7
g2483
sg1314
I01
sg1315
I01
sg28
I215
sb(dp2504
g1314
I01
sg257
g901
sssg138
g139
sg140
g139
sg141
(dp2505
g2495
(dp2506
g2499
(dp2507
g257
g853
ssg2502
(dp2508
g257
g895
sssg2499
(dp2509
sg2502
(dp2510
ssg143
g2505
sg144
(dp2511
sg146
g139
sg147
g2505
sg148
(dp2512
g2495
(dp2513
sg2499
(dp2514
g2495
g2507
ssg2502
(dp2515
g2495
g2508
sssbsg739
(lp2516
g2495
ag2502
ag2499
asg1011
(lp2517
(iconstruction
TP_REL
p2518
(dp2519
g1017
g2502
sg257
g895
sg28
I217
sg1018
g2495
sg7
VIS_217
p2520
sba(iconstruction
TP_REL
p2521
(dp2522
g1017
g2499
sg257
g853
sg28
I218
sg1018
g2495
sg7
VEVT_ATTR_218
p2523
sbasg28
I211
sg7
g162
sbsg1329
(iconstruction
TP_SYNFORM
p2524
(dp2525
g28
I212
sg1332
(lp2526
(iconstruction
TP_SLOT
p2527
(dp2528
g1336
(lp2529
VN
p2530
asg1339
I0
sg28
I219
sg7
g2484
sba(iconstruction
TP_PHON
p2531
(dp2532
g1342
I4
sg1339
I1
sg28
I220
sg1343
Vthat
p2533
sg7
VS2_220
p2534
sba(iconstruction
TP_PHON
p2535
(dp2536
g1342
I2
sg1339
I2
sg28
I221
sg1343
Vis
p2537
sg7
VS3_221
p2538
sba(iconstruction
TP_SLOT
p2539
(dp2540
g1336
(lp2541
VA
p2542
asg1339
I3
sg28
I222
sg7
g2486
sbasg7
g162
sbsg1350
I1
sba(iconstruction
CXN
p2543
(dp2544
g234
(iconstruction
TP_SYMLINKS
p2545
(dp2546
g237
(dp2547
VAGT_228
p2548
VS1_235
p2549
sVCOLOR_230
p2550
VS3_237
p2551
ssg28
I225
sg7
g162
sbsg243
VN
p2552
sg245
I2
sg7
VIN_COLOR
p2553
sg247
(iconstruction
TP_SEMFRAME
p2554
(dp2555
g144
g0
(g132
g2
Ntp2556
Rp2557
(dp2558
g136
(dp2559
(iconstruction
TP_NODE
p2560
(dp2561
g256
I00
sg257
g260
sg7
VEVT_226
p2562
sg1314
I01
sg1315
I00
sg28
I226
sb(dp2563
g1314
I01
sg257
g260
ss(iconstruction
TP_NODE
p2564
(dp2565
g256
I01
sg257
g910
sg7
g2548
sg1314
I01
sg1315
I00
sg28
I228
sb(dp2566
g1314
I01
sg257
g910
ss(iconstruction
TP_NODE
p2567
(dp2568
g256
I00
sg257
g793
sg7
VACT_227
p2569
sg1314
I01
sg1315
I00
sg28
I227
sb(dp2570
g1314
I01
sg257
g793
ss(iconstruction
TP_NODE
p2571
(dp2572
g256
I00
sg257
g940
sg7
VPT_229
p2573
sg1314
I01
sg1315
I00
sg28
I229
sb(dp2574
g1314
I01
sg257
g940
ss(iconstruction
TP_NODE
p2575
(dp2576
g256
I00
sg257
g808
sg7
g2550
sg1314
I00
sg1315
I01
sg28
I230
sb(dp2577
g1314
I00
sg257
g808
sssg138
g139
sg140
g139
sg141
(dp2578
g2560
(dp2579
g2567
(dp2580
g257
g895
sssg2564
(dp2581
sg2567
(dp2582
g2564
(dp2583
g257
g874
ssg2571
(dp2584
g257
g868
sssg2571
(dp2585
g2575
(dp2586
g257
g853
sssg2575
(dp2587
ssg143
g2578
sg144
(dp2588
sg146
g139
sg147
g2578
sg148
(dp2589
g2560
(dp2590
sg2564
(dp2591
g2567
g2583
ssg2567
(dp2592
g2560
g2580
ssg2571
(dp2593
g2567
g2584
ssg2575
(dp2594
g2571
g2586
sssbsg739
(lp2595
g2560
ag2567
ag2564
ag2571
ag2575
asg1011
(lp2596
(iconstruction
TP_REL
p2597
(dp2598
g1017
g2567
sg257
g895
sg28
I231
sg1018
g2560
sg7
VIS_231
p2599
sba(iconstruction
TP_REL
p2600
(dp2601
g1017
g2564
sg257
g874
sg28
I232
sg1018
g2567
sg7
VACT_AGT_232
p2602
sba(iconstruction
TP_REL
p2603
(dp2604
g1017
g2571
sg257
g868
sg28
I233
sg1018
g2567
sg7
VACT_PT_233
p2605
sba(iconstruction
TP_REL
p2606
(dp2607
g1017
g2575
sg257
g853
sg28
I234
sg1018
g2571
sg7
VPT_COLOR_234
p2608
sbasg28
I223
sg7
g162
sbsg1329
(iconstruction
TP_SYNFORM
p2609
(dp2610
g28
I224
sg1332
(lp2611
(iconstruction
TP_SLOT
p2612
(dp2613
g1336
(lp2614
VN
p2615
asg1339
I0
sg28
I235
sg7
g2549
sba(iconstruction
TP_PHON
p2616
(dp2617
g1342
I2
sg1339
I1
sg28
I236
sg1343
Vin
p2618
sg7
VS2_236
p2619
sba(iconstruction
TP_SLOT
p2620
(dp2621
g1336
(lp2622
VA
p2623
asg1339
I2
sg28
I237
sg7
g2551
sbasg7
g162
sbsg1350
I1
sba(iconstruction
CXN
p2624
(dp2625
g234
(iconstruction
TP_SYMLINKS
p2626
(dp2627
g237
(dp2628
VN1_242
p2629
VS1_244
p2630
ssg28
I240
sg7
g162
sbsg243
VV
p2631
sg245
I1
sg7
VHIT
p2632
sg247
(iconstruction
TP_SEMFRAME
p2633
(dp2634
g144
g0
(g132
g2
Ntp2635
Rp2636
(dp2637
g136
(dp2638
(iconstruction
TP_NODE
p2639
(dp2640
g256
I00
sg257
g769
sg7
g2629
sg1314
I00
sg1315
I00
sg28
I242
sb(dp2641
g1314
I00
sg257
g769
ss(iconstruction
TP_NODE
p2642
(dp2643
g256
I01
sg257
g748
sg7
VACT_241
p2644
sg1314
I01
sg1315
I00
sg28
I241
sb(dp2645
g1314
I01
sg257
g748
sssg138
g139
sg140
g139
sg141
(dp2646
g2639
(dp2647
sg2642
(dp2648
g2639
(dp2649
g257
g895
ssssg143
g2646
sg144
(dp2650
sg146
g139
sg147
g2646
sg148
(dp2651
g2639
(dp2652
g2642
g2649
ssg2642
(dp2653
ssbsg739
(lp2654
g2642
ag2639
asg1011
(lp2655
(iconstruction
TP_REL
p2656
(dp2657
g1017
g2639
sg257
g895
sg28
I243
sg1018
g2642
sg7
VIS_243
p2658
sbasg28
I238
sg7
g162
sbsg1329
(iconstruction
TP_SYNFORM
p2659
(dp2660
g28
I239
sg1332
(lp2661
(iconstruction
TP_PHON
p2662
(dp2663
g1342
I3
sg1339
I0
sg28
I244
sg1343
Vhit
p2664
sg7
g2630
sbasg7
g162
sbsg1350
I1
sba(iconstruction
CXN
p2665
(dp2666
g234
(iconstruction
TP_SYMLINKS
p2667
(dp2668
g237
(dp2669
VN1_249
p2670
VS1_251
p2671
ssg28
I247
sg7
g162
sbsg243
VV
p2672
sg245
I1
sg7
VKICK
p2673
sg247
(iconstruction
TP_SEMFRAME
p2674
(dp2675
g144
g0
(g132
g2
Ntp2676
Rp2677
(dp2678
g136
(dp2679
(iconstruction
TP_NODE
p2680
(dp2681
g256
I00
sg257
g790
sg7
g2670
sg1314
I00
sg1315
I00
sg28
I249
sb(dp2682
g1314
I00
sg257
g790
ss(iconstruction
TP_NODE
p2683
(dp2684
g256
I01
sg257
g748
sg7
VACT_248
p2685
sg1314
I01
sg1315
I00
sg28
I248
sb(dp2686
g1314
I01
sg257
g748
sssg138
g139
sg140
g139
sg141
(dp2687
g2680
(dp2688
sg2683
(dp2689
g2680
(dp2690
g257
g895
ssssg143
g2687
sg144
(dp2691
sg146
g139
sg147
g2687
sg148
(dp2692
g2680
(dp2693
g2683
g2690
ssg2683
(dp2694
ssbsg739
(lp2695
g2683
ag2680
asg1011
(lp2696
(iconstruction
TP_REL
p2697
(dp2698
g1017
g2680
sg257
g895
sg28
I250
sg1018
g2683
sg7
VIS_250
p2699
sbasg28
I245
sg7
g162
sbsg1329
(iconstruction
TP_SYNFORM
p2700
(dp2701
g28
I246
sg1332
(lp2702
(iconstruction
TP_PHON
p2703
(dp2704
g1342
I4
sg1339
I0
sg28
I251
sg1343
Vkick
p2705
sg7
g2671
sbasg7
g162
sbsg1350
I1
sba(iconstruction
CXN
p2706
(dp2707
g234
(iconstruction
TP_SYMLINKS
p2708
(dp2709
g237
(dp2710
VN1_256
p2711
VS1_258
p2712
ssg28
I254
sg7
g162
sbsg243
VV
p2713
sg245
I1
sg7
VPUNCH
p2714
sg247
(iconstruction
TP_SEMFRAME
p2715
(dp2716
g144
g0
(g132
g2
Ntp2717
Rp2718
(dp2719
g136
(dp2720
(iconstruction
TP_NODE
p2721
(dp2722
g256
I01
sg257
g748
sg7
VACT_255
p2723
sg1314
I01
sg1315
I00
sg28
I255
sb(dp2724
g1314
I01
sg257
g748
ss(iconstruction
TP_NODE
p2725
(dp2726
g256
I00
sg257
g775
sg7
g2711
sg1314
I00
sg1315
I00
sg28
I256
sb(dp2727
g1314
I00
sg257
g775
sssg138
g139
sg140
g139
sg141
(dp2728
g2721
(dp2729
g2725
(dp2730
g257
g895
sssg2725
(dp2731
ssg143
g2728
sg144
(dp2732
sg146
g139
sg147
g2728
sg148
(dp2733
g2721
(dp2734
sg2725
(dp2735
g2721
g2730
sssbsg739
(lp2736
g2721
ag2725
asg1011
(lp2737
(iconstruction
TP_REL
p2738
(dp2739
g1017
g2725
sg257
g895
sg28
I257
sg1018
g2721
sg7
VIS_257
p2740
sbasg28
I252
sg7
g162
sbsg1329
(iconstruction
TP_SYNFORM
p2741
(dp2742
g28
I253
sg1332
(lp2743
(iconstruction
TP_PHON
p2744
(dp2745
g1342
I5
sg1339
I0
sg28
I258
sg1343
Vpunch
p2746
sg7
g2712
sbasg7
g162
sbsg1350
I1
sba(iconstruction
CXN
p2747
(dp2748
g234
(iconstruction
TP_SYMLINKS
p2749
(dp2750
g237
(dp2751
VN1_263
p2752
VS1_265
p2753
ssg28
I261
sg7
g162
sbsg243
VV
p2754
sg245
I1
sg7
VWEAR
p2755
sg247
(iconstruction
TP_SEMFRAME
p2756
(dp2757
g144
g0
(g132
g2
Ntp2758
Rp2759
(dp2760
g136
(dp2761
(iconstruction
TP_NODE
p2762
(dp2763
g256
I00
sg257
g793
sg7
g2752
sg1314
I00
sg1315
I00
sg28
I263
sb(dp2764
g1314
I00
sg257
g793
ss(iconstruction
TP_NODE
p2765
(dp2766
g256
I01
sg257
g748
sg7
VACT_262
p2767
sg1314
I01
sg1315
I00
sg28
I262
sb(dp2768
g1314
I01
sg257
g748
sssg138
g139
sg140
g139
sg141
(dp2769
g2762
(dp2770
sg2765
(dp2771
g2762
(dp2772
g257
g895
ssssg143
g2769
sg144
(dp2773
sg146
g139
sg147
g2769
sg148
(dp2774
g2762
(dp2775
g2765
g2772
ssg2765
(dp2776
ssbsg739
(lp2777
g2765
ag2762
asg1011
(lp2778
(iconstruction
TP_REL
p2779
(dp2780
g1017
g2762
sg257
g895
sg28
I264
sg1018
g2765
sg7
VIS_264
p2781
sbasg28
I259
sg7
g162
sbsg1329
(iconstruction
TP_SYNFORM
p2782
(dp2783
g28
I260
sg1332
(lp2784
(iconstruction
TP_PHON
p2785
(dp2786
g1342
I4
sg1339
I0
sg28
I265
sg1343
Vwear
p2787
sg7
g2753
sbasg7
g162
sbsg1350
I1
sba(iconstruction
CXN
p2788
(dp2789
g234
(iconstruction
TP_SYMLINKS
p2790
(dp2791
g237
(dp2792
VN1_270
p2793
VS1_272
p2794
ssg28
I268
sg7
g162
sbsg243
VV
p2795
sg245
I1
sg7
VLAUGH
p2796
sg247
(iconstruction
TP_SEMFRAME
p2797
(dp2798
g144
g0
(g132
g2
Ntp2799
Rp2800
(dp2801
g136
(dp2802
(iconstruction
TP_NODE
p2803
(dp2804
g256
I01
sg257
g748
sg7
VACT_269
p2805
sg1314
I01
sg1315
I00
sg28
I269
sb(dp2806
g1314
I01
sg257
g748
ss(iconstruction
TP_NODE
p2807
(dp2808
g256
I00
sg257
g763
sg7
g2793
sg1314
I00
sg1315
I00
sg28
I270
sb(dp2809
g1314
I00
sg257
g763
sssg138
g139
sg140
g139
sg141
(dp2810
g2803
(dp2811
g2807
(dp2812
g257
g895
sssg2807
(dp2813
ssg143
g2810
sg144
(dp2814
sg146
g139
sg147
g2810
sg148
(dp2815
g2803
(dp2816
sg2807
(dp2817
g2803
g2812
sssbsg739
(lp2818
g2803
ag2807
asg1011
(lp2819
(iconstruction
TP_REL
p2820
(dp2821
g1017
g2807
sg257
g895
sg28
I271
sg1018
g2803
sg7
VIS_271
p2822
sbasg28
I266
sg7
g162
sbsg1329
(iconstruction
TP_SYNFORM
p2823
(dp2824
g28
I267
sg1332
(lp2825
(iconstruction
TP_PHON
p2826
(dp2827
g1342
I5
sg1339
I0
sg28
I272
sg1343
Vlaugh
p2828
sg7
g2794
sbasg7
g162
sbsg1350
I1
sba(iconstruction
CXN
p2829
(dp2830
g234
(iconstruction
TP_SYMLINKS
p2831
(dp2832
g237
(dp2833
VN1_277
p2834
VS1_279
p2835
ssg28
I275
sg7
g162
sbsg243
VV
p2836
sg245
I1
sg7
VWATCH
p2837
sg247
(iconstruction
TP_SEMFRAME
p2838
(dp2839
g144
g0
(g132
g2
Ntp2840
Rp2841
(dp2842
g136
(dp2843
(iconstruction
TP_NODE
p2844
(dp2845
g256
I00
sg257
g772
sg7
g2834
sg1314
I00
sg1315
I00
sg28
I277
sb(dp2846
g1314
I00
sg257
g772
ss(iconstruction
TP_NODE
p2847
(dp2848
g256
I01
sg257
g748
sg7
VACT_276
p2849
sg1314
I01
sg1315
I00
sg28
I276
sb(dp2850
g1314
I01
sg257
g748
sssg138
g139
sg140
g139
sg141
(dp2851
g2844
(dp2852
sg2847
(dp2853
g2844
(dp2854
g257
g895
ssssg143
g2851
sg144
(dp2855
sg146
g139
sg147
g2851
sg148
(dp2856
g2844
(dp2857
g2847
g2854
ssg2847
(dp2858
ssbsg739
(lp2859
g2847
ag2844
asg1011
(lp2860
(iconstruction
TP_REL
p2861
(dp2862
g1017
g2844
sg257
g895
sg28
I278
sg1018
g2847
sg7
VIS_278
p2863
sbasg28
I273
sg7
g162
sbsg1329
(iconstruction
TP_SYNFORM
p2864
(dp2865
g28
I274
sg1332
(lp2866
(iconstruction
TP_PHON
p2867
(dp2868
g1342
I5
sg1339
I0
sg28
I279
sg1343
Vwatch
p2869
sg7
g2835
sbasg7
g162
sbsg1350
I1
sba(iconstruction
CXN
p2870
(dp2871
g234
(iconstruction
TP_SYMLINKS
p2872
(dp2873
g237
(dp2874
VN1_284
p2875
VS1_286
p2876
ssg28
I282
sg7
g162
sbsg243
VV
p2877
sg245
I1
sg7
VTALK
p2878
sg247
(iconstruction
TP_SEMFRAME
p2879
(dp2880
g144
g0
(g132
g2
Ntp2881
Rp2882
(dp2883
g136
(dp2884
(iconstruction
TP_NODE
p2885
(dp2886
g256
I00
sg257
g781
sg7
g2875
sg1314
I00
sg1315
I00
sg28
I284
sb(dp2887
g1314
I00
sg257
g781
ss(iconstruction
TP_NODE
p2888
(dp2889
g256
I01
sg257
g748
sg7
VACT_283
p2890
sg1314
I01
sg1315
I00
sg28
I283
sb(dp2891
g1314
I01
sg257
g748
sssg138
g139
sg140
g139
sg141
(dp2892
g2885
(dp2893
sg2888
(dp2894
g2885
(dp2895
g257
g895
ssssg143
g2892
sg144
(dp2896
sg146
g139
sg147
g2892
sg148
(dp2897
g2885
(dp2898
g2888
g2895
ssg2888
(dp2899
ssbsg739
(lp2900
g2888
ag2885
asg1011
(lp2901
(iconstruction
TP_REL
p2902
(dp2903
g1017
g2885
sg257
g895
sg28
I285
sg1018
g2888
sg7
VIS_285
p2904
sbasg28
I280
sg7
g162
sbsg1329
(iconstruction
TP_SYNFORM
p2905
(dp2906
g28
I281
sg1332
(lp2907
(iconstruction
TP_PHON
p2908
(dp2909
g1342
I4
sg1339
I0
sg28
I286
sg1343
Vtalk
p2910
sg7
g2876
sba(iconstruction
TP_PHON
p2911
(dp2912
g1342
I2
sg1339
I1
sg28
I287
sg1343
Vto
p2913
sg7
VS2_287
p2914
sbasg7
g162
sbsg1350
I1
sba(iconstruction
CXN
p2915
(dp2916
g234
(iconstruction
TP_SYMLINKS
p2917
(dp2918
g237
(dp2919
VN1_292
p2920
VS1_294
p2921
ssg28
I290
sg7
g162
sbsg243
VV
p2922
sg245
I1
sg7
VSQUIRT
p2923
sg247
(iconstruction
TP_SEMFRAME
p2924
(dp2925
g144
g0
(g132
g2
Ntp2926
Rp2927
(dp2928
g136
(dp2929
(iconstruction
TP_NODE
p2930
(dp2931
g256
I00
sg257
g787
sg7
g2920
sg1314
I00
sg1315
I00
sg28
I292
sb(dp2932
g1314
I00
sg257
g787
ss(iconstruction
TP_NODE
p2933
(dp2934
g256
I01
sg257
g748
sg7
VACT_291
p2935
sg1314
I01
sg1315
I00
sg28
I291
sb(dp2936
g1314
I01
sg257
g748
sssg138
g139
sg140
g139
sg141
(dp2937
g2930
(dp2938
sg2933
(dp2939
g2930
(dp2940
g257
g895
ssssg143
g2937
sg144
(dp2941
sg146
g139
sg147
g2937
sg148
(dp2942
g2930
(dp2943
g2933
g2940
ssg2933
(dp2944
ssbsg739
(lp2945
g2933
ag2930
asg1011
(lp2946
(iconstruction
TP_REL
p2947
(dp2948
g1017
g2930
sg257
g895
sg28
I293
sg1018
g2933
sg7
VIS_293
p2949
sbasg28
I288
sg7
g162
sbsg1329
(iconstruction
TP_SYNFORM
p2950
(dp2951
g28
I289
sg1332
(lp2952
(iconstruction
TP_PHON
p2953
(dp2954
g1342
I6
sg1339
I0
sg28
I294
sg1343
Vsquirt
p2955
sg7
g2921
sba(iconstruction
TP_PHON
p2956
(dp2957
g1342
I2
sg1339
I1
sg28
I295
sg1343
Vat
p2958
sg7
VS2_295
p2959
sbasg7
g162
sbsg1350
I1
sba(iconstruction
CXN
p2960
(dp2961
g234
(iconstruction
TP_SYMLINKS
p2962
(dp2963
g237
(dp2964
VN1_300
p2965
VS1_302
p2966
ssg28
I298
sg7
g162
sbsg243
VV
p2967
sg245
I1
sg7
VSPLASH
p2968
sg247
(iconstruction
TP_SEMFRAME
p2969
(dp2970
g144
g0
(g132
g2
Ntp2971
Rp2972
(dp2973
g136
(dp2974
(iconstruction
TP_NODE
p2975
(dp2976
g256
I00
sg257
g778
sg7
g2965
sg1314
I00
sg1315
I00
sg28
I300
sb(dp2977
g1314
I00
sg257
g778
ss(iconstruction
TP_NODE
p2978
(dp2979
g256
I01
sg257
g748
sg7
VACT_299
p2980
sg1314
I01
sg1315
I00
sg28
I299
sb(dp2981
g1314
I01
sg257
g748
sssg138
g139
sg140
g139
sg141
(dp2982
g2975
(dp2983
sg2978
(dp2984
g2975
(dp2985
g257
g895
ssssg143
g2982
sg144
(dp2986
sg146
g139
sg147
g2982
sg148
(dp2987
g2975
(dp2988
g2978
g2985
ssg2978
(dp2989
ssbsg739
(lp2990
g2978
ag2975
asg1011
(lp2991
(iconstruction
TP_REL
p2992
(dp2993
g1017
g2975
sg257
g895
sg28
I301
sg1018
g2978
sg7
VIS_301
p2994
sbasg28
I296
sg7
g162
sbsg1329
(iconstruction
TP_SYNFORM
p2995
(dp2996
g28
I297
sg1332
(lp2997
(iconstruction
TP_PHON
p2998
(dp2999
g1342
I6
sg1339
I0
sg28
I302
sg1343
Vsplash
p3000
sg7
g2966
sbasg7
g162
sbsg1350
I1
sba(iconstruction
CXN
p3001
(dp3002
g234
(iconstruction
TP_SYMLINKS
p3003
(dp3004
g237
(dp3005
VN1_307
p3006
VS1_309
p3007
ssg28
I305
sg7
g162
sbsg243
VV
p3008
sg245
I1
sg7
VGIVE
p3009
sg247
(iconstruction
TP_SEMFRAME
p3010
(dp3011
g144
g0
(g132
g2
Ntp3012
Rp3013
(dp3014
g136
(dp3015
(iconstruction
TP_NODE
p3016
(dp3017
g256
I01
sg257
g748
sg7
VACT_306
p3018
sg1314
I01
sg1315
I00
sg28
I306
sb(dp3019
g1314
I01
sg257
g748
ss(iconstruction
TP_NODE
p3020
(dp3021
g256
I00
sg257
g802
sg7
g3006
sg1314
I00
sg1315
I00
sg28
I307
sb(dp3022
g1314
I00
sg257
g802
sssg138
g139
sg140
g139
sg141
(dp3023
g3016
(dp3024
g3020
(dp3025
g257
g895
sssg3020
(dp3026
ssg143
g3023
sg144
(dp3027
sg146
g139
sg147
g3023
sg148
(dp3028
g3016
(dp3029
sg3020
(dp3030
g3016
g3025
sssbsg739
(lp3031
g3016
ag3020
asg1011
(lp3032
(iconstruction
TP_REL
p3033
(dp3034
g1017
g3020
sg257
g895
sg28
I308
sg1018
g3016
sg7
VIS_308
p3035
sbasg28
I303
sg7
g162
sbsg1329
(iconstruction
TP_SYNFORM
p3036
(dp3037
g28
I304
sg1332
(lp3038
(iconstruction
TP_PHON
p3039
(dp3040
g1342
I4
sg1339
I0
sg28
I309
sg1343
Vgive
p3041
sg7
g3007
sbasg7
g162
sbsg1350
I1
sba(iconstruction
CXN
p3042
(dp3043
g234
(iconstruction
TP_SYMLINKS
p3044
(dp3045
g237
(dp3046
VN1_314
p3047
VS1_316
p3048
ssg28
I312
sg7
g162
sbsg243
VV
p3049
sg245
I1
sg7
VSEND
p3050
sg247
(iconstruction
TP_SEMFRAME
p3051
(dp3052
g144
g0
(g132
g2
Ntp3053
Rp3054
(dp3055
g136
(dp3056
(iconstruction
TP_NODE
p3057
(dp3058
g256
I00
sg257
g799
sg7
g3047
sg1314
I00
sg1315
I00
sg28
I314
sb(dp3059
g1314
I00
sg257
g799
ss(iconstruction
TP_NODE
p3060
(dp3061
g256
I01
sg257
g748
sg7
VACT_313
p3062
sg1314
I01
sg1315
I00
sg28
I313
sb(dp3063
g1314
I01
sg257
g748
sssg138
g139
sg140
g139
sg141
(dp3064
g3057
(dp3065
sg3060
(dp3066
g3057
(dp3067
g257
g895
ssssg143
g3064
sg144
(dp3068
sg146
g139
sg147
g3064
sg148
(dp3069
g3057
(dp3070
g3060
g3067
ssg3060
(dp3071
ssbsg739
(lp3072
g3060
ag3057
asg1011
(lp3073
(iconstruction
TP_REL
p3074
(dp3075
g1017
g3057
sg257
g895
sg28
I315
sg1018
g3060
sg7
VIS_315
p3076
sbasg28
I310
sg7
g162
sbsg1329
(iconstruction
TP_SYNFORM
p3077
(dp3078
g28
I311
sg1332
(lp3079
(iconstruction
TP_PHON
p3080
(dp3081
g1342
I4
sg1339
I0
sg28
I316
sg1343
Vsend
p3082
sg7
g3048
sbasg7
g162
sbsg1350
I1
sba(iconstruction
CXN
p3083
(dp3084
g234
(iconstruction
TP_SYMLINKS
p3085
(dp3086
g237
(dp3087
VN1_321
p3088
VS1_323
p3089
ssg28
I319
sg7
g162
sbsg243
VV
p3090
sg245
I1
sg7
VMEET
p3091
sg247
(iconstruction
TP_SEMFRAME
p3092
(dp3093
g144
g0
(g132
g2
Ntp3094
Rp3095
(dp3096
g136
(dp3097
(iconstruction
TP_NODE
p3098
(dp3099
g256
I01
sg257
g748
sg7
VACT_320
p3100
sg1314
I01
sg1315
I00
sg28
I320
sb(dp3101
g1314
I01
sg257
g748
ss(iconstruction
TP_NODE
p3102
(dp3103
g256
I00
sg257
g754
sg7
g3088
sg1314
I00
sg1315
I00
sg28
I321
sb(dp3104
g1314
I00
sg257
g754
sssg138
g139
sg140
g139
sg141
(dp3105
g3098
(dp3106
g3102
(dp3107
g257
g895
sssg3102
(dp3108
ssg143
g3105
sg144
(dp3109
sg146
g139
sg147
g3105
sg148
(dp3110
g3098
(dp3111
sg3102
(dp3112
g3098
g3107
sssbsg739
(lp3113
g3098
ag3102
asg1011
(lp3114
(iconstruction
TP_REL
p3115
(dp3116
g1017
g3102
sg257
g895
sg28
I322
sg1018
g3098
sg7
VIS_322
p3117
sbasg28
I317
sg7
g162
sbsg1329
(iconstruction
TP_SYNFORM
p3118
(dp3119
g28
I318
sg1332
(lp3120
(iconstruction
TP_PHON
p3121
(dp3122
g1342
I4
sg1339
I0
sg28
I323
sg1343
Vmeet
p3123
sg7
g3089
sbasg7
g162
sbsg1350
I1
sba(iconstruction
CXN
p3124
(dp3125
g234
(iconstruction
TP_SYMLINKS
p3126
(dp3127
g237
(dp3128
VN1_328
p3129
VS1_330
p3130
ssg28
I326
sg7
g162
sbsg243
VV
p3131
sg245
I1
sg7
VKISS
p3132
sg247
(iconstruction
TP_SEMFRAME
p3133
(dp3134
g144
g0
(g132
g2
Ntp3135
Rp3136
(dp3137
g136
(dp3138
(iconstruction
TP_NODE
p3139
(dp3140
g256
I01
sg257
g748
sg7
VACT_327
p3141
sg1314
I01
sg1315
I00
sg28
I327
sb(dp3142
g1314
I01
sg257
g748
ss(iconstruction
TP_NODE
p3143
(dp3144
g256
I00
sg257
g784
sg7
g3129
sg1314
I00
sg1315
I00
sg28
I328
sb(dp3145
g1314
I00
sg257
g784
sssg138
g139
sg140
g139
sg141
(dp3146
g3139
(dp3147
g3143
(dp3148
g257
g895
sssg3143
(dp3149
ssg143
g3146
sg144
(dp3150
sg146
g139
sg147
g3146
sg148
(dp3151
g3139
(dp3152
sg3143
(dp3153
g3139
g3148
sssbsg739
(lp3154
g3139
ag3143
asg1011
(lp3155
(iconstruction
TP_REL
p3156
(dp3157
g1017
g3143
sg257
g895
sg28
I329
sg1018
g3139
sg7
VIS_329
p3158
sbasg28
I324
sg7
g162
sbsg1329
(iconstruction
TP_SYNFORM
p3159
(dp3160
g28
I325
sg1332
(lp3161
(iconstruction
TP_PHON
p3162
(dp3163
g1342
I4
sg1339
I0
sg28
I330
sg1343
Vkiss
p3164
sg7
g3130
sbasg7
g162
sbsg1350
I1
sba(iconstruction
CXN
p3165
(dp3166
g234
(iconstruction
TP_SYMLINKS
p3167
(dp3168
g237
(dp3169
VN1_335
p3170
VS1_337
p3171
ssg28
I333
sg7
g162
sbsg243
VV
p3172
sg245
I1
sg7
VSHAKE_HANDS
p3173
sg247
(iconstruction
TP_SEMFRAME
p3174
(dp3175
g144
g0
(g132
g2
Ntp3176
Rp3177
(dp3178
g136
(dp3179
(iconstruction
TP_NODE
p3180
(dp3181
g256
I00
sg257
g757
sg7
g3170
sg1314
I00
sg1315
I00
sg28
I335
sb(dp3182
g1314
I00
sg257
g757
ss(iconstruction
TP_NODE
p3183
(dp3184
g256
I01
sg257
g748
sg7
VACT_334
p3185
sg1314
I01
sg1315
I00
sg28
I334
sb(dp3186
g1314
I01
sg257
g748
sssg138
g139
sg140
g139
sg141
(dp3187
g3180
(dp3188
sg3183
(dp3189
g3180
(dp3190
g257
g895
ssssg143
g3187
sg144
(dp3191
sg146
g139
sg147
g3187
sg148
(dp3192
g3180
(dp3193
g3183
g3190
ssg3183
(dp3194
ssbsg739
(lp3195
g3183
ag3180
asg1011
(lp3196
(iconstruction
TP_REL
p3197
(dp3198
g1017
g3180
sg257
g895
sg28
I336
sg1018
g3183
sg7
VIS_336
p3199
sbasg28
I331
sg7
g162
sbsg1329
(iconstruction
TP_SYNFORM
p3200
(dp3201
g28
I332
sg1332
(lp3202
(iconstruction
TP_PHON
p3203
(dp3204
g1342
I10
sg1339
I0
sg28
I337
sg1343
Vshake hands
p3205
sg7
g3171
sbasg7
g162
sbsg1350
I1
sba(iconstruction
CXN
p3206
(dp3207
g234
(iconstruction
TP_SYMLINKS
p3208
(dp3209
g237
(dp3210
VN1_341
p3211
VS1_342
p3212
ssg28
I340
sg7
g162
sbsg243
VA
p3213
sg245
I1
sg7
VBLUE
p3214
sg247
(iconstruction
TP_SEMFRAME
p3215
(dp3216
g144
g0
(g132
g2
Ntp3217
Rp3218
(dp3219
g136
(dp3220
(iconstruction
TP_NODE
p3221
(dp3222
g256
I01
sg257
g811
sg7
g3211
sg1314
I00
sg1315
I00
sg28
I341
sb(dp3223
g1314
I00
sg257
g811
sssg138
g139
sg140
g139
sg141
(dp3224
g3221
(dp3225
ssg143
g3224
sg144
(dp3226
sg146
g139
sg147
g3224
sg148
(dp3227
g3221
(dp3228
ssbsg739
(lp3229
g3221
asg1011
(lp3230
sg28
I338
sg7
g162
sbsg1329
(iconstruction
TP_SYNFORM
p3231
(dp3232
g28
I339
sg1332
(lp3233
(iconstruction
TP_PHON
p3234
(dp3235
g1342
I4
sg1339
I0
sg28
I342
sg1343
Vblue
p3236
sg7
g3212
sbasg7
g162
sbsg1350
I1
sba(iconstruction
CXN
p3237
(dp3238
g234
(iconstruction
TP_SYMLINKS
p3239
(dp3240
g237
(dp3241
VN1_346
p3242
VS1_347
p3243
ssg28
I345
sg7
g162
sbsg243
VA
p3244
sg245
I1
sg7
VBLACK
p3245
sg247
(iconstruction
TP_SEMFRAME
p3246
(dp3247
g144
g0
(g132
g2
Ntp3248
Rp3249
(dp3250
g136
(dp3251
(iconstruction
TP_NODE
p3252
(dp3253
g256
I01
sg257
g820
sg7
g3242
sg1314
I00
sg1315
I00
sg28
I346
sb(dp3254
g1314
I00
sg257
g820
sssg138
g139
sg140
g139
sg141
(dp3255
g3252
(dp3256
ssg143
g3255
sg144
(dp3257
sg146
g139
sg147
g3255
sg148
(dp3258
g3252
(dp3259
ssbsg739
(lp3260
g3252
asg1011
(lp3261
sg28
I343
sg7
g162
sbsg1329
(iconstruction
TP_SYNFORM
p3262
(dp3263
g28
I344
sg1332
(lp3264
(iconstruction
TP_PHON
p3265
(dp3266
g1342
I5
sg1339
I0
sg28
I347
sg1343
Vblack
p3267
sg7
g3243
sbasg7
g162
sbsg1350
I1
sba(iconstruction
CXN
p3268
(dp3269
g234
(iconstruction
TP_SYMLINKS
p3270
(dp3271
g237
(dp3272
VN1_351
p3273
VS1_352
p3274
ssg28
I350
sg7
g162
sbsg243
VA
p3275
sg245
I1
sg7
VGREEN
p3276
sg247
(iconstruction
TP_SEMFRAME
p3277
(dp3278
g144
g0
(g132
g2
Ntp3279
Rp3280
(dp3281
g136
(dp3282
(iconstruction
TP_NODE
p3283
(dp3284
g256
I01
sg257
g814
sg7
g3273
sg1314
I00
sg1315
I00
sg28
I351
sb(dp3285
g1314
I00
sg257
g814
sssg138
g139
sg140
g139
sg141
(dp3286
g3283
(dp3287
ssg143
g3286
sg144
(dp3288
sg146
g139
sg147
g3286
sg148
(dp3289
g3283
(dp3290
ssbsg739
(lp3291
g3283
asg1011
(lp3292
sg28
I348
sg7
g162
sbsg1329
(iconstruction
TP_SYNFORM
p3293
(dp3294
g28
I349
sg1332
(lp3295
(iconstruction
TP_PHON
p3296
(dp3297
g1342
I5
sg1339
I0
sg28
I352
sg1343
Vgreen
p3298
sg7
g3274
sbasg7
g162
sbsg1350
I1
sba(iconstruction
CXN
p3299
(dp3300
g234
(iconstruction
TP_SYMLINKS
p3301
(dp3302
g237
(dp3303
VN1_356
p3304
VS1_357
p3305
ssg28
I355
sg7
g162
sbsg243
VA
p3306
sg245
I1
sg7
VSMALL
p3307
sg247
(iconstruction
TP_SEMFRAME
p3308
(dp3309
g144
g0
(g132
g2
Ntp3310
Rp3311
(dp3312
g136
(dp3313
(iconstruction
TP_NODE
p3314
(dp3315
g256
I01
sg257
g841
sg7
g3304
sg1314
I00
sg1315
I00
sg28
I356
sb(dp3316
g1314
I00
sg257
g841
sssg138
g139
sg140
g139
sg141
(dp3317
g3314
(dp3318
ssg143
g3317
sg144
(dp3319
sg146
g139
sg147
g3317
sg148
(dp3320
g3314
(dp3321
ssbsg739
(lp3322
g3314
asg1011
(lp3323
sg28
I353
sg7
g162
sbsg1329
(iconstruction
TP_SYNFORM
p3324
(dp3325
g28
I354
sg1332
(lp3326
(iconstruction
TP_PHON
p3327
(dp3328
g1342
I5
sg1339
I0
sg28
I357
sg1343
Vsmall
p3329
sg7
g3305
sbasg7
g162
sbsg1350
I1
sba(iconstruction
CXN
p3330
(dp3331
g234
(iconstruction
TP_SYMLINKS
p3332
(dp3333
g237
(dp3334
VN1_361
p3335
VS1_362
p3336
ssg28
I360
sg7
g162
sbsg243
VA
p3337
sg245
I1
sg7
VBIG
p3338
sg247
(iconstruction
TP_SEMFRAME
p3339
(dp3340
g144
g0
(g132
g2
Ntp3341
Rp3342
(dp3343
g136
(dp3344
(iconstruction
TP_NODE
p3345
(dp3346
g256
I01
sg257
g844
sg7
g3335
sg1314
I00
sg1315
I00
sg28
I361
sb(dp3347
g1314
I00
sg257
g844
sssg138
g139
sg140
g139
sg141
(dp3348
g3345
(dp3349
ssg143
g3348
sg144
(dp3350
sg146
g139
sg147
g3348
sg148
(dp3351
g3345
(dp3352
ssbsg739
(lp3353
g3345
asg1011
(lp3354
sg28
I358
sg7
g162
sbsg1329
(iconstruction
TP_SYNFORM
p3355
(dp3356
g28
I359
sg1332
(lp3357
(iconstruction
TP_PHON
p3358
(dp3359
g1342
I3
sg1339
I0
sg28
I362
sg1343
Vbig
p3360
sg7
g3336
sbasg7
g162
sbsg1350
I1
sba(iconstruction
CXN
p3361
(dp3362
g234
(iconstruction
TP_SYMLINKS
p3363
(dp3364
g237
(dp3365
VN1_366
p3366
VS1_367
p3367
ssg28
I365
sg7
g162
sbsg243
VA
p3368
sg245
I1
sg7
VHANDSOME
p3369
sg247
(iconstruction
TP_SEMFRAME
p3370
(dp3371
g144
g0
(g132
g2
Ntp3372
Rp3373
(dp3374
g136
(dp3375
(iconstruction
TP_NODE
p3376
(dp3377
g256
I01
sg257
g835
sg7
g3366
sg1314
I00
sg1315
I00
sg28
I366
sb(dp3378
g1314
I00
sg257
g835
sssg138
g139
sg140
g139
sg141
(dp3379
g3376
(dp3380
ssg143
g3379
sg144
(dp3381
sg146
g139
sg147
g3379
sg148
(dp3382
g3376
(dp3383
ssbsg739
(lp3384
g3376
asg1011
(lp3385
sg28
I363
sg7
g162
sbsg1329
(iconstruction
TP_SYNFORM
p3386
(dp3387
g28
I364
sg1332
(lp3388
(iconstruction
TP_PHON
p3389
(dp3390
g1342
I8
sg1339
I0
sg28
I367
sg1343
Vhandsome
p3391
sg7
g3367
sbasg7
g162
sbsg1350
I1
sba(iconstruction
CXN
p3392
(dp3393
g234
(iconstruction
TP_SYMLINKS
p3394
(dp3395
g237
(dp3396
VN1_371
p3397
VS1_372
p3398
ssg28
I370
sg7
g162
sbsg243
VA
p3399
sg245
I1
sg7
VPRETTY
p3400
sg247
(iconstruction
TP_SEMFRAME
p3401
(dp3402
g144
g0
(g132
g2
Ntp3403
Rp3404
(dp3405
g136
(dp3406
(iconstruction
TP_NODE
p3407
(dp3408
g256
I01
sg257
g832
sg7
g3397
sg1314
I00
sg1315
I00
sg28
I371
sb(dp3409
g1314
I00
sg257
g832
sssg138
g139
sg140
g139
sg141
(dp3410
g3407
(dp3411
ssg143
g3410
sg144
(dp3412
sg146
g139
sg147
g3410
sg148
(dp3413
g3407
(dp3414
ssbsg739
(lp3415
g3407
asg1011
(lp3416
sg28
I368
sg7
g162
sbsg1329
(iconstruction
TP_SYNFORM
p3417
(dp3418
g28
I369
sg1332
(lp3419
(iconstruction
TP_PHON
p3420
(dp3421
g1342
I6
sg1339
I0
sg28
I372
sg1343
Vpretty
p3422
sg7
g3398
sbasg7
g162
sbsg1350
I1
sba(iconstruction
CXN
p3423
(dp3424
g234
(iconstruction
TP_SYMLINKS
p3425
(dp3426
g237
(dp3427
VN1_376
p3428
VS1_377
p3429
ssg28
I375
sg7
g162
sbsg243
VA
p3430
sg245
I1
sg7
VYOUNG
p3431
sg247
(iconstruction
TP_SEMFRAME
p3432
(dp3433
g144
g0
(g132
g2
Ntp3434
Rp3435
(dp3436
g136
(dp3437
(iconstruction
TP_NODE
p3438
(dp3439
g256
I01
sg257
g829
sg7
g3428
sg1314
I00
sg1315
I00
sg28
I376
sb(dp3440
g1314
I00
sg257
g829
sssg138
g139
sg140
g139
sg141
(dp3441
g3438
(dp3442
ssg143
g3441
sg144
(dp3443
sg146
g139
sg147
g3441
sg148
(dp3444
g3438
(dp3445
ssbsg739
(lp3446
g3438
asg1011
(lp3447
sg28
I373
sg7
g162
sbsg1329
(iconstruction
TP_SYNFORM
p3448
(dp3449
g28
I374
sg1332
(lp3450
(iconstruction
TP_PHON
p3451
(dp3452
g1342
I5
sg1339
I0
sg28
I377
sg1343
Vyoung
p3453
sg7
g3429
sbasg7
g162
sbsg1350
I1
sba(iconstruction
CXN
p3454
(dp3455
g234
(iconstruction
TP_SYMLINKS
p3456
(dp3457
g237
(dp3458
VN1_382
p3459
VS1_384
p3460
ssg28
I380
sg7
g162
sbsg243
VN
p3461
sg245
I1
sg7
VWOMAN
p3462
sg247
(iconstruction
TP_SEMFRAME
p3463
(dp3464
g144
g0
(g132
g2
Ntp3465
Rp3466
(dp3467
g136
(dp3468
(iconstruction
TP_NODE
p3469
(dp3470
g256
I00
sg257
g967
sg7
g3459
sg1314
I00
sg1315
I00
sg28
I382
sb(dp3471
g1314
I00
sg257
g967
ss(iconstruction
TP_NODE
p3472
(dp3473
g256
I01
sg257
g901
sg7
VENT_381
p3474
sg1314
I01
sg1315
I00
sg28
I381
sb(dp3475
g1314
I01
sg257
g901
sssg138
g139
sg140
g139
sg141
(dp3476
g3469
(dp3477
sg3472
(dp3478
g3469
(dp3479
g257
g895
ssssg143
g3476
sg144
(dp3480
sg146
g139
sg147
g3476
sg148
(dp3481
g3469
(dp3482
g3472
g3479
ssg3472
(dp3483
ssbsg739
(lp3484
g3472
ag3469
asg1011
(lp3485
(iconstruction
TP_REL
p3486
(dp3487
g1017
g3469
sg257
g895
sg28
I383
sg1018
g3472
sg7
VIS_383
p3488
sbasg28
I378
sg7
g162
sbsg1329
(iconstruction
TP_SYNFORM
p3489
(dp3490
g28
I379
sg1332
(lp3491
(iconstruction
TP_PHON
p3492
(dp3493
g1342
I5
sg1339
I0
sg28
I384
sg1343
Vwoman
p3494
sg7
g3460
sbasg7
g162
sbsg1350
I1
sba(iconstruction
CXN
p3495
(dp3496
g234
(iconstruction
TP_SYMLINKS
p3497
(dp3498
g237
(dp3499
VN1_389
p3500
VS1_391
p3501
ssg28
I387
sg7
g162
sbsg243
VN
p3502
sg245
I1
sg7
VWOMAN2
p3503
sg247
(iconstruction
TP_SEMFRAME
p3504
(dp3505
g144
g0
(g132
g2
Ntp3506
Rp3507
(dp3508
g136
(dp3509
(iconstruction
TP_NODE
p3510
(dp3511
g256
I01
sg257
g901
sg7
VENT_388
p3512
sg1314
I01
sg1315
I00
sg28
I388
sb(dp3513
g1314
I01
sg257
g901
ss(iconstruction
TP_NODE
p3514
(dp3515
g256
I00
sg257
g967
sg7
g3500
sg1314
I00
sg1315
I00
sg28
I389
sb(dp3516
g1314
I00
sg257
g967
sssg138
g139
sg140
g139
sg141
(dp3517
g3510
(dp3518
g3514
(dp3519
g257
g895
sssg3514
(dp3520
ssg143
g3517
sg144
(dp3521
sg146
g139
sg147
g3517
sg148
(dp3522
g3510
(dp3523
sg3514
(dp3524
g3510
g3519
sssbsg739
(lp3525
g3510
ag3514
asg1011
(lp3526
(iconstruction
TP_REL
p3527
(dp3528
g1017
g3514
sg257
g895
sg28
I390
sg1018
g3510
sg7
VIS_390
p3529
sbasg28
I385
sg7
g162
sbsg1329
(iconstruction
TP_SYNFORM
p3530
(dp3531
g28
I386
sg1332
(lp3532
(iconstruction
TP_PHON
p3533
(dp3534
g1342
I4
sg1339
I0
sg28
I391
sg1343
Vlady
p3535
sg7
g3501
sbasg7
g162
sbsg1350
I1
sba(iconstruction
CXN
p3536
(dp3537
g234
(iconstruction
TP_SYMLINKS
p3538
(dp3539
g237
(dp3540
VN1_396
p3541
VS1_398
p3542
ssg28
I394
sg7
g162
sbsg243
VN
p3543
sg245
I1
sg7
VMAN
p3544
sg247
(iconstruction
TP_SEMFRAME
p3545
(dp3546
g144
g0
(g132
g2
Ntp3547
Rp3548
(dp3549
g136
(dp3550
(iconstruction
TP_NODE
p3551
(dp3552
g256
I00
sg257
g994
sg7
g3541
sg1314
I00
sg1315
I00
sg28
I396
sb(dp3553
g1314
I00
sg257
g994
ss(iconstruction
TP_NODE
p3554
(dp3555
g256
I01
sg257
g901
sg7
VENT_395
p3556
sg1314
I01
sg1315
I00
sg28
I395
sb(dp3557
g1314
I01
sg257
g901
sssg138
g139
sg140
g139
sg141
(dp3558
g3551
(dp3559
sg3554
(dp3560
g3551
(dp3561
g257
g895
ssssg143
g3558
sg144
(dp3562
sg146
g139
sg147
g3558
sg148
(dp3563
g3551
(dp3564
g3554
g3561
ssg3554
(dp3565
ssbsg739
(lp3566
g3554
ag3551
asg1011
(lp3567
(iconstruction
TP_REL
p3568
(dp3569
g1017
g3551
sg257
g895
sg28
I397
sg1018
g3554
sg7
VIS_397
p3570
sbasg28
I392
sg7
g162
sbsg1329
(iconstruction
TP_SYNFORM
p3571
(dp3572
g28
I393
sg1332
(lp3573
(iconstruction
TP_PHON
p3574
(dp3575
g1342
I3
sg1339
I0
sg28
I398
sg1343
Vman
p3576
sg7
g3542
sbasg7
g162
sbsg1350
I1
sba(iconstruction
CXN
p3577
(dp3578
g234
(iconstruction
TP_SYMLINKS
p3579
(dp3580
g237
(dp3581
VN1_403
p3582
VS1_405
p3583
ssg28
I401
sg7
g162
sbsg243
VN
p3584
sg245
I1
sg7
VGIRL
p3585
sg247
(iconstruction
TP_SEMFRAME
p3586
(dp3587
g144
g0
(g132
g2
Ntp3588
Rp3589
(dp3590
g136
(dp3591
(iconstruction
TP_NODE
p3592
(dp3593
g256
I00
sg257
g985
sg7
g3582
sg1314
I00
sg1315
I00
sg28
I403
sb(dp3594
g1314
I00
sg257
g985
ss(iconstruction
TP_NODE
p3595
(dp3596
g256
I01
sg257
g901
sg7
VENT_402
p3597
sg1314
I01
sg1315
I00
sg28
I402
sb(dp3598
g1314
I01
sg257
g901
sssg138
g139
sg140
g139
sg141
(dp3599
g3592
(dp3600
sg3595
(dp3601
g3592
(dp3602
g257
g895
ssssg143
g3599
sg144
(dp3603
sg146
g139
sg147
g3599
sg148
(dp3604
g3592
(dp3605
g3595
g3602
ssg3595
(dp3606
ssbsg739
(lp3607
g3595
ag3592
asg1011
(lp3608
(iconstruction
TP_REL
p3609
(dp3610
g1017
g3592
sg257
g895
sg28
I404
sg1018
g3595
sg7
VIS_404
p3611
sbasg28
I399
sg7
g162
sbsg1329
(iconstruction
TP_SYNFORM
p3612
(dp3613
g28
I400
sg1332
(lp3614
(iconstruction
TP_PHON
p3615
(dp3616
g1342
I4
sg1339
I0
sg28
I405
sg1343
Vgirl
p3617
sg7
g3583
sbasg7
g162
sbsg1350
I1
sba(iconstruction
CXN
p3618
(dp3619
g234
(iconstruction
TP_SYMLINKS
p3620
(dp3621
g237
(dp3622
VN1_410
p3623
VS1_412
p3624
ssg28
I408
sg7
g162
sbsg243
VN
p3625
sg245
I1
sg7
VBOY
p3626
sg247
(iconstruction
TP_SEMFRAME
p3627
(dp3628
g144
g0
(g132
g2
Ntp3629
Rp3630
(dp3631
g136
(dp3632
(iconstruction
TP_NODE
p3633
(dp3634
g256
I01
sg257
g901
sg7
VENT_409
p3635
sg1314
I01
sg1315
I00
sg28
I409
sb(dp3636
g1314
I01
sg257
g901
ss(iconstruction
TP_NODE
p3637
(dp3638
g256
I00
sg257
g964
sg7
g3623
sg1314
I00
sg1315
I00
sg28
I410
sb(dp3639
g1314
I00
sg257
g964
sssg138
g139
sg140
g139
sg141
(dp3640
g3633
(dp3641
g3637
(dp3642
g257
g895
sssg3637
(dp3643
ssg143
g3640
sg144
(dp3644
sg146
g139
sg147
g3640
sg148
(dp3645
g3633
(dp3646
sg3637
(dp3647
g3633
g3642
sssbsg739
(lp3648
g3633
ag3637
asg1011
(lp3649
(iconstruction
TP_REL
p3650
(dp3651
g1017
g3637
sg257
g895
sg28
I411
sg1018
g3633
sg7
VIS_411
p3652
sbasg28
I406
sg7
g162
sbsg1329
(iconstruction
TP_SYNFORM
p3653
(dp3654
g28
I407
sg1332
(lp3655
(iconstruction
TP_PHON
p3656
(dp3657
g1342
I3
sg1339
I0
sg28
I412
sg1343
Vboy
p3658
sg7
g3624
sbasg7
g162
sbsg1350
I1
sba(iconstruction
CXN
p3659
(dp3660
g234
(iconstruction
TP_SYMLINKS
p3661
(dp3662
g237
(dp3663
VN1_417
p3664
VS1_419
p3665
ssg28
I415
sg7
g162
sbsg243
VN
p3666
sg245
I1
sg7
VPEOPLE
p3667
sg247
(iconstruction
TP_SEMFRAME
p3668
(dp3669
g144
g0
(g132
g2
Ntp3670
Rp3671
(dp3672
g136
(dp3673
(iconstruction
TP_NODE
p3674
(dp3675
g256
I00
sg257
g970
sg7
g3664
sg1314
I00
sg1315
I00
sg28
I417
sb(dp3676
g1314
I00
sg257
g970
ss(iconstruction
TP_NODE
p3677
(dp3678
g256
I01
sg257
g901
sg7
VENT_416
p3679
sg1314
I01
sg1315
I00
sg28
I416
sb(dp3680
g1314
I01
sg257
g901
sssg138
g139
sg140
g139
sg141
(dp3681
g3674
(dp3682
sg3677
(dp3683
g3674
(dp3684
g257
g895
ssssg143
g3681
sg144
(dp3685
sg146
g139
sg147
g3681
sg148
(dp3686
g3674
(dp3687
g3677
g3684
ssg3677
(dp3688
ssbsg739
(lp3689
g3677
ag3674
asg1011
(lp3690
(iconstruction
TP_REL
p3691
(dp3692
g1017
g3674
sg257
g895
sg28
I418
sg1018
g3677
sg7
VIS_418
p3693
sbasg28
I413
sg7
g162
sbsg1329
(iconstruction
TP_SYNFORM
p3694
(dp3695
g28
I414
sg1332
(lp3696
(iconstruction
TP_PHON
p3697
(dp3698
g1342
I6
sg1339
I0
sg28
I419
sg1343
Vpeople
p3699
sg7
g3665
sbasg7
g162
sbsg1350
I1
sba(iconstruction
CXN
p3700
(dp3701
g234
(iconstruction
TP_SYMLINKS
p3702
(dp3703
g237
(dp3704
VN1_424
p3705
VS1_426
p3706
ssg28
I422
sg7
g162
sbsg243
VN
p3707
sg245
I1
sg7
VMOUSE
p3708
sg247
(iconstruction
TP_SEMFRAME
p3709
(dp3710
g144
g0
(g132
g2
Ntp3711
Rp3712
(dp3713
g136
(dp3714
(iconstruction
TP_NODE
p3715
(dp3716
g256
I01
sg257
g901
sg7
VENT_423
p3717
sg1314
I01
sg1315
I00
sg28
I423
sb(dp3718
g1314
I01
sg257
g901
ss(iconstruction
TP_NODE
p3719
(dp3720
g256
I00
sg257
g958
sg7
g3705
sg1314
I00
sg1315
I00
sg28
I424
sb(dp3721
g1314
I00
sg257
g958
sssg138
g139
sg140
g139
sg141
(dp3722
g3715
(dp3723
g3719
(dp3724
g257
g895
sssg3719
(dp3725
ssg143
g3722
sg144
(dp3726
sg146
g139
sg147
g3722
sg148
(dp3727
g3715
(dp3728
sg3719
(dp3729
g3715
g3724
sssbsg739
(lp3730
g3715
ag3719
asg1011
(lp3731
(iconstruction
TP_REL
p3732
(dp3733
g1017
g3719
sg257
g895
sg28
I425
sg1018
g3715
sg7
VIS_425
p3734
sbasg28
I420
sg7
g162
sbsg1329
(iconstruction
TP_SYNFORM
p3735
(dp3736
g28
I421
sg1332
(lp3737
(iconstruction
TP_PHON
p3738
(dp3739
g1342
I5
sg1339
I0
sg28
I426
sg1343
Vmouse
p3740
sg7
g3706
sbasg7
g162
sbsg1350
I1
sba(iconstruction
CXN
p3741
(dp3742
g234
(iconstruction
TP_SYMLINKS
p3743
(dp3744
g237
(dp3745
VN1_431
p3746
VS1_433
p3747
ssg28
I429
sg7
g162
sbsg243
VN
p3748
sg245
I1
sg7
VTURTLE
p3749
sg247
(iconstruction
TP_SEMFRAME
p3750
(dp3751
g144
g0
(g132
g2
Ntp3752
Rp3753
(dp3754
g136
(dp3755
(iconstruction
TP_NODE
p3756
(dp3757
g256
I00
sg257
g955
sg7
g3746
sg1314
I00
sg1315
I00
sg28
I431
sb(dp3758
g1314
I00
sg257
g955
ss(iconstruction
TP_NODE
p3759
(dp3760
g256
I01
sg257
g901
sg7
VENT_430
p3761
sg1314
I01
sg1315
I00
sg28
I430
sb(dp3762
g1314
I01
sg257
g901
sssg138
g139
sg140
g139
sg141
(dp3763
g3756
(dp3764
sg3759
(dp3765
g3756
(dp3766
g257
g895
ssssg143
g3763
sg144
(dp3767
sg146
g139
sg147
g3763
sg148
(dp3768
g3756
(dp3769
g3759
g3766
ssg3759
(dp3770
ssbsg739
(lp3771
g3759
ag3756
asg1011
(lp3772
(iconstruction
TP_REL
p3773
(dp3774
g1017
g3756
sg257
g895
sg28
I432
sg1018
g3759
sg7
VIS_432
p3775
sbasg28
I427
sg7
g162
sbsg1329
(iconstruction
TP_SYNFORM
p3776
(dp3777
g28
I428
sg1332
(lp3778
(iconstruction
TP_PHON
p3779
(dp3780
g1342
I6
sg1339
I0
sg28
I433
sg1343
Vturtle
p3781
sg7
g3747
sbasg7
g162
sbsg1350
I1
sba(iconstruction
CXN
p3782
(dp3783
g234
(iconstruction
TP_SYMLINKS
p3784
(dp3785
g237
(dp3786
VN1_438
p3787
VS1_440
p3788
ssg28
I436
sg7
g162
sbsg243
VN
p3789
sg245
I1
sg7
VDRESS
p3790
sg247
(iconstruction
TP_SEMFRAME
p3791
(dp3792
g144
g0
(g132
g2
Ntp3793
Rp3794
(dp3795
g136
(dp3796
(iconstruction
TP_NODE
p3797
(dp3798
g256
I00
sg257
g946
sg7
g3787
sg1314
I00
sg1315
I00
sg28
I438
sb(dp3799
g1314
I00
sg257
g946
ss(iconstruction
TP_NODE
p3800
(dp3801
g256
I01
sg257
g901
sg7
VENT_437
p3802
sg1314
I01
sg1315
I00
sg28
I437
sb(dp3803
g1314
I01
sg257
g901
sssg138
g139
sg140
g139
sg141
(dp3804
g3797
(dp3805
sg3800
(dp3806
g3797
(dp3807
g257
g895
ssssg143
g3804
sg144
(dp3808
sg146
g139
sg147
g3804
sg148
(dp3809
g3797
(dp3810
g3800
g3807
ssg3800
(dp3811
ssbsg739
(lp3812
g3800
ag3797
asg1011
(lp3813
(iconstruction
TP_REL
p3814
(dp3815
g1017
g3797
sg257
g895
sg28
I439
sg1018
g3800
sg7
VIS_439
p3816
sbasg28
I434
sg7
g162
sbsg1329
(iconstruction
TP_SYNFORM
p3817
(dp3818
g28
I435
sg1332
(lp3819
(iconstruction
TP_PHON
p3820
(dp3821
g1342
I5
sg1339
I0
sg28
I440
sg1343
Vdress
p3822
sg7
g3788
sbasg7
g162
sbsg1350
I1
sba(iconstruction
CXN
p3823
(dp3824
g234
(iconstruction
TP_SYMLINKS
p3825
(dp3826
g237
(dp3827
VN1_445
p3828
VS1_447
p3829
ssg28
I443
sg7
g162
sbsg243
VN
p3830
sg245
I1
sg7
VTSHIRT
p3831
sg247
(iconstruction
TP_SEMFRAME
p3832
(dp3833
g144
g0
(g132
g2
Ntp3834
Rp3835
(dp3836
g136
(dp3837
(iconstruction
TP_NODE
p3838
(dp3839
g256
I01
sg257
g901
sg7
VENT_444
p3840
sg1314
I01
sg1315
I00
sg28
I444
sb(dp3841
g1314
I01
sg257
g901
ss(iconstruction
TP_NODE
p3842
(dp3843
g256
I00
sg257
g943
sg7
g3828
sg1314
I00
sg1315
I00
sg28
I445
sb(dp3844
g1314
I00
sg257
g943
sssg138
g139
sg140
g139
sg141
(dp3845
g3838
(dp3846
g3842
(dp3847
g257
g895
sssg3842
(dp3848
ssg143
g3845
sg144
(dp3849
sg146
g139
sg147
g3845
sg148
(dp3850
g3838
(dp3851
sg3842
(dp3852
g3838
g3847
sssbsg739
(lp3853
g3838
ag3842
asg1011
(lp3854
(iconstruction
TP_REL
p3855
(dp3856
g1017
g3842
sg257
g895
sg28
I446
sg1018
g3838
sg7
VIS_446
p3857
sbasg28
I441
sg7
g162
sbsg1329
(iconstruction
TP_SYNFORM
p3858
(dp3859
g28
I442
sg1332
(lp3860
(iconstruction
TP_PHON
p3861
(dp3862
g1342
I6
sg1339
I0
sg28
I447
sg1343
Vt-shirt
p3863
sg7
g3829
sbasg7
g162
sbsg1350
I1
sba(iconstruction
CXN
p3864
(dp3865
g234
(iconstruction
TP_SYMLINKS
p3866
(dp3867
g237
(dp3868
VN1_452
p3869
VS2_455
p3870
ssg28
I450
sg7
g162
sbsg243
VN
p3871
sg245
I1
sg7
VBOXINGRING
p3872
sg247
(iconstruction
TP_SEMFRAME
p3873
(dp3874
g144
g0
(g132
g2
Ntp3875
Rp3876
(dp3877
g136
(dp3878
(iconstruction
TP_NODE
p3879
(dp3880
g256
I00
sg257
g1000
sg7
g3869
sg1314
I00
sg1315
I00
sg28
I452
sb(dp3881
g1314
I00
sg257
g1000
ss(iconstruction
TP_NODE
p3882
(dp3883
g256
I01
sg257
g901
sg7
VENT_451
p3884
sg1314
I01
sg1315
I00
sg28
I451
sb(dp3885
g1314
I01
sg257
g901
sssg138
g139
sg140
g139
sg141
(dp3886
g3879
(dp3887
sg3882
(dp3888
g3879
(dp3889
g257
g895
ssssg143
g3886
sg144
(dp3890
sg146
g139
sg147
g3886
sg148
(dp3891
g3879
(dp3892
g3882
g3889
ssg3882
(dp3893
ssbsg739
(lp3894
g3882
ag3879
asg1011
(lp3895
(iconstruction
TP_REL
p3896
(dp3897
g1017
g3879
sg257
g895
sg28
I453
sg1018
g3882
sg7
VIS_453
p3898
sbasg28
I448
sg7
g162
sbsg1329
(iconstruction
TP_SYNFORM
p3899
(dp3900
g28
I449
sg1332
(lp3901
(iconstruction
TP_PHON
p3902
(dp3903
g1342
I6
sg1339
I0
sg28
I454
sg1343
Vboxing
p3904
sg7
VS1_454
p3905
sba(iconstruction
TP_PHON
p3906
(dp3907
g1342
I4
sg1339
I1
sg28
I455
sg1343
Vring
p3908
sg7
g3870
sbasg7
g162
sbsg1350
I1
sba(iconstruction
CXN
p3909
(dp3910
g234
(iconstruction
TP_SYMLINKS
p3911
(dp3912
g237
(dp3913
VN1_460
p3914
VS1_462
p3915
ssg28
I458
sg7
g162
sbsg243
VN
p3916
sg245
I1
sg7
VPARK
p3917
sg247
(iconstruction
TP_SEMFRAME
p3918
(dp3919
g144
g0
(g132
g2
Ntp3920
Rp3921
(dp3922
g136
(dp3923
(iconstruction
TP_NODE
p3924
(dp3925
g256
I00
sg257
g1003
sg7
g3914
sg1314
I00
sg1315
I00
sg28
I460
sb(dp3926
g1314
I00
sg257
g1003
ss(iconstruction
TP_NODE
p3927
(dp3928
g256
I01
sg257
g901
sg7
VENT_459
p3929
sg1314
I01
sg1315
I00
sg28
I459
sb(dp3930
g1314
I01
sg257
g901
sssg138
g139
sg140
g139
sg141
(dp3931
g3924
(dp3932
sg3927
(dp3933
g3924
(dp3934
g257
g895
ssssg143
g3931
sg144
(dp3935
sg146
g139
sg147
g3931
sg148
(dp3936
g3924
(dp3937
g3927
g3934
ssg3927
(dp3938
ssbsg739
(lp3939
g3927
ag3924
asg1011
(lp3940
(iconstruction
TP_REL
p3941
(dp3942
g1017
g3924
sg257
g895
sg28
I461
sg1018
g3927
sg7
VIS_461
p3943
sbasg28
I456
sg7
g162
sbsg1329
(iconstruction
TP_SYNFORM
p3944
(dp3945
g28
I457
sg1332
(lp3946
(iconstruction
TP_PHON
p3947
(dp3948
g1342
I4
sg1339
I0
sg28
I462
sg1343
Vpark
p3949
sg7
g3915
sbasg7
g162
sbsg1350
I1
sba(iconstruction
CXN
p3950
(dp3951
g234
(iconstruction
TP_SYMLINKS
p3952
(dp3953
g237
(dp3954
VN1_467
p3955
VS1_469
p3956
ssg28
I465
sg7
g162
sbsg243
VN
p3957
sg245
I1
sg7
VSHIRT
p3958
sg247
(iconstruction
TP_SEMFRAME
p3959
(dp3960
g144
g0
(g132
g2
Ntp3961
Rp3962
(dp3963
g136
(dp3964
(iconstruction
TP_NODE
p3965
(dp3966
g256
I01
sg257
g901
sg7
VENT_466
p3967
sg1314
I01
sg1315
I00
sg28
I466
sb(dp3968
g1314
I01
sg257
g901
ss(iconstruction
TP_NODE
p3969
(dp3970
g256
I00
sg257
g949
sg7
g3955
sg1314
I00
sg1315
I00
sg28
I467
sb(dp3971
g1314
I00
sg257
g949
sssg138
g139
sg140
g139
sg141
(dp3972
g3965
(dp3973
g3969
(dp3974
g257
g895
sssg3969
(dp3975
ssg143
g3972
sg144
(dp3976
sg146
g139
sg147
g3972
sg148
(dp3977
g3965
(dp3978
sg3969
(dp3979
g3965
g3974
sssbsg739
(lp3980
g3965
ag3969
asg1011
(lp3981
(iconstruction
TP_REL
p3982
(dp3983
g1017
g3969
sg257
g895
sg28
I468
sg1018
g3965
sg7
VIS_468
p3984
sbasg28
I463
sg7
g162
sbsg1329
(iconstruction
TP_SYNFORM
p3985
(dp3986
g28
I464
sg1332
(lp3987
(iconstruction
TP_PHON
p3988
(dp3989
g1342
I5
sg1339
I0
sg28
I469
sg1343
Vshirt
p3990
sg7
g3956
sbasg7
g162
sbsg1350
I1
sba(iconstruction
CXN
p3991
(dp3992
g234
(iconstruction
TP_SYMLINKS
p3993
(dp3994
g237
(dp3995
VN1_474
p3996
VS1_476
p3997
ssg28
I472
sg7
g162
sbsg243
VN
p3998
sg245
I1
sg7
VSUIT
p3999
sg247
(iconstruction
TP_SEMFRAME
p4000
(dp4001
g144
g0
(g132
g2
Ntp4002
Rp4003
(dp4004
g136
(dp4005
(iconstruction
TP_NODE
p4006
(dp4007
g256
I00
sg257
g952
sg7
g3996
sg1314
I00
sg1315
I00
sg28
I474
sb(dp4008
g1314
I00
sg257
g952
ss(iconstruction
TP_NODE
p4009
(dp4010
g256
I01
sg257
g901
sg7
VENT_473
p4011
sg1314
I01
sg1315
I00
sg28
I473
sb(dp4012
g1314
I01
sg257
g901
sssg138
g139
sg140
g139
sg141
(dp4013
g4006
(dp4014
sg4009
(dp4015
g4006
(dp4016
g257
g895
ssssg143
g4013
sg144
(dp4017
sg146
g139
sg147
g4013
sg148
(dp4018
g4006
(dp4019
g4009
g4016
ssg4009
(dp4020
ssbsg739
(lp4021
g4009
ag4006
asg1011
(lp4022
(iconstruction
TP_REL
p4023
(dp4024
g1017
g4006
sg257
g895
sg28
I475
sg1018
g4009
sg7
VIS_475
p4025
sbasg28
I470
sg7
g162
sbsg1329
(iconstruction
TP_SYNFORM
p4026
(dp4027
g28
I471
sg1332
(lp4028
(iconstruction
TP_PHON
p4029
(dp4030
g1342
I4
sg1339
I0
sg28
I476
sg1343
Vsuit
p4031
sg7
g3997
sbasg7
g162
sbsg1350
I1
sba(iconstruction
CXN
p4032
(dp4033
g234
(iconstruction
TP_SYMLINKS
p4034
(dp4035
g237
(dp4036
VN1_481
p4037
VS1_483
p4038
ssg28
I479
sg7
g162
sbsg243
VN
p4039
sg245
I1
sg7
VCELLO
p4040
sg247
(iconstruction
TP_SEMFRAME
p4041
(dp4042
g144
g0
(g132
g2
Ntp4043
Rp4044
(dp4045
g136
(dp4046
(iconstruction
TP_NODE
p4047
(dp4048
g256
I00
sg257
g934
sg7
g4037
sg1314
I00
sg1315
I00
sg28
I481
sb(dp4049
g1314
I00
sg257
g934
ss(iconstruction
TP_NODE
p4050
(dp4051
g256
I01
sg257
g901
sg7
VENT_480
p4052
sg1314
I01
sg1315
I00
sg28
I480
sb(dp4053
g1314
I01
sg257
g901
sssg138
g139
sg140
g139
sg141
(dp4054
g4047
(dp4055
sg4050
(dp4056
g4047
(dp4057
g257
g895
ssssg143
g4054
sg144
(dp4058
sg146
g139
sg147
g4054
sg148
(dp4059
g4047
(dp4060
g4050
g4057
ssg4050
(dp4061
ssbsg739
(lp4062
g4050
ag4047
asg1011
(lp4063
(iconstruction
TP_REL
p4064
(dp4065
g1017
g4047
sg257
g895
sg28
I482
sg1018
g4050
sg7
VIS_482
p4066
sbasg28
I477
sg7
g162
sbsg1329
(iconstruction
TP_SYNFORM
p4067
(dp4068
g28
I478
sg1332
(lp4069
(iconstruction
TP_PHON
p4070
(dp4071
g1342
I5
sg1339
I0
sg28
I483
sg1343
VCELLO
p4072
sg7
g4038
sbasg7
g162
sbsg1350
I1
sba(iconstruction
CXN
p4073
(dp4074
g234
(iconstruction
TP_SYMLINKS
p4075
(dp4076
g237
(dp4077
VN1_488
p4078
VS1_490
p4079
ssg28
I486
sg7
g162
sbsg243
VN
p4080
sg245
I1
sg7
VBAG
p4081
sg247
(iconstruction
TP_SEMFRAME
p4082
(dp4083
g144
g0
(g132
g2
Ntp4084
Rp4085
(dp4086
g136
(dp4087
(iconstruction
TP_NODE
p4088
(dp4089
g256
I01
sg257
g901
sg7
VENT_487
p4090
sg1314
I01
sg1315
I00
sg28
I487
sb(dp4091
g1314
I01
sg257
g901
ss(iconstruction
TP_NODE
p4092
(dp4093
g256
I00
sg257
g925
sg7
g4078
sg1314
I00
sg1315
I00
sg28
I488
sb(dp4094
g1314
I00
sg257
g925
sssg138
g139
sg140
g139
sg141
(dp4095
g4088
(dp4096
g4092
(dp4097
g257
g895
sssg4092
(dp4098
ssg143
g4095
sg144
(dp4099
sg146
g139
sg147
g4095
sg148
(dp4100
g4088
(dp4101
sg4092
(dp4102
g4088
g4097
sssbsg739
(lp4103
g4088
ag4092
asg1011
(lp4104
(iconstruction
TP_REL
p4105
(dp4106
g1017
g4092
sg257
g895
sg28
I489
sg1018
g4088
sg7
VIS_489
p4107
sbasg28
I484
sg7
g162
sbsg1329
(iconstruction
TP_SYNFORM
p4108
(dp4109
g28
I485
sg1332
(lp4110
(iconstruction
TP_PHON
p4111
(dp4112
g1342
I3
sg1339
I0
sg28
I490
sg1343
Vbag
p4113
sg7
g4079
sbasg7
g162
sbsg1350
I1
sba(iconstruction
CXN
p4114
(dp4115
g234
(iconstruction
TP_SYMLINKS
p4116
(dp4117
g237
(dp4118
VN1_495
p4119
VS2_498
p4120
ssg28
I493
sg7
g162
sbsg243
VN
p4121
sg245
I1
sg7
VWATERING_CAN
p4122
sg247
(iconstruction
TP_SEMFRAME
p4123
(dp4124
g144
g0
(g132
g2
Ntp4125
Rp4126
(dp4127
g136
(dp4128
(iconstruction
TP_NODE
p4129
(dp4130
g256
I00
sg257
g922
sg7
g4119
sg1314
I00
sg1315
I00
sg28
I495
sb(dp4131
g1314
I00
sg257
g922
ss(iconstruction
TP_NODE
p4132
(dp4133
g256
I01
sg257
g901
sg7
VENT_494
p4134
sg1314
I01
sg1315
I00
sg28
I494
sb(dp4135
g1314
I01
sg257
g901
sssg138
g139
sg140
g139
sg141
(dp4136
g4129
(dp4137
sg4132
(dp4138
g4129
(dp4139
g257
g895
ssssg143
g4136
sg144
(dp4140
sg146
g139
sg147
g4136
sg148
(dp4141
g4129
(dp4142
g4132
g4139
ssg4132
(dp4143
ssbsg739
(lp4144
g4132
ag4129
asg1011
(lp4145
(iconstruction
TP_REL
p4146
(dp4147
g1017
g4129
sg257
g895
sg28
I496
sg1018
g4132
sg7
VIS_496
p4148
sbasg28
I491
sg7
g162
sbsg1329
(iconstruction
TP_SYNFORM
p4149
(dp4150
g28
I492
sg1332
(lp4151
(iconstruction
TP_PHON
p4152
(dp4153
g1342
I8
sg1339
I0
sg28
I497
sg1343
Vwatering
p4154
sg7
VS1_497
p4155
sba(iconstruction
TP_PHON
p4156
(dp4157
g1342
I3
sg1339
I1
sg28
I498
sg1343
Vcan
p4158
sg7
g4120
sbasg7
g162
sbsg1350
I1
sba(iconstruction
CXN
p4159
(dp4160
g234
(iconstruction
TP_SYMLINKS
p4161
(dp4162
g237
(dp4163
VN1_503
p4164
VS1_505
p4165
ssg28
I501
sg7
g162
sbsg243
VN
p4166
sg245
I1
sg7
VBALLERINA
p4167
sg247
(iconstruction
TP_SEMFRAME
p4168
(dp4169
g144
g0
(g132
g2
Ntp4170
Rp4171
(dp4172
g136
(dp4173
(iconstruction
TP_NODE
p4174
(dp4175
g256
I00
sg257
g979
sg7
g4164
sg1314
I00
sg1315
I00
sg28
I503
sb(dp4176
g1314
I00
sg257
g979
ss(iconstruction
TP_NODE
p4177
(dp4178
g256
I01
sg257
g901
sg7
VENT_502
p4179
sg1314
I01
sg1315
I00
sg28
I502
sb(dp4180
g1314
I01
sg257
g901
sssg138
g139
sg140
g139
sg141
(dp4181
g4174
(dp4182
sg4177
(dp4183
g4174
(dp4184
g257
g895
ssssg143
g4181
sg144
(dp4185
sg146
g139
sg147
g4181
sg148
(dp4186
g4174
(dp4187
g4177
g4184
ssg4177
(dp4188
ssbsg739
(lp4189
g4177
ag4174
asg1011
(lp4190
(iconstruction
TP_REL
p4191
(dp4192
g1017
g4174
sg257
g895
sg28
I504
sg1018
g4177
sg7
VIS_504
p4193
sbasg28
I499
sg7
g162
sbsg1329
(iconstruction
TP_SYNFORM
p4194
(dp4195
g28
I500
sg1332
(lp4196
(iconstruction
TP_PHON
p4197
(dp4198
g1342
I9
sg1339
I0
sg28
I505
sg1343
Vballerina
p4199
sg7
g4165
sbasg7
g162
sbsg1350
I1
sba(iconstruction
CXN
p4200
(dp4201
g234
(iconstruction
TP_SYMLINKS
p4202
(dp4203
g237
(dp4204
VN1_510
p4205
VS1_512
p4206
ssg28
I508
sg7
g162
sbsg243
VN
p4207
sg245
I1
sg7
VCELLIST
p4208
sg247
(iconstruction
TP_SEMFRAME
p4209
(dp4210
g144
g0
(g132
g2
Ntp4211
Rp4212
(dp4213
g136
(dp4214
(iconstruction
TP_NODE
p4215
(dp4216
g256
I01
sg257
g901
sg7
VENT_509
p4217
sg1314
I01
sg1315
I00
sg28
I509
sb(dp4218
g1314
I01
sg257
g901
ss(iconstruction
TP_NODE
p4219
(dp4220
g256
I00
sg257
g982
sg7
g4205
sg1314
I00
sg1315
I00
sg28
I510
sb(dp4221
g1314
I00
sg257
g982
sssg138
g139
sg140
g139
sg141
(dp4222
g4215
(dp4223
g4219
(dp4224
g257
g895
sssg4219
(dp4225
ssg143
g4222
sg144
(dp4226
sg146
g139
sg147
g4222
sg148
(dp4227
g4215
(dp4228
sg4219
(dp4229
g4215
g4224
sssbsg739
(lp4230
g4215
ag4219
asg1011
(lp4231
(iconstruction
TP_REL
p4232
(dp4233
g1017
g4219
sg257
g895
sg28
I511
sg1018
g4215
sg7
VIS_511
p4234
sbasg28
I506
sg7
g162
sbsg1329
(iconstruction
TP_SYNFORM
p4235
(dp4236
g28
I507
sg1332
(lp4237
(iconstruction
TP_PHON
p4238
(dp4239
g1342
I7
sg1339
I0
sg28
I512
sg1343
Vcellist
p4240
sg7
g4206
sbasg7
g162
sbsg1350
I1
sba(iconstruction
CXN
p4241
(dp4242
g234
(iconstruction
TP_SYMLINKS
p4243
(dp4244
g237
(dp4245
VN1_517
p4246
VS1_519
p4247
ssg28
I515
sg7
g162
sbsg243
VN
p4248
sg245
I1
sg7
VFENCER
p4249
sg247
(iconstruction
TP_SEMFRAME
p4250
(dp4251
g144
g0
(g132
g2
Ntp4252
Rp4253
(dp4254
g136
(dp4255
(iconstruction
TP_NODE
p4256
(dp4257
g256
I00
sg257
g988
sg7
g4246
sg1314
I00
sg1315
I00
sg28
I517
sb(dp4258
g1314
I00
sg257
g988
ss(iconstruction
TP_NODE
p4259
(dp4260
g256
I01
sg257
g901
sg7
VENT_516
p4261
sg1314
I01
sg1315
I00
sg28
I516
sb(dp4262
g1314
I01
sg257
g901
sssg138
g139
sg140
g139
sg141
(dp4263
g4256
(dp4264
sg4259
(dp4265
g4256
(dp4266
g257
g895
ssssg143
g4263
sg144
(dp4267
sg146
g139
sg147
g4263
sg148
(dp4268
g4256
(dp4269
g4259
g4266
ssg4259
(dp4270
ssbsg739
(lp4271
g4259
ag4256
asg1011
(lp4272
(iconstruction
TP_REL
p4273
(dp4274
g1017
g4256
sg257
g895
sg28
I518
sg1018
g4259
sg7
VIS_518
p4275
sbasg28
I513
sg7
g162
sbsg1329
(iconstruction
TP_SYNFORM
p4276
(dp4277
g28
I514
sg1332
(lp4278
(iconstruction
TP_PHON
p4279
(dp4280
g1342
I6
sg1339
I0
sg28
I519
sg1343
Vfencer
p4281
sg7
g4247
sbasg7
g162
sbsg1350
I1
sba(iconstruction
CXN
p4282
(dp4283
g234
(iconstruction
TP_SYMLINKS
p4284
(dp4285
g237
(dp4286
VN1_524
p4287
VS1_526
p4288
ssg28
I522
sg7
g162
sbsg243
VN
p4289
sg245
I1
sg7
VROBBER
p4290
sg247
(iconstruction
TP_SEMFRAME
p4291
(dp4292
g144
g0
(g132
g2
Ntp4293
Rp4294
(dp4295
g136
(dp4296
(iconstruction
TP_NODE
p4297
(dp4298
g256
I00
sg257
g991
sg7
g4287
sg1314
I00
sg1315
I00
sg28
I524
sb(dp4299
g1314
I00
sg257
g991
ss(iconstruction
TP_NODE
p4300
(dp4301
g256
I01
sg257
g901
sg7
VENT_523
p4302
sg1314
I01
sg1315
I00
sg28
I523
sb(dp4303
g1314
I01
sg257
g901
sssg138
g139
sg140
g139
sg141
(dp4304
g4297
(dp4305
sg4300
(dp4306
g4297
(dp4307
g257
g895
ssssg143
g4304
sg144
(dp4308
sg146
g139
sg147
g4304
sg148
(dp4309
g4297
(dp4310
g4300
g4307
ssg4300
(dp4311
ssbsg739
(lp4312
g4300
ag4297
asg1011
(lp4313
(iconstruction
TP_REL
p4314
(dp4315
g1017
g4297
sg257
g895
sg28
I525
sg1018
g4300
sg7
VIS_525
p4316
sbasg28
I520
sg7
g162
sbsg1329
(iconstruction
TP_SYNFORM
p4317
(dp4318
g28
I521
sg1332
(lp4319
(iconstruction
TP_PHON
p4320
(dp4321
g1342
I5
sg1339
I0
sg28
I526
sg1343
Vthief
p4322
sg7
g4288
sbasg7
g162
sbsg1350
I1
sba(iconstruction
CXN
p4323
(dp4324
g234
(iconstruction
TP_SYMLINKS
p4325
(dp4326
g237
(dp4327
VN1_531
p4328
VS1_533
p4329
ssg28
I529
sg7
g162
sbsg243
VN
p4330
sg245
I1
sg7
VPOLICEMAN
p4331
sg247
(iconstruction
TP_SEMFRAME
p4332
(dp4333
g144
g0
(g132
g2
Ntp4334
Rp4335
(dp4336
g136
(dp4337
(iconstruction
TP_NODE
p4338
(dp4339
g256
I01
sg257
g901
sg7
VENT_530
p4340
sg1314
I01
sg1315
I00
sg28
I530
sb(dp4341
g1314
I01
sg257
g901
ss(iconstruction
TP_NODE
p4342
(dp4343
g256
I00
sg257
g973
sg7
g4328
sg1314
I00
sg1315
I00
sg28
I531
sb(dp4344
g1314
I00
sg257
g973
sssg138
g139
sg140
g139
sg141
(dp4345
g4338
(dp4346
g4342
(dp4347
g257
g895
sssg4342
(dp4348
ssg143
g4345
sg144
(dp4349
sg146
g139
sg147
g4345
sg148
(dp4350
g4338
(dp4351
sg4342
(dp4352
g4338
g4347
sssbsg739
(lp4353
g4338
ag4342
asg1011
(lp4354
(iconstruction
TP_REL
p4355
(dp4356
g1017
g4342
sg257
g895
sg28
I532
sg1018
g4338
sg7
VIS_532
p4357
sbasg28
I527
sg7
g162
sbsg1329
(iconstruction
TP_SYNFORM
p4358
(dp4359
g28
I528
sg1332
(lp4360
(iconstruction
TP_PHON
p4361
(dp4362
g1342
I9
sg1339
I0
sg28
I533
sg1343
Vpoliceman
p4363
sg7
g4329
sbasg7
g162
sbsg1350
I1
sba(iconstruction
CXN
p4364
(dp4365
g234
(iconstruction
TP_SYMLINKS
p4366
(dp4367
g237
(dp4368
VN1_538
p4369
VS1_540
p4370
ssg28
I536
sg7
g162
sbsg243
VN
p4371
sg245
I1
sg7
VHUNTER
p4372
sg247
(iconstruction
TP_SEMFRAME
p4373
(dp4374
g144
g0
(g132
g2
Ntp4375
Rp4376
(dp4377
g136
(dp4378
(iconstruction
TP_NODE
p4379
(dp4380
g256
I00
sg257
g976
sg7
g4369
sg1314
I00
sg1315
I00
sg28
I538
sb(dp4381
g1314
I00
sg257
g976
ss(iconstruction
TP_NODE
p4382
(dp4383
g256
I01
sg257
g901
sg7
VENT_537
p4384
sg1314
I01
sg1315
I00
sg28
I537
sb(dp4385
g1314
I01
sg257
g901
sssg138
g139
sg140
g139
sg141
(dp4386
g4379
(dp4387
sg4382
(dp4388
g4379
(dp4389
g257
g895
ssssg143
g4386
sg144
(dp4390
sg146
g139
sg147
g4386
sg148
(dp4391
g4379
(dp4392
g4382
g4389
ssg4382
(dp4393
ssbsg739
(lp4394
g4382
ag4379
asg1011
(lp4395
(iconstruction
TP_REL
p4396
(dp4397
g1017
g4379
sg257
g895
sg28
I539
sg1018
g4382
sg7
VIS_539
p4398
sbasg28
I534
sg7
g162
sbsg1329
(iconstruction
TP_SYNFORM
p4399
(dp4400
g28
I535
sg1332
(lp4401
(iconstruction
TP_PHON
p4402
(dp4403
g1342
I6
sg1339
I0
sg28
I540
sg1343
Vhunter
p4404
sg7
g4370
sbasg7
g162
sbsg1350
I1
sba(iconstruction
CXN
p4405
(dp4406
g234
(iconstruction
TP_SYMLINKS
p4407
(dp4408
g237
(dp4409
VN1_545
p4410
VS1_547
p4411
ssg28
I543
sg7
g162
sbsg243
VN
p4412
sg245
I1
sg7
VDOG
p4413
sg247
(iconstruction
TP_SEMFRAME
p4414
(dp4415
g144
g0
(g132
g2
Ntp4416
Rp4417
(dp4418
g136
(dp4419
(iconstruction
TP_NODE
p4420
(dp4421
g256
I01
sg257
g901
sg7
VENT_544
p4422
sg1314
I01
sg1315
I00
sg28
I544
sb(dp4423
g1314
I01
sg257
g901
ss(iconstruction
TP_NODE
p4424
(dp4425
g256
I00
sg257
g961
sg7
g4410
sg1314
I00
sg1315
I00
sg28
I545
sb(dp4426
g1314
I00
sg257
g961
sssg138
g139
sg140
g139
sg141
(dp4427
g4420
(dp4428
g4424
(dp4429
g257
g895
sssg4424
(dp4430
ssg143
g4427
sg144
(dp4431
sg146
g139
sg147
g4427
sg148
(dp4432
g4420
(dp4433
sg4424
(dp4434
g4420
g4429
sssbsg739
(lp4435
g4420
ag4424
asg1011
(lp4436
(iconstruction
TP_REL
p4437
(dp4438
g1017
g4424
sg257
g895
sg28
I546
sg1018
g4420
sg7
VIS_546
p4439
sbasg28
I541
sg7
g162
sbsg1329
(iconstruction
TP_SYNFORM
p4440
(dp4441
g28
I542
sg1332
(lp4442
(iconstruction
TP_PHON
p4443
(dp4444
g1342
I3
sg1339
I0
sg28
I547
sg1343
Vdog
p4445
sg7
g4411
sbasg7
g162
sbsg1350
I1
sba(iconstruction
CXN
p4446
(dp4447
g234
(iconstruction
TP_SYMLINKS
p4448
(dp4449
g237
(dp4450
VN1_552
p4451
VS1_554
p4452
ssg28
I550
sg7
g162
sbsg243
VN
p4453
sg245
I1
sg7
VHOOK
p4454
sg247
(iconstruction
TP_SEMFRAME
p4455
(dp4456
g144
g0
(g132
g2
Ntp4457
Rp4458
(dp4459
g136
(dp4460
(iconstruction
TP_NODE
p4461
(dp4462
g256
I00
sg257
g931
sg7
g4451
sg1314
I00
sg1315
I00
sg28
I552
sb(dp4463
g1314
I00
sg257
g931
ss(iconstruction
TP_NODE
p4464
(dp4465
g256
I01
sg257
g901
sg7
VENT_551
p4466
sg1314
I01
sg1315
I00
sg28
I551
sb(dp4467
g1314
I01
sg257
g901
sssg138
g139
sg140
g139
sg141
(dp4468
g4461
(dp4469
sg4464
(dp4470
g4461
(dp4471
g257
g895
ssssg143
g4468
sg144
(dp4472
sg146
g139
sg147
g4468
sg148
(dp4473
g4461
(dp4474
g4464
g4471
ssg4464
(dp4475
ssbsg739
(lp4476
g4464
ag4461
asg1011
(lp4477
(iconstruction
TP_REL
p4478
(dp4479
g1017
g4461
sg257
g895
sg28
I553
sg1018
g4464
sg7
VIS_553
p4480
sbasg28
I548
sg7
g162
sbsg1329
(iconstruction
TP_SYNFORM
p4481
(dp4482
g28
I549
sg1332
(lp4483
(iconstruction
TP_PHON
p4484
(dp4485
g1342
I4
sg1339
I0
sg28
I554
sg1343
Vhook
p4486
sg7
g4452
sbasg7
g162
sbsg1350
I1
sba(iconstruction
CXN
p4487
(dp4488
g234
(iconstruction
TP_SYMLINKS
p4489
(dp4490
g237
(dp4491
VN1_559
p4492
VS1_561
p4493
ssg28
I557
sg7
g162
sbsg243
VN
p4494
sg245
I1
sg7
VBOOKSHELF
p4495
sg247
(iconstruction
TP_SEMFRAME
p4496
(dp4497
g144
g0
(g132
g2
Ntp4498
Rp4499
(dp4500
g136
(dp4501
(iconstruction
TP_NODE
p4502
(dp4503
g256
I00
sg257
g937
sg7
g4492
sg1314
I00
sg1315
I00
sg28
I559
sb(dp4504
g1314
I00
sg257
g937
ss(iconstruction
TP_NODE
p4505
(dp4506
g256
I01
sg257
g901
sg7
VENT_558
p4507
sg1314
I01
sg1315
I00
sg28
I558
sb(dp4508
g1314
I01
sg257
g901
sssg138
g139
sg140
g139
sg141
(dp4509
g4502
(dp4510
sg4505
(dp4511
g4502
(dp4512
g257
g895
ssssg143
g4509
sg144
(dp4513
sg146
g139
sg147
g4509
sg148
(dp4514
g4502
(dp4515
g4505
g4512
ssg4505
(dp4516
ssbsg739
(lp4517
g4505
ag4502
asg1011
(lp4518
(iconstruction
TP_REL
p4519
(dp4520
g1017
g4502
sg257
g895
sg28
I560
sg1018
g4505
sg7
VIS_560
p4521
sbasg28
I555
sg7
g162
sbsg1329
(iconstruction
TP_SYNFORM
p4522
(dp4523
g28
I556
sg1332
(lp4524
(iconstruction
TP_PHON
p4525
(dp4526
g1342
I9
sg1339
I0
sg28
I561
sg1343
Vbookshelf
p4527
sg7
g4493
sbasg7
g162
sbsg1350
I1
sba(iconstruction
CXN
p4528
(dp4529
g234
(iconstruction
TP_SYMLINKS
p4530
(dp4531
g237
(dp4532
VN1_566
p4533
VS1_568
p4534
ssg28
I564
sg7
g162
sbsg243
VN
p4535
sg245
I1
sg7
VWAGON
p4536
sg247
(iconstruction
TP_SEMFRAME
p4537
(dp4538
g144
g0
(g132
g2
Ntp4539
Rp4540
(dp4541
g136
(dp4542
(iconstruction
TP_NODE
p4543
(dp4544
g256
I01
sg257
g901
sg7
VENT_565
p4545
sg1314
I01
sg1315
I00
sg28
I565
sb(dp4546
g1314
I01
sg257
g901
ss(iconstruction
TP_NODE
p4547
(dp4548
g256
I00
sg257
g919
sg7
g4533
sg1314
I00
sg1315
I00
sg28
I566
sb(dp4549
g1314
I00
sg257
g919
sssg138
g139
sg140
g139
sg141
(dp4550
g4543
(dp4551
g4547
(dp4552
g257
g895
sssg4547
(dp4553
ssg143
g4550
sg144
(dp4554
sg146
g139
sg147
g4550
sg148
(dp4555
g4543
(dp4556
sg4547
(dp4557
g4543
g4552
sssbsg739
(lp4558
g4543
ag4547
asg1011
(lp4559
(iconstruction
TP_REL
p4560
(dp4561
g1017
g4547
sg257
g895
sg28
I567
sg1018
g4543
sg7
VIS_567
p4562
sbasg28
I562
sg7
g162
sbsg1329
(iconstruction
TP_SYNFORM
p4563
(dp4564
g28
I563
sg1332
(lp4565
(iconstruction
TP_PHON
p4566
(dp4567
g1342
I5
sg1339
I0
sg28
I568
sg1343
Vwagon
p4568
sg7
g4534
sbasg7
g162
sbsg1350
I1
sba(iconstruction
CXN
p4569
(dp4570
g234
(iconstruction
TP_SYMLINKS
p4571
(dp4572
g237
(dp4573
VN1_573
p4574
VS1_575
p4575
ssg28
I571
sg7
g162
sbsg243
VN
p4576
sg245
I1
sg7
VTREE
p4577
sg247
(iconstruction
TP_SEMFRAME
p4578
(dp4579
g144
g0
(g132
g2
Ntp4580
Rp4581
(dp4582
g136
(dp4583
(iconstruction
TP_NODE
p4584
(dp4585
g256
I00
sg257
g928
sg7
g4574
sg1314
I00
sg1315
I00
sg28
I573
sb(dp4586
g1314
I00
sg257
g928
ss(iconstruction
TP_NODE
p4587
(dp4588
g256
I01
sg257
g901
sg7
VENT_572
p4589
sg1314
I01
sg1315
I00
sg28
I572
sb(dp4590
g1314
I01
sg257
g901
sssg138
g139
sg140
g139
sg141
(dp4591
g4584
(dp4592
sg4587
(dp4593
g4584
(dp4594
g257
g895
ssssg143
g4591
sg144
(dp4595
sg146
g139
sg147
g4591
sg148
(dp4596
g4584
(dp4597
g4587
g4594
ssg4587
(dp4598
ssbsg739
(lp4599
g4587
ag4584
asg1011
(lp4600
(iconstruction
TP_REL
p4601
(dp4602
g1017
g4584
sg257
g895
sg28
I574
sg1018
g4587
sg7
VIS_574
p4603
sbasg28
I569
sg7
g162
sbsg1329
(iconstruction
TP_SYNFORM
p4604
(dp4605
g28
I570
sg1332
(lp4606
(iconstruction
TP_PHON
p4607
(dp4608
g1342
I4
sg1339
I0
sg28
I575
sg1343
Vtree
p4609
sg7
g4575
sbasg7
g162
sbsg1350
I1
sbasbsg7
g176
sg45
(lp4610
g220
ag0
(g19
g2
Ntp4611
Rp4612
(dp4613
g7
S'to_cxn_retrieval_C'
p4614
sg24
Nsg25
Nsg26
g51
sg28
I21
sg29
g224
sbasg15
(dp4615
g55
Nsg4614
Nssg184
(lp4616
sg69
F1.0
sg72
(lp4617
sg108
(dp4618
S'init_act'
p4619
F0.3
ssg104
F0.0
sg130
F0.0
sg13
g4
sg28
I4
sS'schemas'
p4620
(lp4621
g0
(clanguage_schemas
CXN_SCHEMA
p4622
g2
Ntp4623
Rp4624
(dp4625
g7
g246
sS'content'
p4626
g232
sg13
Nsg28
I99
sS'LTM'
p4627
g224
sg4619
F0.3
sbag0
(g4622
g2
Ntp4628
Rp4629
(dp4630
g7
g1361
sg4626
g1351
sg13
Nsg28
I100
sg4627
g224
sg4619
F0.3
sbag0
(g4622
g2
Ntp4631
Rp4632
(dp4633
g7
g1412
sg4626
g1402
sg13
Nsg28
I101
sg4627
g224
sg4619
F0.3
sbag0
(g4622
g2
Ntp4634
Rp4635
(dp4636
g7
g1465
sg4626
g1453
sg13
Nsg28
I102
sg4627
g224
sg4619
F0.3
sbag0
(g4622
g2
Ntp4637
Rp4638
(dp4639
g7
g1544
sg4626
g1532
sg13
Nsg28
I103
sg4627
g224
sg4619
F0.3
sbag0
(g4622
g2
Ntp4640
Rp4641
(dp4642
g7
g1621
sg4626
g1607
sg13
Nsg28
I104
sg4627
g224
sg4619
F0.3
sbag0
(g4622
g2
Ntp4643
Rp4644
(dp4645
g7
g1712
sg4626
g1698
sg13
Nsg28
I105
sg4627
g224
sg4619
F0.3
sbag0
(g4622
g2
Ntp4646
Rp4647
(dp4648
g7
g1803
sg4626
g1793
sg13
Nsg28
I106
sg4627
g224
sg4619
F0.3
sbag0
(g4622
g2
Ntp4649
Rp4650
(dp4651
g7
g1865
sg4626
g1855
sg13
Nsg28
I107
sg4627
g224
sg4619
F0.3
sbag0
(g4622
g2
Ntp4652
Rp4653
(dp4654
g7
g1924
sg4626
g1914
sg13
Nsg28
I108
sg4627
g224
sg4619
F0.3
sbag0
(g4622
g2
Ntp4655
Rp4656
(dp4657
g7
g1976
sg4626
g1966
sg13
Nsg28
I109
sg4627
g224
sg4619
F0.3
sbag0
(g4622
g2
Ntp4658
Rp4659
(dp4660
g7
g2023
sg4626
g2013
sg13
Nsg28
I110
sg4627
g224
sg4619
F0.3
sbag0
(g4622
g2
Ntp4661
Rp4662
(dp4663
g7
g2072
sg4626
g2060
sg13
Nsg28
I111
sg4627
g224
sg4619
F0.3
sbag0
(g4622
g2
Ntp4664
Rp4665
(dp4666
g7
g2152
sg4626
g2142
sg13
Nsg28
I112
sg4627
g224
sg4619
F0.3
sbag0
(g4622
g2
Ntp4667
Rp4668
(dp4669
g7
g2220
sg4626
g2208
sg13
Nsg28
I113
sg4627
g224
sg4619
F0.3
sbag0
(g4622
g2
Ntp4670
Rp4671
(dp4672
g7
g2314
sg4626
g2302
sg13
Nsg28
I114
sg4627
g224
sg4619
F0.3
sbag0
(g4622
g2
Ntp4673
Rp4674
(dp4675
g7
g2396
sg4626
g2384
sg13
Nsg28
I115
sg4627
g224
sg4619
F0.3
sbag0
(g4622
g2
Ntp4676
Rp4677
(dp4678
g7
g2488
sg4626
g2478
sg13
Nsg28
I116
sg4627
g224
sg4619
F0.3
sbag0
(g4622
g2
Ntp4679
Rp4680
(dp4681
g7
g2553
sg4626
g2543
sg13
Nsg28
I117
sg4627
g224
sg4619
F0.3
sbag0
(g4622
g2
Ntp4682
Rp4683
(dp4684
g7
g2632
sg4626
g2624
sg13
Nsg28
I118
sg4627
g224
sg4619
F0.3
sbag0
(g4622
g2
Ntp4685
Rp4686
(dp4687
g7
g2673
sg4626
g2665
sg13
Nsg28
I119
sg4627
g224
sg4619
F0.3
sbag0
(g4622
g2
Ntp4688
Rp4689
(dp4690
g7
g2714
sg4626
g2706
sg13
Nsg28
I120
sg4627
g224
sg4619
F0.3
sbag0
(g4622
g2
Ntp4691
Rp4692
(dp4693
g7
g2755
sg4626
g2747
sg13
Nsg28
I121
sg4627
g224
sg4619
F0.3
sbag0
(g4622
g2
Ntp4694
Rp4695
(dp4696
g7
g2796
sg4626
g2788
sg13
Nsg28
I122
sg4627
g224
sg4619
F0.3
sbag0
(g4622
g2
Ntp4697
Rp4698
(dp4699
g7
g2837
sg4626
g2829
sg13
Nsg28
I123
sg4627
g224
sg4619
F0.3
sbag0
(g4622
g2
Ntp4700
Rp4701
(dp4702
g7
g2878
sg4626
g2870
sg13
Nsg28
I124
sg4627
g224
sg4619
F0.3
sbag0
(g4622
g2
Ntp4703
Rp4704
(dp4705
g7
g2923
sg4626
g2915
sg13
Nsg28
I125
sg4627
g224
sg4619
F0.3
sbag0
(g4622
g2
Ntp4706
Rp4707
(dp4708
g7
g2968
sg4626
g2960
sg13
Nsg28
I126
sg4627
g224
sg4619
F0.3
sbag0
(g4622
g2
Ntp4709
Rp4710
(dp4711
g7
g3009
sg4626
g3001
sg13
Nsg28
I127
sg4627
g224
sg4619
F0.3
sbag0
(g4622
g2
Ntp4712
Rp4713
(dp4714
g7
g3050
sg4626
g3042
sg13
Nsg28
I128
sg4627
g224
sg4619
F0.3
sbag0
(g4622
g2
Ntp4715
Rp4716
(dp4717
g7
g3091
sg4626
g3083
sg13
Nsg28
I129
sg4627
g224
sg4619
F0.3
sbag0
(g4622
g2
Ntp4718
Rp4719
(dp4720
g7
g3132
sg4626
g3124
sg13
Nsg28
I130
sg4627
g224
sg4619
F0.3
sbag0
(g4622
g2
Ntp4721
Rp4722
(dp4723
g7
g3173
sg4626
g3165
sg13
Nsg28
I131
sg4627
g224
sg4619
F0.3
sbag0
(g4622
g2
Ntp4724
Rp4725
(dp4726
g7
g3214
sg4626
g3206
sg13
Nsg28
I132
sg4627
g224
sg4619
F0.3
sbag0
(g4622
g2
Ntp4727
Rp4728
(dp4729
g7
g3245
sg4626
g3237
sg13
Nsg28
I133
sg4627
g224
sg4619
F0.3
sbag0
(g4622
g2
Ntp4730
Rp4731
(dp4732
g7
g3276
sg4626
g3268
sg13
Nsg28
I134
sg4627
g224
sg4619
F0.3
sbag0
(g4622
g2
Ntp4733
Rp4734
(dp4735
g7
g3307
sg4626
g3299
sg13
Nsg28
I135
sg4627
g224
sg4619
F0.3
sbag0
(g4622
g2
Ntp4736
Rp4737
(dp4738
g7
g3338
sg4626
g3330
sg13
Nsg28
I136
sg4627
g224
sg4619
F0.3
sbag0
(g4622
g2
Ntp4739
Rp4740
(dp4741
g7
g3369
sg4626
g3361
sg13
Nsg28
I137
sg4627
g224
sg4619
F0.3
sbag0
(g4622
g2
Ntp4742
Rp4743
(dp4744
g7
g3400
sg4626
g3392
sg13
Nsg28
I138
sg4627
g224
sg4619
F0.3
sbag0
(g4622
g2
Ntp4745
Rp4746
(dp4747
g7
g3431
sg4626
g3423
sg13
Nsg28
I139
sg4627
g224
sg4619
F0.3
sbag0
(g4622
g2
Ntp4748
Rp4749
(dp4750
g7
g3462
sg4626
g3454
sg13
Nsg28
I140
sg4627
g224
sg4619
F0.3
sbag0
(g4622
g2
Ntp4751
Rp4752
(dp4753
g7
g3503
sg4626
g3495
sg13
Nsg28
I141
sg4627
g224
sg4619
F0.3
sbag0
(g4622
g2
Ntp4754
Rp4755
(dp4756
g7
g3544
sg4626
g3536
sg13
Nsg28
I142
sg4627
g224
sg4619
F0.3
sbag0
(g4622
g2
Ntp4757
Rp4758
(dp4759
g7
g3585
sg4626
g3577
sg13
Nsg28
I143
sg4627
g224
sg4619
F0.3
sbag0
(g4622
g2
Ntp4760
Rp4761
(dp4762
g7
g3626
sg4626
g3618
sg13
Nsg28
I144
sg4627
g224
sg4619
F0.3
sbag0
(g4622
g2
Ntp4763
Rp4764
(dp4765
g7
g3667
sg4626
g3659
sg13
Nsg28
I145
sg4627
g224
sg4619
F0.3
sbag0
(g4622
g2
Ntp4766
Rp4767
(dp4768
g7
g3708
sg4626
g3700
sg13
Nsg28
I146
sg4627
g224
sg4619
F0.3
sbag0
(g4622
g2
Ntp4769
Rp4770
(dp4771
g7
g3749
sg4626
g3741
sg13
Nsg28
I147
sg4627
g224
sg4619
F0.3
sbag0
(g4622
g2
Ntp4772
Rp4773
(dp4774
g7
g3790
sg4626
g3782
sg13
Nsg28
I148
sg4627
g224
sg4619
F0.3
sbag0
(g4622
g2
Ntp4775
Rp4776
(dp4777
g7
g3831
sg4626
g3823
sg13
Nsg28
I149
sg4627
g224
sg4619
F0.3
sbag0
(g4622
g2
Ntp4778
Rp4779
(dp4780
g7
g3872
sg4626
g3864
sg13
Nsg28
I150
sg4627
g224
sg4619
F0.3
sbag0
(g4622
g2
Ntp4781
Rp4782
(dp4783
g7
g3917
sg4626
g3909
sg13
Nsg28
I151
sg4627
g224
sg4619
F0.3
sbag0
(g4622
g2
Ntp4784
Rp4785
(dp4786
g7
g3958
sg4626
g3950
sg13
Nsg28
I152
sg4627
g224
sg4619
F0.3
sbag0
(g4622
g2
Ntp4787
Rp4788
(dp4789
g7
g3999
sg4626
g3991
sg13
Nsg28
I153
sg4627
g224
sg4619
F0.3
sbag0
(g4622
g2
Ntp4790
Rp4791
(dp4792
g7
g4040
sg4626
g4032
sg13
Nsg28
I154
sg4627
g224
sg4619
F0.3
sbag0
(g4622
g2
Ntp4793
Rp4794
(dp4795
g7
g4081
sg4626
g4073
sg13
Nsg28
I155
sg4627
g224
sg4619
F0.3
sbag0
(g4622
g2
Ntp4796
Rp4797
(dp4798
g7
g4122
sg4626
g4114
sg13
Nsg28
I156
sg4627
g224
sg4619
F0.3
sbag0
(g4622
g2
Ntp4799
Rp4800
(dp4801
g7
g4167
sg4626
g4159
sg13
Nsg28
I157
sg4627
g224
sg4619
F0.3
sbag0
(g4622
g2
Ntp4802
Rp4803
(dp4804
g7
g4208
sg4626
g4200
sg13
Nsg28
I158
sg4627
g224
sg4619
F0.3
sbag0
(g4622
g2
Ntp4805
Rp4806
(dp4807
g7
g4249
sg4626
g4241
sg13
Nsg28
I159
sg4627
g224
sg4619
F0.3
sbag0
(g4622
g2
Ntp4808
Rp4809
(dp4810
g7
g4290
sg4626
g4282
sg13
Nsg28
I160
sg4627
g224
sg4619
F0.3
sbag0
(g4622
g2
Ntp4811
Rp4812
(dp4813
g7
g4331
sg4626
g4323
sg13
Nsg28
I161
sg4627
g224
sg4619
F0.3
sbag0
(g4622
g2
Ntp4814
Rp4815
(dp4816
g7
g4372
sg4626
g4364
sg13
Nsg28
I162
sg4627
g224
sg4619
F0.3
sbag0
(g4622
g2
Ntp4817
Rp4818
(dp4819
g7
g4413
sg4626
g4405
sg13
Nsg28
I163
sg4627
g224
sg4619
F0.3
sbag0
(g4622
g2
Ntp4820
Rp4821
(dp4822
g7
g4454
sg4626
g4446
sg13
Nsg28
I164
sg4627
g224
sg4619
F0.3
sbag0
(g4622
g2
Ntp4823
Rp4824
(dp4825
g7
g4495
sg4626
g4487
sg13
Nsg28
I165
sg4627
g224
sg4619
F0.3
sbag0
(g4622
g2
Ntp4826
Rp4827
(dp4828
g7
g4536
sg4626
g4528
sg13
Nsg28
I166
sg4627
g224
sg4619
F0.3
sbag0
(g4622
g2
Ntp4829
Rp4830
(dp4831
g7
g4577
sg4626
g4569
sg13
Nsg28
I167
sg4627
g224
sg4619
F0.3
sbasbsbsg13
g4
sg28
I2
sbag0
(g186
g2
Ntp4832
Rp4833
(dp4834
g190
I0
sg7
g162
sg191
I0
sg192
g0
(g19
g2
Ntp4835
Rp4836
(dp4837
g7
S'from_cxn_retrieval_P'
p4838
sg24
Nsg25
Nsg26
g27
sg28
I14
sg29
g0
(clanguage_schemas
GRAMMATICAL_WM_P
p4839
g2
Ntp4840
Rp4841
(dp4842
g34
(dp4843
g4838
NsS'from_phonological_WM_P'
p4844
Nsg196
Nsg38
Nssg40
(lp4845
sg7
g172
sg43
(lp4846
sg45
(lp4847
g0
(g19
g2
Ntp4848
Rp4849
(dp4850
g7
S'to_semantic_WM'
p4851
sg24
Nsg25
Nsg26
g51
sg28
I17
sg29
g4841
sbag0
(g19
g2
Ntp4852
Rp4853
(dp4854
g7
S'to_phonological_WM_P'
p4855
sg24
Nsg25
Nsg26
g51
sg28
I18
sg29
g4841
sbag0
(g19
g2
Ntp4856
Rp4857
(dp4858
g7
g67
sg24
Nsg25
Nsg26
g51
sg28
I19
sg29
g4841
sbasg15
(dp4859
g67
Nsg4855
Nsg4851
NssS'time_to_next_prod'
p4860
I0
sg69
F1.0
sg70
(lp4861
sg72
(lp4862
g0
(g19
g2
Ntp4863
Rp4864
(dp4865
g7
g196
sg24
Nsg25
Nsg26
g27
sg28
I13
sg29
g4841
sbag4836
ag0
(g19
g2
Ntp4866
Rp4867
(dp4868
g7
g38
sg24
Nsg25
Nsg26
g27
sg28
I15
sg29
g4841
sbag0
(g19
g2
Ntp4869
Rp4870
(dp4871
g7
g4844
sg24
Nsg25
Nsg26
g27
sg28
I16
sg29
g4841
sbasS'refractory_period'
p4872
I10
sg86
(dp4873
g88
(dp4874
sg90
(dp4875
g92
(lp4876
sg94
(dp4877
g96
(lp4878
sg98
(lp4879
sg100
(lp4880
ssg102
(lp4881
sg104
(lp4882
sg106
(lp4883
sssg108
(dp4884
g110
(dp4885
g116
F1.0
sg117
F1.0
sS'sub_threshold_r'
p4886
F0.8
sg119
F0.0
sS'deact_weight'
p4887
F0.0
sg118
F0.3
sg120
F0.01
sg4872
I10
sg112
F1.0
sg113
Nsg114
F-10.0
sg115
F1.0
ssg121
(dp4888
g123
F100.0
sg124
F10.0
sg125
F0.001
sg126
F0.0
sg127
F0.1
sg128
F1.0
sg129
F1.0
ssS'style'
p4889
(dp4890
S'continuity'
p4891
I0
sS'form_length'
p4892
I0
sS'activation'
p4893
F1.0
sS'sem_length'
p4894
I0
sssg104
F0.0
sg130
F0.0
sg13
g4
sg28
I3
sbsbsg215
g205
sg13
g4
sg28
I3
sbag0
(g186
g2
Ntp4895
Rp4896
(dp4897
g190
I0
sg7
g162
sg191
I0
sg192
g4864
sg215
g48
sg13
g4
sg28
I4
sbag0
(g186
g2
Ntp4898
Rp4899
(dp4900
g190
I0
sg7
g162
sg191
I0
sg192
g81
sg215
g4849
sg13
g4
sg28
I5
sbag0
(g186
g2
Ntp4901
Rp4902
(dp4903
g190
I0
sg7
g162
sg191
I0
sg192
g0
(g19
g2
Ntp4904
Rp4905
(dp4906
g7
g36
sg24
Nsg25
Nsg26
g27
sg28
I25
sg29
g0
(clanguage_schemas
PHON_WM_P
p4907
g2
Ntp4908
Rp4909
(dp4910
g34
(dp4911
g36
Nssg40
(lp4912
sg7
g167
sg43
(lp4913
sg45
(lp4914
g0
(g19
g2
Ntp4915
Rp4916
(dp4917
g7
S'to_utter'
p4918
sg24
Nsg25
Nsg26
g51
sg28
I26
sg29
g4909
sbag0
(g19
g2
Ntp4919
Rp4920
(dp4921
g7
g50
sg24
Nsg25
Nsg26
g51
sg28
I27
sg29
g4909
sbag0
(g19
g2
Ntp4922
Rp4923
(dp4924
g7
g59
sg24
Nsg25
Nsg26
g51
sg28
I28
sg29
g4909
sbag0
(g19
g2
Ntp4925
Rp4926
(dp4927
g7
g67
sg24
Nsg25
Nsg26
g51
sg28
I29
sg29
g4909
sbasg15
(dp4928
g67
Nsg50
Nsg4918
Nsg59
NssS'needs_filler'
p4929
I00
sg69
F1.0
sg70
(lp4930
sg72
(lp4931
g4905
asS'filler'
p4932
S'....'
p4933
sg86
(dp4934
g88
(dp4935
sg90
(dp4936
g92
(lp4937
sg94
(dp4938
g96
(lp4939
sg98
(lp4940
sg100
(lp4941
ssg102
(lp4942
sg104
(lp4943
sg106
(lp4944
sssg108
(dp4945
g110
(dp4946
g112
F1.0
sg113
Nsg114
F0.0
sg115
F1.0
sg116
F1.0
sg117
F0.0
sg118
F0.0
sg119
F0.0
sg120
F0.01
ssg121
(dp4947
g123
F100.0
sg124
F10.0
sg125
F0.001
sg126
F0.0
sg127
F1.0
sg128
F1.0
sg129
F1.0
sssg104
F0.0
sg130
F0.0
sg13
g4
sS'phon_sequence'
p4948
(lp4949
sg28
I6
sbsbsg215
g4853
sg13
g4
sg28
I6
sbag0
(g186
g2
Ntp4950
Rp4951
(dp4952
g190
I0
sg7
g162
sg191
I0
sg192
g4870
sg215
g4920
sg13
g4
sg28
I7
sbag0
(g186
g2
Ntp4953
Rp4954
(dp4955
g190
I0
sg7
g162
sg191
I0
sg192
g0
(g19
g2
Ntp4956
Rp4957
(dp4958
g7
g196
sg24
Nsg25
Nsg26
g27
sg28
I32
sg29
g0
(clanguage_schemas
CONTROL
p4959
g2
Ntp4960
Rp4961
(dp4962
g34
(dp4963
g4844
Nsg196
Nssg7
g157
sg45
(lp4964
g0
(g19
g2
Ntp4965
Rp4966
(dp4967
g7
g4851
sg24
Nsg25
Nsg26
g51
sg28
I34
sg29
g4961
sbag0
(g19
g2
Ntp4968
Rp4969
(dp4970
g7
g50
sg24
Nsg25
Nsg26
g51
sg28
I35
sg29
g4961
sbag0
(g19
g2
Ntp4971
Rp4972
(dp4973
g7
S'to_grammatical_WM_C'
p4974
sg24
Nsg25
Nsg26
g51
sg28
I36
sg29
g4961
sbasg15
(dp4975
g50
Nsg4974
Nsg4851
Nssg69
F1.0
sg72
(lp4976
g4957
ag0
(g19
g2
Ntp4977
Rp4978
(dp4979
g7
g4844
sg24
Nsg25
Nsg26
g27
sg28
I33
sg29
g4961
sbasS'state'
p4980
(dp4981
S'produce'
p4982
I00
sS'unexpressed_sem'
p4983
I00
sS'mode'
p4984
g4982
sS'last_prod_time'
p4985
I0
ssg108
(dp4986
g4889
(dp4987
g4891
F0.3
sg4892
F0.0
sg4893
F0.7
sg4894
F0.0
ssS'task'
p4988
(dp4989
S'time_pressure'
p4990
F10.0
sS'start_produce'
p4991
F1.0
sssg104
F0.0
sg130
F0.0
sg13
g4
sg28
I8
sbsbsg215
g57
sg13
g4
sg28
I8
sbag0
(g186
g2
Ntp4992
Rp4993
(dp4994
g190
I0
sg7
g162
sg191
I0
sg192
g0
(g19
g2
Ntp4995
Rp4996
(dp4997
g7
g4844
sg24
Nsg25
Nsg26
g27
sg28
I30
sg29
g0
(clanguage_schemas
UTTER
p4998
g2
Ntp4999
Rp5000
(dp5001
g34
(dp5002
g4844
Nssg7
g160
sg45
(lp5003
g0
(g19
g2
Ntp5004
Rp5005
(dp5006
g7
g67
sg24
Nsg25
Nsg26
g51
sg28
I31
sg29
g5000
sbasg15
(dp5007
g67
NssS'utterance_stack'
p5008
(lp5009
sg69
F1.0
sg72
(lp5010
g4996
asg108
(dp5011
S'speech_rate'
p5012
F1.0
ssg104
F0.0
sg130
F0.0
sg13
g4
sg28
I7
sbsbsg215
g4916
sg13
g4
sg28
I9
sbag0
(g186
g2
Ntp5013
Rp5014
(dp5015
g190
I0
sg7
g162
sg191
I0
sg192
g4978
sg215
g4923
sg13
g4
sg28
I10
sbag0
(g186
g2
Ntp5016
Rp5017
(dp5018
g190
I0
sg7
g162
sg191
I0
sg192
g4867
sg215
g4969
sg13
g4
sg28
I11
sbag0
(g186
g2
Ntp5019
Rp5020
(dp5021
g190
I0
sg7
g162
sg191
I0
sg192
g84
sg215
g4966
sg13
g4
sg28
I12
sbasg108
(dp5022
g157
g4986
sg167
g4945
sg170
(dp5023
g4619
F1.0
ssg176
g4618
sg180
g214
sg42
g109
sg160
g5011
sg172
g4884
ssg104
F0.0
sS'set_up_time'
p5024
I10
sS'input'
p5025
NsS'default_params'
p5026
Nsg69
F1.0
sS'output_ports'
p5027
(lp5028
g5005
ag4926
ag4857
ag65
asg4620
(dp5029
g157
g4961
sg167
g4909
sg170
g0
(clanguage_schemas
CONCEPT_LTM
p5030
g2
Ntp5031
Rp5032
(dp5033
g34
(dp5034
sg7
g170
sg45
(lp5035
g0
(g19
g2
Ntp5036
Rp5037
(dp5038
g7
S'to_conceptualizer'
p5039
sg24
Nsg25
Nsg26
g51
sg28
I11
sg29
g5032
sbag0
(g19
g2
Ntp5040
Rp5041
(dp5042
g7
g4851
sg24
Nsg25
Nsg26
g51
sg28
I12
sg29
g5032
sbasg15
(dp5043
g5039
Nsg4851
Nssg184
(lp5044
sS'cpt_knowledge'
p5045
g267
sg69
F1.0
sg72
(lp5046
sg108
g5023
sg104
F0.0
sg130
F0.0
sg13
g4
sg28
I2
sg4620
(lp5047
g0
(clanguage_schemas
CPT_EVENT_SCHEMA
p5048
g2
Ntp5049
Rp5050
(dp5051
g7
g274
sg4626
(dp5052
g257
g742
ssg13
Nsg28
I9
sg4627
g5032
sg4619
F1.0
sbag0
(clanguage_schemas
CPT_ACTION_SCHEMA
p5053
g2
Ntp5054
Rp5055
(dp5056
g7
g278
sg4626
(dp5057
g257
g748
ssg13
Nsg28
I10
sg4627
g5032
sg4619
F1.0
sbag0
(g5053
g2
Ntp5058
Rp5059
(dp5060
g7
g280
sg4626
(dp5061
g257
g751
ssg13
Nsg28
I11
sg4627
g5032
sg4619
F1.0
sbag0
(g5053
g2
Ntp5062
Rp5063
(dp5064
g7
g282
sg4626
(dp5065
g257
g754
ssg13
Nsg28
I12
sg4627
g5032
sg4619
F1.0
sbag0
(g5053
g2
Ntp5066
Rp5067
(dp5068
g7
g284
sg4626
(dp5069
g257
g757
ssg13
Nsg28
I13
sg4627
g5032
sg4619
F1.0
sbag0
(g5053
g2
Ntp5070
Rp5071
(dp5072
g7
g286
sg4626
(dp5073
g257
g760
ssg13
Nsg28
I14
sg4627
g5032
sg4619
F1.0
sbag0
(g5053
g2
Ntp5074
Rp5075
(dp5076
g7
g288
sg4626
(dp5077
g257
g763
ssg13
Nsg28
I15
sg4627
g5032
sg4619
F1.0
sbag0
(g5053
g2
Ntp5078
Rp5079
(dp5080
g7
g290
sg4626
(dp5081
g257
g766
ssg13
Nsg28
I16
sg4627
g5032
sg4619
F1.0
sbag0
(g5053
g2
Ntp5082
Rp5083
(dp5084
g7
g292
sg4626
(dp5085
g257
g769
ssg13
Nsg28
I17
sg4627
g5032
sg4619
F1.0
sbag0
(g5053
g2
Ntp5086
Rp5087
(dp5088
g7
g294
sg4626
(dp5089
g257
g772
ssg13
Nsg28
I18
sg4627
g5032
sg4619
F1.0
sbag0
(g5053
g2
Ntp5090
Rp5091
(dp5092
g7
g296
sg4626
(dp5093
g257
g775
ssg13
Nsg28
I19
sg4627
g5032
sg4619
F1.0
sbag0
(g5053
g2
Ntp5094
Rp5095
(dp5096
g7
g298
sg4626
(dp5097
g257
g778
ssg13
Nsg28
I20
sg4627
g5032
sg4619
F1.0
sbag0
(g5053
g2
Ntp5098
Rp5099
(dp5100
g7
g300
sg4626
(dp5101
g257
g781
ssg13
Nsg28
I21
sg4627
g5032
sg4619
F1.0
sbag0
(g5053
g2
Ntp5102
Rp5103
(dp5104
g7
g302
sg4626
(dp5105
g257
g784
ssg13
Nsg28
I22
sg4627
g5032
sg4619
F1.0
sbag0
(g5053
g2
Ntp5106
Rp5107
(dp5108
g7
g304
sg4626
(dp5109
g257
g787
ssg13
Nsg28
I23
sg4627
g5032
sg4619
F1.0
sbag0
(g5053
g2
Ntp5110
Rp5111
(dp5112
g7
g306
sg4626
(dp5113
g257
g790
ssg13
Nsg28
I24
sg4627
g5032
sg4619
F1.0
sbag0
(g5053
g2
Ntp5114
Rp5115
(dp5116
g7
g308
sg4626
(dp5117
g257
g793
ssg13
Nsg28
I25
sg4627
g5032
sg4619
F1.0
sbag0
(g5053
g2
Ntp5118
Rp5119
(dp5120
g7
g310
sg4626
(dp5121
g257
g796
ssg13
Nsg28
I26
sg4627
g5032
sg4619
F1.0
sbag0
(g5053
g2
Ntp5122
Rp5123
(dp5124
g7
g312
sg4626
(dp5125
g257
g799
ssg13
Nsg28
I27
sg4627
g5032
sg4619
F1.0
sbag0
(g5053
g2
Ntp5126
Rp5127
(dp5128
g7
g314
sg4626
(dp5129
g257
g802
ssg13
Nsg28
I28
sg4627
g5032
sg4619
F1.0
sbag0
(clanguage_schemas
CPT_PROPERTY_SCHEMA
p5130
g2
Ntp5131
Rp5132
(dp5133
g7
g316
sg4626
(dp5134
g257
g805
ssg13
Nsg28
I29
sg4627
g5032
sg4619
F1.0
sbag0
(g5130
g2
Ntp5135
Rp5136
(dp5137
g7
g318
sg4626
(dp5138
g257
g808
ssg13
Nsg28
I30
sg4627
g5032
sg4619
F1.0
sbag0
(g5130
g2
Ntp5139
Rp5140
(dp5141
g7
g320
sg4626
(dp5142
g257
g811
ssg13
Nsg28
I31
sg4627
g5032
sg4619
F1.0
sbag0
(g5130
g2
Ntp5143
Rp5144
(dp5145
g7
g322
sg4626
(dp5146
g257
g814
ssg13
Nsg28
I32
sg4627
g5032
sg4619
F1.0
sbag0
(g5130
g2
Ntp5147
Rp5148
(dp5149
g7
g324
sg4626
(dp5150
g257
g817
ssg13
Nsg28
I33
sg4627
g5032
sg4619
F1.0
sbag0
(g5130
g2
Ntp5151
Rp5152
(dp5153
g7
g326
sg4626
(dp5154
g257
g820
ssg13
Nsg28
I34
sg4627
g5032
sg4619
F1.0
sbag0
(g5130
g2
Ntp5155
Rp5156
(dp5157
g7
g328
sg4626
(dp5158
g257
g823
ssg13
Nsg28
I35
sg4627
g5032
sg4619
F1.0
sbag0
(g5130
g2
Ntp5159
Rp5160
(dp5161
g7
g330
sg4626
(dp5162
g257
g826
ssg13
Nsg28
I36
sg4627
g5032
sg4619
F1.0
sbag0
(g5130
g2
Ntp5163
Rp5164
(dp5165
g7
g332
sg4626
(dp5166
g257
g829
ssg13
Nsg28
I37
sg4627
g5032
sg4619
F1.0
sbag0
(g5130
g2
Ntp5167
Rp5168
(dp5169
g7
g334
sg4626
(dp5170
g257
g832
ssg13
Nsg28
I38
sg4627
g5032
sg4619
F1.0
sbag0
(g5130
g2
Ntp5171
Rp5172
(dp5173
g7
g336
sg4626
(dp5174
g257
g835
ssg13
Nsg28
I39
sg4627
g5032
sg4619
F1.0
sbag0
(g5130
g2
Ntp5175
Rp5176
(dp5177
g7
g338
sg4626
(dp5178
g257
g838
ssg13
Nsg28
I40
sg4627
g5032
sg4619
F1.0
sbag0
(g5130
g2
Ntp5179
Rp5180
(dp5181
g7
g340
sg4626
(dp5182
g257
g841
ssg13
Nsg28
I41
sg4627
g5032
sg4619
F1.0
sbag0
(g5130
g2
Ntp5183
Rp5184
(dp5185
g7
g342
sg4626
(dp5186
g257
g844
ssg13
Nsg28
I42
sg4627
g5032
sg4619
F1.0
sbag0
(clanguage_schemas
CPT_RELATION_SCHEMA
p5187
g2
Ntp5188
Rp5189
(dp5190
g7
g344
sg4626
(dp5191
g1017
Nsg257
g847
sg1018
Nssg13
Nsg28
I43
sg4627
g5032
sg4619
F1.0
sbag0
(g5187
g2
Ntp5192
Rp5193
(dp5194
g7
g346
sg4626
(dp5195
g1017
Nsg257
g850
sg1018
Nssg13
Nsg28
I44
sg4627
g5032
sg4619
F1.0
sbag0
(g5187
g2
Ntp5196
Rp5197
(dp5198
g7
g348
sg4626
(dp5199
g1017
Nsg257
g853
sg1018
Nssg13
Nsg28
I45
sg4627
g5032
sg4619
F1.0
sbag0
(g5187
g2
Ntp5200
Rp5201
(dp5202
g7
g350
sg4626
(dp5203
g1017
Nsg257
g856
sg1018
Nssg13
Nsg28
I46
sg4627
g5032
sg4619
F1.0
sbag0
(g5187
g2
Ntp5204
Rp5205
(dp5206
g7
g352
sg4626
(dp5207
g1017
Nsg257
g859
sg1018
Nssg13
Nsg28
I47
sg4627
g5032
sg4619
F1.0
sbag0
(g5187
g2
Ntp5208
Rp5209
(dp5210
g7
g354
sg4626
(dp5211
g1017
Nsg257
g862
sg1018
Nssg13
Nsg28
I48
sg4627
g5032
sg4619
F1.0
sbag0
(g5187
g2
Ntp5212
Rp5213
(dp5214
g7
g356
sg4626
(dp5215
g1017
Nsg257
g865
sg1018
Nssg13
Nsg28
I49
sg4627
g5032
sg4619
F1.0
sbag0
(g5187
g2
Ntp5216
Rp5217
(dp5218
g7
g358
sg4626
(dp5219
g1017
Nsg257
g868
sg1018
Nssg13
Nsg28
I50
sg4627
g5032
sg4619
F1.0
sbag0
(g5187
g2
Ntp5220
Rp5221
(dp5222
g7
g360
sg4626
(dp5223
g1017
Nsg257
g871
sg1018
Nssg13
Nsg28
I51
sg4627
g5032
sg4619
F1.0
sbag0
(g5187
g2
Ntp5224
Rp5225
(dp5226
g7
g362
sg4626
(dp5227
g1017
Nsg257
g874
sg1018
Nssg13
Nsg28
I52
sg4627
g5032
sg4619
F1.0
sbag0
(g5187
g2
Ntp5228
Rp5229
(dp5230
g7
g364
sg4626
(dp5231
g1017
Nsg257
g877
sg1018
Nssg13
Nsg28
I53
sg4627
g5032
sg4619
F1.0
sbag0
(g5187
g2
Ntp5232
Rp5233
(dp5234
g7
g366
sg4626
(dp5235
g1017
Nsg257
g880
sg1018
Nssg13
Nsg28
I54
sg4627
g5032
sg4619
F1.0
sbag0
(g5187
g2
Ntp5236
Rp5237
(dp5238
g7
g368
sg4626
(dp5239
g1017
Nsg257
g883
sg1018
Nssg13
Nsg28
I55
sg4627
g5032
sg4619
F1.0
sbag0
(g5187
g2
Ntp5240
Rp5241
(dp5242
g7
g370
sg4626
(dp5243
g1017
Nsg257
g886
sg1018
Nssg13
Nsg28
I56
sg4627
g5032
sg4619
F1.0
sbag0
(g5187
g2
Ntp5244
Rp5245
(dp5246
g7
g372
sg4626
(dp5247
g1017
Nsg257
g889
sg1018
Nssg13
Nsg28
I57
sg4627
g5032
sg4619
F1.0
sbag0
(g5187
g2
Ntp5248
Rp5249
(dp5250
g7
g374
sg4626
(dp5251
g1017
Nsg257
g892
sg1018
Nssg13
Nsg28
I58
sg4627
g5032
sg4619
F1.0
sbag0
(g5187
g2
Ntp5252
Rp5253
(dp5254
g7
g376
sg4626
(dp5255
g1017
Nsg257
g895
sg1018
Nssg13
Nsg28
I59
sg4627
g5032
sg4619
F1.0
sbag0
(g5187
g2
Ntp5256
Rp5257
(dp5258
g7
g378
sg4626
(dp5259
g1017
Nsg257
g898
sg1018
Nssg13
Nsg28
I60
sg4627
g5032
sg4619
F1.0
sbag0
(g5048
g2
Ntp5260
Rp5261
(dp5262
g7
g263
sg4626
(dp5263
g257
g260
ssg13
Nsg28
I61
sg4627
g5032
sg4619
F1.0
sbag0
(clanguage_schemas
CPT_ENTITY_SCHEMA
p5264
g2
Ntp5265
Rp5266
(dp5267
g7
g381
sg4626
(dp5268
g257
g901
ssg13
Nsg28
I62
sg4627
g5032
sg4619
F1.0
sbag0
(g5264
g2
Ntp5269
Rp5270
(dp5271
g7
g383
sg4626
(dp5272
g257
g904
ssg13
Nsg28
I63
sg4627
g5032
sg4619
F1.0
sbag0
(g5264
g2
Ntp5273
Rp5274
(dp5275
g7
g385
sg4626
(dp5276
g257
g907
ssg13
Nsg28
I64
sg4627
g5032
sg4619
F1.0
sbag0
(g5264
g2
Ntp5277
Rp5278
(dp5279
g7
g387
sg4626
(dp5280
g257
g910
ssg13
Nsg28
I65
sg4627
g5032
sg4619
F1.0
sbag0
(g5264
g2
Ntp5281
Rp5282
(dp5283
g7
g389
sg4626
(dp5284
g257
g913
ssg13
Nsg28
I66
sg4627
g5032
sg4619
F1.0
sbag0
(g5264
g2
Ntp5285
Rp5286
(dp5287
g7
g391
sg4626
(dp5288
g257
g916
ssg13
Nsg28
I67
sg4627
g5032
sg4619
F1.0
sbag0
(g5264
g2
Ntp5289
Rp5290
(dp5291
g7
g393
sg4626
(dp5292
g257
g919
ssg13
Nsg28
I68
sg4627
g5032
sg4619
F1.0
sbag0
(g5264
g2
Ntp5293
Rp5294
(dp5295
g7
g395
sg4626
(dp5296
g257
g922
ssg13
Nsg28
I69
sg4627
g5032
sg4619
F1.0
sbag0
(g5264
g2
Ntp5297
Rp5298
(dp5299
g7
g397
sg4626
(dp5300
g257
g925
ssg13
Nsg28
I70
sg4627
g5032
sg4619
F1.0
sbag0
(g5264
g2
Ntp5301
Rp5302
(dp5303
g7
g399
sg4626
(dp5304
g257
g928
ssg13
Nsg28
I71
sg4627
g5032
sg4619
F1.0
sbag0
(g5264
g2
Ntp5305
Rp5306
(dp5307
g7
g401
sg4626
(dp5308
g257
g931
ssg13
Nsg28
I72
sg4627
g5032
sg4619
F1.0
sbag0
(g5264
g2
Ntp5309
Rp5310
(dp5311
g7
g403
sg4626
(dp5312
g257
g934
ssg13
Nsg28
I73
sg4627
g5032
sg4619
F1.0
sbag0
(g5264
g2
Ntp5313
Rp5314
(dp5315
g7
g405
sg4626
(dp5316
g257
g937
ssg13
Nsg28
I74
sg4627
g5032
sg4619
F1.0
sbag0
(g5264
g2
Ntp5317
Rp5318
(dp5319
g7
g407
sg4626
(dp5320
g257
g940
ssg13
Nsg28
I75
sg4627
g5032
sg4619
F1.0
sbag0
(g5264
g2
Ntp5321
Rp5322
(dp5323
g7
g409
sg4626
(dp5324
g257
g943
ssg13
Nsg28
I76
sg4627
g5032
sg4619
F1.0
sbag0
(g5264
g2
Ntp5325
Rp5326
(dp5327
g7
g411
sg4626
(dp5328
g257
g946
ssg13
Nsg28
I77
sg4627
g5032
sg4619
F1.0
sbag0
(g5264
g2
Ntp5329
Rp5330
(dp5331
g7
g413
sg4626
(dp5332
g257
g949
ssg13
Nsg28
I78
sg4627
g5032
sg4619
F1.0
sbag0
(g5264
g2
Ntp5333
Rp5334
(dp5335
g7
g415
sg4626
(dp5336
g257
g952
ssg13
Nsg28
I79
sg4627
g5032
sg4619
F1.0
sbag0
(g5264
g2
Ntp5337
Rp5338
(dp5339
g7
g417
sg4626
(dp5340
g257
g955
ssg13
Nsg28
I80
sg4627
g5032
sg4619
F1.0
sbag0
(g5264
g2
Ntp5341
Rp5342
(dp5343
g7
g419
sg4626
(dp5344
g257
g958
ssg13
Nsg28
I81
sg4627
g5032
sg4619
F1.0
sbag0
(g5264
g2
Ntp5345
Rp5346
(dp5347
g7
g421
sg4626
(dp5348
g257
g961
ssg13
Nsg28
I82
sg4627
g5032
sg4619
F1.0
sbag0
(g5264
g2
Ntp5349
Rp5350
(dp5351
g7
g423
sg4626
(dp5352
g257
g964
ssg13
Nsg28
I83
sg4627
g5032
sg4619
F1.0
sbag0
(g5264
g2
Ntp5353
Rp5354
(dp5355
g7
g425
sg4626
(dp5356
g257
g967
ssg13
Nsg28
I84
sg4627
g5032
sg4619
F1.0
sbag0
(g5264
g2
Ntp5357
Rp5358
(dp5359
g7
g427
sg4626
(dp5360
g257
g970
ssg13
Nsg28
I85
sg4627
g5032
sg4619
F1.0
sbag0
(g5264
g2
Ntp5361
Rp5362
(dp5363
g7
g429
sg4626
(dp5364
g257
g973
ssg13
Nsg28
I86
sg4627
g5032
sg4619
F1.0
sbag0
(g5264
g2
Ntp5365
Rp5366
(dp5367
g7
g431
sg4626
(dp5368
g257
g976
ssg13
Nsg28
I87
sg4627
g5032
sg4619
F1.0
sbag0
(g5264
g2
Ntp5369
Rp5370
(dp5371
g7
g433
sg4626
(dp5372
g257
g979
ssg13
Nsg28
I88
sg4627
g5032
sg4619
F1.0
sbag0
(g5264
g2
Ntp5373
Rp5374
(dp5375
g7
g435
sg4626
(dp5376
g257
g982
ssg13
Nsg28
I89
sg4627
g5032
sg4619
F1.0
sbag0
(g5264
g2
Ntp5377
Rp5378
(dp5379
g7
g437
sg4626
(dp5380
g257
g985
ssg13
Nsg28
I90
sg4627
g5032
sg4619
F1.0
sbag0
(g5264
g2
Ntp5381
Rp5382
(dp5383
g7
g439
sg4626
(dp5384
g257
g988
ssg13
Nsg28
I91
sg4627
g5032
sg4619
F1.0
sbag0
(g5264
g2
Ntp5385
Rp5386
(dp5387
g7
g441
sg4626
(dp5388
g257
g991
ssg13
Nsg28
I92
sg4627
g5032
sg4619
F1.0
sbag0
(g5264
g2
Ntp5389
Rp5390
(dp5391
g7
g443
sg4626
(dp5392
g257
g994
ssg13
Nsg28
I93
sg4627
g5032
sg4619
F1.0
sbag0
(g5264
g2
Ntp5393
Rp5394
(dp5395
g7
g445
sg4626
(dp5396
g257
g997
ssg13
Nsg28
I94
sg4627
g5032
sg4619
F1.0
sbag0
(g5264
g2
Ntp5397
Rp5398
(dp5399
g7
g447
sg4626
(dp5400
g257
g1000
ssg13
Nsg28
I95
sg4627
g5032
sg4619
F1.0
sbag0
(g5264
g2
Ntp5401
Rp5402
(dp5403
g7
g449
sg4626
(dp5404
g257
g1003
ssg13
Nsg28
I96
sg4627
g5032
sg4619
F1.0
sbag0
(g5264
g2
Ntp5405
Rp5406
(dp5407
g7
g451
sg4626
(dp5408
g257
g1006
ssg13
Nsg28
I97
sg4627
g5032
sg4619
F1.0
sbag0
(g5264
g2
Ntp5409
Rp5410
(dp5411
g7
g453
sg4626
(dp5412
g257
g1009
ssg13
Nsg28
I98
sg4627
g5032
sg4619
F1.0
sbasbsg180
g199
sg172
g4841
sg42
g32
sg160
g5000
sg176
g224
ssb.