ccopy_reg
_reconstructor
p0
(clanguage_schemas
SEM_GENERATOR
p1
c__builtin__
object
p2
Ntp3
Rp4
(dp5
S'sem_inputs'
p6
(dp7
S'{}'
p8
(dp9
Vtiming
p10
(lp11
F0.0
aF100.0
aF200.0
asVsem_rate
p12
I1
sVpropositions
p13
(dp14
VWOMAN_AREA_CUED
p15
(lp16
VENTITY(cued,F)
p17
aVWOMAN(woman)
p18
aVIS(is1)
p19
aVis1(cued, woman)
p20
asVTALK_AREA
p21
(lp22
VEVENT(evt1,F)
p23
aVACTION(a1,F)
p24
aVIS(is3)
p25
aVis3(evt1,a1)
p26
aVTALK(talk)
p27
aVIS(is4)
p28
aVis4(a1, talk)
p29
aVENTITY(cued,F)
p30
aVENTITY(uncued,F)
p31
aVAGENT(agt)
p32
aVPATIENT(pt)
p33
aVagt(a1, cued)
p34
aVpt(a1, uncued)
p35
asVPEOPLE_AREA
p36
(lp37
VENTITY(uncued,F)
p38
aVPEOPLE(people)
p39
aVIS(is2)
p40
aVis2(uncued, people)
p41
assVcomments
p42
VKuchinsky's example of difficult event and easy objects. TCG Scene: incremental strategy.
p43
sVsequence
p44
(lp45
VWOMAN_AREA_CUED
p46
aVTALK_AREA
p47
aVPEOPLE_AREA
p48
asssS'is_macro'
p49
I01
sS'ground_truths'
p50
NsS'speed_param'
p51
I100
sS'interpreter'
p52
g0
(clanguage_schemas
ISRF_INTERPRETER
p53
g2
Ntp54
Rp55
(dp56
S'name_table'
p57
(dp58
sS'conceptLTM'
p59
g0
(clanguage_schemas
CONCEPT_LTM
p60
g2
Ntp61
Rp62
(dp63
S'inputs'
p64
(dp65
sS'name'
p66
S'Concept_LTM'
p67
sS'out_ports'
p68
(lp69
g0
(cschema_theory
PORT
p70
g2
Ntp71
Rp72
(dp73
g66
S'to_conceptualizer'
p74
sS'data'
p75
NsS'value'
p76
NsS'type'
p77
S'OUT'
p78
sS'id'
p79
I11
sS'schema'
p80
g62
sbag0
(g70
g2
Ntp81
Rp82
(dp83
g66
S'to_semantic_WM'
p84
sg75
Nsg76
Nsg77
g78
sg79
I12
sg80
g62
sbasS'outputs'
p85
(dp86
g74
Nsg84
NssS'connections'
p87
(lp88
sS'cpt_knowledge'
p89
g0
(cconcept
CONCEPTUAL_KNOWLEDGE
p90
g2
Ntp91
Rp92
(dp93
S'graph'
p94
g0
(cnetworkx.classes.digraph
DiGraph
p95
g2
Ntp96
Rp97
(dp98
S'node'
p99
(dp100
I1
(dp101
S'meaning'
p102
S'?'
p103
ssI2
(dp104
g102
S'CONCEPT'
p105
ssI3
(dp106
g102
VACTION
p107
ssI4
(dp108
g102
VSYMMETRIC
p109
ssI5
(dp110
g102
VMEET
p111
ssI6
(dp112
g102
VSHAKE_HANDS
p113
ssI7
(dp114
g102
VINTRANSITIVE
p115
ssI8
(dp116
g102
VLAUGH
p117
ssI9
(dp118
g102
VTRANSITIVE
p119
ssI10
(dp120
g102
VHIT
p121
ssI11
(dp122
g102
VWATCH
p123
ssI12
(dp124
g102
VPUNCH
p125
ssI13
(dp126
g102
VSPLASH
p127
ssI14
(dp128
g102
VTALK
p129
ssI15
(dp130
g102
VKISS
p131
ssI16
(dp132
g102
VSQUIRT
p133
ssI17
(dp134
g102
VKICK
p135
ssI18
(dp136
g102
VWEAR
p137
ssI19
(dp138
g102
VDITRANSITIVE
p139
ssI20
(dp140
g102
VSEND
p141
ssI21
(dp142
g102
VGIVE
p143
ssI22
(dp144
g102
VPROPERTY
p145
ssI23
(dp146
g102
VCOLOR
p147
ssI24
(dp148
g102
VBLUE
p149
ssI25
(dp150
g102
VGREEN
p151
ssI26
(dp152
g102
VWHITE
p153
ssI27
(dp154
g102
VBLACK
p155
ssI28
(dp156
g102
VRED
p157
ssI29
(dp158
g102
VAPPEARANCE
p159
ssI30
(dp160
g102
VYOUNG
p161
ssI31
(dp162
g102
VPRETTY
p163
ssI32
(dp164
g102
VHANDSOME
p165
ssI33
(dp166
g102
VSIZE
p167
ssI34
(dp168
g102
VSMALL
p169
ssI35
(dp170
g102
VBIG
p171
ssI36
(dp172
g102
VRELATION
p173
ssI37
(dp174
g102
VACTION_FRAME
p175
ssI38
(dp176
g102
VMODIFY
p177
ssI39
(dp178
g102
VTHEME
p179
ssI40
(dp180
g102
VRECIPIENT
p181
ssI41
(dp182
g102
VATTR
p183
ssI42
(dp184
g102
VAGT_PT
p185
ssI43
(dp186
g102
VPATIENT
p187
ssI44
(dp188
g102
VAGT+PT
p189
ssI45
(dp190
g102
VAGENT
p191
ssI46
(dp192
g102
VEVENT_FRAME
p193
ssI47
(dp194
g102
VTEMPORAL
p195
ssI48
(dp196
g102
VCONCURRENT
p197
ssI49
(dp198
g102
VSUCCESSIVE
p199
ssI50
(dp200
g102
VSPATIAL
p201
ssI51
(dp202
g102
VIN
p203
ssI52
(dp204
g102
VIS
p205
ssI53
(dp206
g102
VOBJECT_FRAME
p207
ssI54
(dp208
g102
VEVENT
p209
ssI55
(dp210
g102
VENTITY
p211
ssI56
(dp212
g102
VANIMATE
p213
ssI57
(dp214
g102
VANIMAL
p215
ssI58
(dp216
g102
VHUMAN
p217
ssI59
(dp218
g102
VOBJECT
p219
ssI60
(dp220
g102
VITEM
p221
ssI61
(dp222
g102
VWAGON
p223
ssI62
(dp224
g102
VWATERING_CAN
p225
ssI63
(dp226
g102
VBAG
p227
ssI64
(dp228
g102
VTREE
p229
ssI65
(dp230
g102
VHOOK
p231
ssI66
(dp232
g102
VCELLO
p233
ssI67
(dp234
g102
VBOOKSHELF
p235
ssI68
(dp236
g102
VCLOTHING
p237
ssI69
(dp238
g102
VTSHIRT
p239
ssI70
(dp240
g102
VDRESS
p241
ssI71
(dp242
g102
VSHIRT
p243
ssI72
(dp244
g102
VSUIT
p245
ssI73
(dp246
g102
VTURTLE
p247
ssI74
(dp248
g102
VMOUSE
p249
ssI75
(dp250
g102
VDOG
p251
ssI76
(dp252
g102
VBOY
p253
ssI77
(dp254
g102
VWOMAN
p255
ssI78
(dp256
g102
VPEOPLE
p257
ssI79
(dp258
g102
VPOLICEMAN
p259
ssI80
(dp260
g102
VHUNTER
p261
ssI81
(dp262
g102
VBALLERINA
p263
ssI82
(dp264
g102
VCELLIST
p265
ssI83
(dp266
g102
VGIRL
p267
ssI84
(dp268
g102
VFENCER
p269
ssI85
(dp270
g102
VROBBER
p271
ssI86
(dp272
g102
VMAN
p273
ssI87
(dp274
g102
VPLACE
p275
ssI88
(dp276
g102
VBOXINGRING
p277
ssI89
(dp278
g102
VPARK
p279
ssI90
(dp280
g102
VMALE
p281
ssI91
(dp282
g102
VFEMALE
p283
sssS'node_dict_factory'
p284
c__builtin__
dict
p285
sS'edge_attr_dict_factory'
p286
g285
sS'succ'
p287
(dp288
I1
(dp289
sI2
(dp290
sI3
(dp291
I2
(dp292
g77
S'is_a'
p293
sssI4
(dp294
I3
(dp295
g77
g293
sssI5
(dp296
I4
(dp297
g77
g293
sssI6
(dp298
I4
(dp299
g77
g293
sssI7
(dp300
I3
(dp301
g77
g293
sssI8
(dp302
I7
(dp303
g77
g293
sssI9
(dp304
I3
(dp305
g77
g293
sssI10
(dp306
I9
(dp307
g77
g293
sssI11
(dp308
I9
(dp309
g77
g293
sssI12
(dp310
I9
(dp311
g77
g293
sssI13
(dp312
I9
(dp313
g77
g293
sssI14
(dp314
I9
(dp315
g77
g293
sssI15
(dp316
I9
(dp317
g77
g293
sssI16
(dp318
I9
(dp319
g77
g293
sssI17
(dp320
I9
(dp321
g77
g293
sssI18
(dp322
I9
(dp323
g77
g293
sssI19
(dp324
I3
(dp325
g77
g293
sssI20
(dp326
I19
(dp327
g77
g293
sssI21
(dp328
I19
(dp329
g77
g293
sssI22
(dp330
I2
(dp331
g77
g293
sssI23
(dp332
I22
(dp333
g77
g293
sssI24
(dp334
I23
(dp335
g77
g293
sssI25
(dp336
I23
(dp337
g77
g293
sssI26
(dp338
I23
(dp339
g77
g293
sssI27
(dp340
I23
(dp341
g77
g293
sssI28
(dp342
I23
(dp343
g77
g293
sssI29
(dp344
I22
(dp345
g77
g293
sssI30
(dp346
I29
(dp347
g77
g293
sssI31
(dp348
I29
(dp349
g77
g293
sssI32
(dp350
I29
(dp351
g77
g293
sssI33
(dp352
I22
(dp353
g77
g293
sssI34
(dp354
I33
(dp355
g77
g293
sssI35
(dp356
I33
(dp357
g77
g293
sssI36
(dp358
I2
(dp359
g77
g293
sssI37
(dp360
I36
(dp361
g77
g293
sssI38
(dp362
I37
(dp363
g77
g293
ssI53
(dp364
g77
g293
sssI39
(dp365
I37
(dp366
g77
g293
sssI40
(dp367
I37
(dp368
g77
g293
sssI41
(dp369
I37
(dp370
g77
g293
ssI53
(dp371
g77
g293
sssI42
(dp372
I37
(dp373
g77
g293
sssI43
(dp374
I42
(dp375
g77
g293
sssI44
(dp376
I43
(dp377
g77
g293
ssI45
(dp378
g77
g293
sssI45
(dp379
I42
(dp380
g77
g293
sssI46
(dp381
I36
(dp382
g77
g293
sssI47
(dp383
I46
(dp384
g77
g293
sssI48
(dp385
I47
(dp386
g77
g293
sssI49
(dp387
I47
(dp388
g77
g293
sssI50
(dp389
I46
(dp390
g77
g293
sssI51
(dp391
I50
(dp392
g77
g293
sssI52
(dp393
I36
(dp394
g77
g293
sssI53
(dp395
I36
(dp396
g77
g293
sssI54
(dp397
I2
(dp398
g77
g293
sssI55
(dp399
I2
(dp400
g77
g293
sssI56
(dp401
I55
(dp402
g77
g293
sssI57
(dp403
I56
(dp404
g77
g293
ssI59
(dp405
g77
g293
sssI58
(dp406
I56
(dp407
g77
g293
ssI59
(dp408
g77
g293
sssI59
(dp409
I55
(dp410
g77
g293
sssI60
(dp411
I59
(dp412
g77
g293
sssI61
(dp413
I60
(dp414
g77
g293
sssI62
(dp415
I60
(dp416
g77
g293
sssI63
(dp417
I60
(dp418
g77
g293
sssI64
(dp419
I60
(dp420
g77
g293
sssI65
(dp421
I60
(dp422
g77
g293
sssI66
(dp423
I60
(dp424
g77
g293
sssI67
(dp425
I60
(dp426
g77
g293
sssI68
(dp427
I60
(dp428
g77
g293
sssI69
(dp429
I68
(dp430
g77
g293
sssI70
(dp431
I68
(dp432
g77
g293
sssI71
(dp433
I68
(dp434
g77
g293
sssI72
(dp435
I68
(dp436
g77
g293
sssI73
(dp437
I57
(dp438
g77
g293
sssI74
(dp439
I57
(dp440
g77
g293
sssI75
(dp441
I57
(dp442
g77
g293
sssI76
(dp443
I58
(dp444
g77
g293
ssI90
(dp445
g77
g293
sssI77
(dp446
I58
(dp447
g77
g293
ssI91
(dp448
g77
g293
sssI78
(dp449
I58
(dp450
g77
g293
sssI79
(dp451
I58
(dp452
g77
g293
sssI80
(dp453
I58
(dp454
g77
g293
sssI81
(dp455
I58
(dp456
g77
g293
ssI91
(dp457
g77
g293
sssI82
(dp458
I58
(dp459
g77
g293
sssI83
(dp460
I58
(dp461
g77
g293
ssI91
(dp462
g77
g293
sssI84
(dp463
I58
(dp464
g77
g293
sssI85
(dp465
I58
(dp466
g77
g293
sssI86
(dp467
I58
(dp468
g77
g293
ssI90
(dp469
g77
g293
sssI87
(dp470
I55
(dp471
g77
g293
sssI88
(dp472
I87
(dp473
g77
g293
sssI89
(dp474
I87
(dp475
g77
g293
sssI90
(dp476
I55
(dp477
g77
g293
sssI91
(dp478
I55
(dp479
g77
g293
ssssS'edge'
p480
g288
sg94
(dp481
sS'adjlist_dict_factory'
p482
g285
sS'adj'
p483
g288
sS'pred'
p484
(dp485
I1
(dp486
sI2
(dp487
I3
g292
sI36
g359
sI54
g398
sI22
g331
sI55
g400
ssI3
(dp488
I9
g305
sI19
g325
sI4
g295
sI7
g301
ssI4
(dp489
I5
g297
sI6
g299
ssI5
(dp490
sI6
(dp491
sI7
(dp492
I8
g303
ssI8
(dp493
sI9
(dp494
I10
g307
sI11
g309
sI12
g311
sI13
g313
sI14
g315
sI15
g317
sI16
g319
sI17
g321
sI18
g323
ssI10
(dp495
sI11
(dp496
sI12
(dp497
sI13
(dp498
sI14
(dp499
sI15
(dp500
sI16
(dp501
sI17
(dp502
sI18
(dp503
sI19
(dp504
I20
g327
sI21
g329
ssI20
(dp505
sI21
(dp506
sI22
(dp507
I33
g353
sI29
g345
sI23
g333
ssI23
(dp508
I24
g335
sI25
g337
sI26
g339
sI27
g341
sI28
g343
ssI24
(dp509
sI25
(dp510
sI26
(dp511
sI27
(dp512
sI28
(dp513
sI29
(dp514
I32
g351
sI30
g347
sI31
g349
ssI30
(dp515
sI31
(dp516
sI32
(dp517
sI33
(dp518
I34
g355
sI35
g357
ssI34
(dp519
sI35
(dp520
sI36
(dp521
I52
g394
sI37
g361
sI46
g382
sI53
g396
ssI37
(dp522
I40
g368
sI41
g370
sI42
g373
sI38
g363
sI39
g366
ssI38
(dp523
sI39
(dp524
sI40
(dp525
sI41
(dp526
sI42
(dp527
I43
g375
sI45
g380
ssI43
(dp528
I44
g377
ssI44
(dp529
sI45
(dp530
I44
g378
ssI46
(dp531
I50
g390
sI47
g384
ssI47
(dp532
I48
g386
sI49
g388
ssI48
(dp533
sI49
(dp534
sI50
(dp535
I51
g392
ssI51
(dp536
sI52
(dp537
sI53
(dp538
I41
g371
sI38
g364
ssI54
(dp539
sI55
(dp540
I56
g402
sI91
g479
sI90
g477
sI59
g410
sI87
g471
ssI56
(dp541
I57
g404
sI58
g407
ssI57
(dp542
I73
g438
sI74
g440
sI75
g442
ssI58
(dp543
I76
g444
sI77
g447
sI78
g450
sI79
g452
sI80
g454
sI81
g456
sI82
g459
sI83
g461
sI84
g464
sI85
g466
sI86
g468
ssI59
(dp544
I57
g405
sI58
g408
sI60
g412
ssI60
(dp545
I64
g420
sI65
g422
sI66
g424
sI67
g426
sI68
g428
sI61
g414
sI62
g416
sI63
g418
ssI61
(dp546
sI62
(dp547
sI63
(dp548
sI64
(dp549
sI65
(dp550
sI66
(dp551
sI67
(dp552
sI68
(dp553
I72
g436
sI69
g430
sI70
g432
sI71
g434
ssI69
(dp554
sI70
(dp555
sI71
(dp556
sI72
(dp557
sI73
(dp558
sI74
(dp559
sI75
(dp560
sI76
(dp561
sI77
(dp562
sI78
(dp563
sI79
(dp564
sI80
(dp565
sI81
(dp566
sI82
(dp567
sI83
(dp568
sI84
(dp569
sI85
(dp570
sI86
(dp571
sI87
(dp572
I88
g473
sI89
g475
ssI88
(dp573
sI89
(dp574
sI90
(dp575
I76
g445
sI86
g469
ssI91
(dp576
I81
g457
sI83
g462
sI77
g448
sssbsS'nodes'
p577
(lp578
g0
(cconcept
CONCEPT
p579
g2
Ntp580
Rp581
(dp582
g102
g103
sS'conceptual_knowledge'
p583
g92
sg79
I1
sg66
g103
sbag0
(g579
g2
Ntp584
Rp585
(dp586
g102
g105
sg583
g92
sg79
I2
sg66
g105
sbag0
(g579
g2
Ntp587
Rp588
(dp589
g102
g107
sg583
g92
sg79
I3
sg66
g107
sbag0
(g579
g2
Ntp590
Rp591
(dp592
g102
g109
sg583
g92
sg79
I4
sg66
g109
sbag0
(g579
g2
Ntp593
Rp594
(dp595
g102
g111
sg583
g92
sg79
I5
sg66
g111
sbag0
(g579
g2
Ntp596
Rp597
(dp598
g102
g113
sg583
g92
sg79
I6
sg66
g113
sbag0
(g579
g2
Ntp599
Rp600
(dp601
g102
g115
sg583
g92
sg79
I7
sg66
g115
sbag0
(g579
g2
Ntp602
Rp603
(dp604
g102
g117
sg583
g92
sg79
I8
sg66
g117
sbag0
(g579
g2
Ntp605
Rp606
(dp607
g102
g119
sg583
g92
sg79
I9
sg66
g119
sbag0
(g579
g2
Ntp608
Rp609
(dp610
g102
g121
sg583
g92
sg79
I10
sg66
g121
sbag0
(g579
g2
Ntp611
Rp612
(dp613
g102
g123
sg583
g92
sg79
I11
sg66
g123
sbag0
(g579
g2
Ntp614
Rp615
(dp616
g102
g125
sg583
g92
sg79
I12
sg66
g125
sbag0
(g579
g2
Ntp617
Rp618
(dp619
g102
g127
sg583
g92
sg79
I13
sg66
g127
sbag0
(g579
g2
Ntp620
Rp621
(dp622
g102
g129
sg583
g92
sg79
I14
sg66
g129
sbag0
(g579
g2
Ntp623
Rp624
(dp625
g102
g131
sg583
g92
sg79
I15
sg66
g131
sbag0
(g579
g2
Ntp626
Rp627
(dp628
g102
g133
sg583
g92
sg79
I16
sg66
g133
sbag0
(g579
g2
Ntp629
Rp630
(dp631
g102
g135
sg583
g92
sg79
I17
sg66
g135
sbag0
(g579
g2
Ntp632
Rp633
(dp634
g102
g137
sg583
g92
sg79
I18
sg66
g137
sbag0
(g579
g2
Ntp635
Rp636
(dp637
g102
g139
sg583
g92
sg79
I19
sg66
g139
sbag0
(g579
g2
Ntp638
Rp639
(dp640
g102
g141
sg583
g92
sg79
I20
sg66
g141
sbag0
(g579
g2
Ntp641
Rp642
(dp643
g102
g143
sg583
g92
sg79
I21
sg66
g143
sbag0
(g579
g2
Ntp644
Rp645
(dp646
g102
g145
sg583
g92
sg79
I22
sg66
g145
sbag0
(g579
g2
Ntp647
Rp648
(dp649
g102
g147
sg583
g92
sg79
I23
sg66
g147
sbag0
(g579
g2
Ntp650
Rp651
(dp652
g102
g149
sg583
g92
sg79
I24
sg66
g149
sbag0
(g579
g2
Ntp653
Rp654
(dp655
g102
g151
sg583
g92
sg79
I25
sg66
g151
sbag0
(g579
g2
Ntp656
Rp657
(dp658
g102
g153
sg583
g92
sg79
I26
sg66
g153
sbag0
(g579
g2
Ntp659
Rp660
(dp661
g102
g155
sg583
g92
sg79
I27
sg66
g155
sbag0
(g579
g2
Ntp662
Rp663
(dp664
g102
g157
sg583
g92
sg79
I28
sg66
g157
sbag0
(g579
g2
Ntp665
Rp666
(dp667
g102
g159
sg583
g92
sg79
I29
sg66
g159
sbag0
(g579
g2
Ntp668
Rp669
(dp670
g102
g161
sg583
g92
sg79
I30
sg66
g161
sbag0
(g579
g2
Ntp671
Rp672
(dp673
g102
g163
sg583
g92
sg79
I31
sg66
g163
sbag0
(g579
g2
Ntp674
Rp675
(dp676
g102
g165
sg583
g92
sg79
I32
sg66
g165
sbag0
(g579
g2
Ntp677
Rp678
(dp679
g102
g167
sg583
g92
sg79
I33
sg66
g167
sbag0
(g579
g2
Ntp680
Rp681
(dp682
g102
g169
sg583
g92
sg79
I34
sg66
g169
sbag0
(g579
g2
Ntp683
Rp684
(dp685
g102
g171
sg583
g92
sg79
I35
sg66
g171
sbag0
(g579
g2
Ntp686
Rp687
(dp688
g102
g173
sg583
g92
sg79
I36
sg66
g173
sbag0
(g579
g2
Ntp689
Rp690
(dp691
g102
g175
sg583
g92
sg79
I37
sg66
g175
sbag0
(g579
g2
Ntp692
Rp693
(dp694
g102
g177
sg583
g92
sg79
I38
sg66
g177
sbag0
(g579
g2
Ntp695
Rp696
(dp697
g102
g179
sg583
g92
sg79
I39
sg66
g179
sbag0
(g579
g2
Ntp698
Rp699
(dp700
g102
g181
sg583
g92
sg79
I40
sg66
g181
sbag0
(g579
g2
Ntp701
Rp702
(dp703
g102
g183
sg583
g92
sg79
I41
sg66
g183
sbag0
(g579
g2
Ntp704
Rp705
(dp706
g102
g185
sg583
g92
sg79
I42
sg66
g185
sbag0
(g579
g2
Ntp707
Rp708
(dp709
g102
g187
sg583
g92
sg79
I43
sg66
g187
sbag0
(g579
g2
Ntp710
Rp711
(dp712
g102
g189
sg583
g92
sg79
I44
sg66
g189
sbag0
(g579
g2
Ntp713
Rp714
(dp715
g102
g191
sg583
g92
sg79
I45
sg66
g191
sbag0
(g579
g2
Ntp716
Rp717
(dp718
g102
g193
sg583
g92
sg79
I46
sg66
g193
sbag0
(g579
g2
Ntp719
Rp720
(dp721
g102
g195
sg583
g92
sg79
I47
sg66
g195
sbag0
(g579
g2
Ntp722
Rp723
(dp724
g102
g197
sg583
g92
sg79
I48
sg66
g197
sbag0
(g579
g2
Ntp725
Rp726
(dp727
g102
g199
sg583
g92
sg79
I49
sg66
g199
sbag0
(g579
g2
Ntp728
Rp729
(dp730
g102
g201
sg583
g92
sg79
I50
sg66
g201
sbag0
(g579
g2
Ntp731
Rp732
(dp733
g102
g203
sg583
g92
sg79
I51
sg66
g203
sbag0
(g579
g2
Ntp734
Rp735
(dp736
g102
g205
sg583
g92
sg79
I52
sg66
g205
sbag0
(g579
g2
Ntp737
Rp738
(dp739
g102
g207
sg583
g92
sg79
I53
sg66
g207
sbag0
(g579
g2
Ntp740
Rp741
(dp742
g102
g209
sg583
g92
sg79
I54
sg66
g209
sbag0
(g579
g2
Ntp743
Rp744
(dp745
g102
g211
sg583
g92
sg79
I55
sg66
g211
sbag0
(g579
g2
Ntp746
Rp747
(dp748
g102
g213
sg583
g92
sg79
I56
sg66
g213
sbag0
(g579
g2
Ntp749
Rp750
(dp751
g102
g215
sg583
g92
sg79
I57
sg66
g215
sbag0
(g579
g2
Ntp752
Rp753
(dp754
g102
g217
sg583
g92
sg79
I58
sg66
g217
sbag0
(g579
g2
Ntp755
Rp756
(dp757
g102
g219
sg583
g92
sg79
I59
sg66
g219
sbag0
(g579
g2
Ntp758
Rp759
(dp760
g102
g221
sg583
g92
sg79
I60
sg66
g221
sbag0
(g579
g2
Ntp761
Rp762
(dp763
g102
g223
sg583
g92
sg79
I61
sg66
g223
sbag0
(g579
g2
Ntp764
Rp765
(dp766
g102
g225
sg583
g92
sg79
I62
sg66
g225
sbag0
(g579
g2
Ntp767
Rp768
(dp769
g102
g227
sg583
g92
sg79
I63
sg66
g227
sbag0
(g579
g2
Ntp770
Rp771
(dp772
g102
g229
sg583
g92
sg79
I64
sg66
g229
sbag0
(g579
g2
Ntp773
Rp774
(dp775
g102
g231
sg583
g92
sg79
I65
sg66
g231
sbag0
(g579
g2
Ntp776
Rp777
(dp778
g102
g233
sg583
g92
sg79
I66
sg66
g233
sbag0
(g579
g2
Ntp779
Rp780
(dp781
g102
g235
sg583
g92
sg79
I67
sg66
g235
sbag0
(g579
g2
Ntp782
Rp783
(dp784
g102
g237
sg583
g92
sg79
I68
sg66
g237
sbag0
(g579
g2
Ntp785
Rp786
(dp787
g102
g239
sg583
g92
sg79
I69
sg66
g239
sbag0
(g579
g2
Ntp788
Rp789
(dp790
g102
g241
sg583
g92
sg79
I70
sg66
g241
sbag0
(g579
g2
Ntp791
Rp792
(dp793
g102
g243
sg583
g92
sg79
I71
sg66
g243
sbag0
(g579
g2
Ntp794
Rp795
(dp796
g102
g245
sg583
g92
sg79
I72
sg66
g245
sbag0
(g579
g2
Ntp797
Rp798
(dp799
g102
g247
sg583
g92
sg79
I73
sg66
g247
sbag0
(g579
g2
Ntp800
Rp801
(dp802
g102
g249
sg583
g92
sg79
I74
sg66
g249
sbag0
(g579
g2
Ntp803
Rp804
(dp805
g102
g251
sg583
g92
sg79
I75
sg66
g251
sbag0
(g579
g2
Ntp806
Rp807
(dp808
g102
g253
sg583
g92
sg79
I76
sg66
g253
sbag0
(g579
g2
Ntp809
Rp810
(dp811
g102
g255
sg583
g92
sg79
I77
sg66
g255
sbag0
(g579
g2
Ntp812
Rp813
(dp814
g102
g257
sg583
g92
sg79
I78
sg66
g257
sbag0
(g579
g2
Ntp815
Rp816
(dp817
g102
g259
sg583
g92
sg79
I79
sg66
g259
sbag0
(g579
g2
Ntp818
Rp819
(dp820
g102
g261
sg583
g92
sg79
I80
sg66
g261
sbag0
(g579
g2
Ntp821
Rp822
(dp823
g102
g263
sg583
g92
sg79
I81
sg66
g263
sbag0
(g579
g2
Ntp824
Rp825
(dp826
g102
g265
sg583
g92
sg79
I82
sg66
g265
sbag0
(g579
g2
Ntp827
Rp828
(dp829
g102
g267
sg583
g92
sg79
I83
sg66
g267
sbag0
(g579
g2
Ntp830
Rp831
(dp832
g102
g269
sg583
g92
sg79
I84
sg66
g269
sbag0
(g579
g2
Ntp833
Rp834
(dp835
g102
g271
sg583
g92
sg79
I85
sg66
g271
sbag0
(g579
g2
Ntp836
Rp837
(dp838
g102
g273
sg583
g92
sg79
I86
sg66
g273
sbag0
(g579
g2
Ntp839
Rp840
(dp841
g102
g275
sg583
g92
sg79
I87
sg66
g275
sbag0
(g579
g2
Ntp842
Rp843
(dp844
g102
g277
sg583
g92
sg79
I88
sg66
g277
sbag0
(g579
g2
Ntp845
Rp846
(dp847
g102
g279
sg583
g92
sg79
I89
sg66
g279
sbag0
(g579
g2
Ntp848
Rp849
(dp850
g102
g281
sg583
g92
sg79
I90
sg66
g281
sbag0
(g579
g2
Ntp851
Rp852
(dp853
g102
g283
sg583
g92
sg79
I91
sg66
g283
sbasS'edges'
p854
(lp855
g0
(cconcept
SEM_REL
p856
g2
Ntp857
Rp858
(dp859
S'pTo'
p860
g585
sg77
g293
sS'pFrom'
p861
g588
sbag0
(g856
g2
Ntp862
Rp863
(dp864
g860
g588
sg77
g293
sg861
g591
sbag0
(g856
g2
Ntp865
Rp866
(dp867
g860
g591
sg77
g293
sg861
g594
sbag0
(g856
g2
Ntp868
Rp869
(dp870
g860
g591
sg77
g293
sg861
g597
sbag0
(g856
g2
Ntp871
Rp872
(dp873
g860
g588
sg77
g293
sg861
g600
sbag0
(g856
g2
Ntp874
Rp875
(dp876
g860
g600
sg77
g293
sg861
g603
sbag0
(g856
g2
Ntp877
Rp878
(dp879
g860
g588
sg77
g293
sg861
g606
sbag0
(g856
g2
Ntp880
Rp881
(dp882
g860
g606
sg77
g293
sg861
g609
sbag0
(g856
g2
Ntp883
Rp884
(dp885
g860
g606
sg77
g293
sg861
g612
sbag0
(g856
g2
Ntp886
Rp887
(dp888
g860
g606
sg77
g293
sg861
g615
sbag0
(g856
g2
Ntp889
Rp890
(dp891
g860
g606
sg77
g293
sg861
g618
sbag0
(g856
g2
Ntp892
Rp893
(dp894
g860
g606
sg77
g293
sg861
g621
sbag0
(g856
g2
Ntp895
Rp896
(dp897
g860
g606
sg77
g293
sg861
g624
sbag0
(g856
g2
Ntp898
Rp899
(dp900
g860
g606
sg77
g293
sg861
g627
sbag0
(g856
g2
Ntp901
Rp902
(dp903
g860
g606
sg77
g293
sg861
g630
sbag0
(g856
g2
Ntp904
Rp905
(dp906
g860
g606
sg77
g293
sg861
g633
sbag0
(g856
g2
Ntp907
Rp908
(dp909
g860
g588
sg77
g293
sg861
g636
sbag0
(g856
g2
Ntp910
Rp911
(dp912
g860
g636
sg77
g293
sg861
g639
sbag0
(g856
g2
Ntp913
Rp914
(dp915
g860
g636
sg77
g293
sg861
g642
sbag0
(g856
g2
Ntp916
Rp917
(dp918
g860
g585
sg77
g293
sg861
g645
sbag0
(g856
g2
Ntp919
Rp920
(dp921
g860
g645
sg77
g293
sg861
g648
sbag0
(g856
g2
Ntp922
Rp923
(dp924
g860
g648
sg77
g293
sg861
g651
sbag0
(g856
g2
Ntp925
Rp926
(dp927
g860
g648
sg77
g293
sg861
g654
sbag0
(g856
g2
Ntp928
Rp929
(dp930
g860
g648
sg77
g293
sg861
g657
sbag0
(g856
g2
Ntp931
Rp932
(dp933
g860
g648
sg77
g293
sg861
g660
sbag0
(g856
g2
Ntp934
Rp935
(dp936
g860
g648
sg77
g293
sg861
g663
sbag0
(g856
g2
Ntp937
Rp938
(dp939
g860
g645
sg77
g293
sg861
g666
sbag0
(g856
g2
Ntp940
Rp941
(dp942
g860
g666
sg77
g293
sg861
g669
sbag0
(g856
g2
Ntp943
Rp944
(dp945
g860
g666
sg77
g293
sg861
g672
sbag0
(g856
g2
Ntp946
Rp947
(dp948
g860
g666
sg77
g293
sg861
g675
sbag0
(g856
g2
Ntp949
Rp950
(dp951
g860
g645
sg77
g293
sg861
g678
sbag0
(g856
g2
Ntp952
Rp953
(dp954
g860
g678
sg77
g293
sg861
g681
sbag0
(g856
g2
Ntp955
Rp956
(dp957
g860
g678
sg77
g293
sg861
g684
sbag0
(g856
g2
Ntp958
Rp959
(dp960
g860
g585
sg77
g293
sg861
g687
sbag0
(g856
g2
Ntp961
Rp962
(dp963
g860
g687
sg77
g293
sg861
g690
sbag0
(g856
g2
Ntp964
Rp965
(dp966
g860
g690
sg77
g293
sg861
g693
sbag0
(g856
g2
Ntp967
Rp968
(dp969
g860
g690
sg77
g293
sg861
g696
sbag0
(g856
g2
Ntp970
Rp971
(dp972
g860
g690
sg77
g293
sg861
g699
sbag0
(g856
g2
Ntp973
Rp974
(dp975
g860
g690
sg77
g293
sg861
g702
sbag0
(g856
g2
Ntp976
Rp977
(dp978
g860
g690
sg77
g293
sg861
g705
sbag0
(g856
g2
Ntp979
Rp980
(dp981
g860
g705
sg77
g293
sg861
g708
sbag0
(g856
g2
Ntp982
Rp983
(dp984
g860
g708
sg77
g293
sg861
g711
sbag0
(g856
g2
Ntp985
Rp986
(dp987
g860
g705
sg77
g293
sg861
g714
sbag0
(g856
g2
Ntp988
Rp989
(dp990
g860
g714
sg77
g293
sg861
g711
sbag0
(g856
g2
Ntp991
Rp992
(dp993
g860
g687
sg77
g293
sg861
g717
sbag0
(g856
g2
Ntp994
Rp995
(dp996
g860
g717
sg77
g293
sg861
g720
sbag0
(g856
g2
Ntp997
Rp998
(dp999
g860
g720
sg77
g293
sg861
g723
sbag0
(g856
g2
Ntp1000
Rp1001
(dp1002
g860
g720
sg77
g293
sg861
g726
sbag0
(g856
g2
Ntp1003
Rp1004
(dp1005
g860
g717
sg77
g293
sg861
g729
sbag0
(g856
g2
Ntp1006
Rp1007
(dp1008
g860
g729
sg77
g293
sg861
g732
sbag0
(g856
g2
Ntp1009
Rp1010
(dp1011
g860
g687
sg77
g293
sg861
g735
sbag0
(g856
g2
Ntp1012
Rp1013
(dp1014
g860
g687
sg77
g293
sg861
g738
sbag0
(g856
g2
Ntp1015
Rp1016
(dp1017
g860
g738
sg77
g293
sg861
g693
sbag0
(g856
g2
Ntp1018
Rp1019
(dp1020
g860
g738
sg77
g293
sg861
g702
sbag0
(g856
g2
Ntp1021
Rp1022
(dp1023
g860
g585
sg77
g293
sg861
g741
sbag0
(g856
g2
Ntp1024
Rp1025
(dp1026
g860
g585
sg77
g293
sg861
g744
sbag0
(g856
g2
Ntp1027
Rp1028
(dp1029
g860
g744
sg77
g293
sg861
g747
sbag0
(g856
g2
Ntp1030
Rp1031
(dp1032
g860
g747
sg77
g293
sg861
g750
sbag0
(g856
g2
Ntp1033
Rp1034
(dp1035
g860
g747
sg77
g293
sg861
g753
sbag0
(g856
g2
Ntp1036
Rp1037
(dp1038
g860
g744
sg77
g293
sg861
g756
sbag0
(g856
g2
Ntp1039
Rp1040
(dp1041
g860
g756
sg77
g293
sg861
g759
sbag0
(g856
g2
Ntp1042
Rp1043
(dp1044
g860
g759
sg77
g293
sg861
g762
sbag0
(g856
g2
Ntp1045
Rp1046
(dp1047
g860
g759
sg77
g293
sg861
g765
sbag0
(g856
g2
Ntp1048
Rp1049
(dp1050
g860
g759
sg77
g293
sg861
g768
sbag0
(g856
g2
Ntp1051
Rp1052
(dp1053
g860
g759
sg77
g293
sg861
g771
sbag0
(g856
g2
Ntp1054
Rp1055
(dp1056
g860
g759
sg77
g293
sg861
g774
sbag0
(g856
g2
Ntp1057
Rp1058
(dp1059
g860
g759
sg77
g293
sg861
g777
sbag0
(g856
g2
Ntp1060
Rp1061
(dp1062
g860
g759
sg77
g293
sg861
g780
sbag0
(g856
g2
Ntp1063
Rp1064
(dp1065
g860
g759
sg77
g293
sg861
g783
sbag0
(g856
g2
Ntp1066
Rp1067
(dp1068
g860
g783
sg77
g293
sg861
g786
sbag0
(g856
g2
Ntp1069
Rp1070
(dp1071
g860
g783
sg77
g293
sg861
g789
sbag0
(g856
g2
Ntp1072
Rp1073
(dp1074
g860
g783
sg77
g293
sg861
g792
sbag0
(g856
g2
Ntp1075
Rp1076
(dp1077
g860
g783
sg77
g293
sg861
g795
sbag0
(g856
g2
Ntp1078
Rp1079
(dp1080
g860
g756
sg77
g293
sg861
g750
sbag0
(g856
g2
Ntp1081
Rp1082
(dp1083
g860
g750
sg77
g293
sg861
g798
sbag0
(g856
g2
Ntp1084
Rp1085
(dp1086
g860
g750
sg77
g293
sg861
g801
sbag0
(g856
g2
Ntp1087
Rp1088
(dp1089
g860
g750
sg77
g293
sg861
g804
sbag0
(g856
g2
Ntp1090
Rp1091
(dp1092
g860
g756
sg77
g293
sg861
g753
sbag0
(g856
g2
Ntp1093
Rp1094
(dp1095
g860
g753
sg77
g293
sg861
g807
sbag0
(g856
g2
Ntp1096
Rp1097
(dp1098
g860
g753
sg77
g293
sg861
g810
sbag0
(g856
g2
Ntp1099
Rp1100
(dp1101
g860
g753
sg77
g293
sg861
g813
sbag0
(g856
g2
Ntp1102
Rp1103
(dp1104
g860
g753
sg77
g293
sg861
g816
sbag0
(g856
g2
Ntp1105
Rp1106
(dp1107
g860
g753
sg77
g293
sg861
g819
sbag0
(g856
g2
Ntp1108
Rp1109
(dp1110
g860
g753
sg77
g293
sg861
g822
sbag0
(g856
g2
Ntp1111
Rp1112
(dp1113
g860
g753
sg77
g293
sg861
g825
sbag0
(g856
g2
Ntp1114
Rp1115
(dp1116
g860
g753
sg77
g293
sg861
g828
sbag0
(g856
g2
Ntp1117
Rp1118
(dp1119
g860
g753
sg77
g293
sg861
g831
sbag0
(g856
g2
Ntp1120
Rp1121
(dp1122
g860
g753
sg77
g293
sg861
g834
sbag0
(g856
g2
Ntp1123
Rp1124
(dp1125
g860
g753
sg77
g293
sg861
g837
sbag0
(g856
g2
Ntp1126
Rp1127
(dp1128
g860
g744
sg77
g293
sg861
g840
sbag0
(g856
g2
Ntp1129
Rp1130
(dp1131
g860
g840
sg77
g293
sg861
g843
sbag0
(g856
g2
Ntp1132
Rp1133
(dp1134
g860
g840
sg77
g293
sg861
g846
sbag0
(g856
g2
Ntp1135
Rp1136
(dp1137
g860
g744
sg77
g293
sg861
g849
sbag0
(g856
g2
Ntp1138
Rp1139
(dp1140
g860
g849
sg77
g293
sg861
g807
sbag0
(g856
g2
Ntp1141
Rp1142
(dp1143
g860
g849
sg77
g293
sg861
g837
sbag0
(g856
g2
Ntp1144
Rp1145
(dp1146
g860
g744
sg77
g293
sg861
g852
sbag0
(g856
g2
Ntp1147
Rp1148
(dp1149
g860
g852
sg77
g293
sg861
g822
sbag0
(g856
g2
Ntp1150
Rp1151
(dp1152
g860
g852
sg77
g293
sg861
g828
sbag0
(g856
g2
Ntp1153
Rp1154
(dp1155
g860
g852
sg77
g293
sg861
g810
sbasS'neutral'
p1156
g581
sbsS'dt'
p1157
F1.0
sS'in_ports'
p1158
(lp1159
sS'params'
p1160
(dp1161
S'init_act'
p1162
F1.0
ssS't'
p1163
F0.0
sS'activity'
p1164
F0.0
sS'model'
p1165
g0
(cschema_theory
MODEL
p1166
g2
Ntp1167
Rp1168
(dp1169
S'verbose'
p1170
I00
sg66
S'language_system_P'
p1171
sS'sim_data'
p1172
(dp1173
S'system_states'
p1174
(dp1175
sg1165
(dp1176
ssg85
(dp1177
sS'input_ports'
p1178
(lp1179
g0
(g70
g2
Ntp1180
Rp1181
(dp1182
g66
S'from_conceptualizer'
p1183
sg75
Nsg76
Nsg77
S'IN'
p1184
sg79
I1
sg80
g0
(clanguage_schemas
SEMANTIC_WM
p1185
g2
Ntp1186
Rp1187
(dp1188
g64
(dp1189
S'from_grammatical_WM_P'
p1190
NsS'from_concept_LTM'
p1191
NsS'from_control'
p1192
NsS'from_grammatical_WM_C'
p1193
Nsg1183
NssS'schema_insts'
p1194
(lp1195
sg66
S'Semantic_WM'
p1196
sS'comp_links'
p1197
(lp1198
sg68
(lp1199
g0
(g70
g2
Ntp1200
Rp1201
(dp1202
g66
S'to_grammatical_WM_P'
p1203
sg75
Nsg76
Nsg77
g78
sg79
I6
sg80
g1187
sbag0
(g70
g2
Ntp1204
Rp1205
(dp1206
g66
S'to_cxn_retrieval_P'
p1207
sg75
Nsg76
Nsg77
g78
sg79
I7
sg80
g1187
sbag0
(g70
g2
Ntp1208
Rp1209
(dp1210
g66
S'to_control'
p1211
sg75
Nsg76
Nsg77
g78
sg79
I8
sg80
g1187
sbag0
(g70
g2
Ntp1212
Rp1213
(dp1214
g66
S'to_visual_WM'
p1215
sg75
Nsg76
Nsg77
g78
sg79
I9
sg80
g1187
sbag0
(g70
g2
Ntp1216
Rp1217
(dp1218
g66
S'to_output'
p1219
sg75
Nsg76
Nsg77
g78
sg79
I10
sg80
g1187
sbasg85
(dp1220
g1219
Nsg1203
Nsg1215
Nsg1207
Nsg1211
Nssg1157
F1.0
sS'coop_links'
p1221
(lp1222
sg1158
(lp1223
g1181
ag0
(g70
g2
Ntp1224
Rp1225
(dp1226
g66
g1191
sg75
Nsg76
Nsg77
g1184
sg79
I2
sg80
g1187
sbag0
(g70
g2
Ntp1227
Rp1228
(dp1229
g66
g1193
sg75
Nsg76
Nsg77
g1184
sg79
I3
sg80
g1187
sbag0
(g70
g2
Ntp1230
Rp1231
(dp1232
g66
g1190
sg75
Nsg76
Nsg77
g1184
sg79
I4
sg80
g1187
sbag0
(g70
g2
Ntp1233
Rp1234
(dp1235
g66
g1192
sg75
Nsg76
Nsg77
g1184
sg79
I5
sg80
g1187
sbasS'save_state'
p1236
(dp1237
S'insts'
p1238
(dp1239
sS'WM_activity'
p1240
(dp1241
S'comp'
p1242
(lp1243
sS'c2_network'
p1244
(dp1245
S'num_insts'
p1246
(lp1247
sS'num_coop_links'
p1248
(lp1249
sS'num_comp_links'
p1250
(lp1251
ssS'coop'
p1252
(lp1253
sg1163
(lp1254
sS'act'
p1255
(lp1256
sssg1160
(dp1257
S'C2'
p1258
(dp1259
S'P_comp'
p1260
F1.0
sS'max_capacity'
p1261
NsS'comp_weight'
p1262
F0.0
sS'P_coop'
p1263
F1.0
sS'coop_asymmetry'
p1264
F1.0
sS'coop_weight'
p1265
F0.0
sS'confidence_threshold'
p1266
F0.0
sS'comp_asymmetry'
p1267
F0.0
sS'prune_threshold'
p1268
F0.01
ssS'dyn'
p1269
(dp1270
S'tau'
p1271
F10000.0
sS'k'
p1272
F10.0
sS'act_rest'
p1273
F0.001
sS'noise_mean'
p1274
F0.0
sS'noise_std'
p1275
F1.0
sS'ext_weight'
p1276
F1.0
sS'int_weight'
p1277
F1.0
sssg1163
F0.0
sg1164
F0.0
sg1165
g1168
sS'SemRep'
p1278
g0
(g95
g2
Ntp1279
Rp1280
(dp1281
g99
(dp1282
sg284
g285
sg286
g285
sg287
(dp1283
sg480
g1283
sg94
(dp1284
sg482
g285
sg483
g1283
sg484
(dp1285
sbsg79
I1
sbsbasS'brain_mapping'
p1286
g0
(cschema_theory
BRAIN_MAPPING
p1287
g2
Ntp1288
Rp1289
(dp1290
S'schema_mapping'
p1291
(dp1292
S'Control'
p1293
(lp1294
S'DLPFC'
p1295
asS'Utter'
p1296
(lp1297
S''
p1298
asg1196
(lp1299
S'left_SFG'
p1300
aS'LIP'
p1301
aS'Hippocampus'
p1302
asS'Phonological_WM_P'
p1303
(lp1304
S'left_BA6'
p1305
asg67
(lp1306
g1298
asS'Grammatical_WM_P'
p1307
(lp1308
S'left_BA45'
p1309
aS'leftBA44'
p1310
asS'Grammatical_LTM'
p1311
(lp1312
S'left_STG'
p1313
aS'left_MTG'
p1314
asS'Cxn_retrieval_P'
p1315
(lp1316
ssS'connect_mapping'
p1317
(dp1318
sbsg87
(lp1319
g0
(cschema_theory
CONNECT
p1320
g2
Ntp1321
Rp1322
(dp1323
S'delay'
p1324
I0
sg66
g1298
sS'weight'
p1325
I0
sS'port_to'
p1326
g0
(g70
g2
Ntp1327
Rp1328
(dp1329
g66
S'from_semantic_WM'
p1330
sg75
Nsg76
Nsg77
g1184
sg79
I23
sg80
g0
(clanguage_schemas
CXN_RETRIEVAL_P
p1331
g2
Ntp1332
Rp1333
(dp1334
g64
(dp1335
g1330
NsS'from_grammatical_LTM'
p1336
Nssg66
g1315
sg68
(lp1337
g0
(g70
g2
Ntp1338
Rp1339
(dp1340
g66
g1203
sg75
Nsg76
Nsg77
g78
sg79
I24
sg80
g1333
sbasg85
(dp1341
g1203
NssS'cxn_instances'
p1342
(lp1343
sg1157
F1.0
sg1158
(lp1344
g0
(g70
g2
Ntp1345
Rp1346
(dp1347
g66
g1336
sg75
Nsg76
Nsg77
g1184
sg79
I22
sg80
g1333
sbag1328
asg1160
(dp1348
sg1163
F0.0
sg1164
F0.0
sg1165
g1168
sg79
I5
sbsbsS'port_from'
p1349
g1205
sg1165
g1168
sg79
I1
sbag0
(g1320
g2
Ntp1350
Rp1351
(dp1352
g1324
I0
sg66
g1298
sg1325
I0
sg1326
g1346
sg1349
g0
(g70
g2
Ntp1353
Rp1354
(dp1355
g66
g1207
sg75
Nsg76
Nsg77
g78
sg79
I20
sg80
g0
(clanguage_schemas
GRAMMATICAL_LTM
p1356
g2
Ntp1357
Rp1358
(dp1359
g64
(dp1360
sS'grammar'
p1361
(iconstruction
GRAMMAR
p1362
(dp1363
S'constructions'
p1364
(lp1365
(iconstruction
CXN
p1366
(dp1367
S'SymLinks'
p1368
(iconstruction
TP_SYMLINKS
p1369
(dp1370
S'SL'
p1371
(dp1372
VEVT1_4
p1373
VS1_6
p1374
sVEVT2_5
p1375
VS3_8
p1376
ssg79
I3
sg66
g1298
sbsS'clss'
p1377
VD
p1378
sS'group'
p1379
I3
sg66
VCNJ_AND
p1380
sS'SemFrame'
p1381
(iconstruction
TP_SEMFRAME
p1382
(dp1383
g94
g0
(g95
g2
Ntp1384
Rp1385
(dp1386
g99
(dp1387
(iconstruction
TP_NODE
p1388
(dp1389
S'head'
p1390
I00
sS'concept'
p1391
g741
sg66
g1373
sS'frame'
p1392
I00
sS'focus'
p1393
I01
sg79
I4
sb(dp1394
g1392
I00
sg1391
g741
ss(iconstruction
TP_NODE
p1395
(dp1396
g1390
I00
sg1391
g741
sg66
g1375
sg1392
I00
sg1393
I00
sg79
I5
sb(dp1397
g1392
I00
sg1391
g741
sssg284
g285
sg286
g285
sg287
(dp1398
g1388
(dp1399
sg1395
(dp1400
ssg480
g1398
sg94
(dp1401
sg482
g285
sg483
g1398
sg484
(dp1402
g1388
(dp1403
sg1395
(dp1404
ssbsg577
(lp1405
g1388
ag1395
asg854
(lp1406
sg79
I1
sg66
g1298
sbsS'SynForm'
p1407
(iconstruction
TP_SYNFORM
p1408
(dp1409
g79
I2
sS'form'
p1410
(lp1411
(iconstruction
TP_SLOT
p1412
(dp1413
S'cxn_classes'
p1414
(lp1415
VS
p1416
asS'order'
p1417
I0
sg79
I6
sg66
g1374
sba(iconstruction
TP_PHON
p1418
(dp1419
S'num_syllables'
p1420
I3
sg1417
I1
sg79
I7
sS'cxn_phonetics'
p1421
Vand
p1422
sg66
VS2_7
p1423
sba(iconstruction
TP_SLOT
p1424
(dp1425
g1414
(lp1426
VS
p1427
asg1417
I2
sg79
I8
sg66
g1376
sbasg66
g1298
sbsS'preference'
p1428
I1
sba(iconstruction
CXN
p1429
(dp1430
g1368
(iconstruction
TP_SYMLINKS
p1431
(dp1432
g1371
(dp1433
VEVT2_13
p1434
VS3_17
p1435
sVEVT1_12
p1436
VS1_15
p1437
ssg79
I11
sg66
g1298
sbsg1377
VD
p1438
sg1379
I3
sg66
VCNJ_THEN
p1439
sg1381
(iconstruction
TP_SEMFRAME
p1440
(dp1441
g94
g0
(g95
g2
Ntp1442
Rp1443
(dp1444
g99
(dp1445
(iconstruction
TP_NODE
p1446
(dp1447
g1390
I00
sg1391
g741
sg66
g1436
sg1392
I00
sg1393
I00
sg79
I12
sb(dp1448
g1392
I00
sg1391
g741
ss(iconstruction
TP_NODE
p1449
(dp1450
g1390
I00
sg1391
g741
sg66
g1434
sg1392
I00
sg1393
I00
sg79
I13
sb(dp1451
g1392
I00
sg1391
g741
sssg284
g285
sg286
g285
sg287
(dp1452
g1446
(dp1453
g1449
(dp1454
g1391
g726
sssg1449
(dp1455
ssg480
g1452
sg94
(dp1456
sg482
g285
sg483
g1452
sg484
(dp1457
g1446
(dp1458
sg1449
(dp1459
g1446
g1454
sssbsg577
(lp1460
g1446
ag1449
asg854
(lp1461
(iconstruction
TP_REL
p1462
(dp1463
g860
g1449
sg1391
g726
sg79
I14
sg861
g1446
sg66
VEVT1_EVT2_14
p1464
sbasg79
I9
sg66
g1298
sbsg1407
(iconstruction
TP_SYNFORM
p1465
(dp1466
g79
I10
sg1410
(lp1467
(iconstruction
TP_SLOT
p1468
(dp1469
g1414
(lp1470
VS
p1471
asg1417
I0
sg79
I15
sg66
g1437
sba(iconstruction
TP_PHON
p1472
(dp1473
g1420
I4
sg1417
I1
sg79
I16
sg1421
Vthen
p1474
sg66
VS2_16
p1475
sba(iconstruction
TP_SLOT
p1476
(dp1477
g1414
(lp1478
VS
p1479
asg1417
I2
sg79
I17
sg66
g1435
sbasg66
g1298
sbsg1428
I1
sba(iconstruction
CXN
p1480
(dp1481
g1368
(iconstruction
TP_SYMLINKS
p1482
(dp1483
g1371
(dp1484
VEVT2_22
p1485
VS3_26
p1486
sVEVT1_21
p1487
VS1_24
p1488
ssg79
I20
sg66
g1298
sbsg1377
VD
p1489
sg1379
I3
sg66
VCNJ_WHILE
p1490
sg1381
(iconstruction
TP_SEMFRAME
p1491
(dp1492
g94
g0
(g95
g2
Ntp1493
Rp1494
(dp1495
g99
(dp1496
(iconstruction
TP_NODE
p1497
(dp1498
g1390
I00
sg1391
g741
sg66
g1485
sg1392
I00
sg1393
I00
sg79
I22
sb(dp1499
g1392
I00
sg1391
g741
ss(iconstruction
TP_NODE
p1500
(dp1501
g1390
I00
sg1391
g741
sg66
g1487
sg1392
I00
sg1393
I01
sg79
I21
sb(dp1502
g1392
I00
sg1391
g741
sssg284
g285
sg286
g285
sg287
(dp1503
g1497
(dp1504
sg1500
(dp1505
g1497
(dp1506
g1391
g723
ssssg480
g1503
sg94
(dp1507
sg482
g285
sg483
g1503
sg484
(dp1508
g1497
(dp1509
g1500
g1506
ssg1500
(dp1510
ssbsg577
(lp1511
g1500
ag1497
asg854
(lp1512
(iconstruction
TP_REL
p1513
(dp1514
g860
g1497
sg1391
g723
sg79
I23
sg861
g1500
sg66
VEVT1_EVT2_23
p1515
sbasg79
I18
sg66
g1298
sbsg1407
(iconstruction
TP_SYNFORM
p1516
(dp1517
g79
I19
sg1410
(lp1518
(iconstruction
TP_SLOT
p1519
(dp1520
g1414
(lp1521
VS
p1522
asg1417
I0
sg79
I24
sg66
g1488
sba(iconstruction
TP_PHON
p1523
(dp1524
g1420
I5
sg1417
I1
sg79
I25
sg1421
Vwhile
p1525
sg66
VS2_25
p1526
sba(iconstruction
TP_SLOT
p1527
(dp1528
g1414
(lp1529
VS
p1530
asg1417
I2
sg79
I26
sg66
g1486
sbasg66
g1298
sbsg1428
I1
sba(iconstruction
CXN
p1531
(dp1532
g1368
(iconstruction
TP_SYMLINKS
p1533
(dp1534
g1371
(dp1535
VACT_31
p1536
VS4_40
p1537
sVACTOR_1_32
p1538
VS1_37
p1539
sVACTOR_2_33
p1540
VS3_39
p1541
ssg79
I29
sg66
g1298
sbsg1377
VS
p1542
sg1379
Nsg66
VSYMMETRIC_TRANS
p1543
sg1381
(iconstruction
TP_SEMFRAME
p1544
(dp1545
g94
g0
(g95
g2
Ntp1546
Rp1547
(dp1548
g99
(dp1549
(iconstruction
TP_NODE
p1550
(dp1551
g1390
I01
sg1391
g741
sg66
VEVT_30
p1552
sg1392
I01
sg1393
I00
sg79
I30
sb(dp1553
g1392
I01
sg1391
g741
ss(iconstruction
TP_NODE
p1554
(dp1555
g1390
I00
sg1391
g744
sg66
g1538
sg1392
I01
sg1393
I01
sg79
I32
sb(dp1556
g1392
I01
sg1391
g744
ss(iconstruction
TP_NODE
p1557
(dp1558
g1390
I00
sg1391
g744
sg66
g1540
sg1392
I01
sg1393
I00
sg79
I33
sb(dp1559
g1392
I01
sg1391
g744
ss(iconstruction
TP_NODE
p1560
(dp1561
g1390
I00
sg1391
g588
sg66
g1536
sg1392
I01
sg1393
I00
sg79
I31
sb(dp1562
g1392
I01
sg1391
g588
sssg284
g285
sg286
g285
sg287
(dp1563
g1550
(dp1564
g1560
(dp1565
g1391
g735
sssg1554
(dp1566
sg1557
(dp1567
sg1560
(dp1568
g1554
(dp1569
g1391
g711
ssg1557
(dp1570
g1391
g711
ssssg480
g1563
sg94
(dp1571
sg482
g285
sg483
g1563
sg484
(dp1572
g1550
(dp1573
sg1554
(dp1574
g1560
g1569
ssg1557
(dp1575
g1560
g1570
ssg1560
(dp1576
g1550
g1565
sssbsg577
(lp1577
g1550
ag1560
ag1554
ag1557
asg854
(lp1578
(iconstruction
TP_REL
p1579
(dp1580
g860
g1560
sg1391
g735
sg79
I34
sg861
g1550
sg66
VIS_34
p1581
sba(iconstruction
TP_REL
p1582
(dp1583
g860
g1554
sg1391
g711
sg79
I35
sg861
g1560
sg66
VAGT_PT_1_35
p1584
sba(iconstruction
TP_REL
p1585
(dp1586
g860
g1557
sg1391
g711
sg79
I36
sg861
g1560
sg66
VAGT_PT_2_36
p1587
sbasg79
I27
sg66
g1298
sbsg1407
(iconstruction
TP_SYNFORM
p1588
(dp1589
g79
I28
sg1410
(lp1590
(iconstruction
TP_SLOT
p1591
(dp1592
g1414
(lp1593
VNP
p1594
aVN
p1595
asg1417
I0
sg79
I37
sg66
g1539
sba(iconstruction
TP_PHON
p1596
(dp1597
g1420
I3
sg1417
I1
sg79
I38
sg1421
Vand
p1598
sg66
VS2_38
p1599
sba(iconstruction
TP_SLOT
p1600
(dp1601
g1414
(lp1602
VNP
p1603
aVN
p1604
asg1417
I2
sg79
I39
sg66
g1541
sba(iconstruction
TP_SLOT
p1605
(dp1606
g1414
(lp1607
VVP
p1608
aVV
p1609
asg1417
I3
sg79
I40
sg66
g1537
sbasg66
g1298
sbsg1428
I1
sba(iconstruction
CXN
p1610
(dp1611
g1368
(iconstruction
TP_SYMLINKS
p1612
(dp1613
g1371
(dp1614
VAGT_46
p1615
VS1_51
p1616
sVACT_45
p1617
VS2_52
p1618
sVPT_47
p1619
VS3_53
p1620
ssg79
I43
sg66
g1298
sbsg1377
VS
p1621
sg1379
I2
sg66
VSVO
p1622
sg1381
(iconstruction
TP_SEMFRAME
p1623
(dp1624
g94
g0
(g95
g2
Ntp1625
Rp1626
(dp1627
g99
(dp1628
(iconstruction
TP_NODE
p1629
(dp1630
g1390
I01
sg1391
g741
sg66
VEVT_44
p1631
sg1392
I01
sg1393
I00
sg79
I44
sb(dp1632
g1392
I01
sg1391
g741
ss(iconstruction
TP_NODE
p1633
(dp1634
g1390
I00
sg1391
g744
sg66
g1615
sg1392
I01
sg1393
I01
sg79
I46
sb(dp1635
g1392
I01
sg1391
g744
ss(iconstruction
TP_NODE
p1636
(dp1637
g1390
I00
sg1391
g588
sg66
g1617
sg1392
I01
sg1393
I00
sg79
I45
sb(dp1638
g1392
I01
sg1391
g588
ss(iconstruction
TP_NODE
p1639
(dp1640
g1390
I00
sg1391
g744
sg66
g1619
sg1392
I01
sg1393
I00
sg79
I47
sb(dp1641
g1392
I01
sg1391
g744
sssg284
g285
sg286
g285
sg287
(dp1642
g1629
(dp1643
g1636
(dp1644
g1391
g735
sssg1633
(dp1645
sg1636
(dp1646
g1633
(dp1647
g1391
g714
ssg1639
(dp1648
g1391
g708
sssg1639
(dp1649
ssg480
g1642
sg94
(dp1650
sg482
g285
sg483
g1642
sg484
(dp1651
g1629
(dp1652
sg1633
(dp1653
g1636
g1647
ssg1636
(dp1654
g1629
g1644
ssg1639
(dp1655
g1636
g1648
sssbsg577
(lp1656
g1629
ag1636
ag1633
ag1639
asg854
(lp1657
(iconstruction
TP_REL
p1658
(dp1659
g860
g1636
sg1391
g735
sg79
I48
sg861
g1629
sg66
VIS_48
p1660
sba(iconstruction
TP_REL
p1661
(dp1662
g860
g1633
sg1391
g714
sg79
I49
sg861
g1636
sg66
VACT_AGT_49
p1663
sba(iconstruction
TP_REL
p1664
(dp1665
g860
g1639
sg1391
g708
sg79
I50
sg861
g1636
sg66
VACT_PT_50
p1666
sbasg79
I41
sg66
g1298
sbsg1407
(iconstruction
TP_SYNFORM
p1667
(dp1668
g79
I42
sg1410
(lp1669
(iconstruction
TP_SLOT
p1670
(dp1671
g1414
(lp1672
VNP
p1673
aVN
p1674
asg1417
I0
sg79
I51
sg66
g1616
sba(iconstruction
TP_SLOT
p1675
(dp1676
g1414
(lp1677
VVP
p1678
aVV
p1679
asg1417
I1
sg79
I52
sg66
g1618
sba(iconstruction
TP_SLOT
p1680
(dp1681
g1414
(lp1682
VNP
p1683
aVN
p1684
asg1417
I2
sg79
I53
sg66
g1620
sbasg66
g1298
sbsg1428
I1
sba(iconstruction
CXN
p1685
(dp1686
g1368
(iconstruction
TP_SYMLINKS
p1687
(dp1688
g1371
(dp1689
VTHEME_60
p1690
VS4_69
p1691
sVRCPT_61
p1692
VS3_68
p1693
sVACT_58
p1694
VS2_67
p1695
sVAGT_59
p1696
VS1_66
p1697
ssg79
I56
sg66
g1298
sbsg1377
VS
p1698
sg1379
I2
sg66
VDOUBLE_OBJ
p1699
sg1381
(iconstruction
TP_SEMFRAME
p1700
(dp1701
g94
g0
(g95
g2
Ntp1702
Rp1703
(dp1704
g99
(dp1705
(iconstruction
TP_NODE
p1706
(dp1707
g1390
I01
sg1391
g741
sg66
VEVT_57
p1708
sg1392
I01
sg1393
I00
sg79
I57
sb(dp1709
g1392
I01
sg1391
g741
ss(iconstruction
TP_NODE
p1710
(dp1711
g1390
I00
sg1391
g744
sg66
g1696
sg1392
I01
sg1393
I01
sg79
I59
sb(dp1712
g1392
I01
sg1391
g744
ss(iconstruction
TP_NODE
p1713
(dp1714
g1390
I00
sg1391
g744
sg66
g1690
sg1392
I01
sg1393
I00
sg79
I60
sb(dp1715
g1392
I01
sg1391
g744
ss(iconstruction
TP_NODE
p1716
(dp1717
g1390
I00
sg1391
g588
sg66
g1694
sg1392
I01
sg1393
I00
sg79
I58
sb(dp1718
g1392
I01
sg1391
g588
ss(iconstruction
TP_NODE
p1719
(dp1720
g1390
I00
sg1391
g744
sg66
g1692
sg1392
I01
sg1393
I00
sg79
I61
sb(dp1721
g1392
I01
sg1391
g744
sssg284
g285
sg286
g285
sg287
(dp1722
g1706
(dp1723
g1716
(dp1724
g1391
g735
sssg1710
(dp1725
sg1713
(dp1726
sg1716
(dp1727
g1710
(dp1728
g1391
g714
ssg1719
(dp1729
g1391
g699
ssg1713
(dp1730
g1391
g696
sssg1719
(dp1731
ssg480
g1722
sg94
(dp1732
sg482
g285
sg483
g1722
sg484
(dp1733
g1706
(dp1734
sg1710
(dp1735
g1716
g1728
ssg1713
(dp1736
g1716
g1730
ssg1716
(dp1737
g1706
g1724
ssg1719
(dp1738
g1716
g1729
sssbsg577
(lp1739
g1706
ag1716
ag1710
ag1713
ag1719
asg854
(lp1740
(iconstruction
TP_REL
p1741
(dp1742
g860
g1716
sg1391
g735
sg79
I62
sg861
g1706
sg66
VIS_62
p1743
sba(iconstruction
TP_REL
p1744
(dp1745
g860
g1710
sg1391
g714
sg79
I63
sg861
g1716
sg66
VACT_AGT_63
p1746
sba(iconstruction
TP_REL
p1747
(dp1748
g860
g1713
sg1391
g696
sg79
I64
sg861
g1716
sg66
VACT_THEME_64
p1749
sba(iconstruction
TP_REL
p1750
(dp1751
g860
g1719
sg1391
g699
sg79
I65
sg861
g1716
sg66
VACT_RCPT_65
p1752
sbasg79
I54
sg66
g1298
sbsg1407
(iconstruction
TP_SYNFORM
p1753
(dp1754
g79
I55
sg1410
(lp1755
(iconstruction
TP_SLOT
p1756
(dp1757
g1414
(lp1758
VNP
p1759
aVN
p1760
asg1417
I0
sg79
I66
sg66
g1697
sba(iconstruction
TP_SLOT
p1761
(dp1762
g1414
(lp1763
VVP
p1764
aVV
p1765
asg1417
I1
sg79
I67
sg66
g1695
sba(iconstruction
TP_SLOT
p1766
(dp1767
g1414
(lp1768
VNP
p1769
aVN
p1770
asg1417
I2
sg79
I68
sg66
g1693
sba(iconstruction
TP_SLOT
p1771
(dp1772
g1414
(lp1773
VNP
p1774
aVN
p1775
asg1417
I3
sg79
I69
sg66
g1691
sbasg66
g1298
sbsg1428
I1
sba(iconstruction
CXN
p1776
(dp1777
g1368
(iconstruction
TP_SYMLINKS
p1778
(dp1779
g1371
(dp1780
VACT_74
p1781
VS2_83
p1782
sVRCPT_77
p1783
VS5_86
p1784
sVTHEME_76
p1785
VS3_84
p1786
sVAGT_75
p1787
VS1_82
p1788
ssg79
I72
sg66
g1298
sbsg1377
VS
p1789
sg1379
I2
sg66
VOBLIQUE_DATIVE
p1790
sg1381
(iconstruction
TP_SEMFRAME
p1791
(dp1792
g94
g0
(g95
g2
Ntp1793
Rp1794
(dp1795
g99
(dp1796
(iconstruction
TP_NODE
p1797
(dp1798
g1390
I01
sg1391
g741
sg66
VEVT_73
p1799
sg1392
I01
sg1393
I00
sg79
I73
sb(dp1800
g1392
I01
sg1391
g741
ss(iconstruction
TP_NODE
p1801
(dp1802
g1390
I00
sg1391
g744
sg66
g1787
sg1392
I01
sg1393
I01
sg79
I75
sb(dp1803
g1392
I01
sg1391
g744
ss(iconstruction
TP_NODE
p1804
(dp1805
g1390
I00
sg1391
g744
sg66
g1785
sg1392
I01
sg1393
I00
sg79
I76
sb(dp1806
g1392
I01
sg1391
g744
ss(iconstruction
TP_NODE
p1807
(dp1808
g1390
I00
sg1391
g636
sg66
g1781
sg1392
I01
sg1393
I00
sg79
I74
sb(dp1809
g1392
I01
sg1391
g636
ss(iconstruction
TP_NODE
p1810
(dp1811
g1390
I00
sg1391
g744
sg66
g1783
sg1392
I01
sg1393
I00
sg79
I77
sb(dp1812
g1392
I01
sg1391
g744
sssg284
g285
sg286
g285
sg287
(dp1813
g1797
(dp1814
g1807
(dp1815
g1391
g735
sssg1801
(dp1816
sg1804
(dp1817
sg1807
(dp1818
g1801
(dp1819
g1391
g714
ssg1810
(dp1820
g1391
g699
ssg1804
(dp1821
g1391
g696
sssg1810
(dp1822
ssg480
g1813
sg94
(dp1823
sg482
g285
sg483
g1813
sg484
(dp1824
g1797
(dp1825
sg1801
(dp1826
g1807
g1819
ssg1804
(dp1827
g1807
g1821
ssg1807
(dp1828
g1797
g1815
ssg1810
(dp1829
g1807
g1820
sssbsg577
(lp1830
g1797
ag1807
ag1801
ag1804
ag1810
asg854
(lp1831
(iconstruction
TP_REL
p1832
(dp1833
g860
g1807
sg1391
g735
sg79
I78
sg861
g1797
sg66
VIS_78
p1834
sba(iconstruction
TP_REL
p1835
(dp1836
g860
g1801
sg1391
g714
sg79
I79
sg861
g1807
sg66
VACT_AGT_79
p1837
sba(iconstruction
TP_REL
p1838
(dp1839
g860
g1804
sg1391
g696
sg79
I80
sg861
g1807
sg66
VACT_THEME_80
p1840
sba(iconstruction
TP_REL
p1841
(dp1842
g860
g1810
sg1391
g699
sg79
I81
sg861
g1807
sg66
VACT_RCPT_81
p1843
sbasg79
I70
sg66
g1298
sbsg1407
(iconstruction
TP_SYNFORM
p1844
(dp1845
g79
I71
sg1410
(lp1846
(iconstruction
TP_SLOT
p1847
(dp1848
g1414
(lp1849
VNP
p1850
aVN
p1851
asg1417
I0
sg79
I82
sg66
g1788
sba(iconstruction
TP_SLOT
p1852
(dp1853
g1414
(lp1854
VVP
p1855
aVV
p1856
asg1417
I1
sg79
I83
sg66
g1782
sba(iconstruction
TP_SLOT
p1857
(dp1858
g1414
(lp1859
VNP
p1860
aVN
p1861
asg1417
I2
sg79
I84
sg66
g1786
sba(iconstruction
TP_PHON
p1862
(dp1863
g1420
I2
sg1417
I3
sg79
I85
sg1421
Vto
p1864
sg66
VS4_85
p1865
sba(iconstruction
TP_SLOT
p1866
(dp1867
g1414
(lp1868
VNP
p1869
aVN
p1870
asg1417
I4
sg79
I86
sg66
g1784
sbasg66
g1298
sbsg1428
I1
sba(iconstruction
CXN
p1871
(dp1872
g1368
(iconstruction
TP_SYMLINKS
p1873
(dp1874
g1371
(dp1875
VENT_91
p1876
VS1_95
p1877
sVATTR_92
p1878
VS3_97
p1879
ssg79
I89
sg66
g1298
sbsg1377
VS
p1880
sg1379
I2
sg66
VSPA
p1881
sg1381
(iconstruction
TP_SEMFRAME
p1882
(dp1883
g94
g0
(g95
g2
Ntp1884
Rp1885
(dp1886
g99
(dp1887
(iconstruction
TP_NODE
p1888
(dp1889
g1390
I00
sg1391
g744
sg66
g1876
sg1392
I01
sg1393
I01
sg79
I91
sb(dp1890
g1392
I01
sg1391
g744
ss(iconstruction
TP_NODE
p1891
(dp1892
g1390
I00
sg1391
g645
sg66
g1878
sg1392
I00
sg1393
I00
sg79
I92
sb(dp1893
g1392
I00
sg1391
g645
ss(iconstruction
TP_NODE
p1894
(dp1895
g1390
I01
sg1391
g741
sg66
VEVT_90
p1896
sg1392
I01
sg1393
I00
sg79
I90
sb(dp1897
g1392
I01
sg1391
g741
sssg284
g285
sg286
g285
sg287
(dp1898
g1888
(dp1899
sg1891
(dp1900
sg1894
(dp1901
g1888
(dp1902
g1391
g735
ssg1891
(dp1903
g1391
g693
ssssg480
g1898
sg94
(dp1904
sg482
g285
sg483
g1898
sg484
(dp1905
g1888
(dp1906
g1894
g1902
ssg1891
(dp1907
g1894
g1903
ssg1894
(dp1908
ssbsg577
(lp1909
g1894
ag1888
ag1891
asg854
(lp1910
(iconstruction
TP_REL
p1911
(dp1912
g860
g1888
sg1391
g735
sg79
I93
sg861
g1894
sg66
VIS_93
p1913
sba(iconstruction
TP_REL
p1914
(dp1915
g860
g1891
sg1391
g693
sg79
I94
sg861
g1894
sg66
VEVT_ATTR_94
p1916
sbasg79
I87
sg66
g1298
sbsg1407
(iconstruction
TP_SYNFORM
p1917
(dp1918
g79
I88
sg1410
(lp1919
(iconstruction
TP_SLOT
p1920
(dp1921
g1414
(lp1922
VNP
p1923
aVN
p1924
asg1417
I0
sg79
I95
sg66
g1877
sba(iconstruction
TP_PHON
p1925
(dp1926
g1420
I2
sg1417
I1
sg79
I96
sg1421
Vis
p1927
sg66
VS2_96
p1928
sba(iconstruction
TP_SLOT
p1929
(dp1930
g1414
(lp1931
VA
p1932
asg1417
I2
sg79
I97
sg66
g1879
sbasg66
g1298
sbsg1428
I1
sba(iconstruction
CXN
p1933
(dp1934
g1368
(iconstruction
TP_SYMLINKS
p1935
(dp1936
g1371
(dp1937
VAGT_103
p1938
VS1_106
p1939
sVACT_102
p1940
VS2_107
p1941
ssg79
I100
sg66
g1298
sbsg1377
VS
p1942
sg1379
I2
sg66
VSV
p1943
sg1381
(iconstruction
TP_SEMFRAME
p1944
(dp1945
g94
g0
(g95
g2
Ntp1946
Rp1947
(dp1948
g99
(dp1949
(iconstruction
TP_NODE
p1950
(dp1951
g1390
I00
sg1391
g600
sg66
g1940
sg1392
I01
sg1393
I00
sg79
I102
sb(dp1952
g1392
I01
sg1391
g600
ss(iconstruction
TP_NODE
p1953
(dp1954
g1390
I00
sg1391
g744
sg66
g1938
sg1392
I01
sg1393
I01
sg79
I103
sb(dp1955
g1392
I01
sg1391
g744
ss(iconstruction
TP_NODE
p1956
(dp1957
g1390
I01
sg1391
g741
sg66
VEVT_101
p1958
sg1392
I01
sg1393
I00
sg79
I101
sb(dp1959
g1392
I01
sg1391
g741
sssg284
g285
sg286
g285
sg287
(dp1960
g1950
(dp1961
g1953
(dp1962
g1391
g714
sssg1953
(dp1963
sg1956
(dp1964
g1950
(dp1965
g1391
g735
ssssg480
g1960
sg94
(dp1966
sg482
g285
sg483
g1960
sg484
(dp1967
g1950
(dp1968
g1956
g1965
ssg1953
(dp1969
g1950
g1962
ssg1956
(dp1970
ssbsg577
(lp1971
g1956
ag1950
ag1953
asg854
(lp1972
(iconstruction
TP_REL
p1973
(dp1974
g860
g1950
sg1391
g735
sg79
I104
sg861
g1956
sg66
VIS_104
p1975
sba(iconstruction
TP_REL
p1976
(dp1977
g860
g1953
sg1391
g714
sg79
I105
sg861
g1950
sg66
VACT_AGT_105
p1978
sbasg79
I98
sg66
g1298
sbsg1407
(iconstruction
TP_SYNFORM
p1979
(dp1980
g79
I99
sg1410
(lp1981
(iconstruction
TP_SLOT
p1982
(dp1983
g1414
(lp1984
VNP
p1985
aVN
p1986
asg1417
I0
sg79
I106
sg66
g1939
sba(iconstruction
TP_SLOT
p1987
(dp1988
g1414
(lp1989
VVP
p1990
aVV
p1991
asg1417
I1
sg79
I107
sg66
g1941
sbasg66
g1298
sbsg1428
I1
sba(iconstruction
CXN
p1992
(dp1993
g1368
(iconstruction
TP_SYMLINKS
p1994
(dp1995
g1371
(dp1996
VPLACE_112
p1997
VS3_116
p1998
sVEVT_111
p1999
VS1_114
p2000
ssg79
I110
sg66
g1298
sbsg1377
VS
p2001
sg1379
I2
sg66
VPP_IN
p2002
sg1381
(iconstruction
TP_SEMFRAME
p2003
(dp2004
g94
g0
(g95
g2
Ntp2005
Rp2006
(dp2007
g99
(dp2008
(iconstruction
TP_NODE
p2009
(dp2010
g1390
I00
sg1391
g744
sg66
g1997
sg1392
I01
sg1393
I00
sg79
I112
sb(dp2011
g1392
I01
sg1391
g744
ss(iconstruction
TP_NODE
p2012
(dp2013
g1390
I01
sg1391
g741
sg66
g1999
sg1392
I01
sg1393
I00
sg79
I111
sb(dp2014
g1392
I01
sg1391
g741
sssg284
g285
sg286
g285
sg287
(dp2015
g2009
(dp2016
sg2012
(dp2017
g2009
(dp2018
g1391
g732
ssssg480
g2015
sg94
(dp2019
sg482
g285
sg483
g2015
sg484
(dp2020
g2009
(dp2021
g2012
g2018
ssg2012
(dp2022
ssbsg577
(lp2023
g2012
ag2009
asg854
(lp2024
(iconstruction
TP_REL
p2025
(dp2026
g860
g2009
sg1391
g732
sg79
I113
sg861
g2012
sg66
VEVT_PP_113
p2027
sbasg79
I108
sg66
g1298
sbsg1407
(iconstruction
TP_SYNFORM
p2028
(dp2029
g79
I109
sg1410
(lp2030
(iconstruction
TP_SLOT
p2031
(dp2032
g1414
(lp2033
VS
p2034
asg1417
I0
sg79
I114
sg66
g2000
sba(iconstruction
TP_PHON
p2035
(dp2036
g1420
I2
sg1417
I1
sg79
I115
sg1421
Vin
p2037
sg66
VS2_115
p2038
sba(iconstruction
TP_SLOT
p2039
(dp2040
g1414
(lp2041
VNP
p2042
aVN
p2043
asg1417
I2
sg79
I116
sg66
g1998
sbasg66
g1298
sbsg1428
I1
sba(iconstruction
CXN
p2044
(dp2045
g1368
(iconstruction
TP_SYMLINKS
p2046
(dp2047
g1371
(dp2048
VEVT2_121
p2049
VS2_124
p2050
sVEVT1_120
p2051
VS1_123
p2052
ssg79
I119
sg66
g1298
sbsg1377
VS
p2053
sg1379
I2
sg66
VS_PP
p2054
sg1381
(iconstruction
TP_SEMFRAME
p2055
(dp2056
g94
g0
(g95
g2
Ntp2057
Rp2058
(dp2059
g99
(dp2060
(iconstruction
TP_NODE
p2061
(dp2062
g1390
I01
sg1391
g741
sg66
g2051
sg1392
I01
sg1393
I01
sg79
I120
sb(dp2063
g1392
I01
sg1391
g741
ss(iconstruction
TP_NODE
p2064
(dp2065
g1390
I00
sg1391
g741
sg66
g2049
sg1392
I01
sg1393
I00
sg79
I121
sb(dp2066
g1392
I01
sg1391
g741
sssg284
g285
sg286
g285
sg287
(dp2067
g2061
(dp2068
g2064
(dp2069
g1391
g693
sssg2064
(dp2070
ssg480
g2067
sg94
(dp2071
sg482
g285
sg483
g2067
sg484
(dp2072
g2061
(dp2073
sg2064
(dp2074
g2061
g2069
sssbsg577
(lp2075
g2061
ag2064
asg854
(lp2076
(iconstruction
TP_REL
p2077
(dp2078
g860
g2064
sg1391
g693
sg79
I122
sg861
g2061
sg66
VMOD_122
p2079
sbasg79
I117
sg66
g1298
sbsg1407
(iconstruction
TP_SYNFORM
p2080
(dp2081
g79
I118
sg1410
(lp2082
(iconstruction
TP_SLOT
p2083
(dp2084
g1414
(lp2085
VS
p2086
asg1417
I0
sg79
I123
sg66
g2052
sba(iconstruction
TP_SLOT
p2087
(dp2088
g1414
(lp2089
VPP
p2090
asg1417
I1
sg79
I124
sg66
g2050
sbasg66
g1298
sbsg1428
I1
sba(iconstruction
CXN
p2091
(dp2092
g1368
(iconstruction
TP_SYMLINKS
p2093
(dp2094
g1371
(dp2095
VENT_128
p2096
VS2_132
p2097
sVATTR_129
p2098
VS1_131
p2099
ssg79
I127
sg66
g1298
sbsg1377
VN
p2100
sg1379
I2
sg66
VADJUNCT_N
p2101
sg1381
(iconstruction
TP_SEMFRAME
p2102
(dp2103
g94
g0
(g95
g2
Ntp2104
Rp2105
(dp2106
g99
(dp2107
(iconstruction
TP_NODE
p2108
(dp2109
g1390
I01
sg1391
g744
sg66
g2096
sg1392
I01
sg1393
I00
sg79
I128
sb(dp2110
g1392
I01
sg1391
g744
ss(iconstruction
TP_NODE
p2111
(dp2112
g1390
I00
sg1391
g645
sg66
g2098
sg1392
I00
sg1393
I00
sg79
I129
sb(dp2113
g1392
I00
sg1391
g645
sssg284
g285
sg286
g285
sg287
(dp2114
g2108
(dp2115
g2111
(dp2116
g1391
g693
sssg2111
(dp2117
ssg480
g2114
sg94
(dp2118
sg482
g285
sg483
g2114
sg484
(dp2119
g2108
(dp2120
sg2111
(dp2121
g2108
g2116
sssbsg577
(lp2122
g2108
ag2111
asg854
(lp2123
(iconstruction
TP_REL
p2124
(dp2125
g860
g2111
sg1391
g693
sg79
I130
sg861
g2108
sg66
VENT_ATTR_130
p2126
sbasg79
I125
sg66
g1298
sbsg1407
(iconstruction
TP_SYNFORM
p2127
(dp2128
g79
I126
sg1410
(lp2129
(iconstruction
TP_SLOT
p2130
(dp2131
g1414
(lp2132
VA
p2133
asg1417
I0
sg79
I131
sg66
g2099
sba(iconstruction
TP_SLOT
p2134
(dp2135
g1414
(lp2136
VN
p2137
asg1417
I1
sg79
I132
sg66
g2097
sbasg66
g1298
sbsg1428
I1
sba(iconstruction
CXN
p2138
(dp2139
g1368
(iconstruction
TP_SYMLINKS
p2140
(dp2141
g1371
(dp2142
VACT_137
p2143
VS3_146
p2144
sVAGT_138
p2145
VS1_144
p2146
sVPT_139
p2147
VS4_147
p2148
ssg79
I135
sg66
g1298
sbsg1377
VN
p2149
sg1379
I2
sg66
VSUBJ_REL_SVO
p2150
sg1381
(iconstruction
TP_SEMFRAME
p2151
(dp2152
g94
g0
(g95
g2
Ntp2153
Rp2154
(dp2155
g99
(dp2156
(iconstruction
TP_NODE
p2157
(dp2158
g1390
I00
sg1391
g741
sg66
VEVT_136
p2159
sg1392
I01
sg1393
I00
sg79
I136
sb(dp2160
g1392
I01
sg1391
g741
ss(iconstruction
TP_NODE
p2161
(dp2162
g1390
I01
sg1391
g744
sg66
g2145
sg1392
I01
sg1393
I00
sg79
I138
sb(dp2163
g1392
I01
sg1391
g744
ss(iconstruction
TP_NODE
p2164
(dp2165
g1390
I00
sg1391
g606
sg66
g2143
sg1392
I01
sg1393
I01
sg79
I137
sb(dp2166
g1392
I01
sg1391
g606
ss(iconstruction
TP_NODE
p2167
(dp2168
g1390
I00
sg1391
g744
sg66
g2147
sg1392
I01
sg1393
I00
sg79
I139
sb(dp2169
g1392
I01
sg1391
g744
sssg284
g285
sg286
g285
sg287
(dp2170
g2157
(dp2171
g2164
(dp2172
g1391
g735
sssg2161
(dp2173
g2157
(dp2174
g1391
g693
sssg2164
(dp2175
g2161
(dp2176
g1391
g714
ssg2167
(dp2177
g1391
g708
sssg2167
(dp2178
ssg480
g2170
sg94
(dp2179
sg482
g285
sg483
g2170
sg484
(dp2180
g2157
(dp2181
g2161
g2174
ssg2161
(dp2182
g2164
g2176
ssg2164
(dp2183
g2157
g2172
ssg2167
(dp2184
g2164
g2177
sssbsg577
(lp2185
g2157
ag2164
ag2161
ag2167
asg854
(lp2186
(iconstruction
TP_REL
p2187
(dp2188
g860
g2164
sg1391
g735
sg79
I140
sg861
g2157
sg66
VIS_140
p2189
sba(iconstruction
TP_REL
p2190
(dp2191
g860
g2161
sg1391
g714
sg79
I141
sg861
g2164
sg66
VACT_AGT_141
p2192
sba(iconstruction
TP_REL
p2193
(dp2194
g860
g2167
sg1391
g708
sg79
I142
sg861
g2164
sg66
VACT_PT_142
p2195
sba(iconstruction
TP_REL
p2196
(dp2197
g860
g2157
sg1391
g693
sg79
I143
sg861
g2161
sg66
VAGT_EVT_143
p2198
sbasg79
I133
sg66
g1298
sbsg1407
(iconstruction
TP_SYNFORM
p2199
(dp2200
g79
I134
sg1410
(lp2201
(iconstruction
TP_SLOT
p2202
(dp2203
g1414
(lp2204
VN
p2205
asg1417
I0
sg79
I144
sg66
g2146
sba(iconstruction
TP_PHON
p2206
(dp2207
g1420
I4
sg1417
I1
sg79
I145
sg1421
Vthat
p2208
sg66
VS2_145
p2209
sba(iconstruction
TP_SLOT
p2210
(dp2211
g1414
(lp2212
VVP
p2213
aVV
p2214
asg1417
I2
sg79
I146
sg66
g2144
sba(iconstruction
TP_SLOT
p2215
(dp2216
g1414
(lp2217
VNP
p2218
aVN
p2219
asg1417
I3
sg79
I147
sg66
g2148
sbasg66
g1298
sbsg1428
I1
sba(iconstruction
CXN
p2220
(dp2221
g1368
(iconstruction
TP_SYMLINKS
p2222
(dp2223
g1371
(dp2224
VACT_152
p2225
VS3_159
p2226
sVAGT_153
p2227
VS1_157
p2228
ssg79
I150
sg66
g1298
sbsg1377
VN
p2229
sg1379
I2
sg66
VSUBJ_REL_SV
p2230
sg1381
(iconstruction
TP_SEMFRAME
p2231
(dp2232
g94
g0
(g95
g2
Ntp2233
Rp2234
(dp2235
g99
(dp2236
(iconstruction
TP_NODE
p2237
(dp2238
g1390
I00
sg1391
g741
sg66
VEVT_151
p2239
sg1392
I01
sg1393
I00
sg79
I151
sb(dp2240
g1392
I01
sg1391
g741
ss(iconstruction
TP_NODE
p2241
(dp2242
g1390
I01
sg1391
g744
sg66
g2227
sg1392
I01
sg1393
I00
sg79
I153
sb(dp2243
g1392
I01
sg1391
g744
ss(iconstruction
TP_NODE
p2244
(dp2245
g1390
I00
sg1391
g588
sg66
g2225
sg1392
I01
sg1393
I01
sg79
I152
sb(dp2246
g1392
I01
sg1391
g588
sssg284
g285
sg286
g285
sg287
(dp2247
g2237
(dp2248
g2244
(dp2249
g1391
g735
sssg2241
(dp2250
g2237
(dp2251
g1391
g693
sssg2244
(dp2252
g2241
(dp2253
g1391
g714
ssssg480
g2247
sg94
(dp2254
sg482
g285
sg483
g2247
sg484
(dp2255
g2237
(dp2256
g2241
g2251
ssg2241
(dp2257
g2244
g2253
ssg2244
(dp2258
g2237
g2249
sssbsg577
(lp2259
g2237
ag2244
ag2241
asg854
(lp2260
(iconstruction
TP_REL
p2261
(dp2262
g860
g2244
sg1391
g735
sg79
I154
sg861
g2237
sg66
VIS_154
p2263
sba(iconstruction
TP_REL
p2264
(dp2265
g860
g2241
sg1391
g714
sg79
I155
sg861
g2244
sg66
VACT_AGT_155
p2266
sba(iconstruction
TP_REL
p2267
(dp2268
g860
g2237
sg1391
g693
sg79
I156
sg861
g2241
sg66
VAGT_EVT_156
p2269
sbasg79
I148
sg66
g1298
sbsg1407
(iconstruction
TP_SYNFORM
p2270
(dp2271
g79
I149
sg1410
(lp2272
(iconstruction
TP_SLOT
p2273
(dp2274
g1414
(lp2275
VN
p2276
asg1417
I0
sg79
I157
sg66
g2228
sba(iconstruction
TP_PHON
p2277
(dp2278
g1420
I4
sg1417
I1
sg79
I158
sg1421
Vthat
p2279
sg66
VS2_158
p2280
sba(iconstruction
TP_SLOT
p2281
(dp2282
g1414
(lp2283
VVP
p2284
aVV
p2285
asg1417
I2
sg79
I159
sg66
g2226
sbasg66
g1298
sbsg1428
I1
sba(iconstruction
CXN
p2286
(dp2287
g1368
(iconstruction
TP_SYMLINKS
p2288
(dp2289
g1371
(dp2290
VACT_164
p2291
VS4_174
p2292
sVPT_166
p2293
VS1_171
p2294
sVAGT_165
p2295
VS7_177
p2296
ssg79
I162
sg66
g1298
sbsg1377
VN
p2297
sg1379
I2
sg66
VSUBJ_REL_PAS_SVO
p2298
sg1381
(iconstruction
TP_SEMFRAME
p2299
(dp2300
g94
g0
(g95
g2
Ntp2301
Rp2302
(dp2303
g99
(dp2304
(iconstruction
TP_NODE
p2305
(dp2306
g1390
I00
sg1391
g741
sg66
VEVT_163
p2307
sg1392
I01
sg1393
I00
sg79
I163
sb(dp2308
g1392
I01
sg1391
g741
ss(iconstruction
TP_NODE
p2309
(dp2310
g1390
I00
sg1391
g744
sg66
g2295
sg1392
I01
sg1393
I00
sg79
I165
sb(dp2311
g1392
I01
sg1391
g744
ss(iconstruction
TP_NODE
p2312
(dp2313
g1390
I01
sg1391
g744
sg66
g2293
sg1392
I01
sg1393
I00
sg79
I166
sb(dp2314
g1392
I01
sg1391
g744
ss(iconstruction
TP_NODE
p2315
(dp2316
g1390
I00
sg1391
g588
sg66
g2291
sg1392
I01
sg1393
I01
sg79
I164
sb(dp2317
g1392
I01
sg1391
g588
sssg284
g285
sg286
g285
sg287
(dp2318
g2305
(dp2319
g2315
(dp2320
g1391
g735
sssg2309
(dp2321
sg2312
(dp2322
g2305
(dp2323
g1391
g693
sssg2315
(dp2324
g2309
(dp2325
g1391
g714
ssg2312
(dp2326
g1391
g708
ssssg480
g2318
sg94
(dp2327
sg482
g285
sg483
g2318
sg484
(dp2328
g2305
(dp2329
g2312
g2323
ssg2309
(dp2330
g2315
g2325
ssg2312
(dp2331
g2315
g2326
ssg2315
(dp2332
g2305
g2320
sssbsg577
(lp2333
g2305
ag2315
ag2309
ag2312
asg854
(lp2334
(iconstruction
TP_REL
p2335
(dp2336
g860
g2315
sg1391
g735
sg79
I167
sg861
g2305
sg66
VIS_167
p2337
sba(iconstruction
TP_REL
p2338
(dp2339
g860
g2309
sg1391
g714
sg79
I168
sg861
g2315
sg66
VACT_AGT_168
p2340
sba(iconstruction
TP_REL
p2341
(dp2342
g860
g2312
sg1391
g708
sg79
I169
sg861
g2315
sg66
VACT_PT_169
p2343
sba(iconstruction
TP_REL
p2344
(dp2345
g860
g2305
sg1391
g693
sg79
I170
sg861
g2312
sg66
VPT_EVT_170
p2346
sbasg79
I160
sg66
g1298
sbsg1407
(iconstruction
TP_SYNFORM
p2347
(dp2348
g79
I161
sg1410
(lp2349
(iconstruction
TP_SLOT
p2350
(dp2351
g1414
(lp2352
VN
p2353
asg1417
I0
sg79
I171
sg66
g2294
sba(iconstruction
TP_PHON
p2354
(dp2355
g1420
I4
sg1417
I1
sg79
I172
sg1421
Vthat
p2356
sg66
VS2_172
p2357
sba(iconstruction
TP_PHON
p2358
(dp2359
g1420
I2
sg1417
I2
sg79
I173
sg1421
Vis
p2360
sg66
VS3_173
p2361
sba(iconstruction
TP_SLOT
p2362
(dp2363
g1414
(lp2364
VVP
p2365
aVV
p2366
asg1417
I3
sg79
I174
sg66
g2292
sba(iconstruction
TP_PHON
p2367
(dp2368
g1420
I2
sg1417
I4
sg79
I175
sg1421
V-ed
p2369
sg66
VS5_175
p2370
sba(iconstruction
TP_PHON
p2371
(dp2372
g1420
I2
sg1417
I5
sg79
I176
sg1421
Vby
p2373
sg66
VS6_176
p2374
sba(iconstruction
TP_SLOT
p2375
(dp2376
g1414
(lp2377
VNP
p2378
aVN
p2379
asg1417
I6
sg79
I177
sg66
g2296
sbasg66
g1298
sbsg1428
I1
sba(iconstruction
CXN
p2380
(dp2381
g1368
(iconstruction
TP_SYMLINKS
p2382
(dp2383
g1371
(dp2384
VAGT_183
p2385
VS3_191
p2386
sVPT_184
p2387
VS1_189
p2388
sVACT_182
p2389
VS4_192
p2390
ssg79
I180
sg66
g1298
sbsg1377
VN
p2391
sg1379
I2
sg66
VOBJ_REL_SVO
p2392
sg1381
(iconstruction
TP_SEMFRAME
p2393
(dp2394
g94
g0
(g95
g2
Ntp2395
Rp2396
(dp2397
g99
(dp2398
(iconstruction
TP_NODE
p2399
(dp2400
g1390
I00
sg1391
g741
sg66
VEVT_181
p2401
sg1392
I01
sg1393
I00
sg79
I181
sb(dp2402
g1392
I01
sg1391
g741
ss(iconstruction
TP_NODE
p2403
(dp2404
g1390
I00
sg1391
g744
sg66
g2385
sg1392
I01
sg1393
I00
sg79
I183
sb(dp2405
g1392
I01
sg1391
g744
ss(iconstruction
TP_NODE
p2406
(dp2407
g1390
I00
sg1391
g588
sg66
g2389
sg1392
I01
sg1393
I01
sg79
I182
sb(dp2408
g1392
I01
sg1391
g588
ss(iconstruction
TP_NODE
p2409
(dp2410
g1390
I01
sg1391
g744
sg66
g2387
sg1392
I01
sg1393
I00
sg79
I184
sb(dp2411
g1392
I01
sg1391
g744
sssg284
g285
sg286
g285
sg287
(dp2412
g2399
(dp2413
g2406
(dp2414
g1391
g735
sssg2403
(dp2415
sg2406
(dp2416
g2403
(dp2417
g1391
g714
ssg2409
(dp2418
g1391
g708
sssg2409
(dp2419
g2399
(dp2420
g1391
g693
ssssg480
g2412
sg94
(dp2421
sg482
g285
sg483
g2412
sg484
(dp2422
g2399
(dp2423
g2409
g2420
ssg2403
(dp2424
g2406
g2417
ssg2406
(dp2425
g2399
g2414
ssg2409
(dp2426
g2406
g2418
sssbsg577
(lp2427
g2399
ag2406
ag2403
ag2409
asg854
(lp2428
(iconstruction
TP_REL
p2429
(dp2430
g860
g2406
sg1391
g735
sg79
I185
sg861
g2399
sg66
VIS_185
p2431
sba(iconstruction
TP_REL
p2432
(dp2433
g860
g2403
sg1391
g714
sg79
I186
sg861
g2406
sg66
VACT_AGT_186
p2434
sba(iconstruction
TP_REL
p2435
(dp2436
g860
g2409
sg1391
g708
sg79
I187
sg861
g2406
sg66
VACT_PT_187
p2437
sba(iconstruction
TP_REL
p2438
(dp2439
g860
g2399
sg1391
g693
sg79
I188
sg861
g2409
sg66
VPT_EVT_188
p2440
sbasg79
I178
sg66
g1298
sbsg1407
(iconstruction
TP_SYNFORM
p2441
(dp2442
g79
I179
sg1410
(lp2443
(iconstruction
TP_SLOT
p2444
(dp2445
g1414
(lp2446
VN
p2447
asg1417
I0
sg79
I189
sg66
g2388
sba(iconstruction
TP_PHON
p2448
(dp2449
g1420
I4
sg1417
I1
sg79
I190
sg1421
Vthat
p2450
sg66
VS2_190
p2451
sba(iconstruction
TP_SLOT
p2452
(dp2453
g1414
(lp2454
VNP
p2455
aVN
p2456
asg1417
I2
sg79
I191
sg66
g2386
sba(iconstruction
TP_SLOT
p2457
(dp2458
g1414
(lp2459
VVP
p2460
aVV
p2461
asg1417
I3
sg79
I192
sg66
g2390
sbasg66
g1298
sbsg1428
I1
sba(iconstruction
CXN
p2462
(dp2463
g1368
(iconstruction
TP_SYMLINKS
p2464
(dp2465
g1371
(dp2466
VAGT_198
p2467
VS1_204
p2468
sVACT_197
p2469
VS5_208
p2470
sVPT_199
p2471
VS3_206
p2472
ssg79
I195
sg66
g1298
sbsg1377
VN
p2473
sg1379
I2
sg66
VOBJ_REL_PAS_SVO
p2474
sg1381
(iconstruction
TP_SEMFRAME
p2475
(dp2476
g94
g0
(g95
g2
Ntp2477
Rp2478
(dp2479
g99
(dp2480
(iconstruction
TP_NODE
p2481
(dp2482
g1390
I00
sg1391
g741
sg66
VEVT_196
p2483
sg1392
I01
sg1393
I00
sg79
I196
sb(dp2484
g1392
I01
sg1391
g741
ss(iconstruction
TP_NODE
p2485
(dp2486
g1390
I01
sg1391
g744
sg66
g2467
sg1392
I01
sg1393
I00
sg79
I198
sb(dp2487
g1392
I01
sg1391
g744
ss(iconstruction
TP_NODE
p2488
(dp2489
g1390
I00
sg1391
g588
sg66
g2469
sg1392
I01
sg1393
I01
sg79
I197
sb(dp2490
g1392
I01
sg1391
g588
ss(iconstruction
TP_NODE
p2491
(dp2492
g1390
I00
sg1391
g744
sg66
g2471
sg1392
I01
sg1393
I00
sg79
I199
sb(dp2493
g1392
I01
sg1391
g744
sssg284
g285
sg286
g285
sg287
(dp2494
g2481
(dp2495
g2488
(dp2496
g1391
g735
sssg2485
(dp2497
g2481
(dp2498
g1391
g693
sssg2488
(dp2499
g2485
(dp2500
g1391
g714
ssg2491
(dp2501
g1391
g708
sssg2491
(dp2502
ssg480
g2494
sg94
(dp2503
sg482
g285
sg483
g2494
sg484
(dp2504
g2481
(dp2505
g2485
g2498
ssg2485
(dp2506
g2488
g2500
ssg2488
(dp2507
g2481
g2496
ssg2491
(dp2508
g2488
g2501
sssbsg577
(lp2509
g2481
ag2488
ag2485
ag2491
asg854
(lp2510
(iconstruction
TP_REL
p2511
(dp2512
g860
g2488
sg1391
g735
sg79
I200
sg861
g2481
sg66
VIS_200
p2513
sba(iconstruction
TP_REL
p2514
(dp2515
g860
g2485
sg1391
g714
sg79
I201
sg861
g2488
sg66
VACT_AGT_201
p2516
sba(iconstruction
TP_REL
p2517
(dp2518
g860
g2491
sg1391
g708
sg79
I202
sg861
g2488
sg66
VACT_PT_202
p2519
sba(iconstruction
TP_REL
p2520
(dp2521
g860
g2481
sg1391
g693
sg79
I203
sg861
g2485
sg66
VAGT_EVT_203
p2522
sbasg79
I193
sg66
g1298
sbsg1407
(iconstruction
TP_SYNFORM
p2523
(dp2524
g79
I194
sg1410
(lp2525
(iconstruction
TP_SLOT
p2526
(dp2527
g1414
(lp2528
VN
p2529
asg1417
I0
sg79
I204
sg66
g2468
sba(iconstruction
TP_PHON
p2530
(dp2531
g1420
I4
sg1417
I1
sg79
I205
sg1421
Vthat
p2532
sg66
VS2_205
p2533
sba(iconstruction
TP_SLOT
p2534
(dp2535
g1414
(lp2536
VNP
p2537
aVN
p2538
asg1417
I2
sg79
I206
sg66
g2472
sba(iconstruction
TP_PHON
p2539
(dp2540
g1420
I2
sg1417
I3
sg79
I207
sg1421
Vis
p2541
sg66
VS4_207
p2542
sba(iconstruction
TP_SLOT
p2543
(dp2544
g1414
(lp2545
VVP
p2546
aVV
p2547
asg1417
I4
sg79
I208
sg66
g2470
sba(iconstruction
TP_PHON
p2548
(dp2549
g1420
I2
sg1417
I5
sg79
I209
sg1421
V-ed
p2550
sg66
VS6_209
p2551
sba(iconstruction
TP_PHON
p2552
(dp2553
g1420
I2
sg1417
I6
sg79
I210
sg1421
Vby
p2554
sg66
VS7_210
p2555
sbasg66
g1298
sbsg1428
I1
sba(iconstruction
CXN
p2556
(dp2557
g1368
(iconstruction
TP_SYMLINKS
p2558
(dp2559
g1371
(dp2560
VENT_215
p2561
VS1_219
p2562
sVATTR_216
p2563
VS4_222
p2564
ssg79
I213
sg66
g1298
sbsg1377
VN
p2565
sg1379
I2
sg66
VREL_SPA
p2566
sg1381
(iconstruction
TP_SEMFRAME
p2567
(dp2568
g94
g0
(g95
g2
Ntp2569
Rp2570
(dp2571
g99
(dp2572
(iconstruction
TP_NODE
p2573
(dp2574
g1390
I00
sg1391
g741
sg66
VEVT_214
p2575
sg1392
I01
sg1393
I00
sg79
I214
sb(dp2576
g1392
I01
sg1391
g741
ss(iconstruction
TP_NODE
p2577
(dp2578
g1390
I00
sg1391
g645
sg66
g2563
sg1392
I00
sg1393
I00
sg79
I216
sb(dp2579
g1392
I00
sg1391
g645
ss(iconstruction
TP_NODE
p2580
(dp2581
g1390
I01
sg1391
g744
sg66
g2561
sg1392
I01
sg1393
I01
sg79
I215
sb(dp2582
g1392
I01
sg1391
g744
sssg284
g285
sg286
g285
sg287
(dp2583
g2573
(dp2584
g2577
(dp2585
g1391
g693
ssg2580
(dp2586
g1391
g735
sssg2577
(dp2587
sg2580
(dp2588
ssg480
g2583
sg94
(dp2589
sg482
g285
sg483
g2583
sg484
(dp2590
g2573
(dp2591
sg2577
(dp2592
g2573
g2585
ssg2580
(dp2593
g2573
g2586
sssbsg577
(lp2594
g2573
ag2580
ag2577
asg854
(lp2595
(iconstruction
TP_REL
p2596
(dp2597
g860
g2580
sg1391
g735
sg79
I217
sg861
g2573
sg66
VIS_217
p2598
sba(iconstruction
TP_REL
p2599
(dp2600
g860
g2577
sg1391
g693
sg79
I218
sg861
g2573
sg66
VEVT_ATTR_218
p2601
sbasg79
I211
sg66
g1298
sbsg1407
(iconstruction
TP_SYNFORM
p2602
(dp2603
g79
I212
sg1410
(lp2604
(iconstruction
TP_SLOT
p2605
(dp2606
g1414
(lp2607
VN
p2608
asg1417
I0
sg79
I219
sg66
g2562
sba(iconstruction
TP_PHON
p2609
(dp2610
g1420
I4
sg1417
I1
sg79
I220
sg1421
Vthat
p2611
sg66
VS2_220
p2612
sba(iconstruction
TP_PHON
p2613
(dp2614
g1420
I2
sg1417
I2
sg79
I221
sg1421
Vis
p2615
sg66
VS3_221
p2616
sba(iconstruction
TP_SLOT
p2617
(dp2618
g1414
(lp2619
VA
p2620
asg1417
I3
sg79
I222
sg66
g2564
sbasg66
g1298
sbsg1428
I1
sba(iconstruction
CXN
p2621
(dp2622
g1368
(iconstruction
TP_SYMLINKS
p2623
(dp2624
g1371
(dp2625
VAGT_228
p2626
VS1_235
p2627
sVCOLOR_230
p2628
VS3_237
p2629
ssg79
I225
sg66
g1298
sbsg1377
VN
p2630
sg1379
I2
sg66
VIN_COLOR
p2631
sg1381
(iconstruction
TP_SEMFRAME
p2632
(dp2633
g94
g0
(g95
g2
Ntp2634
Rp2635
(dp2636
g99
(dp2637
(iconstruction
TP_NODE
p2638
(dp2639
g1390
I00
sg1391
g741
sg66
VEVT_226
p2640
sg1392
I01
sg1393
I00
sg79
I226
sb(dp2641
g1392
I01
sg1391
g741
ss(iconstruction
TP_NODE
p2642
(dp2643
g1390
I01
sg1391
g753
sg66
g2626
sg1392
I01
sg1393
I00
sg79
I228
sb(dp2644
g1392
I01
sg1391
g753
ss(iconstruction
TP_NODE
p2645
(dp2646
g1390
I00
sg1391
g633
sg66
VACT_227
p2647
sg1392
I01
sg1393
I00
sg79
I227
sb(dp2648
g1392
I01
sg1391
g633
ss(iconstruction
TP_NODE
p2649
(dp2650
g1390
I00
sg1391
g783
sg66
VPT_229
p2651
sg1392
I01
sg1393
I00
sg79
I229
sb(dp2652
g1392
I01
sg1391
g783
ss(iconstruction
TP_NODE
p2653
(dp2654
g1390
I00
sg1391
g648
sg66
g2628
sg1392
I00
sg1393
I01
sg79
I230
sb(dp2655
g1392
I00
sg1391
g648
sssg284
g285
sg286
g285
sg287
(dp2656
g2638
(dp2657
g2645
(dp2658
g1391
g735
sssg2642
(dp2659
sg2645
(dp2660
g2642
(dp2661
g1391
g714
ssg2649
(dp2662
g1391
g708
sssg2649
(dp2663
g2653
(dp2664
g1391
g693
sssg2653
(dp2665
ssg480
g2656
sg94
(dp2666
sg482
g285
sg483
g2656
sg484
(dp2667
g2638
(dp2668
sg2642
(dp2669
g2645
g2661
ssg2645
(dp2670
g2638
g2658
ssg2649
(dp2671
g2645
g2662
ssg2653
(dp2672
g2649
g2664
sssbsg577
(lp2673
g2638
ag2645
ag2642
ag2649
ag2653
asg854
(lp2674
(iconstruction
TP_REL
p2675
(dp2676
g860
g2645
sg1391
g735
sg79
I231
sg861
g2638
sg66
VIS_231
p2677
sba(iconstruction
TP_REL
p2678
(dp2679
g860
g2642
sg1391
g714
sg79
I232
sg861
g2645
sg66
VACT_AGT_232
p2680
sba(iconstruction
TP_REL
p2681
(dp2682
g860
g2649
sg1391
g708
sg79
I233
sg861
g2645
sg66
VACT_PT_233
p2683
sba(iconstruction
TP_REL
p2684
(dp2685
g860
g2653
sg1391
g693
sg79
I234
sg861
g2649
sg66
VPT_COLOR_234
p2686
sbasg79
I223
sg66
g1298
sbsg1407
(iconstruction
TP_SYNFORM
p2687
(dp2688
g79
I224
sg1410
(lp2689
(iconstruction
TP_SLOT
p2690
(dp2691
g1414
(lp2692
VN
p2693
asg1417
I0
sg79
I235
sg66
g2627
sba(iconstruction
TP_PHON
p2694
(dp2695
g1420
I2
sg1417
I1
sg79
I236
sg1421
Vin
p2696
sg66
VS2_236
p2697
sba(iconstruction
TP_SLOT
p2698
(dp2699
g1414
(lp2700
VA
p2701
asg1417
I2
sg79
I237
sg66
g2629
sbasg66
g1298
sbsg1428
I1
sba(iconstruction
CXN
p2702
(dp2703
g1368
(iconstruction
TP_SYMLINKS
p2704
(dp2705
g1371
(dp2706
VN1_242
p2707
VS1_244
p2708
ssg79
I240
sg66
g1298
sbsg1377
VV
p2709
sg1379
I1
sg66
VHIT
p2710
sg1381
(iconstruction
TP_SEMFRAME
p2711
(dp2712
g94
g0
(g95
g2
Ntp2713
Rp2714
(dp2715
g99
(dp2716
(iconstruction
TP_NODE
p2717
(dp2718
g1390
I00
sg1391
g609
sg66
g2707
sg1392
I00
sg1393
I00
sg79
I242
sb(dp2719
g1392
I00
sg1391
g609
ss(iconstruction
TP_NODE
p2720
(dp2721
g1390
I01
sg1391
g588
sg66
VACT_241
p2722
sg1392
I01
sg1393
I00
sg79
I241
sb(dp2723
g1392
I01
sg1391
g588
sssg284
g285
sg286
g285
sg287
(dp2724
g2717
(dp2725
sg2720
(dp2726
g2717
(dp2727
g1391
g735
ssssg480
g2724
sg94
(dp2728
sg482
g285
sg483
g2724
sg484
(dp2729
g2717
(dp2730
g2720
g2727
ssg2720
(dp2731
ssbsg577
(lp2732
g2720
ag2717
asg854
(lp2733
(iconstruction
TP_REL
p2734
(dp2735
g860
g2717
sg1391
g735
sg79
I243
sg861
g2720
sg66
VIS_243
p2736
sbasg79
I238
sg66
g1298
sbsg1407
(iconstruction
TP_SYNFORM
p2737
(dp2738
g79
I239
sg1410
(lp2739
(iconstruction
TP_PHON
p2740
(dp2741
g1420
I3
sg1417
I0
sg79
I244
sg1421
Vhit
p2742
sg66
g2708
sbasg66
g1298
sbsg1428
I1
sba(iconstruction
CXN
p2743
(dp2744
g1368
(iconstruction
TP_SYMLINKS
p2745
(dp2746
g1371
(dp2747
VN1_249
p2748
VS1_251
p2749
ssg79
I247
sg66
g1298
sbsg1377
VV
p2750
sg1379
I1
sg66
VKICK
p2751
sg1381
(iconstruction
TP_SEMFRAME
p2752
(dp2753
g94
g0
(g95
g2
Ntp2754
Rp2755
(dp2756
g99
(dp2757
(iconstruction
TP_NODE
p2758
(dp2759
g1390
I00
sg1391
g630
sg66
g2748
sg1392
I00
sg1393
I00
sg79
I249
sb(dp2760
g1392
I00
sg1391
g630
ss(iconstruction
TP_NODE
p2761
(dp2762
g1390
I01
sg1391
g588
sg66
VACT_248
p2763
sg1392
I01
sg1393
I00
sg79
I248
sb(dp2764
g1392
I01
sg1391
g588
sssg284
g285
sg286
g285
sg287
(dp2765
g2758
(dp2766
sg2761
(dp2767
g2758
(dp2768
g1391
g735
ssssg480
g2765
sg94
(dp2769
sg482
g285
sg483
g2765
sg484
(dp2770
g2758
(dp2771
g2761
g2768
ssg2761
(dp2772
ssbsg577
(lp2773
g2761
ag2758
asg854
(lp2774
(iconstruction
TP_REL
p2775
(dp2776
g860
g2758
sg1391
g735
sg79
I250
sg861
g2761
sg66
VIS_250
p2777
sbasg79
I245
sg66
g1298
sbsg1407
(iconstruction
TP_SYNFORM
p2778
(dp2779
g79
I246
sg1410
(lp2780
(iconstruction
TP_PHON
p2781
(dp2782
g1420
I4
sg1417
I0
sg79
I251
sg1421
Vkick
p2783
sg66
g2749
sbasg66
g1298
sbsg1428
I1
sba(iconstruction
CXN
p2784
(dp2785
g1368
(iconstruction
TP_SYMLINKS
p2786
(dp2787
g1371
(dp2788
VN1_256
p2789
VS1_258
p2790
ssg79
I254
sg66
g1298
sbsg1377
VV
p2791
sg1379
I1
sg66
VPUNCH
p2792
sg1381
(iconstruction
TP_SEMFRAME
p2793
(dp2794
g94
g0
(g95
g2
Ntp2795
Rp2796
(dp2797
g99
(dp2798
(iconstruction
TP_NODE
p2799
(dp2800
g1390
I01
sg1391
g588
sg66
VACT_255
p2801
sg1392
I01
sg1393
I00
sg79
I255
sb(dp2802
g1392
I01
sg1391
g588
ss(iconstruction
TP_NODE
p2803
(dp2804
g1390
I00
sg1391
g615
sg66
g2789
sg1392
I00
sg1393
I00
sg79
I256
sb(dp2805
g1392
I00
sg1391
g615
sssg284
g285
sg286
g285
sg287
(dp2806
g2799
(dp2807
g2803
(dp2808
g1391
g735
sssg2803
(dp2809
ssg480
g2806
sg94
(dp2810
sg482
g285
sg483
g2806
sg484
(dp2811
g2799
(dp2812
sg2803
(dp2813
g2799
g2808
sssbsg577
(lp2814
g2799
ag2803
asg854
(lp2815
(iconstruction
TP_REL
p2816
(dp2817
g860
g2803
sg1391
g735
sg79
I257
sg861
g2799
sg66
VIS_257
p2818
sbasg79
I252
sg66
g1298
sbsg1407
(iconstruction
TP_SYNFORM
p2819
(dp2820
g79
I253
sg1410
(lp2821
(iconstruction
TP_PHON
p2822
(dp2823
g1420
I5
sg1417
I0
sg79
I258
sg1421
Vpunch
p2824
sg66
g2790
sbasg66
g1298
sbsg1428
I1
sba(iconstruction
CXN
p2825
(dp2826
g1368
(iconstruction
TP_SYMLINKS
p2827
(dp2828
g1371
(dp2829
VN1_263
p2830
VS1_265
p2831
ssg79
I261
sg66
g1298
sbsg1377
VV
p2832
sg1379
I1
sg66
VWEAR
p2833
sg1381
(iconstruction
TP_SEMFRAME
p2834
(dp2835
g94
g0
(g95
g2
Ntp2836
Rp2837
(dp2838
g99
(dp2839
(iconstruction
TP_NODE
p2840
(dp2841
g1390
I00
sg1391
g633
sg66
g2830
sg1392
I00
sg1393
I00
sg79
I263
sb(dp2842
g1392
I00
sg1391
g633
ss(iconstruction
TP_NODE
p2843
(dp2844
g1390
I01
sg1391
g588
sg66
VACT_262
p2845
sg1392
I01
sg1393
I00
sg79
I262
sb(dp2846
g1392
I01
sg1391
g588
sssg284
g285
sg286
g285
sg287
(dp2847
g2840
(dp2848
sg2843
(dp2849
g2840
(dp2850
g1391
g735
ssssg480
g2847
sg94
(dp2851
sg482
g285
sg483
g2847
sg484
(dp2852
g2840
(dp2853
g2843
g2850
ssg2843
(dp2854
ssbsg577
(lp2855
g2843
ag2840
asg854
(lp2856
(iconstruction
TP_REL
p2857
(dp2858
g860
g2840
sg1391
g735
sg79
I264
sg861
g2843
sg66
VIS_264
p2859
sbasg79
I259
sg66
g1298
sbsg1407
(iconstruction
TP_SYNFORM
p2860
(dp2861
g79
I260
sg1410
(lp2862
(iconstruction
TP_PHON
p2863
(dp2864
g1420
I4
sg1417
I0
sg79
I265
sg1421
Vwear
p2865
sg66
g2831
sbasg66
g1298
sbsg1428
I1
sba(iconstruction
CXN
p2866
(dp2867
g1368
(iconstruction
TP_SYMLINKS
p2868
(dp2869
g1371
(dp2870
VN1_270
p2871
VS1_272
p2872
ssg79
I268
sg66
g1298
sbsg1377
VV
p2873
sg1379
I1
sg66
VLAUGH
p2874
sg1381
(iconstruction
TP_SEMFRAME
p2875
(dp2876
g94
g0
(g95
g2
Ntp2877
Rp2878
(dp2879
g99
(dp2880
(iconstruction
TP_NODE
p2881
(dp2882
g1390
I01
sg1391
g588
sg66
VACT_269
p2883
sg1392
I01
sg1393
I00
sg79
I269
sb(dp2884
g1392
I01
sg1391
g588
ss(iconstruction
TP_NODE
p2885
(dp2886
g1390
I00
sg1391
g603
sg66
g2871
sg1392
I00
sg1393
I00
sg79
I270
sb(dp2887
g1392
I00
sg1391
g603
sssg284
g285
sg286
g285
sg287
(dp2888
g2881
(dp2889
g2885
(dp2890
g1391
g735
sssg2885
(dp2891
ssg480
g2888
sg94
(dp2892
sg482
g285
sg483
g2888
sg484
(dp2893
g2881
(dp2894
sg2885
(dp2895
g2881
g2890
sssbsg577
(lp2896
g2881
ag2885
asg854
(lp2897
(iconstruction
TP_REL
p2898
(dp2899
g860
g2885
sg1391
g735
sg79
I271
sg861
g2881
sg66
VIS_271
p2900
sbasg79
I266
sg66
g1298
sbsg1407
(iconstruction
TP_SYNFORM
p2901
(dp2902
g79
I267
sg1410
(lp2903
(iconstruction
TP_PHON
p2904
(dp2905
g1420
I5
sg1417
I0
sg79
I272
sg1421
Vlaugh
p2906
sg66
g2872
sbasg66
g1298
sbsg1428
I1
sba(iconstruction
CXN
p2907
(dp2908
g1368
(iconstruction
TP_SYMLINKS
p2909
(dp2910
g1371
(dp2911
VN1_277
p2912
VS1_279
p2913
ssg79
I275
sg66
g1298
sbsg1377
VV
p2914
sg1379
I1
sg66
VWATCH
p2915
sg1381
(iconstruction
TP_SEMFRAME
p2916
(dp2917
g94
g0
(g95
g2
Ntp2918
Rp2919
(dp2920
g99
(dp2921
(iconstruction
TP_NODE
p2922
(dp2923
g1390
I00
sg1391
g612
sg66
g2912
sg1392
I00
sg1393
I00
sg79
I277
sb(dp2924
g1392
I00
sg1391
g612
ss(iconstruction
TP_NODE
p2925
(dp2926
g1390
I01
sg1391
g588
sg66
VACT_276
p2927
sg1392
I01
sg1393
I00
sg79
I276
sb(dp2928
g1392
I01
sg1391
g588
sssg284
g285
sg286
g285
sg287
(dp2929
g2922
(dp2930
sg2925
(dp2931
g2922
(dp2932
g1391
g735
ssssg480
g2929
sg94
(dp2933
sg482
g285
sg483
g2929
sg484
(dp2934
g2922
(dp2935
g2925
g2932
ssg2925
(dp2936
ssbsg577
(lp2937
g2925
ag2922
asg854
(lp2938
(iconstruction
TP_REL
p2939
(dp2940
g860
g2922
sg1391
g735
sg79
I278
sg861
g2925
sg66
VIS_278
p2941
sbasg79
I273
sg66
g1298
sbsg1407
(iconstruction
TP_SYNFORM
p2942
(dp2943
g79
I274
sg1410
(lp2944
(iconstruction
TP_PHON
p2945
(dp2946
g1420
I5
sg1417
I0
sg79
I279
sg1421
Vwatch
p2947
sg66
g2913
sbasg66
g1298
sbsg1428
I1
sba(iconstruction
CXN
p2948
(dp2949
g1368
(iconstruction
TP_SYMLINKS
p2950
(dp2951
g1371
(dp2952
VN1_284
p2953
VS1_286
p2954
ssg79
I282
sg66
g1298
sbsg1377
VV
p2955
sg1379
I1
sg66
VTALK
p2956
sg1381
(iconstruction
TP_SEMFRAME
p2957
(dp2958
g94
g0
(g95
g2
Ntp2959
Rp2960
(dp2961
g99
(dp2962
(iconstruction
TP_NODE
p2963
(dp2964
g1390
I00
sg1391
g621
sg66
g2953
sg1392
I00
sg1393
I00
sg79
I284
sb(dp2965
g1392
I00
sg1391
g621
ss(iconstruction
TP_NODE
p2966
(dp2967
g1390
I01
sg1391
g588
sg66
VACT_283
p2968
sg1392
I01
sg1393
I00
sg79
I283
sb(dp2969
g1392
I01
sg1391
g588
sssg284
g285
sg286
g285
sg287
(dp2970
g2963
(dp2971
sg2966
(dp2972
g2963
(dp2973
g1391
g735
ssssg480
g2970
sg94
(dp2974
sg482
g285
sg483
g2970
sg484
(dp2975
g2963
(dp2976
g2966
g2973
ssg2966
(dp2977
ssbsg577
(lp2978
g2966
ag2963
asg854
(lp2979
(iconstruction
TP_REL
p2980
(dp2981
g860
g2963
sg1391
g735
sg79
I285
sg861
g2966
sg66
VIS_285
p2982
sbasg79
I280
sg66
g1298
sbsg1407
(iconstruction
TP_SYNFORM
p2983
(dp2984
g79
I281
sg1410
(lp2985
(iconstruction
TP_PHON
p2986
(dp2987
g1420
I4
sg1417
I0
sg79
I286
sg1421
Vtalk
p2988
sg66
g2954
sba(iconstruction
TP_PHON
p2989
(dp2990
g1420
I2
sg1417
I1
sg79
I287
sg1421
Vto
p2991
sg66
VS2_287
p2992
sbasg66
g1298
sbsg1428
I1
sba(iconstruction
CXN
p2993
(dp2994
g1368
(iconstruction
TP_SYMLINKS
p2995
(dp2996
g1371
(dp2997
VN1_292
p2998
VS1_294
p2999
ssg79
I290
sg66
g1298
sbsg1377
VV
p3000
sg1379
I1
sg66
VSQUIRT
p3001
sg1381
(iconstruction
TP_SEMFRAME
p3002
(dp3003
g94
g0
(g95
g2
Ntp3004
Rp3005
(dp3006
g99
(dp3007
(iconstruction
TP_NODE
p3008
(dp3009
g1390
I00
sg1391
g627
sg66
g2998
sg1392
I00
sg1393
I00
sg79
I292
sb(dp3010
g1392
I00
sg1391
g627
ss(iconstruction
TP_NODE
p3011
(dp3012
g1390
I01
sg1391
g588
sg66
VACT_291
p3013
sg1392
I01
sg1393
I00
sg79
I291
sb(dp3014
g1392
I01
sg1391
g588
sssg284
g285
sg286
g285
sg287
(dp3015
g3008
(dp3016
sg3011
(dp3017
g3008
(dp3018
g1391
g735
ssssg480
g3015
sg94
(dp3019
sg482
g285
sg483
g3015
sg484
(dp3020
g3008
(dp3021
g3011
g3018
ssg3011
(dp3022
ssbsg577
(lp3023
g3011
ag3008
asg854
(lp3024
(iconstruction
TP_REL
p3025
(dp3026
g860
g3008
sg1391
g735
sg79
I293
sg861
g3011
sg66
VIS_293
p3027
sbasg79
I288
sg66
g1298
sbsg1407
(iconstruction
TP_SYNFORM
p3028
(dp3029
g79
I289
sg1410
(lp3030
(iconstruction
TP_PHON
p3031
(dp3032
g1420
I6
sg1417
I0
sg79
I294
sg1421
Vsquirt
p3033
sg66
g2999
sba(iconstruction
TP_PHON
p3034
(dp3035
g1420
I2
sg1417
I1
sg79
I295
sg1421
Vat
p3036
sg66
VS2_295
p3037
sbasg66
g1298
sbsg1428
I1
sba(iconstruction
CXN
p3038
(dp3039
g1368
(iconstruction
TP_SYMLINKS
p3040
(dp3041
g1371
(dp3042
VN1_300
p3043
VS1_302
p3044
ssg79
I298
sg66
g1298
sbsg1377
VV
p3045
sg1379
I1
sg66
VSPLASH
p3046
sg1381
(iconstruction
TP_SEMFRAME
p3047
(dp3048
g94
g0
(g95
g2
Ntp3049
Rp3050
(dp3051
g99
(dp3052
(iconstruction
TP_NODE
p3053
(dp3054
g1390
I00
sg1391
g618
sg66
g3043
sg1392
I00
sg1393
I00
sg79
I300
sb(dp3055
g1392
I00
sg1391
g618
ss(iconstruction
TP_NODE
p3056
(dp3057
g1390
I01
sg1391
g588
sg66
VACT_299
p3058
sg1392
I01
sg1393
I00
sg79
I299
sb(dp3059
g1392
I01
sg1391
g588
sssg284
g285
sg286
g285
sg287
(dp3060
g3053
(dp3061
sg3056
(dp3062
g3053
(dp3063
g1391
g735
ssssg480
g3060
sg94
(dp3064
sg482
g285
sg483
g3060
sg484
(dp3065
g3053
(dp3066
g3056
g3063
ssg3056
(dp3067
ssbsg577
(lp3068
g3056
ag3053
asg854
(lp3069
(iconstruction
TP_REL
p3070
(dp3071
g860
g3053
sg1391
g735
sg79
I301
sg861
g3056
sg66
VIS_301
p3072
sbasg79
I296
sg66
g1298
sbsg1407
(iconstruction
TP_SYNFORM
p3073
(dp3074
g79
I297
sg1410
(lp3075
(iconstruction
TP_PHON
p3076
(dp3077
g1420
I6
sg1417
I0
sg79
I302
sg1421
Vsplash
p3078
sg66
g3044
sbasg66
g1298
sbsg1428
I1
sba(iconstruction
CXN
p3079
(dp3080
g1368
(iconstruction
TP_SYMLINKS
p3081
(dp3082
g1371
(dp3083
VN1_307
p3084
VS1_309
p3085
ssg79
I305
sg66
g1298
sbsg1377
VV
p3086
sg1379
I1
sg66
VGIVE
p3087
sg1381
(iconstruction
TP_SEMFRAME
p3088
(dp3089
g94
g0
(g95
g2
Ntp3090
Rp3091
(dp3092
g99
(dp3093
(iconstruction
TP_NODE
p3094
(dp3095
g1390
I01
sg1391
g588
sg66
VACT_306
p3096
sg1392
I01
sg1393
I00
sg79
I306
sb(dp3097
g1392
I01
sg1391
g588
ss(iconstruction
TP_NODE
p3098
(dp3099
g1390
I00
sg1391
g642
sg66
g3084
sg1392
I00
sg1393
I00
sg79
I307
sb(dp3100
g1392
I00
sg1391
g642
sssg284
g285
sg286
g285
sg287
(dp3101
g3094
(dp3102
g3098
(dp3103
g1391
g735
sssg3098
(dp3104
ssg480
g3101
sg94
(dp3105
sg482
g285
sg483
g3101
sg484
(dp3106
g3094
(dp3107
sg3098
(dp3108
g3094
g3103
sssbsg577
(lp3109
g3094
ag3098
asg854
(lp3110
(iconstruction
TP_REL
p3111
(dp3112
g860
g3098
sg1391
g735
sg79
I308
sg861
g3094
sg66
VIS_308
p3113
sbasg79
I303
sg66
g1298
sbsg1407
(iconstruction
TP_SYNFORM
p3114
(dp3115
g79
I304
sg1410
(lp3116
(iconstruction
TP_PHON
p3117
(dp3118
g1420
I4
sg1417
I0
sg79
I309
sg1421
Vgive
p3119
sg66
g3085
sbasg66
g1298
sbsg1428
I1
sba(iconstruction
CXN
p3120
(dp3121
g1368
(iconstruction
TP_SYMLINKS
p3122
(dp3123
g1371
(dp3124
VN1_314
p3125
VS1_316
p3126
ssg79
I312
sg66
g1298
sbsg1377
VV
p3127
sg1379
I1
sg66
VSEND
p3128
sg1381
(iconstruction
TP_SEMFRAME
p3129
(dp3130
g94
g0
(g95
g2
Ntp3131
Rp3132
(dp3133
g99
(dp3134
(iconstruction
TP_NODE
p3135
(dp3136
g1390
I00
sg1391
g639
sg66
g3125
sg1392
I00
sg1393
I00
sg79
I314
sb(dp3137
g1392
I00
sg1391
g639
ss(iconstruction
TP_NODE
p3138
(dp3139
g1390
I01
sg1391
g588
sg66
VACT_313
p3140
sg1392
I01
sg1393
I00
sg79
I313
sb(dp3141
g1392
I01
sg1391
g588
sssg284
g285
sg286
g285
sg287
(dp3142
g3135
(dp3143
sg3138
(dp3144
g3135
(dp3145
g1391
g735
ssssg480
g3142
sg94
(dp3146
sg482
g285
sg483
g3142
sg484
(dp3147
g3135
(dp3148
g3138
g3145
ssg3138
(dp3149
ssbsg577
(lp3150
g3138
ag3135
asg854
(lp3151
(iconstruction
TP_REL
p3152
(dp3153
g860
g3135
sg1391
g735
sg79
I315
sg861
g3138
sg66
VIS_315
p3154
sbasg79
I310
sg66
g1298
sbsg1407
(iconstruction
TP_SYNFORM
p3155
(dp3156
g79
I311
sg1410
(lp3157
(iconstruction
TP_PHON
p3158
(dp3159
g1420
I4
sg1417
I0
sg79
I316
sg1421
Vsend
p3160
sg66
g3126
sbasg66
g1298
sbsg1428
I1
sba(iconstruction
CXN
p3161
(dp3162
g1368
(iconstruction
TP_SYMLINKS
p3163
(dp3164
g1371
(dp3165
VN1_321
p3166
VS1_323
p3167
ssg79
I319
sg66
g1298
sbsg1377
VV
p3168
sg1379
I1
sg66
VMEET
p3169
sg1381
(iconstruction
TP_SEMFRAME
p3170
(dp3171
g94
g0
(g95
g2
Ntp3172
Rp3173
(dp3174
g99
(dp3175
(iconstruction
TP_NODE
p3176
(dp3177
g1390
I01
sg1391
g588
sg66
VACT_320
p3178
sg1392
I01
sg1393
I00
sg79
I320
sb(dp3179
g1392
I01
sg1391
g588
ss(iconstruction
TP_NODE
p3180
(dp3181
g1390
I00
sg1391
g594
sg66
g3166
sg1392
I00
sg1393
I00
sg79
I321
sb(dp3182
g1392
I00
sg1391
g594
sssg284
g285
sg286
g285
sg287
(dp3183
g3176
(dp3184
g3180
(dp3185
g1391
g735
sssg3180
(dp3186
ssg480
g3183
sg94
(dp3187
sg482
g285
sg483
g3183
sg484
(dp3188
g3176
(dp3189
sg3180
(dp3190
g3176
g3185
sssbsg577
(lp3191
g3176
ag3180
asg854
(lp3192
(iconstruction
TP_REL
p3193
(dp3194
g860
g3180
sg1391
g735
sg79
I322
sg861
g3176
sg66
VIS_322
p3195
sbasg79
I317
sg66
g1298
sbsg1407
(iconstruction
TP_SYNFORM
p3196
(dp3197
g79
I318
sg1410
(lp3198
(iconstruction
TP_PHON
p3199
(dp3200
g1420
I4
sg1417
I0
sg79
I323
sg1421
Vmeet
p3201
sg66
g3167
sbasg66
g1298
sbsg1428
I1
sba(iconstruction
CXN
p3202
(dp3203
g1368
(iconstruction
TP_SYMLINKS
p3204
(dp3205
g1371
(dp3206
VN1_328
p3207
VS1_330
p3208
ssg79
I326
sg66
g1298
sbsg1377
VV
p3209
sg1379
I1
sg66
VKISS
p3210
sg1381
(iconstruction
TP_SEMFRAME
p3211
(dp3212
g94
g0
(g95
g2
Ntp3213
Rp3214
(dp3215
g99
(dp3216
(iconstruction
TP_NODE
p3217
(dp3218
g1390
I01
sg1391
g588
sg66
VACT_327
p3219
sg1392
I01
sg1393
I00
sg79
I327
sb(dp3220
g1392
I01
sg1391
g588
ss(iconstruction
TP_NODE
p3221
(dp3222
g1390
I00
sg1391
g624
sg66
g3207
sg1392
I00
sg1393
I00
sg79
I328
sb(dp3223
g1392
I00
sg1391
g624
sssg284
g285
sg286
g285
sg287
(dp3224
g3217
(dp3225
g3221
(dp3226
g1391
g735
sssg3221
(dp3227
ssg480
g3224
sg94
(dp3228
sg482
g285
sg483
g3224
sg484
(dp3229
g3217
(dp3230
sg3221
(dp3231
g3217
g3226
sssbsg577
(lp3232
g3217
ag3221
asg854
(lp3233
(iconstruction
TP_REL
p3234
(dp3235
g860
g3221
sg1391
g735
sg79
I329
sg861
g3217
sg66
VIS_329
p3236
sbasg79
I324
sg66
g1298
sbsg1407
(iconstruction
TP_SYNFORM
p3237
(dp3238
g79
I325
sg1410
(lp3239
(iconstruction
TP_PHON
p3240
(dp3241
g1420
I4
sg1417
I0
sg79
I330
sg1421
Vkiss
p3242
sg66
g3208
sbasg66
g1298
sbsg1428
I1
sba(iconstruction
CXN
p3243
(dp3244
g1368
(iconstruction
TP_SYMLINKS
p3245
(dp3246
g1371
(dp3247
VN1_335
p3248
VS1_337
p3249
ssg79
I333
sg66
g1298
sbsg1377
VV
p3250
sg1379
I1
sg66
VSHAKE_HANDS
p3251
sg1381
(iconstruction
TP_SEMFRAME
p3252
(dp3253
g94
g0
(g95
g2
Ntp3254
Rp3255
(dp3256
g99
(dp3257
(iconstruction
TP_NODE
p3258
(dp3259
g1390
I00
sg1391
g597
sg66
g3248
sg1392
I00
sg1393
I00
sg79
I335
sb(dp3260
g1392
I00
sg1391
g597
ss(iconstruction
TP_NODE
p3261
(dp3262
g1390
I01
sg1391
g588
sg66
VACT_334
p3263
sg1392
I01
sg1393
I00
sg79
I334
sb(dp3264
g1392
I01
sg1391
g588
sssg284
g285
sg286
g285
sg287
(dp3265
g3258
(dp3266
sg3261
(dp3267
g3258
(dp3268
g1391
g735
ssssg480
g3265
sg94
(dp3269
sg482
g285
sg483
g3265
sg484
(dp3270
g3258
(dp3271
g3261
g3268
ssg3261
(dp3272
ssbsg577
(lp3273
g3261
ag3258
asg854
(lp3274
(iconstruction
TP_REL
p3275
(dp3276
g860
g3258
sg1391
g735
sg79
I336
sg861
g3261
sg66
VIS_336
p3277
sbasg79
I331
sg66
g1298
sbsg1407
(iconstruction
TP_SYNFORM
p3278
(dp3279
g79
I332
sg1410
(lp3280
(iconstruction
TP_PHON
p3281
(dp3282
g1420
I10
sg1417
I0
sg79
I337
sg1421
Vshake hands
p3283
sg66
g3249
sbasg66
g1298
sbsg1428
I1
sba(iconstruction
CXN
p3284
(dp3285
g1368
(iconstruction
TP_SYMLINKS
p3286
(dp3287
g1371
(dp3288
VN1_341
p3289
VS1_342
p3290
ssg79
I340
sg66
g1298
sbsg1377
VA
p3291
sg1379
I1
sg66
VBLUE
p3292
sg1381
(iconstruction
TP_SEMFRAME
p3293
(dp3294
g94
g0
(g95
g2
Ntp3295
Rp3296
(dp3297
g99
(dp3298
(iconstruction
TP_NODE
p3299
(dp3300
g1390
I01
sg1391
g651
sg66
g3289
sg1392
I00
sg1393
I00
sg79
I341
sb(dp3301
g1392
I00
sg1391
g651
sssg284
g285
sg286
g285
sg287
(dp3302
g3299
(dp3303
ssg480
g3302
sg94
(dp3304
sg482
g285
sg483
g3302
sg484
(dp3305
g3299
(dp3306
ssbsg577
(lp3307
g3299
asg854
(lp3308
sg79
I338
sg66
g1298
sbsg1407
(iconstruction
TP_SYNFORM
p3309
(dp3310
g79
I339
sg1410
(lp3311
(iconstruction
TP_PHON
p3312
(dp3313
g1420
I4
sg1417
I0
sg79
I342
sg1421
Vblue
p3314
sg66
g3290
sbasg66
g1298
sbsg1428
I1
sba(iconstruction
CXN
p3315
(dp3316
g1368
(iconstruction
TP_SYMLINKS
p3317
(dp3318
g1371
(dp3319
VN1_346
p3320
VS1_347
p3321
ssg79
I345
sg66
g1298
sbsg1377
VA
p3322
sg1379
I1
sg66
VBLACK
p3323
sg1381
(iconstruction
TP_SEMFRAME
p3324
(dp3325
g94
g0
(g95
g2
Ntp3326
Rp3327
(dp3328
g99
(dp3329
(iconstruction
TP_NODE
p3330
(dp3331
g1390
I01
sg1391
g660
sg66
g3320
sg1392
I00
sg1393
I00
sg79
I346
sb(dp3332
g1392
I00
sg1391
g660
sssg284
g285
sg286
g285
sg287
(dp3333
g3330
(dp3334
ssg480
g3333
sg94
(dp3335
sg482
g285
sg483
g3333
sg484
(dp3336
g3330
(dp3337
ssbsg577
(lp3338
g3330
asg854
(lp3339
sg79
I343
sg66
g1298
sbsg1407
(iconstruction
TP_SYNFORM
p3340
(dp3341
g79
I344
sg1410
(lp3342
(iconstruction
TP_PHON
p3343
(dp3344
g1420
I5
sg1417
I0
sg79
I347
sg1421
Vblack
p3345
sg66
g3321
sbasg66
g1298
sbsg1428
I1
sba(iconstruction
CXN
p3346
(dp3347
g1368
(iconstruction
TP_SYMLINKS
p3348
(dp3349
g1371
(dp3350
VN1_351
p3351
VS1_352
p3352
ssg79
I350
sg66
g1298
sbsg1377
VA
p3353
sg1379
I1
sg66
VGREEN
p3354
sg1381
(iconstruction
TP_SEMFRAME
p3355
(dp3356
g94
g0
(g95
g2
Ntp3357
Rp3358
(dp3359
g99
(dp3360
(iconstruction
TP_NODE
p3361
(dp3362
g1390
I01
sg1391
g654
sg66
g3351
sg1392
I00
sg1393
I00
sg79
I351
sb(dp3363
g1392
I00
sg1391
g654
sssg284
g285
sg286
g285
sg287
(dp3364
g3361
(dp3365
ssg480
g3364
sg94
(dp3366
sg482
g285
sg483
g3364
sg484
(dp3367
g3361
(dp3368
ssbsg577
(lp3369
g3361
asg854
(lp3370
sg79
I348
sg66
g1298
sbsg1407
(iconstruction
TP_SYNFORM
p3371
(dp3372
g79
I349
sg1410
(lp3373
(iconstruction
TP_PHON
p3374
(dp3375
g1420
I5
sg1417
I0
sg79
I352
sg1421
Vgreen
p3376
sg66
g3352
sbasg66
g1298
sbsg1428
I1
sba(iconstruction
CXN
p3377
(dp3378
g1368
(iconstruction
TP_SYMLINKS
p3379
(dp3380
g1371
(dp3381
VN1_356
p3382
VS1_357
p3383
ssg79
I355
sg66
g1298
sbsg1377
VA
p3384
sg1379
I1
sg66
VSMALL
p3385
sg1381
(iconstruction
TP_SEMFRAME
p3386
(dp3387
g94
g0
(g95
g2
Ntp3388
Rp3389
(dp3390
g99
(dp3391
(iconstruction
TP_NODE
p3392
(dp3393
g1390
I01
sg1391
g681
sg66
g3382
sg1392
I00
sg1393
I00
sg79
I356
sb(dp3394
g1392
I00
sg1391
g681
sssg284
g285
sg286
g285
sg287
(dp3395
g3392
(dp3396
ssg480
g3395
sg94
(dp3397
sg482
g285
sg483
g3395
sg484
(dp3398
g3392
(dp3399
ssbsg577
(lp3400
g3392
asg854
(lp3401
sg79
I353
sg66
g1298
sbsg1407
(iconstruction
TP_SYNFORM
p3402
(dp3403
g79
I354
sg1410
(lp3404
(iconstruction
TP_PHON
p3405
(dp3406
g1420
I5
sg1417
I0
sg79
I357
sg1421
Vsmall
p3407
sg66
g3383
sbasg66
g1298
sbsg1428
I1
sba(iconstruction
CXN
p3408
(dp3409
g1368
(iconstruction
TP_SYMLINKS
p3410
(dp3411
g1371
(dp3412
VN1_361
p3413
VS1_362
p3414
ssg79
I360
sg66
g1298
sbsg1377
VA
p3415
sg1379
I1
sg66
VBIG
p3416
sg1381
(iconstruction
TP_SEMFRAME
p3417
(dp3418
g94
g0
(g95
g2
Ntp3419
Rp3420
(dp3421
g99
(dp3422
(iconstruction
TP_NODE
p3423
(dp3424
g1390
I01
sg1391
g684
sg66
g3413
sg1392
I00
sg1393
I00
sg79
I361
sb(dp3425
g1392
I00
sg1391
g684
sssg284
g285
sg286
g285
sg287
(dp3426
g3423
(dp3427
ssg480
g3426
sg94
(dp3428
sg482
g285
sg483
g3426
sg484
(dp3429
g3423
(dp3430
ssbsg577
(lp3431
g3423
asg854
(lp3432
sg79
I358
sg66
g1298
sbsg1407
(iconstruction
TP_SYNFORM
p3433
(dp3434
g79
I359
sg1410
(lp3435
(iconstruction
TP_PHON
p3436
(dp3437
g1420
I3
sg1417
I0
sg79
I362
sg1421
Vbig
p3438
sg66
g3414
sbasg66
g1298
sbsg1428
I1
sba(iconstruction
CXN
p3439
(dp3440
g1368
(iconstruction
TP_SYMLINKS
p3441
(dp3442
g1371
(dp3443
VN1_366
p3444
VS1_367
p3445
ssg79
I365
sg66
g1298
sbsg1377
VA
p3446
sg1379
I1
sg66
VHANDSOME
p3447
sg1381
(iconstruction
TP_SEMFRAME
p3448
(dp3449
g94
g0
(g95
g2
Ntp3450
Rp3451
(dp3452
g99
(dp3453
(iconstruction
TP_NODE
p3454
(dp3455
g1390
I01
sg1391
g675
sg66
g3444
sg1392
I00
sg1393
I00
sg79
I366
sb(dp3456
g1392
I00
sg1391
g675
sssg284
g285
sg286
g285
sg287
(dp3457
g3454
(dp3458
ssg480
g3457
sg94
(dp3459
sg482
g285
sg483
g3457
sg484
(dp3460
g3454
(dp3461
ssbsg577
(lp3462
g3454
asg854
(lp3463
sg79
I363
sg66
g1298
sbsg1407
(iconstruction
TP_SYNFORM
p3464
(dp3465
g79
I364
sg1410
(lp3466
(iconstruction
TP_PHON
p3467
(dp3468
g1420
I8
sg1417
I0
sg79
I367
sg1421
Vhandsome
p3469
sg66
g3445
sbasg66
g1298
sbsg1428
I1
sba(iconstruction
CXN
p3470
(dp3471
g1368
(iconstruction
TP_SYMLINKS
p3472
(dp3473
g1371
(dp3474
VN1_371
p3475
VS1_372
p3476
ssg79
I370
sg66
g1298
sbsg1377
VA
p3477
sg1379
I1
sg66
VPRETTY
p3478
sg1381
(iconstruction
TP_SEMFRAME
p3479
(dp3480
g94
g0
(g95
g2
Ntp3481
Rp3482
(dp3483
g99
(dp3484
(iconstruction
TP_NODE
p3485
(dp3486
g1390
I01
sg1391
g672
sg66
g3475
sg1392
I00
sg1393
I00
sg79
I371
sb(dp3487
g1392
I00
sg1391
g672
sssg284
g285
sg286
g285
sg287
(dp3488
g3485
(dp3489
ssg480
g3488
sg94
(dp3490
sg482
g285
sg483
g3488
sg484
(dp3491
g3485
(dp3492
ssbsg577
(lp3493
g3485
asg854
(lp3494
sg79
I368
sg66
g1298
sbsg1407
(iconstruction
TP_SYNFORM
p3495
(dp3496
g79
I369
sg1410
(lp3497
(iconstruction
TP_PHON
p3498
(dp3499
g1420
I6
sg1417
I0
sg79
I372
sg1421
Vpretty
p3500
sg66
g3476
sbasg66
g1298
sbsg1428
I1
sba(iconstruction
CXN
p3501
(dp3502
g1368
(iconstruction
TP_SYMLINKS
p3503
(dp3504
g1371
(dp3505
VN1_376
p3506
VS1_377
p3507
ssg79
I375
sg66
g1298
sbsg1377
VA
p3508
sg1379
I1
sg66
VYOUNG
p3509
sg1381
(iconstruction
TP_SEMFRAME
p3510
(dp3511
g94
g0
(g95
g2
Ntp3512
Rp3513
(dp3514
g99
(dp3515
(iconstruction
TP_NODE
p3516
(dp3517
g1390
I01
sg1391
g669
sg66
g3506
sg1392
I00
sg1393
I00
sg79
I376
sb(dp3518
g1392
I00
sg1391
g669
sssg284
g285
sg286
g285
sg287
(dp3519
g3516
(dp3520
ssg480
g3519
sg94
(dp3521
sg482
g285
sg483
g3519
sg484
(dp3522
g3516
(dp3523
ssbsg577
(lp3524
g3516
asg854
(lp3525
sg79
I373
sg66
g1298
sbsg1407
(iconstruction
TP_SYNFORM
p3526
(dp3527
g79
I374
sg1410
(lp3528
(iconstruction
TP_PHON
p3529
(dp3530
g1420
I5
sg1417
I0
sg79
I377
sg1421
Vyoung
p3531
sg66
g3507
sbasg66
g1298
sbsg1428
I1
sba(iconstruction
CXN
p3532
(dp3533
g1368
(iconstruction
TP_SYMLINKS
p3534
(dp3535
g1371
(dp3536
VN1_382
p3537
VS1_384
p3538
ssg79
I380
sg66
g1298
sbsg1377
VN
p3539
sg1379
I1
sg66
VWOMAN
p3540
sg1381
(iconstruction
TP_SEMFRAME
p3541
(dp3542
g94
g0
(g95
g2
Ntp3543
Rp3544
(dp3545
g99
(dp3546
(iconstruction
TP_NODE
p3547
(dp3548
g1390
I00
sg1391
g810
sg66
g3537
sg1392
I00
sg1393
I00
sg79
I382
sb(dp3549
g1392
I00
sg1391
g810
ss(iconstruction
TP_NODE
p3550
(dp3551
g1390
I01
sg1391
g744
sg66
VENT_381
p3552
sg1392
I01
sg1393
I00
sg79
I381
sb(dp3553
g1392
I01
sg1391
g744
sssg284
g285
sg286
g285
sg287
(dp3554
g3547
(dp3555
sg3550
(dp3556
g3547
(dp3557
g1391
g735
ssssg480
g3554
sg94
(dp3558
sg482
g285
sg483
g3554
sg484
(dp3559
g3547
(dp3560
g3550
g3557
ssg3550
(dp3561
ssbsg577
(lp3562
g3550
ag3547
asg854
(lp3563
(iconstruction
TP_REL
p3564
(dp3565
g860
g3547
sg1391
g735
sg79
I383
sg861
g3550
sg66
VIS_383
p3566
sbasg79
I378
sg66
g1298
sbsg1407
(iconstruction
TP_SYNFORM
p3567
(dp3568
g79
I379
sg1410
(lp3569
(iconstruction
TP_PHON
p3570
(dp3571
g1420
I5
sg1417
I0
sg79
I384
sg1421
Vwoman
p3572
sg66
g3538
sbasg66
g1298
sbsg1428
I1
sba(iconstruction
CXN
p3573
(dp3574
g1368
(iconstruction
TP_SYMLINKS
p3575
(dp3576
g1371
(dp3577
VN1_389
p3578
VS1_391
p3579
ssg79
I387
sg66
g1298
sbsg1377
VN
p3580
sg1379
I1
sg66
VWOMAN2
p3581
sg1381
(iconstruction
TP_SEMFRAME
p3582
(dp3583
g94
g0
(g95
g2
Ntp3584
Rp3585
(dp3586
g99
(dp3587
(iconstruction
TP_NODE
p3588
(dp3589
g1390
I01
sg1391
g744
sg66
VENT_388
p3590
sg1392
I01
sg1393
I00
sg79
I388
sb(dp3591
g1392
I01
sg1391
g744
ss(iconstruction
TP_NODE
p3592
(dp3593
g1390
I00
sg1391
g810
sg66
g3578
sg1392
I00
sg1393
I00
sg79
I389
sb(dp3594
g1392
I00
sg1391
g810
sssg284
g285
sg286
g285
sg287
(dp3595
g3588
(dp3596
g3592
(dp3597
g1391
g735
sssg3592
(dp3598
ssg480
g3595
sg94
(dp3599
sg482
g285
sg483
g3595
sg484
(dp3600
g3588
(dp3601
sg3592
(dp3602
g3588
g3597
sssbsg577
(lp3603
g3588
ag3592
asg854
(lp3604
(iconstruction
TP_REL
p3605
(dp3606
g860
g3592
sg1391
g735
sg79
I390
sg861
g3588
sg66
VIS_390
p3607
sbasg79
I385
sg66
g1298
sbsg1407
(iconstruction
TP_SYNFORM
p3608
(dp3609
g79
I386
sg1410
(lp3610
(iconstruction
TP_PHON
p3611
(dp3612
g1420
I4
sg1417
I0
sg79
I391
sg1421
Vlady
p3613
sg66
g3579
sbasg66
g1298
sbsg1428
I1
sba(iconstruction
CXN
p3614
(dp3615
g1368
(iconstruction
TP_SYMLINKS
p3616
(dp3617
g1371
(dp3618
VN1_396
p3619
VS1_398
p3620
ssg79
I394
sg66
g1298
sbsg1377
VN
p3621
sg1379
I1
sg66
VMAN
p3622
sg1381
(iconstruction
TP_SEMFRAME
p3623
(dp3624
g94
g0
(g95
g2
Ntp3625
Rp3626
(dp3627
g99
(dp3628
(iconstruction
TP_NODE
p3629
(dp3630
g1390
I00
sg1391
g837
sg66
g3619
sg1392
I00
sg1393
I00
sg79
I396
sb(dp3631
g1392
I00
sg1391
g837
ss(iconstruction
TP_NODE
p3632
(dp3633
g1390
I01
sg1391
g744
sg66
VENT_395
p3634
sg1392
I01
sg1393
I00
sg79
I395
sb(dp3635
g1392
I01
sg1391
g744
sssg284
g285
sg286
g285
sg287
(dp3636
g3629
(dp3637
sg3632
(dp3638
g3629
(dp3639
g1391
g735
ssssg480
g3636
sg94
(dp3640
sg482
g285
sg483
g3636
sg484
(dp3641
g3629
(dp3642
g3632
g3639
ssg3632
(dp3643
ssbsg577
(lp3644
g3632
ag3629
asg854
(lp3645
(iconstruction
TP_REL
p3646
(dp3647
g860
g3629
sg1391
g735
sg79
I397
sg861
g3632
sg66
VIS_397
p3648
sbasg79
I392
sg66
g1298
sbsg1407
(iconstruction
TP_SYNFORM
p3649
(dp3650
g79
I393
sg1410
(lp3651
(iconstruction
TP_PHON
p3652
(dp3653
g1420
I3
sg1417
I0
sg79
I398
sg1421
Vman
p3654
sg66
g3620
sbasg66
g1298
sbsg1428
I1
sba(iconstruction
CXN
p3655
(dp3656
g1368
(iconstruction
TP_SYMLINKS
p3657
(dp3658
g1371
(dp3659
VN1_403
p3660
VS1_405
p3661
ssg79
I401
sg66
g1298
sbsg1377
VN
p3662
sg1379
I1
sg66
VGIRL
p3663
sg1381
(iconstruction
TP_SEMFRAME
p3664
(dp3665
g94
g0
(g95
g2
Ntp3666
Rp3667
(dp3668
g99
(dp3669
(iconstruction
TP_NODE
p3670
(dp3671
g1390
I00
sg1391
g828
sg66
g3660
sg1392
I00
sg1393
I00
sg79
I403
sb(dp3672
g1392
I00
sg1391
g828
ss(iconstruction
TP_NODE
p3673
(dp3674
g1390
I01
sg1391
g744
sg66
VENT_402
p3675
sg1392
I01
sg1393
I00
sg79
I402
sb(dp3676
g1392
I01
sg1391
g744
sssg284
g285
sg286
g285
sg287
(dp3677
g3670
(dp3678
sg3673
(dp3679
g3670
(dp3680
g1391
g735
ssssg480
g3677
sg94
(dp3681
sg482
g285
sg483
g3677
sg484
(dp3682
g3670
(dp3683
g3673
g3680
ssg3673
(dp3684
ssbsg577
(lp3685
g3673
ag3670
asg854
(lp3686
(iconstruction
TP_REL
p3687
(dp3688
g860
g3670
sg1391
g735
sg79
I404
sg861
g3673
sg66
VIS_404
p3689
sbasg79
I399
sg66
g1298
sbsg1407
(iconstruction
TP_SYNFORM
p3690
(dp3691
g79
I400
sg1410
(lp3692
(iconstruction
TP_PHON
p3693
(dp3694
g1420
I4
sg1417
I0
sg79
I405
sg1421
Vgirl
p3695
sg66
g3661
sbasg66
g1298
sbsg1428
I1
sba(iconstruction
CXN
p3696
(dp3697
g1368
(iconstruction
TP_SYMLINKS
p3698
(dp3699
g1371
(dp3700
VN1_410
p3701
VS1_412
p3702
ssg79
I408
sg66
g1298
sbsg1377
VN
p3703
sg1379
I1
sg66
VBOY
p3704
sg1381
(iconstruction
TP_SEMFRAME
p3705
(dp3706
g94
g0
(g95
g2
Ntp3707
Rp3708
(dp3709
g99
(dp3710
(iconstruction
TP_NODE
p3711
(dp3712
g1390
I01
sg1391
g744
sg66
VENT_409
p3713
sg1392
I01
sg1393
I00
sg79
I409
sb(dp3714
g1392
I01
sg1391
g744
ss(iconstruction
TP_NODE
p3715
(dp3716
g1390
I00
sg1391
g807
sg66
g3701
sg1392
I00
sg1393
I00
sg79
I410
sb(dp3717
g1392
I00
sg1391
g807
sssg284
g285
sg286
g285
sg287
(dp3718
g3711
(dp3719
g3715
(dp3720
g1391
g735
sssg3715
(dp3721
ssg480
g3718
sg94
(dp3722
sg482
g285
sg483
g3718
sg484
(dp3723
g3711
(dp3724
sg3715
(dp3725
g3711
g3720
sssbsg577
(lp3726
g3711
ag3715
asg854
(lp3727
(iconstruction
TP_REL
p3728
(dp3729
g860
g3715
sg1391
g735
sg79
I411
sg861
g3711
sg66
VIS_411
p3730
sbasg79
I406
sg66
g1298
sbsg1407
(iconstruction
TP_SYNFORM
p3731
(dp3732
g79
I407
sg1410
(lp3733
(iconstruction
TP_PHON
p3734
(dp3735
g1420
I3
sg1417
I0
sg79
I412
sg1421
Vboy
p3736
sg66
g3702
sbasg66
g1298
sbsg1428
I1
sba(iconstruction
CXN
p3737
(dp3738
g1368
(iconstruction
TP_SYMLINKS
p3739
(dp3740
g1371
(dp3741
VN1_417
p3742
VS1_419
p3743
ssg79
I415
sg66
g1298
sbsg1377
VN
p3744
sg1379
I1
sg66
VPEOPLE
p3745
sg1381
(iconstruction
TP_SEMFRAME
p3746
(dp3747
g94
g0
(g95
g2
Ntp3748
Rp3749
(dp3750
g99
(dp3751
(iconstruction
TP_NODE
p3752
(dp3753
g1390
I00
sg1391
g813
sg66
g3742
sg1392
I00
sg1393
I00
sg79
I417
sb(dp3754
g1392
I00
sg1391
g813
ss(iconstruction
TP_NODE
p3755
(dp3756
g1390
I01
sg1391
g744
sg66
VENT_416
p3757
sg1392
I01
sg1393
I00
sg79
I416
sb(dp3758
g1392
I01
sg1391
g744
sssg284
g285
sg286
g285
sg287
(dp3759
g3752
(dp3760
sg3755
(dp3761
g3752
(dp3762
g1391
g735
ssssg480
g3759
sg94
(dp3763
sg482
g285
sg483
g3759
sg484
(dp3764
g3752
(dp3765
g3755
g3762
ssg3755
(dp3766
ssbsg577
(lp3767
g3755
ag3752
asg854
(lp3768
(iconstruction
TP_REL
p3769
(dp3770
g860
g3752
sg1391
g735
sg79
I418
sg861
g3755
sg66
VIS_418
p3771
sbasg79
I413
sg66
g1298
sbsg1407
(iconstruction
TP_SYNFORM
p3772
(dp3773
g79
I414
sg1410
(lp3774
(iconstruction
TP_PHON
p3775
(dp3776
g1420
I6
sg1417
I0
sg79
I419
sg1421
Vpeople
p3777
sg66
g3743
sbasg66
g1298
sbsg1428
I1
sba(iconstruction
CXN
p3778
(dp3779
g1368
(iconstruction
TP_SYMLINKS
p3780
(dp3781
g1371
(dp3782
VN1_424
p3783
VS1_426
p3784
ssg79
I422
sg66
g1298
sbsg1377
VN
p3785
sg1379
I1
sg66
VMOUSE
p3786
sg1381
(iconstruction
TP_SEMFRAME
p3787
(dp3788
g94
g0
(g95
g2
Ntp3789
Rp3790
(dp3791
g99
(dp3792
(iconstruction
TP_NODE
p3793
(dp3794
g1390
I01
sg1391
g744
sg66
VENT_423
p3795
sg1392
I01
sg1393
I00
sg79
I423
sb(dp3796
g1392
I01
sg1391
g744
ss(iconstruction
TP_NODE
p3797
(dp3798
g1390
I00
sg1391
g801
sg66
g3783
sg1392
I00
sg1393
I00
sg79
I424
sb(dp3799
g1392
I00
sg1391
g801
sssg284
g285
sg286
g285
sg287
(dp3800
g3793
(dp3801
g3797
(dp3802
g1391
g735
sssg3797
(dp3803
ssg480
g3800
sg94
(dp3804
sg482
g285
sg483
g3800
sg484
(dp3805
g3793
(dp3806
sg3797
(dp3807
g3793
g3802
sssbsg577
(lp3808
g3793
ag3797
asg854
(lp3809
(iconstruction
TP_REL
p3810
(dp3811
g860
g3797
sg1391
g735
sg79
I425
sg861
g3793
sg66
VIS_425
p3812
sbasg79
I420
sg66
g1298
sbsg1407
(iconstruction
TP_SYNFORM
p3813
(dp3814
g79
I421
sg1410
(lp3815
(iconstruction
TP_PHON
p3816
(dp3817
g1420
I5
sg1417
I0
sg79
I426
sg1421
Vmouse
p3818
sg66
g3784
sbasg66
g1298
sbsg1428
I1
sba(iconstruction
CXN
p3819
(dp3820
g1368
(iconstruction
TP_SYMLINKS
p3821
(dp3822
g1371
(dp3823
VN1_431
p3824
VS1_433
p3825
ssg79
I429
sg66
g1298
sbsg1377
VN
p3826
sg1379
I1
sg66
VTURTLE
p3827
sg1381
(iconstruction
TP_SEMFRAME
p3828
(dp3829
g94
g0
(g95
g2
Ntp3830
Rp3831
(dp3832
g99
(dp3833
(iconstruction
TP_NODE
p3834
(dp3835
g1390
I00
sg1391
g798
sg66
g3824
sg1392
I00
sg1393
I00
sg79
I431
sb(dp3836
g1392
I00
sg1391
g798
ss(iconstruction
TP_NODE
p3837
(dp3838
g1390
I01
sg1391
g744
sg66
VENT_430
p3839
sg1392
I01
sg1393
I00
sg79
I430
sb(dp3840
g1392
I01
sg1391
g744
sssg284
g285
sg286
g285
sg287
(dp3841
g3834
(dp3842
sg3837
(dp3843
g3834
(dp3844
g1391
g735
ssssg480
g3841
sg94
(dp3845
sg482
g285
sg483
g3841
sg484
(dp3846
g3834
(dp3847
g3837
g3844
ssg3837
(dp3848
ssbsg577
(lp3849
g3837
ag3834
asg854
(lp3850
(iconstruction
TP_REL
p3851
(dp3852
g860
g3834
sg1391
g735
sg79
I432
sg861
g3837
sg66
VIS_432
p3853
sbasg79
I427
sg66
g1298
sbsg1407
(iconstruction
TP_SYNFORM
p3854
(dp3855
g79
I428
sg1410
(lp3856
(iconstruction
TP_PHON
p3857
(dp3858
g1420
I6
sg1417
I0
sg79
I433
sg1421
Vturtle
p3859
sg66
g3825
sbasg66
g1298
sbsg1428
I1
sba(iconstruction
CXN
p3860
(dp3861
g1368
(iconstruction
TP_SYMLINKS
p3862
(dp3863
g1371
(dp3864
VN1_438
p3865
VS1_440
p3866
ssg79
I436
sg66
g1298
sbsg1377
VN
p3867
sg1379
I1
sg66
VDRESS
p3868
sg1381
(iconstruction
TP_SEMFRAME
p3869
(dp3870
g94
g0
(g95
g2
Ntp3871
Rp3872
(dp3873
g99
(dp3874
(iconstruction
TP_NODE
p3875
(dp3876
g1390
I00
sg1391
g789
sg66
g3865
sg1392
I00
sg1393
I00
sg79
I438
sb(dp3877
g1392
I00
sg1391
g789
ss(iconstruction
TP_NODE
p3878
(dp3879
g1390
I01
sg1391
g744
sg66
VENT_437
p3880
sg1392
I01
sg1393
I00
sg79
I437
sb(dp3881
g1392
I01
sg1391
g744
sssg284
g285
sg286
g285
sg287
(dp3882
g3875
(dp3883
sg3878
(dp3884
g3875
(dp3885
g1391
g735
ssssg480
g3882
sg94
(dp3886
sg482
g285
sg483
g3882
sg484
(dp3887
g3875
(dp3888
g3878
g3885
ssg3878
(dp3889
ssbsg577
(lp3890
g3878
ag3875
asg854
(lp3891
(iconstruction
TP_REL
p3892
(dp3893
g860
g3875
sg1391
g735
sg79
I439
sg861
g3878
sg66
VIS_439
p3894
sbasg79
I434
sg66
g1298
sbsg1407
(iconstruction
TP_SYNFORM
p3895
(dp3896
g79
I435
sg1410
(lp3897
(iconstruction
TP_PHON
p3898
(dp3899
g1420
I5
sg1417
I0
sg79
I440
sg1421
Vdress
p3900
sg66
g3866
sbasg66
g1298
sbsg1428
I1
sba(iconstruction
CXN
p3901
(dp3902
g1368
(iconstruction
TP_SYMLINKS
p3903
(dp3904
g1371
(dp3905
VN1_445
p3906
VS1_447
p3907
ssg79
I443
sg66
g1298
sbsg1377
VN
p3908
sg1379
I1
sg66
VTSHIRT
p3909
sg1381
(iconstruction
TP_SEMFRAME
p3910
(dp3911
g94
g0
(g95
g2
Ntp3912
Rp3913
(dp3914
g99
(dp3915
(iconstruction
TP_NODE
p3916
(dp3917
g1390
I01
sg1391
g744
sg66
VENT_444
p3918
sg1392
I01
sg1393
I00
sg79
I444
sb(dp3919
g1392
I01
sg1391
g744
ss(iconstruction
TP_NODE
p3920
(dp3921
g1390
I00
sg1391
g786
sg66
g3906
sg1392
I00
sg1393
I00
sg79
I445
sb(dp3922
g1392
I00
sg1391
g786
sssg284
g285
sg286
g285
sg287
(dp3923
g3916
(dp3924
g3920
(dp3925
g1391
g735
sssg3920
(dp3926
ssg480
g3923
sg94
(dp3927
sg482
g285
sg483
g3923
sg484
(dp3928
g3916
(dp3929
sg3920
(dp3930
g3916
g3925
sssbsg577
(lp3931
g3916
ag3920
asg854
(lp3932
(iconstruction
TP_REL
p3933
(dp3934
g860
g3920
sg1391
g735
sg79
I446
sg861
g3916
sg66
VIS_446
p3935
sbasg79
I441
sg66
g1298
sbsg1407
(iconstruction
TP_SYNFORM
p3936
(dp3937
g79
I442
sg1410
(lp3938
(iconstruction
TP_PHON
p3939
(dp3940
g1420
I6
sg1417
I0
sg79
I447
sg1421
Vt-shirt
p3941
sg66
g3907
sbasg66
g1298
sbsg1428
I1
sba(iconstruction
CXN
p3942
(dp3943
g1368
(iconstruction
TP_SYMLINKS
p3944
(dp3945
g1371
(dp3946
VN1_452
p3947
VS2_455
p3948
ssg79
I450
sg66
g1298
sbsg1377
VN
p3949
sg1379
I1
sg66
VBOXINGRING
p3950
sg1381
(iconstruction
TP_SEMFRAME
p3951
(dp3952
g94
g0
(g95
g2
Ntp3953
Rp3954
(dp3955
g99
(dp3956
(iconstruction
TP_NODE
p3957
(dp3958
g1390
I00
sg1391
g843
sg66
g3947
sg1392
I00
sg1393
I00
sg79
I452
sb(dp3959
g1392
I00
sg1391
g843
ss(iconstruction
TP_NODE
p3960
(dp3961
g1390
I01
sg1391
g744
sg66
VENT_451
p3962
sg1392
I01
sg1393
I00
sg79
I451
sb(dp3963
g1392
I01
sg1391
g744
sssg284
g285
sg286
g285
sg287
(dp3964
g3957
(dp3965
sg3960
(dp3966
g3957
(dp3967
g1391
g735
ssssg480
g3964
sg94
(dp3968
sg482
g285
sg483
g3964
sg484
(dp3969
g3957
(dp3970
g3960
g3967
ssg3960
(dp3971
ssbsg577
(lp3972
g3960
ag3957
asg854
(lp3973
(iconstruction
TP_REL
p3974
(dp3975
g860
g3957
sg1391
g735
sg79
I453
sg861
g3960
sg66
VIS_453
p3976
sbasg79
I448
sg66
g1298
sbsg1407
(iconstruction
TP_SYNFORM
p3977
(dp3978
g79
I449
sg1410
(lp3979
(iconstruction
TP_PHON
p3980
(dp3981
g1420
I6
sg1417
I0
sg79
I454
sg1421
Vboxing
p3982
sg66
VS1_454
p3983
sba(iconstruction
TP_PHON
p3984
(dp3985
g1420
I4
sg1417
I1
sg79
I455
sg1421
Vring
p3986
sg66
g3948
sbasg66
g1298
sbsg1428
I1
sba(iconstruction
CXN
p3987
(dp3988
g1368
(iconstruction
TP_SYMLINKS
p3989
(dp3990
g1371
(dp3991
VN1_460
p3992
VS1_462
p3993
ssg79
I458
sg66
g1298
sbsg1377
VN
p3994
sg1379
I1
sg66
VPARK
p3995
sg1381
(iconstruction
TP_SEMFRAME
p3996
(dp3997
g94
g0
(g95
g2
Ntp3998
Rp3999
(dp4000
g99
(dp4001
(iconstruction
TP_NODE
p4002
(dp4003
g1390
I00
sg1391
g846
sg66
g3992
sg1392
I00
sg1393
I00
sg79
I460
sb(dp4004
g1392
I00
sg1391
g846
ss(iconstruction
TP_NODE
p4005
(dp4006
g1390
I01
sg1391
g744
sg66
VENT_459
p4007
sg1392
I01
sg1393
I00
sg79
I459
sb(dp4008
g1392
I01
sg1391
g744
sssg284
g285
sg286
g285
sg287
(dp4009
g4002
(dp4010
sg4005
(dp4011
g4002
(dp4012
g1391
g735
ssssg480
g4009
sg94
(dp4013
sg482
g285
sg483
g4009
sg484
(dp4014
g4002
(dp4015
g4005
g4012
ssg4005
(dp4016
ssbsg577
(lp4017
g4005
ag4002
asg854
(lp4018
(iconstruction
TP_REL
p4019
(dp4020
g860
g4002
sg1391
g735
sg79
I461
sg861
g4005
sg66
VIS_461
p4021
sbasg79
I456
sg66
g1298
sbsg1407
(iconstruction
TP_SYNFORM
p4022
(dp4023
g79
I457
sg1410
(lp4024
(iconstruction
TP_PHON
p4025
(dp4026
g1420
I4
sg1417
I0
sg79
I462
sg1421
Vpark
p4027
sg66
g3993
sbasg66
g1298
sbsg1428
I1
sba(iconstruction
CXN
p4028
(dp4029
g1368
(iconstruction
TP_SYMLINKS
p4030
(dp4031
g1371
(dp4032
VN1_467
p4033
VS1_469
p4034
ssg79
I465
sg66
g1298
sbsg1377
VN
p4035
sg1379
I1
sg66
VSHIRT
p4036
sg1381
(iconstruction
TP_SEMFRAME
p4037
(dp4038
g94
g0
(g95
g2
Ntp4039
Rp4040
(dp4041
g99
(dp4042
(iconstruction
TP_NODE
p4043
(dp4044
g1390
I01
sg1391
g744
sg66
VENT_466
p4045
sg1392
I01
sg1393
I00
sg79
I466
sb(dp4046
g1392
I01
sg1391
g744
ss(iconstruction
TP_NODE
p4047
(dp4048
g1390
I00
sg1391
g792
sg66
g4033
sg1392
I00
sg1393
I00
sg79
I467
sb(dp4049
g1392
I00
sg1391
g792
sssg284
g285
sg286
g285
sg287
(dp4050
g4043
(dp4051
g4047
(dp4052
g1391
g735
sssg4047
(dp4053
ssg480
g4050
sg94
(dp4054
sg482
g285
sg483
g4050
sg484
(dp4055
g4043
(dp4056
sg4047
(dp4057
g4043
g4052
sssbsg577
(lp4058
g4043
ag4047
asg854
(lp4059
(iconstruction
TP_REL
p4060
(dp4061
g860
g4047
sg1391
g735
sg79
I468
sg861
g4043
sg66
VIS_468
p4062
sbasg79
I463
sg66
g1298
sbsg1407
(iconstruction
TP_SYNFORM
p4063
(dp4064
g79
I464
sg1410
(lp4065
(iconstruction
TP_PHON
p4066
(dp4067
g1420
I5
sg1417
I0
sg79
I469
sg1421
Vshirt
p4068
sg66
g4034
sbasg66
g1298
sbsg1428
I1
sba(iconstruction
CXN
p4069
(dp4070
g1368
(iconstruction
TP_SYMLINKS
p4071
(dp4072
g1371
(dp4073
VN1_474
p4074
VS1_476
p4075
ssg79
I472
sg66
g1298
sbsg1377
VN
p4076
sg1379
I1
sg66
VSUIT
p4077
sg1381
(iconstruction
TP_SEMFRAME
p4078
(dp4079
g94
g0
(g95
g2
Ntp4080
Rp4081
(dp4082
g99
(dp4083
(iconstruction
TP_NODE
p4084
(dp4085
g1390
I00
sg1391
g795
sg66
g4074
sg1392
I00
sg1393
I00
sg79
I474
sb(dp4086
g1392
I00
sg1391
g795
ss(iconstruction
TP_NODE
p4087
(dp4088
g1390
I01
sg1391
g744
sg66
VENT_473
p4089
sg1392
I01
sg1393
I00
sg79
I473
sb(dp4090
g1392
I01
sg1391
g744
sssg284
g285
sg286
g285
sg287
(dp4091
g4084
(dp4092
sg4087
(dp4093
g4084
(dp4094
g1391
g735
ssssg480
g4091
sg94
(dp4095
sg482
g285
sg483
g4091
sg484
(dp4096
g4084
(dp4097
g4087
g4094
ssg4087
(dp4098
ssbsg577
(lp4099
g4087
ag4084
asg854
(lp4100
(iconstruction
TP_REL
p4101
(dp4102
g860
g4084
sg1391
g735
sg79
I475
sg861
g4087
sg66
VIS_475
p4103
sbasg79
I470
sg66
g1298
sbsg1407
(iconstruction
TP_SYNFORM
p4104
(dp4105
g79
I471
sg1410
(lp4106
(iconstruction
TP_PHON
p4107
(dp4108
g1420
I4
sg1417
I0
sg79
I476
sg1421
Vsuit
p4109
sg66
g4075
sbasg66
g1298
sbsg1428
I1
sba(iconstruction
CXN
p4110
(dp4111
g1368
(iconstruction
TP_SYMLINKS
p4112
(dp4113
g1371
(dp4114
VN1_481
p4115
VS1_483
p4116
ssg79
I479
sg66
g1298
sbsg1377
VN
p4117
sg1379
I1
sg66
VCELLO
p4118
sg1381
(iconstruction
TP_SEMFRAME
p4119
(dp4120
g94
g0
(g95
g2
Ntp4121
Rp4122
(dp4123
g99
(dp4124
(iconstruction
TP_NODE
p4125
(dp4126
g1390
I00
sg1391
g777
sg66
g4115
sg1392
I00
sg1393
I00
sg79
I481
sb(dp4127
g1392
I00
sg1391
g777
ss(iconstruction
TP_NODE
p4128
(dp4129
g1390
I01
sg1391
g744
sg66
VENT_480
p4130
sg1392
I01
sg1393
I00
sg79
I480
sb(dp4131
g1392
I01
sg1391
g744
sssg284
g285
sg286
g285
sg287
(dp4132
g4125
(dp4133
sg4128
(dp4134
g4125
(dp4135
g1391
g735
ssssg480
g4132
sg94
(dp4136
sg482
g285
sg483
g4132
sg484
(dp4137
g4125
(dp4138
g4128
g4135
ssg4128
(dp4139
ssbsg577
(lp4140
g4128
ag4125
asg854
(lp4141
(iconstruction
TP_REL
p4142
(dp4143
g860
g4125
sg1391
g735
sg79
I482
sg861
g4128
sg66
VIS_482
p4144
sbasg79
I477
sg66
g1298
sbsg1407
(iconstruction
TP_SYNFORM
p4145
(dp4146
g79
I478
sg1410
(lp4147
(iconstruction
TP_PHON
p4148
(dp4149
g1420
I5
sg1417
I0
sg79
I483
sg1421
VCELLO
p4150
sg66
g4116
sbasg66
g1298
sbsg1428
I1
sba(iconstruction
CXN
p4151
(dp4152
g1368
(iconstruction
TP_SYMLINKS
p4153
(dp4154
g1371
(dp4155
VN1_488
p4156
VS1_490
p4157
ssg79
I486
sg66
g1298
sbsg1377
VN
p4158
sg1379
I1
sg66
VBAG
p4159
sg1381
(iconstruction
TP_SEMFRAME
p4160
(dp4161
g94
g0
(g95
g2
Ntp4162
Rp4163
(dp4164
g99
(dp4165
(iconstruction
TP_NODE
p4166
(dp4167
g1390
I01
sg1391
g744
sg66
VENT_487
p4168
sg1392
I01
sg1393
I00
sg79
I487
sb(dp4169
g1392
I01
sg1391
g744
ss(iconstruction
TP_NODE
p4170
(dp4171
g1390
I00
sg1391
g768
sg66
g4156
sg1392
I00
sg1393
I00
sg79
I488
sb(dp4172
g1392
I00
sg1391
g768
sssg284
g285
sg286
g285
sg287
(dp4173
g4166
(dp4174
g4170
(dp4175
g1391
g735
sssg4170
(dp4176
ssg480
g4173
sg94
(dp4177
sg482
g285
sg483
g4173
sg484
(dp4178
g4166
(dp4179
sg4170
(dp4180
g4166
g4175
sssbsg577
(lp4181
g4166
ag4170
asg854
(lp4182
(iconstruction
TP_REL
p4183
(dp4184
g860
g4170
sg1391
g735
sg79
I489
sg861
g4166
sg66
VIS_489
p4185
sbasg79
I484
sg66
g1298
sbsg1407
(iconstruction
TP_SYNFORM
p4186
(dp4187
g79
I485
sg1410
(lp4188
(iconstruction
TP_PHON
p4189
(dp4190
g1420
I3
sg1417
I0
sg79
I490
sg1421
Vbag
p4191
sg66
g4157
sbasg66
g1298
sbsg1428
I1
sba(iconstruction
CXN
p4192
(dp4193
g1368
(iconstruction
TP_SYMLINKS
p4194
(dp4195
g1371
(dp4196
VN1_495
p4197
VS2_498
p4198
ssg79
I493
sg66
g1298
sbsg1377
VN
p4199
sg1379
I1
sg66
VWATERING_CAN
p4200
sg1381
(iconstruction
TP_SEMFRAME
p4201
(dp4202
g94
g0
(g95
g2
Ntp4203
Rp4204
(dp4205
g99
(dp4206
(iconstruction
TP_NODE
p4207
(dp4208
g1390
I00
sg1391
g765
sg66
g4197
sg1392
I00
sg1393
I00
sg79
I495
sb(dp4209
g1392
I00
sg1391
g765
ss(iconstruction
TP_NODE
p4210
(dp4211
g1390
I01
sg1391
g744
sg66
VENT_494
p4212
sg1392
I01
sg1393
I00
sg79
I494
sb(dp4213
g1392
I01
sg1391
g744
sssg284
g285
sg286
g285
sg287
(dp4214
g4207
(dp4215
sg4210
(dp4216
g4207
(dp4217
g1391
g735
ssssg480
g4214
sg94
(dp4218
sg482
g285
sg483
g4214
sg484
(dp4219
g4207
(dp4220
g4210
g4217
ssg4210
(dp4221
ssbsg577
(lp4222
g4210
ag4207
asg854
(lp4223
(iconstruction
TP_REL
p4224
(dp4225
g860
g4207
sg1391
g735
sg79
I496
sg861
g4210
sg66
VIS_496
p4226
sbasg79
I491
sg66
g1298
sbsg1407
(iconstruction
TP_SYNFORM
p4227
(dp4228
g79
I492
sg1410
(lp4229
(iconstruction
TP_PHON
p4230
(dp4231
g1420
I8
sg1417
I0
sg79
I497
sg1421
Vwatering
p4232
sg66
VS1_497
p4233
sba(iconstruction
TP_PHON
p4234
(dp4235
g1420
I3
sg1417
I1
sg79
I498
sg1421
Vcan
p4236
sg66
g4198
sbasg66
g1298
sbsg1428
I1
sba(iconstruction
CXN
p4237
(dp4238
g1368
(iconstruction
TP_SYMLINKS
p4239
(dp4240
g1371
(dp4241
VN1_503
p4242
VS1_505
p4243
ssg79
I501
sg66
g1298
sbsg1377
VN
p4244
sg1379
I1
sg66
VBALLERINA
p4245
sg1381
(iconstruction
TP_SEMFRAME
p4246
(dp4247
g94
g0
(g95
g2
Ntp4248
Rp4249
(dp4250
g99
(dp4251
(iconstruction
TP_NODE
p4252
(dp4253
g1390
I00
sg1391
g822
sg66
g4242
sg1392
I00
sg1393
I00
sg79
I503
sb(dp4254
g1392
I00
sg1391
g822
ss(iconstruction
TP_NODE
p4255
(dp4256
g1390
I01
sg1391
g744
sg66
VENT_502
p4257
sg1392
I01
sg1393
I00
sg79
I502
sb(dp4258
g1392
I01
sg1391
g744
sssg284
g285
sg286
g285
sg287
(dp4259
g4252
(dp4260
sg4255
(dp4261
g4252
(dp4262
g1391
g735
ssssg480
g4259
sg94
(dp4263
sg482
g285
sg483
g4259
sg484
(dp4264
g4252
(dp4265
g4255
g4262
ssg4255
(dp4266
ssbsg577
(lp4267
g4255
ag4252
asg854
(lp4268
(iconstruction
TP_REL
p4269
(dp4270
g860
g4252
sg1391
g735
sg79
I504
sg861
g4255
sg66
VIS_504
p4271
sbasg79
I499
sg66
g1298
sbsg1407
(iconstruction
TP_SYNFORM
p4272
(dp4273
g79
I500
sg1410
(lp4274
(iconstruction
TP_PHON
p4275
(dp4276
g1420
I9
sg1417
I0
sg79
I505
sg1421
Vballerina
p4277
sg66
g4243
sbasg66
g1298
sbsg1428
I1
sba(iconstruction
CXN
p4278
(dp4279
g1368
(iconstruction
TP_SYMLINKS
p4280
(dp4281
g1371
(dp4282
VN1_510
p4283
VS1_512
p4284
ssg79
I508
sg66
g1298
sbsg1377
VN
p4285
sg1379
I1
sg66
VCELLIST
p4286
sg1381
(iconstruction
TP_SEMFRAME
p4287
(dp4288
g94
g0
(g95
g2
Ntp4289
Rp4290
(dp4291
g99
(dp4292
(iconstruction
TP_NODE
p4293
(dp4294
g1390
I01
sg1391
g744
sg66
VENT_509
p4295
sg1392
I01
sg1393
I00
sg79
I509
sb(dp4296
g1392
I01
sg1391
g744
ss(iconstruction
TP_NODE
p4297
(dp4298
g1390
I00
sg1391
g825
sg66
g4283
sg1392
I00
sg1393
I00
sg79
I510
sb(dp4299
g1392
I00
sg1391
g825
sssg284
g285
sg286
g285
sg287
(dp4300
g4293
(dp4301
g4297
(dp4302
g1391
g735
sssg4297
(dp4303
ssg480
g4300
sg94
(dp4304
sg482
g285
sg483
g4300
sg484
(dp4305
g4293
(dp4306
sg4297
(dp4307
g4293
g4302
sssbsg577
(lp4308
g4293
ag4297
asg854
(lp4309
(iconstruction
TP_REL
p4310
(dp4311
g860
g4297
sg1391
g735
sg79
I511
sg861
g4293
sg66
VIS_511
p4312
sbasg79
I506
sg66
g1298
sbsg1407
(iconstruction
TP_SYNFORM
p4313
(dp4314
g79
I507
sg1410
(lp4315
(iconstruction
TP_PHON
p4316
(dp4317
g1420
I7
sg1417
I0
sg79
I512
sg1421
Vcellist
p4318
sg66
g4284
sbasg66
g1298
sbsg1428
I1
sba(iconstruction
CXN
p4319
(dp4320
g1368
(iconstruction
TP_SYMLINKS
p4321
(dp4322
g1371
(dp4323
VN1_517
p4324
VS1_519
p4325
ssg79
I515
sg66
g1298
sbsg1377
VN
p4326
sg1379
I1
sg66
VFENCER
p4327
sg1381
(iconstruction
TP_SEMFRAME
p4328
(dp4329
g94
g0
(g95
g2
Ntp4330
Rp4331
(dp4332
g99
(dp4333
(iconstruction
TP_NODE
p4334
(dp4335
g1390
I00
sg1391
g831
sg66
g4324
sg1392
I00
sg1393
I00
sg79
I517
sb(dp4336
g1392
I00
sg1391
g831
ss(iconstruction
TP_NODE
p4337
(dp4338
g1390
I01
sg1391
g744
sg66
VENT_516
p4339
sg1392
I01
sg1393
I00
sg79
I516
sb(dp4340
g1392
I01
sg1391
g744
sssg284
g285
sg286
g285
sg287
(dp4341
g4334
(dp4342
sg4337
(dp4343
g4334
(dp4344
g1391
g735
ssssg480
g4341
sg94
(dp4345
sg482
g285
sg483
g4341
sg484
(dp4346
g4334
(dp4347
g4337
g4344
ssg4337
(dp4348
ssbsg577
(lp4349
g4337
ag4334
asg854
(lp4350
(iconstruction
TP_REL
p4351
(dp4352
g860
g4334
sg1391
g735
sg79
I518
sg861
g4337
sg66
VIS_518
p4353
sbasg79
I513
sg66
g1298
sbsg1407
(iconstruction
TP_SYNFORM
p4354
(dp4355
g79
I514
sg1410
(lp4356
(iconstruction
TP_PHON
p4357
(dp4358
g1420
I6
sg1417
I0
sg79
I519
sg1421
Vfencer
p4359
sg66
g4325
sbasg66
g1298
sbsg1428
I1
sba(iconstruction
CXN
p4360
(dp4361
g1368
(iconstruction
TP_SYMLINKS
p4362
(dp4363
g1371
(dp4364
VN1_524
p4365
VS1_526
p4366
ssg79
I522
sg66
g1298
sbsg1377
VN
p4367
sg1379
I1
sg66
VROBBER
p4368
sg1381
(iconstruction
TP_SEMFRAME
p4369
(dp4370
g94
g0
(g95
g2
Ntp4371
Rp4372
(dp4373
g99
(dp4374
(iconstruction
TP_NODE
p4375
(dp4376
g1390
I00
sg1391
g834
sg66
g4365
sg1392
I00
sg1393
I00
sg79
I524
sb(dp4377
g1392
I00
sg1391
g834
ss(iconstruction
TP_NODE
p4378
(dp4379
g1390
I01
sg1391
g744
sg66
VENT_523
p4380
sg1392
I01
sg1393
I00
sg79
I523
sb(dp4381
g1392
I01
sg1391
g744
sssg284
g285
sg286
g285
sg287
(dp4382
g4375
(dp4383
sg4378
(dp4384
g4375
(dp4385
g1391
g735
ssssg480
g4382
sg94
(dp4386
sg482
g285
sg483
g4382
sg484
(dp4387
g4375
(dp4388
g4378
g4385
ssg4378
(dp4389
ssbsg577
(lp4390
g4378
ag4375
asg854
(lp4391
(iconstruction
TP_REL
p4392
(dp4393
g860
g4375
sg1391
g735
sg79
I525
sg861
g4378
sg66
VIS_525
p4394
sbasg79
I520
sg66
g1298
sbsg1407
(iconstruction
TP_SYNFORM
p4395
(dp4396
g79
I521
sg1410
(lp4397
(iconstruction
TP_PHON
p4398
(dp4399
g1420
I5
sg1417
I0
sg79
I526
sg1421
Vthief
p4400
sg66
g4366
sbasg66
g1298
sbsg1428
I1
sba(iconstruction
CXN
p4401
(dp4402
g1368
(iconstruction
TP_SYMLINKS
p4403
(dp4404
g1371
(dp4405
VN1_531
p4406
VS1_533
p4407
ssg79
I529
sg66
g1298
sbsg1377
VN
p4408
sg1379
I1
sg66
VPOLICEMAN
p4409
sg1381
(iconstruction
TP_SEMFRAME
p4410
(dp4411
g94
g0
(g95
g2
Ntp4412
Rp4413
(dp4414
g99
(dp4415
(iconstruction
TP_NODE
p4416
(dp4417
g1390
I01
sg1391
g744
sg66
VENT_530
p4418
sg1392
I01
sg1393
I00
sg79
I530
sb(dp4419
g1392
I01
sg1391
g744
ss(iconstruction
TP_NODE
p4420
(dp4421
g1390
I00
sg1391
g816
sg66
g4406
sg1392
I00
sg1393
I00
sg79
I531
sb(dp4422
g1392
I00
sg1391
g816
sssg284
g285
sg286
g285
sg287
(dp4423
g4416
(dp4424
g4420
(dp4425
g1391
g735
sssg4420
(dp4426
ssg480
g4423
sg94
(dp4427
sg482
g285
sg483
g4423
sg484
(dp4428
g4416
(dp4429
sg4420
(dp4430
g4416
g4425
sssbsg577
(lp4431
g4416
ag4420
asg854
(lp4432
(iconstruction
TP_REL
p4433
(dp4434
g860
g4420
sg1391
g735
sg79
I532
sg861
g4416
sg66
VIS_532
p4435
sbasg79
I527
sg66
g1298
sbsg1407
(iconstruction
TP_SYNFORM
p4436
(dp4437
g79
I528
sg1410
(lp4438
(iconstruction
TP_PHON
p4439
(dp4440
g1420
I9
sg1417
I0
sg79
I533
sg1421
Vpoliceman
p4441
sg66
g4407
sbasg66
g1298
sbsg1428
I1
sba(iconstruction
CXN
p4442
(dp4443
g1368
(iconstruction
TP_SYMLINKS
p4444
(dp4445
g1371
(dp4446
VN1_538
p4447
VS1_540
p4448
ssg79
I536
sg66
g1298
sbsg1377
VN
p4449
sg1379
I1
sg66
VHUNTER
p4450
sg1381
(iconstruction
TP_SEMFRAME
p4451
(dp4452
g94
g0
(g95
g2
Ntp4453
Rp4454
(dp4455
g99
(dp4456
(iconstruction
TP_NODE
p4457
(dp4458
g1390
I00
sg1391
g819
sg66
g4447
sg1392
I00
sg1393
I00
sg79
I538
sb(dp4459
g1392
I00
sg1391
g819
ss(iconstruction
TP_NODE
p4460
(dp4461
g1390
I01
sg1391
g744
sg66
VENT_537
p4462
sg1392
I01
sg1393
I00
sg79
I537
sb(dp4463
g1392
I01
sg1391
g744
sssg284
g285
sg286
g285
sg287
(dp4464
g4457
(dp4465
sg4460
(dp4466
g4457
(dp4467
g1391
g735
ssssg480
g4464
sg94
(dp4468
sg482
g285
sg483
g4464
sg484
(dp4469
g4457
(dp4470
g4460
g4467
ssg4460
(dp4471
ssbsg577
(lp4472
g4460
ag4457
asg854
(lp4473
(iconstruction
TP_REL
p4474
(dp4475
g860
g4457
sg1391
g735
sg79
I539
sg861
g4460
sg66
VIS_539
p4476
sbasg79
I534
sg66
g1298
sbsg1407
(iconstruction
TP_SYNFORM
p4477
(dp4478
g79
I535
sg1410
(lp4479
(iconstruction
TP_PHON
p4480
(dp4481
g1420
I6
sg1417
I0
sg79
I540
sg1421
Vhunter
p4482
sg66
g4448
sbasg66
g1298
sbsg1428
I1
sba(iconstruction
CXN
p4483
(dp4484
g1368
(iconstruction
TP_SYMLINKS
p4485
(dp4486
g1371
(dp4487
VN1_545
p4488
VS1_547
p4489
ssg79
I543
sg66
g1298
sbsg1377
VN
p4490
sg1379
I1
sg66
VDOG
p4491
sg1381
(iconstruction
TP_SEMFRAME
p4492
(dp4493
g94
g0
(g95
g2
Ntp4494
Rp4495
(dp4496
g99
(dp4497
(iconstruction
TP_NODE
p4498
(dp4499
g1390
I01
sg1391
g744
sg66
VENT_544
p4500
sg1392
I01
sg1393
I00
sg79
I544
sb(dp4501
g1392
I01
sg1391
g744
ss(iconstruction
TP_NODE
p4502
(dp4503
g1390
I00
sg1391
g804
sg66
g4488
sg1392
I00
sg1393
I00
sg79
I545
sb(dp4504
g1392
I00
sg1391
g804
sssg284
g285
sg286
g285
sg287
(dp4505
g4498
(dp4506
g4502
(dp4507
g1391
g735
sssg4502
(dp4508
ssg480
g4505
sg94
(dp4509
sg482
g285
sg483
g4505
sg484
(dp4510
g4498
(dp4511
sg4502
(dp4512
g4498
g4507
sssbsg577
(lp4513
g4498
ag4502
asg854
(lp4514
(iconstruction
TP_REL
p4515
(dp4516
g860
g4502
sg1391
g735
sg79
I546
sg861
g4498
sg66
VIS_546
p4517
sbasg79
I541
sg66
g1298
sbsg1407
(iconstruction
TP_SYNFORM
p4518
(dp4519
g79
I542
sg1410
(lp4520
(iconstruction
TP_PHON
p4521
(dp4522
g1420
I3
sg1417
I0
sg79
I547
sg1421
Vdog
p4523
sg66
g4489
sbasg66
g1298
sbsg1428
I1
sba(iconstruction
CXN
p4524
(dp4525
g1368
(iconstruction
TP_SYMLINKS
p4526
(dp4527
g1371
(dp4528
VN1_552
p4529
VS1_554
p4530
ssg79
I550
sg66
g1298
sbsg1377
VN
p4531
sg1379
I1
sg66
VHOOK
p4532
sg1381
(iconstruction
TP_SEMFRAME
p4533
(dp4534
g94
g0
(g95
g2
Ntp4535
Rp4536
(dp4537
g99
(dp4538
(iconstruction
TP_NODE
p4539
(dp4540
g1390
I00
sg1391
g774
sg66
g4529
sg1392
I00
sg1393
I00
sg79
I552
sb(dp4541
g1392
I00
sg1391
g774
ss(iconstruction
TP_NODE
p4542
(dp4543
g1390
I01
sg1391
g744
sg66
VENT_551
p4544
sg1392
I01
sg1393
I00
sg79
I551
sb(dp4545
g1392
I01
sg1391
g744
sssg284
g285
sg286
g285
sg287
(dp4546
g4539
(dp4547
sg4542
(dp4548
g4539
(dp4549
g1391
g735
ssssg480
g4546
sg94
(dp4550
sg482
g285
sg483
g4546
sg484
(dp4551
g4539
(dp4552
g4542
g4549
ssg4542
(dp4553
ssbsg577
(lp4554
g4542
ag4539
asg854
(lp4555
(iconstruction
TP_REL
p4556
(dp4557
g860
g4539
sg1391
g735
sg79
I553
sg861
g4542
sg66
VIS_553
p4558
sbasg79
I548
sg66
g1298
sbsg1407
(iconstruction
TP_SYNFORM
p4559
(dp4560
g79
I549
sg1410
(lp4561
(iconstruction
TP_PHON
p4562
(dp4563
g1420
I4
sg1417
I0
sg79
I554
sg1421
Vhook
p4564
sg66
g4530
sbasg66
g1298
sbsg1428
I1
sba(iconstruction
CXN
p4565
(dp4566
g1368
(iconstruction
TP_SYMLINKS
p4567
(dp4568
g1371
(dp4569
VN1_559
p4570
VS1_561
p4571
ssg79
I557
sg66
g1298
sbsg1377
VN
p4572
sg1379
I1
sg66
VBOOKSHELF
p4573
sg1381
(iconstruction
TP_SEMFRAME
p4574
(dp4575
g94
g0
(g95
g2
Ntp4576
Rp4577
(dp4578
g99
(dp4579
(iconstruction
TP_NODE
p4580
(dp4581
g1390
I00
sg1391
g780
sg66
g4570
sg1392
I00
sg1393
I00
sg79
I559
sb(dp4582
g1392
I00
sg1391
g780
ss(iconstruction
TP_NODE
p4583
(dp4584
g1390
I01
sg1391
g744
sg66
VENT_558
p4585
sg1392
I01
sg1393
I00
sg79
I558
sb(dp4586
g1392
I01
sg1391
g744
sssg284
g285
sg286
g285
sg287
(dp4587
g4580
(dp4588
sg4583
(dp4589
g4580
(dp4590
g1391
g735
ssssg480
g4587
sg94
(dp4591
sg482
g285
sg483
g4587
sg484
(dp4592
g4580
(dp4593
g4583
g4590
ssg4583
(dp4594
ssbsg577
(lp4595
g4583
ag4580
asg854
(lp4596
(iconstruction
TP_REL
p4597
(dp4598
g860
g4580
sg1391
g735
sg79
I560
sg861
g4583
sg66
VIS_560
p4599
sbasg79
I555
sg66
g1298
sbsg1407
(iconstruction
TP_SYNFORM
p4600
(dp4601
g79
I556
sg1410
(lp4602
(iconstruction
TP_PHON
p4603
(dp4604
g1420
I9
sg1417
I0
sg79
I561
sg1421
Vbookshelf
p4605
sg66
g4571
sbasg66
g1298
sbsg1428
I1
sba(iconstruction
CXN
p4606
(dp4607
g1368
(iconstruction
TP_SYMLINKS
p4608
(dp4609
g1371
(dp4610
VN1_566
p4611
VS1_568
p4612
ssg79
I564
sg66
g1298
sbsg1377
VN
p4613
sg1379
I1
sg66
VWAGON
p4614
sg1381
(iconstruction
TP_SEMFRAME
p4615
(dp4616
g94
g0
(g95
g2
Ntp4617
Rp4618
(dp4619
g99
(dp4620
(iconstruction
TP_NODE
p4621
(dp4622
g1390
I01
sg1391
g744
sg66
VENT_565
p4623
sg1392
I01
sg1393
I00
sg79
I565
sb(dp4624
g1392
I01
sg1391
g744
ss(iconstruction
TP_NODE
p4625
(dp4626
g1390
I00
sg1391
g762
sg66
g4611
sg1392
I00
sg1393
I00
sg79
I566
sb(dp4627
g1392
I00
sg1391
g762
sssg284
g285
sg286
g285
sg287
(dp4628
g4621
(dp4629
g4625
(dp4630
g1391
g735
sssg4625
(dp4631
ssg480
g4628
sg94
(dp4632
sg482
g285
sg483
g4628
sg484
(dp4633
g4621
(dp4634
sg4625
(dp4635
g4621
g4630
sssbsg577
(lp4636
g4621
ag4625
asg854
(lp4637
(iconstruction
TP_REL
p4638
(dp4639
g860
g4625
sg1391
g735
sg79
I567
sg861
g4621
sg66
VIS_567
p4640
sbasg79
I562
sg66
g1298
sbsg1407
(iconstruction
TP_SYNFORM
p4641
(dp4642
g79
I563
sg1410
(lp4643
(iconstruction
TP_PHON
p4644
(dp4645
g1420
I5
sg1417
I0
sg79
I568
sg1421
Vwagon
p4646
sg66
g4612
sbasg66
g1298
sbsg1428
I1
sba(iconstruction
CXN
p4647
(dp4648
g1368
(iconstruction
TP_SYMLINKS
p4649
(dp4650
g1371
(dp4651
VN1_573
p4652
VS1_575
p4653
ssg79
I571
sg66
g1298
sbsg1377
VN
p4654
sg1379
I1
sg66
VTREE
p4655
sg1381
(iconstruction
TP_SEMFRAME
p4656
(dp4657
g94
g0
(g95
g2
Ntp4658
Rp4659
(dp4660
g99
(dp4661
(iconstruction
TP_NODE
p4662
(dp4663
g1390
I00
sg1391
g771
sg66
g4652
sg1392
I00
sg1393
I00
sg79
I573
sb(dp4664
g1392
I00
sg1391
g771
ss(iconstruction
TP_NODE
p4665
(dp4666
g1390
I01
sg1391
g744
sg66
VENT_572
p4667
sg1392
I01
sg1393
I00
sg79
I572
sb(dp4668
g1392
I01
sg1391
g744
sssg284
g285
sg286
g285
sg287
(dp4669
g4662
(dp4670
sg4665
(dp4671
g4662
(dp4672
g1391
g735
ssssg480
g4669
sg94
(dp4673
sg482
g285
sg483
g4669
sg484
(dp4674
g4662
(dp4675
g4665
g4672
ssg4665
(dp4676
ssbsg577
(lp4677
g4665
ag4662
asg854
(lp4678
(iconstruction
TP_REL
p4679
(dp4680
g860
g4662
sg1391
g735
sg79
I574
sg861
g4665
sg66
VIS_574
p4681
sbasg79
I569
sg66
g1298
sbsg1407
(iconstruction
TP_SYNFORM
p4682
(dp4683
g79
I570
sg1410
(lp4684
(iconstruction
TP_PHON
p4685
(dp4686
g1420
I4
sg1417
I0
sg79
I575
sg1421
Vtree
p4687
sg66
g4653
sbasg66
g1298
sbsg1428
I1
sbasbsg66
g1311
sg68
(lp4688
g1354
ag0
(g70
g2
Ntp4689
Rp4690
(dp4691
g66
S'to_cxn_retrieval_C'
p4692
sg75
Nsg76
Nsg77
g78
sg79
I21
sg80
g1358
sbasg85
(dp4693
g1207
Nsg4692
Nssg87
(lp4694
sg1157
F1.0
sg1158
(lp4695
sg1160
(dp4696
g1162
F0.3
ssg1163
F0.0
sg1164
F0.0
sg1165
g1168
sg79
I4
sS'schemas'
p4697
(lp4698
g0
(clanguage_schemas
CXN_SCHEMA
p4699
g2
Ntp4700
Rp4701
(dp4702
g66
g1380
sS'content'
p4703
g1366
sg1165
Nsg79
I99
sS'LTM'
p4704
g1358
sg1162
F0.3
sbag0
(g4699
g2
Ntp4705
Rp4706
(dp4707
g66
g1439
sg4703
g1429
sg1165
Nsg79
I100
sg4704
g1358
sg1162
F0.3
sbag0
(g4699
g2
Ntp4708
Rp4709
(dp4710
g66
g1490
sg4703
g1480
sg1165
Nsg79
I101
sg4704
g1358
sg1162
F0.3
sbag0
(g4699
g2
Ntp4711
Rp4712
(dp4713
g66
g1543
sg4703
g1531
sg1165
Nsg79
I102
sg4704
g1358
sg1162
F0.3
sbag0
(g4699
g2
Ntp4714
Rp4715
(dp4716
g66
g1622
sg4703
g1610
sg1165
Nsg79
I103
sg4704
g1358
sg1162
F0.3
sbag0
(g4699
g2
Ntp4717
Rp4718
(dp4719
g66
g1699
sg4703
g1685
sg1165
Nsg79
I104
sg4704
g1358
sg1162
F0.3
sbag0
(g4699
g2
Ntp4720
Rp4721
(dp4722
g66
g1790
sg4703
g1776
sg1165
Nsg79
I105
sg4704
g1358
sg1162
F0.3
sbag0
(g4699
g2
Ntp4723
Rp4724
(dp4725
g66
g1881
sg4703
g1871
sg1165
Nsg79
I106
sg4704
g1358
sg1162
F0.3
sbag0
(g4699
g2
Ntp4726
Rp4727
(dp4728
g66
g1943
sg4703
g1933
sg1165
Nsg79
I107
sg4704
g1358
sg1162
F0.3
sbag0
(g4699
g2
Ntp4729
Rp4730
(dp4731
g66
g2002
sg4703
g1992
sg1165
Nsg79
I108
sg4704
g1358
sg1162
F0.3
sbag0
(g4699
g2
Ntp4732
Rp4733
(dp4734
g66
g2054
sg4703
g2044
sg1165
Nsg79
I109
sg4704
g1358
sg1162
F0.3
sbag0
(g4699
g2
Ntp4735
Rp4736
(dp4737
g66
g2101
sg4703
g2091
sg1165
Nsg79
I110
sg4704
g1358
sg1162
F0.3
sbag0
(g4699
g2
Ntp4738
Rp4739
(dp4740
g66
g2150
sg4703
g2138
sg1165
Nsg79
I111
sg4704
g1358
sg1162
F0.3
sbag0
(g4699
g2
Ntp4741
Rp4742
(dp4743
g66
g2230
sg4703
g2220
sg1165
Nsg79
I112
sg4704
g1358
sg1162
F0.3
sbag0
(g4699
g2
Ntp4744
Rp4745
(dp4746
g66
g2298
sg4703
g2286
sg1165
Nsg79
I113
sg4704
g1358
sg1162
F0.3
sbag0
(g4699
g2
Ntp4747
Rp4748
(dp4749
g66
g2392
sg4703
g2380
sg1165
Nsg79
I114
sg4704
g1358
sg1162
F0.3
sbag0
(g4699
g2
Ntp4750
Rp4751
(dp4752
g66
g2474
sg4703
g2462
sg1165
Nsg79
I115
sg4704
g1358
sg1162
F0.3
sbag0
(g4699
g2
Ntp4753
Rp4754
(dp4755
g66
g2566
sg4703
g2556
sg1165
Nsg79
I116
sg4704
g1358
sg1162
F0.3
sbag0
(g4699
g2
Ntp4756
Rp4757
(dp4758
g66
g2631
sg4703
g2621
sg1165
Nsg79
I117
sg4704
g1358
sg1162
F0.3
sbag0
(g4699
g2
Ntp4759
Rp4760
(dp4761
g66
g2710
sg4703
g2702
sg1165
Nsg79
I118
sg4704
g1358
sg1162
F0.3
sbag0
(g4699
g2
Ntp4762
Rp4763
(dp4764
g66
g2751
sg4703
g2743
sg1165
Nsg79
I119
sg4704
g1358
sg1162
F0.3
sbag0
(g4699
g2
Ntp4765
Rp4766
(dp4767
g66
g2792
sg4703
g2784
sg1165
Nsg79
I120
sg4704
g1358
sg1162
F0.3
sbag0
(g4699
g2
Ntp4768
Rp4769
(dp4770
g66
g2833
sg4703
g2825
sg1165
Nsg79
I121
sg4704
g1358
sg1162
F0.3
sbag0
(g4699
g2
Ntp4771
Rp4772
(dp4773
g66
g2874
sg4703
g2866
sg1165
Nsg79
I122
sg4704
g1358
sg1162
F0.3
sbag0
(g4699
g2
Ntp4774
Rp4775
(dp4776
g66
g2915
sg4703
g2907
sg1165
Nsg79
I123
sg4704
g1358
sg1162
F0.3
sbag0
(g4699
g2
Ntp4777
Rp4778
(dp4779
g66
g2956
sg4703
g2948
sg1165
Nsg79
I124
sg4704
g1358
sg1162
F0.3
sbag0
(g4699
g2
Ntp4780
Rp4781
(dp4782
g66
g3001
sg4703
g2993
sg1165
Nsg79
I125
sg4704
g1358
sg1162
F0.3
sbag0
(g4699
g2
Ntp4783
Rp4784
(dp4785
g66
g3046
sg4703
g3038
sg1165
Nsg79
I126
sg4704
g1358
sg1162
F0.3
sbag0
(g4699
g2
Ntp4786
Rp4787
(dp4788
g66
g3087
sg4703
g3079
sg1165
Nsg79
I127
sg4704
g1358
sg1162
F0.3
sbag0
(g4699
g2
Ntp4789
Rp4790
(dp4791
g66
g3128
sg4703
g3120
sg1165
Nsg79
I128
sg4704
g1358
sg1162
F0.3
sbag0
(g4699
g2
Ntp4792
Rp4793
(dp4794
g66
g3169
sg4703
g3161
sg1165
Nsg79
I129
sg4704
g1358
sg1162
F0.3
sbag0
(g4699
g2
Ntp4795
Rp4796
(dp4797
g66
g3210
sg4703
g3202
sg1165
Nsg79
I130
sg4704
g1358
sg1162
F0.3
sbag0
(g4699
g2
Ntp4798
Rp4799
(dp4800
g66
g3251
sg4703
g3243
sg1165
Nsg79
I131
sg4704
g1358
sg1162
F0.3
sbag0
(g4699
g2
Ntp4801
Rp4802
(dp4803
g66
g3292
sg4703
g3284
sg1165
Nsg79
I132
sg4704
g1358
sg1162
F0.3
sbag0
(g4699
g2
Ntp4804
Rp4805
(dp4806
g66
g3323
sg4703
g3315
sg1165
Nsg79
I133
sg4704
g1358
sg1162
F0.3
sbag0
(g4699
g2
Ntp4807
Rp4808
(dp4809
g66
g3354
sg4703
g3346
sg1165
Nsg79
I134
sg4704
g1358
sg1162
F0.3
sbag0
(g4699
g2
Ntp4810
Rp4811
(dp4812
g66
g3385
sg4703
g3377
sg1165
Nsg79
I135
sg4704
g1358
sg1162
F0.3
sbag0
(g4699
g2
Ntp4813
Rp4814
(dp4815
g66
g3416
sg4703
g3408
sg1165
Nsg79
I136
sg4704
g1358
sg1162
F0.3
sbag0
(g4699
g2
Ntp4816
Rp4817
(dp4818
g66
g3447
sg4703
g3439
sg1165
Nsg79
I137
sg4704
g1358
sg1162
F0.3
sbag0
(g4699
g2
Ntp4819
Rp4820
(dp4821
g66
g3478
sg4703
g3470
sg1165
Nsg79
I138
sg4704
g1358
sg1162
F0.3
sbag0
(g4699
g2
Ntp4822
Rp4823
(dp4824
g66
g3509
sg4703
g3501
sg1165
Nsg79
I139
sg4704
g1358
sg1162
F0.3
sbag0
(g4699
g2
Ntp4825
Rp4826
(dp4827
g66
g3540
sg4703
g3532
sg1165
Nsg79
I140
sg4704
g1358
sg1162
F0.3
sbag0
(g4699
g2
Ntp4828
Rp4829
(dp4830
g66
g3581
sg4703
g3573
sg1165
Nsg79
I141
sg4704
g1358
sg1162
F0.3
sbag0
(g4699
g2
Ntp4831
Rp4832
(dp4833
g66
g3622
sg4703
g3614
sg1165
Nsg79
I142
sg4704
g1358
sg1162
F0.3
sbag0
(g4699
g2
Ntp4834
Rp4835
(dp4836
g66
g3663
sg4703
g3655
sg1165
Nsg79
I143
sg4704
g1358
sg1162
F0.3
sbag0
(g4699
g2
Ntp4837
Rp4838
(dp4839
g66
g3704
sg4703
g3696
sg1165
Nsg79
I144
sg4704
g1358
sg1162
F0.3
sbag0
(g4699
g2
Ntp4840
Rp4841
(dp4842
g66
g3745
sg4703
g3737
sg1165
Nsg79
I145
sg4704
g1358
sg1162
F0.3
sbag0
(g4699
g2
Ntp4843
Rp4844
(dp4845
g66
g3786
sg4703
g3778
sg1165
Nsg79
I146
sg4704
g1358
sg1162
F0.3
sbag0
(g4699
g2
Ntp4846
Rp4847
(dp4848
g66
g3827
sg4703
g3819
sg1165
Nsg79
I147
sg4704
g1358
sg1162
F0.3
sbag0
(g4699
g2
Ntp4849
Rp4850
(dp4851
g66
g3868
sg4703
g3860
sg1165
Nsg79
I148
sg4704
g1358
sg1162
F0.3
sbag0
(g4699
g2
Ntp4852
Rp4853
(dp4854
g66
g3909
sg4703
g3901
sg1165
Nsg79
I149
sg4704
g1358
sg1162
F0.3
sbag0
(g4699
g2
Ntp4855
Rp4856
(dp4857
g66
g3950
sg4703
g3942
sg1165
Nsg79
I150
sg4704
g1358
sg1162
F0.3
sbag0
(g4699
g2
Ntp4858
Rp4859
(dp4860
g66
g3995
sg4703
g3987
sg1165
Nsg79
I151
sg4704
g1358
sg1162
F0.3
sbag0
(g4699
g2
Ntp4861
Rp4862
(dp4863
g66
g4036
sg4703
g4028
sg1165
Nsg79
I152
sg4704
g1358
sg1162
F0.3
sbag0
(g4699
g2
Ntp4864
Rp4865
(dp4866
g66
g4077
sg4703
g4069
sg1165
Nsg79
I153
sg4704
g1358
sg1162
F0.3
sbag0
(g4699
g2
Ntp4867
Rp4868
(dp4869
g66
g4118
sg4703
g4110
sg1165
Nsg79
I154
sg4704
g1358
sg1162
F0.3
sbag0
(g4699
g2
Ntp4870
Rp4871
(dp4872
g66
g4159
sg4703
g4151
sg1165
Nsg79
I155
sg4704
g1358
sg1162
F0.3
sbag0
(g4699
g2
Ntp4873
Rp4874
(dp4875
g66
g4200
sg4703
g4192
sg1165
Nsg79
I156
sg4704
g1358
sg1162
F0.3
sbag0
(g4699
g2
Ntp4876
Rp4877
(dp4878
g66
g4245
sg4703
g4237
sg1165
Nsg79
I157
sg4704
g1358
sg1162
F0.3
sbag0
(g4699
g2
Ntp4879
Rp4880
(dp4881
g66
g4286
sg4703
g4278
sg1165
Nsg79
I158
sg4704
g1358
sg1162
F0.3
sbag0
(g4699
g2
Ntp4882
Rp4883
(dp4884
g66
g4327
sg4703
g4319
sg1165
Nsg79
I159
sg4704
g1358
sg1162
F0.3
sbag0
(g4699
g2
Ntp4885
Rp4886
(dp4887
g66
g4368
sg4703
g4360
sg1165
Nsg79
I160
sg4704
g1358
sg1162
F0.3
sbag0
(g4699
g2
Ntp4888
Rp4889
(dp4890
g66
g4409
sg4703
g4401
sg1165
Nsg79
I161
sg4704
g1358
sg1162
F0.3
sbag0
(g4699
g2
Ntp4891
Rp4892
(dp4893
g66
g4450
sg4703
g4442
sg1165
Nsg79
I162
sg4704
g1358
sg1162
F0.3
sbag0
(g4699
g2
Ntp4894
Rp4895
(dp4896
g66
g4491
sg4703
g4483
sg1165
Nsg79
I163
sg4704
g1358
sg1162
F0.3
sbag0
(g4699
g2
Ntp4897
Rp4898
(dp4899
g66
g4532
sg4703
g4524
sg1165
Nsg79
I164
sg4704
g1358
sg1162
F0.3
sbag0
(g4699
g2
Ntp4900
Rp4901
(dp4902
g66
g4573
sg4703
g4565
sg1165
Nsg79
I165
sg4704
g1358
sg1162
F0.3
sbag0
(g4699
g2
Ntp4903
Rp4904
(dp4905
g66
g4614
sg4703
g4606
sg1165
Nsg79
I166
sg4704
g1358
sg1162
F0.3
sbag0
(g4699
g2
Ntp4906
Rp4907
(dp4908
g66
g4655
sg4703
g4647
sg1165
Nsg79
I167
sg4704
g1358
sg1162
F0.3
sbasbsbsg1165
g1168
sg79
I2
sbag0
(g1320
g2
Ntp4909
Rp4910
(dp4911
g1324
I0
sg66
g1298
sg1325
I0
sg1326
g0
(g70
g2
Ntp4912
Rp4913
(dp4914
g66
S'from_cxn_retrieval_P'
p4915
sg75
Nsg76
Nsg77
g1184
sg79
I14
sg80
g0
(clanguage_schemas
GRAMMATICAL_WM_P
p4916
g2
Ntp4917
Rp4918
(dp4919
g64
(dp4920
g4915
NsS'from_phonological_WM_P'
p4921
Nsg1330
Nsg1192
Nssg1194
(lp4922
sg66
g1307
sg1197
(lp4923
sg68
(lp4924
g0
(g70
g2
Ntp4925
Rp4926
(dp4927
g66
g84
sg75
Nsg76
Nsg77
g78
sg79
I17
sg80
g4918
sbag0
(g70
g2
Ntp4928
Rp4929
(dp4930
g66
S'to_phonological_WM_P'
p4931
sg75
Nsg76
Nsg77
g78
sg79
I18
sg80
g4918
sbag0
(g70
g2
Ntp4932
Rp4933
(dp4934
g66
g1219
sg75
Nsg76
Nsg77
g78
sg79
I19
sg80
g4918
sbasg85
(dp4935
g1219
Nsg4931
Nsg84
NssS'time_to_next_prod'
p4936
I0
sg1157
F1.0
sg1221
(lp4937
sg1158
(lp4938
g0
(g70
g2
Ntp4939
Rp4940
(dp4941
g66
g1330
sg75
Nsg76
Nsg77
g1184
sg79
I13
sg80
g4918
sbag4913
ag0
(g70
g2
Ntp4942
Rp4943
(dp4944
g66
g1192
sg75
Nsg76
Nsg77
g1184
sg79
I15
sg80
g4918
sbag0
(g70
g2
Ntp4945
Rp4946
(dp4947
g66
g4921
sg75
Nsg76
Nsg77
g1184
sg79
I16
sg80
g4918
sbasS'refractory_period'
p4948
I10
sg1236
(dp4949
g1238
(dp4950
sg1240
(dp4951
g1242
(lp4952
sg1244
(dp4953
g1246
(lp4954
sg1248
(lp4955
sg1250
(lp4956
ssg1252
(lp4957
sg1163
(lp4958
sg1255
(lp4959
sssg1160
(dp4960
g1258
(dp4961
g1264
F1.0
sg1265
F1.0
sS'sub_threshold_r'
p4962
F0.8
sg1267
F0.0
sS'deact_weight'
p4963
F0.0
sg1266
F0.3
sg1268
F0.01
sg4948
I10
sg1260
F1.0
sg1261
Nsg1262
F-10.0
sg1263
F1.0
ssg1269
(dp4964
g1271
F100.0
sg1272
F10.0
sg1273
F0.001
sg1274
F0.0
sg1275
F0.1
sg1276
F1.0
sg1277
F1.0
ssS'style'
p4965
(dp4966
S'continuity'
p4967
I0
sS'form_length'
p4968
I0
sS'activation'
p4969
F1.0
sS'sem_length'
p4970
I0
sssg1163
F0.0
sg1164
F0.0
sg1165
g1168
sg79
I3
sbsbsg1349
g1339
sg1165
g1168
sg79
I3
sbag0
(g1320
g2
Ntp4971
Rp4972
(dp4973
g1324
I0
sg66
g1298
sg1325
I0
sg1326
g4940
sg1349
g1201
sg1165
g1168
sg79
I4
sbag0
(g1320
g2
Ntp4974
Rp4975
(dp4976
g1324
I0
sg66
g1298
sg1325
I0
sg1326
g1231
sg1349
g4926
sg1165
g1168
sg79
I5
sbag0
(g1320
g2
Ntp4977
Rp4978
(dp4979
g1324
I0
sg66
g1298
sg1325
I0
sg1326
g0
(g70
g2
Ntp4980
Rp4981
(dp4982
g66
g1190
sg75
Nsg76
Nsg77
g1184
sg79
I25
sg80
g0
(clanguage_schemas
PHON_WM_P
p4983
g2
Ntp4984
Rp4985
(dp4986
g64
(dp4987
g1190
Nssg1194
(lp4988
sg66
g1303
sg1197
(lp4989
sg68
(lp4990
g0
(g70
g2
Ntp4991
Rp4992
(dp4993
g66
S'to_utter'
p4994
sg75
Nsg76
Nsg77
g78
sg79
I26
sg80
g4985
sbag0
(g70
g2
Ntp4995
Rp4996
(dp4997
g66
g1203
sg75
Nsg76
Nsg77
g78
sg79
I27
sg80
g4985
sbag0
(g70
g2
Ntp4998
Rp4999
(dp5000
g66
g1211
sg75
Nsg76
Nsg77
g78
sg79
I28
sg80
g4985
sbag0
(g70
g2
Ntp5001
Rp5002
(dp5003
g66
g1219
sg75
Nsg76
Nsg77
g78
sg79
I29
sg80
g4985
sbasg85
(dp5004
g1219
Nsg1203
Nsg4994
Nsg1211
NssS'needs_filler'
p5005
I00
sg1157
F1.0
sg1221
(lp5006
sg1158
(lp5007
g4981
asS'filler'
p5008
S'....'
p5009
sg1236
(dp5010
g1238
(dp5011
sg1240
(dp5012
g1242
(lp5013
sg1244
(dp5014
g1246
(lp5015
sg1248
(lp5016
sg1250
(lp5017
ssg1252
(lp5018
sg1163
(lp5019
sg1255
(lp5020
sssg1160
(dp5021
g1258
(dp5022
g1260
F1.0
sg1261
Nsg1262
F0.0
sg1263
F1.0
sg1264
F1.0
sg1265
F0.0
sg1266
F0.0
sg1267
F0.0
sg1268
F0.01
ssg1269
(dp5023
g1271
F100.0
sg1272
F10.0
sg1273
F0.001
sg1274
F0.0
sg1275
F1.0
sg1276
F1.0
sg1277
F1.0
sssg1163
F0.0
sg1164
F0.0
sg1165
g1168
sS'phon_sequence'
p5024
(lp5025
sg79
I6
sbsbsg1349
g4929
sg1165
g1168
sg79
I6
sbag0
(g1320
g2
Ntp5026
Rp5027
(dp5028
g1324
I0
sg66
g1298
sg1325
I0
sg1326
g4946
sg1349
g4996
sg1165
g1168
sg79
I7
sbag0
(g1320
g2
Ntp5029
Rp5030
(dp5031
g1324
I0
sg66
g1298
sg1325
I0
sg1326
g0
(g70
g2
Ntp5032
Rp5033
(dp5034
g66
g1330
sg75
Nsg76
Nsg77
g1184
sg79
I32
sg80
g0
(clanguage_schemas
CONTROL
p5035
g2
Ntp5036
Rp5037
(dp5038
g64
(dp5039
g4921
Nsg1330
Nssg66
g1293
sg68
(lp5040
g0
(g70
g2
Ntp5041
Rp5042
(dp5043
g66
g84
sg75
Nsg76
Nsg77
g78
sg79
I34
sg80
g5037
sbag0
(g70
g2
Ntp5044
Rp5045
(dp5046
g66
g1203
sg75
Nsg76
Nsg77
g78
sg79
I35
sg80
g5037
sbag0
(g70
g2
Ntp5047
Rp5048
(dp5049
g66
S'to_grammatical_WM_C'
p5050
sg75
Nsg76
Nsg77
g78
sg79
I36
sg80
g5037
sbasg85
(dp5051
g1203
Nsg5050
Nsg84
Nssg1157
F1.0
sg1158
(lp5052
g5033
ag0
(g70
g2
Ntp5053
Rp5054
(dp5055
g66
g4921
sg75
Nsg76
Nsg77
g1184
sg79
I33
sg80
g5037
sbasS'state'
p5056
(dp5057
S'produce'
p5058
I00
sS'unexpressed_sem'
p5059
I00
sS'mode'
p5060
g5058
sS'last_prod_time'
p5061
I0
ssg1160
(dp5062
g4965
(dp5063
g4967
F0.3
sg4968
F0.0
sg4969
F0.7
sg4970
F0.0
ssS'task'
p5064
(dp5065
S'time_pressure'
p5066
F10.0
sS'start_produce'
p5067
F1.0
sssg1163
F0.0
sg1164
F0.0
sg1165
g1168
sg79
I8
sbsbsg1349
g1209
sg1165
g1168
sg79
I8
sbag0
(g1320
g2
Ntp5068
Rp5069
(dp5070
g1324
I0
sg66
g1298
sg1325
I0
sg1326
g0
(g70
g2
Ntp5071
Rp5072
(dp5073
g66
g4921
sg75
Nsg76
Nsg77
g1184
sg79
I30
sg80
g0
(clanguage_schemas
UTTER
p5074
g2
Ntp5075
Rp5076
(dp5077
g64
(dp5078
g4921
Nssg66
g1296
sg68
(lp5079
g0
(g70
g2
Ntp5080
Rp5081
(dp5082
g66
g1219
sg75
Nsg76
Nsg77
g78
sg79
I31
sg80
g5076
sbasg85
(dp5083
g1219
NssS'utterance_stack'
p5084
(lp5085
sg1157
F1.0
sg1158
(lp5086
g5072
asg1160
(dp5087
S'speech_rate'
p5088
F1.0
ssg1163
F0.0
sg1164
F0.0
sg1165
g1168
sg79
I7
sbsbsg1349
g4992
sg1165
g1168
sg79
I9
sbag0
(g1320
g2
Ntp5089
Rp5090
(dp5091
g1324
I0
sg66
g1298
sg1325
I0
sg1326
g5054
sg1349
g4999
sg1165
g1168
sg79
I10
sbag0
(g1320
g2
Ntp5092
Rp5093
(dp5094
g1324
I0
sg66
g1298
sg1325
I0
sg1326
g4943
sg1349
g5045
sg1165
g1168
sg79
I11
sbag0
(g1320
g2
Ntp5095
Rp5096
(dp5097
g1324
I0
sg66
g1298
sg1325
I0
sg1326
g1234
sg1349
g5042
sg1165
g1168
sg79
I12
sbasg1160
(dp5098
g1293
g5062
sg1303
g5021
sg67
g1161
sg1311
g4696
sg1315
g1348
sg1196
g1257
sg1296
g5087
sg1307
g4960
ssg1163
F0.0
sS'set_up_time'
p5099
I10
sS'input'
p5100
NsS'default_params'
p5101
Nsg1157
F1.0
sS'output_ports'
p5102
(lp5103
g5081
ag5002
ag4933
ag1217
asg4697
(dp5104
g1293
g5037
sg1303
g4985
sg67
g62
sg1315
g1333
sg1307
g4918
sg1196
g1187
sg1296
g5076
sg1311
g1358
ssbsg79
I2
sg4697
(lp5105
g0
(clanguage_schemas
CPT_EVENT_SCHEMA
p5106
g2
Ntp5107
Rp5108
(dp5109
g66
g103
sg4703
(dp5110
g1391
g581
ssg1165
Nsg79
I9
sg4704
g62
sg1162
F1.0
sbag0
(clanguage_schemas
CPT_ACTION_SCHEMA
p5111
g2
Ntp5112
Rp5113
(dp5114
g66
g107
sg4703
(dp5115
g1391
g588
ssg1165
Nsg79
I10
sg4704
g62
sg1162
F1.0
sbag0
(g5111
g2
Ntp5116
Rp5117
(dp5118
g66
g109
sg4703
(dp5119
g1391
g591
ssg1165
Nsg79
I11
sg4704
g62
sg1162
F1.0
sbag0
(g5111
g2
Ntp5120
Rp5121
(dp5122
g66
g111
sg4703
(dp5123
g1391
g594
ssg1165
Nsg79
I12
sg4704
g62
sg1162
F1.0
sbag0
(g5111
g2
Ntp5124
Rp5125
(dp5126
g66
g113
sg4703
(dp5127
g1391
g597
ssg1165
Nsg79
I13
sg4704
g62
sg1162
F1.0
sbag0
(g5111
g2
Ntp5128
Rp5129
(dp5130
g66
g115
sg4703
(dp5131
g1391
g600
ssg1165
Nsg79
I14
sg4704
g62
sg1162
F1.0
sbag0
(g5111
g2
Ntp5132
Rp5133
(dp5134
g66
g117
sg4703
(dp5135
g1391
g603
ssg1165
Nsg79
I15
sg4704
g62
sg1162
F1.0
sbag0
(g5111
g2
Ntp5136
Rp5137
(dp5138
g66
g119
sg4703
(dp5139
g1391
g606
ssg1165
Nsg79
I16
sg4704
g62
sg1162
F1.0
sbag0
(g5111
g2
Ntp5140
Rp5141
(dp5142
g66
g121
sg4703
(dp5143
g1391
g609
ssg1165
Nsg79
I17
sg4704
g62
sg1162
F1.0
sbag0
(g5111
g2
Ntp5144
Rp5145
(dp5146
g66
g123
sg4703
(dp5147
g1391
g612
ssg1165
Nsg79
I18
sg4704
g62
sg1162
F1.0
sbag0
(g5111
g2
Ntp5148
Rp5149
(dp5150
g66
g125
sg4703
(dp5151
g1391
g615
ssg1165
Nsg79
I19
sg4704
g62
sg1162
F1.0
sbag0
(g5111
g2
Ntp5152
Rp5153
(dp5154
g66
g127
sg4703
(dp5155
g1391
g618
ssg1165
Nsg79
I20
sg4704
g62
sg1162
F1.0
sbag0
(g5111
g2
Ntp5156
Rp5157
(dp5158
g66
g129
sg4703
(dp5159
g1391
g621
ssg1165
Nsg79
I21
sg4704
g62
sg1162
F1.0
sbag0
(g5111
g2
Ntp5160
Rp5161
(dp5162
g66
g131
sg4703
(dp5163
g1391
g624
ssg1165
Nsg79
I22
sg4704
g62
sg1162
F1.0
sbag0
(g5111
g2
Ntp5164
Rp5165
(dp5166
g66
g133
sg4703
(dp5167
g1391
g627
ssg1165
Nsg79
I23
sg4704
g62
sg1162
F1.0
sbag0
(g5111
g2
Ntp5168
Rp5169
(dp5170
g66
g135
sg4703
(dp5171
g1391
g630
ssg1165
Nsg79
I24
sg4704
g62
sg1162
F1.0
sbag0
(g5111
g2
Ntp5172
Rp5173
(dp5174
g66
g137
sg4703
(dp5175
g1391
g633
ssg1165
Nsg79
I25
sg4704
g62
sg1162
F1.0
sbag0
(g5111
g2
Ntp5176
Rp5177
(dp5178
g66
g139
sg4703
(dp5179
g1391
g636
ssg1165
Nsg79
I26
sg4704
g62
sg1162
F1.0
sbag0
(g5111
g2
Ntp5180
Rp5181
(dp5182
g66
g141
sg4703
(dp5183
g1391
g639
ssg1165
Nsg79
I27
sg4704
g62
sg1162
F1.0
sbag0
(g5111
g2
Ntp5184
Rp5185
(dp5186
g66
g143
sg4703
(dp5187
g1391
g642
ssg1165
Nsg79
I28
sg4704
g62
sg1162
F1.0
sbag0
(clanguage_schemas
CPT_PROPERTY_SCHEMA
p5188
g2
Ntp5189
Rp5190
(dp5191
g66
g145
sg4703
(dp5192
g1391
g645
ssg1165
Nsg79
I29
sg4704
g62
sg1162
F1.0
sbag0
(g5188
g2
Ntp5193
Rp5194
(dp5195
g66
g147
sg4703
(dp5196
g1391
g648
ssg1165
Nsg79
I30
sg4704
g62
sg1162
F1.0
sbag0
(g5188
g2
Ntp5197
Rp5198
(dp5199
g66
g149
sg4703
(dp5200
g1391
g651
ssg1165
Nsg79
I31
sg4704
g62
sg1162
F1.0
sbag0
(g5188
g2
Ntp5201
Rp5202
(dp5203
g66
g151
sg4703
(dp5204
g1391
g654
ssg1165
Nsg79
I32
sg4704
g62
sg1162
F1.0
sbag0
(g5188
g2
Ntp5205
Rp5206
(dp5207
g66
g153
sg4703
(dp5208
g1391
g657
ssg1165
Nsg79
I33
sg4704
g62
sg1162
F1.0
sbag0
(g5188
g2
Ntp5209
Rp5210
(dp5211
g66
g155
sg4703
(dp5212
g1391
g660
ssg1165
Nsg79
I34
sg4704
g62
sg1162
F1.0
sbag0
(g5188
g2
Ntp5213
Rp5214
(dp5215
g66
g157
sg4703
(dp5216
g1391
g663
ssg1165
Nsg79
I35
sg4704
g62
sg1162
F1.0
sbag0
(g5188
g2
Ntp5217
Rp5218
(dp5219
g66
g159
sg4703
(dp5220
g1391
g666
ssg1165
Nsg79
I36
sg4704
g62
sg1162
F1.0
sbag0
(g5188
g2
Ntp5221
Rp5222
(dp5223
g66
g161
sg4703
(dp5224
g1391
g669
ssg1165
Nsg79
I37
sg4704
g62
sg1162
F1.0
sbag0
(g5188
g2
Ntp5225
Rp5226
(dp5227
g66
g163
sg4703
(dp5228
g1391
g672
ssg1165
Nsg79
I38
sg4704
g62
sg1162
F1.0
sbag0
(g5188
g2
Ntp5229
Rp5230
(dp5231
g66
g165
sg4703
(dp5232
g1391
g675
ssg1165
Nsg79
I39
sg4704
g62
sg1162
F1.0
sbag0
(g5188
g2
Ntp5233
Rp5234
(dp5235
g66
g167
sg4703
(dp5236
g1391
g678
ssg1165
Nsg79
I40
sg4704
g62
sg1162
F1.0
sbag0
(g5188
g2
Ntp5237
Rp5238
(dp5239
g66
g169
sg4703
(dp5240
g1391
g681
ssg1165
Nsg79
I41
sg4704
g62
sg1162
F1.0
sbag0
(g5188
g2
Ntp5241
Rp5242
(dp5243
g66
g171
sg4703
(dp5244
g1391
g684
ssg1165
Nsg79
I42
sg4704
g62
sg1162
F1.0
sbag0
(clanguage_schemas
CPT_RELATION_SCHEMA
p5245
g2
Ntp5246
Rp5247
(dp5248
g66
g173
sg4703
(dp5249
g860
Nsg1391
g687
sg861
Nssg1165
Nsg79
I43
sg4704
g62
sg1162
F1.0
sbag0
(g5245
g2
Ntp5250
Rp5251
(dp5252
g66
g175
sg4703
(dp5253
g860
Nsg1391
g690
sg861
Nssg1165
Nsg79
I44
sg4704
g62
sg1162
F1.0
sbag0
(g5245
g2
Ntp5254
Rp5255
(dp5256
g66
g177
sg4703
(dp5257
g860
Nsg1391
g693
sg861
Nssg1165
Nsg79
I45
sg4704
g62
sg1162
F1.0
sbag0
(g5245
g2
Ntp5258
Rp5259
(dp5260
g66
g179
sg4703
(dp5261
g860
Nsg1391
g696
sg861
Nssg1165
Nsg79
I46
sg4704
g62
sg1162
F1.0
sbag0
(g5245
g2
Ntp5262
Rp5263
(dp5264
g66
g181
sg4703
(dp5265
g860
Nsg1391
g699
sg861
Nssg1165
Nsg79
I47
sg4704
g62
sg1162
F1.0
sbag0
(g5245
g2
Ntp5266
Rp5267
(dp5268
g66
g183
sg4703
(dp5269
g860
Nsg1391
g702
sg861
Nssg1165
Nsg79
I48
sg4704
g62
sg1162
F1.0
sbag0
(g5245
g2
Ntp5270
Rp5271
(dp5272
g66
g185
sg4703
(dp5273
g860
Nsg1391
g705
sg861
Nssg1165
Nsg79
I49
sg4704
g62
sg1162
F1.0
sbag0
(g5245
g2
Ntp5274
Rp5275
(dp5276
g66
g187
sg4703
(dp5277
g860
Nsg1391
g708
sg861
Nssg1165
Nsg79
I50
sg4704
g62
sg1162
F1.0
sbag0
(g5245
g2
Ntp5278
Rp5279
(dp5280
g66
g189
sg4703
(dp5281
g860
Nsg1391
g711
sg861
Nssg1165
Nsg79
I51
sg4704
g62
sg1162
F1.0
sbag0
(g5245
g2
Ntp5282
Rp5283
(dp5284
g66
g191
sg4703
(dp5285
g860
Nsg1391
g714
sg861
Nssg1165
Nsg79
I52
sg4704
g62
sg1162
F1.0
sbag0
(g5245
g2
Ntp5286
Rp5287
(dp5288
g66
g193
sg4703
(dp5289
g860
Nsg1391
g717
sg861
Nssg1165
Nsg79
I53
sg4704
g62
sg1162
F1.0
sbag0
(g5245
g2
Ntp5290
Rp5291
(dp5292
g66
g195
sg4703
(dp5293
g860
Nsg1391
g720
sg861
Nssg1165
Nsg79
I54
sg4704
g62
sg1162
F1.0
sbag0
(g5245
g2
Ntp5294
Rp5295
(dp5296
g66
g197
sg4703
(dp5297
g860
Nsg1391
g723
sg861
Nssg1165
Nsg79
I55
sg4704
g62
sg1162
F1.0
sbag0
(g5245
g2
Ntp5298
Rp5299
(dp5300
g66
g199
sg4703
(dp5301
g860
Nsg1391
g726
sg861
Nssg1165
Nsg79
I56
sg4704
g62
sg1162
F1.0
sbag0
(g5245
g2
Ntp5302
Rp5303
(dp5304
g66
g201
sg4703
(dp5305
g860
Nsg1391
g729
sg861
Nssg1165
Nsg79
I57
sg4704
g62
sg1162
F1.0
sbag0
(g5245
g2
Ntp5306
Rp5307
(dp5308
g66
g203
sg4703
(dp5309
g860
Nsg1391
g732
sg861
Nssg1165
Nsg79
I58
sg4704
g62
sg1162
F1.0
sbag0
(g5245
g2
Ntp5310
Rp5311
(dp5312
g66
g205
sg4703
(dp5313
g860
Nsg1391
g735
sg861
Nssg1165
Nsg79
I59
sg4704
g62
sg1162
F1.0
sbag0
(g5245
g2
Ntp5314
Rp5315
(dp5316
g66
g207
sg4703
(dp5317
g860
Nsg1391
g738
sg861
Nssg1165
Nsg79
I60
sg4704
g62
sg1162
F1.0
sbag0
(g5106
g2
Ntp5318
Rp5319
(dp5320
g66
g209
sg4703
(dp5321
g1391
g741
ssg1165
Nsg79
I61
sg4704
g62
sg1162
F1.0
sbag0
(clanguage_schemas
CPT_ENTITY_SCHEMA
p5322
g2
Ntp5323
Rp5324
(dp5325
g66
g211
sg4703
(dp5326
g1391
g744
ssg1165
Nsg79
I62
sg4704
g62
sg1162
F1.0
sbag0
(g5322
g2
Ntp5327
Rp5328
(dp5329
g66
g213
sg4703
(dp5330
g1391
g747
ssg1165
Nsg79
I63
sg4704
g62
sg1162
F1.0
sbag0
(g5322
g2
Ntp5331
Rp5332
(dp5333
g66
g215
sg4703
(dp5334
g1391
g750
ssg1165
Nsg79
I64
sg4704
g62
sg1162
F1.0
sbag0
(g5322
g2
Ntp5335
Rp5336
(dp5337
g66
g217
sg4703
(dp5338
g1391
g753
ssg1165
Nsg79
I65
sg4704
g62
sg1162
F1.0
sbag0
(g5322
g2
Ntp5339
Rp5340
(dp5341
g66
g219
sg4703
(dp5342
g1391
g756
ssg1165
Nsg79
I66
sg4704
g62
sg1162
F1.0
sbag0
(g5322
g2
Ntp5343
Rp5344
(dp5345
g66
g221
sg4703
(dp5346
g1391
g759
ssg1165
Nsg79
I67
sg4704
g62
sg1162
F1.0
sbag0
(g5322
g2
Ntp5347
Rp5348
(dp5349
g66
g223
sg4703
(dp5350
g1391
g762
ssg1165
Nsg79
I68
sg4704
g62
sg1162
F1.0
sbag0
(g5322
g2
Ntp5351
Rp5352
(dp5353
g66
g225
sg4703
(dp5354
g1391
g765
ssg1165
Nsg79
I69
sg4704
g62
sg1162
F1.0
sbag0
(g5322
g2
Ntp5355
Rp5356
(dp5357
g66
g227
sg4703
(dp5358
g1391
g768
ssg1165
Nsg79
I70
sg4704
g62
sg1162
F1.0
sbag0
(g5322
g2
Ntp5359
Rp5360
(dp5361
g66
g229
sg4703
(dp5362
g1391
g771
ssg1165
Nsg79
I71
sg4704
g62
sg1162
F1.0
sbag0
(g5322
g2
Ntp5363
Rp5364
(dp5365
g66
g231
sg4703
(dp5366
g1391
g774
ssg1165
Nsg79
I72
sg4704
g62
sg1162
F1.0
sbag0
(g5322
g2
Ntp5367
Rp5368
(dp5369
g66
g233
sg4703
(dp5370
g1391
g777
ssg1165
Nsg79
I73
sg4704
g62
sg1162
F1.0
sbag0
(g5322
g2
Ntp5371
Rp5372
(dp5373
g66
g235
sg4703
(dp5374
g1391
g780
ssg1165
Nsg79
I74
sg4704
g62
sg1162
F1.0
sbag0
(g5322
g2
Ntp5375
Rp5376
(dp5377
g66
g237
sg4703
(dp5378
g1391
g783
ssg1165
Nsg79
I75
sg4704
g62
sg1162
F1.0
sbag0
(g5322
g2
Ntp5379
Rp5380
(dp5381
g66
g239
sg4703
(dp5382
g1391
g786
ssg1165
Nsg79
I76
sg4704
g62
sg1162
F1.0
sbag0
(g5322
g2
Ntp5383
Rp5384
(dp5385
g66
g241
sg4703
(dp5386
g1391
g789
ssg1165
Nsg79
I77
sg4704
g62
sg1162
F1.0
sbag0
(g5322
g2
Ntp5387
Rp5388
(dp5389
g66
g243
sg4703
(dp5390
g1391
g792
ssg1165
Nsg79
I78
sg4704
g62
sg1162
F1.0
sbag0
(g5322
g2
Ntp5391
Rp5392
(dp5393
g66
g245
sg4703
(dp5394
g1391
g795
ssg1165
Nsg79
I79
sg4704
g62
sg1162
F1.0
sbag0
(g5322
g2
Ntp5395
Rp5396
(dp5397
g66
g247
sg4703
(dp5398
g1391
g798
ssg1165
Nsg79
I80
sg4704
g62
sg1162
F1.0
sbag0
(g5322
g2
Ntp5399
Rp5400
(dp5401
g66
g249
sg4703
(dp5402
g1391
g801
ssg1165
Nsg79
I81
sg4704
g62
sg1162
F1.0
sbag0
(g5322
g2
Ntp5403
Rp5404
(dp5405
g66
g251
sg4703
(dp5406
g1391
g804
ssg1165
Nsg79
I82
sg4704
g62
sg1162
F1.0
sbag0
(g5322
g2
Ntp5407
Rp5408
(dp5409
g66
g253
sg4703
(dp5410
g1391
g807
ssg1165
Nsg79
I83
sg4704
g62
sg1162
F1.0
sbag0
(g5322
g2
Ntp5411
Rp5412
(dp5413
g66
g255
sg4703
(dp5414
g1391
g810
ssg1165
Nsg79
I84
sg4704
g62
sg1162
F1.0
sbag0
(g5322
g2
Ntp5415
Rp5416
(dp5417
g66
g257
sg4703
(dp5418
g1391
g813
ssg1165
Nsg79
I85
sg4704
g62
sg1162
F1.0
sbag0
(g5322
g2
Ntp5419
Rp5420
(dp5421
g66
g259
sg4703
(dp5422
g1391
g816
ssg1165
Nsg79
I86
sg4704
g62
sg1162
F1.0
sbag0
(g5322
g2
Ntp5423
Rp5424
(dp5425
g66
g261
sg4703
(dp5426
g1391
g819
ssg1165
Nsg79
I87
sg4704
g62
sg1162
F1.0
sbag0
(g5322
g2
Ntp5427
Rp5428
(dp5429
g66
g263
sg4703
(dp5430
g1391
g822
ssg1165
Nsg79
I88
sg4704
g62
sg1162
F1.0
sbag0
(g5322
g2
Ntp5431
Rp5432
(dp5433
g66
g265
sg4703
(dp5434
g1391
g825
ssg1165
Nsg79
I89
sg4704
g62
sg1162
F1.0
sbag0
(g5322
g2
Ntp5435
Rp5436
(dp5437
g66
g267
sg4703
(dp5438
g1391
g828
ssg1165
Nsg79
I90
sg4704
g62
sg1162
F1.0
sbag0
(g5322
g2
Ntp5439
Rp5440
(dp5441
g66
g269
sg4703
(dp5442
g1391
g831
ssg1165
Nsg79
I91
sg4704
g62
sg1162
F1.0
sbag0
(g5322
g2
Ntp5443
Rp5444
(dp5445
g66
g271
sg4703
(dp5446
g1391
g834
ssg1165
Nsg79
I92
sg4704
g62
sg1162
F1.0
sbag0
(g5322
g2
Ntp5447
Rp5448
(dp5449
g66
g273
sg4703
(dp5450
g1391
g837
ssg1165
Nsg79
I93
sg4704
g62
sg1162
F1.0
sbag0
(g5322
g2
Ntp5451
Rp5452
(dp5453
g66
g275
sg4703
(dp5454
g1391
g840
ssg1165
Nsg79
I94
sg4704
g62
sg1162
F1.0
sbag0
(g5322
g2
Ntp5455
Rp5456
(dp5457
g66
g277
sg4703
(dp5458
g1391
g843
ssg1165
Nsg79
I95
sg4704
g62
sg1162
F1.0
sbag0
(g5322
g2
Ntp5459
Rp5460
(dp5461
g66
g279
sg4703
(dp5462
g1391
g846
ssg1165
Nsg79
I96
sg4704
g62
sg1162
F1.0
sbag0
(g5322
g2
Ntp5463
Rp5464
(dp5465
g66
g281
sg4703
(dp5466
g1391
g849
ssg1165
Nsg79
I97
sg4704
g62
sg1162
F1.0
sbag0
(g5322
g2
Ntp5467
Rp5468
(dp5469
g66
g283
sg4703
(dp5470
g1391
g852
ssg1165
Nsg79
I98
sg4704
g62
sg1162
F1.0
sbasbsbsb.