ccopy_reg
_reconstructor
p0
(clanguage_schemas
SEM_GENERATOR
p1
c__builtin__
object
p2
Ntp3
Rp4
(dp5
S'sem_inputs'
p6
(dp7
S'{}'
p8
(dp9
Vtiming
p10
(lp11
F0.0
aF100.0
aF200.0
aF300.0
asVsem_rate
p12
I1
sVpropositions
p13
(dp14
VSQUIRT_AREA
p15
(lp16
VACTION(a1,F)
p17
aVSQUIRT(squirt)
p18
aVIS(is4)
p19
aVis4(a1, squirt)
p20
asVMOUSE_AREA
p21
(lp22
VENTITY(uncued,F)
p23
aVMOUSE(mouse)
p24
aVIS(is1)
p25
aVis1(uncued, mouse)
p26
asVTURTLE_AREA_CUED
p27
(lp28
VENTITY(cued,F)
p29
aVTURTLE(turtle)
p30
aVIS(is2)
p31
aVis2(cued, turtle)
p32
asVGIST
p33
(lp34
VEVENT(evt1,F)
p35
aVACTION(a1,F)
p36
aVIS(is3)
p37
aVis3(evt1,a1)
p38
aVENTITY(cued,F)
p39
aVENTITY(uncued,F)
p40
aVAGENT(agt)
p41
aVPATIENT(pt)
p42
aVagt(a1, uncued)
p43
aVpt(a1, cued)
p44
assVcomments
p45
VKuchinsky's example of easy event with difficult objects. TCG Scene: structural strategy.
p46
sVsequence
p47
(lp48
VGIST
p49
aVTURTLE_AREA_CUED
p50
aVSQUIRT_AREA
p51
aVMOUSE_AREA
p52
asssS'is_macro'
p53
I01
sS'ground_truths'
p54
NsS'speed_param'
p55
I100
sS'interpreter'
p56
g0
(clanguage_schemas
ISRF_INTERPRETER
p57
g2
Ntp58
Rp59
(dp60
S'name_table'
p61
(dp62
sS'conceptLTM'
p63
g0
(clanguage_schemas
CONCEPT_LTM
p64
g2
Ntp65
Rp66
(dp67
S'inputs'
p68
(dp69
sS'name'
p70
S'Concept_LTM'
p71
sS'out_ports'
p72
(lp73
g0
(cschema_theory
PORT
p74
g2
Ntp75
Rp76
(dp77
g70
S'to_conceptualizer'
p78
sS'data'
p79
NsS'value'
p80
(lp81
g0
(clanguage_schemas
CPT_EVENT_SCHEMA
p82
g2
Ntp83
Rp84
(dp85
g70
S'?'
p86
sS'content'
p87
(dp88
S'concept'
p89
g0
(cconcept
CONCEPT
p90
g2
Ntp91
Rp92
(dp93
S'meaning'
p94
g86
sS'conceptual_knowledge'
p95
g0
(cconcept
CONCEPTUAL_KNOWLEDGE
p96
g2
Ntp97
Rp98
(dp99
S'graph'
p100
g0
(cnetworkx.classes.digraph
DiGraph
p101
g2
Ntp102
Rp103
(dp104
S'node'
p105
(dp106
I1
(dp107
g94
g86
ssI2
(dp108
g94
S'CONCEPT'
p109
ssI3
(dp110
g94
VACTION
p111
ssI4
(dp112
g94
VSYMMETRIC
p113
ssI5
(dp114
g94
VMEET
p115
ssI6
(dp116
g94
VSHAKE_HANDS
p117
ssI7
(dp118
g94
VINTRANSITIVE
p119
ssI8
(dp120
g94
VLAUGH
p121
ssI9
(dp122
g94
VTRANSITIVE
p123
ssI10
(dp124
g94
VHIT
p125
ssI11
(dp126
g94
VWATCH
p127
ssI12
(dp128
g94
VPUNCH
p129
ssI13
(dp130
g94
VSPLASH
p131
ssI14
(dp132
g94
VTALK
p133
ssI15
(dp134
g94
VKISS
p135
ssI16
(dp136
g94
VSQUIRT
p137
ssI17
(dp138
g94
VKICK
p139
ssI18
(dp140
g94
VWEAR
p141
ssI19
(dp142
g94
VDITRANSITIVE
p143
ssI20
(dp144
g94
VSEND
p145
ssI21
(dp146
g94
VGIVE
p147
ssI22
(dp148
g94
VPROPERTY
p149
ssI23
(dp150
g94
VCOLOR
p151
ssI24
(dp152
g94
VBLUE
p153
ssI25
(dp154
g94
VGREEN
p155
ssI26
(dp156
g94
VWHITE
p157
ssI27
(dp158
g94
VBLACK
p159
ssI28
(dp160
g94
VRED
p161
ssI29
(dp162
g94
VAPPEARANCE
p163
ssI30
(dp164
g94
VYOUNG
p165
ssI31
(dp166
g94
VPRETTY
p167
ssI32
(dp168
g94
VHANDSOME
p169
ssI33
(dp170
g94
VSIZE
p171
ssI34
(dp172
g94
VSMALL
p173
ssI35
(dp174
g94
VBIG
p175
ssI36
(dp176
g94
VRELATION
p177
ssI37
(dp178
g94
VACTION_FRAME
p179
ssI38
(dp180
g94
VMODIFY
p181
ssI39
(dp182
g94
VTHEME
p183
ssI40
(dp184
g94
VRECIPIENT
p185
ssI41
(dp186
g94
VATTR
p187
ssI42
(dp188
g94
VAGT_PT
p189
ssI43
(dp190
g94
VPATIENT
p191
ssI44
(dp192
g94
VAGT+PT
p193
ssI45
(dp194
g94
VAGENT
p195
ssI46
(dp196
g94
VEVENT_FRAME
p197
ssI47
(dp198
g94
VTEMPORAL
p199
ssI48
(dp200
g94
VCONCURRENT
p201
ssI49
(dp202
g94
VSUCCESSIVE
p203
ssI50
(dp204
g94
VSPATIAL
p205
ssI51
(dp206
g94
VIN
p207
ssI52
(dp208
g94
VIS
p209
ssI53
(dp210
g94
VOBJECT_FRAME
p211
ssI54
(dp212
g94
VEVENT
p213
ssI55
(dp214
g94
VENTITY
p215
ssI56
(dp216
g94
VANIMATE
p217
ssI57
(dp218
g94
VANIMAL
p219
ssI58
(dp220
g94
VHUMAN
p221
ssI59
(dp222
g94
VOBJECT
p223
ssI60
(dp224
g94
VITEM
p225
ssI61
(dp226
g94
VWAGON
p227
ssI62
(dp228
g94
VWATERING_CAN
p229
ssI63
(dp230
g94
VBAG
p231
ssI64
(dp232
g94
VTREE
p233
ssI65
(dp234
g94
VHOOK
p235
ssI66
(dp236
g94
VCELLO
p237
ssI67
(dp238
g94
VBOOKSHELF
p239
ssI68
(dp240
g94
VCLOTHING
p241
ssI69
(dp242
g94
VTSHIRT
p243
ssI70
(dp244
g94
VDRESS
p245
ssI71
(dp246
g94
VSHIRT
p247
ssI72
(dp248
g94
VSUIT
p249
ssI73
(dp250
g94
VTURTLE
p251
ssI74
(dp252
g94
VMOUSE
p253
ssI75
(dp254
g94
VDOG
p255
ssI76
(dp256
g94
VBOY
p257
ssI77
(dp258
g94
VWOMAN
p259
ssI78
(dp260
g94
VPEOPLE
p261
ssI79
(dp262
g94
VPOLICEMAN
p263
ssI80
(dp264
g94
VHUNTER
p265
ssI81
(dp266
g94
VBALLERINA
p267
ssI82
(dp268
g94
VCELLIST
p269
ssI83
(dp270
g94
VGIRL
p271
ssI84
(dp272
g94
VFENCER
p273
ssI85
(dp274
g94
VROBBER
p275
ssI86
(dp276
g94
VMAN
p277
ssI87
(dp278
g94
VPLACE
p279
ssI88
(dp280
g94
VBOXINGRING
p281
ssI89
(dp282
g94
VPARK
p283
ssI90
(dp284
g94
VMALE
p285
ssI91
(dp286
g94
VFEMALE
p287
sssS'node_dict_factory'
p288
c__builtin__
dict
p289
sS'edge_attr_dict_factory'
p290
g289
sS'succ'
p291
(dp292
I1
(dp293
sI2
(dp294
sI3
(dp295
I2
(dp296
S'type'
p297
S'is_a'
p298
sssI4
(dp299
I3
(dp300
g297
g298
sssI5
(dp301
I4
(dp302
g297
g298
sssI6
(dp303
I4
(dp304
g297
g298
sssI7
(dp305
I3
(dp306
g297
g298
sssI8
(dp307
I7
(dp308
g297
g298
sssI9
(dp309
I3
(dp310
g297
g298
sssI10
(dp311
I9
(dp312
g297
g298
sssI11
(dp313
I9
(dp314
g297
g298
sssI12
(dp315
I9
(dp316
g297
g298
sssI13
(dp317
I9
(dp318
g297
g298
sssI14
(dp319
I9
(dp320
g297
g298
sssI15
(dp321
I9
(dp322
g297
g298
sssI16
(dp323
I9
(dp324
g297
g298
sssI17
(dp325
I9
(dp326
g297
g298
sssI18
(dp327
I9
(dp328
g297
g298
sssI19
(dp329
I3
(dp330
g297
g298
sssI20
(dp331
I19
(dp332
g297
g298
sssI21
(dp333
I19
(dp334
g297
g298
sssI22
(dp335
I2
(dp336
g297
g298
sssI23
(dp337
I22
(dp338
g297
g298
sssI24
(dp339
I23
(dp340
g297
g298
sssI25
(dp341
I23
(dp342
g297
g298
sssI26
(dp343
I23
(dp344
g297
g298
sssI27
(dp345
I23
(dp346
g297
g298
sssI28
(dp347
I23
(dp348
g297
g298
sssI29
(dp349
I22
(dp350
g297
g298
sssI30
(dp351
I29
(dp352
g297
g298
sssI31
(dp353
I29
(dp354
g297
g298
sssI32
(dp355
I29
(dp356
g297
g298
sssI33
(dp357
I22
(dp358
g297
g298
sssI34
(dp359
I33
(dp360
g297
g298
sssI35
(dp361
I33
(dp362
g297
g298
sssI36
(dp363
I2
(dp364
g297
g298
sssI37
(dp365
I36
(dp366
g297
g298
sssI38
(dp367
I37
(dp368
g297
g298
ssI53
(dp369
g297
g298
sssI39
(dp370
I37
(dp371
g297
g298
sssI40
(dp372
I37
(dp373
g297
g298
sssI41
(dp374
I37
(dp375
g297
g298
ssI53
(dp376
g297
g298
sssI42
(dp377
I37
(dp378
g297
g298
sssI43
(dp379
I42
(dp380
g297
g298
sssI44
(dp381
I43
(dp382
g297
g298
ssI45
(dp383
g297
g298
sssI45
(dp384
I42
(dp385
g297
g298
sssI46
(dp386
I36
(dp387
g297
g298
sssI47
(dp388
I46
(dp389
g297
g298
sssI48
(dp390
I47
(dp391
g297
g298
sssI49
(dp392
I47
(dp393
g297
g298
sssI50
(dp394
I46
(dp395
g297
g298
sssI51
(dp396
I50
(dp397
g297
g298
sssI52
(dp398
I36
(dp399
g297
g298
sssI53
(dp400
I36
(dp401
g297
g298
sssI54
(dp402
I2
(dp403
g297
g298
sssI55
(dp404
I2
(dp405
g297
g298
sssI56
(dp406
I55
(dp407
g297
g298
sssI57
(dp408
I56
(dp409
g297
g298
ssI59
(dp410
g297
g298
sssI58
(dp411
I56
(dp412
g297
g298
ssI59
(dp413
g297
g298
sssI59
(dp414
I55
(dp415
g297
g298
sssI60
(dp416
I59
(dp417
g297
g298
sssI61
(dp418
I60
(dp419
g297
g298
sssI62
(dp420
I60
(dp421
g297
g298
sssI63
(dp422
I60
(dp423
g297
g298
sssI64
(dp424
I60
(dp425
g297
g298
sssI65
(dp426
I60
(dp427
g297
g298
sssI66
(dp428
I60
(dp429
g297
g298
sssI67
(dp430
I60
(dp431
g297
g298
sssI68
(dp432
I60
(dp433
g297
g298
sssI69
(dp434
I68
(dp435
g297
g298
sssI70
(dp436
I68
(dp437
g297
g298
sssI71
(dp438
I68
(dp439
g297
g298
sssI72
(dp440
I68
(dp441
g297
g298
sssI73
(dp442
I57
(dp443
g297
g298
sssI74
(dp444
I57
(dp445
g297
g298
sssI75
(dp446
I57
(dp447
g297
g298
sssI76
(dp448
I58
(dp449
g297
g298
ssI90
(dp450
g297
g298
sssI77
(dp451
I58
(dp452
g297
g298
ssI91
(dp453
g297
g298
sssI78
(dp454
I58
(dp455
g297
g298
sssI79
(dp456
I58
(dp457
g297
g298
sssI80
(dp458
I58
(dp459
g297
g298
sssI81
(dp460
I58
(dp461
g297
g298
ssI91
(dp462
g297
g298
sssI82
(dp463
I58
(dp464
g297
g298
sssI83
(dp465
I58
(dp466
g297
g298
ssI91
(dp467
g297
g298
sssI84
(dp468
I58
(dp469
g297
g298
sssI85
(dp470
I58
(dp471
g297
g298
sssI86
(dp472
I58
(dp473
g297
g298
ssI90
(dp474
g297
g298
sssI87
(dp475
I55
(dp476
g297
g298
sssI88
(dp477
I87
(dp478
g297
g298
sssI89
(dp479
I87
(dp480
g297
g298
sssI90
(dp481
I55
(dp482
g297
g298
sssI91
(dp483
I55
(dp484
g297
g298
ssssS'edge'
p485
g292
sg100
(dp486
sS'adjlist_dict_factory'
p487
g289
sS'adj'
p488
g292
sS'pred'
p489
(dp490
I1
(dp491
sI2
(dp492
I3
g296
sI36
g364
sI54
g403
sI22
g336
sI55
g405
ssI3
(dp493
I9
g310
sI19
g330
sI4
g300
sI7
g306
ssI4
(dp494
I5
g302
sI6
g304
ssI5
(dp495
sI6
(dp496
sI7
(dp497
I8
g308
ssI8
(dp498
sI9
(dp499
I10
g312
sI11
g314
sI12
g316
sI13
g318
sI14
g320
sI15
g322
sI16
g324
sI17
g326
sI18
g328
ssI10
(dp500
sI11
(dp501
sI12
(dp502
sI13
(dp503
sI14
(dp504
sI15
(dp505
sI16
(dp506
sI17
(dp507
sI18
(dp508
sI19
(dp509
I20
g332
sI21
g334
ssI20
(dp510
sI21
(dp511
sI22
(dp512
I33
g358
sI29
g350
sI23
g338
ssI23
(dp513
I24
g340
sI25
g342
sI26
g344
sI27
g346
sI28
g348
ssI24
(dp514
sI25
(dp515
sI26
(dp516
sI27
(dp517
sI28
(dp518
sI29
(dp519
I32
g356
sI30
g352
sI31
g354
ssI30
(dp520
sI31
(dp521
sI32
(dp522
sI33
(dp523
I34
g360
sI35
g362
ssI34
(dp524
sI35
(dp525
sI36
(dp526
I52
g399
sI37
g366
sI46
g387
sI53
g401
ssI37
(dp527
I40
g373
sI41
g375
sI42
g378
sI38
g368
sI39
g371
ssI38
(dp528
sI39
(dp529
sI40
(dp530
sI41
(dp531
sI42
(dp532
I43
g380
sI45
g385
ssI43
(dp533
I44
g382
ssI44
(dp534
sI45
(dp535
I44
g383
ssI46
(dp536
I50
g395
sI47
g389
ssI47
(dp537
I48
g391
sI49
g393
ssI48
(dp538
sI49
(dp539
sI50
(dp540
I51
g397
ssI51
(dp541
sI52
(dp542
sI53
(dp543
I41
g376
sI38
g369
ssI54
(dp544
sI55
(dp545
I56
g407
sI91
g484
sI90
g482
sI59
g415
sI87
g476
ssI56
(dp546
I57
g409
sI58
g412
ssI57
(dp547
I73
g443
sI74
g445
sI75
g447
ssI58
(dp548
I76
g449
sI77
g452
sI78
g455
sI79
g457
sI80
g459
sI81
g461
sI82
g464
sI83
g466
sI84
g469
sI85
g471
sI86
g473
ssI59
(dp549
I57
g410
sI58
g413
sI60
g417
ssI60
(dp550
I64
g425
sI65
g427
sI66
g429
sI67
g431
sI68
g433
sI61
g419
sI62
g421
sI63
g423
ssI61
(dp551
sI62
(dp552
sI63
(dp553
sI64
(dp554
sI65
(dp555
sI66
(dp556
sI67
(dp557
sI68
(dp558
I72
g441
sI69
g435
sI70
g437
sI71
g439
ssI69
(dp559
sI70
(dp560
sI71
(dp561
sI72
(dp562
sI73
(dp563
sI74
(dp564
sI75
(dp565
sI76
(dp566
sI77
(dp567
sI78
(dp568
sI79
(dp569
sI80
(dp570
sI81
(dp571
sI82
(dp572
sI83
(dp573
sI84
(dp574
sI85
(dp575
sI86
(dp576
sI87
(dp577
I88
g478
sI89
g480
ssI88
(dp578
sI89
(dp579
sI90
(dp580
I76
g450
sI86
g474
ssI91
(dp581
I81
g462
sI83
g467
sI77
g453
sssbsS'nodes'
p582
(lp583
g92
ag0
(g90
g2
Ntp584
Rp585
(dp586
g94
g109
sg95
g98
sS'id'
p587
I2
sg70
g109
sbag0
(g90
g2
Ntp588
Rp589
(dp590
g94
g111
sg95
g98
sg587
I3
sg70
g111
sbag0
(g90
g2
Ntp591
Rp592
(dp593
g94
g113
sg95
g98
sg587
I4
sg70
g113
sbag0
(g90
g2
Ntp594
Rp595
(dp596
g94
g115
sg95
g98
sg587
I5
sg70
g115
sbag0
(g90
g2
Ntp597
Rp598
(dp599
g94
g117
sg95
g98
sg587
I6
sg70
g117
sbag0
(g90
g2
Ntp600
Rp601
(dp602
g94
g119
sg95
g98
sg587
I7
sg70
g119
sbag0
(g90
g2
Ntp603
Rp604
(dp605
g94
g121
sg95
g98
sg587
I8
sg70
g121
sbag0
(g90
g2
Ntp606
Rp607
(dp608
g94
g123
sg95
g98
sg587
I9
sg70
g123
sbag0
(g90
g2
Ntp609
Rp610
(dp611
g94
g125
sg95
g98
sg587
I10
sg70
g125
sbag0
(g90
g2
Ntp612
Rp613
(dp614
g94
g127
sg95
g98
sg587
I11
sg70
g127
sbag0
(g90
g2
Ntp615
Rp616
(dp617
g94
g129
sg95
g98
sg587
I12
sg70
g129
sbag0
(g90
g2
Ntp618
Rp619
(dp620
g94
g131
sg95
g98
sg587
I13
sg70
g131
sbag0
(g90
g2
Ntp621
Rp622
(dp623
g94
g133
sg95
g98
sg587
I14
sg70
g133
sbag0
(g90
g2
Ntp624
Rp625
(dp626
g94
g135
sg95
g98
sg587
I15
sg70
g135
sbag0
(g90
g2
Ntp627
Rp628
(dp629
g94
g137
sg95
g98
sg587
I16
sg70
g137
sbag0
(g90
g2
Ntp630
Rp631
(dp632
g94
g139
sg95
g98
sg587
I17
sg70
g139
sbag0
(g90
g2
Ntp633
Rp634
(dp635
g94
g141
sg95
g98
sg587
I18
sg70
g141
sbag0
(g90
g2
Ntp636
Rp637
(dp638
g94
g143
sg95
g98
sg587
I19
sg70
g143
sbag0
(g90
g2
Ntp639
Rp640
(dp641
g94
g145
sg95
g98
sg587
I20
sg70
g145
sbag0
(g90
g2
Ntp642
Rp643
(dp644
g94
g147
sg95
g98
sg587
I21
sg70
g147
sbag0
(g90
g2
Ntp645
Rp646
(dp647
g94
g149
sg95
g98
sg587
I22
sg70
g149
sbag0
(g90
g2
Ntp648
Rp649
(dp650
g94
g151
sg95
g98
sg587
I23
sg70
g151
sbag0
(g90
g2
Ntp651
Rp652
(dp653
g94
g153
sg95
g98
sg587
I24
sg70
g153
sbag0
(g90
g2
Ntp654
Rp655
(dp656
g94
g155
sg95
g98
sg587
I25
sg70
g155
sbag0
(g90
g2
Ntp657
Rp658
(dp659
g94
g157
sg95
g98
sg587
I26
sg70
g157
sbag0
(g90
g2
Ntp660
Rp661
(dp662
g94
g159
sg95
g98
sg587
I27
sg70
g159
sbag0
(g90
g2
Ntp663
Rp664
(dp665
g94
g161
sg95
g98
sg587
I28
sg70
g161
sbag0
(g90
g2
Ntp666
Rp667
(dp668
g94
g163
sg95
g98
sg587
I29
sg70
g163
sbag0
(g90
g2
Ntp669
Rp670
(dp671
g94
g165
sg95
g98
sg587
I30
sg70
g165
sbag0
(g90
g2
Ntp672
Rp673
(dp674
g94
g167
sg95
g98
sg587
I31
sg70
g167
sbag0
(g90
g2
Ntp675
Rp676
(dp677
g94
g169
sg95
g98
sg587
I32
sg70
g169
sbag0
(g90
g2
Ntp678
Rp679
(dp680
g94
g171
sg95
g98
sg587
I33
sg70
g171
sbag0
(g90
g2
Ntp681
Rp682
(dp683
g94
g173
sg95
g98
sg587
I34
sg70
g173
sbag0
(g90
g2
Ntp684
Rp685
(dp686
g94
g175
sg95
g98
sg587
I35
sg70
g175
sbag0
(g90
g2
Ntp687
Rp688
(dp689
g94
g177
sg95
g98
sg587
I36
sg70
g177
sbag0
(g90
g2
Ntp690
Rp691
(dp692
g94
g179
sg95
g98
sg587
I37
sg70
g179
sbag0
(g90
g2
Ntp693
Rp694
(dp695
g94
g181
sg95
g98
sg587
I38
sg70
g181
sbag0
(g90
g2
Ntp696
Rp697
(dp698
g94
g183
sg95
g98
sg587
I39
sg70
g183
sbag0
(g90
g2
Ntp699
Rp700
(dp701
g94
g185
sg95
g98
sg587
I40
sg70
g185
sbag0
(g90
g2
Ntp702
Rp703
(dp704
g94
g187
sg95
g98
sg587
I41
sg70
g187
sbag0
(g90
g2
Ntp705
Rp706
(dp707
g94
g189
sg95
g98
sg587
I42
sg70
g189
sbag0
(g90
g2
Ntp708
Rp709
(dp710
g94
g191
sg95
g98
sg587
I43
sg70
g191
sbag0
(g90
g2
Ntp711
Rp712
(dp713
g94
g193
sg95
g98
sg587
I44
sg70
g193
sbag0
(g90
g2
Ntp714
Rp715
(dp716
g94
g195
sg95
g98
sg587
I45
sg70
g195
sbag0
(g90
g2
Ntp717
Rp718
(dp719
g94
g197
sg95
g98
sg587
I46
sg70
g197
sbag0
(g90
g2
Ntp720
Rp721
(dp722
g94
g199
sg95
g98
sg587
I47
sg70
g199
sbag0
(g90
g2
Ntp723
Rp724
(dp725
g94
g201
sg95
g98
sg587
I48
sg70
g201
sbag0
(g90
g2
Ntp726
Rp727
(dp728
g94
g203
sg95
g98
sg587
I49
sg70
g203
sbag0
(g90
g2
Ntp729
Rp730
(dp731
g94
g205
sg95
g98
sg587
I50
sg70
g205
sbag0
(g90
g2
Ntp732
Rp733
(dp734
g94
g207
sg95
g98
sg587
I51
sg70
g207
sbag0
(g90
g2
Ntp735
Rp736
(dp737
g94
g209
sg95
g98
sg587
I52
sg70
g209
sbag0
(g90
g2
Ntp738
Rp739
(dp740
g94
g211
sg95
g98
sg587
I53
sg70
g211
sbag0
(g90
g2
Ntp741
Rp742
(dp743
g94
g213
sg95
g98
sg587
I54
sg70
g213
sbag0
(g90
g2
Ntp744
Rp745
(dp746
g94
g215
sg95
g98
sg587
I55
sg70
g215
sbag0
(g90
g2
Ntp747
Rp748
(dp749
g94
g217
sg95
g98
sg587
I56
sg70
g217
sbag0
(g90
g2
Ntp750
Rp751
(dp752
g94
g219
sg95
g98
sg587
I57
sg70
g219
sbag0
(g90
g2
Ntp753
Rp754
(dp755
g94
g221
sg95
g98
sg587
I58
sg70
g221
sbag0
(g90
g2
Ntp756
Rp757
(dp758
g94
g223
sg95
g98
sg587
I59
sg70
g223
sbag0
(g90
g2
Ntp759
Rp760
(dp761
g94
g225
sg95
g98
sg587
I60
sg70
g225
sbag0
(g90
g2
Ntp762
Rp763
(dp764
g94
g227
sg95
g98
sg587
I61
sg70
g227
sbag0
(g90
g2
Ntp765
Rp766
(dp767
g94
g229
sg95
g98
sg587
I62
sg70
g229
sbag0
(g90
g2
Ntp768
Rp769
(dp770
g94
g231
sg95
g98
sg587
I63
sg70
g231
sbag0
(g90
g2
Ntp771
Rp772
(dp773
g94
g233
sg95
g98
sg587
I64
sg70
g233
sbag0
(g90
g2
Ntp774
Rp775
(dp776
g94
g235
sg95
g98
sg587
I65
sg70
g235
sbag0
(g90
g2
Ntp777
Rp778
(dp779
g94
g237
sg95
g98
sg587
I66
sg70
g237
sbag0
(g90
g2
Ntp780
Rp781
(dp782
g94
g239
sg95
g98
sg587
I67
sg70
g239
sbag0
(g90
g2
Ntp783
Rp784
(dp785
g94
g241
sg95
g98
sg587
I68
sg70
g241
sbag0
(g90
g2
Ntp786
Rp787
(dp788
g94
g243
sg95
g98
sg587
I69
sg70
g243
sbag0
(g90
g2
Ntp789
Rp790
(dp791
g94
g245
sg95
g98
sg587
I70
sg70
g245
sbag0
(g90
g2
Ntp792
Rp793
(dp794
g94
g247
sg95
g98
sg587
I71
sg70
g247
sbag0
(g90
g2
Ntp795
Rp796
(dp797
g94
g249
sg95
g98
sg587
I72
sg70
g249
sbag0
(g90
g2
Ntp798
Rp799
(dp800
g94
g251
sg95
g98
sg587
I73
sg70
g251
sbag0
(g90
g2
Ntp801
Rp802
(dp803
g94
g253
sg95
g98
sg587
I74
sg70
g253
sbag0
(g90
g2
Ntp804
Rp805
(dp806
g94
g255
sg95
g98
sg587
I75
sg70
g255
sbag0
(g90
g2
Ntp807
Rp808
(dp809
g94
g257
sg95
g98
sg587
I76
sg70
g257
sbag0
(g90
g2
Ntp810
Rp811
(dp812
g94
g259
sg95
g98
sg587
I77
sg70
g259
sbag0
(g90
g2
Ntp813
Rp814
(dp815
g94
g261
sg95
g98
sg587
I78
sg70
g261
sbag0
(g90
g2
Ntp816
Rp817
(dp818
g94
g263
sg95
g98
sg587
I79
sg70
g263
sbag0
(g90
g2
Ntp819
Rp820
(dp821
g94
g265
sg95
g98
sg587
I80
sg70
g265
sbag0
(g90
g2
Ntp822
Rp823
(dp824
g94
g267
sg95
g98
sg587
I81
sg70
g267
sbag0
(g90
g2
Ntp825
Rp826
(dp827
g94
g269
sg95
g98
sg587
I82
sg70
g269
sbag0
(g90
g2
Ntp828
Rp829
(dp830
g94
g271
sg95
g98
sg587
I83
sg70
g271
sbag0
(g90
g2
Ntp831
Rp832
(dp833
g94
g273
sg95
g98
sg587
I84
sg70
g273
sbag0
(g90
g2
Ntp834
Rp835
(dp836
g94
g275
sg95
g98
sg587
I85
sg70
g275
sbag0
(g90
g2
Ntp837
Rp838
(dp839
g94
g277
sg95
g98
sg587
I86
sg70
g277
sbag0
(g90
g2
Ntp840
Rp841
(dp842
g94
g279
sg95
g98
sg587
I87
sg70
g279
sbag0
(g90
g2
Ntp843
Rp844
(dp845
g94
g281
sg95
g98
sg587
I88
sg70
g281
sbag0
(g90
g2
Ntp846
Rp847
(dp848
g94
g283
sg95
g98
sg587
I89
sg70
g283
sbag0
(g90
g2
Ntp849
Rp850
(dp851
g94
g285
sg95
g98
sg587
I90
sg70
g285
sbag0
(g90
g2
Ntp852
Rp853
(dp854
g94
g287
sg95
g98
sg587
I91
sg70
g287
sbasS'edges'
p855
(lp856
g0
(cconcept
SEM_REL
p857
g2
Ntp858
Rp859
(dp860
S'pTo'
p861
g585
sg297
g298
sS'pFrom'
p862
g589
sbag0
(g857
g2
Ntp863
Rp864
(dp865
g861
g589
sg297
g298
sg862
g592
sbag0
(g857
g2
Ntp866
Rp867
(dp868
g861
g592
sg297
g298
sg862
g595
sbag0
(g857
g2
Ntp869
Rp870
(dp871
g861
g592
sg297
g298
sg862
g598
sbag0
(g857
g2
Ntp872
Rp873
(dp874
g861
g589
sg297
g298
sg862
g601
sbag0
(g857
g2
Ntp875
Rp876
(dp877
g861
g601
sg297
g298
sg862
g604
sbag0
(g857
g2
Ntp878
Rp879
(dp880
g861
g589
sg297
g298
sg862
g607
sbag0
(g857
g2
Ntp881
Rp882
(dp883
g861
g607
sg297
g298
sg862
g610
sbag0
(g857
g2
Ntp884
Rp885
(dp886
g861
g607
sg297
g298
sg862
g613
sbag0
(g857
g2
Ntp887
Rp888
(dp889
g861
g607
sg297
g298
sg862
g616
sbag0
(g857
g2
Ntp890
Rp891
(dp892
g861
g607
sg297
g298
sg862
g619
sbag0
(g857
g2
Ntp893
Rp894
(dp895
g861
g607
sg297
g298
sg862
g622
sbag0
(g857
g2
Ntp896
Rp897
(dp898
g861
g607
sg297
g298
sg862
g625
sbag0
(g857
g2
Ntp899
Rp900
(dp901
g861
g607
sg297
g298
sg862
g628
sbag0
(g857
g2
Ntp902
Rp903
(dp904
g861
g607
sg297
g298
sg862
g631
sbag0
(g857
g2
Ntp905
Rp906
(dp907
g861
g607
sg297
g298
sg862
g634
sbag0
(g857
g2
Ntp908
Rp909
(dp910
g861
g589
sg297
g298
sg862
g637
sbag0
(g857
g2
Ntp911
Rp912
(dp913
g861
g637
sg297
g298
sg862
g640
sbag0
(g857
g2
Ntp914
Rp915
(dp916
g861
g637
sg297
g298
sg862
g643
sbag0
(g857
g2
Ntp917
Rp918
(dp919
g861
g585
sg297
g298
sg862
g646
sbag0
(g857
g2
Ntp920
Rp921
(dp922
g861
g646
sg297
g298
sg862
g649
sbag0
(g857
g2
Ntp923
Rp924
(dp925
g861
g649
sg297
g298
sg862
g652
sbag0
(g857
g2
Ntp926
Rp927
(dp928
g861
g649
sg297
g298
sg862
g655
sbag0
(g857
g2
Ntp929
Rp930
(dp931
g861
g649
sg297
g298
sg862
g658
sbag0
(g857
g2
Ntp932
Rp933
(dp934
g861
g649
sg297
g298
sg862
g661
sbag0
(g857
g2
Ntp935
Rp936
(dp937
g861
g649
sg297
g298
sg862
g664
sbag0
(g857
g2
Ntp938
Rp939
(dp940
g861
g646
sg297
g298
sg862
g667
sbag0
(g857
g2
Ntp941
Rp942
(dp943
g861
g667
sg297
g298
sg862
g670
sbag0
(g857
g2
Ntp944
Rp945
(dp946
g861
g667
sg297
g298
sg862
g673
sbag0
(g857
g2
Ntp947
Rp948
(dp949
g861
g667
sg297
g298
sg862
g676
sbag0
(g857
g2
Ntp950
Rp951
(dp952
g861
g646
sg297
g298
sg862
g679
sbag0
(g857
g2
Ntp953
Rp954
(dp955
g861
g679
sg297
g298
sg862
g682
sbag0
(g857
g2
Ntp956
Rp957
(dp958
g861
g679
sg297
g298
sg862
g685
sbag0
(g857
g2
Ntp959
Rp960
(dp961
g861
g585
sg297
g298
sg862
g688
sbag0
(g857
g2
Ntp962
Rp963
(dp964
g861
g688
sg297
g298
sg862
g691
sbag0
(g857
g2
Ntp965
Rp966
(dp967
g861
g691
sg297
g298
sg862
g694
sbag0
(g857
g2
Ntp968
Rp969
(dp970
g861
g691
sg297
g298
sg862
g697
sbag0
(g857
g2
Ntp971
Rp972
(dp973
g861
g691
sg297
g298
sg862
g700
sbag0
(g857
g2
Ntp974
Rp975
(dp976
g861
g691
sg297
g298
sg862
g703
sbag0
(g857
g2
Ntp977
Rp978
(dp979
g861
g691
sg297
g298
sg862
g706
sbag0
(g857
g2
Ntp980
Rp981
(dp982
g861
g706
sg297
g298
sg862
g709
sbag0
(g857
g2
Ntp983
Rp984
(dp985
g861
g709
sg297
g298
sg862
g712
sbag0
(g857
g2
Ntp986
Rp987
(dp988
g861
g706
sg297
g298
sg862
g715
sbag0
(g857
g2
Ntp989
Rp990
(dp991
g861
g715
sg297
g298
sg862
g712
sbag0
(g857
g2
Ntp992
Rp993
(dp994
g861
g688
sg297
g298
sg862
g718
sbag0
(g857
g2
Ntp995
Rp996
(dp997
g861
g718
sg297
g298
sg862
g721
sbag0
(g857
g2
Ntp998
Rp999
(dp1000
g861
g721
sg297
g298
sg862
g724
sbag0
(g857
g2
Ntp1001
Rp1002
(dp1003
g861
g721
sg297
g298
sg862
g727
sbag0
(g857
g2
Ntp1004
Rp1005
(dp1006
g861
g718
sg297
g298
sg862
g730
sbag0
(g857
g2
Ntp1007
Rp1008
(dp1009
g861
g730
sg297
g298
sg862
g733
sbag0
(g857
g2
Ntp1010
Rp1011
(dp1012
g861
g688
sg297
g298
sg862
g736
sbag0
(g857
g2
Ntp1013
Rp1014
(dp1015
g861
g688
sg297
g298
sg862
g739
sbag0
(g857
g2
Ntp1016
Rp1017
(dp1018
g861
g739
sg297
g298
sg862
g694
sbag0
(g857
g2
Ntp1019
Rp1020
(dp1021
g861
g739
sg297
g298
sg862
g703
sbag0
(g857
g2
Ntp1022
Rp1023
(dp1024
g861
g585
sg297
g298
sg862
g742
sbag0
(g857
g2
Ntp1025
Rp1026
(dp1027
g861
g585
sg297
g298
sg862
g745
sbag0
(g857
g2
Ntp1028
Rp1029
(dp1030
g861
g745
sg297
g298
sg862
g748
sbag0
(g857
g2
Ntp1031
Rp1032
(dp1033
g861
g748
sg297
g298
sg862
g751
sbag0
(g857
g2
Ntp1034
Rp1035
(dp1036
g861
g748
sg297
g298
sg862
g754
sbag0
(g857
g2
Ntp1037
Rp1038
(dp1039
g861
g745
sg297
g298
sg862
g757
sbag0
(g857
g2
Ntp1040
Rp1041
(dp1042
g861
g757
sg297
g298
sg862
g760
sbag0
(g857
g2
Ntp1043
Rp1044
(dp1045
g861
g760
sg297
g298
sg862
g763
sbag0
(g857
g2
Ntp1046
Rp1047
(dp1048
g861
g760
sg297
g298
sg862
g766
sbag0
(g857
g2
Ntp1049
Rp1050
(dp1051
g861
g760
sg297
g298
sg862
g769
sbag0
(g857
g2
Ntp1052
Rp1053
(dp1054
g861
g760
sg297
g298
sg862
g772
sbag0
(g857
g2
Ntp1055
Rp1056
(dp1057
g861
g760
sg297
g298
sg862
g775
sbag0
(g857
g2
Ntp1058
Rp1059
(dp1060
g861
g760
sg297
g298
sg862
g778
sbag0
(g857
g2
Ntp1061
Rp1062
(dp1063
g861
g760
sg297
g298
sg862
g781
sbag0
(g857
g2
Ntp1064
Rp1065
(dp1066
g861
g760
sg297
g298
sg862
g784
sbag0
(g857
g2
Ntp1067
Rp1068
(dp1069
g861
g784
sg297
g298
sg862
g787
sbag0
(g857
g2
Ntp1070
Rp1071
(dp1072
g861
g784
sg297
g298
sg862
g790
sbag0
(g857
g2
Ntp1073
Rp1074
(dp1075
g861
g784
sg297
g298
sg862
g793
sbag0
(g857
g2
Ntp1076
Rp1077
(dp1078
g861
g784
sg297
g298
sg862
g796
sbag0
(g857
g2
Ntp1079
Rp1080
(dp1081
g861
g757
sg297
g298
sg862
g751
sbag0
(g857
g2
Ntp1082
Rp1083
(dp1084
g861
g751
sg297
g298
sg862
g799
sbag0
(g857
g2
Ntp1085
Rp1086
(dp1087
g861
g751
sg297
g298
sg862
g802
sbag0
(g857
g2
Ntp1088
Rp1089
(dp1090
g861
g751
sg297
g298
sg862
g805
sbag0
(g857
g2
Ntp1091
Rp1092
(dp1093
g861
g757
sg297
g298
sg862
g754
sbag0
(g857
g2
Ntp1094
Rp1095
(dp1096
g861
g754
sg297
g298
sg862
g808
sbag0
(g857
g2
Ntp1097
Rp1098
(dp1099
g861
g754
sg297
g298
sg862
g811
sbag0
(g857
g2
Ntp1100
Rp1101
(dp1102
g861
g754
sg297
g298
sg862
g814
sbag0
(g857
g2
Ntp1103
Rp1104
(dp1105
g861
g754
sg297
g298
sg862
g817
sbag0
(g857
g2
Ntp1106
Rp1107
(dp1108
g861
g754
sg297
g298
sg862
g820
sbag0
(g857
g2
Ntp1109
Rp1110
(dp1111
g861
g754
sg297
g298
sg862
g823
sbag0
(g857
g2
Ntp1112
Rp1113
(dp1114
g861
g754
sg297
g298
sg862
g826
sbag0
(g857
g2
Ntp1115
Rp1116
(dp1117
g861
g754
sg297
g298
sg862
g829
sbag0
(g857
g2
Ntp1118
Rp1119
(dp1120
g861
g754
sg297
g298
sg862
g832
sbag0
(g857
g2
Ntp1121
Rp1122
(dp1123
g861
g754
sg297
g298
sg862
g835
sbag0
(g857
g2
Ntp1124
Rp1125
(dp1126
g861
g754
sg297
g298
sg862
g838
sbag0
(g857
g2
Ntp1127
Rp1128
(dp1129
g861
g745
sg297
g298
sg862
g841
sbag0
(g857
g2
Ntp1130
Rp1131
(dp1132
g861
g841
sg297
g298
sg862
g844
sbag0
(g857
g2
Ntp1133
Rp1134
(dp1135
g861
g841
sg297
g298
sg862
g847
sbag0
(g857
g2
Ntp1136
Rp1137
(dp1138
g861
g745
sg297
g298
sg862
g850
sbag0
(g857
g2
Ntp1139
Rp1140
(dp1141
g861
g850
sg297
g298
sg862
g808
sbag0
(g857
g2
Ntp1142
Rp1143
(dp1144
g861
g850
sg297
g298
sg862
g838
sbag0
(g857
g2
Ntp1145
Rp1146
(dp1147
g861
g745
sg297
g298
sg862
g853
sbag0
(g857
g2
Ntp1148
Rp1149
(dp1150
g861
g853
sg297
g298
sg862
g823
sbag0
(g857
g2
Ntp1151
Rp1152
(dp1153
g861
g853
sg297
g298
sg862
g829
sbag0
(g857
g2
Ntp1154
Rp1155
(dp1156
g861
g853
sg297
g298
sg862
g811
sbasS'neutral'
p1157
g92
sbsg587
I1
sg70
g86
sbssS'model'
p1158
Nsg587
I9
sS'LTM'
p1159
g66
sS'init_act'
p1160
F1.0
sbag0
(clanguage_schemas
CPT_ACTION_SCHEMA
p1161
g2
Ntp1162
Rp1163
(dp1164
g70
g111
sg87
(dp1165
g89
g589
ssg1158
Nsg587
I10
sg1159
g66
sg1160
F1.0
sbag0
(g1161
g2
Ntp1166
Rp1167
(dp1168
g70
g113
sg87
(dp1169
g89
g592
ssg1158
Nsg587
I11
sg1159
g66
sg1160
F1.0
sbag0
(g1161
g2
Ntp1170
Rp1171
(dp1172
g70
g115
sg87
(dp1173
g89
g595
ssg1158
Nsg587
I12
sg1159
g66
sg1160
F1.0
sbag0
(g1161
g2
Ntp1174
Rp1175
(dp1176
g70
g117
sg87
(dp1177
g89
g598
ssg1158
Nsg587
I13
sg1159
g66
sg1160
F1.0
sbag0
(g1161
g2
Ntp1178
Rp1179
(dp1180
g70
g119
sg87
(dp1181
g89
g601
ssg1158
Nsg587
I14
sg1159
g66
sg1160
F1.0
sbag0
(g1161
g2
Ntp1182
Rp1183
(dp1184
g70
g121
sg87
(dp1185
g89
g604
ssg1158
Nsg587
I15
sg1159
g66
sg1160
F1.0
sbag0
(g1161
g2
Ntp1186
Rp1187
(dp1188
g70
g123
sg87
(dp1189
g89
g607
ssg1158
Nsg587
I16
sg1159
g66
sg1160
F1.0
sbag0
(g1161
g2
Ntp1190
Rp1191
(dp1192
g70
g125
sg87
(dp1193
g89
g610
ssg1158
Nsg587
I17
sg1159
g66
sg1160
F1.0
sbag0
(g1161
g2
Ntp1194
Rp1195
(dp1196
g70
g127
sg87
(dp1197
g89
g613
ssg1158
Nsg587
I18
sg1159
g66
sg1160
F1.0
sbag0
(g1161
g2
Ntp1198
Rp1199
(dp1200
g70
g129
sg87
(dp1201
g89
g616
ssg1158
Nsg587
I19
sg1159
g66
sg1160
F1.0
sbag0
(g1161
g2
Ntp1202
Rp1203
(dp1204
g70
g131
sg87
(dp1205
g89
g619
ssg1158
Nsg587
I20
sg1159
g66
sg1160
F1.0
sbag0
(g1161
g2
Ntp1206
Rp1207
(dp1208
g70
g133
sg87
(dp1209
g89
g622
ssg1158
Nsg587
I21
sg1159
g66
sg1160
F1.0
sbag0
(g1161
g2
Ntp1210
Rp1211
(dp1212
g70
g135
sg87
(dp1213
g89
g625
ssg1158
Nsg587
I22
sg1159
g66
sg1160
F1.0
sbag0
(g1161
g2
Ntp1214
Rp1215
(dp1216
g70
g137
sg87
(dp1217
g89
g628
ssg1158
Nsg587
I23
sg1159
g66
sg1160
F1.0
sbag0
(g1161
g2
Ntp1218
Rp1219
(dp1220
g70
g139
sg87
(dp1221
g89
g631
ssg1158
Nsg587
I24
sg1159
g66
sg1160
F1.0
sbag0
(g1161
g2
Ntp1222
Rp1223
(dp1224
g70
g141
sg87
(dp1225
g89
g634
ssg1158
Nsg587
I25
sg1159
g66
sg1160
F1.0
sbag0
(g1161
g2
Ntp1226
Rp1227
(dp1228
g70
g143
sg87
(dp1229
g89
g637
ssg1158
Nsg587
I26
sg1159
g66
sg1160
F1.0
sbag0
(g1161
g2
Ntp1230
Rp1231
(dp1232
g70
g145
sg87
(dp1233
g89
g640
ssg1158
Nsg587
I27
sg1159
g66
sg1160
F1.0
sbag0
(g1161
g2
Ntp1234
Rp1235
(dp1236
g70
g147
sg87
(dp1237
g89
g643
ssg1158
Nsg587
I28
sg1159
g66
sg1160
F1.0
sbag0
(clanguage_schemas
CPT_PROPERTY_SCHEMA
p1238
g2
Ntp1239
Rp1240
(dp1241
g70
g149
sg87
(dp1242
g89
g646
ssg1158
Nsg587
I29
sg1159
g66
sg1160
F1.0
sbag0
(g1238
g2
Ntp1243
Rp1244
(dp1245
g70
g151
sg87
(dp1246
g89
g649
ssg1158
Nsg587
I30
sg1159
g66
sg1160
F1.0
sbag0
(g1238
g2
Ntp1247
Rp1248
(dp1249
g70
g153
sg87
(dp1250
g89
g652
ssg1158
Nsg587
I31
sg1159
g66
sg1160
F1.0
sbag0
(g1238
g2
Ntp1251
Rp1252
(dp1253
g70
g155
sg87
(dp1254
g89
g655
ssg1158
Nsg587
I32
sg1159
g66
sg1160
F1.0
sbag0
(g1238
g2
Ntp1255
Rp1256
(dp1257
g70
g157
sg87
(dp1258
g89
g658
ssg1158
Nsg587
I33
sg1159
g66
sg1160
F1.0
sbag0
(g1238
g2
Ntp1259
Rp1260
(dp1261
g70
g159
sg87
(dp1262
g89
g661
ssg1158
Nsg587
I34
sg1159
g66
sg1160
F1.0
sbag0
(g1238
g2
Ntp1263
Rp1264
(dp1265
g70
g161
sg87
(dp1266
g89
g664
ssg1158
Nsg587
I35
sg1159
g66
sg1160
F1.0
sbag0
(g1238
g2
Ntp1267
Rp1268
(dp1269
g70
g163
sg87
(dp1270
g89
g667
ssg1158
Nsg587
I36
sg1159
g66
sg1160
F1.0
sbag0
(g1238
g2
Ntp1271
Rp1272
(dp1273
g70
g165
sg87
(dp1274
g89
g670
ssg1158
Nsg587
I37
sg1159
g66
sg1160
F1.0
sbag0
(g1238
g2
Ntp1275
Rp1276
(dp1277
g70
g167
sg87
(dp1278
g89
g673
ssg1158
Nsg587
I38
sg1159
g66
sg1160
F1.0
sbag0
(g1238
g2
Ntp1279
Rp1280
(dp1281
g70
g169
sg87
(dp1282
g89
g676
ssg1158
Nsg587
I39
sg1159
g66
sg1160
F1.0
sbag0
(g1238
g2
Ntp1283
Rp1284
(dp1285
g70
g171
sg87
(dp1286
g89
g679
ssg1158
Nsg587
I40
sg1159
g66
sg1160
F1.0
sbag0
(g1238
g2
Ntp1287
Rp1288
(dp1289
g70
g173
sg87
(dp1290
g89
g682
ssg1158
Nsg587
I41
sg1159
g66
sg1160
F1.0
sbag0
(g1238
g2
Ntp1291
Rp1292
(dp1293
g70
g175
sg87
(dp1294
g89
g685
ssg1158
Nsg587
I42
sg1159
g66
sg1160
F1.0
sbag0
(clanguage_schemas
CPT_RELATION_SCHEMA
p1295
g2
Ntp1296
Rp1297
(dp1298
g70
g177
sg87
(dp1299
g861
Nsg89
g688
sg862
Nssg1158
Nsg587
I43
sg1159
g66
sg1160
F1.0
sbag0
(g1295
g2
Ntp1300
Rp1301
(dp1302
g70
g179
sg87
(dp1303
g861
Nsg89
g691
sg862
Nssg1158
Nsg587
I44
sg1159
g66
sg1160
F1.0
sbag0
(g1295
g2
Ntp1304
Rp1305
(dp1306
g70
g181
sg87
(dp1307
g861
Nsg89
g694
sg862
Nssg1158
Nsg587
I45
sg1159
g66
sg1160
F1.0
sbag0
(g1295
g2
Ntp1308
Rp1309
(dp1310
g70
g183
sg87
(dp1311
g861
Nsg89
g697
sg862
Nssg1158
Nsg587
I46
sg1159
g66
sg1160
F1.0
sbag0
(g1295
g2
Ntp1312
Rp1313
(dp1314
g70
g185
sg87
(dp1315
g861
Nsg89
g700
sg862
Nssg1158
Nsg587
I47
sg1159
g66
sg1160
F1.0
sbag0
(g1295
g2
Ntp1316
Rp1317
(dp1318
g70
g187
sg87
(dp1319
g861
Nsg89
g703
sg862
Nssg1158
Nsg587
I48
sg1159
g66
sg1160
F1.0
sbag0
(g1295
g2
Ntp1320
Rp1321
(dp1322
g70
g189
sg87
(dp1323
g861
Nsg89
g706
sg862
Nssg1158
Nsg587
I49
sg1159
g66
sg1160
F1.0
sbag0
(g1295
g2
Ntp1324
Rp1325
(dp1326
g70
g191
sg87
(dp1327
g861
Nsg89
g709
sg862
Nssg1158
Nsg587
I50
sg1159
g66
sg1160
F1.0
sbag0
(g1295
g2
Ntp1328
Rp1329
(dp1330
g70
g193
sg87
(dp1331
g861
Nsg89
g712
sg862
Nssg1158
Nsg587
I51
sg1159
g66
sg1160
F1.0
sbag0
(g1295
g2
Ntp1332
Rp1333
(dp1334
g70
g195
sg87
(dp1335
g861
Nsg89
g715
sg862
Nssg1158
Nsg587
I52
sg1159
g66
sg1160
F1.0
sbag0
(g1295
g2
Ntp1336
Rp1337
(dp1338
g70
g197
sg87
(dp1339
g861
Nsg89
g718
sg862
Nssg1158
Nsg587
I53
sg1159
g66
sg1160
F1.0
sbag0
(g1295
g2
Ntp1340
Rp1341
(dp1342
g70
g199
sg87
(dp1343
g861
Nsg89
g721
sg862
Nssg1158
Nsg587
I54
sg1159
g66
sg1160
F1.0
sbag0
(g1295
g2
Ntp1344
Rp1345
(dp1346
g70
g201
sg87
(dp1347
g861
Nsg89
g724
sg862
Nssg1158
Nsg587
I55
sg1159
g66
sg1160
F1.0
sbag0
(g1295
g2
Ntp1348
Rp1349
(dp1350
g70
g203
sg87
(dp1351
g861
Nsg89
g727
sg862
Nssg1158
Nsg587
I56
sg1159
g66
sg1160
F1.0
sbag0
(g1295
g2
Ntp1352
Rp1353
(dp1354
g70
g205
sg87
(dp1355
g861
Nsg89
g730
sg862
Nssg1158
Nsg587
I57
sg1159
g66
sg1160
F1.0
sbag0
(g1295
g2
Ntp1356
Rp1357
(dp1358
g70
g207
sg87
(dp1359
g861
Nsg89
g733
sg862
Nssg1158
Nsg587
I58
sg1159
g66
sg1160
F1.0
sbag0
(g1295
g2
Ntp1360
Rp1361
(dp1362
g70
g209
sg87
(dp1363
g861
Nsg89
g736
sg862
Nssg1158
Nsg587
I59
sg1159
g66
sg1160
F1.0
sbag0
(g1295
g2
Ntp1364
Rp1365
(dp1366
g70
g211
sg87
(dp1367
g861
Nsg89
g739
sg862
Nssg1158
Nsg587
I60
sg1159
g66
sg1160
F1.0
sbag0
(g82
g2
Ntp1368
Rp1369
(dp1370
g70
g213
sg87
(dp1371
g89
g742
ssg1158
Nsg587
I61
sg1159
g66
sg1160
F1.0
sbag0
(clanguage_schemas
CPT_ENTITY_SCHEMA
p1372
g2
Ntp1373
Rp1374
(dp1375
g70
g215
sg87
(dp1376
g89
g745
ssg1158
Nsg587
I62
sg1159
g66
sg1160
F1.0
sbag0
(g1372
g2
Ntp1377
Rp1378
(dp1379
g70
g217
sg87
(dp1380
g89
g748
ssg1158
Nsg587
I63
sg1159
g66
sg1160
F1.0
sbag0
(g1372
g2
Ntp1381
Rp1382
(dp1383
g70
g219
sg87
(dp1384
g89
g751
ssg1158
Nsg587
I64
sg1159
g66
sg1160
F1.0
sbag0
(g1372
g2
Ntp1385
Rp1386
(dp1387
g70
g221
sg87
(dp1388
g89
g754
ssg1158
Nsg587
I65
sg1159
g66
sg1160
F1.0
sbag0
(g1372
g2
Ntp1389
Rp1390
(dp1391
g70
g223
sg87
(dp1392
g89
g757
ssg1158
Nsg587
I66
sg1159
g66
sg1160
F1.0
sbag0
(g1372
g2
Ntp1393
Rp1394
(dp1395
g70
g225
sg87
(dp1396
g89
g760
ssg1158
Nsg587
I67
sg1159
g66
sg1160
F1.0
sbag0
(g1372
g2
Ntp1397
Rp1398
(dp1399
g70
g227
sg87
(dp1400
g89
g763
ssg1158
Nsg587
I68
sg1159
g66
sg1160
F1.0
sbag0
(g1372
g2
Ntp1401
Rp1402
(dp1403
g70
g229
sg87
(dp1404
g89
g766
ssg1158
Nsg587
I69
sg1159
g66
sg1160
F1.0
sbag0
(g1372
g2
Ntp1405
Rp1406
(dp1407
g70
g231
sg87
(dp1408
g89
g769
ssg1158
Nsg587
I70
sg1159
g66
sg1160
F1.0
sbag0
(g1372
g2
Ntp1409
Rp1410
(dp1411
g70
g233
sg87
(dp1412
g89
g772
ssg1158
Nsg587
I71
sg1159
g66
sg1160
F1.0
sbag0
(g1372
g2
Ntp1413
Rp1414
(dp1415
g70
g235
sg87
(dp1416
g89
g775
ssg1158
Nsg587
I72
sg1159
g66
sg1160
F1.0
sbag0
(g1372
g2
Ntp1417
Rp1418
(dp1419
g70
g237
sg87
(dp1420
g89
g778
ssg1158
Nsg587
I73
sg1159
g66
sg1160
F1.0
sbag0
(g1372
g2
Ntp1421
Rp1422
(dp1423
g70
g239
sg87
(dp1424
g89
g781
ssg1158
Nsg587
I74
sg1159
g66
sg1160
F1.0
sbag0
(g1372
g2
Ntp1425
Rp1426
(dp1427
g70
g241
sg87
(dp1428
g89
g784
ssg1158
Nsg587
I75
sg1159
g66
sg1160
F1.0
sbag0
(g1372
g2
Ntp1429
Rp1430
(dp1431
g70
g243
sg87
(dp1432
g89
g787
ssg1158
Nsg587
I76
sg1159
g66
sg1160
F1.0
sbag0
(g1372
g2
Ntp1433
Rp1434
(dp1435
g70
g245
sg87
(dp1436
g89
g790
ssg1158
Nsg587
I77
sg1159
g66
sg1160
F1.0
sbag0
(g1372
g2
Ntp1437
Rp1438
(dp1439
g70
g247
sg87
(dp1440
g89
g793
ssg1158
Nsg587
I78
sg1159
g66
sg1160
F1.0
sbag0
(g1372
g2
Ntp1441
Rp1442
(dp1443
g70
g249
sg87
(dp1444
g89
g796
ssg1158
Nsg587
I79
sg1159
g66
sg1160
F1.0
sbag0
(g1372
g2
Ntp1445
Rp1446
(dp1447
g70
g251
sg87
(dp1448
g89
g799
ssg1158
Nsg587
I80
sg1159
g66
sg1160
F1.0
sbag0
(g1372
g2
Ntp1449
Rp1450
(dp1451
g70
g253
sg87
(dp1452
g89
g802
ssg1158
Nsg587
I81
sg1159
g66
sg1160
F1.0
sbag0
(g1372
g2
Ntp1453
Rp1454
(dp1455
g70
g255
sg87
(dp1456
g89
g805
ssg1158
Nsg587
I82
sg1159
g66
sg1160
F1.0
sbag0
(g1372
g2
Ntp1457
Rp1458
(dp1459
g70
g257
sg87
(dp1460
g89
g808
ssg1158
Nsg587
I83
sg1159
g66
sg1160
F1.0
sbag0
(g1372
g2
Ntp1461
Rp1462
(dp1463
g70
g259
sg87
(dp1464
g89
g811
ssg1158
Nsg587
I84
sg1159
g66
sg1160
F1.0
sbag0
(g1372
g2
Ntp1465
Rp1466
(dp1467
g70
g261
sg87
(dp1468
g89
g814
ssg1158
Nsg587
I85
sg1159
g66
sg1160
F1.0
sbag0
(g1372
g2
Ntp1469
Rp1470
(dp1471
g70
g263
sg87
(dp1472
g89
g817
ssg1158
Nsg587
I86
sg1159
g66
sg1160
F1.0
sbag0
(g1372
g2
Ntp1473
Rp1474
(dp1475
g70
g265
sg87
(dp1476
g89
g820
ssg1158
Nsg587
I87
sg1159
g66
sg1160
F1.0
sbag0
(g1372
g2
Ntp1477
Rp1478
(dp1479
g70
g267
sg87
(dp1480
g89
g823
ssg1158
Nsg587
I88
sg1159
g66
sg1160
F1.0
sbag0
(g1372
g2
Ntp1481
Rp1482
(dp1483
g70
g269
sg87
(dp1484
g89
g826
ssg1158
Nsg587
I89
sg1159
g66
sg1160
F1.0
sbag0
(g1372
g2
Ntp1485
Rp1486
(dp1487
g70
g271
sg87
(dp1488
g89
g829
ssg1158
Nsg587
I90
sg1159
g66
sg1160
F1.0
sbag0
(g1372
g2
Ntp1489
Rp1490
(dp1491
g70
g273
sg87
(dp1492
g89
g832
ssg1158
Nsg587
I91
sg1159
g66
sg1160
F1.0
sbag0
(g1372
g2
Ntp1493
Rp1494
(dp1495
g70
g275
sg87
(dp1496
g89
g835
ssg1158
Nsg587
I92
sg1159
g66
sg1160
F1.0
sbag0
(g1372
g2
Ntp1497
Rp1498
(dp1499
g70
g277
sg87
(dp1500
g89
g838
ssg1158
Nsg587
I93
sg1159
g66
sg1160
F1.0
sbag0
(g1372
g2
Ntp1501
Rp1502
(dp1503
g70
g279
sg87
(dp1504
g89
g841
ssg1158
Nsg587
I94
sg1159
g66
sg1160
F1.0
sbag0
(g1372
g2
Ntp1505
Rp1506
(dp1507
g70
g281
sg87
(dp1508
g89
g844
ssg1158
Nsg587
I95
sg1159
g66
sg1160
F1.0
sbag0
(g1372
g2
Ntp1509
Rp1510
(dp1511
g70
g283
sg87
(dp1512
g89
g847
ssg1158
Nsg587
I96
sg1159
g66
sg1160
F1.0
sbag0
(g1372
g2
Ntp1513
Rp1514
(dp1515
g70
g285
sg87
(dp1516
g89
g850
ssg1158
Nsg587
I97
sg1159
g66
sg1160
F1.0
sbag0
(g1372
g2
Ntp1517
Rp1518
(dp1519
g70
g287
sg87
(dp1520
g89
g853
ssg1158
Nsg587
I98
sg1159
g66
sg1160
F1.0
sbasg297
S'OUT'
p1521
sg587
I11
sS'schema'
p1522
g66
sbag0
(g74
g2
Ntp1523
Rp1524
(dp1525
g70
S'to_semantic_WM'
p1526
sg79
Nsg80
g81
sg297
g1521
sg587
I12
sg1522
g66
sbasS'outputs'
p1527
(dp1528
g78
Nsg1526
NssS'connections'
p1529
(lp1530
sS'cpt_knowledge'
p1531
g98
sS'dt'
p1532
F1.0
sS'in_ports'
p1533
(lp1534
sS'params'
p1535
(dp1536
g1160
F1.0
ssS't'
p1537
I0
sS'activity'
p1538
I0
sg1158
g0
(cschema_theory
MODEL
p1539
g2
Ntp1540
Rp1541
(dp1542
S'verbose'
p1543
I00
sg70
S'language_system_P'
p1544
sS'sim_data'
p1545
(dp1546
S'system_states'
p1547
(dp1548
sg1158
(dp1549
ssg1527
(dp1550
sS'input_ports'
p1551
(lp1552
g0
(g74
g2
Ntp1553
Rp1554
(dp1555
g70
S'from_conceptualizer'
p1556
sg79
Nsg80
Nsg297
S'IN'
p1557
sg587
I1
sg1522
g0
(clanguage_schemas
SEMANTIC_WM
p1558
g2
Ntp1559
Rp1560
(dp1561
g68
(dp1562
S'from_grammatical_WM_P'
p1563
NsS'from_concept_LTM'
p1564
NsS'from_control'
p1565
NsS'from_grammatical_WM_C'
p1566
Nsg1556
NssS'schema_insts'
p1567
(lp1568
sg70
S'Semantic_WM'
p1569
sS'comp_links'
p1570
(lp1571
sg72
(lp1572
g0
(g74
g2
Ntp1573
Rp1574
(dp1575
S'port_data'
p1576
Nsg70
S'to_grammatical_WM_P'
p1577
sg79
Nsg80
NsS'port_value'
p1578
Nsg297
g1521
sg587
I6
sg1522
g1560
sbag0
(g74
g2
Ntp1579
Rp1580
(dp1581
g1576
Nsg70
S'to_cxn_retrieval_P'
p1582
sg79
Nsg80
Nsg1578
Nsg297
g1521
sg587
I7
sg1522
g1560
sbag0
(g74
g2
Ntp1583
Rp1584
(dp1585
g1576
Nsg70
S'to_control'
p1586
sg79
Nsg80
Nsg1578
Nsg297
g1521
sg587
I8
sg1522
g1560
sbag0
(g74
g2
Ntp1587
Rp1588
(dp1589
g70
S'to_visual_WM'
p1590
sg79
Nsg80
Nsg297
g1521
sg587
I9
sg1522
g1560
sbag0
(g74
g2
Ntp1591
Rp1592
(dp1593
g70
S'to_output'
p1594
sg79
Nsg80
Nsg297
g1521
sg587
I10
sg1522
g1560
sbasg1527
(dp1595
g1594
Nsg1577
Nsg1590
Nsg1582
Nsg1586
Nssg1532
F1.0
sS'coop_links'
p1596
(lp1597
sg1533
(lp1598
g1554
ag0
(g74
g2
Ntp1599
Rp1600
(dp1601
g70
g1564
sg79
Nsg80
Nsg297
g1557
sg587
I2
sg1522
g1560
sbag0
(g74
g2
Ntp1602
Rp1603
(dp1604
g70
g1566
sg79
Nsg80
Nsg297
g1557
sg587
I3
sg1522
g1560
sbag0
(g74
g2
Ntp1605
Rp1606
(dp1607
g1576
Nsg70
g1563
sg79
Nsg80
Nsg1578
Nsg297
g1557
sg587
I4
sg1522
g1560
sbag0
(g74
g2
Ntp1608
Rp1609
(dp1610
g1576
Nsg70
g1565
sg79
Nsg80
S'produce'
p1611
sg1578
Nsg297
g1557
sg587
I5
sg1522
g1560
sbasS'save_state'
p1612
(dp1613
S'insts'
p1614
(dp1615
sS'WM_activity'
p1616
(dp1617
S'comp'
p1618
(lp1619
sS'c2_network'
p1620
(dp1621
S'num_insts'
p1622
(lp1623
sS'num_coop_links'
p1624
(lp1625
sS'num_comp_links'
p1626
(lp1627
ssS'coop'
p1628
(lp1629
sg1537
(lp1630
sS'act'
p1631
(lp1632
sssg1535
(dp1633
S'C2'
p1634
(dp1635
S'P_comp'
p1636
F1.0
sS'max_capacity'
p1637
NsS'comp_weight'
p1638
F0.0
sS'P_coop'
p1639
F1.0
sS'coop_asymmetry'
p1640
F1.0
sS'coop_weight'
p1641
F0.0
sS'confidence_threshold'
p1642
F0.0
sS'comp_asymmetry'
p1643
F0.0
sS'prune_threshold'
p1644
F0.01
ssS'dyn'
p1645
(dp1646
S'tau'
p1647
F10000.0
sS'k'
p1648
F10.0
sS'act_rest'
p1649
F0.001
sS'noise_mean'
p1650
F0.0
sS'noise_std'
p1651
F1.0
sS'ext_weight'
p1652
F1.0
sS'int_weight'
p1653
F1.0
sssg1537
I0
sg1538
I0
sg1158
g1541
sS'SemRep'
p1654
g0
(g101
g2
Ntp1655
Rp1656
(dp1657
g105
(dp1658
sg288
g289
sg290
g289
sg291
(dp1659
sg485
g1659
sg100
(dp1660
sg487
g289
sg488
g1659
sg489
(dp1661
sbsg587
I1
sbsbasS'brain_mapping'
p1662
g0
(cschema_theory
BRAIN_MAPPING
p1663
g2
Ntp1664
Rp1665
(dp1666
S'schema_mapping'
p1667
(dp1668
S'Control'
p1669
(lp1670
S'DLPFC'
p1671
asS'Utter'
p1672
(lp1673
S''
p1674
asg1569
(lp1675
S'left_SFG'
p1676
aS'LIP'
p1677
aS'Hippocampus'
p1678
asS'Phonological_WM_P'
p1679
(lp1680
S'left_BA6'
p1681
asg71
(lp1682
g1674
asS'Grammatical_WM_P'
p1683
(lp1684
S'left_BA45'
p1685
aS'leftBA44'
p1686
asS'Grammatical_LTM'
p1687
(lp1688
S'left_STG'
p1689
aS'left_MTG'
p1690
asS'Cxn_retrieval_P'
p1691
(lp1692
ssS'connect_mapping'
p1693
(dp1694
sbsg1529
(lp1695
g0
(cschema_theory
CONNECT
p1696
g2
Ntp1697
Rp1698
(dp1699
S'delay'
p1700
I0
sg70
g1674
sS'weight'
p1701
I0
sS'port_to'
p1702
g0
(g74
g2
Ntp1703
Rp1704
(dp1705
g1576
Nsg70
S'from_semantic_WM'
p1706
sg79
Nsg80
Nsg1578
Nsg297
g1557
sg587
I23
sg1522
g0
(clanguage_schemas
CXN_RETRIEVAL_P
p1707
g2
Ntp1708
Rp1709
(dp1710
g68
(dp1711
g1706
NsS'from_grammatical_LTM'
p1712
Nssg70
g1691
sg72
(lp1713
g0
(g74
g2
Ntp1714
Rp1715
(dp1716
g1576
Nsg70
g1577
sg79
Nsg80
Nsg1578
Nsg297
g1521
sg587
I24
sg1522
g1709
sbasg1527
(dp1717
g1577
NssS'cxn_instances'
p1718
(lp1719
sg1532
F1.0
sg1533
(lp1720
g0
(g74
g2
Ntp1721
Rp1722
(dp1723
g1576
Nsg70
g1712
sg79
Nsg80
(lp1724
g0
(clanguage_schemas
CXN_SCHEMA
p1725
g2
Ntp1726
Rp1727
(dp1728
g70
VCNJ_AND
p1729
sg87
(iconstruction
CXN
p1730
(dp1731
S'SymLinks'
p1732
(iconstruction
TP_SYMLINKS
p1733
(dp1734
S'SL'
p1735
(dp1736
VEVT1_4
p1737
VS1_6
p1738
sVEVT2_5
p1739
VS3_8
p1740
ssg587
I3
sg70
g1674
sbsS'clss'
p1741
VD
p1742
sS'group'
p1743
I3
sg70
g1729
sS'SemFrame'
p1744
(iconstruction
TP_SEMFRAME
p1745
(dp1746
g100
g0
(g101
g2
Ntp1747
Rp1748
(dp1749
g105
(dp1750
(iconstruction
TP_NODE
p1751
(dp1752
S'head'
p1753
I00
sg89
g742
sg70
g1737
sS'frame'
p1754
I00
sS'focus'
p1755
I01
sg587
I4
sb(dp1756
g1754
I00
sg89
g742
ss(iconstruction
TP_NODE
p1757
(dp1758
g1753
I00
sg89
g742
sg70
g1739
sg1754
I00
sg1755
I00
sg587
I5
sb(dp1759
g1754
I00
sg89
g742
sssg288
g289
sg290
g289
sg291
(dp1760
g1751
(dp1761
sg1757
(dp1762
ssg485
g1760
sg100
(dp1763
sg487
g289
sg488
g1760
sg489
(dp1764
g1751
(dp1765
sg1757
(dp1766
ssbsg582
(lp1767
g1751
ag1757
asg855
(lp1768
sg587
I1
sg70
g1674
sbsS'SynForm'
p1769
(iconstruction
TP_SYNFORM
p1770
(dp1771
g587
I2
sS'form'
p1772
(lp1773
(iconstruction
TP_SLOT
p1774
(dp1775
S'cxn_classes'
p1776
(lp1777
VS
p1778
asS'order'
p1779
I0
sg587
I6
sg70
g1738
sba(iconstruction
TP_PHON
p1780
(dp1781
S'num_syllables'
p1782
I3
sg1779
I1
sg587
I7
sS'cxn_phonetics'
p1783
Vand
p1784
sg70
VS2_7
p1785
sba(iconstruction
TP_SLOT
p1786
(dp1787
g1776
(lp1788
VS
p1789
asg1779
I2
sg587
I8
sg70
g1740
sbasg70
g1674
sbsS'preference'
p1790
I1
sbsg1158
Nsg587
I99
sg1159
g0
(clanguage_schemas
GRAMMATICAL_LTM
p1791
g2
Ntp1792
Rp1793
(dp1794
g68
(dp1795
sS'grammar'
p1796
(iconstruction
GRAMMAR
p1797
(dp1798
S'constructions'
p1799
(lp1800
g1730
a(iconstruction
CXN
p1801
(dp1802
g1732
(iconstruction
TP_SYMLINKS
p1803
(dp1804
g1735
(dp1805
VEVT2_13
p1806
VS3_17
p1807
sVEVT1_12
p1808
VS1_15
p1809
ssg587
I11
sg70
g1674
sbsg1741
VD
p1810
sg1743
I3
sg70
VCNJ_THEN
p1811
sg1744
(iconstruction
TP_SEMFRAME
p1812
(dp1813
g100
g0
(g101
g2
Ntp1814
Rp1815
(dp1816
g105
(dp1817
(iconstruction
TP_NODE
p1818
(dp1819
g1753
I00
sg89
g742
sg70
g1808
sg1754
I00
sg1755
I00
sg587
I12
sb(dp1820
g1754
I00
sg89
g742
ss(iconstruction
TP_NODE
p1821
(dp1822
g1753
I00
sg89
g742
sg70
g1806
sg1754
I00
sg1755
I00
sg587
I13
sb(dp1823
g1754
I00
sg89
g742
sssg288
g289
sg290
g289
sg291
(dp1824
g1818
(dp1825
g1821
(dp1826
g89
g727
sssg1821
(dp1827
ssg485
g1824
sg100
(dp1828
sg487
g289
sg488
g1824
sg489
(dp1829
g1818
(dp1830
sg1821
(dp1831
g1818
g1826
sssbsg582
(lp1832
g1818
ag1821
asg855
(lp1833
(iconstruction
TP_REL
p1834
(dp1835
g861
g1821
sg89
g727
sg587
I14
sg862
g1818
sg70
VEVT1_EVT2_14
p1836
sbasg587
I9
sg70
g1674
sbsg1769
(iconstruction
TP_SYNFORM
p1837
(dp1838
g587
I10
sg1772
(lp1839
(iconstruction
TP_SLOT
p1840
(dp1841
g1776
(lp1842
VS
p1843
asg1779
I0
sg587
I15
sg70
g1809
sba(iconstruction
TP_PHON
p1844
(dp1845
g1782
I4
sg1779
I1
sg587
I16
sg1783
Vthen
p1846
sg70
VS2_16
p1847
sba(iconstruction
TP_SLOT
p1848
(dp1849
g1776
(lp1850
VS
p1851
asg1779
I2
sg587
I17
sg70
g1807
sbasg70
g1674
sbsg1790
I1
sba(iconstruction
CXN
p1852
(dp1853
g1732
(iconstruction
TP_SYMLINKS
p1854
(dp1855
g1735
(dp1856
VEVT2_22
p1857
VS3_26
p1858
sVEVT1_21
p1859
VS1_24
p1860
ssg587
I20
sg70
g1674
sbsg1741
VD
p1861
sg1743
I3
sg70
VCNJ_WHILE
p1862
sg1744
(iconstruction
TP_SEMFRAME
p1863
(dp1864
g100
g0
(g101
g2
Ntp1865
Rp1866
(dp1867
g105
(dp1868
(iconstruction
TP_NODE
p1869
(dp1870
g1753
I00
sg89
g742
sg70
g1857
sg1754
I00
sg1755
I00
sg587
I22
sb(dp1871
g1754
I00
sg89
g742
ss(iconstruction
TP_NODE
p1872
(dp1873
g1753
I00
sg89
g742
sg70
g1859
sg1754
I00
sg1755
I01
sg587
I21
sb(dp1874
g1754
I00
sg89
g742
sssg288
g289
sg290
g289
sg291
(dp1875
g1869
(dp1876
sg1872
(dp1877
g1869
(dp1878
g89
g724
ssssg485
g1875
sg100
(dp1879
sg487
g289
sg488
g1875
sg489
(dp1880
g1869
(dp1881
g1872
g1878
ssg1872
(dp1882
ssbsg582
(lp1883
g1872
ag1869
asg855
(lp1884
(iconstruction
TP_REL
p1885
(dp1886
g861
g1869
sg89
g724
sg587
I23
sg862
g1872
sg70
VEVT1_EVT2_23
p1887
sbasg587
I18
sg70
g1674
sbsg1769
(iconstruction
TP_SYNFORM
p1888
(dp1889
g587
I19
sg1772
(lp1890
(iconstruction
TP_SLOT
p1891
(dp1892
g1776
(lp1893
VS
p1894
asg1779
I0
sg587
I24
sg70
g1860
sba(iconstruction
TP_PHON
p1895
(dp1896
g1782
I5
sg1779
I1
sg587
I25
sg1783
Vwhile
p1897
sg70
VS2_25
p1898
sba(iconstruction
TP_SLOT
p1899
(dp1900
g1776
(lp1901
VS
p1902
asg1779
I2
sg587
I26
sg70
g1858
sbasg70
g1674
sbsg1790
I1
sba(iconstruction
CXN
p1903
(dp1904
g1732
(iconstruction
TP_SYMLINKS
p1905
(dp1906
g1735
(dp1907
VACT_31
p1908
VS4_40
p1909
sVACTOR_1_32
p1910
VS1_37
p1911
sVACTOR_2_33
p1912
VS3_39
p1913
ssg587
I29
sg70
g1674
sbsg1741
VS
p1914
sg1743
Nsg70
VSYMMETRIC_TRANS
p1915
sg1744
(iconstruction
TP_SEMFRAME
p1916
(dp1917
g100
g0
(g101
g2
Ntp1918
Rp1919
(dp1920
g105
(dp1921
(iconstruction
TP_NODE
p1922
(dp1923
g1753
I01
sg89
g742
sg70
VEVT_30
p1924
sg1754
I01
sg1755
I00
sg587
I30
sb(dp1925
g1754
I01
sg89
g742
ss(iconstruction
TP_NODE
p1926
(dp1927
g1753
I00
sg89
g745
sg70
g1910
sg1754
I01
sg1755
I01
sg587
I32
sb(dp1928
g1754
I01
sg89
g745
ss(iconstruction
TP_NODE
p1929
(dp1930
g1753
I00
sg89
g745
sg70
g1912
sg1754
I01
sg1755
I00
sg587
I33
sb(dp1931
g1754
I01
sg89
g745
ss(iconstruction
TP_NODE
p1932
(dp1933
g1753
I00
sg89
g589
sg70
g1908
sg1754
I01
sg1755
I00
sg587
I31
sb(dp1934
g1754
I01
sg89
g589
sssg288
g289
sg290
g289
sg291
(dp1935
g1922
(dp1936
g1932
(dp1937
g89
g736
sssg1926
(dp1938
sg1929
(dp1939
sg1932
(dp1940
g1926
(dp1941
g89
g712
ssg1929
(dp1942
g89
g712
ssssg485
g1935
sg100
(dp1943
sg487
g289
sg488
g1935
sg489
(dp1944
g1922
(dp1945
sg1926
(dp1946
g1932
g1941
ssg1929
(dp1947
g1932
g1942
ssg1932
(dp1948
g1922
g1937
sssbsg582
(lp1949
g1922
ag1932
ag1926
ag1929
asg855
(lp1950
(iconstruction
TP_REL
p1951
(dp1952
g861
g1932
sg89
g736
sg587
I34
sg862
g1922
sg70
VIS_34
p1953
sba(iconstruction
TP_REL
p1954
(dp1955
g861
g1926
sg89
g712
sg587
I35
sg862
g1932
sg70
VAGT_PT_1_35
p1956
sba(iconstruction
TP_REL
p1957
(dp1958
g861
g1929
sg89
g712
sg587
I36
sg862
g1932
sg70
VAGT_PT_2_36
p1959
sbasg587
I27
sg70
g1674
sbsg1769
(iconstruction
TP_SYNFORM
p1960
(dp1961
g587
I28
sg1772
(lp1962
(iconstruction
TP_SLOT
p1963
(dp1964
g1776
(lp1965
VNP
p1966
aVN
p1967
asg1779
I0
sg587
I37
sg70
g1911
sba(iconstruction
TP_PHON
p1968
(dp1969
g1782
I3
sg1779
I1
sg587
I38
sg1783
Vand
p1970
sg70
VS2_38
p1971
sba(iconstruction
TP_SLOT
p1972
(dp1973
g1776
(lp1974
VNP
p1975
aVN
p1976
asg1779
I2
sg587
I39
sg70
g1913
sba(iconstruction
TP_SLOT
p1977
(dp1978
g1776
(lp1979
VVP
p1980
aVV
p1981
asg1779
I3
sg587
I40
sg70
g1909
sbasg70
g1674
sbsg1790
I1
sba(iconstruction
CXN
p1982
(dp1983
g1732
(iconstruction
TP_SYMLINKS
p1984
(dp1985
g1735
(dp1986
VAGT_46
p1987
VS1_51
p1988
sVACT_45
p1989
VS2_52
p1990
sVPT_47
p1991
VS3_53
p1992
ssg587
I43
sg70
g1674
sbsg1741
VS
p1993
sg1743
I2
sg70
VSVO
p1994
sg1744
(iconstruction
TP_SEMFRAME
p1995
(dp1996
g100
g0
(g101
g2
Ntp1997
Rp1998
(dp1999
g105
(dp2000
(iconstruction
TP_NODE
p2001
(dp2002
g1753
I01
sg89
g742
sg70
VEVT_44
p2003
sg1754
I01
sg1755
I00
sg587
I44
sb(dp2004
g1754
I01
sg89
g742
ss(iconstruction
TP_NODE
p2005
(dp2006
g1753
I00
sg89
g745
sg70
g1987
sg1754
I01
sg1755
I01
sg587
I46
sb(dp2007
g1754
I01
sg89
g745
ss(iconstruction
TP_NODE
p2008
(dp2009
g1753
I00
sg89
g589
sg70
g1989
sg1754
I01
sg1755
I00
sg587
I45
sb(dp2010
g1754
I01
sg89
g589
ss(iconstruction
TP_NODE
p2011
(dp2012
g1753
I00
sg89
g745
sg70
g1991
sg1754
I01
sg1755
I00
sg587
I47
sb(dp2013
g1754
I01
sg89
g745
sssg288
g289
sg290
g289
sg291
(dp2014
g2001
(dp2015
g2008
(dp2016
g89
g736
sssg2005
(dp2017
sg2008
(dp2018
g2005
(dp2019
g89
g715
ssg2011
(dp2020
g89
g709
sssg2011
(dp2021
ssg485
g2014
sg100
(dp2022
sg487
g289
sg488
g2014
sg489
(dp2023
g2001
(dp2024
sg2005
(dp2025
g2008
g2019
ssg2008
(dp2026
g2001
g2016
ssg2011
(dp2027
g2008
g2020
sssbsg582
(lp2028
g2001
ag2008
ag2005
ag2011
asg855
(lp2029
(iconstruction
TP_REL
p2030
(dp2031
g861
g2008
sg89
g736
sg587
I48
sg862
g2001
sg70
VIS_48
p2032
sba(iconstruction
TP_REL
p2033
(dp2034
g861
g2005
sg89
g715
sg587
I49
sg862
g2008
sg70
VACT_AGT_49
p2035
sba(iconstruction
TP_REL
p2036
(dp2037
g861
g2011
sg89
g709
sg587
I50
sg862
g2008
sg70
VACT_PT_50
p2038
sbasg587
I41
sg70
g1674
sbsg1769
(iconstruction
TP_SYNFORM
p2039
(dp2040
g587
I42
sg1772
(lp2041
(iconstruction
TP_SLOT
p2042
(dp2043
g1776
(lp2044
VNP
p2045
aVN
p2046
asg1779
I0
sg587
I51
sg70
g1988
sba(iconstruction
TP_SLOT
p2047
(dp2048
g1776
(lp2049
VVP
p2050
aVV
p2051
asg1779
I1
sg587
I52
sg70
g1990
sba(iconstruction
TP_SLOT
p2052
(dp2053
g1776
(lp2054
VNP
p2055
aVN
p2056
asg1779
I2
sg587
I53
sg70
g1992
sbasg70
g1674
sbsg1790
I1
sba(iconstruction
CXN
p2057
(dp2058
g1732
(iconstruction
TP_SYMLINKS
p2059
(dp2060
g1735
(dp2061
VTHEME_60
p2062
VS4_69
p2063
sVRCPT_61
p2064
VS3_68
p2065
sVACT_58
p2066
VS2_67
p2067
sVAGT_59
p2068
VS1_66
p2069
ssg587
I56
sg70
g1674
sbsg1741
VS
p2070
sg1743
I2
sg70
VDOUBLE_OBJ
p2071
sg1744
(iconstruction
TP_SEMFRAME
p2072
(dp2073
g100
g0
(g101
g2
Ntp2074
Rp2075
(dp2076
g105
(dp2077
(iconstruction
TP_NODE
p2078
(dp2079
g1753
I01
sg89
g742
sg70
VEVT_57
p2080
sg1754
I01
sg1755
I00
sg587
I57
sb(dp2081
g1754
I01
sg89
g742
ss(iconstruction
TP_NODE
p2082
(dp2083
g1753
I00
sg89
g745
sg70
g2068
sg1754
I01
sg1755
I01
sg587
I59
sb(dp2084
g1754
I01
sg89
g745
ss(iconstruction
TP_NODE
p2085
(dp2086
g1753
I00
sg89
g745
sg70
g2062
sg1754
I01
sg1755
I00
sg587
I60
sb(dp2087
g1754
I01
sg89
g745
ss(iconstruction
TP_NODE
p2088
(dp2089
g1753
I00
sg89
g589
sg70
g2066
sg1754
I01
sg1755
I00
sg587
I58
sb(dp2090
g1754
I01
sg89
g589
ss(iconstruction
TP_NODE
p2091
(dp2092
g1753
I00
sg89
g745
sg70
g2064
sg1754
I01
sg1755
I00
sg587
I61
sb(dp2093
g1754
I01
sg89
g745
sssg288
g289
sg290
g289
sg291
(dp2094
g2078
(dp2095
g2088
(dp2096
g89
g736
sssg2082
(dp2097
sg2085
(dp2098
sg2088
(dp2099
g2082
(dp2100
g89
g715
ssg2091
(dp2101
g89
g700
ssg2085
(dp2102
g89
g697
sssg2091
(dp2103
ssg485
g2094
sg100
(dp2104
sg487
g289
sg488
g2094
sg489
(dp2105
g2078
(dp2106
sg2082
(dp2107
g2088
g2100
ssg2085
(dp2108
g2088
g2102
ssg2088
(dp2109
g2078
g2096
ssg2091
(dp2110
g2088
g2101
sssbsg582
(lp2111
g2078
ag2088
ag2082
ag2085
ag2091
asg855
(lp2112
(iconstruction
TP_REL
p2113
(dp2114
g861
g2088
sg89
g736
sg587
I62
sg862
g2078
sg70
VIS_62
p2115
sba(iconstruction
TP_REL
p2116
(dp2117
g861
g2082
sg89
g715
sg587
I63
sg862
g2088
sg70
VACT_AGT_63
p2118
sba(iconstruction
TP_REL
p2119
(dp2120
g861
g2085
sg89
g697
sg587
I64
sg862
g2088
sg70
VACT_THEME_64
p2121
sba(iconstruction
TP_REL
p2122
(dp2123
g861
g2091
sg89
g700
sg587
I65
sg862
g2088
sg70
VACT_RCPT_65
p2124
sbasg587
I54
sg70
g1674
sbsg1769
(iconstruction
TP_SYNFORM
p2125
(dp2126
g587
I55
sg1772
(lp2127
(iconstruction
TP_SLOT
p2128
(dp2129
g1776
(lp2130
VNP
p2131
aVN
p2132
asg1779
I0
sg587
I66
sg70
g2069
sba(iconstruction
TP_SLOT
p2133
(dp2134
g1776
(lp2135
VVP
p2136
aVV
p2137
asg1779
I1
sg587
I67
sg70
g2067
sba(iconstruction
TP_SLOT
p2138
(dp2139
g1776
(lp2140
VNP
p2141
aVN
p2142
asg1779
I2
sg587
I68
sg70
g2065
sba(iconstruction
TP_SLOT
p2143
(dp2144
g1776
(lp2145
VNP
p2146
aVN
p2147
asg1779
I3
sg587
I69
sg70
g2063
sbasg70
g1674
sbsg1790
I1
sba(iconstruction
CXN
p2148
(dp2149
g1732
(iconstruction
TP_SYMLINKS
p2150
(dp2151
g1735
(dp2152
VACT_74
p2153
VS2_83
p2154
sVRCPT_77
p2155
VS5_86
p2156
sVTHEME_76
p2157
VS3_84
p2158
sVAGT_75
p2159
VS1_82
p2160
ssg587
I72
sg70
g1674
sbsg1741
VS
p2161
sg1743
I2
sg70
VOBLIQUE_DATIVE
p2162
sg1744
(iconstruction
TP_SEMFRAME
p2163
(dp2164
g100
g0
(g101
g2
Ntp2165
Rp2166
(dp2167
g105
(dp2168
(iconstruction
TP_NODE
p2169
(dp2170
g1753
I01
sg89
g742
sg70
VEVT_73
p2171
sg1754
I01
sg1755
I00
sg587
I73
sb(dp2172
g1754
I01
sg89
g742
ss(iconstruction
TP_NODE
p2173
(dp2174
g1753
I00
sg89
g745
sg70
g2159
sg1754
I01
sg1755
I01
sg587
I75
sb(dp2175
g1754
I01
sg89
g745
ss(iconstruction
TP_NODE
p2176
(dp2177
g1753
I00
sg89
g745
sg70
g2157
sg1754
I01
sg1755
I00
sg587
I76
sb(dp2178
g1754
I01
sg89
g745
ss(iconstruction
TP_NODE
p2179
(dp2180
g1753
I00
sg89
g637
sg70
g2153
sg1754
I01
sg1755
I00
sg587
I74
sb(dp2181
g1754
I01
sg89
g637
ss(iconstruction
TP_NODE
p2182
(dp2183
g1753
I00
sg89
g745
sg70
g2155
sg1754
I01
sg1755
I00
sg587
I77
sb(dp2184
g1754
I01
sg89
g745
sssg288
g289
sg290
g289
sg291
(dp2185
g2169
(dp2186
g2179
(dp2187
g89
g736
sssg2173
(dp2188
sg2176
(dp2189
sg2179
(dp2190
g2173
(dp2191
g89
g715
ssg2182
(dp2192
g89
g700
ssg2176
(dp2193
g89
g697
sssg2182
(dp2194
ssg485
g2185
sg100
(dp2195
sg487
g289
sg488
g2185
sg489
(dp2196
g2169
(dp2197
sg2173
(dp2198
g2179
g2191
ssg2176
(dp2199
g2179
g2193
ssg2179
(dp2200
g2169
g2187
ssg2182
(dp2201
g2179
g2192
sssbsg582
(lp2202
g2169
ag2179
ag2173
ag2176
ag2182
asg855
(lp2203
(iconstruction
TP_REL
p2204
(dp2205
g861
g2179
sg89
g736
sg587
I78
sg862
g2169
sg70
VIS_78
p2206
sba(iconstruction
TP_REL
p2207
(dp2208
g861
g2173
sg89
g715
sg587
I79
sg862
g2179
sg70
VACT_AGT_79
p2209
sba(iconstruction
TP_REL
p2210
(dp2211
g861
g2176
sg89
g697
sg587
I80
sg862
g2179
sg70
VACT_THEME_80
p2212
sba(iconstruction
TP_REL
p2213
(dp2214
g861
g2182
sg89
g700
sg587
I81
sg862
g2179
sg70
VACT_RCPT_81
p2215
sbasg587
I70
sg70
g1674
sbsg1769
(iconstruction
TP_SYNFORM
p2216
(dp2217
g587
I71
sg1772
(lp2218
(iconstruction
TP_SLOT
p2219
(dp2220
g1776
(lp2221
VNP
p2222
aVN
p2223
asg1779
I0
sg587
I82
sg70
g2160
sba(iconstruction
TP_SLOT
p2224
(dp2225
g1776
(lp2226
VVP
p2227
aVV
p2228
asg1779
I1
sg587
I83
sg70
g2154
sba(iconstruction
TP_SLOT
p2229
(dp2230
g1776
(lp2231
VNP
p2232
aVN
p2233
asg1779
I2
sg587
I84
sg70
g2158
sba(iconstruction
TP_PHON
p2234
(dp2235
g1782
I2
sg1779
I3
sg587
I85
sg1783
Vto
p2236
sg70
VS4_85
p2237
sba(iconstruction
TP_SLOT
p2238
(dp2239
g1776
(lp2240
VNP
p2241
aVN
p2242
asg1779
I4
sg587
I86
sg70
g2156
sbasg70
g1674
sbsg1790
I1
sba(iconstruction
CXN
p2243
(dp2244
g1732
(iconstruction
TP_SYMLINKS
p2245
(dp2246
g1735
(dp2247
VENT_91
p2248
VS1_95
p2249
sVATTR_92
p2250
VS3_97
p2251
ssg587
I89
sg70
g1674
sbsg1741
VS
p2252
sg1743
I2
sg70
VSPA
p2253
sg1744
(iconstruction
TP_SEMFRAME
p2254
(dp2255
g100
g0
(g101
g2
Ntp2256
Rp2257
(dp2258
g105
(dp2259
(iconstruction
TP_NODE
p2260
(dp2261
g1753
I00
sg89
g745
sg70
g2248
sg1754
I01
sg1755
I01
sg587
I91
sb(dp2262
g1754
I01
sg89
g745
ss(iconstruction
TP_NODE
p2263
(dp2264
g1753
I00
sg89
g646
sg70
g2250
sg1754
I00
sg1755
I00
sg587
I92
sb(dp2265
g1754
I00
sg89
g646
ss(iconstruction
TP_NODE
p2266
(dp2267
g1753
I01
sg89
g742
sg70
VEVT_90
p2268
sg1754
I01
sg1755
I00
sg587
I90
sb(dp2269
g1754
I01
sg89
g742
sssg288
g289
sg290
g289
sg291
(dp2270
g2260
(dp2271
sg2263
(dp2272
sg2266
(dp2273
g2260
(dp2274
g89
g736
ssg2263
(dp2275
g89
g694
ssssg485
g2270
sg100
(dp2276
sg487
g289
sg488
g2270
sg489
(dp2277
g2260
(dp2278
g2266
g2274
ssg2263
(dp2279
g2266
g2275
ssg2266
(dp2280
ssbsg582
(lp2281
g2266
ag2260
ag2263
asg855
(lp2282
(iconstruction
TP_REL
p2283
(dp2284
g861
g2260
sg89
g736
sg587
I93
sg862
g2266
sg70
VIS_93
p2285
sba(iconstruction
TP_REL
p2286
(dp2287
g861
g2263
sg89
g694
sg587
I94
sg862
g2266
sg70
VEVT_ATTR_94
p2288
sbasg587
I87
sg70
g1674
sbsg1769
(iconstruction
TP_SYNFORM
p2289
(dp2290
g587
I88
sg1772
(lp2291
(iconstruction
TP_SLOT
p2292
(dp2293
g1776
(lp2294
VNP
p2295
aVN
p2296
asg1779
I0
sg587
I95
sg70
g2249
sba(iconstruction
TP_PHON
p2297
(dp2298
g1782
I2
sg1779
I1
sg587
I96
sg1783
Vis
p2299
sg70
VS2_96
p2300
sba(iconstruction
TP_SLOT
p2301
(dp2302
g1776
(lp2303
VA
p2304
asg1779
I2
sg587
I97
sg70
g2251
sbasg70
g1674
sbsg1790
I1
sba(iconstruction
CXN
p2305
(dp2306
g1732
(iconstruction
TP_SYMLINKS
p2307
(dp2308
g1735
(dp2309
VAGT_103
p2310
VS1_106
p2311
sVACT_102
p2312
VS2_107
p2313
ssg587
I100
sg70
g1674
sbsg1741
VS
p2314
sg1743
I2
sg70
VSV
p2315
sg1744
(iconstruction
TP_SEMFRAME
p2316
(dp2317
g100
g0
(g101
g2
Ntp2318
Rp2319
(dp2320
g105
(dp2321
(iconstruction
TP_NODE
p2322
(dp2323
g1753
I00
sg89
g601
sg70
g2312
sg1754
I01
sg1755
I00
sg587
I102
sb(dp2324
g1754
I01
sg89
g601
ss(iconstruction
TP_NODE
p2325
(dp2326
g1753
I00
sg89
g745
sg70
g2310
sg1754
I01
sg1755
I01
sg587
I103
sb(dp2327
g1754
I01
sg89
g745
ss(iconstruction
TP_NODE
p2328
(dp2329
g1753
I01
sg89
g742
sg70
VEVT_101
p2330
sg1754
I01
sg1755
I00
sg587
I101
sb(dp2331
g1754
I01
sg89
g742
sssg288
g289
sg290
g289
sg291
(dp2332
g2322
(dp2333
g2325
(dp2334
g89
g715
sssg2325
(dp2335
sg2328
(dp2336
g2322
(dp2337
g89
g736
ssssg485
g2332
sg100
(dp2338
sg487
g289
sg488
g2332
sg489
(dp2339
g2322
(dp2340
g2328
g2337
ssg2325
(dp2341
g2322
g2334
ssg2328
(dp2342
ssbsg582
(lp2343
g2328
ag2322
ag2325
asg855
(lp2344
(iconstruction
TP_REL
p2345
(dp2346
g861
g2322
sg89
g736
sg587
I104
sg862
g2328
sg70
VIS_104
p2347
sba(iconstruction
TP_REL
p2348
(dp2349
g861
g2325
sg89
g715
sg587
I105
sg862
g2322
sg70
VACT_AGT_105
p2350
sbasg587
I98
sg70
g1674
sbsg1769
(iconstruction
TP_SYNFORM
p2351
(dp2352
g587
I99
sg1772
(lp2353
(iconstruction
TP_SLOT
p2354
(dp2355
g1776
(lp2356
VNP
p2357
aVN
p2358
asg1779
I0
sg587
I106
sg70
g2311
sba(iconstruction
TP_SLOT
p2359
(dp2360
g1776
(lp2361
VVP
p2362
aVV
p2363
asg1779
I1
sg587
I107
sg70
g2313
sbasg70
g1674
sbsg1790
I1
sba(iconstruction
CXN
p2364
(dp2365
g1732
(iconstruction
TP_SYMLINKS
p2366
(dp2367
g1735
(dp2368
VPLACE_112
p2369
VS3_116
p2370
sVEVT_111
p2371
VS1_114
p2372
ssg587
I110
sg70
g1674
sbsg1741
VS
p2373
sg1743
I2
sg70
VPP_IN
p2374
sg1744
(iconstruction
TP_SEMFRAME
p2375
(dp2376
g100
g0
(g101
g2
Ntp2377
Rp2378
(dp2379
g105
(dp2380
(iconstruction
TP_NODE
p2381
(dp2382
g1753
I00
sg89
g745
sg70
g2369
sg1754
I01
sg1755
I00
sg587
I112
sb(dp2383
g1754
I01
sg89
g745
ss(iconstruction
TP_NODE
p2384
(dp2385
g1753
I01
sg89
g742
sg70
g2371
sg1754
I01
sg1755
I00
sg587
I111
sb(dp2386
g1754
I01
sg89
g742
sssg288
g289
sg290
g289
sg291
(dp2387
g2381
(dp2388
sg2384
(dp2389
g2381
(dp2390
g89
g733
ssssg485
g2387
sg100
(dp2391
sg487
g289
sg488
g2387
sg489
(dp2392
g2381
(dp2393
g2384
g2390
ssg2384
(dp2394
ssbsg582
(lp2395
g2384
ag2381
asg855
(lp2396
(iconstruction
TP_REL
p2397
(dp2398
g861
g2381
sg89
g733
sg587
I113
sg862
g2384
sg70
VEVT_PP_113
p2399
sbasg587
I108
sg70
g1674
sbsg1769
(iconstruction
TP_SYNFORM
p2400
(dp2401
g587
I109
sg1772
(lp2402
(iconstruction
TP_SLOT
p2403
(dp2404
g1776
(lp2405
VS
p2406
asg1779
I0
sg587
I114
sg70
g2372
sba(iconstruction
TP_PHON
p2407
(dp2408
g1782
I2
sg1779
I1
sg587
I115
sg1783
Vin
p2409
sg70
VS2_115
p2410
sba(iconstruction
TP_SLOT
p2411
(dp2412
g1776
(lp2413
VNP
p2414
aVN
p2415
asg1779
I2
sg587
I116
sg70
g2370
sbasg70
g1674
sbsg1790
I1
sba(iconstruction
CXN
p2416
(dp2417
g1732
(iconstruction
TP_SYMLINKS
p2418
(dp2419
g1735
(dp2420
VEVT2_121
p2421
VS2_124
p2422
sVEVT1_120
p2423
VS1_123
p2424
ssg587
I119
sg70
g1674
sbsg1741
VS
p2425
sg1743
I2
sg70
VS_PP
p2426
sg1744
(iconstruction
TP_SEMFRAME
p2427
(dp2428
g100
g0
(g101
g2
Ntp2429
Rp2430
(dp2431
g105
(dp2432
(iconstruction
TP_NODE
p2433
(dp2434
g1753
I01
sg89
g742
sg70
g2423
sg1754
I01
sg1755
I01
sg587
I120
sb(dp2435
g1754
I01
sg89
g742
ss(iconstruction
TP_NODE
p2436
(dp2437
g1753
I00
sg89
g742
sg70
g2421
sg1754
I01
sg1755
I00
sg587
I121
sb(dp2438
g1754
I01
sg89
g742
sssg288
g289
sg290
g289
sg291
(dp2439
g2433
(dp2440
g2436
(dp2441
g89
g694
sssg2436
(dp2442
ssg485
g2439
sg100
(dp2443
sg487
g289
sg488
g2439
sg489
(dp2444
g2433
(dp2445
sg2436
(dp2446
g2433
g2441
sssbsg582
(lp2447
g2433
ag2436
asg855
(lp2448
(iconstruction
TP_REL
p2449
(dp2450
g861
g2436
sg89
g694
sg587
I122
sg862
g2433
sg70
VMOD_122
p2451
sbasg587
I117
sg70
g1674
sbsg1769
(iconstruction
TP_SYNFORM
p2452
(dp2453
g587
I118
sg1772
(lp2454
(iconstruction
TP_SLOT
p2455
(dp2456
g1776
(lp2457
VS
p2458
asg1779
I0
sg587
I123
sg70
g2424
sba(iconstruction
TP_SLOT
p2459
(dp2460
g1776
(lp2461
VPP
p2462
asg1779
I1
sg587
I124
sg70
g2422
sbasg70
g1674
sbsg1790
I1
sba(iconstruction
CXN
p2463
(dp2464
g1732
(iconstruction
TP_SYMLINKS
p2465
(dp2466
g1735
(dp2467
VENT_128
p2468
VS2_132
p2469
sVATTR_129
p2470
VS1_131
p2471
ssg587
I127
sg70
g1674
sbsg1741
VN
p2472
sg1743
I2
sg70
VADJUNCT_N
p2473
sg1744
(iconstruction
TP_SEMFRAME
p2474
(dp2475
g100
g0
(g101
g2
Ntp2476
Rp2477
(dp2478
g105
(dp2479
(iconstruction
TP_NODE
p2480
(dp2481
g1753
I01
sg89
g745
sg70
g2468
sg1754
I01
sg1755
I00
sg587
I128
sb(dp2482
g1754
I01
sg89
g745
ss(iconstruction
TP_NODE
p2483
(dp2484
g1753
I00
sg89
g646
sg70
g2470
sg1754
I00
sg1755
I00
sg587
I129
sb(dp2485
g1754
I00
sg89
g646
sssg288
g289
sg290
g289
sg291
(dp2486
g2480
(dp2487
g2483
(dp2488
g89
g694
sssg2483
(dp2489
ssg485
g2486
sg100
(dp2490
sg487
g289
sg488
g2486
sg489
(dp2491
g2480
(dp2492
sg2483
(dp2493
g2480
g2488
sssbsg582
(lp2494
g2480
ag2483
asg855
(lp2495
(iconstruction
TP_REL
p2496
(dp2497
g861
g2483
sg89
g694
sg587
I130
sg862
g2480
sg70
VENT_ATTR_130
p2498
sbasg587
I125
sg70
g1674
sbsg1769
(iconstruction
TP_SYNFORM
p2499
(dp2500
g587
I126
sg1772
(lp2501
(iconstruction
TP_SLOT
p2502
(dp2503
g1776
(lp2504
VA
p2505
asg1779
I0
sg587
I131
sg70
g2471
sba(iconstruction
TP_SLOT
p2506
(dp2507
g1776
(lp2508
VN
p2509
asg1779
I1
sg587
I132
sg70
g2469
sbasg70
g1674
sbsg1790
I1
sba(iconstruction
CXN
p2510
(dp2511
g1732
(iconstruction
TP_SYMLINKS
p2512
(dp2513
g1735
(dp2514
VACT_137
p2515
VS3_146
p2516
sVAGT_138
p2517
VS1_144
p2518
sVPT_139
p2519
VS4_147
p2520
ssg587
I135
sg70
g1674
sbsg1741
VN
p2521
sg1743
I2
sg70
VSUBJ_REL_SVO
p2522
sg1744
(iconstruction
TP_SEMFRAME
p2523
(dp2524
g100
g0
(g101
g2
Ntp2525
Rp2526
(dp2527
g105
(dp2528
(iconstruction
TP_NODE
p2529
(dp2530
g1753
I00
sg89
g742
sg70
VEVT_136
p2531
sg1754
I01
sg1755
I00
sg587
I136
sb(dp2532
g1754
I01
sg89
g742
ss(iconstruction
TP_NODE
p2533
(dp2534
g1753
I01
sg89
g745
sg70
g2517
sg1754
I01
sg1755
I00
sg587
I138
sb(dp2535
g1754
I01
sg89
g745
ss(iconstruction
TP_NODE
p2536
(dp2537
g1753
I00
sg89
g607
sg70
g2515
sg1754
I01
sg1755
I01
sg587
I137
sb(dp2538
g1754
I01
sg89
g607
ss(iconstruction
TP_NODE
p2539
(dp2540
g1753
I00
sg89
g745
sg70
g2519
sg1754
I01
sg1755
I00
sg587
I139
sb(dp2541
g1754
I01
sg89
g745
sssg288
g289
sg290
g289
sg291
(dp2542
g2529
(dp2543
g2536
(dp2544
g89
g736
sssg2533
(dp2545
g2529
(dp2546
g89
g694
sssg2536
(dp2547
g2533
(dp2548
g89
g715
ssg2539
(dp2549
g89
g709
sssg2539
(dp2550
ssg485
g2542
sg100
(dp2551
sg487
g289
sg488
g2542
sg489
(dp2552
g2529
(dp2553
g2533
g2546
ssg2533
(dp2554
g2536
g2548
ssg2536
(dp2555
g2529
g2544
ssg2539
(dp2556
g2536
g2549
sssbsg582
(lp2557
g2529
ag2536
ag2533
ag2539
asg855
(lp2558
(iconstruction
TP_REL
p2559
(dp2560
g861
g2536
sg89
g736
sg587
I140
sg862
g2529
sg70
VIS_140
p2561
sba(iconstruction
TP_REL
p2562
(dp2563
g861
g2533
sg89
g715
sg587
I141
sg862
g2536
sg70
VACT_AGT_141
p2564
sba(iconstruction
TP_REL
p2565
(dp2566
g861
g2539
sg89
g709
sg587
I142
sg862
g2536
sg70
VACT_PT_142
p2567
sba(iconstruction
TP_REL
p2568
(dp2569
g861
g2529
sg89
g694
sg587
I143
sg862
g2533
sg70
VAGT_EVT_143
p2570
sbasg587
I133
sg70
g1674
sbsg1769
(iconstruction
TP_SYNFORM
p2571
(dp2572
g587
I134
sg1772
(lp2573
(iconstruction
TP_SLOT
p2574
(dp2575
g1776
(lp2576
VN
p2577
asg1779
I0
sg587
I144
sg70
g2518
sba(iconstruction
TP_PHON
p2578
(dp2579
g1782
I4
sg1779
I1
sg587
I145
sg1783
Vthat
p2580
sg70
VS2_145
p2581
sba(iconstruction
TP_SLOT
p2582
(dp2583
g1776
(lp2584
VVP
p2585
aVV
p2586
asg1779
I2
sg587
I146
sg70
g2516
sba(iconstruction
TP_SLOT
p2587
(dp2588
g1776
(lp2589
VNP
p2590
aVN
p2591
asg1779
I3
sg587
I147
sg70
g2520
sbasg70
g1674
sbsg1790
I1
sba(iconstruction
CXN
p2592
(dp2593
g1732
(iconstruction
TP_SYMLINKS
p2594
(dp2595
g1735
(dp2596
VACT_152
p2597
VS3_159
p2598
sVAGT_153
p2599
VS1_157
p2600
ssg587
I150
sg70
g1674
sbsg1741
VN
p2601
sg1743
I2
sg70
VSUBJ_REL_SV
p2602
sg1744
(iconstruction
TP_SEMFRAME
p2603
(dp2604
g100
g0
(g101
g2
Ntp2605
Rp2606
(dp2607
g105
(dp2608
(iconstruction
TP_NODE
p2609
(dp2610
g1753
I00
sg89
g742
sg70
VEVT_151
p2611
sg1754
I01
sg1755
I00
sg587
I151
sb(dp2612
g1754
I01
sg89
g742
ss(iconstruction
TP_NODE
p2613
(dp2614
g1753
I01
sg89
g745
sg70
g2599
sg1754
I01
sg1755
I00
sg587
I153
sb(dp2615
g1754
I01
sg89
g745
ss(iconstruction
TP_NODE
p2616
(dp2617
g1753
I00
sg89
g589
sg70
g2597
sg1754
I01
sg1755
I01
sg587
I152
sb(dp2618
g1754
I01
sg89
g589
sssg288
g289
sg290
g289
sg291
(dp2619
g2609
(dp2620
g2616
(dp2621
g89
g736
sssg2613
(dp2622
g2609
(dp2623
g89
g694
sssg2616
(dp2624
g2613
(dp2625
g89
g715
ssssg485
g2619
sg100
(dp2626
sg487
g289
sg488
g2619
sg489
(dp2627
g2609
(dp2628
g2613
g2623
ssg2613
(dp2629
g2616
g2625
ssg2616
(dp2630
g2609
g2621
sssbsg582
(lp2631
g2609
ag2616
ag2613
asg855
(lp2632
(iconstruction
TP_REL
p2633
(dp2634
g861
g2616
sg89
g736
sg587
I154
sg862
g2609
sg70
VIS_154
p2635
sba(iconstruction
TP_REL
p2636
(dp2637
g861
g2613
sg89
g715
sg587
I155
sg862
g2616
sg70
VACT_AGT_155
p2638
sba(iconstruction
TP_REL
p2639
(dp2640
g861
g2609
sg89
g694
sg587
I156
sg862
g2613
sg70
VAGT_EVT_156
p2641
sbasg587
I148
sg70
g1674
sbsg1769
(iconstruction
TP_SYNFORM
p2642
(dp2643
g587
I149
sg1772
(lp2644
(iconstruction
TP_SLOT
p2645
(dp2646
g1776
(lp2647
VN
p2648
asg1779
I0
sg587
I157
sg70
g2600
sba(iconstruction
TP_PHON
p2649
(dp2650
g1782
I4
sg1779
I1
sg587
I158
sg1783
Vthat
p2651
sg70
VS2_158
p2652
sba(iconstruction
TP_SLOT
p2653
(dp2654
g1776
(lp2655
VVP
p2656
aVV
p2657
asg1779
I2
sg587
I159
sg70
g2598
sbasg70
g1674
sbsg1790
I1
sba(iconstruction
CXN
p2658
(dp2659
g1732
(iconstruction
TP_SYMLINKS
p2660
(dp2661
g1735
(dp2662
VACT_164
p2663
VS4_174
p2664
sVPT_166
p2665
VS1_171
p2666
sVAGT_165
p2667
VS7_177
p2668
ssg587
I162
sg70
g1674
sbsg1741
VN
p2669
sg1743
I2
sg70
VSUBJ_REL_PAS_SVO
p2670
sg1744
(iconstruction
TP_SEMFRAME
p2671
(dp2672
g100
g0
(g101
g2
Ntp2673
Rp2674
(dp2675
g105
(dp2676
(iconstruction
TP_NODE
p2677
(dp2678
g1753
I00
sg89
g742
sg70
VEVT_163
p2679
sg1754
I01
sg1755
I00
sg587
I163
sb(dp2680
g1754
I01
sg89
g742
ss(iconstruction
TP_NODE
p2681
(dp2682
g1753
I00
sg89
g745
sg70
g2667
sg1754
I01
sg1755
I00
sg587
I165
sb(dp2683
g1754
I01
sg89
g745
ss(iconstruction
TP_NODE
p2684
(dp2685
g1753
I01
sg89
g745
sg70
g2665
sg1754
I01
sg1755
I00
sg587
I166
sb(dp2686
g1754
I01
sg89
g745
ss(iconstruction
TP_NODE
p2687
(dp2688
g1753
I00
sg89
g589
sg70
g2663
sg1754
I01
sg1755
I01
sg587
I164
sb(dp2689
g1754
I01
sg89
g589
sssg288
g289
sg290
g289
sg291
(dp2690
g2677
(dp2691
g2687
(dp2692
g89
g736
sssg2681
(dp2693
sg2684
(dp2694
g2677
(dp2695
g89
g694
sssg2687
(dp2696
g2681
(dp2697
g89
g715
ssg2684
(dp2698
g89
g709
ssssg485
g2690
sg100
(dp2699
sg487
g289
sg488
g2690
sg489
(dp2700
g2677
(dp2701
g2684
g2695
ssg2681
(dp2702
g2687
g2697
ssg2684
(dp2703
g2687
g2698
ssg2687
(dp2704
g2677
g2692
sssbsg582
(lp2705
g2677
ag2687
ag2681
ag2684
asg855
(lp2706
(iconstruction
TP_REL
p2707
(dp2708
g861
g2687
sg89
g736
sg587
I167
sg862
g2677
sg70
VIS_167
p2709
sba(iconstruction
TP_REL
p2710
(dp2711
g861
g2681
sg89
g715
sg587
I168
sg862
g2687
sg70
VACT_AGT_168
p2712
sba(iconstruction
TP_REL
p2713
(dp2714
g861
g2684
sg89
g709
sg587
I169
sg862
g2687
sg70
VACT_PT_169
p2715
sba(iconstruction
TP_REL
p2716
(dp2717
g861
g2677
sg89
g694
sg587
I170
sg862
g2684
sg70
VPT_EVT_170
p2718
sbasg587
I160
sg70
g1674
sbsg1769
(iconstruction
TP_SYNFORM
p2719
(dp2720
g587
I161
sg1772
(lp2721
(iconstruction
TP_SLOT
p2722
(dp2723
g1776
(lp2724
VN
p2725
asg1779
I0
sg587
I171
sg70
g2666
sba(iconstruction
TP_PHON
p2726
(dp2727
g1782
I4
sg1779
I1
sg587
I172
sg1783
Vthat
p2728
sg70
VS2_172
p2729
sba(iconstruction
TP_PHON
p2730
(dp2731
g1782
I2
sg1779
I2
sg587
I173
sg1783
Vis
p2732
sg70
VS3_173
p2733
sba(iconstruction
TP_SLOT
p2734
(dp2735
g1776
(lp2736
VVP
p2737
aVV
p2738
asg1779
I3
sg587
I174
sg70
g2664
sba(iconstruction
TP_PHON
p2739
(dp2740
g1782
I2
sg1779
I4
sg587
I175
sg1783
V-ed
p2741
sg70
VS5_175
p2742
sba(iconstruction
TP_PHON
p2743
(dp2744
g1782
I2
sg1779
I5
sg587
I176
sg1783
Vby
p2745
sg70
VS6_176
p2746
sba(iconstruction
TP_SLOT
p2747
(dp2748
g1776
(lp2749
VNP
p2750
aVN
p2751
asg1779
I6
sg587
I177
sg70
g2668
sbasg70
g1674
sbsg1790
I1
sba(iconstruction
CXN
p2752
(dp2753
g1732
(iconstruction
TP_SYMLINKS
p2754
(dp2755
g1735
(dp2756
VAGT_183
p2757
VS3_191
p2758
sVPT_184
p2759
VS1_189
p2760
sVACT_182
p2761
VS4_192
p2762
ssg587
I180
sg70
g1674
sbsg1741
VN
p2763
sg1743
I2
sg70
VOBJ_REL_SVO
p2764
sg1744
(iconstruction
TP_SEMFRAME
p2765
(dp2766
g100
g0
(g101
g2
Ntp2767
Rp2768
(dp2769
g105
(dp2770
(iconstruction
TP_NODE
p2771
(dp2772
g1753
I00
sg89
g742
sg70
VEVT_181
p2773
sg1754
I01
sg1755
I00
sg587
I181
sb(dp2774
g1754
I01
sg89
g742
ss(iconstruction
TP_NODE
p2775
(dp2776
g1753
I00
sg89
g745
sg70
g2757
sg1754
I01
sg1755
I00
sg587
I183
sb(dp2777
g1754
I01
sg89
g745
ss(iconstruction
TP_NODE
p2778
(dp2779
g1753
I00
sg89
g589
sg70
g2761
sg1754
I01
sg1755
I01
sg587
I182
sb(dp2780
g1754
I01
sg89
g589
ss(iconstruction
TP_NODE
p2781
(dp2782
g1753
I01
sg89
g745
sg70
g2759
sg1754
I01
sg1755
I00
sg587
I184
sb(dp2783
g1754
I01
sg89
g745
sssg288
g289
sg290
g289
sg291
(dp2784
g2771
(dp2785
g2778
(dp2786
g89
g736
sssg2775
(dp2787
sg2778
(dp2788
g2775
(dp2789
g89
g715
ssg2781
(dp2790
g89
g709
sssg2781
(dp2791
g2771
(dp2792
g89
g694
ssssg485
g2784
sg100
(dp2793
sg487
g289
sg488
g2784
sg489
(dp2794
g2771
(dp2795
g2781
g2792
ssg2775
(dp2796
g2778
g2789
ssg2778
(dp2797
g2771
g2786
ssg2781
(dp2798
g2778
g2790
sssbsg582
(lp2799
g2771
ag2778
ag2775
ag2781
asg855
(lp2800
(iconstruction
TP_REL
p2801
(dp2802
g861
g2778
sg89
g736
sg587
I185
sg862
g2771
sg70
VIS_185
p2803
sba(iconstruction
TP_REL
p2804
(dp2805
g861
g2775
sg89
g715
sg587
I186
sg862
g2778
sg70
VACT_AGT_186
p2806
sba(iconstruction
TP_REL
p2807
(dp2808
g861
g2781
sg89
g709
sg587
I187
sg862
g2778
sg70
VACT_PT_187
p2809
sba(iconstruction
TP_REL
p2810
(dp2811
g861
g2771
sg89
g694
sg587
I188
sg862
g2781
sg70
VPT_EVT_188
p2812
sbasg587
I178
sg70
g1674
sbsg1769
(iconstruction
TP_SYNFORM
p2813
(dp2814
g587
I179
sg1772
(lp2815
(iconstruction
TP_SLOT
p2816
(dp2817
g1776
(lp2818
VN
p2819
asg1779
I0
sg587
I189
sg70
g2760
sba(iconstruction
TP_PHON
p2820
(dp2821
g1782
I4
sg1779
I1
sg587
I190
sg1783
Vthat
p2822
sg70
VS2_190
p2823
sba(iconstruction
TP_SLOT
p2824
(dp2825
g1776
(lp2826
VNP
p2827
aVN
p2828
asg1779
I2
sg587
I191
sg70
g2758
sba(iconstruction
TP_SLOT
p2829
(dp2830
g1776
(lp2831
VVP
p2832
aVV
p2833
asg1779
I3
sg587
I192
sg70
g2762
sbasg70
g1674
sbsg1790
I1
sba(iconstruction
CXN
p2834
(dp2835
g1732
(iconstruction
TP_SYMLINKS
p2836
(dp2837
g1735
(dp2838
VAGT_198
p2839
VS1_204
p2840
sVACT_197
p2841
VS5_208
p2842
sVPT_199
p2843
VS3_206
p2844
ssg587
I195
sg70
g1674
sbsg1741
VN
p2845
sg1743
I2
sg70
VOBJ_REL_PAS_SVO
p2846
sg1744
(iconstruction
TP_SEMFRAME
p2847
(dp2848
g100
g0
(g101
g2
Ntp2849
Rp2850
(dp2851
g105
(dp2852
(iconstruction
TP_NODE
p2853
(dp2854
g1753
I00
sg89
g742
sg70
VEVT_196
p2855
sg1754
I01
sg1755
I00
sg587
I196
sb(dp2856
g1754
I01
sg89
g742
ss(iconstruction
TP_NODE
p2857
(dp2858
g1753
I01
sg89
g745
sg70
g2839
sg1754
I01
sg1755
I00
sg587
I198
sb(dp2859
g1754
I01
sg89
g745
ss(iconstruction
TP_NODE
p2860
(dp2861
g1753
I00
sg89
g589
sg70
g2841
sg1754
I01
sg1755
I01
sg587
I197
sb(dp2862
g1754
I01
sg89
g589
ss(iconstruction
TP_NODE
p2863
(dp2864
g1753
I00
sg89
g745
sg70
g2843
sg1754
I01
sg1755
I00
sg587
I199
sb(dp2865
g1754
I01
sg89
g745
sssg288
g289
sg290
g289
sg291
(dp2866
g2853
(dp2867
g2860
(dp2868
g89
g736
sssg2857
(dp2869
g2853
(dp2870
g89
g694
sssg2860
(dp2871
g2857
(dp2872
g89
g715
ssg2863
(dp2873
g89
g709
sssg2863
(dp2874
ssg485
g2866
sg100
(dp2875
sg487
g289
sg488
g2866
sg489
(dp2876
g2853
(dp2877
g2857
g2870
ssg2857
(dp2878
g2860
g2872
ssg2860
(dp2879
g2853
g2868
ssg2863
(dp2880
g2860
g2873
sssbsg582
(lp2881
g2853
ag2860
ag2857
ag2863
asg855
(lp2882
(iconstruction
TP_REL
p2883
(dp2884
g861
g2860
sg89
g736
sg587
I200
sg862
g2853
sg70
VIS_200
p2885
sba(iconstruction
TP_REL
p2886
(dp2887
g861
g2857
sg89
g715
sg587
I201
sg862
g2860
sg70
VACT_AGT_201
p2888
sba(iconstruction
TP_REL
p2889
(dp2890
g861
g2863
sg89
g709
sg587
I202
sg862
g2860
sg70
VACT_PT_202
p2891
sba(iconstruction
TP_REL
p2892
(dp2893
g861
g2853
sg89
g694
sg587
I203
sg862
g2857
sg70
VAGT_EVT_203
p2894
sbasg587
I193
sg70
g1674
sbsg1769
(iconstruction
TP_SYNFORM
p2895
(dp2896
g587
I194
sg1772
(lp2897
(iconstruction
TP_SLOT
p2898
(dp2899
g1776
(lp2900
VN
p2901
asg1779
I0
sg587
I204
sg70
g2840
sba(iconstruction
TP_PHON
p2902
(dp2903
g1782
I4
sg1779
I1
sg587
I205
sg1783
Vthat
p2904
sg70
VS2_205
p2905
sba(iconstruction
TP_SLOT
p2906
(dp2907
g1776
(lp2908
VNP
p2909
aVN
p2910
asg1779
I2
sg587
I206
sg70
g2844
sba(iconstruction
TP_PHON
p2911
(dp2912
g1782
I2
sg1779
I3
sg587
I207
sg1783
Vis
p2913
sg70
VS4_207
p2914
sba(iconstruction
TP_SLOT
p2915
(dp2916
g1776
(lp2917
VVP
p2918
aVV
p2919
asg1779
I4
sg587
I208
sg70
g2842
sba(iconstruction
TP_PHON
p2920
(dp2921
g1782
I2
sg1779
I5
sg587
I209
sg1783
V-ed
p2922
sg70
VS6_209
p2923
sba(iconstruction
TP_PHON
p2924
(dp2925
g1782
I2
sg1779
I6
sg587
I210
sg1783
Vby
p2926
sg70
VS7_210
p2927
sbasg70
g1674
sbsg1790
I1
sba(iconstruction
CXN
p2928
(dp2929
g1732
(iconstruction
TP_SYMLINKS
p2930
(dp2931
g1735
(dp2932
VENT_215
p2933
VS1_219
p2934
sVATTR_216
p2935
VS4_222
p2936
ssg587
I213
sg70
g1674
sbsg1741
VN
p2937
sg1743
I2
sg70
VREL_SPA
p2938
sg1744
(iconstruction
TP_SEMFRAME
p2939
(dp2940
g100
g0
(g101
g2
Ntp2941
Rp2942
(dp2943
g105
(dp2944
(iconstruction
TP_NODE
p2945
(dp2946
g1753
I00
sg89
g742
sg70
VEVT_214
p2947
sg1754
I01
sg1755
I00
sg587
I214
sb(dp2948
g1754
I01
sg89
g742
ss(iconstruction
TP_NODE
p2949
(dp2950
g1753
I00
sg89
g646
sg70
g2935
sg1754
I00
sg1755
I00
sg587
I216
sb(dp2951
g1754
I00
sg89
g646
ss(iconstruction
TP_NODE
p2952
(dp2953
g1753
I01
sg89
g745
sg70
g2933
sg1754
I01
sg1755
I01
sg587
I215
sb(dp2954
g1754
I01
sg89
g745
sssg288
g289
sg290
g289
sg291
(dp2955
g2945
(dp2956
g2949
(dp2957
g89
g694
ssg2952
(dp2958
g89
g736
sssg2949
(dp2959
sg2952
(dp2960
ssg485
g2955
sg100
(dp2961
sg487
g289
sg488
g2955
sg489
(dp2962
g2945
(dp2963
sg2949
(dp2964
g2945
g2957
ssg2952
(dp2965
g2945
g2958
sssbsg582
(lp2966
g2945
ag2952
ag2949
asg855
(lp2967
(iconstruction
TP_REL
p2968
(dp2969
g861
g2952
sg89
g736
sg587
I217
sg862
g2945
sg70
VIS_217
p2970
sba(iconstruction
TP_REL
p2971
(dp2972
g861
g2949
sg89
g694
sg587
I218
sg862
g2945
sg70
VEVT_ATTR_218
p2973
sbasg587
I211
sg70
g1674
sbsg1769
(iconstruction
TP_SYNFORM
p2974
(dp2975
g587
I212
sg1772
(lp2976
(iconstruction
TP_SLOT
p2977
(dp2978
g1776
(lp2979
VN
p2980
asg1779
I0
sg587
I219
sg70
g2934
sba(iconstruction
TP_PHON
p2981
(dp2982
g1782
I4
sg1779
I1
sg587
I220
sg1783
Vthat
p2983
sg70
VS2_220
p2984
sba(iconstruction
TP_PHON
p2985
(dp2986
g1782
I2
sg1779
I2
sg587
I221
sg1783
Vis
p2987
sg70
VS3_221
p2988
sba(iconstruction
TP_SLOT
p2989
(dp2990
g1776
(lp2991
VA
p2992
asg1779
I3
sg587
I222
sg70
g2936
sbasg70
g1674
sbsg1790
I1
sba(iconstruction
CXN
p2993
(dp2994
g1732
(iconstruction
TP_SYMLINKS
p2995
(dp2996
g1735
(dp2997
VAGT_228
p2998
VS1_235
p2999
sVCOLOR_230
p3000
VS3_237
p3001
ssg587
I225
sg70
g1674
sbsg1741
VN
p3002
sg1743
I2
sg70
VIN_COLOR
p3003
sg1744
(iconstruction
TP_SEMFRAME
p3004
(dp3005
g100
g0
(g101
g2
Ntp3006
Rp3007
(dp3008
g105
(dp3009
(iconstruction
TP_NODE
p3010
(dp3011
g1753
I00
sg89
g742
sg70
VEVT_226
p3012
sg1754
I01
sg1755
I00
sg587
I226
sb(dp3013
g1754
I01
sg89
g742
ss(iconstruction
TP_NODE
p3014
(dp3015
g1753
I01
sg89
g754
sg70
g2998
sg1754
I01
sg1755
I00
sg587
I228
sb(dp3016
g1754
I01
sg89
g754
ss(iconstruction
TP_NODE
p3017
(dp3018
g1753
I00
sg89
g634
sg70
VACT_227
p3019
sg1754
I01
sg1755
I00
sg587
I227
sb(dp3020
g1754
I01
sg89
g634
ss(iconstruction
TP_NODE
p3021
(dp3022
g1753
I00
sg89
g784
sg70
VPT_229
p3023
sg1754
I01
sg1755
I00
sg587
I229
sb(dp3024
g1754
I01
sg89
g784
ss(iconstruction
TP_NODE
p3025
(dp3026
g1753
I00
sg89
g649
sg70
g3000
sg1754
I00
sg1755
I01
sg587
I230
sb(dp3027
g1754
I00
sg89
g649
sssg288
g289
sg290
g289
sg291
(dp3028
g3010
(dp3029
g3017
(dp3030
g89
g736
sssg3014
(dp3031
sg3017
(dp3032
g3014
(dp3033
g89
g715
ssg3021
(dp3034
g89
g709
sssg3021
(dp3035
g3025
(dp3036
g89
g694
sssg3025
(dp3037
ssg485
g3028
sg100
(dp3038
sg487
g289
sg488
g3028
sg489
(dp3039
g3010
(dp3040
sg3014
(dp3041
g3017
g3033
ssg3017
(dp3042
g3010
g3030
ssg3021
(dp3043
g3017
g3034
ssg3025
(dp3044
g3021
g3036
sssbsg582
(lp3045
g3010
ag3017
ag3014
ag3021
ag3025
asg855
(lp3046
(iconstruction
TP_REL
p3047
(dp3048
g861
g3017
sg89
g736
sg587
I231
sg862
g3010
sg70
VIS_231
p3049
sba(iconstruction
TP_REL
p3050
(dp3051
g861
g3014
sg89
g715
sg587
I232
sg862
g3017
sg70
VACT_AGT_232
p3052
sba(iconstruction
TP_REL
p3053
(dp3054
g861
g3021
sg89
g709
sg587
I233
sg862
g3017
sg70
VACT_PT_233
p3055
sba(iconstruction
TP_REL
p3056
(dp3057
g861
g3025
sg89
g694
sg587
I234
sg862
g3021
sg70
VPT_COLOR_234
p3058
sbasg587
I223
sg70
g1674
sbsg1769
(iconstruction
TP_SYNFORM
p3059
(dp3060
g587
I224
sg1772
(lp3061
(iconstruction
TP_SLOT
p3062
(dp3063
g1776
(lp3064
VN
p3065
asg1779
I0
sg587
I235
sg70
g2999
sba(iconstruction
TP_PHON
p3066
(dp3067
g1782
I2
sg1779
I1
sg587
I236
sg1783
Vin
p3068
sg70
VS2_236
p3069
sba(iconstruction
TP_SLOT
p3070
(dp3071
g1776
(lp3072
VA
p3073
asg1779
I2
sg587
I237
sg70
g3001
sbasg70
g1674
sbsg1790
I1
sba(iconstruction
CXN
p3074
(dp3075
g1732
(iconstruction
TP_SYMLINKS
p3076
(dp3077
g1735
(dp3078
VN1_242
p3079
VS1_244
p3080
ssg587
I240
sg70
g1674
sbsg1741
VV
p3081
sg1743
I1
sg70
VHIT
p3082
sg1744
(iconstruction
TP_SEMFRAME
p3083
(dp3084
g100
g0
(g101
g2
Ntp3085
Rp3086
(dp3087
g105
(dp3088
(iconstruction
TP_NODE
p3089
(dp3090
g1753
I00
sg89
g610
sg70
g3079
sg1754
I00
sg1755
I00
sg587
I242
sb(dp3091
g1754
I00
sg89
g610
ss(iconstruction
TP_NODE
p3092
(dp3093
g1753
I01
sg89
g589
sg70
VACT_241
p3094
sg1754
I01
sg1755
I00
sg587
I241
sb(dp3095
g1754
I01
sg89
g589
sssg288
g289
sg290
g289
sg291
(dp3096
g3089
(dp3097
sg3092
(dp3098
g3089
(dp3099
g89
g736
ssssg485
g3096
sg100
(dp3100
sg487
g289
sg488
g3096
sg489
(dp3101
g3089
(dp3102
g3092
g3099
ssg3092
(dp3103
ssbsg582
(lp3104
g3092
ag3089
asg855
(lp3105
(iconstruction
TP_REL
p3106
(dp3107
g861
g3089
sg89
g736
sg587
I243
sg862
g3092
sg70
VIS_243
p3108
sbasg587
I238
sg70
g1674
sbsg1769
(iconstruction
TP_SYNFORM
p3109
(dp3110
g587
I239
sg1772
(lp3111
(iconstruction
TP_PHON
p3112
(dp3113
g1782
I3
sg1779
I0
sg587
I244
sg1783
Vhit
p3114
sg70
g3080
sbasg70
g1674
sbsg1790
I1
sba(iconstruction
CXN
p3115
(dp3116
g1732
(iconstruction
TP_SYMLINKS
p3117
(dp3118
g1735
(dp3119
VN1_249
p3120
VS1_251
p3121
ssg587
I247
sg70
g1674
sbsg1741
VV
p3122
sg1743
I1
sg70
VKICK
p3123
sg1744
(iconstruction
TP_SEMFRAME
p3124
(dp3125
g100
g0
(g101
g2
Ntp3126
Rp3127
(dp3128
g105
(dp3129
(iconstruction
TP_NODE
p3130
(dp3131
g1753
I00
sg89
g631
sg70
g3120
sg1754
I00
sg1755
I00
sg587
I249
sb(dp3132
g1754
I00
sg89
g631
ss(iconstruction
TP_NODE
p3133
(dp3134
g1753
I01
sg89
g589
sg70
VACT_248
p3135
sg1754
I01
sg1755
I00
sg587
I248
sb(dp3136
g1754
I01
sg89
g589
sssg288
g289
sg290
g289
sg291
(dp3137
g3130
(dp3138
sg3133
(dp3139
g3130
(dp3140
g89
g736
ssssg485
g3137
sg100
(dp3141
sg487
g289
sg488
g3137
sg489
(dp3142
g3130
(dp3143
g3133
g3140
ssg3133
(dp3144
ssbsg582
(lp3145
g3133
ag3130
asg855
(lp3146
(iconstruction
TP_REL
p3147
(dp3148
g861
g3130
sg89
g736
sg587
I250
sg862
g3133
sg70
VIS_250
p3149
sbasg587
I245
sg70
g1674
sbsg1769
(iconstruction
TP_SYNFORM
p3150
(dp3151
g587
I246
sg1772
(lp3152
(iconstruction
TP_PHON
p3153
(dp3154
g1782
I4
sg1779
I0
sg587
I251
sg1783
Vkick
p3155
sg70
g3121
sbasg70
g1674
sbsg1790
I1
sba(iconstruction
CXN
p3156
(dp3157
g1732
(iconstruction
TP_SYMLINKS
p3158
(dp3159
g1735
(dp3160
VN1_256
p3161
VS1_258
p3162
ssg587
I254
sg70
g1674
sbsg1741
VV
p3163
sg1743
I1
sg70
VPUNCH
p3164
sg1744
(iconstruction
TP_SEMFRAME
p3165
(dp3166
g100
g0
(g101
g2
Ntp3167
Rp3168
(dp3169
g105
(dp3170
(iconstruction
TP_NODE
p3171
(dp3172
g1753
I01
sg89
g589
sg70
VACT_255
p3173
sg1754
I01
sg1755
I00
sg587
I255
sb(dp3174
g1754
I01
sg89
g589
ss(iconstruction
TP_NODE
p3175
(dp3176
g1753
I00
sg89
g616
sg70
g3161
sg1754
I00
sg1755
I00
sg587
I256
sb(dp3177
g1754
I00
sg89
g616
sssg288
g289
sg290
g289
sg291
(dp3178
g3171
(dp3179
g3175
(dp3180
g89
g736
sssg3175
(dp3181
ssg485
g3178
sg100
(dp3182
sg487
g289
sg488
g3178
sg489
(dp3183
g3171
(dp3184
sg3175
(dp3185
g3171
g3180
sssbsg582
(lp3186
g3171
ag3175
asg855
(lp3187
(iconstruction
TP_REL
p3188
(dp3189
g861
g3175
sg89
g736
sg587
I257
sg862
g3171
sg70
VIS_257
p3190
sbasg587
I252
sg70
g1674
sbsg1769
(iconstruction
TP_SYNFORM
p3191
(dp3192
g587
I253
sg1772
(lp3193
(iconstruction
TP_PHON
p3194
(dp3195
g1782
I5
sg1779
I0
sg587
I258
sg1783
Vpunch
p3196
sg70
g3162
sbasg70
g1674
sbsg1790
I1
sba(iconstruction
CXN
p3197
(dp3198
g1732
(iconstruction
TP_SYMLINKS
p3199
(dp3200
g1735
(dp3201
VN1_263
p3202
VS1_265
p3203
ssg587
I261
sg70
g1674
sbsg1741
VV
p3204
sg1743
I1
sg70
VWEAR
p3205
sg1744
(iconstruction
TP_SEMFRAME
p3206
(dp3207
g100
g0
(g101
g2
Ntp3208
Rp3209
(dp3210
g105
(dp3211
(iconstruction
TP_NODE
p3212
(dp3213
g1753
I00
sg89
g634
sg70
g3202
sg1754
I00
sg1755
I00
sg587
I263
sb(dp3214
g1754
I00
sg89
g634
ss(iconstruction
TP_NODE
p3215
(dp3216
g1753
I01
sg89
g589
sg70
VACT_262
p3217
sg1754
I01
sg1755
I00
sg587
I262
sb(dp3218
g1754
I01
sg89
g589
sssg288
g289
sg290
g289
sg291
(dp3219
g3212
(dp3220
sg3215
(dp3221
g3212
(dp3222
g89
g736
ssssg485
g3219
sg100
(dp3223
sg487
g289
sg488
g3219
sg489
(dp3224
g3212
(dp3225
g3215
g3222
ssg3215
(dp3226
ssbsg582
(lp3227
g3215
ag3212
asg855
(lp3228
(iconstruction
TP_REL
p3229
(dp3230
g861
g3212
sg89
g736
sg587
I264
sg862
g3215
sg70
VIS_264
p3231
sbasg587
I259
sg70
g1674
sbsg1769
(iconstruction
TP_SYNFORM
p3232
(dp3233
g587
I260
sg1772
(lp3234
(iconstruction
TP_PHON
p3235
(dp3236
g1782
I4
sg1779
I0
sg587
I265
sg1783
Vwear
p3237
sg70
g3203
sbasg70
g1674
sbsg1790
I1
sba(iconstruction
CXN
p3238
(dp3239
g1732
(iconstruction
TP_SYMLINKS
p3240
(dp3241
g1735
(dp3242
VN1_270
p3243
VS1_272
p3244
ssg587
I268
sg70
g1674
sbsg1741
VV
p3245
sg1743
I1
sg70
VLAUGH
p3246
sg1744
(iconstruction
TP_SEMFRAME
p3247
(dp3248
g100
g0
(g101
g2
Ntp3249
Rp3250
(dp3251
g105
(dp3252
(iconstruction
TP_NODE
p3253
(dp3254
g1753
I01
sg89
g589
sg70
VACT_269
p3255
sg1754
I01
sg1755
I00
sg587
I269
sb(dp3256
g1754
I01
sg89
g589
ss(iconstruction
TP_NODE
p3257
(dp3258
g1753
I00
sg89
g604
sg70
g3243
sg1754
I00
sg1755
I00
sg587
I270
sb(dp3259
g1754
I00
sg89
g604
sssg288
g289
sg290
g289
sg291
(dp3260
g3253
(dp3261
g3257
(dp3262
g89
g736
sssg3257
(dp3263
ssg485
g3260
sg100
(dp3264
sg487
g289
sg488
g3260
sg489
(dp3265
g3253
(dp3266
sg3257
(dp3267
g3253
g3262
sssbsg582
(lp3268
g3253
ag3257
asg855
(lp3269
(iconstruction
TP_REL
p3270
(dp3271
g861
g3257
sg89
g736
sg587
I271
sg862
g3253
sg70
VIS_271
p3272
sbasg587
I266
sg70
g1674
sbsg1769
(iconstruction
TP_SYNFORM
p3273
(dp3274
g587
I267
sg1772
(lp3275
(iconstruction
TP_PHON
p3276
(dp3277
g1782
I5
sg1779
I0
sg587
I272
sg1783
Vlaugh
p3278
sg70
g3244
sbasg70
g1674
sbsg1790
I1
sba(iconstruction
CXN
p3279
(dp3280
g1732
(iconstruction
TP_SYMLINKS
p3281
(dp3282
g1735
(dp3283
VN1_277
p3284
VS1_279
p3285
ssg587
I275
sg70
g1674
sbsg1741
VV
p3286
sg1743
I1
sg70
VWATCH
p3287
sg1744
(iconstruction
TP_SEMFRAME
p3288
(dp3289
g100
g0
(g101
g2
Ntp3290
Rp3291
(dp3292
g105
(dp3293
(iconstruction
TP_NODE
p3294
(dp3295
g1753
I00
sg89
g613
sg70
g3284
sg1754
I00
sg1755
I00
sg587
I277
sb(dp3296
g1754
I00
sg89
g613
ss(iconstruction
TP_NODE
p3297
(dp3298
g1753
I01
sg89
g589
sg70
VACT_276
p3299
sg1754
I01
sg1755
I00
sg587
I276
sb(dp3300
g1754
I01
sg89
g589
sssg288
g289
sg290
g289
sg291
(dp3301
g3294
(dp3302
sg3297
(dp3303
g3294
(dp3304
g89
g736
ssssg485
g3301
sg100
(dp3305
sg487
g289
sg488
g3301
sg489
(dp3306
g3294
(dp3307
g3297
g3304
ssg3297
(dp3308
ssbsg582
(lp3309
g3297
ag3294
asg855
(lp3310
(iconstruction
TP_REL
p3311
(dp3312
g861
g3294
sg89
g736
sg587
I278
sg862
g3297
sg70
VIS_278
p3313
sbasg587
I273
sg70
g1674
sbsg1769
(iconstruction
TP_SYNFORM
p3314
(dp3315
g587
I274
sg1772
(lp3316
(iconstruction
TP_PHON
p3317
(dp3318
g1782
I5
sg1779
I0
sg587
I279
sg1783
Vwatch
p3319
sg70
g3285
sbasg70
g1674
sbsg1790
I1
sba(iconstruction
CXN
p3320
(dp3321
g1732
(iconstruction
TP_SYMLINKS
p3322
(dp3323
g1735
(dp3324
VN1_284
p3325
VS1_286
p3326
ssg587
I282
sg70
g1674
sbsg1741
VV
p3327
sg1743
I1
sg70
VTALK
p3328
sg1744
(iconstruction
TP_SEMFRAME
p3329
(dp3330
g100
g0
(g101
g2
Ntp3331
Rp3332
(dp3333
g105
(dp3334
(iconstruction
TP_NODE
p3335
(dp3336
g1753
I00
sg89
g622
sg70
g3325
sg1754
I00
sg1755
I00
sg587
I284
sb(dp3337
g1754
I00
sg89
g622
ss(iconstruction
TP_NODE
p3338
(dp3339
g1753
I01
sg89
g589
sg70
VACT_283
p3340
sg1754
I01
sg1755
I00
sg587
I283
sb(dp3341
g1754
I01
sg89
g589
sssg288
g289
sg290
g289
sg291
(dp3342
g3335
(dp3343
sg3338
(dp3344
g3335
(dp3345
g89
g736
ssssg485
g3342
sg100
(dp3346
sg487
g289
sg488
g3342
sg489
(dp3347
g3335
(dp3348
g3338
g3345
ssg3338
(dp3349
ssbsg582
(lp3350
g3338
ag3335
asg855
(lp3351
(iconstruction
TP_REL
p3352
(dp3353
g861
g3335
sg89
g736
sg587
I285
sg862
g3338
sg70
VIS_285
p3354
sbasg587
I280
sg70
g1674
sbsg1769
(iconstruction
TP_SYNFORM
p3355
(dp3356
g587
I281
sg1772
(lp3357
(iconstruction
TP_PHON
p3358
(dp3359
g1782
I4
sg1779
I0
sg587
I286
sg1783
Vtalk
p3360
sg70
g3326
sba(iconstruction
TP_PHON
p3361
(dp3362
g1782
I2
sg1779
I1
sg587
I287
sg1783
Vto
p3363
sg70
VS2_287
p3364
sbasg70
g1674
sbsg1790
I1
sba(iconstruction
CXN
p3365
(dp3366
g1732
(iconstruction
TP_SYMLINKS
p3367
(dp3368
g1735
(dp3369
VN1_292
p3370
VS1_294
p3371
ssg587
I290
sg70
g1674
sbsg1741
VV
p3372
sg1743
I1
sg70
VSQUIRT
p3373
sg1744
(iconstruction
TP_SEMFRAME
p3374
(dp3375
g100
g0
(g101
g2
Ntp3376
Rp3377
(dp3378
g105
(dp3379
(iconstruction
TP_NODE
p3380
(dp3381
g1753
I00
sg89
g628
sg70
g3370
sg1754
I00
sg1755
I00
sg587
I292
sb(dp3382
g1754
I00
sg89
g628
ss(iconstruction
TP_NODE
p3383
(dp3384
g1753
I01
sg89
g589
sg70
VACT_291
p3385
sg1754
I01
sg1755
I00
sg587
I291
sb(dp3386
g1754
I01
sg89
g589
sssg288
g289
sg290
g289
sg291
(dp3387
g3380
(dp3388
sg3383
(dp3389
g3380
(dp3390
g89
g736
ssssg485
g3387
sg100
(dp3391
sg487
g289
sg488
g3387
sg489
(dp3392
g3380
(dp3393
g3383
g3390
ssg3383
(dp3394
ssbsg582
(lp3395
g3383
ag3380
asg855
(lp3396
(iconstruction
TP_REL
p3397
(dp3398
g861
g3380
sg89
g736
sg587
I293
sg862
g3383
sg70
VIS_293
p3399
sbasg587
I288
sg70
g1674
sbsg1769
(iconstruction
TP_SYNFORM
p3400
(dp3401
g587
I289
sg1772
(lp3402
(iconstruction
TP_PHON
p3403
(dp3404
g1782
I6
sg1779
I0
sg587
I294
sg1783
Vsquirt
p3405
sg70
g3371
sba(iconstruction
TP_PHON
p3406
(dp3407
g1782
I2
sg1779
I1
sg587
I295
sg1783
Vat
p3408
sg70
VS2_295
p3409
sbasg70
g1674
sbsg1790
I1
sba(iconstruction
CXN
p3410
(dp3411
g1732
(iconstruction
TP_SYMLINKS
p3412
(dp3413
g1735
(dp3414
VN1_300
p3415
VS1_302
p3416
ssg587
I298
sg70
g1674
sbsg1741
VV
p3417
sg1743
I1
sg70
VSPLASH
p3418
sg1744
(iconstruction
TP_SEMFRAME
p3419
(dp3420
g100
g0
(g101
g2
Ntp3421
Rp3422
(dp3423
g105
(dp3424
(iconstruction
TP_NODE
p3425
(dp3426
g1753
I00
sg89
g619
sg70
g3415
sg1754
I00
sg1755
I00
sg587
I300
sb(dp3427
g1754
I00
sg89
g619
ss(iconstruction
TP_NODE
p3428
(dp3429
g1753
I01
sg89
g589
sg70
VACT_299
p3430
sg1754
I01
sg1755
I00
sg587
I299
sb(dp3431
g1754
I01
sg89
g589
sssg288
g289
sg290
g289
sg291
(dp3432
g3425
(dp3433
sg3428
(dp3434
g3425
(dp3435
g89
g736
ssssg485
g3432
sg100
(dp3436
sg487
g289
sg488
g3432
sg489
(dp3437
g3425
(dp3438
g3428
g3435
ssg3428
(dp3439
ssbsg582
(lp3440
g3428
ag3425
asg855
(lp3441
(iconstruction
TP_REL
p3442
(dp3443
g861
g3425
sg89
g736
sg587
I301
sg862
g3428
sg70
VIS_301
p3444
sbasg587
I296
sg70
g1674
sbsg1769
(iconstruction
TP_SYNFORM
p3445
(dp3446
g587
I297
sg1772
(lp3447
(iconstruction
TP_PHON
p3448
(dp3449
g1782
I6
sg1779
I0
sg587
I302
sg1783
Vsplash
p3450
sg70
g3416
sbasg70
g1674
sbsg1790
I1
sba(iconstruction
CXN
p3451
(dp3452
g1732
(iconstruction
TP_SYMLINKS
p3453
(dp3454
g1735
(dp3455
VN1_307
p3456
VS1_309
p3457
ssg587
I305
sg70
g1674
sbsg1741
VV
p3458
sg1743
I1
sg70
VGIVE
p3459
sg1744
(iconstruction
TP_SEMFRAME
p3460
(dp3461
g100
g0
(g101
g2
Ntp3462
Rp3463
(dp3464
g105
(dp3465
(iconstruction
TP_NODE
p3466
(dp3467
g1753
I01
sg89
g589
sg70
VACT_306
p3468
sg1754
I01
sg1755
I00
sg587
I306
sb(dp3469
g1754
I01
sg89
g589
ss(iconstruction
TP_NODE
p3470
(dp3471
g1753
I00
sg89
g643
sg70
g3456
sg1754
I00
sg1755
I00
sg587
I307
sb(dp3472
g1754
I00
sg89
g643
sssg288
g289
sg290
g289
sg291
(dp3473
g3466
(dp3474
g3470
(dp3475
g89
g736
sssg3470
(dp3476
ssg485
g3473
sg100
(dp3477
sg487
g289
sg488
g3473
sg489
(dp3478
g3466
(dp3479
sg3470
(dp3480
g3466
g3475
sssbsg582
(lp3481
g3466
ag3470
asg855
(lp3482
(iconstruction
TP_REL
p3483
(dp3484
g861
g3470
sg89
g736
sg587
I308
sg862
g3466
sg70
VIS_308
p3485
sbasg587
I303
sg70
g1674
sbsg1769
(iconstruction
TP_SYNFORM
p3486
(dp3487
g587
I304
sg1772
(lp3488
(iconstruction
TP_PHON
p3489
(dp3490
g1782
I4
sg1779
I0
sg587
I309
sg1783
Vgive
p3491
sg70
g3457
sbasg70
g1674
sbsg1790
I1
sba(iconstruction
CXN
p3492
(dp3493
g1732
(iconstruction
TP_SYMLINKS
p3494
(dp3495
g1735
(dp3496
VN1_314
p3497
VS1_316
p3498
ssg587
I312
sg70
g1674
sbsg1741
VV
p3499
sg1743
I1
sg70
VSEND
p3500
sg1744
(iconstruction
TP_SEMFRAME
p3501
(dp3502
g100
g0
(g101
g2
Ntp3503
Rp3504
(dp3505
g105
(dp3506
(iconstruction
TP_NODE
p3507
(dp3508
g1753
I00
sg89
g640
sg70
g3497
sg1754
I00
sg1755
I00
sg587
I314
sb(dp3509
g1754
I00
sg89
g640
ss(iconstruction
TP_NODE
p3510
(dp3511
g1753
I01
sg89
g589
sg70
VACT_313
p3512
sg1754
I01
sg1755
I00
sg587
I313
sb(dp3513
g1754
I01
sg89
g589
sssg288
g289
sg290
g289
sg291
(dp3514
g3507
(dp3515
sg3510
(dp3516
g3507
(dp3517
g89
g736
ssssg485
g3514
sg100
(dp3518
sg487
g289
sg488
g3514
sg489
(dp3519
g3507
(dp3520
g3510
g3517
ssg3510
(dp3521
ssbsg582
(lp3522
g3510
ag3507
asg855
(lp3523
(iconstruction
TP_REL
p3524
(dp3525
g861
g3507
sg89
g736
sg587
I315
sg862
g3510
sg70
VIS_315
p3526
sbasg587
I310
sg70
g1674
sbsg1769
(iconstruction
TP_SYNFORM
p3527
(dp3528
g587
I311
sg1772
(lp3529
(iconstruction
TP_PHON
p3530
(dp3531
g1782
I4
sg1779
I0
sg587
I316
sg1783
Vsend
p3532
sg70
g3498
sbasg70
g1674
sbsg1790
I1
sba(iconstruction
CXN
p3533
(dp3534
g1732
(iconstruction
TP_SYMLINKS
p3535
(dp3536
g1735
(dp3537
VN1_321
p3538
VS1_323
p3539
ssg587
I319
sg70
g1674
sbsg1741
VV
p3540
sg1743
I1
sg70
VMEET
p3541
sg1744
(iconstruction
TP_SEMFRAME
p3542
(dp3543
g100
g0
(g101
g2
Ntp3544
Rp3545
(dp3546
g105
(dp3547
(iconstruction
TP_NODE
p3548
(dp3549
g1753
I01
sg89
g589
sg70
VACT_320
p3550
sg1754
I01
sg1755
I00
sg587
I320
sb(dp3551
g1754
I01
sg89
g589
ss(iconstruction
TP_NODE
p3552
(dp3553
g1753
I00
sg89
g595
sg70
g3538
sg1754
I00
sg1755
I00
sg587
I321
sb(dp3554
g1754
I00
sg89
g595
sssg288
g289
sg290
g289
sg291
(dp3555
g3548
(dp3556
g3552
(dp3557
g89
g736
sssg3552
(dp3558
ssg485
g3555
sg100
(dp3559
sg487
g289
sg488
g3555
sg489
(dp3560
g3548
(dp3561
sg3552
(dp3562
g3548
g3557
sssbsg582
(lp3563
g3548
ag3552
asg855
(lp3564
(iconstruction
TP_REL
p3565
(dp3566
g861
g3552
sg89
g736
sg587
I322
sg862
g3548
sg70
VIS_322
p3567
sbasg587
I317
sg70
g1674
sbsg1769
(iconstruction
TP_SYNFORM
p3568
(dp3569
g587
I318
sg1772
(lp3570
(iconstruction
TP_PHON
p3571
(dp3572
g1782
I4
sg1779
I0
sg587
I323
sg1783
Vmeet
p3573
sg70
g3539
sbasg70
g1674
sbsg1790
I1
sba(iconstruction
CXN
p3574
(dp3575
g1732
(iconstruction
TP_SYMLINKS
p3576
(dp3577
g1735
(dp3578
VN1_328
p3579
VS1_330
p3580
ssg587
I326
sg70
g1674
sbsg1741
VV
p3581
sg1743
I1
sg70
VKISS
p3582
sg1744
(iconstruction
TP_SEMFRAME
p3583
(dp3584
g100
g0
(g101
g2
Ntp3585
Rp3586
(dp3587
g105
(dp3588
(iconstruction
TP_NODE
p3589
(dp3590
g1753
I01
sg89
g589
sg70
VACT_327
p3591
sg1754
I01
sg1755
I00
sg587
I327
sb(dp3592
g1754
I01
sg89
g589
ss(iconstruction
TP_NODE
p3593
(dp3594
g1753
I00
sg89
g625
sg70
g3579
sg1754
I00
sg1755
I00
sg587
I328
sb(dp3595
g1754
I00
sg89
g625
sssg288
g289
sg290
g289
sg291
(dp3596
g3589
(dp3597
g3593
(dp3598
g89
g736
sssg3593
(dp3599
ssg485
g3596
sg100
(dp3600
sg487
g289
sg488
g3596
sg489
(dp3601
g3589
(dp3602
sg3593
(dp3603
g3589
g3598
sssbsg582
(lp3604
g3589
ag3593
asg855
(lp3605
(iconstruction
TP_REL
p3606
(dp3607
g861
g3593
sg89
g736
sg587
I329
sg862
g3589
sg70
VIS_329
p3608
sbasg587
I324
sg70
g1674
sbsg1769
(iconstruction
TP_SYNFORM
p3609
(dp3610
g587
I325
sg1772
(lp3611
(iconstruction
TP_PHON
p3612
(dp3613
g1782
I4
sg1779
I0
sg587
I330
sg1783
Vkiss
p3614
sg70
g3580
sbasg70
g1674
sbsg1790
I1
sba(iconstruction
CXN
p3615
(dp3616
g1732
(iconstruction
TP_SYMLINKS
p3617
(dp3618
g1735
(dp3619
VN1_335
p3620
VS1_337
p3621
ssg587
I333
sg70
g1674
sbsg1741
VV
p3622
sg1743
I1
sg70
VSHAKE_HANDS
p3623
sg1744
(iconstruction
TP_SEMFRAME
p3624
(dp3625
g100
g0
(g101
g2
Ntp3626
Rp3627
(dp3628
g105
(dp3629
(iconstruction
TP_NODE
p3630
(dp3631
g1753
I00
sg89
g598
sg70
g3620
sg1754
I00
sg1755
I00
sg587
I335
sb(dp3632
g1754
I00
sg89
g598
ss(iconstruction
TP_NODE
p3633
(dp3634
g1753
I01
sg89
g589
sg70
VACT_334
p3635
sg1754
I01
sg1755
I00
sg587
I334
sb(dp3636
g1754
I01
sg89
g589
sssg288
g289
sg290
g289
sg291
(dp3637
g3630
(dp3638
sg3633
(dp3639
g3630
(dp3640
g89
g736
ssssg485
g3637
sg100
(dp3641
sg487
g289
sg488
g3637
sg489
(dp3642
g3630
(dp3643
g3633
g3640
ssg3633
(dp3644
ssbsg582
(lp3645
g3633
ag3630
asg855
(lp3646
(iconstruction
TP_REL
p3647
(dp3648
g861
g3630
sg89
g736
sg587
I336
sg862
g3633
sg70
VIS_336
p3649
sbasg587
I331
sg70
g1674
sbsg1769
(iconstruction
TP_SYNFORM
p3650
(dp3651
g587
I332
sg1772
(lp3652
(iconstruction
TP_PHON
p3653
(dp3654
g1782
I10
sg1779
I0
sg587
I337
sg1783
Vshake hands
p3655
sg70
g3621
sbasg70
g1674
sbsg1790
I1
sba(iconstruction
CXN
p3656
(dp3657
g1732
(iconstruction
TP_SYMLINKS
p3658
(dp3659
g1735
(dp3660
VN1_341
p3661
VS1_342
p3662
ssg587
I340
sg70
g1674
sbsg1741
VA
p3663
sg1743
I1
sg70
VBLUE
p3664
sg1744
(iconstruction
TP_SEMFRAME
p3665
(dp3666
g100
g0
(g101
g2
Ntp3667
Rp3668
(dp3669
g105
(dp3670
(iconstruction
TP_NODE
p3671
(dp3672
g1753
I01
sg89
g652
sg70
g3661
sg1754
I00
sg1755
I00
sg587
I341
sb(dp3673
g1754
I00
sg89
g652
sssg288
g289
sg290
g289
sg291
(dp3674
g3671
(dp3675
ssg485
g3674
sg100
(dp3676
sg487
g289
sg488
g3674
sg489
(dp3677
g3671
(dp3678
ssbsg582
(lp3679
g3671
asg855
(lp3680
sg587
I338
sg70
g1674
sbsg1769
(iconstruction
TP_SYNFORM
p3681
(dp3682
g587
I339
sg1772
(lp3683
(iconstruction
TP_PHON
p3684
(dp3685
g1782
I4
sg1779
I0
sg587
I342
sg1783
Vblue
p3686
sg70
g3662
sbasg70
g1674
sbsg1790
I1
sba(iconstruction
CXN
p3687
(dp3688
g1732
(iconstruction
TP_SYMLINKS
p3689
(dp3690
g1735
(dp3691
VN1_346
p3692
VS1_347
p3693
ssg587
I345
sg70
g1674
sbsg1741
VA
p3694
sg1743
I1
sg70
VBLACK
p3695
sg1744
(iconstruction
TP_SEMFRAME
p3696
(dp3697
g100
g0
(g101
g2
Ntp3698
Rp3699
(dp3700
g105
(dp3701
(iconstruction
TP_NODE
p3702
(dp3703
g1753
I01
sg89
g661
sg70
g3692
sg1754
I00
sg1755
I00
sg587
I346
sb(dp3704
g1754
I00
sg89
g661
sssg288
g289
sg290
g289
sg291
(dp3705
g3702
(dp3706
ssg485
g3705
sg100
(dp3707
sg487
g289
sg488
g3705
sg489
(dp3708
g3702
(dp3709
ssbsg582
(lp3710
g3702
asg855
(lp3711
sg587
I343
sg70
g1674
sbsg1769
(iconstruction
TP_SYNFORM
p3712
(dp3713
g587
I344
sg1772
(lp3714
(iconstruction
TP_PHON
p3715
(dp3716
g1782
I5
sg1779
I0
sg587
I347
sg1783
Vblack
p3717
sg70
g3693
sbasg70
g1674
sbsg1790
I1
sba(iconstruction
CXN
p3718
(dp3719
g1732
(iconstruction
TP_SYMLINKS
p3720
(dp3721
g1735
(dp3722
VN1_351
p3723
VS1_352
p3724
ssg587
I350
sg70
g1674
sbsg1741
VA
p3725
sg1743
I1
sg70
VGREEN
p3726
sg1744
(iconstruction
TP_SEMFRAME
p3727
(dp3728
g100
g0
(g101
g2
Ntp3729
Rp3730
(dp3731
g105
(dp3732
(iconstruction
TP_NODE
p3733
(dp3734
g1753
I01
sg89
g655
sg70
g3723
sg1754
I00
sg1755
I00
sg587
I351
sb(dp3735
g1754
I00
sg89
g655
sssg288
g289
sg290
g289
sg291
(dp3736
g3733
(dp3737
ssg485
g3736
sg100
(dp3738
sg487
g289
sg488
g3736
sg489
(dp3739
g3733
(dp3740
ssbsg582
(lp3741
g3733
asg855
(lp3742
sg587
I348
sg70
g1674
sbsg1769
(iconstruction
TP_SYNFORM
p3743
(dp3744
g587
I349
sg1772
(lp3745
(iconstruction
TP_PHON
p3746
(dp3747
g1782
I5
sg1779
I0
sg587
I352
sg1783
Vgreen
p3748
sg70
g3724
sbasg70
g1674
sbsg1790
I1
sba(iconstruction
CXN
p3749
(dp3750
g1732
(iconstruction
TP_SYMLINKS
p3751
(dp3752
g1735
(dp3753
VN1_356
p3754
VS1_357
p3755
ssg587
I355
sg70
g1674
sbsg1741
VA
p3756
sg1743
I1
sg70
VSMALL
p3757
sg1744
(iconstruction
TP_SEMFRAME
p3758
(dp3759
g100
g0
(g101
g2
Ntp3760
Rp3761
(dp3762
g105
(dp3763
(iconstruction
TP_NODE
p3764
(dp3765
g1753
I01
sg89
g682
sg70
g3754
sg1754
I00
sg1755
I00
sg587
I356
sb(dp3766
g1754
I00
sg89
g682
sssg288
g289
sg290
g289
sg291
(dp3767
g3764
(dp3768
ssg485
g3767
sg100
(dp3769
sg487
g289
sg488
g3767
sg489
(dp3770
g3764
(dp3771
ssbsg582
(lp3772
g3764
asg855
(lp3773
sg587
I353
sg70
g1674
sbsg1769
(iconstruction
TP_SYNFORM
p3774
(dp3775
g587
I354
sg1772
(lp3776
(iconstruction
TP_PHON
p3777
(dp3778
g1782
I5
sg1779
I0
sg587
I357
sg1783
Vsmall
p3779
sg70
g3755
sbasg70
g1674
sbsg1790
I1
sba(iconstruction
CXN
p3780
(dp3781
g1732
(iconstruction
TP_SYMLINKS
p3782
(dp3783
g1735
(dp3784
VN1_361
p3785
VS1_362
p3786
ssg587
I360
sg70
g1674
sbsg1741
VA
p3787
sg1743
I1
sg70
VBIG
p3788
sg1744
(iconstruction
TP_SEMFRAME
p3789
(dp3790
g100
g0
(g101
g2
Ntp3791
Rp3792
(dp3793
g105
(dp3794
(iconstruction
TP_NODE
p3795
(dp3796
g1753
I01
sg89
g685
sg70
g3785
sg1754
I00
sg1755
I00
sg587
I361
sb(dp3797
g1754
I00
sg89
g685
sssg288
g289
sg290
g289
sg291
(dp3798
g3795
(dp3799
ssg485
g3798
sg100
(dp3800
sg487
g289
sg488
g3798
sg489
(dp3801
g3795
(dp3802
ssbsg582
(lp3803
g3795
asg855
(lp3804
sg587
I358
sg70
g1674
sbsg1769
(iconstruction
TP_SYNFORM
p3805
(dp3806
g587
I359
sg1772
(lp3807
(iconstruction
TP_PHON
p3808
(dp3809
g1782
I3
sg1779
I0
sg587
I362
sg1783
Vbig
p3810
sg70
g3786
sbasg70
g1674
sbsg1790
I1
sba(iconstruction
CXN
p3811
(dp3812
g1732
(iconstruction
TP_SYMLINKS
p3813
(dp3814
g1735
(dp3815
VN1_366
p3816
VS1_367
p3817
ssg587
I365
sg70
g1674
sbsg1741
VA
p3818
sg1743
I1
sg70
VHANDSOME
p3819
sg1744
(iconstruction
TP_SEMFRAME
p3820
(dp3821
g100
g0
(g101
g2
Ntp3822
Rp3823
(dp3824
g105
(dp3825
(iconstruction
TP_NODE
p3826
(dp3827
g1753
I01
sg89
g676
sg70
g3816
sg1754
I00
sg1755
I00
sg587
I366
sb(dp3828
g1754
I00
sg89
g676
sssg288
g289
sg290
g289
sg291
(dp3829
g3826
(dp3830
ssg485
g3829
sg100
(dp3831
sg487
g289
sg488
g3829
sg489
(dp3832
g3826
(dp3833
ssbsg582
(lp3834
g3826
asg855
(lp3835
sg587
I363
sg70
g1674
sbsg1769
(iconstruction
TP_SYNFORM
p3836
(dp3837
g587
I364
sg1772
(lp3838
(iconstruction
TP_PHON
p3839
(dp3840
g1782
I8
sg1779
I0
sg587
I367
sg1783
Vhandsome
p3841
sg70
g3817
sbasg70
g1674
sbsg1790
I1
sba(iconstruction
CXN
p3842
(dp3843
g1732
(iconstruction
TP_SYMLINKS
p3844
(dp3845
g1735
(dp3846
VN1_371
p3847
VS1_372
p3848
ssg587
I370
sg70
g1674
sbsg1741
VA
p3849
sg1743
I1
sg70
VPRETTY
p3850
sg1744
(iconstruction
TP_SEMFRAME
p3851
(dp3852
g100
g0
(g101
g2
Ntp3853
Rp3854
(dp3855
g105
(dp3856
(iconstruction
TP_NODE
p3857
(dp3858
g1753
I01
sg89
g673
sg70
g3847
sg1754
I00
sg1755
I00
sg587
I371
sb(dp3859
g1754
I00
sg89
g673
sssg288
g289
sg290
g289
sg291
(dp3860
g3857
(dp3861
ssg485
g3860
sg100
(dp3862
sg487
g289
sg488
g3860
sg489
(dp3863
g3857
(dp3864
ssbsg582
(lp3865
g3857
asg855
(lp3866
sg587
I368
sg70
g1674
sbsg1769
(iconstruction
TP_SYNFORM
p3867
(dp3868
g587
I369
sg1772
(lp3869
(iconstruction
TP_PHON
p3870
(dp3871
g1782
I6
sg1779
I0
sg587
I372
sg1783
Vpretty
p3872
sg70
g3848
sbasg70
g1674
sbsg1790
I1
sba(iconstruction
CXN
p3873
(dp3874
g1732
(iconstruction
TP_SYMLINKS
p3875
(dp3876
g1735
(dp3877
VN1_376
p3878
VS1_377
p3879
ssg587
I375
sg70
g1674
sbsg1741
VA
p3880
sg1743
I1
sg70
VYOUNG
p3881
sg1744
(iconstruction
TP_SEMFRAME
p3882
(dp3883
g100
g0
(g101
g2
Ntp3884
Rp3885
(dp3886
g105
(dp3887
(iconstruction
TP_NODE
p3888
(dp3889
g1753
I01
sg89
g670
sg70
g3878
sg1754
I00
sg1755
I00
sg587
I376
sb(dp3890
g1754
I00
sg89
g670
sssg288
g289
sg290
g289
sg291
(dp3891
g3888
(dp3892
ssg485
g3891
sg100
(dp3893
sg487
g289
sg488
g3891
sg489
(dp3894
g3888
(dp3895
ssbsg582
(lp3896
g3888
asg855
(lp3897
sg587
I373
sg70
g1674
sbsg1769
(iconstruction
TP_SYNFORM
p3898
(dp3899
g587
I374
sg1772
(lp3900
(iconstruction
TP_PHON
p3901
(dp3902
g1782
I5
sg1779
I0
sg587
I377
sg1783
Vyoung
p3903
sg70
g3879
sbasg70
g1674
sbsg1790
I1
sba(iconstruction
CXN
p3904
(dp3905
g1732
(iconstruction
TP_SYMLINKS
p3906
(dp3907
g1735
(dp3908
VN1_382
p3909
VS1_384
p3910
ssg587
I380
sg70
g1674
sbsg1741
VN
p3911
sg1743
I1
sg70
VWOMAN
p3912
sg1744
(iconstruction
TP_SEMFRAME
p3913
(dp3914
g100
g0
(g101
g2
Ntp3915
Rp3916
(dp3917
g105
(dp3918
(iconstruction
TP_NODE
p3919
(dp3920
g1753
I00
sg89
g811
sg70
g3909
sg1754
I00
sg1755
I00
sg587
I382
sb(dp3921
g1754
I00
sg89
g811
ss(iconstruction
TP_NODE
p3922
(dp3923
g1753
I01
sg89
g745
sg70
VENT_381
p3924
sg1754
I01
sg1755
I00
sg587
I381
sb(dp3925
g1754
I01
sg89
g745
sssg288
g289
sg290
g289
sg291
(dp3926
g3919
(dp3927
sg3922
(dp3928
g3919
(dp3929
g89
g736
ssssg485
g3926
sg100
(dp3930
sg487
g289
sg488
g3926
sg489
(dp3931
g3919
(dp3932
g3922
g3929
ssg3922
(dp3933
ssbsg582
(lp3934
g3922
ag3919
asg855
(lp3935
(iconstruction
TP_REL
p3936
(dp3937
g861
g3919
sg89
g736
sg587
I383
sg862
g3922
sg70
VIS_383
p3938
sbasg587
I378
sg70
g1674
sbsg1769
(iconstruction
TP_SYNFORM
p3939
(dp3940
g587
I379
sg1772
(lp3941
(iconstruction
TP_PHON
p3942
(dp3943
g1782
I5
sg1779
I0
sg587
I384
sg1783
Vwoman
p3944
sg70
g3910
sbasg70
g1674
sbsg1790
I1
sba(iconstruction
CXN
p3945
(dp3946
g1732
(iconstruction
TP_SYMLINKS
p3947
(dp3948
g1735
(dp3949
VN1_389
p3950
VS1_391
p3951
ssg587
I387
sg70
g1674
sbsg1741
VN
p3952
sg1743
I1
sg70
VWOMAN2
p3953
sg1744
(iconstruction
TP_SEMFRAME
p3954
(dp3955
g100
g0
(g101
g2
Ntp3956
Rp3957
(dp3958
g105
(dp3959
(iconstruction
TP_NODE
p3960
(dp3961
g1753
I01
sg89
g745
sg70
VENT_388
p3962
sg1754
I01
sg1755
I00
sg587
I388
sb(dp3963
g1754
I01
sg89
g745
ss(iconstruction
TP_NODE
p3964
(dp3965
g1753
I00
sg89
g811
sg70
g3950
sg1754
I00
sg1755
I00
sg587
I389
sb(dp3966
g1754
I00
sg89
g811
sssg288
g289
sg290
g289
sg291
(dp3967
g3960
(dp3968
g3964
(dp3969
g89
g736
sssg3964
(dp3970
ssg485
g3967
sg100
(dp3971
sg487
g289
sg488
g3967
sg489
(dp3972
g3960
(dp3973
sg3964
(dp3974
g3960
g3969
sssbsg582
(lp3975
g3960
ag3964
asg855
(lp3976
(iconstruction
TP_REL
p3977
(dp3978
g861
g3964
sg89
g736
sg587
I390
sg862
g3960
sg70
VIS_390
p3979
sbasg587
I385
sg70
g1674
sbsg1769
(iconstruction
TP_SYNFORM
p3980
(dp3981
g587
I386
sg1772
(lp3982
(iconstruction
TP_PHON
p3983
(dp3984
g1782
I4
sg1779
I0
sg587
I391
sg1783
Vlady
p3985
sg70
g3951
sbasg70
g1674
sbsg1790
I1
sba(iconstruction
CXN
p3986
(dp3987
g1732
(iconstruction
TP_SYMLINKS
p3988
(dp3989
g1735
(dp3990
VN1_396
p3991
VS1_398
p3992
ssg587
I394
sg70
g1674
sbsg1741
VN
p3993
sg1743
I1
sg70
VMAN
p3994
sg1744
(iconstruction
TP_SEMFRAME
p3995
(dp3996
g100
g0
(g101
g2
Ntp3997
Rp3998
(dp3999
g105
(dp4000
(iconstruction
TP_NODE
p4001
(dp4002
g1753
I00
sg89
g838
sg70
g3991
sg1754
I00
sg1755
I00
sg587
I396
sb(dp4003
g1754
I00
sg89
g838
ss(iconstruction
TP_NODE
p4004
(dp4005
g1753
I01
sg89
g745
sg70
VENT_395
p4006
sg1754
I01
sg1755
I00
sg587
I395
sb(dp4007
g1754
I01
sg89
g745
sssg288
g289
sg290
g289
sg291
(dp4008
g4001
(dp4009
sg4004
(dp4010
g4001
(dp4011
g89
g736
ssssg485
g4008
sg100
(dp4012
sg487
g289
sg488
g4008
sg489
(dp4013
g4001
(dp4014
g4004
g4011
ssg4004
(dp4015
ssbsg582
(lp4016
g4004
ag4001
asg855
(lp4017
(iconstruction
TP_REL
p4018
(dp4019
g861
g4001
sg89
g736
sg587
I397
sg862
g4004
sg70
VIS_397
p4020
sbasg587
I392
sg70
g1674
sbsg1769
(iconstruction
TP_SYNFORM
p4021
(dp4022
g587
I393
sg1772
(lp4023
(iconstruction
TP_PHON
p4024
(dp4025
g1782
I3
sg1779
I0
sg587
I398
sg1783
Vman
p4026
sg70
g3992
sbasg70
g1674
sbsg1790
I1
sba(iconstruction
CXN
p4027
(dp4028
g1732
(iconstruction
TP_SYMLINKS
p4029
(dp4030
g1735
(dp4031
VN1_403
p4032
VS1_405
p4033
ssg587
I401
sg70
g1674
sbsg1741
VN
p4034
sg1743
I1
sg70
VGIRL
p4035
sg1744
(iconstruction
TP_SEMFRAME
p4036
(dp4037
g100
g0
(g101
g2
Ntp4038
Rp4039
(dp4040
g105
(dp4041
(iconstruction
TP_NODE
p4042
(dp4043
g1753
I00
sg89
g829
sg70
g4032
sg1754
I00
sg1755
I00
sg587
I403
sb(dp4044
g1754
I00
sg89
g829
ss(iconstruction
TP_NODE
p4045
(dp4046
g1753
I01
sg89
g745
sg70
VENT_402
p4047
sg1754
I01
sg1755
I00
sg587
I402
sb(dp4048
g1754
I01
sg89
g745
sssg288
g289
sg290
g289
sg291
(dp4049
g4042
(dp4050
sg4045
(dp4051
g4042
(dp4052
g89
g736
ssssg485
g4049
sg100
(dp4053
sg487
g289
sg488
g4049
sg489
(dp4054
g4042
(dp4055
g4045
g4052
ssg4045
(dp4056
ssbsg582
(lp4057
g4045
ag4042
asg855
(lp4058
(iconstruction
TP_REL
p4059
(dp4060
g861
g4042
sg89
g736
sg587
I404
sg862
g4045
sg70
VIS_404
p4061
sbasg587
I399
sg70
g1674
sbsg1769
(iconstruction
TP_SYNFORM
p4062
(dp4063
g587
I400
sg1772
(lp4064
(iconstruction
TP_PHON
p4065
(dp4066
g1782
I4
sg1779
I0
sg587
I405
sg1783
Vgirl
p4067
sg70
g4033
sbasg70
g1674
sbsg1790
I1
sba(iconstruction
CXN
p4068
(dp4069
g1732
(iconstruction
TP_SYMLINKS
p4070
(dp4071
g1735
(dp4072
VN1_410
p4073
VS1_412
p4074
ssg587
I408
sg70
g1674
sbsg1741
VN
p4075
sg1743
I1
sg70
VBOY
p4076
sg1744
(iconstruction
TP_SEMFRAME
p4077
(dp4078
g100
g0
(g101
g2
Ntp4079
Rp4080
(dp4081
g105
(dp4082
(iconstruction
TP_NODE
p4083
(dp4084
g1753
I01
sg89
g745
sg70
VENT_409
p4085
sg1754
I01
sg1755
I00
sg587
I409
sb(dp4086
g1754
I01
sg89
g745
ss(iconstruction
TP_NODE
p4087
(dp4088
g1753
I00
sg89
g808
sg70
g4073
sg1754
I00
sg1755
I00
sg587
I410
sb(dp4089
g1754
I00
sg89
g808
sssg288
g289
sg290
g289
sg291
(dp4090
g4083
(dp4091
g4087
(dp4092
g89
g736
sssg4087
(dp4093
ssg485
g4090
sg100
(dp4094
sg487
g289
sg488
g4090
sg489
(dp4095
g4083
(dp4096
sg4087
(dp4097
g4083
g4092
sssbsg582
(lp4098
g4083
ag4087
asg855
(lp4099
(iconstruction
TP_REL
p4100
(dp4101
g861
g4087
sg89
g736
sg587
I411
sg862
g4083
sg70
VIS_411
p4102
sbasg587
I406
sg70
g1674
sbsg1769
(iconstruction
TP_SYNFORM
p4103
(dp4104
g587
I407
sg1772
(lp4105
(iconstruction
TP_PHON
p4106
(dp4107
g1782
I3
sg1779
I0
sg587
I412
sg1783
Vboy
p4108
sg70
g4074
sbasg70
g1674
sbsg1790
I1
sba(iconstruction
CXN
p4109
(dp4110
g1732
(iconstruction
TP_SYMLINKS
p4111
(dp4112
g1735
(dp4113
VN1_417
p4114
VS1_419
p4115
ssg587
I415
sg70
g1674
sbsg1741
VN
p4116
sg1743
I1
sg70
VPEOPLE
p4117
sg1744
(iconstruction
TP_SEMFRAME
p4118
(dp4119
g100
g0
(g101
g2
Ntp4120
Rp4121
(dp4122
g105
(dp4123
(iconstruction
TP_NODE
p4124
(dp4125
g1753
I00
sg89
g814
sg70
g4114
sg1754
I00
sg1755
I00
sg587
I417
sb(dp4126
g1754
I00
sg89
g814
ss(iconstruction
TP_NODE
p4127
(dp4128
g1753
I01
sg89
g745
sg70
VENT_416
p4129
sg1754
I01
sg1755
I00
sg587
I416
sb(dp4130
g1754
I01
sg89
g745
sssg288
g289
sg290
g289
sg291
(dp4131
g4124
(dp4132
sg4127
(dp4133
g4124
(dp4134
g89
g736
ssssg485
g4131
sg100
(dp4135
sg487
g289
sg488
g4131
sg489
(dp4136
g4124
(dp4137
g4127
g4134
ssg4127
(dp4138
ssbsg582
(lp4139
g4127
ag4124
asg855
(lp4140
(iconstruction
TP_REL
p4141
(dp4142
g861
g4124
sg89
g736
sg587
I418
sg862
g4127
sg70
VIS_418
p4143
sbasg587
I413
sg70
g1674
sbsg1769
(iconstruction
TP_SYNFORM
p4144
(dp4145
g587
I414
sg1772
(lp4146
(iconstruction
TP_PHON
p4147
(dp4148
g1782
I6
sg1779
I0
sg587
I419
sg1783
Vpeople
p4149
sg70
g4115
sbasg70
g1674
sbsg1790
I1
sba(iconstruction
CXN
p4150
(dp4151
g1732
(iconstruction
TP_SYMLINKS
p4152
(dp4153
g1735
(dp4154
VN1_424
p4155
VS1_426
p4156
ssg587
I422
sg70
g1674
sbsg1741
VN
p4157
sg1743
I1
sg70
VMOUSE
p4158
sg1744
(iconstruction
TP_SEMFRAME
p4159
(dp4160
g100
g0
(g101
g2
Ntp4161
Rp4162
(dp4163
g105
(dp4164
(iconstruction
TP_NODE
p4165
(dp4166
g1753
I01
sg89
g745
sg70
VENT_423
p4167
sg1754
I01
sg1755
I00
sg587
I423
sb(dp4168
g1754
I01
sg89
g745
ss(iconstruction
TP_NODE
p4169
(dp4170
g1753
I00
sg89
g802
sg70
g4155
sg1754
I00
sg1755
I00
sg587
I424
sb(dp4171
g1754
I00
sg89
g802
sssg288
g289
sg290
g289
sg291
(dp4172
g4165
(dp4173
g4169
(dp4174
g89
g736
sssg4169
(dp4175
ssg485
g4172
sg100
(dp4176
sg487
g289
sg488
g4172
sg489
(dp4177
g4165
(dp4178
sg4169
(dp4179
g4165
g4174
sssbsg582
(lp4180
g4165
ag4169
asg855
(lp4181
(iconstruction
TP_REL
p4182
(dp4183
g861
g4169
sg89
g736
sg587
I425
sg862
g4165
sg70
VIS_425
p4184
sbasg587
I420
sg70
g1674
sbsg1769
(iconstruction
TP_SYNFORM
p4185
(dp4186
g587
I421
sg1772
(lp4187
(iconstruction
TP_PHON
p4188
(dp4189
g1782
I5
sg1779
I0
sg587
I426
sg1783
Vmouse
p4190
sg70
g4156
sbasg70
g1674
sbsg1790
I1
sba(iconstruction
CXN
p4191
(dp4192
g1732
(iconstruction
TP_SYMLINKS
p4193
(dp4194
g1735
(dp4195
VN1_431
p4196
VS1_433
p4197
ssg587
I429
sg70
g1674
sbsg1741
VN
p4198
sg1743
I1
sg70
VTURTLE
p4199
sg1744
(iconstruction
TP_SEMFRAME
p4200
(dp4201
g100
g0
(g101
g2
Ntp4202
Rp4203
(dp4204
g105
(dp4205
(iconstruction
TP_NODE
p4206
(dp4207
g1753
I00
sg89
g799
sg70
g4196
sg1754
I00
sg1755
I00
sg587
I431
sb(dp4208
g1754
I00
sg89
g799
ss(iconstruction
TP_NODE
p4209
(dp4210
g1753
I01
sg89
g745
sg70
VENT_430
p4211
sg1754
I01
sg1755
I00
sg587
I430
sb(dp4212
g1754
I01
sg89
g745
sssg288
g289
sg290
g289
sg291
(dp4213
g4206
(dp4214
sg4209
(dp4215
g4206
(dp4216
g89
g736
ssssg485
g4213
sg100
(dp4217
sg487
g289
sg488
g4213
sg489
(dp4218
g4206
(dp4219
g4209
g4216
ssg4209
(dp4220
ssbsg582
(lp4221
g4209
ag4206
asg855
(lp4222
(iconstruction
TP_REL
p4223
(dp4224
g861
g4206
sg89
g736
sg587
I432
sg862
g4209
sg70
VIS_432
p4225
sbasg587
I427
sg70
g1674
sbsg1769
(iconstruction
TP_SYNFORM
p4226
(dp4227
g587
I428
sg1772
(lp4228
(iconstruction
TP_PHON
p4229
(dp4230
g1782
I6
sg1779
I0
sg587
I433
sg1783
Vturtle
p4231
sg70
g4197
sbasg70
g1674
sbsg1790
I1
sba(iconstruction
CXN
p4232
(dp4233
g1732
(iconstruction
TP_SYMLINKS
p4234
(dp4235
g1735
(dp4236
VN1_438
p4237
VS1_440
p4238
ssg587
I436
sg70
g1674
sbsg1741
VN
p4239
sg1743
I1
sg70
VDRESS
p4240
sg1744
(iconstruction
TP_SEMFRAME
p4241
(dp4242
g100
g0
(g101
g2
Ntp4243
Rp4244
(dp4245
g105
(dp4246
(iconstruction
TP_NODE
p4247
(dp4248
g1753
I00
sg89
g790
sg70
g4237
sg1754
I00
sg1755
I00
sg587
I438
sb(dp4249
g1754
I00
sg89
g790
ss(iconstruction
TP_NODE
p4250
(dp4251
g1753
I01
sg89
g745
sg70
VENT_437
p4252
sg1754
I01
sg1755
I00
sg587
I437
sb(dp4253
g1754
I01
sg89
g745
sssg288
g289
sg290
g289
sg291
(dp4254
g4247
(dp4255
sg4250
(dp4256
g4247
(dp4257
g89
g736
ssssg485
g4254
sg100
(dp4258
sg487
g289
sg488
g4254
sg489
(dp4259
g4247
(dp4260
g4250
g4257
ssg4250
(dp4261
ssbsg582
(lp4262
g4250
ag4247
asg855
(lp4263
(iconstruction
TP_REL
p4264
(dp4265
g861
g4247
sg89
g736
sg587
I439
sg862
g4250
sg70
VIS_439
p4266
sbasg587
I434
sg70
g1674
sbsg1769
(iconstruction
TP_SYNFORM
p4267
(dp4268
g587
I435
sg1772
(lp4269
(iconstruction
TP_PHON
p4270
(dp4271
g1782
I5
sg1779
I0
sg587
I440
sg1783
Vdress
p4272
sg70
g4238
sbasg70
g1674
sbsg1790
I1
sba(iconstruction
CXN
p4273
(dp4274
g1732
(iconstruction
TP_SYMLINKS
p4275
(dp4276
g1735
(dp4277
VN1_445
p4278
VS1_447
p4279
ssg587
I443
sg70
g1674
sbsg1741
VN
p4280
sg1743
I1
sg70
VTSHIRT
p4281
sg1744
(iconstruction
TP_SEMFRAME
p4282
(dp4283
g100
g0
(g101
g2
Ntp4284
Rp4285
(dp4286
g105
(dp4287
(iconstruction
TP_NODE
p4288
(dp4289
g1753
I01
sg89
g745
sg70
VENT_444
p4290
sg1754
I01
sg1755
I00
sg587
I444
sb(dp4291
g1754
I01
sg89
g745
ss(iconstruction
TP_NODE
p4292
(dp4293
g1753
I00
sg89
g787
sg70
g4278
sg1754
I00
sg1755
I00
sg587
I445
sb(dp4294
g1754
I00
sg89
g787
sssg288
g289
sg290
g289
sg291
(dp4295
g4288
(dp4296
g4292
(dp4297
g89
g736
sssg4292
(dp4298
ssg485
g4295
sg100
(dp4299
sg487
g289
sg488
g4295
sg489
(dp4300
g4288
(dp4301
sg4292
(dp4302
g4288
g4297
sssbsg582
(lp4303
g4288
ag4292
asg855
(lp4304
(iconstruction
TP_REL
p4305
(dp4306
g861
g4292
sg89
g736
sg587
I446
sg862
g4288
sg70
VIS_446
p4307
sbasg587
I441
sg70
g1674
sbsg1769
(iconstruction
TP_SYNFORM
p4308
(dp4309
g587
I442
sg1772
(lp4310
(iconstruction
TP_PHON
p4311
(dp4312
g1782
I6
sg1779
I0
sg587
I447
sg1783
Vt-shirt
p4313
sg70
g4279
sbasg70
g1674
sbsg1790
I1
sba(iconstruction
CXN
p4314
(dp4315
g1732
(iconstruction
TP_SYMLINKS
p4316
(dp4317
g1735
(dp4318
VN1_452
p4319
VS2_455
p4320
ssg587
I450
sg70
g1674
sbsg1741
VN
p4321
sg1743
I1
sg70
VBOXINGRING
p4322
sg1744
(iconstruction
TP_SEMFRAME
p4323
(dp4324
g100
g0
(g101
g2
Ntp4325
Rp4326
(dp4327
g105
(dp4328
(iconstruction
TP_NODE
p4329
(dp4330
g1753
I00
sg89
g844
sg70
g4319
sg1754
I00
sg1755
I00
sg587
I452
sb(dp4331
g1754
I00
sg89
g844
ss(iconstruction
TP_NODE
p4332
(dp4333
g1753
I01
sg89
g745
sg70
VENT_451
p4334
sg1754
I01
sg1755
I00
sg587
I451
sb(dp4335
g1754
I01
sg89
g745
sssg288
g289
sg290
g289
sg291
(dp4336
g4329
(dp4337
sg4332
(dp4338
g4329
(dp4339
g89
g736
ssssg485
g4336
sg100
(dp4340
sg487
g289
sg488
g4336
sg489
(dp4341
g4329
(dp4342
g4332
g4339
ssg4332
(dp4343
ssbsg582
(lp4344
g4332
ag4329
asg855
(lp4345
(iconstruction
TP_REL
p4346
(dp4347
g861
g4329
sg89
g736
sg587
I453
sg862
g4332
sg70
VIS_453
p4348
sbasg587
I448
sg70
g1674
sbsg1769
(iconstruction
TP_SYNFORM
p4349
(dp4350
g587
I449
sg1772
(lp4351
(iconstruction
TP_PHON
p4352
(dp4353
g1782
I6
sg1779
I0
sg587
I454
sg1783
Vboxing
p4354
sg70
VS1_454
p4355
sba(iconstruction
TP_PHON
p4356
(dp4357
g1782
I4
sg1779
I1
sg587
I455
sg1783
Vring
p4358
sg70
g4320
sbasg70
g1674
sbsg1790
I1
sba(iconstruction
CXN
p4359
(dp4360
g1732
(iconstruction
TP_SYMLINKS
p4361
(dp4362
g1735
(dp4363
VN1_460
p4364
VS1_462
p4365
ssg587
I458
sg70
g1674
sbsg1741
VN
p4366
sg1743
I1
sg70
VPARK
p4367
sg1744
(iconstruction
TP_SEMFRAME
p4368
(dp4369
g100
g0
(g101
g2
Ntp4370
Rp4371
(dp4372
g105
(dp4373
(iconstruction
TP_NODE
p4374
(dp4375
g1753
I00
sg89
g847
sg70
g4364
sg1754
I00
sg1755
I00
sg587
I460
sb(dp4376
g1754
I00
sg89
g847
ss(iconstruction
TP_NODE
p4377
(dp4378
g1753
I01
sg89
g745
sg70
VENT_459
p4379
sg1754
I01
sg1755
I00
sg587
I459
sb(dp4380
g1754
I01
sg89
g745
sssg288
g289
sg290
g289
sg291
(dp4381
g4374
(dp4382
sg4377
(dp4383
g4374
(dp4384
g89
g736
ssssg485
g4381
sg100
(dp4385
sg487
g289
sg488
g4381
sg489
(dp4386
g4374
(dp4387
g4377
g4384
ssg4377
(dp4388
ssbsg582
(lp4389
g4377
ag4374
asg855
(lp4390
(iconstruction
TP_REL
p4391
(dp4392
g861
g4374
sg89
g736
sg587
I461
sg862
g4377
sg70
VIS_461
p4393
sbasg587
I456
sg70
g1674
sbsg1769
(iconstruction
TP_SYNFORM
p4394
(dp4395
g587
I457
sg1772
(lp4396
(iconstruction
TP_PHON
p4397
(dp4398
g1782
I4
sg1779
I0
sg587
I462
sg1783
Vpark
p4399
sg70
g4365
sbasg70
g1674
sbsg1790
I1
sba(iconstruction
CXN
p4400
(dp4401
g1732
(iconstruction
TP_SYMLINKS
p4402
(dp4403
g1735
(dp4404
VN1_467
p4405
VS1_469
p4406
ssg587
I465
sg70
g1674
sbsg1741
VN
p4407
sg1743
I1
sg70
VSHIRT
p4408
sg1744
(iconstruction
TP_SEMFRAME
p4409
(dp4410
g100
g0
(g101
g2
Ntp4411
Rp4412
(dp4413
g105
(dp4414
(iconstruction
TP_NODE
p4415
(dp4416
g1753
I01
sg89
g745
sg70
VENT_466
p4417
sg1754
I01
sg1755
I00
sg587
I466
sb(dp4418
g1754
I01
sg89
g745
ss(iconstruction
TP_NODE
p4419
(dp4420
g1753
I00
sg89
g793
sg70
g4405
sg1754
I00
sg1755
I00
sg587
I467
sb(dp4421
g1754
I00
sg89
g793
sssg288
g289
sg290
g289
sg291
(dp4422
g4415
(dp4423
g4419
(dp4424
g89
g736
sssg4419
(dp4425
ssg485
g4422
sg100
(dp4426
sg487
g289
sg488
g4422
sg489
(dp4427
g4415
(dp4428
sg4419
(dp4429
g4415
g4424
sssbsg582
(lp4430
g4415
ag4419
asg855
(lp4431
(iconstruction
TP_REL
p4432
(dp4433
g861
g4419
sg89
g736
sg587
I468
sg862
g4415
sg70
VIS_468
p4434
sbasg587
I463
sg70
g1674
sbsg1769
(iconstruction
TP_SYNFORM
p4435
(dp4436
g587
I464
sg1772
(lp4437
(iconstruction
TP_PHON
p4438
(dp4439
g1782
I5
sg1779
I0
sg587
I469
sg1783
Vshirt
p4440
sg70
g4406
sbasg70
g1674
sbsg1790
I1
sba(iconstruction
CXN
p4441
(dp4442
g1732
(iconstruction
TP_SYMLINKS
p4443
(dp4444
g1735
(dp4445
VN1_474
p4446
VS1_476
p4447
ssg587
I472
sg70
g1674
sbsg1741
VN
p4448
sg1743
I1
sg70
VSUIT
p4449
sg1744
(iconstruction
TP_SEMFRAME
p4450
(dp4451
g100
g0
(g101
g2
Ntp4452
Rp4453
(dp4454
g105
(dp4455
(iconstruction
TP_NODE
p4456
(dp4457
g1753
I00
sg89
g796
sg70
g4446
sg1754
I00
sg1755
I00
sg587
I474
sb(dp4458
g1754
I00
sg89
g796
ss(iconstruction
TP_NODE
p4459
(dp4460
g1753
I01
sg89
g745
sg70
VENT_473
p4461
sg1754
I01
sg1755
I00
sg587
I473
sb(dp4462
g1754
I01
sg89
g745
sssg288
g289
sg290
g289
sg291
(dp4463
g4456
(dp4464
sg4459
(dp4465
g4456
(dp4466
g89
g736
ssssg485
g4463
sg100
(dp4467
sg487
g289
sg488
g4463
sg489
(dp4468
g4456
(dp4469
g4459
g4466
ssg4459
(dp4470
ssbsg582
(lp4471
g4459
ag4456
asg855
(lp4472
(iconstruction
TP_REL
p4473
(dp4474
g861
g4456
sg89
g736
sg587
I475
sg862
g4459
sg70
VIS_475
p4475
sbasg587
I470
sg70
g1674
sbsg1769
(iconstruction
TP_SYNFORM
p4476
(dp4477
g587
I471
sg1772
(lp4478
(iconstruction
TP_PHON
p4479
(dp4480
g1782
I4
sg1779
I0
sg587
I476
sg1783
Vsuit
p4481
sg70
g4447
sbasg70
g1674
sbsg1790
I1
sba(iconstruction
CXN
p4482
(dp4483
g1732
(iconstruction
TP_SYMLINKS
p4484
(dp4485
g1735
(dp4486
VN1_481
p4487
VS1_483
p4488
ssg587
I479
sg70
g1674
sbsg1741
VN
p4489
sg1743
I1
sg70
VCELLO
p4490
sg1744
(iconstruction
TP_SEMFRAME
p4491
(dp4492
g100
g0
(g101
g2
Ntp4493
Rp4494
(dp4495
g105
(dp4496
(iconstruction
TP_NODE
p4497
(dp4498
g1753
I00
sg89
g778
sg70
g4487
sg1754
I00
sg1755
I00
sg587
I481
sb(dp4499
g1754
I00
sg89
g778
ss(iconstruction
TP_NODE
p4500
(dp4501
g1753
I01
sg89
g745
sg70
VENT_480
p4502
sg1754
I01
sg1755
I00
sg587
I480
sb(dp4503
g1754
I01
sg89
g745
sssg288
g289
sg290
g289
sg291
(dp4504
g4497
(dp4505
sg4500
(dp4506
g4497
(dp4507
g89
g736
ssssg485
g4504
sg100
(dp4508
sg487
g289
sg488
g4504
sg489
(dp4509
g4497
(dp4510
g4500
g4507
ssg4500
(dp4511
ssbsg582
(lp4512
g4500
ag4497
asg855
(lp4513
(iconstruction
TP_REL
p4514
(dp4515
g861
g4497
sg89
g736
sg587
I482
sg862
g4500
sg70
VIS_482
p4516
sbasg587
I477
sg70
g1674
sbsg1769
(iconstruction
TP_SYNFORM
p4517
(dp4518
g587
I478
sg1772
(lp4519
(iconstruction
TP_PHON
p4520
(dp4521
g1782
I5
sg1779
I0
sg587
I483
sg1783
VCELLO
p4522
sg70
g4488
sbasg70
g1674
sbsg1790
I1
sba(iconstruction
CXN
p4523
(dp4524
g1732
(iconstruction
TP_SYMLINKS
p4525
(dp4526
g1735
(dp4527
VN1_488
p4528
VS1_490
p4529
ssg587
I486
sg70
g1674
sbsg1741
VN
p4530
sg1743
I1
sg70
VBAG
p4531
sg1744
(iconstruction
TP_SEMFRAME
p4532
(dp4533
g100
g0
(g101
g2
Ntp4534
Rp4535
(dp4536
g105
(dp4537
(iconstruction
TP_NODE
p4538
(dp4539
g1753
I01
sg89
g745
sg70
VENT_487
p4540
sg1754
I01
sg1755
I00
sg587
I487
sb(dp4541
g1754
I01
sg89
g745
ss(iconstruction
TP_NODE
p4542
(dp4543
g1753
I00
sg89
g769
sg70
g4528
sg1754
I00
sg1755
I00
sg587
I488
sb(dp4544
g1754
I00
sg89
g769
sssg288
g289
sg290
g289
sg291
(dp4545
g4538
(dp4546
g4542
(dp4547
g89
g736
sssg4542
(dp4548
ssg485
g4545
sg100
(dp4549
sg487
g289
sg488
g4545
sg489
(dp4550
g4538
(dp4551
sg4542
(dp4552
g4538
g4547
sssbsg582
(lp4553
g4538
ag4542
asg855
(lp4554
(iconstruction
TP_REL
p4555
(dp4556
g861
g4542
sg89
g736
sg587
I489
sg862
g4538
sg70
VIS_489
p4557
sbasg587
I484
sg70
g1674
sbsg1769
(iconstruction
TP_SYNFORM
p4558
(dp4559
g587
I485
sg1772
(lp4560
(iconstruction
TP_PHON
p4561
(dp4562
g1782
I3
sg1779
I0
sg587
I490
sg1783
Vbag
p4563
sg70
g4529
sbasg70
g1674
sbsg1790
I1
sba(iconstruction
CXN
p4564
(dp4565
g1732
(iconstruction
TP_SYMLINKS
p4566
(dp4567
g1735
(dp4568
VN1_495
p4569
VS2_498
p4570
ssg587
I493
sg70
g1674
sbsg1741
VN
p4571
sg1743
I1
sg70
VWATERING_CAN
p4572
sg1744
(iconstruction
TP_SEMFRAME
p4573
(dp4574
g100
g0
(g101
g2
Ntp4575
Rp4576
(dp4577
g105
(dp4578
(iconstruction
TP_NODE
p4579
(dp4580
g1753
I00
sg89
g766
sg70
g4569
sg1754
I00
sg1755
I00
sg587
I495
sb(dp4581
g1754
I00
sg89
g766
ss(iconstruction
TP_NODE
p4582
(dp4583
g1753
I01
sg89
g745
sg70
VENT_494
p4584
sg1754
I01
sg1755
I00
sg587
I494
sb(dp4585
g1754
I01
sg89
g745
sssg288
g289
sg290
g289
sg291
(dp4586
g4579
(dp4587
sg4582
(dp4588
g4579
(dp4589
g89
g736
ssssg485
g4586
sg100
(dp4590
sg487
g289
sg488
g4586
sg489
(dp4591
g4579
(dp4592
g4582
g4589
ssg4582
(dp4593
ssbsg582
(lp4594
g4582
ag4579
asg855
(lp4595
(iconstruction
TP_REL
p4596
(dp4597
g861
g4579
sg89
g736
sg587
I496
sg862
g4582
sg70
VIS_496
p4598
sbasg587
I491
sg70
g1674
sbsg1769
(iconstruction
TP_SYNFORM
p4599
(dp4600
g587
I492
sg1772
(lp4601
(iconstruction
TP_PHON
p4602
(dp4603
g1782
I8
sg1779
I0
sg587
I497
sg1783
Vwatering
p4604
sg70
VS1_497
p4605
sba(iconstruction
TP_PHON
p4606
(dp4607
g1782
I3
sg1779
I1
sg587
I498
sg1783
Vcan
p4608
sg70
g4570
sbasg70
g1674
sbsg1790
I1
sba(iconstruction
CXN
p4609
(dp4610
g1732
(iconstruction
TP_SYMLINKS
p4611
(dp4612
g1735
(dp4613
VN1_503
p4614
VS1_505
p4615
ssg587
I501
sg70
g1674
sbsg1741
VN
p4616
sg1743
I1
sg70
VBALLERINA
p4617
sg1744
(iconstruction
TP_SEMFRAME
p4618
(dp4619
g100
g0
(g101
g2
Ntp4620
Rp4621
(dp4622
g105
(dp4623
(iconstruction
TP_NODE
p4624
(dp4625
g1753
I00
sg89
g823
sg70
g4614
sg1754
I00
sg1755
I00
sg587
I503
sb(dp4626
g1754
I00
sg89
g823
ss(iconstruction
TP_NODE
p4627
(dp4628
g1753
I01
sg89
g745
sg70
VENT_502
p4629
sg1754
I01
sg1755
I00
sg587
I502
sb(dp4630
g1754
I01
sg89
g745
sssg288
g289
sg290
g289
sg291
(dp4631
g4624
(dp4632
sg4627
(dp4633
g4624
(dp4634
g89
g736
ssssg485
g4631
sg100
(dp4635
sg487
g289
sg488
g4631
sg489
(dp4636
g4624
(dp4637
g4627
g4634
ssg4627
(dp4638
ssbsg582
(lp4639
g4627
ag4624
asg855
(lp4640
(iconstruction
TP_REL
p4641
(dp4642
g861
g4624
sg89
g736
sg587
I504
sg862
g4627
sg70
VIS_504
p4643
sbasg587
I499
sg70
g1674
sbsg1769
(iconstruction
TP_SYNFORM
p4644
(dp4645
g587
I500
sg1772
(lp4646
(iconstruction
TP_PHON
p4647
(dp4648
g1782
I9
sg1779
I0
sg587
I505
sg1783
Vballerina
p4649
sg70
g4615
sbasg70
g1674
sbsg1790
I1
sba(iconstruction
CXN
p4650
(dp4651
g1732
(iconstruction
TP_SYMLINKS
p4652
(dp4653
g1735
(dp4654
VN1_510
p4655
VS1_512
p4656
ssg587
I508
sg70
g1674
sbsg1741
VN
p4657
sg1743
I1
sg70
VCELLIST
p4658
sg1744
(iconstruction
TP_SEMFRAME
p4659
(dp4660
g100
g0
(g101
g2
Ntp4661
Rp4662
(dp4663
g105
(dp4664
(iconstruction
TP_NODE
p4665
(dp4666
g1753
I01
sg89
g745
sg70
VENT_509
p4667
sg1754
I01
sg1755
I00
sg587
I509
sb(dp4668
g1754
I01
sg89
g745
ss(iconstruction
TP_NODE
p4669
(dp4670
g1753
I00
sg89
g826
sg70
g4655
sg1754
I00
sg1755
I00
sg587
I510
sb(dp4671
g1754
I00
sg89
g826
sssg288
g289
sg290
g289
sg291
(dp4672
g4665
(dp4673
g4669
(dp4674
g89
g736
sssg4669
(dp4675
ssg485
g4672
sg100
(dp4676
sg487
g289
sg488
g4672
sg489
(dp4677
g4665
(dp4678
sg4669
(dp4679
g4665
g4674
sssbsg582
(lp4680
g4665
ag4669
asg855
(lp4681
(iconstruction
TP_REL
p4682
(dp4683
g861
g4669
sg89
g736
sg587
I511
sg862
g4665
sg70
VIS_511
p4684
sbasg587
I506
sg70
g1674
sbsg1769
(iconstruction
TP_SYNFORM
p4685
(dp4686
g587
I507
sg1772
(lp4687
(iconstruction
TP_PHON
p4688
(dp4689
g1782
I7
sg1779
I0
sg587
I512
sg1783
Vcellist
p4690
sg70
g4656
sbasg70
g1674
sbsg1790
I1
sba(iconstruction
CXN
p4691
(dp4692
g1732
(iconstruction
TP_SYMLINKS
p4693
(dp4694
g1735
(dp4695
VN1_517
p4696
VS1_519
p4697
ssg587
I515
sg70
g1674
sbsg1741
VN
p4698
sg1743
I1
sg70
VFENCER
p4699
sg1744
(iconstruction
TP_SEMFRAME
p4700
(dp4701
g100
g0
(g101
g2
Ntp4702
Rp4703
(dp4704
g105
(dp4705
(iconstruction
TP_NODE
p4706
(dp4707
g1753
I00
sg89
g832
sg70
g4696
sg1754
I00
sg1755
I00
sg587
I517
sb(dp4708
g1754
I00
sg89
g832
ss(iconstruction
TP_NODE
p4709
(dp4710
g1753
I01
sg89
g745
sg70
VENT_516
p4711
sg1754
I01
sg1755
I00
sg587
I516
sb(dp4712
g1754
I01
sg89
g745
sssg288
g289
sg290
g289
sg291
(dp4713
g4706
(dp4714
sg4709
(dp4715
g4706
(dp4716
g89
g736
ssssg485
g4713
sg100
(dp4717
sg487
g289
sg488
g4713
sg489
(dp4718
g4706
(dp4719
g4709
g4716
ssg4709
(dp4720
ssbsg582
(lp4721
g4709
ag4706
asg855
(lp4722
(iconstruction
TP_REL
p4723
(dp4724
g861
g4706
sg89
g736
sg587
I518
sg862
g4709
sg70
VIS_518
p4725
sbasg587
I513
sg70
g1674
sbsg1769
(iconstruction
TP_SYNFORM
p4726
(dp4727
g587
I514
sg1772
(lp4728
(iconstruction
TP_PHON
p4729
(dp4730
g1782
I6
sg1779
I0
sg587
I519
sg1783
Vfencer
p4731
sg70
g4697
sbasg70
g1674
sbsg1790
I1
sba(iconstruction
CXN
p4732
(dp4733
g1732
(iconstruction
TP_SYMLINKS
p4734
(dp4735
g1735
(dp4736
VN1_524
p4737
VS1_526
p4738
ssg587
I522
sg70
g1674
sbsg1741
VN
p4739
sg1743
I1
sg70
VROBBER
p4740
sg1744
(iconstruction
TP_SEMFRAME
p4741
(dp4742
g100
g0
(g101
g2
Ntp4743
Rp4744
(dp4745
g105
(dp4746
(iconstruction
TP_NODE
p4747
(dp4748
g1753
I00
sg89
g835
sg70
g4737
sg1754
I00
sg1755
I00
sg587
I524
sb(dp4749
g1754
I00
sg89
g835
ss(iconstruction
TP_NODE
p4750
(dp4751
g1753
I01
sg89
g745
sg70
VENT_523
p4752
sg1754
I01
sg1755
I00
sg587
I523
sb(dp4753
g1754
I01
sg89
g745
sssg288
g289
sg290
g289
sg291
(dp4754
g4747
(dp4755
sg4750
(dp4756
g4747
(dp4757
g89
g736
ssssg485
g4754
sg100
(dp4758
sg487
g289
sg488
g4754
sg489
(dp4759
g4747
(dp4760
g4750
g4757
ssg4750
(dp4761
ssbsg582
(lp4762
g4750
ag4747
asg855
(lp4763
(iconstruction
TP_REL
p4764
(dp4765
g861
g4747
sg89
g736
sg587
I525
sg862
g4750
sg70
VIS_525
p4766
sbasg587
I520
sg70
g1674
sbsg1769
(iconstruction
TP_SYNFORM
p4767
(dp4768
g587
I521
sg1772
(lp4769
(iconstruction
TP_PHON
p4770
(dp4771
g1782
I5
sg1779
I0
sg587
I526
sg1783
Vthief
p4772
sg70
g4738
sbasg70
g1674
sbsg1790
I1
sba(iconstruction
CXN
p4773
(dp4774
g1732
(iconstruction
TP_SYMLINKS
p4775
(dp4776
g1735
(dp4777
VN1_531
p4778
VS1_533
p4779
ssg587
I529
sg70
g1674
sbsg1741
VN
p4780
sg1743
I1
sg70
VPOLICEMAN
p4781
sg1744
(iconstruction
TP_SEMFRAME
p4782
(dp4783
g100
g0
(g101
g2
Ntp4784
Rp4785
(dp4786
g105
(dp4787
(iconstruction
TP_NODE
p4788
(dp4789
g1753
I01
sg89
g745
sg70
VENT_530
p4790
sg1754
I01
sg1755
I00
sg587
I530
sb(dp4791
g1754
I01
sg89
g745
ss(iconstruction
TP_NODE
p4792
(dp4793
g1753
I00
sg89
g817
sg70
g4778
sg1754
I00
sg1755
I00
sg587
I531
sb(dp4794
g1754
I00
sg89
g817
sssg288
g289
sg290
g289
sg291
(dp4795
g4788
(dp4796
g4792
(dp4797
g89
g736
sssg4792
(dp4798
ssg485
g4795
sg100
(dp4799
sg487
g289
sg488
g4795
sg489
(dp4800
g4788
(dp4801
sg4792
(dp4802
g4788
g4797
sssbsg582
(lp4803
g4788
ag4792
asg855
(lp4804
(iconstruction
TP_REL
p4805
(dp4806
g861
g4792
sg89
g736
sg587
I532
sg862
g4788
sg70
VIS_532
p4807
sbasg587
I527
sg70
g1674
sbsg1769
(iconstruction
TP_SYNFORM
p4808
(dp4809
g587
I528
sg1772
(lp4810
(iconstruction
TP_PHON
p4811
(dp4812
g1782
I9
sg1779
I0
sg587
I533
sg1783
Vpoliceman
p4813
sg70
g4779
sbasg70
g1674
sbsg1790
I1
sba(iconstruction
CXN
p4814
(dp4815
g1732
(iconstruction
TP_SYMLINKS
p4816
(dp4817
g1735
(dp4818
VN1_538
p4819
VS1_540
p4820
ssg587
I536
sg70
g1674
sbsg1741
VN
p4821
sg1743
I1
sg70
VHUNTER
p4822
sg1744
(iconstruction
TP_SEMFRAME
p4823
(dp4824
g100
g0
(g101
g2
Ntp4825
Rp4826
(dp4827
g105
(dp4828
(iconstruction
TP_NODE
p4829
(dp4830
g1753
I00
sg89
g820
sg70
g4819
sg1754
I00
sg1755
I00
sg587
I538
sb(dp4831
g1754
I00
sg89
g820
ss(iconstruction
TP_NODE
p4832
(dp4833
g1753
I01
sg89
g745
sg70
VENT_537
p4834
sg1754
I01
sg1755
I00
sg587
I537
sb(dp4835
g1754
I01
sg89
g745
sssg288
g289
sg290
g289
sg291
(dp4836
g4829
(dp4837
sg4832
(dp4838
g4829
(dp4839
g89
g736
ssssg485
g4836
sg100
(dp4840
sg487
g289
sg488
g4836
sg489
(dp4841
g4829
(dp4842
g4832
g4839
ssg4832
(dp4843
ssbsg582
(lp4844
g4832
ag4829
asg855
(lp4845
(iconstruction
TP_REL
p4846
(dp4847
g861
g4829
sg89
g736
sg587
I539
sg862
g4832
sg70
VIS_539
p4848
sbasg587
I534
sg70
g1674
sbsg1769
(iconstruction
TP_SYNFORM
p4849
(dp4850
g587
I535
sg1772
(lp4851
(iconstruction
TP_PHON
p4852
(dp4853
g1782
I6
sg1779
I0
sg587
I540
sg1783
Vhunter
p4854
sg70
g4820
sbasg70
g1674
sbsg1790
I1
sba(iconstruction
CXN
p4855
(dp4856
g1732
(iconstruction
TP_SYMLINKS
p4857
(dp4858
g1735
(dp4859
VN1_545
p4860
VS1_547
p4861
ssg587
I543
sg70
g1674
sbsg1741
VN
p4862
sg1743
I1
sg70
VDOG
p4863
sg1744
(iconstruction
TP_SEMFRAME
p4864
(dp4865
g100
g0
(g101
g2
Ntp4866
Rp4867
(dp4868
g105
(dp4869
(iconstruction
TP_NODE
p4870
(dp4871
g1753
I01
sg89
g745
sg70
VENT_544
p4872
sg1754
I01
sg1755
I00
sg587
I544
sb(dp4873
g1754
I01
sg89
g745
ss(iconstruction
TP_NODE
p4874
(dp4875
g1753
I00
sg89
g805
sg70
g4860
sg1754
I00
sg1755
I00
sg587
I545
sb(dp4876
g1754
I00
sg89
g805
sssg288
g289
sg290
g289
sg291
(dp4877
g4870
(dp4878
g4874
(dp4879
g89
g736
sssg4874
(dp4880
ssg485
g4877
sg100
(dp4881
sg487
g289
sg488
g4877
sg489
(dp4882
g4870
(dp4883
sg4874
(dp4884
g4870
g4879
sssbsg582
(lp4885
g4870
ag4874
asg855
(lp4886
(iconstruction
TP_REL
p4887
(dp4888
g861
g4874
sg89
g736
sg587
I546
sg862
g4870
sg70
VIS_546
p4889
sbasg587
I541
sg70
g1674
sbsg1769
(iconstruction
TP_SYNFORM
p4890
(dp4891
g587
I542
sg1772
(lp4892
(iconstruction
TP_PHON
p4893
(dp4894
g1782
I3
sg1779
I0
sg587
I547
sg1783
Vdog
p4895
sg70
g4861
sbasg70
g1674
sbsg1790
I1
sba(iconstruction
CXN
p4896
(dp4897
g1732
(iconstruction
TP_SYMLINKS
p4898
(dp4899
g1735
(dp4900
VN1_552
p4901
VS1_554
p4902
ssg587
I550
sg70
g1674
sbsg1741
VN
p4903
sg1743
I1
sg70
VHOOK
p4904
sg1744
(iconstruction
TP_SEMFRAME
p4905
(dp4906
g100
g0
(g101
g2
Ntp4907
Rp4908
(dp4909
g105
(dp4910
(iconstruction
TP_NODE
p4911
(dp4912
g1753
I00
sg89
g775
sg70
g4901
sg1754
I00
sg1755
I00
sg587
I552
sb(dp4913
g1754
I00
sg89
g775
ss(iconstruction
TP_NODE
p4914
(dp4915
g1753
I01
sg89
g745
sg70
VENT_551
p4916
sg1754
I01
sg1755
I00
sg587
I551
sb(dp4917
g1754
I01
sg89
g745
sssg288
g289
sg290
g289
sg291
(dp4918
g4911
(dp4919
sg4914
(dp4920
g4911
(dp4921
g89
g736
ssssg485
g4918
sg100
(dp4922
sg487
g289
sg488
g4918
sg489
(dp4923
g4911
(dp4924
g4914
g4921
ssg4914
(dp4925
ssbsg582
(lp4926
g4914
ag4911
asg855
(lp4927
(iconstruction
TP_REL
p4928
(dp4929
g861
g4911
sg89
g736
sg587
I553
sg862
g4914
sg70
VIS_553
p4930
sbasg587
I548
sg70
g1674
sbsg1769
(iconstruction
TP_SYNFORM
p4931
(dp4932
g587
I549
sg1772
(lp4933
(iconstruction
TP_PHON
p4934
(dp4935
g1782
I4
sg1779
I0
sg587
I554
sg1783
Vhook
p4936
sg70
g4902
sbasg70
g1674
sbsg1790
I1
sba(iconstruction
CXN
p4937
(dp4938
g1732
(iconstruction
TP_SYMLINKS
p4939
(dp4940
g1735
(dp4941
VN1_559
p4942
VS1_561
p4943
ssg587
I557
sg70
g1674
sbsg1741
VN
p4944
sg1743
I1
sg70
VBOOKSHELF
p4945
sg1744
(iconstruction
TP_SEMFRAME
p4946
(dp4947
g100
g0
(g101
g2
Ntp4948
Rp4949
(dp4950
g105
(dp4951
(iconstruction
TP_NODE
p4952
(dp4953
g1753
I00
sg89
g781
sg70
g4942
sg1754
I00
sg1755
I00
sg587
I559
sb(dp4954
g1754
I00
sg89
g781
ss(iconstruction
TP_NODE
p4955
(dp4956
g1753
I01
sg89
g745
sg70
VENT_558
p4957
sg1754
I01
sg1755
I00
sg587
I558
sb(dp4958
g1754
I01
sg89
g745
sssg288
g289
sg290
g289
sg291
(dp4959
g4952
(dp4960
sg4955
(dp4961
g4952
(dp4962
g89
g736
ssssg485
g4959
sg100
(dp4963
sg487
g289
sg488
g4959
sg489
(dp4964
g4952
(dp4965
g4955
g4962
ssg4955
(dp4966
ssbsg582
(lp4967
g4955
ag4952
asg855
(lp4968
(iconstruction
TP_REL
p4969
(dp4970
g861
g4952
sg89
g736
sg587
I560
sg862
g4955
sg70
VIS_560
p4971
sbasg587
I555
sg70
g1674
sbsg1769
(iconstruction
TP_SYNFORM
p4972
(dp4973
g587
I556
sg1772
(lp4974
(iconstruction
TP_PHON
p4975
(dp4976
g1782
I9
sg1779
I0
sg587
I561
sg1783
Vbookshelf
p4977
sg70
g4943
sbasg70
g1674
sbsg1790
I1
sba(iconstruction
CXN
p4978
(dp4979
g1732
(iconstruction
TP_SYMLINKS
p4980
(dp4981
g1735
(dp4982
VN1_566
p4983
VS1_568
p4984
ssg587
I564
sg70
g1674
sbsg1741
VN
p4985
sg1743
I1
sg70
VWAGON
p4986
sg1744
(iconstruction
TP_SEMFRAME
p4987
(dp4988
g100
g0
(g101
g2
Ntp4989
Rp4990
(dp4991
g105
(dp4992
(iconstruction
TP_NODE
p4993
(dp4994
g1753
I01
sg89
g745
sg70
VENT_565
p4995
sg1754
I01
sg1755
I00
sg587
I565
sb(dp4996
g1754
I01
sg89
g745
ss(iconstruction
TP_NODE
p4997
(dp4998
g1753
I00
sg89
g763
sg70
g4983
sg1754
I00
sg1755
I00
sg587
I566
sb(dp4999
g1754
I00
sg89
g763
sssg288
g289
sg290
g289
sg291
(dp5000
g4993
(dp5001
g4997
(dp5002
g89
g736
sssg4997
(dp5003
ssg485
g5000
sg100
(dp5004
sg487
g289
sg488
g5000
sg489
(dp5005
g4993
(dp5006
sg4997
(dp5007
g4993
g5002
sssbsg582
(lp5008
g4993
ag4997
asg855
(lp5009
(iconstruction
TP_REL
p5010
(dp5011
g861
g4997
sg89
g736
sg587
I567
sg862
g4993
sg70
VIS_567
p5012
sbasg587
I562
sg70
g1674
sbsg1769
(iconstruction
TP_SYNFORM
p5013
(dp5014
g587
I563
sg1772
(lp5015
(iconstruction
TP_PHON
p5016
(dp5017
g1782
I5
sg1779
I0
sg587
I568
sg1783
Vwagon
p5018
sg70
g4984
sbasg70
g1674
sbsg1790
I1
sba(iconstruction
CXN
p5019
(dp5020
g1732
(iconstruction
TP_SYMLINKS
p5021
(dp5022
g1735
(dp5023
VN1_573
p5024
VS1_575
p5025
ssg587
I571
sg70
g1674
sbsg1741
VN
p5026
sg1743
I1
sg70
VTREE
p5027
sg1744
(iconstruction
TP_SEMFRAME
p5028
(dp5029
g100
g0
(g101
g2
Ntp5030
Rp5031
(dp5032
g105
(dp5033
(iconstruction
TP_NODE
p5034
(dp5035
g1753
I00
sg89
g772
sg70
g5024
sg1754
I00
sg1755
I00
sg587
I573
sb(dp5036
g1754
I00
sg89
g772
ss(iconstruction
TP_NODE
p5037
(dp5038
g1753
I01
sg89
g745
sg70
VENT_572
p5039
sg1754
I01
sg1755
I00
sg587
I572
sb(dp5040
g1754
I01
sg89
g745
sssg288
g289
sg290
g289
sg291
(dp5041
g5034
(dp5042
sg5037
(dp5043
g5034
(dp5044
g89
g736
ssssg485
g5041
sg100
(dp5045
sg487
g289
sg488
g5041
sg489
(dp5046
g5034
(dp5047
g5037
g5044
ssg5037
(dp5048
ssbsg582
(lp5049
g5037
ag5034
asg855
(lp5050
(iconstruction
TP_REL
p5051
(dp5052
g861
g5034
sg89
g736
sg587
I574
sg862
g5037
sg70
VIS_574
p5053
sbasg587
I569
sg70
g1674
sbsg1769
(iconstruction
TP_SYNFORM
p5054
(dp5055
g587
I570
sg1772
(lp5056
(iconstruction
TP_PHON
p5057
(dp5058
g1782
I4
sg1779
I0
sg587
I575
sg1783
Vtree
p5059
sg70
g5025
sbasg70
g1674
sbsg1790
I1
sbasbsg70
g1687
sg72
(lp5060
g0
(g74
g2
Ntp5061
Rp5062
(dp5063
g1576
Nsg70
g1582
sg79
Nsg80
Nsg1578
Nsg297
g1521
sg587
I20
sg1522
g1793
sbag0
(g74
g2
Ntp5064
Rp5065
(dp5066
g70
S'to_cxn_retrieval_C'
p5067
sg79
Nsg80
g1724
sg297
g1521
sg587
I21
sg1522
g1793
sbasg1527
(dp5068
g1582
Nsg5067
Nssg1529
(lp5069
sg1532
F1.0
sg1533
(lp5070
sg1535
(dp5071
g1160
F0.3
ssg1537
I0
sg1538
I0
sg1158
g1541
sg587
I4
sS'schemas'
p5072
g1724
sbsg1160
F0.3
sbag0
(g1725
g2
Ntp5073
Rp5074
(dp5075
g70
g1811
sg87
g1801
sg1158
Nsg587
I100
sg1159
g1793
sg1160
F0.3
sbag0
(g1725
g2
Ntp5076
Rp5077
(dp5078
g70
g1862
sg87
g1852
sg1158
Nsg587
I101
sg1159
g1793
sg1160
F0.3
sbag0
(g1725
g2
Ntp5079
Rp5080
(dp5081
g70
g1915
sg87
g1903
sg1158
Nsg587
I102
sg1159
g1793
sg1160
F0.3
sbag0
(g1725
g2
Ntp5082
Rp5083
(dp5084
g70
g1994
sg87
g1982
sg1158
Nsg587
I103
sg1159
g1793
sg1160
F0.3
sbag0
(g1725
g2
Ntp5085
Rp5086
(dp5087
g70
g2071
sg87
g2057
sg1158
Nsg587
I104
sg1159
g1793
sg1160
F0.3
sbag0
(g1725
g2
Ntp5088
Rp5089
(dp5090
g70
g2162
sg87
g2148
sg1158
Nsg587
I105
sg1159
g1793
sg1160
F0.3
sbag0
(g1725
g2
Ntp5091
Rp5092
(dp5093
g70
g2253
sg87
g2243
sg1158
Nsg587
I106
sg1159
g1793
sg1160
F0.3
sbag0
(g1725
g2
Ntp5094
Rp5095
(dp5096
g70
g2315
sg87
g2305
sg1158
Nsg587
I107
sg1159
g1793
sg1160
F0.3
sbag0
(g1725
g2
Ntp5097
Rp5098
(dp5099
g70
g2374
sg87
g2364
sg1158
Nsg587
I108
sg1159
g1793
sg1160
F0.3
sbag0
(g1725
g2
Ntp5100
Rp5101
(dp5102
g70
g2426
sg87
g2416
sg1158
Nsg587
I109
sg1159
g1793
sg1160
F0.3
sbag0
(g1725
g2
Ntp5103
Rp5104
(dp5105
g70
g2473
sg87
g2463
sg1158
Nsg587
I110
sg1159
g1793
sg1160
F0.3
sbag0
(g1725
g2
Ntp5106
Rp5107
(dp5108
g70
g2522
sg87
g2510
sg1158
Nsg587
I111
sg1159
g1793
sg1160
F0.3
sbag0
(g1725
g2
Ntp5109
Rp5110
(dp5111
g70
g2602
sg87
g2592
sg1158
Nsg587
I112
sg1159
g1793
sg1160
F0.3
sbag0
(g1725
g2
Ntp5112
Rp5113
(dp5114
g70
g2670
sg87
g2658
sg1158
Nsg587
I113
sg1159
g1793
sg1160
F0.3
sbag0
(g1725
g2
Ntp5115
Rp5116
(dp5117
g70
g2764
sg87
g2752
sg1158
Nsg587
I114
sg1159
g1793
sg1160
F0.3
sbag0
(g1725
g2
Ntp5118
Rp5119
(dp5120
g70
g2846
sg87
g2834
sg1158
Nsg587
I115
sg1159
g1793
sg1160
F0.3
sbag0
(g1725
g2
Ntp5121
Rp5122
(dp5123
g70
g2938
sg87
g2928
sg1158
Nsg587
I116
sg1159
g1793
sg1160
F0.3
sbag0
(g1725
g2
Ntp5124
Rp5125
(dp5126
g70
g3003
sg87
g2993
sg1158
Nsg587
I117
sg1159
g1793
sg1160
F0.3
sbag0
(g1725
g2
Ntp5127
Rp5128
(dp5129
g70
g3082
sg87
g3074
sg1158
Nsg587
I118
sg1159
g1793
sg1160
F0.3
sbag0
(g1725
g2
Ntp5130
Rp5131
(dp5132
g70
g3123
sg87
g3115
sg1158
Nsg587
I119
sg1159
g1793
sg1160
F0.3
sbag0
(g1725
g2
Ntp5133
Rp5134
(dp5135
g70
g3164
sg87
g3156
sg1158
Nsg587
I120
sg1159
g1793
sg1160
F0.3
sbag0
(g1725
g2
Ntp5136
Rp5137
(dp5138
g70
g3205
sg87
g3197
sg1158
Nsg587
I121
sg1159
g1793
sg1160
F0.3
sbag0
(g1725
g2
Ntp5139
Rp5140
(dp5141
g70
g3246
sg87
g3238
sg1158
Nsg587
I122
sg1159
g1793
sg1160
F0.3
sbag0
(g1725
g2
Ntp5142
Rp5143
(dp5144
g70
g3287
sg87
g3279
sg1158
Nsg587
I123
sg1159
g1793
sg1160
F0.3
sbag0
(g1725
g2
Ntp5145
Rp5146
(dp5147
g70
g3328
sg87
g3320
sg1158
Nsg587
I124
sg1159
g1793
sg1160
F0.3
sbag0
(g1725
g2
Ntp5148
Rp5149
(dp5150
g70
g3373
sg87
g3365
sg1158
Nsg587
I125
sg1159
g1793
sg1160
F0.3
sbag0
(g1725
g2
Ntp5151
Rp5152
(dp5153
g70
g3418
sg87
g3410
sg1158
Nsg587
I126
sg1159
g1793
sg1160
F0.3
sbag0
(g1725
g2
Ntp5154
Rp5155
(dp5156
g70
g3459
sg87
g3451
sg1158
Nsg587
I127
sg1159
g1793
sg1160
F0.3
sbag0
(g1725
g2
Ntp5157
Rp5158
(dp5159
g70
g3500
sg87
g3492
sg1158
Nsg587
I128
sg1159
g1793
sg1160
F0.3
sbag0
(g1725
g2
Ntp5160
Rp5161
(dp5162
g70
g3541
sg87
g3533
sg1158
Nsg587
I129
sg1159
g1793
sg1160
F0.3
sbag0
(g1725
g2
Ntp5163
Rp5164
(dp5165
g70
g3582
sg87
g3574
sg1158
Nsg587
I130
sg1159
g1793
sg1160
F0.3
sbag0
(g1725
g2
Ntp5166
Rp5167
(dp5168
g70
g3623
sg87
g3615
sg1158
Nsg587
I131
sg1159
g1793
sg1160
F0.3
sbag0
(g1725
g2
Ntp5169
Rp5170
(dp5171
g70
g3664
sg87
g3656
sg1158
Nsg587
I132
sg1159
g1793
sg1160
F0.3
sbag0
(g1725
g2
Ntp5172
Rp5173
(dp5174
g70
g3695
sg87
g3687
sg1158
Nsg587
I133
sg1159
g1793
sg1160
F0.3
sbag0
(g1725
g2
Ntp5175
Rp5176
(dp5177
g70
g3726
sg87
g3718
sg1158
Nsg587
I134
sg1159
g1793
sg1160
F0.3
sbag0
(g1725
g2
Ntp5178
Rp5179
(dp5180
g70
g3757
sg87
g3749
sg1158
Nsg587
I135
sg1159
g1793
sg1160
F0.3
sbag0
(g1725
g2
Ntp5181
Rp5182
(dp5183
g70
g3788
sg87
g3780
sg1158
Nsg587
I136
sg1159
g1793
sg1160
F0.3
sbag0
(g1725
g2
Ntp5184
Rp5185
(dp5186
g70
g3819
sg87
g3811
sg1158
Nsg587
I137
sg1159
g1793
sg1160
F0.3
sbag0
(g1725
g2
Ntp5187
Rp5188
(dp5189
g70
g3850
sg87
g3842
sg1158
Nsg587
I138
sg1159
g1793
sg1160
F0.3
sbag0
(g1725
g2
Ntp5190
Rp5191
(dp5192
g70
g3881
sg87
g3873
sg1158
Nsg587
I139
sg1159
g1793
sg1160
F0.3
sbag0
(g1725
g2
Ntp5193
Rp5194
(dp5195
g70
g3912
sg87
g3904
sg1158
Nsg587
I140
sg1159
g1793
sg1160
F0.3
sbag0
(g1725
g2
Ntp5196
Rp5197
(dp5198
g70
g3953
sg87
g3945
sg1158
Nsg587
I141
sg1159
g1793
sg1160
F0.3
sbag0
(g1725
g2
Ntp5199
Rp5200
(dp5201
g70
g3994
sg87
g3986
sg1158
Nsg587
I142
sg1159
g1793
sg1160
F0.3
sbag0
(g1725
g2
Ntp5202
Rp5203
(dp5204
g70
g4035
sg87
g4027
sg1158
Nsg587
I143
sg1159
g1793
sg1160
F0.3
sbag0
(g1725
g2
Ntp5205
Rp5206
(dp5207
g70
g4076
sg87
g4068
sg1158
Nsg587
I144
sg1159
g1793
sg1160
F0.3
sbag0
(g1725
g2
Ntp5208
Rp5209
(dp5210
g70
g4117
sg87
g4109
sg1158
Nsg587
I145
sg1159
g1793
sg1160
F0.3
sbag0
(g1725
g2
Ntp5211
Rp5212
(dp5213
g70
g4158
sg87
g4150
sg1158
Nsg587
I146
sg1159
g1793
sg1160
F0.3
sbag0
(g1725
g2
Ntp5214
Rp5215
(dp5216
g70
g4199
sg87
g4191
sg1158
Nsg587
I147
sg1159
g1793
sg1160
F0.3
sbag0
(g1725
g2
Ntp5217
Rp5218
(dp5219
g70
g4240
sg87
g4232
sg1158
Nsg587
I148
sg1159
g1793
sg1160
F0.3
sbag0
(g1725
g2
Ntp5220
Rp5221
(dp5222
g70
g4281
sg87
g4273
sg1158
Nsg587
I149
sg1159
g1793
sg1160
F0.3
sbag0
(g1725
g2
Ntp5223
Rp5224
(dp5225
g70
g4322
sg87
g4314
sg1158
Nsg587
I150
sg1159
g1793
sg1160
F0.3
sbag0
(g1725
g2
Ntp5226
Rp5227
(dp5228
g70
g4367
sg87
g4359
sg1158
Nsg587
I151
sg1159
g1793
sg1160
F0.3
sbag0
(g1725
g2
Ntp5229
Rp5230
(dp5231
g70
g4408
sg87
g4400
sg1158
Nsg587
I152
sg1159
g1793
sg1160
F0.3
sbag0
(g1725
g2
Ntp5232
Rp5233
(dp5234
g70
g4449
sg87
g4441
sg1158
Nsg587
I153
sg1159
g1793
sg1160
F0.3
sbag0
(g1725
g2
Ntp5235
Rp5236
(dp5237
g70
g4490
sg87
g4482
sg1158
Nsg587
I154
sg1159
g1793
sg1160
F0.3
sbag0
(g1725
g2
Ntp5238
Rp5239
(dp5240
g70
g4531
sg87
g4523
sg1158
Nsg587
I155
sg1159
g1793
sg1160
F0.3
sbag0
(g1725
g2
Ntp5241
Rp5242
(dp5243
g70
g4572
sg87
g4564
sg1158
Nsg587
I156
sg1159
g1793
sg1160
F0.3
sbag0
(g1725
g2
Ntp5244
Rp5245
(dp5246
g70
g4617
sg87
g4609
sg1158
Nsg587
I157
sg1159
g1793
sg1160
F0.3
sbag0
(g1725
g2
Ntp5247
Rp5248
(dp5249
g70
g4658
sg87
g4650
sg1158
Nsg587
I158
sg1159
g1793
sg1160
F0.3
sbag0
(g1725
g2
Ntp5250
Rp5251
(dp5252
g70
g4699
sg87
g4691
sg1158
Nsg587
I159
sg1159
g1793
sg1160
F0.3
sbag0
(g1725
g2
Ntp5253
Rp5254
(dp5255
g70
g4740
sg87
g4732
sg1158
Nsg587
I160
sg1159
g1793
sg1160
F0.3
sbag0
(g1725
g2
Ntp5256
Rp5257
(dp5258
g70
g4781
sg87
g4773
sg1158
Nsg587
I161
sg1159
g1793
sg1160
F0.3
sbag0
(g1725
g2
Ntp5259
Rp5260
(dp5261
g70
g4822
sg87
g4814
sg1158
Nsg587
I162
sg1159
g1793
sg1160
F0.3
sbag0
(g1725
g2
Ntp5262
Rp5263
(dp5264
g70
g4863
sg87
g4855
sg1158
Nsg587
I163
sg1159
g1793
sg1160
F0.3
sbag0
(g1725
g2
Ntp5265
Rp5266
(dp5267
g70
g4904
sg87
g4896
sg1158
Nsg587
I164
sg1159
g1793
sg1160
F0.3
sbag0
(g1725
g2
Ntp5268
Rp5269
(dp5270
g70
g4945
sg87
g4937
sg1158
Nsg587
I165
sg1159
g1793
sg1160
F0.3
sbag0
(g1725
g2
Ntp5271
Rp5272
(dp5273
g70
g4986
sg87
g4978
sg1158
Nsg587
I166
sg1159
g1793
sg1160
F0.3
sbag0
(g1725
g2
Ntp5274
Rp5275
(dp5276
g70
g5027
sg87
g5019
sg1158
Nsg587
I167
sg1159
g1793
sg1160
F0.3
sbasg1578
Nsg297
g1557
sg587
I22
sg1522
g1709
sbag1704
asg1535
(dp5277
sg1537
I0
sg1538
I0
sg1158
g1541
sg587
I5
sbsbsS'port_from'
p5278
g1580
sg1158
g1541
sg587
I1
sbag0
(g1696
g2
Ntp5279
Rp5280
(dp5281
g1700
I0
sg70
g1674
sg1701
I0
sg1702
g1722
sg5278
g5062
sg1158
g1541
sg587
I2
sbag0
(g1696
g2
Ntp5282
Rp5283
(dp5284
g1700
I0
sg70
g1674
sg1701
I0
sg1702
g0
(g74
g2
Ntp5285
Rp5286
(dp5287
g1576
Nsg70
S'from_cxn_retrieval_P'
p5288
sg79
Nsg80
Nsg1578
Nsg297
g1557
sg587
I14
sg1522
g0
(clanguage_schemas
GRAMMATICAL_WM_P
p5289
g2
Ntp5290
Rp5291
(dp5292
g68
(dp5293
g5288
NsS'from_phonological_WM_P'
p5294
Nsg1706
Nsg1565
Nssg1567
(lp5295
sg70
g1683
sg1570
(lp5296
sg72
(lp5297
g0
(g74
g2
Ntp5298
Rp5299
(dp5300
g1576
Nsg70
g1526
sg79
Nsg80
Nsg1578
Nsg297
g1521
sg587
I17
sg1522
g5291
sbag0
(g74
g2
Ntp5301
Rp5302
(dp5303
g1576
Nsg70
S'to_phonological_WM_P'
p5304
sg79
Nsg80
Nsg1578
Nsg297
g1521
sg587
I18
sg1522
g5291
sbag0
(g74
g2
Ntp5305
Rp5306
(dp5307
g70
g1594
sg79
Nsg80
Nsg297
g1521
sg587
I19
sg1522
g5291
sbasg1527
(dp5308
g1594
Nsg5304
Nsg1526
NssS'time_to_next_prod'
p5309
I8
sg1532
F1.0
sg1596
(lp5310
sg1533
(lp5311
g0
(g74
g2
Ntp5312
Rp5313
(dp5314
g1576
Nsg70
g1706
sg79
Nsg80
(dp5315
g582
(dp5316
sg855
(dp5317
ssg1578
Nsg297
g1557
sg587
I13
sg1522
g5291
sbag5286
ag0
(g74
g2
Ntp5318
Rp5319
(dp5320
g1576
Nsg70
g1565
sg79
Nsg80
(dp5321
S'params_style'
p5322
(dp5323
S'continuity'
p5324
F0.3
sS'form_length'
p5325
F0.0
sS'sem_length'
p5326
F0.0
sS'activation'
p5327
F0.7
ssS'pressure'
p5328
I0
sg1611
I00
ssg1578
Nsg297
g1557
sg587
I15
sg1522
g5291
sbag0
(g74
g2
Ntp5329
Rp5330
(dp5331
g1576
Nsg70
g5294
sg79
Nsg80
(lp5332
g3944
ag3360
ag3363
ag4149
asg1578
Nsg297
g1557
sg587
I16
sg1522
g5291
sbasS'refractory_period'
p5333
I10
sg1612
(dp5334
g1614
(dp5335
sg1616
(dp5336
g1618
(lp5337
sg1620
(dp5338
g1622
(lp5339
sg1624
(lp5340
sg1626
(lp5341
ssg1628
(lp5342
sg1537
(lp5343
sg1631
(lp5344
sssg1535
(dp5345
g1634
(dp5346
g1640
F1.0
sg1641
F1.0
sS'sub_threshold_r'
p5347
F0.8
sg1643
F0.0
sS'deact_weight'
p5348
F0.0
sg1642
F0.3
sg1644
F0.01
sg5333
I10
sg1636
F1.0
sg1637
Nsg1638
F-10.0
sg1639
F1.0
ssg1645
(dp5349
g1647
I1000
sg1648
I10
sg1649
F0.001
sg1650
F0.0
sg1651
F1.0
sg1652
F1.0
sg1653
F1.0
ssS'style'
p5350
(dp5351
g5324
F0.3
sg5325
F0.0
sg5326
F0.0
sg5327
F0.7
sssg1537
I0
sg1538
I0
sg1158
g1541
sg587
I3
sbsbsg5278
g1715
sg1158
g1541
sg587
I3
sbag0
(g1696
g2
Ntp5352
Rp5353
(dp5354
g1700
I0
sg70
g1674
sg1701
I0
sg1702
g5313
sg5278
g1574
sg1158
g1541
sg587
I4
sbag0
(g1696
g2
Ntp5355
Rp5356
(dp5357
g1700
I0
sg70
g1674
sg1701
I0
sg1702
g1606
sg5278
g5299
sg1158
g1541
sg587
I5
sbag0
(g1696
g2
Ntp5358
Rp5359
(dp5360
g1700
I0
sg70
g1674
sg1701
I0
sg1702
g0
(g74
g2
Ntp5361
Rp5362
(dp5363
g1576
Nsg70
g1563
sg79
Nsg80
Nsg1578
Nsg297
g1557
sg587
I25
sg1522
g0
(clanguage_schemas
PHON_WM_P
p5364
g2
Ntp5365
Rp5366
(dp5367
g68
(dp5368
g1563
Nssg1567
(lp5369
sg70
g1679
sg1570
(lp5370
sg72
(lp5371
g0
(g74
g2
Ntp5372
Rp5373
(dp5374
g1576
Nsg70
S'to_utter'
p5375
sg79
Nsg80
Nsg1578
Nsg297
g1521
sg587
I26
sg1522
g5366
sbag0
(g74
g2
Ntp5376
Rp5377
(dp5378
g1576
Nsg70
g1577
sg79
Nsg80
Nsg1578
Nsg297
g1521
sg587
I27
sg1522
g5366
sbag0
(g74
g2
Ntp5379
Rp5380
(dp5381
g1576
Nsg70
g1586
sg79
Nsg80
Nsg1578
Nsg297
g1521
sg587
I28
sg1522
g5366
sbag0
(g74
g2
Ntp5382
Rp5383
(dp5384
g70
g1594
sg79
Nsg80
Nsg297
g1521
sg587
I29
sg1522
g5366
sbasg1527
(dp5385
g1594
Nsg1577
Nsg5375
Nsg1586
NssS'needs_filler'
p5386
I01
sg1532
F1.0
sg1596
(lp5387
sg1533
(lp5388
g5362
asS'filler'
p5389
S'....'
p5390
sg1612
(dp5391
g1614
(dp5392
sg1616
(dp5393
g1618
(lp5394
sg1620
(dp5395
g1622
(lp5396
sg1624
(lp5397
sg1626
(lp5398
ssg1628
(lp5399
sg1537
(lp5400
sg1631
(lp5401
sssg1535
(dp5402
g1634
(dp5403
g1636
F1.0
sg1637
Nsg1638
F0.0
sg1639
F1.0
sg1640
F1.0
sg1641
F0.0
sg1642
F0.0
sg1643
F0.0
sg1644
F0.01
ssg1645
(dp5404
g1647
F100.0
sg1648
F10.0
sg1649
F0.001
sg1650
F0.0
sg1651
F1.0
sg1652
F1.0
sg1653
F1.0
sssg1537
I0
sg1538
I0
sg1158
g1541
sS'phon_sequence'
p5405
(lp5406
sg587
I6
sbsbsg5278
g5302
sg1158
g1541
sg587
I6
sbag0
(g1696
g2
Ntp5407
Rp5408
(dp5409
g1700
I0
sg70
g1674
sg1701
I0
sg1702
g5330
sg5278
g5377
sg1158
g1541
sg587
I7
sbag0
(g1696
g2
Ntp5410
Rp5411
(dp5412
g1700
I0
sg70
g1674
sg1701
I0
sg1702
g0
(g74
g2
Ntp5413
Rp5414
(dp5415
g1576
Nsg70
g1706
sg79
Nsg80
I00
sg1578
Nsg297
g1557
sg587
I32
sg1522
g0
(clanguage_schemas
CONTROL
p5416
g2
Ntp5417
Rp5418
(dp5419
g68
(dp5420
g5294
Nsg1706
Nssg70
g1669
sg72
(lp5421
g0
(g74
g2
Ntp5422
Rp5423
(dp5424
g1576
Nsg70
g1526
sg79
Nsg80
Nsg1578
Nsg297
g1521
sg587
I34
sg1522
g5418
sbag0
(g74
g2
Ntp5425
Rp5426
(dp5427
g1576
Nsg70
g1577
sg79
Nsg80
Nsg1578
Nsg297
g1521
sg587
I35
sg1522
g5418
sbag0
(g74
g2
Ntp5428
Rp5429
(dp5430
g70
S'to_grammatical_WM_C'
p5431
sg79
Nsg80
I00
sg297
g1521
sg587
I36
sg1522
g5418
sbasg1527
(dp5432
g1577
Nsg5431
Nsg1526
Nssg1532
F1.0
sg1533
(lp5433
g5414
ag0
(g74
g2
Ntp5434
Rp5435
(dp5436
g1576
Nsg70
g5294
sg79
Nsg80
Nsg1578
Nsg297
g1557
sg587
I33
sg1522
g5418
sbasS'state'
p5437
(dp5438
g1611
I00
sS'unexpressed_sem'
p5439
I00
sS'mode'
p5440
g1611
sS'last_prod_time'
p5441
I0
ssg1535
(dp5442
g5350
(dp5443
g5324
F0.3
sg5325
F0.0
sg5327
F0.7
sg5326
F0.0
ssS'task'
p5444
(dp5445
S'time_pressure'
p5446
I500
sS'start_produce'
p5447
I10
sssg1537
I0
sg1538
I0
sg1158
g1541
sg587
I8
sbsbsg5278
g1584
sg1158
g1541
sg587
I8
sbag0
(g1696
g2
Ntp5448
Rp5449
(dp5450
g1700
I0
sg70
g1674
sg1701
I0
sg1702
g0
(g74
g2
Ntp5451
Rp5452
(dp5453
g1576
Nsg70
g5294
sg79
Nsg80
Nsg1578
Nsg297
g1557
sg587
I30
sg1522
g0
(clanguage_schemas
UTTER
p5454
g2
Ntp5455
Rp5456
(dp5457
g68
(dp5458
g5294
Nssg70
g1672
sg72
(lp5459
g0
(g74
g2
Ntp5460
Rp5461
(dp5462
g70
g1594
sg79
Nsg80
Nsg297
g1521
sg587
I31
sg1522
g5456
sbasg1527
(dp5463
g1594
NssS'utterance_stack'
p5464
(lp5465
sg1532
F1.0
sg1533
(lp5466
g5452
asg1535
(dp5467
S'speech_rate'
p5468
F1.0
ssg1537
I0
sg1538
I0
sg1158
g1541
sg587
I7
sbsbsg5278
g5373
sg1158
g1541
sg587
I9
sbag0
(g1696
g2
Ntp5469
Rp5470
(dp5471
g1700
I0
sg70
g1674
sg1701
I0
sg1702
g5435
sg5278
g5380
sg1158
g1541
sg587
I10
sbag0
(g1696
g2
Ntp5472
Rp5473
(dp5474
g1700
I0
sg70
g1674
sg1701
I0
sg1702
g5319
sg5278
g5426
sg1158
g1541
sg587
I11
sbag0
(g1696
g2
Ntp5475
Rp5476
(dp5477
g1700
I0
sg70
g1674
sg1701
I0
sg1702
g1609
sg5278
g5423
sg1158
g1541
sg587
I12
sbasg1535
(dp5478
g1669
g5442
sg1679
g5402
sg71
g1536
sg1687
g5071
sg1691
g5277
sg1569
g1633
sg1672
g5467
sg1683
g5345
ssg1537
F0.0
sS'set_up_time'
p5479
I10
sS'input'
p5480
NsS'default_params'
p5481
Nsg1532
F1.0
sS'output_ports'
p5482
(lp5483
g5461
ag5383
ag5306
ag1592
asg5072
(dp5484
g1669
g5418
sg1679
g5366
sg71
g66
sg1691
g1709
sg1683
g5291
sg1569
g1560
sg1672
g5456
sg1687
g1793
ssbsg587
I2
sg5072
g81
sbsbsb.