ccopy_reg
_reconstructor
p0
(clanguage_schemas
SEM_GENERATOR
p1
c__builtin__
object
p2
Ntp3
Rp4
(dp5
S'sem_inputs'
p6
(dp7
S'{}'
p8
(dp9
Vtiming
p10
(lp11
F0.0
aF100.0
aF200.0
aF300.0
asVsem_rate
p12
I1
sVpropositions
p13
(dp14
VKICK_AREA
p15
(lp16
VKICK(kick)
p17
aVIS(is4)
p18
aVis4(a1, kick)
p19
aVENTITY(e2,F)
p20
aVENTITY(e1,F)
p21
aVAGENT(agt)
p22
aVPATIENT(pt)
p23
aVagt(a1, e2)
p24
aVpt(a1, e1)
p25
asVWOMAN_AREA
p26
(lp27
VENTITY(e1,F)
p28
aVWOMAN(woman)
p29
aVIS(is1)
p30
aVis1(e1, woman)
p31
asVACTION_AREA
p32
(lp33
VEVENT(evt1,F)
p34
aVACTION(a1,F)
p35
aVIS(is3)
p36
aVis3(evt1,a1)
p37
asVGIRL_AREA
p38
(lp39
VENTITY(e2,F)
p40
aVGIRL(girl)
p41
aVIS(is2)
p42
aVis2(e2, girl)
p43
assVcomments
p44
VEasy action, hard objects, patient cued, patient lexical competition
p45
sVsequence
p46
(lp47
VWOMAN_AREA
p48
aVACTION_AREA
p49
aVKICK_AREA
p50
aVGIRL_AREA
p51
asssS'is_macro'
p52
I01
sS'ground_truths'
p53
NsS'speed_param'
p54
I100
sS'interpreter'
p55
g0
(clanguage_schemas
ISRF_INTERPRETER
p56
g2
Ntp57
Rp58
(dp59
S'name_table'
p60
(dp61
sS'conceptLTM'
p62
g0
(clanguage_schemas
CONCEPT_LTM
p63
g2
Ntp64
Rp65
(dp66
S'inputs'
p67
(dp68
sS'name'
p69
S'Concept_LTM'
p70
sS'out_ports'
p71
(lp72
g0
(cschema_theory
PORT
p73
g2
Ntp74
Rp75
(dp76
g69
S'to_conceptualizer'
p77
sS'data'
p78
NsS'value'
p79
(lp80
g0
(clanguage_schemas
CPT_EVENT_SCHEMA
p81
g2
Ntp82
Rp83
(dp84
g69
S'?'
p85
sS'content'
p86
(dp87
S'concept'
p88
g0
(cconcept
CONCEPT
p89
g2
Ntp90
Rp91
(dp92
S'meaning'
p93
g85
sS'conceptual_knowledge'
p94
g0
(cconcept
CONCEPTUAL_KNOWLEDGE
p95
g2
Ntp96
Rp97
(dp98
S'graph'
p99
g0
(cnetworkx.classes.digraph
DiGraph
p100
g2
Ntp101
Rp102
(dp103
S'node'
p104
(dp105
I1
(dp106
g93
g85
ssI2
(dp107
g93
S'CONCEPT'
p108
ssI3
(dp109
g93
VACTION
p110
ssI4
(dp111
g93
VSYMMETRIC
p112
ssI5
(dp113
g93
VMEET
p114
ssI6
(dp115
g93
VSHAKE_HANDS
p116
ssI7
(dp117
g93
VINTRANSITIVE
p118
ssI8
(dp119
g93
VLAUGH
p120
ssI9
(dp121
g93
VTRANSITIVE
p122
ssI10
(dp123
g93
VHIT
p124
ssI11
(dp125
g93
VWATCH
p126
ssI12
(dp127
g93
VPUNCH
p128
ssI13
(dp129
g93
VSPLASH
p130
ssI14
(dp131
g93
VTALK
p132
ssI15
(dp133
g93
VKISS
p134
ssI16
(dp135
g93
VSQUIRT
p136
ssI17
(dp137
g93
VKICK
p138
ssI18
(dp139
g93
VWEAR
p140
ssI19
(dp141
g93
VDITRANSITIVE
p142
ssI20
(dp143
g93
VSEND
p144
ssI21
(dp145
g93
VGIVE
p146
ssI22
(dp147
g93
VPROPERTY
p148
ssI23
(dp149
g93
VCOLOR
p150
ssI24
(dp151
g93
VBLUE
p152
ssI25
(dp153
g93
VGREEN
p154
ssI26
(dp155
g93
VWHITE
p156
ssI27
(dp157
g93
VBLACK
p158
ssI28
(dp159
g93
VRED
p160
ssI29
(dp161
g93
VAPPEARANCE
p162
ssI30
(dp163
g93
VYOUNG
p164
ssI31
(dp165
g93
VPRETTY
p166
ssI32
(dp167
g93
VHANDSOME
p168
ssI33
(dp169
g93
VSIZE
p170
ssI34
(dp171
g93
VSMALL
p172
ssI35
(dp173
g93
VBIG
p174
ssI36
(dp175
g93
VRELATION
p176
ssI37
(dp177
g93
VACTION_FRAME
p178
ssI38
(dp179
g93
VMODIFY
p180
ssI39
(dp181
g93
VTHEME
p182
ssI40
(dp183
g93
VRECIPIENT
p184
ssI41
(dp185
g93
VATTR
p186
ssI42
(dp187
g93
VAGT_PT
p188
ssI43
(dp189
g93
VPATIENT
p190
ssI44
(dp191
g93
VAGT+PT
p192
ssI45
(dp193
g93
VAGENT
p194
ssI46
(dp195
g93
VEVENT_FRAME
p196
ssI47
(dp197
g93
VTEMPORAL
p198
ssI48
(dp199
g93
VCONCURRENT
p200
ssI49
(dp201
g93
VSUCCESSIVE
p202
ssI50
(dp203
g93
VSPATIAL
p204
ssI51
(dp205
g93
VIN
p206
ssI52
(dp207
g93
VIS
p208
ssI53
(dp209
g93
VOBJECT_FRAME
p210
ssI54
(dp211
g93
VEVENT
p212
ssI55
(dp213
g93
VENTITY
p214
ssI56
(dp215
g93
VANIMATE
p216
ssI57
(dp217
g93
VANIMAL
p218
ssI58
(dp219
g93
VHUMAN
p220
ssI59
(dp221
g93
VOBJECT
p222
ssI60
(dp223
g93
VITEM
p224
ssI61
(dp225
g93
VWAGON
p226
ssI62
(dp227
g93
VWATERING_CAN
p228
ssI63
(dp229
g93
VBAG
p230
ssI64
(dp231
g93
VTREE
p232
ssI65
(dp233
g93
VHOOK
p234
ssI66
(dp235
g93
VCELLO
p236
ssI67
(dp237
g93
VBOOKSHELF
p238
ssI68
(dp239
g93
VCLOTHING
p240
ssI69
(dp241
g93
VTSHIRT
p242
ssI70
(dp243
g93
VDRESS
p244
ssI71
(dp245
g93
VSHIRT
p246
ssI72
(dp247
g93
VSUIT
p248
ssI73
(dp249
g93
VTURTLE
p250
ssI74
(dp251
g93
VMOUSE
p252
ssI75
(dp253
g93
VDOG
p254
ssI76
(dp255
g93
VBOY
p256
ssI77
(dp257
g93
VWOMAN
p258
ssI78
(dp259
g93
VPEOPLE
p260
ssI79
(dp261
g93
VPOLICEMAN
p262
ssI80
(dp263
g93
VHUNTER
p264
ssI81
(dp265
g93
VBALLERINA
p266
ssI82
(dp267
g93
VCELLIST
p268
ssI83
(dp269
g93
VGIRL
p270
ssI84
(dp271
g93
VFENCER
p272
ssI85
(dp273
g93
VROBBER
p274
ssI86
(dp275
g93
VMAN
p276
ssI87
(dp277
g93
VPLACE
p278
ssI88
(dp279
g93
VBOXINGRING
p280
ssI89
(dp281
g93
VPARK
p282
ssI90
(dp283
g93
VMALE
p284
ssI91
(dp285
g93
VFEMALE
p286
sssS'node_dict_factory'
p287
c__builtin__
dict
p288
sS'edge_attr_dict_factory'
p289
g288
sS'succ'
p290
(dp291
I1
(dp292
sI2
(dp293
sI3
(dp294
I2
(dp295
S'type'
p296
S'is_a'
p297
sssI4
(dp298
I3
(dp299
g296
g297
sssI5
(dp300
I4
(dp301
g296
g297
sssI6
(dp302
I4
(dp303
g296
g297
sssI7
(dp304
I3
(dp305
g296
g297
sssI8
(dp306
I7
(dp307
g296
g297
sssI9
(dp308
I3
(dp309
g296
g297
sssI10
(dp310
I9
(dp311
g296
g297
sssI11
(dp312
I9
(dp313
g296
g297
sssI12
(dp314
I9
(dp315
g296
g297
sssI13
(dp316
I9
(dp317
g296
g297
sssI14
(dp318
I9
(dp319
g296
g297
sssI15
(dp320
I9
(dp321
g296
g297
sssI16
(dp322
I9
(dp323
g296
g297
sssI17
(dp324
I9
(dp325
g296
g297
sssI18
(dp326
I9
(dp327
g296
g297
sssI19
(dp328
I3
(dp329
g296
g297
sssI20
(dp330
I19
(dp331
g296
g297
sssI21
(dp332
I19
(dp333
g296
g297
sssI22
(dp334
I2
(dp335
g296
g297
sssI23
(dp336
I22
(dp337
g296
g297
sssI24
(dp338
I23
(dp339
g296
g297
sssI25
(dp340
I23
(dp341
g296
g297
sssI26
(dp342
I23
(dp343
g296
g297
sssI27
(dp344
I23
(dp345
g296
g297
sssI28
(dp346
I23
(dp347
g296
g297
sssI29
(dp348
I22
(dp349
g296
g297
sssI30
(dp350
I29
(dp351
g296
g297
sssI31
(dp352
I29
(dp353
g296
g297
sssI32
(dp354
I29
(dp355
g296
g297
sssI33
(dp356
I22
(dp357
g296
g297
sssI34
(dp358
I33
(dp359
g296
g297
sssI35
(dp360
I33
(dp361
g296
g297
sssI36
(dp362
I2
(dp363
g296
g297
sssI37
(dp364
I36
(dp365
g296
g297
sssI38
(dp366
I37
(dp367
g296
g297
ssI53
(dp368
g296
g297
sssI39
(dp369
I37
(dp370
g296
g297
sssI40
(dp371
I37
(dp372
g296
g297
sssI41
(dp373
I37
(dp374
g296
g297
ssI53
(dp375
g296
g297
sssI42
(dp376
I37
(dp377
g296
g297
sssI43
(dp378
I42
(dp379
g296
g297
sssI44
(dp380
I43
(dp381
g296
g297
ssI45
(dp382
g296
g297
sssI45
(dp383
I42
(dp384
g296
g297
sssI46
(dp385
I36
(dp386
g296
g297
sssI47
(dp387
I46
(dp388
g296
g297
sssI48
(dp389
I47
(dp390
g296
g297
sssI49
(dp391
I47
(dp392
g296
g297
sssI50
(dp393
I46
(dp394
g296
g297
sssI51
(dp395
I50
(dp396
g296
g297
sssI52
(dp397
I36
(dp398
g296
g297
sssI53
(dp399
I36
(dp400
g296
g297
sssI54
(dp401
I2
(dp402
g296
g297
sssI55
(dp403
I2
(dp404
g296
g297
sssI56
(dp405
I55
(dp406
g296
g297
sssI57
(dp407
I56
(dp408
g296
g297
ssI59
(dp409
g296
g297
sssI58
(dp410
I56
(dp411
g296
g297
ssI59
(dp412
g296
g297
sssI59
(dp413
I55
(dp414
g296
g297
sssI60
(dp415
I59
(dp416
g296
g297
sssI61
(dp417
I60
(dp418
g296
g297
sssI62
(dp419
I60
(dp420
g296
g297
sssI63
(dp421
I60
(dp422
g296
g297
sssI64
(dp423
I60
(dp424
g296
g297
sssI65
(dp425
I60
(dp426
g296
g297
sssI66
(dp427
I60
(dp428
g296
g297
sssI67
(dp429
I60
(dp430
g296
g297
sssI68
(dp431
I60
(dp432
g296
g297
sssI69
(dp433
I68
(dp434
g296
g297
sssI70
(dp435
I68
(dp436
g296
g297
sssI71
(dp437
I68
(dp438
g296
g297
sssI72
(dp439
I68
(dp440
g296
g297
sssI73
(dp441
I57
(dp442
g296
g297
sssI74
(dp443
I57
(dp444
g296
g297
sssI75
(dp445
I57
(dp446
g296
g297
sssI76
(dp447
I58
(dp448
g296
g297
ssI90
(dp449
g296
g297
sssI77
(dp450
I58
(dp451
g296
g297
ssI91
(dp452
g296
g297
sssI78
(dp453
I58
(dp454
g296
g297
sssI79
(dp455
I58
(dp456
g296
g297
sssI80
(dp457
I58
(dp458
g296
g297
sssI81
(dp459
I58
(dp460
g296
g297
ssI91
(dp461
g296
g297
sssI82
(dp462
I58
(dp463
g296
g297
sssI83
(dp464
I58
(dp465
g296
g297
ssI91
(dp466
g296
g297
sssI84
(dp467
I58
(dp468
g296
g297
sssI85
(dp469
I58
(dp470
g296
g297
sssI86
(dp471
I58
(dp472
g296
g297
ssI90
(dp473
g296
g297
sssI87
(dp474
I55
(dp475
g296
g297
sssI88
(dp476
I87
(dp477
g296
g297
sssI89
(dp478
I87
(dp479
g296
g297
sssI90
(dp480
I55
(dp481
g296
g297
sssI91
(dp482
I55
(dp483
g296
g297
ssssS'edge'
p484
g291
sg99
(dp485
sS'adjlist_dict_factory'
p486
g288
sS'adj'
p487
g291
sS'pred'
p488
(dp489
I1
(dp490
sI2
(dp491
I3
g295
sI36
g363
sI54
g402
sI22
g335
sI55
g404
ssI3
(dp492
I9
g309
sI19
g329
sI4
g299
sI7
g305
ssI4
(dp493
I5
g301
sI6
g303
ssI5
(dp494
sI6
(dp495
sI7
(dp496
I8
g307
ssI8
(dp497
sI9
(dp498
I10
g311
sI11
g313
sI12
g315
sI13
g317
sI14
g319
sI15
g321
sI16
g323
sI17
g325
sI18
g327
ssI10
(dp499
sI11
(dp500
sI12
(dp501
sI13
(dp502
sI14
(dp503
sI15
(dp504
sI16
(dp505
sI17
(dp506
sI18
(dp507
sI19
(dp508
I20
g331
sI21
g333
ssI20
(dp509
sI21
(dp510
sI22
(dp511
I33
g357
sI29
g349
sI23
g337
ssI23
(dp512
I24
g339
sI25
g341
sI26
g343
sI27
g345
sI28
g347
ssI24
(dp513
sI25
(dp514
sI26
(dp515
sI27
(dp516
sI28
(dp517
sI29
(dp518
I32
g355
sI30
g351
sI31
g353
ssI30
(dp519
sI31
(dp520
sI32
(dp521
sI33
(dp522
I34
g359
sI35
g361
ssI34
(dp523
sI35
(dp524
sI36
(dp525
I52
g398
sI37
g365
sI46
g386
sI53
g400
ssI37
(dp526
I40
g372
sI41
g374
sI42
g377
sI38
g367
sI39
g370
ssI38
(dp527
sI39
(dp528
sI40
(dp529
sI41
(dp530
sI42
(dp531
I43
g379
sI45
g384
ssI43
(dp532
I44
g381
ssI44
(dp533
sI45
(dp534
I44
g382
ssI46
(dp535
I50
g394
sI47
g388
ssI47
(dp536
I48
g390
sI49
g392
ssI48
(dp537
sI49
(dp538
sI50
(dp539
I51
g396
ssI51
(dp540
sI52
(dp541
sI53
(dp542
I41
g375
sI38
g368
ssI54
(dp543
sI55
(dp544
I56
g406
sI91
g483
sI90
g481
sI59
g414
sI87
g475
ssI56
(dp545
I57
g408
sI58
g411
ssI57
(dp546
I73
g442
sI74
g444
sI75
g446
ssI58
(dp547
I76
g448
sI77
g451
sI78
g454
sI79
g456
sI80
g458
sI81
g460
sI82
g463
sI83
g465
sI84
g468
sI85
g470
sI86
g472
ssI59
(dp548
I57
g409
sI58
g412
sI60
g416
ssI60
(dp549
I64
g424
sI65
g426
sI66
g428
sI67
g430
sI68
g432
sI61
g418
sI62
g420
sI63
g422
ssI61
(dp550
sI62
(dp551
sI63
(dp552
sI64
(dp553
sI65
(dp554
sI66
(dp555
sI67
(dp556
sI68
(dp557
I72
g440
sI69
g434
sI70
g436
sI71
g438
ssI69
(dp558
sI70
(dp559
sI71
(dp560
sI72
(dp561
sI73
(dp562
sI74
(dp563
sI75
(dp564
sI76
(dp565
sI77
(dp566
sI78
(dp567
sI79
(dp568
sI80
(dp569
sI81
(dp570
sI82
(dp571
sI83
(dp572
sI84
(dp573
sI85
(dp574
sI86
(dp575
sI87
(dp576
I88
g477
sI89
g479
ssI88
(dp577
sI89
(dp578
sI90
(dp579
I76
g449
sI86
g473
ssI91
(dp580
I81
g461
sI83
g466
sI77
g452
sssbsS'nodes'
p581
(lp582
g91
ag0
(g89
g2
Ntp583
Rp584
(dp585
g93
g108
sg94
g97
sS'id'
p586
I2
sg69
g108
sbag0
(g89
g2
Ntp587
Rp588
(dp589
g93
g110
sg94
g97
sg586
I3
sg69
g110
sbag0
(g89
g2
Ntp590
Rp591
(dp592
g93
g112
sg94
g97
sg586
I4
sg69
g112
sbag0
(g89
g2
Ntp593
Rp594
(dp595
g93
g114
sg94
g97
sg586
I5
sg69
g114
sbag0
(g89
g2
Ntp596
Rp597
(dp598
g93
g116
sg94
g97
sg586
I6
sg69
g116
sbag0
(g89
g2
Ntp599
Rp600
(dp601
g93
g118
sg94
g97
sg586
I7
sg69
g118
sbag0
(g89
g2
Ntp602
Rp603
(dp604
g93
g120
sg94
g97
sg586
I8
sg69
g120
sbag0
(g89
g2
Ntp605
Rp606
(dp607
g93
g122
sg94
g97
sg586
I9
sg69
g122
sbag0
(g89
g2
Ntp608
Rp609
(dp610
g93
g124
sg94
g97
sg586
I10
sg69
g124
sbag0
(g89
g2
Ntp611
Rp612
(dp613
g93
g126
sg94
g97
sg586
I11
sg69
g126
sbag0
(g89
g2
Ntp614
Rp615
(dp616
g93
g128
sg94
g97
sg586
I12
sg69
g128
sbag0
(g89
g2
Ntp617
Rp618
(dp619
g93
g130
sg94
g97
sg586
I13
sg69
g130
sbag0
(g89
g2
Ntp620
Rp621
(dp622
g93
g132
sg94
g97
sg586
I14
sg69
g132
sbag0
(g89
g2
Ntp623
Rp624
(dp625
g93
g134
sg94
g97
sg586
I15
sg69
g134
sbag0
(g89
g2
Ntp626
Rp627
(dp628
g93
g136
sg94
g97
sg586
I16
sg69
g136
sbag0
(g89
g2
Ntp629
Rp630
(dp631
g93
g138
sg94
g97
sg586
I17
sg69
g138
sbag0
(g89
g2
Ntp632
Rp633
(dp634
g93
g140
sg94
g97
sg586
I18
sg69
g140
sbag0
(g89
g2
Ntp635
Rp636
(dp637
g93
g142
sg94
g97
sg586
I19
sg69
g142
sbag0
(g89
g2
Ntp638
Rp639
(dp640
g93
g144
sg94
g97
sg586
I20
sg69
g144
sbag0
(g89
g2
Ntp641
Rp642
(dp643
g93
g146
sg94
g97
sg586
I21
sg69
g146
sbag0
(g89
g2
Ntp644
Rp645
(dp646
g93
g148
sg94
g97
sg586
I22
sg69
g148
sbag0
(g89
g2
Ntp647
Rp648
(dp649
g93
g150
sg94
g97
sg586
I23
sg69
g150
sbag0
(g89
g2
Ntp650
Rp651
(dp652
g93
g152
sg94
g97
sg586
I24
sg69
g152
sbag0
(g89
g2
Ntp653
Rp654
(dp655
g93
g154
sg94
g97
sg586
I25
sg69
g154
sbag0
(g89
g2
Ntp656
Rp657
(dp658
g93
g156
sg94
g97
sg586
I26
sg69
g156
sbag0
(g89
g2
Ntp659
Rp660
(dp661
g93
g158
sg94
g97
sg586
I27
sg69
g158
sbag0
(g89
g2
Ntp662
Rp663
(dp664
g93
g160
sg94
g97
sg586
I28
sg69
g160
sbag0
(g89
g2
Ntp665
Rp666
(dp667
g93
g162
sg94
g97
sg586
I29
sg69
g162
sbag0
(g89
g2
Ntp668
Rp669
(dp670
g93
g164
sg94
g97
sg586
I30
sg69
g164
sbag0
(g89
g2
Ntp671
Rp672
(dp673
g93
g166
sg94
g97
sg586
I31
sg69
g166
sbag0
(g89
g2
Ntp674
Rp675
(dp676
g93
g168
sg94
g97
sg586
I32
sg69
g168
sbag0
(g89
g2
Ntp677
Rp678
(dp679
g93
g170
sg94
g97
sg586
I33
sg69
g170
sbag0
(g89
g2
Ntp680
Rp681
(dp682
g93
g172
sg94
g97
sg586
I34
sg69
g172
sbag0
(g89
g2
Ntp683
Rp684
(dp685
g93
g174
sg94
g97
sg586
I35
sg69
g174
sbag0
(g89
g2
Ntp686
Rp687
(dp688
g93
g176
sg94
g97
sg586
I36
sg69
g176
sbag0
(g89
g2
Ntp689
Rp690
(dp691
g93
g178
sg94
g97
sg586
I37
sg69
g178
sbag0
(g89
g2
Ntp692
Rp693
(dp694
g93
g180
sg94
g97
sg586
I38
sg69
g180
sbag0
(g89
g2
Ntp695
Rp696
(dp697
g93
g182
sg94
g97
sg586
I39
sg69
g182
sbag0
(g89
g2
Ntp698
Rp699
(dp700
g93
g184
sg94
g97
sg586
I40
sg69
g184
sbag0
(g89
g2
Ntp701
Rp702
(dp703
g93
g186
sg94
g97
sg586
I41
sg69
g186
sbag0
(g89
g2
Ntp704
Rp705
(dp706
g93
g188
sg94
g97
sg586
I42
sg69
g188
sbag0
(g89
g2
Ntp707
Rp708
(dp709
g93
g190
sg94
g97
sg586
I43
sg69
g190
sbag0
(g89
g2
Ntp710
Rp711
(dp712
g93
g192
sg94
g97
sg586
I44
sg69
g192
sbag0
(g89
g2
Ntp713
Rp714
(dp715
g93
g194
sg94
g97
sg586
I45
sg69
g194
sbag0
(g89
g2
Ntp716
Rp717
(dp718
g93
g196
sg94
g97
sg586
I46
sg69
g196
sbag0
(g89
g2
Ntp719
Rp720
(dp721
g93
g198
sg94
g97
sg586
I47
sg69
g198
sbag0
(g89
g2
Ntp722
Rp723
(dp724
g93
g200
sg94
g97
sg586
I48
sg69
g200
sbag0
(g89
g2
Ntp725
Rp726
(dp727
g93
g202
sg94
g97
sg586
I49
sg69
g202
sbag0
(g89
g2
Ntp728
Rp729
(dp730
g93
g204
sg94
g97
sg586
I50
sg69
g204
sbag0
(g89
g2
Ntp731
Rp732
(dp733
g93
g206
sg94
g97
sg586
I51
sg69
g206
sbag0
(g89
g2
Ntp734
Rp735
(dp736
g93
g208
sg94
g97
sg586
I52
sg69
g208
sbag0
(g89
g2
Ntp737
Rp738
(dp739
g93
g210
sg94
g97
sg586
I53
sg69
g210
sbag0
(g89
g2
Ntp740
Rp741
(dp742
g93
g212
sg94
g97
sg586
I54
sg69
g212
sbag0
(g89
g2
Ntp743
Rp744
(dp745
g93
g214
sg94
g97
sg586
I55
sg69
g214
sbag0
(g89
g2
Ntp746
Rp747
(dp748
g93
g216
sg94
g97
sg586
I56
sg69
g216
sbag0
(g89
g2
Ntp749
Rp750
(dp751
g93
g218
sg94
g97
sg586
I57
sg69
g218
sbag0
(g89
g2
Ntp752
Rp753
(dp754
g93
g220
sg94
g97
sg586
I58
sg69
g220
sbag0
(g89
g2
Ntp755
Rp756
(dp757
g93
g222
sg94
g97
sg586
I59
sg69
g222
sbag0
(g89
g2
Ntp758
Rp759
(dp760
g93
g224
sg94
g97
sg586
I60
sg69
g224
sbag0
(g89
g2
Ntp761
Rp762
(dp763
g93
g226
sg94
g97
sg586
I61
sg69
g226
sbag0
(g89
g2
Ntp764
Rp765
(dp766
g93
g228
sg94
g97
sg586
I62
sg69
g228
sbag0
(g89
g2
Ntp767
Rp768
(dp769
g93
g230
sg94
g97
sg586
I63
sg69
g230
sbag0
(g89
g2
Ntp770
Rp771
(dp772
g93
g232
sg94
g97
sg586
I64
sg69
g232
sbag0
(g89
g2
Ntp773
Rp774
(dp775
g93
g234
sg94
g97
sg586
I65
sg69
g234
sbag0
(g89
g2
Ntp776
Rp777
(dp778
g93
g236
sg94
g97
sg586
I66
sg69
g236
sbag0
(g89
g2
Ntp779
Rp780
(dp781
g93
g238
sg94
g97
sg586
I67
sg69
g238
sbag0
(g89
g2
Ntp782
Rp783
(dp784
g93
g240
sg94
g97
sg586
I68
sg69
g240
sbag0
(g89
g2
Ntp785
Rp786
(dp787
g93
g242
sg94
g97
sg586
I69
sg69
g242
sbag0
(g89
g2
Ntp788
Rp789
(dp790
g93
g244
sg94
g97
sg586
I70
sg69
g244
sbag0
(g89
g2
Ntp791
Rp792
(dp793
g93
g246
sg94
g97
sg586
I71
sg69
g246
sbag0
(g89
g2
Ntp794
Rp795
(dp796
g93
g248
sg94
g97
sg586
I72
sg69
g248
sbag0
(g89
g2
Ntp797
Rp798
(dp799
g93
g250
sg94
g97
sg586
I73
sg69
g250
sbag0
(g89
g2
Ntp800
Rp801
(dp802
g93
g252
sg94
g97
sg586
I74
sg69
g252
sbag0
(g89
g2
Ntp803
Rp804
(dp805
g93
g254
sg94
g97
sg586
I75
sg69
g254
sbag0
(g89
g2
Ntp806
Rp807
(dp808
g93
g256
sg94
g97
sg586
I76
sg69
g256
sbag0
(g89
g2
Ntp809
Rp810
(dp811
g93
g258
sg94
g97
sg586
I77
sg69
g258
sbag0
(g89
g2
Ntp812
Rp813
(dp814
g93
g260
sg94
g97
sg586
I78
sg69
g260
sbag0
(g89
g2
Ntp815
Rp816
(dp817
g93
g262
sg94
g97
sg586
I79
sg69
g262
sbag0
(g89
g2
Ntp818
Rp819
(dp820
g93
g264
sg94
g97
sg586
I80
sg69
g264
sbag0
(g89
g2
Ntp821
Rp822
(dp823
g93
g266
sg94
g97
sg586
I81
sg69
g266
sbag0
(g89
g2
Ntp824
Rp825
(dp826
g93
g268
sg94
g97
sg586
I82
sg69
g268
sbag0
(g89
g2
Ntp827
Rp828
(dp829
g93
g270
sg94
g97
sg586
I83
sg69
g270
sbag0
(g89
g2
Ntp830
Rp831
(dp832
g93
g272
sg94
g97
sg586
I84
sg69
g272
sbag0
(g89
g2
Ntp833
Rp834
(dp835
g93
g274
sg94
g97
sg586
I85
sg69
g274
sbag0
(g89
g2
Ntp836
Rp837
(dp838
g93
g276
sg94
g97
sg586
I86
sg69
g276
sbag0
(g89
g2
Ntp839
Rp840
(dp841
g93
g278
sg94
g97
sg586
I87
sg69
g278
sbag0
(g89
g2
Ntp842
Rp843
(dp844
g93
g280
sg94
g97
sg586
I88
sg69
g280
sbag0
(g89
g2
Ntp845
Rp846
(dp847
g93
g282
sg94
g97
sg586
I89
sg69
g282
sbag0
(g89
g2
Ntp848
Rp849
(dp850
g93
g284
sg94
g97
sg586
I90
sg69
g284
sbag0
(g89
g2
Ntp851
Rp852
(dp853
g93
g286
sg94
g97
sg586
I91
sg69
g286
sbasS'edges'
p854
(lp855
g0
(cconcept
SEM_REL
p856
g2
Ntp857
Rp858
(dp859
S'pTo'
p860
g584
sg296
g297
sS'pFrom'
p861
g588
sbag0
(g856
g2
Ntp862
Rp863
(dp864
g860
g588
sg296
g297
sg861
g591
sbag0
(g856
g2
Ntp865
Rp866
(dp867
g860
g591
sg296
g297
sg861
g594
sbag0
(g856
g2
Ntp868
Rp869
(dp870
g860
g591
sg296
g297
sg861
g597
sbag0
(g856
g2
Ntp871
Rp872
(dp873
g860
g588
sg296
g297
sg861
g600
sbag0
(g856
g2
Ntp874
Rp875
(dp876
g860
g600
sg296
g297
sg861
g603
sbag0
(g856
g2
Ntp877
Rp878
(dp879
g860
g588
sg296
g297
sg861
g606
sbag0
(g856
g2
Ntp880
Rp881
(dp882
g860
g606
sg296
g297
sg861
g609
sbag0
(g856
g2
Ntp883
Rp884
(dp885
g860
g606
sg296
g297
sg861
g612
sbag0
(g856
g2
Ntp886
Rp887
(dp888
g860
g606
sg296
g297
sg861
g615
sbag0
(g856
g2
Ntp889
Rp890
(dp891
g860
g606
sg296
g297
sg861
g618
sbag0
(g856
g2
Ntp892
Rp893
(dp894
g860
g606
sg296
g297
sg861
g621
sbag0
(g856
g2
Ntp895
Rp896
(dp897
g860
g606
sg296
g297
sg861
g624
sbag0
(g856
g2
Ntp898
Rp899
(dp900
g860
g606
sg296
g297
sg861
g627
sbag0
(g856
g2
Ntp901
Rp902
(dp903
g860
g606
sg296
g297
sg861
g630
sbag0
(g856
g2
Ntp904
Rp905
(dp906
g860
g606
sg296
g297
sg861
g633
sbag0
(g856
g2
Ntp907
Rp908
(dp909
g860
g588
sg296
g297
sg861
g636
sbag0
(g856
g2
Ntp910
Rp911
(dp912
g860
g636
sg296
g297
sg861
g639
sbag0
(g856
g2
Ntp913
Rp914
(dp915
g860
g636
sg296
g297
sg861
g642
sbag0
(g856
g2
Ntp916
Rp917
(dp918
g860
g584
sg296
g297
sg861
g645
sbag0
(g856
g2
Ntp919
Rp920
(dp921
g860
g645
sg296
g297
sg861
g648
sbag0
(g856
g2
Ntp922
Rp923
(dp924
g860
g648
sg296
g297
sg861
g651
sbag0
(g856
g2
Ntp925
Rp926
(dp927
g860
g648
sg296
g297
sg861
g654
sbag0
(g856
g2
Ntp928
Rp929
(dp930
g860
g648
sg296
g297
sg861
g657
sbag0
(g856
g2
Ntp931
Rp932
(dp933
g860
g648
sg296
g297
sg861
g660
sbag0
(g856
g2
Ntp934
Rp935
(dp936
g860
g648
sg296
g297
sg861
g663
sbag0
(g856
g2
Ntp937
Rp938
(dp939
g860
g645
sg296
g297
sg861
g666
sbag0
(g856
g2
Ntp940
Rp941
(dp942
g860
g666
sg296
g297
sg861
g669
sbag0
(g856
g2
Ntp943
Rp944
(dp945
g860
g666
sg296
g297
sg861
g672
sbag0
(g856
g2
Ntp946
Rp947
(dp948
g860
g666
sg296
g297
sg861
g675
sbag0
(g856
g2
Ntp949
Rp950
(dp951
g860
g645
sg296
g297
sg861
g678
sbag0
(g856
g2
Ntp952
Rp953
(dp954
g860
g678
sg296
g297
sg861
g681
sbag0
(g856
g2
Ntp955
Rp956
(dp957
g860
g678
sg296
g297
sg861
g684
sbag0
(g856
g2
Ntp958
Rp959
(dp960
g860
g584
sg296
g297
sg861
g687
sbag0
(g856
g2
Ntp961
Rp962
(dp963
g860
g687
sg296
g297
sg861
g690
sbag0
(g856
g2
Ntp964
Rp965
(dp966
g860
g690
sg296
g297
sg861
g693
sbag0
(g856
g2
Ntp967
Rp968
(dp969
g860
g690
sg296
g297
sg861
g696
sbag0
(g856
g2
Ntp970
Rp971
(dp972
g860
g690
sg296
g297
sg861
g699
sbag0
(g856
g2
Ntp973
Rp974
(dp975
g860
g690
sg296
g297
sg861
g702
sbag0
(g856
g2
Ntp976
Rp977
(dp978
g860
g690
sg296
g297
sg861
g705
sbag0
(g856
g2
Ntp979
Rp980
(dp981
g860
g705
sg296
g297
sg861
g708
sbag0
(g856
g2
Ntp982
Rp983
(dp984
g860
g708
sg296
g297
sg861
g711
sbag0
(g856
g2
Ntp985
Rp986
(dp987
g860
g705
sg296
g297
sg861
g714
sbag0
(g856
g2
Ntp988
Rp989
(dp990
g860
g714
sg296
g297
sg861
g711
sbag0
(g856
g2
Ntp991
Rp992
(dp993
g860
g687
sg296
g297
sg861
g717
sbag0
(g856
g2
Ntp994
Rp995
(dp996
g860
g717
sg296
g297
sg861
g720
sbag0
(g856
g2
Ntp997
Rp998
(dp999
g860
g720
sg296
g297
sg861
g723
sbag0
(g856
g2
Ntp1000
Rp1001
(dp1002
g860
g720
sg296
g297
sg861
g726
sbag0
(g856
g2
Ntp1003
Rp1004
(dp1005
g860
g717
sg296
g297
sg861
g729
sbag0
(g856
g2
Ntp1006
Rp1007
(dp1008
g860
g729
sg296
g297
sg861
g732
sbag0
(g856
g2
Ntp1009
Rp1010
(dp1011
g860
g687
sg296
g297
sg861
g735
sbag0
(g856
g2
Ntp1012
Rp1013
(dp1014
g860
g687
sg296
g297
sg861
g738
sbag0
(g856
g2
Ntp1015
Rp1016
(dp1017
g860
g738
sg296
g297
sg861
g693
sbag0
(g856
g2
Ntp1018
Rp1019
(dp1020
g860
g738
sg296
g297
sg861
g702
sbag0
(g856
g2
Ntp1021
Rp1022
(dp1023
g860
g584
sg296
g297
sg861
g741
sbag0
(g856
g2
Ntp1024
Rp1025
(dp1026
g860
g584
sg296
g297
sg861
g744
sbag0
(g856
g2
Ntp1027
Rp1028
(dp1029
g860
g744
sg296
g297
sg861
g747
sbag0
(g856
g2
Ntp1030
Rp1031
(dp1032
g860
g747
sg296
g297
sg861
g750
sbag0
(g856
g2
Ntp1033
Rp1034
(dp1035
g860
g747
sg296
g297
sg861
g753
sbag0
(g856
g2
Ntp1036
Rp1037
(dp1038
g860
g744
sg296
g297
sg861
g756
sbag0
(g856
g2
Ntp1039
Rp1040
(dp1041
g860
g756
sg296
g297
sg861
g759
sbag0
(g856
g2
Ntp1042
Rp1043
(dp1044
g860
g759
sg296
g297
sg861
g762
sbag0
(g856
g2
Ntp1045
Rp1046
(dp1047
g860
g759
sg296
g297
sg861
g765
sbag0
(g856
g2
Ntp1048
Rp1049
(dp1050
g860
g759
sg296
g297
sg861
g768
sbag0
(g856
g2
Ntp1051
Rp1052
(dp1053
g860
g759
sg296
g297
sg861
g771
sbag0
(g856
g2
Ntp1054
Rp1055
(dp1056
g860
g759
sg296
g297
sg861
g774
sbag0
(g856
g2
Ntp1057
Rp1058
(dp1059
g860
g759
sg296
g297
sg861
g777
sbag0
(g856
g2
Ntp1060
Rp1061
(dp1062
g860
g759
sg296
g297
sg861
g780
sbag0
(g856
g2
Ntp1063
Rp1064
(dp1065
g860
g759
sg296
g297
sg861
g783
sbag0
(g856
g2
Ntp1066
Rp1067
(dp1068
g860
g783
sg296
g297
sg861
g786
sbag0
(g856
g2
Ntp1069
Rp1070
(dp1071
g860
g783
sg296
g297
sg861
g789
sbag0
(g856
g2
Ntp1072
Rp1073
(dp1074
g860
g783
sg296
g297
sg861
g792
sbag0
(g856
g2
Ntp1075
Rp1076
(dp1077
g860
g783
sg296
g297
sg861
g795
sbag0
(g856
g2
Ntp1078
Rp1079
(dp1080
g860
g756
sg296
g297
sg861
g750
sbag0
(g856
g2
Ntp1081
Rp1082
(dp1083
g860
g750
sg296
g297
sg861
g798
sbag0
(g856
g2
Ntp1084
Rp1085
(dp1086
g860
g750
sg296
g297
sg861
g801
sbag0
(g856
g2
Ntp1087
Rp1088
(dp1089
g860
g750
sg296
g297
sg861
g804
sbag0
(g856
g2
Ntp1090
Rp1091
(dp1092
g860
g756
sg296
g297
sg861
g753
sbag0
(g856
g2
Ntp1093
Rp1094
(dp1095
g860
g753
sg296
g297
sg861
g807
sbag0
(g856
g2
Ntp1096
Rp1097
(dp1098
g860
g753
sg296
g297
sg861
g810
sbag0
(g856
g2
Ntp1099
Rp1100
(dp1101
g860
g753
sg296
g297
sg861
g813
sbag0
(g856
g2
Ntp1102
Rp1103
(dp1104
g860
g753
sg296
g297
sg861
g816
sbag0
(g856
g2
Ntp1105
Rp1106
(dp1107
g860
g753
sg296
g297
sg861
g819
sbag0
(g856
g2
Ntp1108
Rp1109
(dp1110
g860
g753
sg296
g297
sg861
g822
sbag0
(g856
g2
Ntp1111
Rp1112
(dp1113
g860
g753
sg296
g297
sg861
g825
sbag0
(g856
g2
Ntp1114
Rp1115
(dp1116
g860
g753
sg296
g297
sg861
g828
sbag0
(g856
g2
Ntp1117
Rp1118
(dp1119
g860
g753
sg296
g297
sg861
g831
sbag0
(g856
g2
Ntp1120
Rp1121
(dp1122
g860
g753
sg296
g297
sg861
g834
sbag0
(g856
g2
Ntp1123
Rp1124
(dp1125
g860
g753
sg296
g297
sg861
g837
sbag0
(g856
g2
Ntp1126
Rp1127
(dp1128
g860
g744
sg296
g297
sg861
g840
sbag0
(g856
g2
Ntp1129
Rp1130
(dp1131
g860
g840
sg296
g297
sg861
g843
sbag0
(g856
g2
Ntp1132
Rp1133
(dp1134
g860
g840
sg296
g297
sg861
g846
sbag0
(g856
g2
Ntp1135
Rp1136
(dp1137
g860
g744
sg296
g297
sg861
g849
sbag0
(g856
g2
Ntp1138
Rp1139
(dp1140
g860
g849
sg296
g297
sg861
g807
sbag0
(g856
g2
Ntp1141
Rp1142
(dp1143
g860
g849
sg296
g297
sg861
g837
sbag0
(g856
g2
Ntp1144
Rp1145
(dp1146
g860
g744
sg296
g297
sg861
g852
sbag0
(g856
g2
Ntp1147
Rp1148
(dp1149
g860
g852
sg296
g297
sg861
g822
sbag0
(g856
g2
Ntp1150
Rp1151
(dp1152
g860
g852
sg296
g297
sg861
g828
sbag0
(g856
g2
Ntp1153
Rp1154
(dp1155
g860
g852
sg296
g297
sg861
g810
sbasS'neutral'
p1156
g91
sbsg586
I1
sg69
g85
sbssS'model'
p1157
Nsg586
I9
sS'LTM'
p1158
g65
sS'init_act'
p1159
F1.0
sbag0
(clanguage_schemas
CPT_ACTION_SCHEMA
p1160
g2
Ntp1161
Rp1162
(dp1163
g69
g110
sg86
(dp1164
g88
g588
ssg1157
Nsg586
I10
sg1158
g65
sg1159
F1.0
sbag0
(g1160
g2
Ntp1165
Rp1166
(dp1167
g69
g112
sg86
(dp1168
g88
g591
ssg1157
Nsg586
I11
sg1158
g65
sg1159
F1.0
sbag0
(g1160
g2
Ntp1169
Rp1170
(dp1171
g69
g114
sg86
(dp1172
g88
g594
ssg1157
Nsg586
I12
sg1158
g65
sg1159
F1.0
sbag0
(g1160
g2
Ntp1173
Rp1174
(dp1175
g69
g116
sg86
(dp1176
g88
g597
ssg1157
Nsg586
I13
sg1158
g65
sg1159
F1.0
sbag0
(g1160
g2
Ntp1177
Rp1178
(dp1179
g69
g118
sg86
(dp1180
g88
g600
ssg1157
Nsg586
I14
sg1158
g65
sg1159
F1.0
sbag0
(g1160
g2
Ntp1181
Rp1182
(dp1183
g69
g120
sg86
(dp1184
g88
g603
ssg1157
Nsg586
I15
sg1158
g65
sg1159
F1.0
sbag0
(g1160
g2
Ntp1185
Rp1186
(dp1187
g69
g122
sg86
(dp1188
g88
g606
ssg1157
Nsg586
I16
sg1158
g65
sg1159
F1.0
sbag0
(g1160
g2
Ntp1189
Rp1190
(dp1191
g69
g124
sg86
(dp1192
g88
g609
ssg1157
Nsg586
I17
sg1158
g65
sg1159
F1.0
sbag0
(g1160
g2
Ntp1193
Rp1194
(dp1195
g69
g126
sg86
(dp1196
g88
g612
ssg1157
Nsg586
I18
sg1158
g65
sg1159
F1.0
sbag0
(g1160
g2
Ntp1197
Rp1198
(dp1199
g69
g128
sg86
(dp1200
g88
g615
ssg1157
Nsg586
I19
sg1158
g65
sg1159
F1.0
sbag0
(g1160
g2
Ntp1201
Rp1202
(dp1203
g69
g130
sg86
(dp1204
g88
g618
ssg1157
Nsg586
I20
sg1158
g65
sg1159
F1.0
sbag0
(g1160
g2
Ntp1205
Rp1206
(dp1207
g69
g132
sg86
(dp1208
g88
g621
ssg1157
Nsg586
I21
sg1158
g65
sg1159
F1.0
sbag0
(g1160
g2
Ntp1209
Rp1210
(dp1211
g69
g134
sg86
(dp1212
g88
g624
ssg1157
Nsg586
I22
sg1158
g65
sg1159
F1.0
sbag0
(g1160
g2
Ntp1213
Rp1214
(dp1215
g69
g136
sg86
(dp1216
g88
g627
ssg1157
Nsg586
I23
sg1158
g65
sg1159
F1.0
sbag0
(g1160
g2
Ntp1217
Rp1218
(dp1219
g69
g138
sg86
(dp1220
g88
g630
ssg1157
Nsg586
I24
sg1158
g65
sg1159
F1.0
sbag0
(g1160
g2
Ntp1221
Rp1222
(dp1223
g69
g140
sg86
(dp1224
g88
g633
ssg1157
Nsg586
I25
sg1158
g65
sg1159
F1.0
sbag0
(g1160
g2
Ntp1225
Rp1226
(dp1227
g69
g142
sg86
(dp1228
g88
g636
ssg1157
Nsg586
I26
sg1158
g65
sg1159
F1.0
sbag0
(g1160
g2
Ntp1229
Rp1230
(dp1231
g69
g144
sg86
(dp1232
g88
g639
ssg1157
Nsg586
I27
sg1158
g65
sg1159
F1.0
sbag0
(g1160
g2
Ntp1233
Rp1234
(dp1235
g69
g146
sg86
(dp1236
g88
g642
ssg1157
Nsg586
I28
sg1158
g65
sg1159
F1.0
sbag0
(clanguage_schemas
CPT_PROPERTY_SCHEMA
p1237
g2
Ntp1238
Rp1239
(dp1240
g69
g148
sg86
(dp1241
g88
g645
ssg1157
Nsg586
I29
sg1158
g65
sg1159
F1.0
sbag0
(g1237
g2
Ntp1242
Rp1243
(dp1244
g69
g150
sg86
(dp1245
g88
g648
ssg1157
Nsg586
I30
sg1158
g65
sg1159
F1.0
sbag0
(g1237
g2
Ntp1246
Rp1247
(dp1248
g69
g152
sg86
(dp1249
g88
g651
ssg1157
Nsg586
I31
sg1158
g65
sg1159
F1.0
sbag0
(g1237
g2
Ntp1250
Rp1251
(dp1252
g69
g154
sg86
(dp1253
g88
g654
ssg1157
Nsg586
I32
sg1158
g65
sg1159
F1.0
sbag0
(g1237
g2
Ntp1254
Rp1255
(dp1256
g69
g156
sg86
(dp1257
g88
g657
ssg1157
Nsg586
I33
sg1158
g65
sg1159
F1.0
sbag0
(g1237
g2
Ntp1258
Rp1259
(dp1260
g69
g158
sg86
(dp1261
g88
g660
ssg1157
Nsg586
I34
sg1158
g65
sg1159
F1.0
sbag0
(g1237
g2
Ntp1262
Rp1263
(dp1264
g69
g160
sg86
(dp1265
g88
g663
ssg1157
Nsg586
I35
sg1158
g65
sg1159
F1.0
sbag0
(g1237
g2
Ntp1266
Rp1267
(dp1268
g69
g162
sg86
(dp1269
g88
g666
ssg1157
Nsg586
I36
sg1158
g65
sg1159
F1.0
sbag0
(g1237
g2
Ntp1270
Rp1271
(dp1272
g69
g164
sg86
(dp1273
g88
g669
ssg1157
Nsg586
I37
sg1158
g65
sg1159
F1.0
sbag0
(g1237
g2
Ntp1274
Rp1275
(dp1276
g69
g166
sg86
(dp1277
g88
g672
ssg1157
Nsg586
I38
sg1158
g65
sg1159
F1.0
sbag0
(g1237
g2
Ntp1278
Rp1279
(dp1280
g69
g168
sg86
(dp1281
g88
g675
ssg1157
Nsg586
I39
sg1158
g65
sg1159
F1.0
sbag0
(g1237
g2
Ntp1282
Rp1283
(dp1284
g69
g170
sg86
(dp1285
g88
g678
ssg1157
Nsg586
I40
sg1158
g65
sg1159
F1.0
sbag0
(g1237
g2
Ntp1286
Rp1287
(dp1288
g69
g172
sg86
(dp1289
g88
g681
ssg1157
Nsg586
I41
sg1158
g65
sg1159
F1.0
sbag0
(g1237
g2
Ntp1290
Rp1291
(dp1292
g69
g174
sg86
(dp1293
g88
g684
ssg1157
Nsg586
I42
sg1158
g65
sg1159
F1.0
sbag0
(clanguage_schemas
CPT_RELATION_SCHEMA
p1294
g2
Ntp1295
Rp1296
(dp1297
g69
g176
sg86
(dp1298
g860
Nsg88
g687
sg861
Nssg1157
Nsg586
I43
sg1158
g65
sg1159
F1.0
sbag0
(g1294
g2
Ntp1299
Rp1300
(dp1301
g69
g178
sg86
(dp1302
g860
Nsg88
g690
sg861
Nssg1157
Nsg586
I44
sg1158
g65
sg1159
F1.0
sbag0
(g1294
g2
Ntp1303
Rp1304
(dp1305
g69
g180
sg86
(dp1306
g860
Nsg88
g693
sg861
Nssg1157
Nsg586
I45
sg1158
g65
sg1159
F1.0
sbag0
(g1294
g2
Ntp1307
Rp1308
(dp1309
g69
g182
sg86
(dp1310
g860
Nsg88
g696
sg861
Nssg1157
Nsg586
I46
sg1158
g65
sg1159
F1.0
sbag0
(g1294
g2
Ntp1311
Rp1312
(dp1313
g69
g184
sg86
(dp1314
g860
Nsg88
g699
sg861
Nssg1157
Nsg586
I47
sg1158
g65
sg1159
F1.0
sbag0
(g1294
g2
Ntp1315
Rp1316
(dp1317
g69
g186
sg86
(dp1318
g860
Nsg88
g702
sg861
Nssg1157
Nsg586
I48
sg1158
g65
sg1159
F1.0
sbag0
(g1294
g2
Ntp1319
Rp1320
(dp1321
g69
g188
sg86
(dp1322
g860
Nsg88
g705
sg861
Nssg1157
Nsg586
I49
sg1158
g65
sg1159
F1.0
sbag0
(g1294
g2
Ntp1323
Rp1324
(dp1325
g69
g190
sg86
(dp1326
g860
Nsg88
g708
sg861
Nssg1157
Nsg586
I50
sg1158
g65
sg1159
F1.0
sbag0
(g1294
g2
Ntp1327
Rp1328
(dp1329
g69
g192
sg86
(dp1330
g860
Nsg88
g711
sg861
Nssg1157
Nsg586
I51
sg1158
g65
sg1159
F1.0
sbag0
(g1294
g2
Ntp1331
Rp1332
(dp1333
g69
g194
sg86
(dp1334
g860
Nsg88
g714
sg861
Nssg1157
Nsg586
I52
sg1158
g65
sg1159
F1.0
sbag0
(g1294
g2
Ntp1335
Rp1336
(dp1337
g69
g196
sg86
(dp1338
g860
Nsg88
g717
sg861
Nssg1157
Nsg586
I53
sg1158
g65
sg1159
F1.0
sbag0
(g1294
g2
Ntp1339
Rp1340
(dp1341
g69
g198
sg86
(dp1342
g860
Nsg88
g720
sg861
Nssg1157
Nsg586
I54
sg1158
g65
sg1159
F1.0
sbag0
(g1294
g2
Ntp1343
Rp1344
(dp1345
g69
g200
sg86
(dp1346
g860
Nsg88
g723
sg861
Nssg1157
Nsg586
I55
sg1158
g65
sg1159
F1.0
sbag0
(g1294
g2
Ntp1347
Rp1348
(dp1349
g69
g202
sg86
(dp1350
g860
Nsg88
g726
sg861
Nssg1157
Nsg586
I56
sg1158
g65
sg1159
F1.0
sbag0
(g1294
g2
Ntp1351
Rp1352
(dp1353
g69
g204
sg86
(dp1354
g860
Nsg88
g729
sg861
Nssg1157
Nsg586
I57
sg1158
g65
sg1159
F1.0
sbag0
(g1294
g2
Ntp1355
Rp1356
(dp1357
g69
g206
sg86
(dp1358
g860
Nsg88
g732
sg861
Nssg1157
Nsg586
I58
sg1158
g65
sg1159
F1.0
sbag0
(g1294
g2
Ntp1359
Rp1360
(dp1361
g69
g208
sg86
(dp1362
g860
Nsg88
g735
sg861
Nssg1157
Nsg586
I59
sg1158
g65
sg1159
F1.0
sbag0
(g1294
g2
Ntp1363
Rp1364
(dp1365
g69
g210
sg86
(dp1366
g860
Nsg88
g738
sg861
Nssg1157
Nsg586
I60
sg1158
g65
sg1159
F1.0
sbag0
(g81
g2
Ntp1367
Rp1368
(dp1369
g69
g212
sg86
(dp1370
g88
g741
ssg1157
Nsg586
I61
sg1158
g65
sg1159
F1.0
sbag0
(clanguage_schemas
CPT_ENTITY_SCHEMA
p1371
g2
Ntp1372
Rp1373
(dp1374
g69
g214
sg86
(dp1375
g88
g744
ssg1157
Nsg586
I62
sg1158
g65
sg1159
F1.0
sbag0
(g1371
g2
Ntp1376
Rp1377
(dp1378
g69
g216
sg86
(dp1379
g88
g747
ssg1157
Nsg586
I63
sg1158
g65
sg1159
F1.0
sbag0
(g1371
g2
Ntp1380
Rp1381
(dp1382
g69
g218
sg86
(dp1383
g88
g750
ssg1157
Nsg586
I64
sg1158
g65
sg1159
F1.0
sbag0
(g1371
g2
Ntp1384
Rp1385
(dp1386
g69
g220
sg86
(dp1387
g88
g753
ssg1157
Nsg586
I65
sg1158
g65
sg1159
F1.0
sbag0
(g1371
g2
Ntp1388
Rp1389
(dp1390
g69
g222
sg86
(dp1391
g88
g756
ssg1157
Nsg586
I66
sg1158
g65
sg1159
F1.0
sbag0
(g1371
g2
Ntp1392
Rp1393
(dp1394
g69
g224
sg86
(dp1395
g88
g759
ssg1157
Nsg586
I67
sg1158
g65
sg1159
F1.0
sbag0
(g1371
g2
Ntp1396
Rp1397
(dp1398
g69
g226
sg86
(dp1399
g88
g762
ssg1157
Nsg586
I68
sg1158
g65
sg1159
F1.0
sbag0
(g1371
g2
Ntp1400
Rp1401
(dp1402
g69
g228
sg86
(dp1403
g88
g765
ssg1157
Nsg586
I69
sg1158
g65
sg1159
F1.0
sbag0
(g1371
g2
Ntp1404
Rp1405
(dp1406
g69
g230
sg86
(dp1407
g88
g768
ssg1157
Nsg586
I70
sg1158
g65
sg1159
F1.0
sbag0
(g1371
g2
Ntp1408
Rp1409
(dp1410
g69
g232
sg86
(dp1411
g88
g771
ssg1157
Nsg586
I71
sg1158
g65
sg1159
F1.0
sbag0
(g1371
g2
Ntp1412
Rp1413
(dp1414
g69
g234
sg86
(dp1415
g88
g774
ssg1157
Nsg586
I72
sg1158
g65
sg1159
F1.0
sbag0
(g1371
g2
Ntp1416
Rp1417
(dp1418
g69
g236
sg86
(dp1419
g88
g777
ssg1157
Nsg586
I73
sg1158
g65
sg1159
F1.0
sbag0
(g1371
g2
Ntp1420
Rp1421
(dp1422
g69
g238
sg86
(dp1423
g88
g780
ssg1157
Nsg586
I74
sg1158
g65
sg1159
F1.0
sbag0
(g1371
g2
Ntp1424
Rp1425
(dp1426
g69
g240
sg86
(dp1427
g88
g783
ssg1157
Nsg586
I75
sg1158
g65
sg1159
F1.0
sbag0
(g1371
g2
Ntp1428
Rp1429
(dp1430
g69
g242
sg86
(dp1431
g88
g786
ssg1157
Nsg586
I76
sg1158
g65
sg1159
F1.0
sbag0
(g1371
g2
Ntp1432
Rp1433
(dp1434
g69
g244
sg86
(dp1435
g88
g789
ssg1157
Nsg586
I77
sg1158
g65
sg1159
F1.0
sbag0
(g1371
g2
Ntp1436
Rp1437
(dp1438
g69
g246
sg86
(dp1439
g88
g792
ssg1157
Nsg586
I78
sg1158
g65
sg1159
F1.0
sbag0
(g1371
g2
Ntp1440
Rp1441
(dp1442
g69
g248
sg86
(dp1443
g88
g795
ssg1157
Nsg586
I79
sg1158
g65
sg1159
F1.0
sbag0
(g1371
g2
Ntp1444
Rp1445
(dp1446
g69
g250
sg86
(dp1447
g88
g798
ssg1157
Nsg586
I80
sg1158
g65
sg1159
F1.0
sbag0
(g1371
g2
Ntp1448
Rp1449
(dp1450
g69
g252
sg86
(dp1451
g88
g801
ssg1157
Nsg586
I81
sg1158
g65
sg1159
F1.0
sbag0
(g1371
g2
Ntp1452
Rp1453
(dp1454
g69
g254
sg86
(dp1455
g88
g804
ssg1157
Nsg586
I82
sg1158
g65
sg1159
F1.0
sbag0
(g1371
g2
Ntp1456
Rp1457
(dp1458
g69
g256
sg86
(dp1459
g88
g807
ssg1157
Nsg586
I83
sg1158
g65
sg1159
F1.0
sbag0
(g1371
g2
Ntp1460
Rp1461
(dp1462
g69
g258
sg86
(dp1463
g88
g810
ssg1157
Nsg586
I84
sg1158
g65
sg1159
F1.0
sbag0
(g1371
g2
Ntp1464
Rp1465
(dp1466
g69
g260
sg86
(dp1467
g88
g813
ssg1157
Nsg586
I85
sg1158
g65
sg1159
F1.0
sbag0
(g1371
g2
Ntp1468
Rp1469
(dp1470
g69
g262
sg86
(dp1471
g88
g816
ssg1157
Nsg586
I86
sg1158
g65
sg1159
F1.0
sbag0
(g1371
g2
Ntp1472
Rp1473
(dp1474
g69
g264
sg86
(dp1475
g88
g819
ssg1157
Nsg586
I87
sg1158
g65
sg1159
F1.0
sbag0
(g1371
g2
Ntp1476
Rp1477
(dp1478
g69
g266
sg86
(dp1479
g88
g822
ssg1157
Nsg586
I88
sg1158
g65
sg1159
F1.0
sbag0
(g1371
g2
Ntp1480
Rp1481
(dp1482
g69
g268
sg86
(dp1483
g88
g825
ssg1157
Nsg586
I89
sg1158
g65
sg1159
F1.0
sbag0
(g1371
g2
Ntp1484
Rp1485
(dp1486
g69
g270
sg86
(dp1487
g88
g828
ssg1157
Nsg586
I90
sg1158
g65
sg1159
F1.0
sbag0
(g1371
g2
Ntp1488
Rp1489
(dp1490
g69
g272
sg86
(dp1491
g88
g831
ssg1157
Nsg586
I91
sg1158
g65
sg1159
F1.0
sbag0
(g1371
g2
Ntp1492
Rp1493
(dp1494
g69
g274
sg86
(dp1495
g88
g834
ssg1157
Nsg586
I92
sg1158
g65
sg1159
F1.0
sbag0
(g1371
g2
Ntp1496
Rp1497
(dp1498
g69
g276
sg86
(dp1499
g88
g837
ssg1157
Nsg586
I93
sg1158
g65
sg1159
F1.0
sbag0
(g1371
g2
Ntp1500
Rp1501
(dp1502
g69
g278
sg86
(dp1503
g88
g840
ssg1157
Nsg586
I94
sg1158
g65
sg1159
F1.0
sbag0
(g1371
g2
Ntp1504
Rp1505
(dp1506
g69
g280
sg86
(dp1507
g88
g843
ssg1157
Nsg586
I95
sg1158
g65
sg1159
F1.0
sbag0
(g1371
g2
Ntp1508
Rp1509
(dp1510
g69
g282
sg86
(dp1511
g88
g846
ssg1157
Nsg586
I96
sg1158
g65
sg1159
F1.0
sbag0
(g1371
g2
Ntp1512
Rp1513
(dp1514
g69
g284
sg86
(dp1515
g88
g849
ssg1157
Nsg586
I97
sg1158
g65
sg1159
F1.0
sbag0
(g1371
g2
Ntp1516
Rp1517
(dp1518
g69
g286
sg86
(dp1519
g88
g852
ssg1157
Nsg586
I98
sg1158
g65
sg1159
F1.0
sbasg296
S'OUT'
p1520
sg586
I11
sS'schema'
p1521
g65
sbag0
(g73
g2
Ntp1522
Rp1523
(dp1524
g69
S'to_semantic_WM'
p1525
sg78
Nsg79
g80
sg296
g1520
sg586
I12
sg1521
g65
sbasS'outputs'
p1526
(dp1527
g77
Nsg1525
NssS'connections'
p1528
(lp1529
sS'cpt_knowledge'
p1530
g97
sS'dt'
p1531
F1.0
sS'in_ports'
p1532
(lp1533
sS'params'
p1534
(dp1535
g1159
F1.0
ssS't'
p1536
I0
sS'activity'
p1537
I0
sg1157
g0
(cschema_theory
MODEL
p1538
g2
Ntp1539
Rp1540
(dp1541
S'verbose'
p1542
I00
sg69
S'language_system_P'
p1543
sS'sim_data'
p1544
(dp1545
S'system_states'
p1546
(dp1547
sg1157
(dp1548
ssg1526
(dp1549
sS'input_ports'
p1550
(lp1551
g0
(g73
g2
Ntp1552
Rp1553
(dp1554
g69
S'from_conceptualizer'
p1555
sg78
Nsg79
Nsg296
S'IN'
p1556
sg586
I1
sg1521
g0
(clanguage_schemas
SEMANTIC_WM
p1557
g2
Ntp1558
Rp1559
(dp1560
g67
(dp1561
S'from_grammatical_WM_P'
p1562
NsS'from_concept_LTM'
p1563
NsS'from_control'
p1564
NsS'from_grammatical_WM_C'
p1565
Nsg1555
NssS'schema_insts'
p1566
(lp1567
sg69
S'Semantic_WM'
p1568
sS'comp_links'
p1569
(lp1570
sg71
(lp1571
g0
(g73
g2
Ntp1572
Rp1573
(dp1574
S'port_data'
p1575
Nsg69
S'to_grammatical_WM_P'
p1576
sg78
Nsg79
NsS'port_value'
p1577
Nsg296
g1520
sg586
I6
sg1521
g1559
sbag0
(g73
g2
Ntp1578
Rp1579
(dp1580
g1575
Nsg69
S'to_cxn_retrieval_P'
p1581
sg78
Nsg79
Nsg1577
Nsg296
g1520
sg586
I7
sg1521
g1559
sbag0
(g73
g2
Ntp1582
Rp1583
(dp1584
g1575
Nsg69
S'to_control'
p1585
sg78
Nsg79
Nsg1577
Nsg296
g1520
sg586
I8
sg1521
g1559
sbag0
(g73
g2
Ntp1586
Rp1587
(dp1588
g69
S'to_visual_WM'
p1589
sg78
Nsg79
Nsg296
g1520
sg586
I9
sg1521
g1559
sbag0
(g73
g2
Ntp1590
Rp1591
(dp1592
g69
S'to_output'
p1593
sg78
Nsg79
Nsg296
g1520
sg586
I10
sg1521
g1559
sbasg1526
(dp1594
g1593
Nsg1576
Nsg1589
Nsg1581
Nsg1585
Nssg1531
F1.0
sS'coop_links'
p1595
(lp1596
sg1532
(lp1597
g1553
ag0
(g73
g2
Ntp1598
Rp1599
(dp1600
g69
g1563
sg78
Nsg79
Nsg296
g1556
sg586
I2
sg1521
g1559
sbag0
(g73
g2
Ntp1601
Rp1602
(dp1603
g69
g1565
sg78
Nsg79
Nsg296
g1556
sg586
I3
sg1521
g1559
sbag0
(g73
g2
Ntp1604
Rp1605
(dp1606
g1575
Nsg69
g1562
sg78
Nsg79
Nsg1577
Nsg296
g1556
sg586
I4
sg1521
g1559
sbag0
(g73
g2
Ntp1607
Rp1608
(dp1609
g1575
Nsg69
g1564
sg78
Nsg79
S'produce'
p1610
sg1577
Nsg296
g1556
sg586
I5
sg1521
g1559
sbasS'save_state'
p1611
(dp1612
S'insts'
p1613
(dp1614
sS'WM_activity'
p1615
(dp1616
S'comp'
p1617
(lp1618
sS'c2_network'
p1619
(dp1620
S'num_insts'
p1621
(lp1622
sS'num_coop_links'
p1623
(lp1624
sS'num_comp_links'
p1625
(lp1626
ssS'coop'
p1627
(lp1628
sg1536
(lp1629
sS'act'
p1630
(lp1631
sssg1534
(dp1632
S'C2'
p1633
(dp1634
S'P_comp'
p1635
F1.0
sS'max_capacity'
p1636
NsS'comp_weight'
p1637
F0.0
sS'P_coop'
p1638
F1.0
sS'coop_asymmetry'
p1639
F1.0
sS'coop_weight'
p1640
F0.0
sS'confidence_threshold'
p1641
F0.0
sS'comp_asymmetry'
p1642
F0.0
sS'prune_threshold'
p1643
F0.01
ssS'dyn'
p1644
(dp1645
S'tau'
p1646
F10000.0
sS'k'
p1647
F10.0
sS'act_rest'
p1648
F0.001
sS'noise_mean'
p1649
F0.0
sS'noise_std'
p1650
F1.0
sS'ext_weight'
p1651
F1.0
sS'int_weight'
p1652
F1.0
sssg1536
I0
sg1537
I0
sg1157
g1540
sS'SemRep'
p1653
g0
(g100
g2
Ntp1654
Rp1655
(dp1656
g104
(dp1657
sg287
g288
sg289
g288
sg290
(dp1658
sg484
g1658
sg99
(dp1659
sg486
g288
sg487
g1658
sg488
(dp1660
sbsg586
I1
sbsbasS'brain_mapping'
p1661
g0
(cschema_theory
BRAIN_MAPPING
p1662
g2
Ntp1663
Rp1664
(dp1665
S'schema_mapping'
p1666
(dp1667
S'Control'
p1668
(lp1669
S'DLPFC'
p1670
asS'Utter'
p1671
(lp1672
S''
p1673
asg1568
(lp1674
S'left_SFG'
p1675
aS'LIP'
p1676
aS'Hippocampus'
p1677
asS'Phonological_WM_P'
p1678
(lp1679
S'left_BA6'
p1680
asg70
(lp1681
g1673
asS'Grammatical_WM_P'
p1682
(lp1683
S'left_BA45'
p1684
aS'leftBA44'
p1685
asS'Grammatical_LTM'
p1686
(lp1687
S'left_STG'
p1688
aS'left_MTG'
p1689
asS'Cxn_retrieval_P'
p1690
(lp1691
ssS'connect_mapping'
p1692
(dp1693
sbsg1528
(lp1694
g0
(cschema_theory
CONNECT
p1695
g2
Ntp1696
Rp1697
(dp1698
S'delay'
p1699
I0
sg69
g1673
sS'weight'
p1700
I0
sS'port_to'
p1701
g0
(g73
g2
Ntp1702
Rp1703
(dp1704
g1575
Nsg69
S'from_semantic_WM'
p1705
sg78
Nsg79
Nsg1577
Nsg296
g1556
sg586
I23
sg1521
g0
(clanguage_schemas
CXN_RETRIEVAL_P
p1706
g2
Ntp1707
Rp1708
(dp1709
g67
(dp1710
g1705
NsS'from_grammatical_LTM'
p1711
Nssg69
g1690
sg71
(lp1712
g0
(g73
g2
Ntp1713
Rp1714
(dp1715
g1575
Nsg69
g1576
sg78
Nsg79
Nsg1577
Nsg296
g1520
sg586
I24
sg1521
g1708
sbasg1526
(dp1716
g1576
NssS'cxn_instances'
p1717
(lp1718
sg1531
F1.0
sg1532
(lp1719
g0
(g73
g2
Ntp1720
Rp1721
(dp1722
g1575
Nsg69
g1711
sg78
Nsg79
(lp1723
g0
(clanguage_schemas
CXN_SCHEMA
p1724
g2
Ntp1725
Rp1726
(dp1727
g69
VCNJ_AND
p1728
sg86
(iconstruction
CXN
p1729
(dp1730
S'SymLinks'
p1731
(iconstruction
TP_SYMLINKS
p1732
(dp1733
S'SL'
p1734
(dp1735
VEVT1_4
p1736
VS1_6
p1737
sVEVT2_5
p1738
VS3_8
p1739
ssg586
I3
sg69
g1673
sbsS'clss'
p1740
VD
p1741
sS'group'
p1742
I3
sg69
g1728
sS'SemFrame'
p1743
(iconstruction
TP_SEMFRAME
p1744
(dp1745
g99
g0
(g100
g2
Ntp1746
Rp1747
(dp1748
g104
(dp1749
(iconstruction
TP_NODE
p1750
(dp1751
S'head'
p1752
I00
sg88
g741
sg69
g1736
sS'frame'
p1753
I00
sS'focus'
p1754
I01
sg586
I4
sb(dp1755
g1753
I00
sg88
g741
ss(iconstruction
TP_NODE
p1756
(dp1757
g1752
I00
sg88
g741
sg69
g1738
sg1753
I00
sg1754
I00
sg586
I5
sb(dp1758
g1753
I00
sg88
g741
sssg287
g288
sg289
g288
sg290
(dp1759
g1750
(dp1760
sg1756
(dp1761
ssg484
g1759
sg99
(dp1762
sg486
g288
sg487
g1759
sg488
(dp1763
g1750
(dp1764
sg1756
(dp1765
ssbsg581
(lp1766
g1750
ag1756
asg854
(lp1767
sg586
I1
sg69
g1673
sbsS'SynForm'
p1768
(iconstruction
TP_SYNFORM
p1769
(dp1770
g586
I2
sS'form'
p1771
(lp1772
(iconstruction
TP_SLOT
p1773
(dp1774
S'cxn_classes'
p1775
(lp1776
VS
p1777
asS'order'
p1778
I0
sg586
I6
sg69
g1737
sba(iconstruction
TP_PHON
p1779
(dp1780
S'num_syllables'
p1781
I3
sg1778
I1
sg586
I7
sS'cxn_phonetics'
p1782
Vand
p1783
sg69
VS2_7
p1784
sba(iconstruction
TP_SLOT
p1785
(dp1786
g1775
(lp1787
VS
p1788
asg1778
I2
sg586
I8
sg69
g1739
sbasg69
g1673
sbsS'preference'
p1789
I1
sbsg1157
Nsg586
I99
sg1158
g0
(clanguage_schemas
GRAMMATICAL_LTM
p1790
g2
Ntp1791
Rp1792
(dp1793
g67
(dp1794
sS'grammar'
p1795
(iconstruction
GRAMMAR
p1796
(dp1797
S'constructions'
p1798
(lp1799
g1729
a(iconstruction
CXN
p1800
(dp1801
g1731
(iconstruction
TP_SYMLINKS
p1802
(dp1803
g1734
(dp1804
VEVT2_13
p1805
VS3_17
p1806
sVEVT1_12
p1807
VS1_15
p1808
ssg586
I11
sg69
g1673
sbsg1740
VD
p1809
sg1742
I3
sg69
VCNJ_THEN
p1810
sg1743
(iconstruction
TP_SEMFRAME
p1811
(dp1812
g99
g0
(g100
g2
Ntp1813
Rp1814
(dp1815
g104
(dp1816
(iconstruction
TP_NODE
p1817
(dp1818
g1752
I00
sg88
g741
sg69
g1807
sg1753
I00
sg1754
I00
sg586
I12
sb(dp1819
g1753
I00
sg88
g741
ss(iconstruction
TP_NODE
p1820
(dp1821
g1752
I00
sg88
g741
sg69
g1805
sg1753
I00
sg1754
I00
sg586
I13
sb(dp1822
g1753
I00
sg88
g741
sssg287
g288
sg289
g288
sg290
(dp1823
g1817
(dp1824
g1820
(dp1825
g88
g726
sssg1820
(dp1826
ssg484
g1823
sg99
(dp1827
sg486
g288
sg487
g1823
sg488
(dp1828
g1817
(dp1829
sg1820
(dp1830
g1817
g1825
sssbsg581
(lp1831
g1817
ag1820
asg854
(lp1832
(iconstruction
TP_REL
p1833
(dp1834
g860
g1820
sg88
g726
sg586
I14
sg861
g1817
sg69
VEVT1_EVT2_14
p1835
sbasg586
I9
sg69
g1673
sbsg1768
(iconstruction
TP_SYNFORM
p1836
(dp1837
g586
I10
sg1771
(lp1838
(iconstruction
TP_SLOT
p1839
(dp1840
g1775
(lp1841
VS
p1842
asg1778
I0
sg586
I15
sg69
g1808
sba(iconstruction
TP_PHON
p1843
(dp1844
g1781
I4
sg1778
I1
sg586
I16
sg1782
Vthen
p1845
sg69
VS2_16
p1846
sba(iconstruction
TP_SLOT
p1847
(dp1848
g1775
(lp1849
VS
p1850
asg1778
I2
sg586
I17
sg69
g1806
sbasg69
g1673
sbsg1789
I1
sba(iconstruction
CXN
p1851
(dp1852
g1731
(iconstruction
TP_SYMLINKS
p1853
(dp1854
g1734
(dp1855
VEVT2_22
p1856
VS3_26
p1857
sVEVT1_21
p1858
VS1_24
p1859
ssg586
I20
sg69
g1673
sbsg1740
VD
p1860
sg1742
I3
sg69
VCNJ_WHILE
p1861
sg1743
(iconstruction
TP_SEMFRAME
p1862
(dp1863
g99
g0
(g100
g2
Ntp1864
Rp1865
(dp1866
g104
(dp1867
(iconstruction
TP_NODE
p1868
(dp1869
g1752
I00
sg88
g741
sg69
g1856
sg1753
I00
sg1754
I00
sg586
I22
sb(dp1870
g1753
I00
sg88
g741
ss(iconstruction
TP_NODE
p1871
(dp1872
g1752
I00
sg88
g741
sg69
g1858
sg1753
I00
sg1754
I01
sg586
I21
sb(dp1873
g1753
I00
sg88
g741
sssg287
g288
sg289
g288
sg290
(dp1874
g1868
(dp1875
sg1871
(dp1876
g1868
(dp1877
g88
g723
ssssg484
g1874
sg99
(dp1878
sg486
g288
sg487
g1874
sg488
(dp1879
g1868
(dp1880
g1871
g1877
ssg1871
(dp1881
ssbsg581
(lp1882
g1871
ag1868
asg854
(lp1883
(iconstruction
TP_REL
p1884
(dp1885
g860
g1868
sg88
g723
sg586
I23
sg861
g1871
sg69
VEVT1_EVT2_23
p1886
sbasg586
I18
sg69
g1673
sbsg1768
(iconstruction
TP_SYNFORM
p1887
(dp1888
g586
I19
sg1771
(lp1889
(iconstruction
TP_SLOT
p1890
(dp1891
g1775
(lp1892
VS
p1893
asg1778
I0
sg586
I24
sg69
g1859
sba(iconstruction
TP_PHON
p1894
(dp1895
g1781
I5
sg1778
I1
sg586
I25
sg1782
Vwhile
p1896
sg69
VS2_25
p1897
sba(iconstruction
TP_SLOT
p1898
(dp1899
g1775
(lp1900
VS
p1901
asg1778
I2
sg586
I26
sg69
g1857
sbasg69
g1673
sbsg1789
I1
sba(iconstruction
CXN
p1902
(dp1903
g1731
(iconstruction
TP_SYMLINKS
p1904
(dp1905
g1734
(dp1906
VACT_31
p1907
VS4_40
p1908
sVACTOR_1_32
p1909
VS1_37
p1910
sVACTOR_2_33
p1911
VS3_39
p1912
ssg586
I29
sg69
g1673
sbsg1740
VS
p1913
sg1742
Nsg69
VSYMMETRIC_TRANS
p1914
sg1743
(iconstruction
TP_SEMFRAME
p1915
(dp1916
g99
g0
(g100
g2
Ntp1917
Rp1918
(dp1919
g104
(dp1920
(iconstruction
TP_NODE
p1921
(dp1922
g1752
I01
sg88
g741
sg69
VEVT_30
p1923
sg1753
I01
sg1754
I00
sg586
I30
sb(dp1924
g1753
I01
sg88
g741
ss(iconstruction
TP_NODE
p1925
(dp1926
g1752
I00
sg88
g744
sg69
g1909
sg1753
I01
sg1754
I01
sg586
I32
sb(dp1927
g1753
I01
sg88
g744
ss(iconstruction
TP_NODE
p1928
(dp1929
g1752
I00
sg88
g588
sg69
g1907
sg1753
I01
sg1754
I00
sg586
I31
sb(dp1930
g1753
I01
sg88
g588
ss(iconstruction
TP_NODE
p1931
(dp1932
g1752
I00
sg88
g744
sg69
g1911
sg1753
I01
sg1754
I00
sg586
I33
sb(dp1933
g1753
I01
sg88
g744
sssg287
g288
sg289
g288
sg290
(dp1934
g1921
(dp1935
g1928
(dp1936
g88
g735
sssg1925
(dp1937
sg1928
(dp1938
g1931
(dp1939
g88
g711
ssg1925
(dp1940
g88
g711
sssg1931
(dp1941
ssg484
g1934
sg99
(dp1942
sg486
g288
sg487
g1934
sg488
(dp1943
g1921
(dp1944
sg1925
(dp1945
g1928
g1940
ssg1928
(dp1946
g1921
g1936
ssg1931
(dp1947
g1928
g1939
sssbsg581
(lp1948
g1921
ag1928
ag1925
ag1931
asg854
(lp1949
(iconstruction
TP_REL
p1950
(dp1951
g860
g1928
sg88
g735
sg586
I34
sg861
g1921
sg69
VIS_34
p1952
sba(iconstruction
TP_REL
p1953
(dp1954
g860
g1925
sg88
g711
sg586
I35
sg861
g1928
sg69
VAGT_PT_1_35
p1955
sba(iconstruction
TP_REL
p1956
(dp1957
g860
g1931
sg88
g711
sg586
I36
sg861
g1928
sg69
VAGT_PT_2_36
p1958
sbasg586
I27
sg69
g1673
sbsg1768
(iconstruction
TP_SYNFORM
p1959
(dp1960
g586
I28
sg1771
(lp1961
(iconstruction
TP_SLOT
p1962
(dp1963
g1775
(lp1964
VNP
p1965
aVN
p1966
asg1778
I0
sg586
I37
sg69
g1910
sba(iconstruction
TP_PHON
p1967
(dp1968
g1781
I3
sg1778
I1
sg586
I38
sg1782
Vand
p1969
sg69
VS2_38
p1970
sba(iconstruction
TP_SLOT
p1971
(dp1972
g1775
(lp1973
VNP
p1974
aVN
p1975
asg1778
I2
sg586
I39
sg69
g1912
sba(iconstruction
TP_SLOT
p1976
(dp1977
g1775
(lp1978
VVP
p1979
aVV
p1980
asg1778
I3
sg586
I40
sg69
g1908
sbasg69
g1673
sbsg1789
I1
sba(iconstruction
CXN
p1981
(dp1982
g1731
(iconstruction
TP_SYMLINKS
p1983
(dp1984
g1734
(dp1985
VAGT_46
p1986
VS1_51
p1987
sVACT_45
p1988
VS2_52
p1989
sVPT_47
p1990
VS3_53
p1991
ssg586
I43
sg69
g1673
sbsg1740
VS
p1992
sg1742
I2
sg69
VSVO
p1993
sg1743
(iconstruction
TP_SEMFRAME
p1994
(dp1995
g99
g0
(g100
g2
Ntp1996
Rp1997
(dp1998
g104
(dp1999
(iconstruction
TP_NODE
p2000
(dp2001
g1752
I00
sg88
g588
sg69
g1988
sg1753
I01
sg1754
I00
sg586
I45
sb(dp2002
g1753
I01
sg88
g588
ss(iconstruction
TP_NODE
p2003
(dp2004
g1752
I00
sg88
g744
sg69
g1986
sg1753
I01
sg1754
I01
sg586
I46
sb(dp2005
g1753
I01
sg88
g744
ss(iconstruction
TP_NODE
p2006
(dp2007
g1752
I01
sg88
g741
sg69
VEVT_44
p2008
sg1753
I01
sg1754
I00
sg586
I44
sb(dp2009
g1753
I01
sg88
g741
ss(iconstruction
TP_NODE
p2010
(dp2011
g1752
I00
sg88
g744
sg69
g1990
sg1753
I01
sg1754
I00
sg586
I47
sb(dp2012
g1753
I01
sg88
g744
sssg287
g288
sg289
g288
sg290
(dp2013
g2000
(dp2014
g2010
(dp2015
g88
g708
ssg2003
(dp2016
g88
g714
sssg2003
(dp2017
sg2006
(dp2018
g2000
(dp2019
g88
g735
sssg2010
(dp2020
ssg484
g2013
sg99
(dp2021
sg486
g288
sg487
g2013
sg488
(dp2022
g2000
(dp2023
g2006
g2019
ssg2003
(dp2024
g2000
g2016
ssg2006
(dp2025
sg2010
(dp2026
g2000
g2015
sssbsg581
(lp2027
g2006
ag2000
ag2003
ag2010
asg854
(lp2028
(iconstruction
TP_REL
p2029
(dp2030
g860
g2000
sg88
g735
sg586
I48
sg861
g2006
sg69
VIS_48
p2031
sba(iconstruction
TP_REL
p2032
(dp2033
g860
g2003
sg88
g714
sg586
I49
sg861
g2000
sg69
VACT_AGT_49
p2034
sba(iconstruction
TP_REL
p2035
(dp2036
g860
g2010
sg88
g708
sg586
I50
sg861
g2000
sg69
VACT_PT_50
p2037
sbasg586
I41
sg69
g1673
sbsg1768
(iconstruction
TP_SYNFORM
p2038
(dp2039
g586
I42
sg1771
(lp2040
(iconstruction
TP_SLOT
p2041
(dp2042
g1775
(lp2043
VNP
p2044
aVN
p2045
asg1778
I0
sg586
I51
sg69
g1987
sba(iconstruction
TP_SLOT
p2046
(dp2047
g1775
(lp2048
VVP
p2049
aVV
p2050
asg1778
I1
sg586
I52
sg69
g1989
sba(iconstruction
TP_SLOT
p2051
(dp2052
g1775
(lp2053
VNP
p2054
aVN
p2055
asg1778
I2
sg586
I53
sg69
g1991
sbasg69
g1673
sbsg1789
I1
sba(iconstruction
CXN
p2056
(dp2057
g1731
(iconstruction
TP_SYMLINKS
p2058
(dp2059
g1734
(dp2060
VPT_60
p2061
VS1_64
p2062
sVACT_58
p2063
VS3_66
p2064
sVAGT_59
p2065
VS6_69
p2066
ssg586
I56
sg69
g1673
sbsg1740
VS
p2067
sg1742
I2
sg69
VPAS_SVO
p2068
sg1743
(iconstruction
TP_SEMFRAME
p2069
(dp2070
g99
g0
(g100
g2
Ntp2071
Rp2072
(dp2073
g104
(dp2074
(iconstruction
TP_NODE
p2075
(dp2076
g1752
I01
sg88
g741
sg69
VEVT_57
p2077
sg1753
I01
sg1754
I00
sg586
I57
sb(dp2078
g1753
I01
sg88
g741
ss(iconstruction
TP_NODE
p2079
(dp2080
g1752
I00
sg88
g744
sg69
g2065
sg1753
I01
sg1754
I00
sg586
I59
sb(dp2081
g1753
I01
sg88
g744
ss(iconstruction
TP_NODE
p2082
(dp2083
g1752
I00
sg88
g744
sg69
g2061
sg1753
I01
sg1754
I01
sg586
I60
sb(dp2084
g1753
I01
sg88
g744
ss(iconstruction
TP_NODE
p2085
(dp2086
g1752
I00
sg88
g588
sg69
g2063
sg1753
I01
sg1754
I00
sg586
I58
sb(dp2087
g1753
I01
sg88
g588
sssg287
g288
sg289
g288
sg290
(dp2088
g2075
(dp2089
g2085
(dp2090
g88
g735
sssg2079
(dp2091
sg2082
(dp2092
sg2085
(dp2093
g2079
(dp2094
g88
g714
ssg2082
(dp2095
g88
g708
ssssg484
g2088
sg99
(dp2096
sg486
g288
sg487
g2088
sg488
(dp2097
g2075
(dp2098
sg2079
(dp2099
g2085
g2094
ssg2082
(dp2100
g2085
g2095
ssg2085
(dp2101
g2075
g2090
sssbsg581
(lp2102
g2075
ag2085
ag2079
ag2082
asg854
(lp2103
(iconstruction
TP_REL
p2104
(dp2105
g860
g2085
sg88
g735
sg586
I61
sg861
g2075
sg69
VIS_61
p2106
sba(iconstruction
TP_REL
p2107
(dp2108
g860
g2079
sg88
g714
sg586
I62
sg861
g2085
sg69
VACT_AGT_62
p2109
sba(iconstruction
TP_REL
p2110
(dp2111
g860
g2082
sg88
g708
sg586
I63
sg861
g2085
sg69
VACT_PT_63
p2112
sbasg586
I54
sg69
g1673
sbsg1768
(iconstruction
TP_SYNFORM
p2113
(dp2114
g586
I55
sg1771
(lp2115
(iconstruction
TP_SLOT
p2116
(dp2117
g1775
(lp2118
VNP
p2119
aVN
p2120
asg1778
I0
sg586
I64
sg69
g2062
sba(iconstruction
TP_PHON
p2121
(dp2122
g1781
I2
sg1778
I1
sg586
I65
sg1782
Vis
p2123
sg69
VS2_65
p2124
sba(iconstruction
TP_SLOT
p2125
(dp2126
g1775
(lp2127
VVP
p2128
aVV
p2129
asg1778
I2
sg586
I66
sg69
g2064
sba(iconstruction
TP_PHON
p2130
(dp2131
g1781
I2
sg1778
I3
sg586
I67
sg1782
V-ed
p2132
sg69
VS4_67
p2133
sba(iconstruction
TP_PHON
p2134
(dp2135
g1781
I2
sg1778
I4
sg586
I68
sg1782
Vby
p2136
sg69
VS5_68
p2137
sba(iconstruction
TP_SLOT
p2138
(dp2139
g1775
(lp2140
VNP
p2141
aVN
p2142
asg1778
I5
sg586
I69
sg69
g2066
sbasg69
g1673
sbsg1789
I1
sba(iconstruction
CXN
p2143
(dp2144
g1731
(iconstruction
TP_SYMLINKS
p2145
(dp2146
g1734
(dp2147
VACT_74
p2148
VS2_83
p2149
sVRCPT_77
p2150
VS3_84
p2151
sVTHEME_76
p2152
VS4_85
p2153
sVAGT_75
p2154
VS1_82
p2155
ssg586
I72
sg69
g1673
sbsg1740
VS
p2156
sg1742
I2
sg69
VDOUBLE_OBJ
p2157
sg1743
(iconstruction
TP_SEMFRAME
p2158
(dp2159
g99
g0
(g100
g2
Ntp2160
Rp2161
(dp2162
g104
(dp2163
(iconstruction
TP_NODE
p2164
(dp2165
g1752
I01
sg88
g741
sg69
VEVT_73
p2166
sg1753
I01
sg1754
I00
sg586
I73
sb(dp2167
g1753
I01
sg88
g741
ss(iconstruction
TP_NODE
p2168
(dp2169
g1752
I00
sg88
g744
sg69
g2154
sg1753
I01
sg1754
I01
sg586
I75
sb(dp2170
g1753
I01
sg88
g744
ss(iconstruction
TP_NODE
p2171
(dp2172
g1752
I00
sg88
g744
sg69
g2150
sg1753
I01
sg1754
I00
sg586
I77
sb(dp2173
g1753
I01
sg88
g744
ss(iconstruction
TP_NODE
p2174
(dp2175
g1752
I00
sg88
g588
sg69
g2148
sg1753
I01
sg1754
I00
sg586
I74
sb(dp2176
g1753
I01
sg88
g588
ss(iconstruction
TP_NODE
p2177
(dp2178
g1752
I00
sg88
g744
sg69
g2152
sg1753
I01
sg1754
I00
sg586
I76
sb(dp2179
g1753
I01
sg88
g744
sssg287
g288
sg289
g288
sg290
(dp2180
g2164
(dp2181
g2174
(dp2182
g88
g735
sssg2168
(dp2183
sg2171
(dp2184
sg2174
(dp2185
g2168
(dp2186
g88
g714
ssg2171
(dp2187
g88
g699
ssg2177
(dp2188
g88
g696
sssg2177
(dp2189
ssg484
g2180
sg99
(dp2190
sg486
g288
sg487
g2180
sg488
(dp2191
g2164
(dp2192
sg2168
(dp2193
g2174
g2186
ssg2171
(dp2194
g2174
g2187
ssg2174
(dp2195
g2164
g2182
ssg2177
(dp2196
g2174
g2188
sssbsg581
(lp2197
g2164
ag2174
ag2168
ag2177
ag2171
asg854
(lp2198
(iconstruction
TP_REL
p2199
(dp2200
g860
g2174
sg88
g735
sg586
I78
sg861
g2164
sg69
VIS_78
p2201
sba(iconstruction
TP_REL
p2202
(dp2203
g860
g2168
sg88
g714
sg586
I79
sg861
g2174
sg69
VACT_AGT_79
p2204
sba(iconstruction
TP_REL
p2205
(dp2206
g860
g2177
sg88
g696
sg586
I80
sg861
g2174
sg69
VACT_THEME_80
p2207
sba(iconstruction
TP_REL
p2208
(dp2209
g860
g2171
sg88
g699
sg586
I81
sg861
g2174
sg69
VACT_RCPT_81
p2210
sbasg586
I70
sg69
g1673
sbsg1768
(iconstruction
TP_SYNFORM
p2211
(dp2212
g586
I71
sg1771
(lp2213
(iconstruction
TP_SLOT
p2214
(dp2215
g1775
(lp2216
VNP
p2217
aVN
p2218
asg1778
I0
sg586
I82
sg69
g2155
sba(iconstruction
TP_SLOT
p2219
(dp2220
g1775
(lp2221
VVP
p2222
aVV
p2223
asg1778
I1
sg586
I83
sg69
g2149
sba(iconstruction
TP_SLOT
p2224
(dp2225
g1775
(lp2226
VNP
p2227
aVN
p2228
asg1778
I2
sg586
I84
sg69
g2151
sba(iconstruction
TP_SLOT
p2229
(dp2230
g1775
(lp2231
VNP
p2232
aVN
p2233
asg1778
I3
sg586
I85
sg69
g2153
sbasg69
g1673
sbsg1789
I1
sba(iconstruction
CXN
p2234
(dp2235
g1731
(iconstruction
TP_SYMLINKS
p2236
(dp2237
g1734
(dp2238
VAGT_91
p2239
VS1_98
p2240
sVRCPT_93
p2241
VS5_102
p2242
sVACT_90
p2243
VS2_99
p2244
sVTHEME_92
p2245
VS3_100
p2246
ssg586
I88
sg69
g1673
sbsg1740
VS
p2247
sg1742
I2
sg69
VOBLIQUE_DATIVE
p2248
sg1743
(iconstruction
TP_SEMFRAME
p2249
(dp2250
g99
g0
(g100
g2
Ntp2251
Rp2252
(dp2253
g104
(dp2254
(iconstruction
TP_NODE
p2255
(dp2256
g1752
I00
sg88
g636
sg69
g2243
sg1753
I01
sg1754
I00
sg586
I90
sb(dp2257
g1753
I01
sg88
g636
ss(iconstruction
TP_NODE
p2258
(dp2259
g1752
I00
sg88
g744
sg69
g2239
sg1753
I01
sg1754
I01
sg586
I91
sb(dp2260
g1753
I01
sg88
g744
ss(iconstruction
TP_NODE
p2261
(dp2262
g1752
I01
sg88
g741
sg69
VEVT_89
p2263
sg1753
I01
sg1754
I00
sg586
I89
sb(dp2264
g1753
I01
sg88
g741
ss(iconstruction
TP_NODE
p2265
(dp2266
g1752
I00
sg88
g744
sg69
g2241
sg1753
I01
sg1754
I00
sg586
I93
sb(dp2267
g1753
I01
sg88
g744
ss(iconstruction
TP_NODE
p2268
(dp2269
g1752
I00
sg88
g744
sg69
g2245
sg1753
I01
sg1754
I00
sg586
I92
sb(dp2270
g1753
I01
sg88
g744
sssg287
g288
sg289
g288
sg290
(dp2271
g2255
(dp2272
g2268
(dp2273
g88
g696
ssg2265
(dp2274
g88
g699
ssg2258
(dp2275
g88
g714
sssg2258
(dp2276
sg2261
(dp2277
g2255
(dp2278
g88
g735
sssg2265
(dp2279
sg2268
(dp2280
ssg484
g2271
sg99
(dp2281
sg486
g288
sg487
g2271
sg488
(dp2282
g2255
(dp2283
g2261
g2278
ssg2258
(dp2284
g2255
g2275
ssg2261
(dp2285
sg2265
(dp2286
g2255
g2274
ssg2268
(dp2287
g2255
g2273
sssbsg581
(lp2288
g2261
ag2255
ag2258
ag2268
ag2265
asg854
(lp2289
(iconstruction
TP_REL
p2290
(dp2291
g860
g2255
sg88
g735
sg586
I94
sg861
g2261
sg69
VIS_94
p2292
sba(iconstruction
TP_REL
p2293
(dp2294
g860
g2258
sg88
g714
sg586
I95
sg861
g2255
sg69
VACT_AGT_95
p2295
sba(iconstruction
TP_REL
p2296
(dp2297
g860
g2268
sg88
g696
sg586
I96
sg861
g2255
sg69
VACT_THEME_96
p2298
sba(iconstruction
TP_REL
p2299
(dp2300
g860
g2265
sg88
g699
sg586
I97
sg861
g2255
sg69
VACT_RCPT_97
p2301
sbasg586
I86
sg69
g1673
sbsg1768
(iconstruction
TP_SYNFORM
p2302
(dp2303
g586
I87
sg1771
(lp2304
(iconstruction
TP_SLOT
p2305
(dp2306
g1775
(lp2307
VNP
p2308
aVN
p2309
asg1778
I0
sg586
I98
sg69
g2240
sba(iconstruction
TP_SLOT
p2310
(dp2311
g1775
(lp2312
VVP
p2313
aVV
p2314
asg1778
I1
sg586
I99
sg69
g2244
sba(iconstruction
TP_SLOT
p2315
(dp2316
g1775
(lp2317
VNP
p2318
aVN
p2319
asg1778
I2
sg586
I100
sg69
g2246
sba(iconstruction
TP_PHON
p2320
(dp2321
g1781
I2
sg1778
I3
sg586
I101
sg1782
Vto
p2322
sg69
VS4_101
p2323
sba(iconstruction
TP_SLOT
p2324
(dp2325
g1775
(lp2326
VNP
p2327
aVN
p2328
asg1778
I4
sg586
I102
sg69
g2242
sbasg69
g1673
sbsg1789
I1
sba(iconstruction
CXN
p2329
(dp2330
g1731
(iconstruction
TP_SYMLINKS
p2331
(dp2332
g1734
(dp2333
VATTR_108
p2334
VS3_113
p2335
sVENT_107
p2336
VS1_111
p2337
ssg586
I105
sg69
g1673
sbsg1740
VS
p2338
sg1742
I2
sg69
VSPA
p2339
sg1743
(iconstruction
TP_SEMFRAME
p2340
(dp2341
g99
g0
(g100
g2
Ntp2342
Rp2343
(dp2344
g104
(dp2345
(iconstruction
TP_NODE
p2346
(dp2347
g1752
I01
sg88
g741
sg69
VEVT_106
p2348
sg1753
I01
sg1754
I00
sg586
I106
sb(dp2349
g1753
I01
sg88
g741
ss(iconstruction
TP_NODE
p2350
(dp2351
g1752
I00
sg88
g645
sg69
g2334
sg1753
I00
sg1754
I00
sg586
I108
sb(dp2352
g1753
I00
sg88
g645
ss(iconstruction
TP_NODE
p2353
(dp2354
g1752
I00
sg88
g744
sg69
g2336
sg1753
I01
sg1754
I01
sg586
I107
sb(dp2355
g1753
I01
sg88
g744
sssg287
g288
sg289
g288
sg290
(dp2356
g2346
(dp2357
g2350
(dp2358
g88
g693
ssg2353
(dp2359
g88
g735
sssg2350
(dp2360
sg2353
(dp2361
ssg484
g2356
sg99
(dp2362
sg486
g288
sg487
g2356
sg488
(dp2363
g2346
(dp2364
sg2350
(dp2365
g2346
g2358
ssg2353
(dp2366
g2346
g2359
sssbsg581
(lp2367
g2346
ag2353
ag2350
asg854
(lp2368
(iconstruction
TP_REL
p2369
(dp2370
g860
g2353
sg88
g735
sg586
I109
sg861
g2346
sg69
VIS_109
p2371
sba(iconstruction
TP_REL
p2372
(dp2373
g860
g2350
sg88
g693
sg586
I110
sg861
g2346
sg69
VEVT_ATTR_110
p2374
sbasg586
I103
sg69
g1673
sbsg1768
(iconstruction
TP_SYNFORM
p2375
(dp2376
g586
I104
sg1771
(lp2377
(iconstruction
TP_SLOT
p2378
(dp2379
g1775
(lp2380
VNP
p2381
aVN
p2382
asg1778
I0
sg586
I111
sg69
g2337
sba(iconstruction
TP_PHON
p2383
(dp2384
g1781
I2
sg1778
I1
sg586
I112
sg1782
Vis
p2385
sg69
VS2_112
p2386
sba(iconstruction
TP_SLOT
p2387
(dp2388
g1775
(lp2389
VA
p2390
asg1778
I2
sg586
I113
sg69
g2335
sbasg69
g1673
sbsg1789
I1
sba(iconstruction
CXN
p2391
(dp2392
g1731
(iconstruction
TP_SYMLINKS
p2393
(dp2394
g1734
(dp2395
VAGT_119
p2396
VS1_122
p2397
sVACT_118
p2398
VS2_123
p2399
ssg586
I116
sg69
g1673
sbsg1740
VS
p2400
sg1742
I2
sg69
VSV
p2401
sg1743
(iconstruction
TP_SEMFRAME
p2402
(dp2403
g99
g0
(g100
g2
Ntp2404
Rp2405
(dp2406
g104
(dp2407
(iconstruction
TP_NODE
p2408
(dp2409
g1752
I00
sg88
g600
sg69
g2398
sg1753
I01
sg1754
I00
sg586
I118
sb(dp2410
g1753
I01
sg88
g600
ss(iconstruction
TP_NODE
p2411
(dp2412
g1752
I00
sg88
g744
sg69
g2396
sg1753
I01
sg1754
I01
sg586
I119
sb(dp2413
g1753
I01
sg88
g744
ss(iconstruction
TP_NODE
p2414
(dp2415
g1752
I01
sg88
g741
sg69
VEVT_117
p2416
sg1753
I01
sg1754
I00
sg586
I117
sb(dp2417
g1753
I01
sg88
g741
sssg287
g288
sg289
g288
sg290
(dp2418
g2408
(dp2419
g2411
(dp2420
g88
g714
sssg2411
(dp2421
sg2414
(dp2422
g2408
(dp2423
g88
g735
ssssg484
g2418
sg99
(dp2424
sg486
g288
sg487
g2418
sg488
(dp2425
g2408
(dp2426
g2414
g2423
ssg2411
(dp2427
g2408
g2420
ssg2414
(dp2428
ssbsg581
(lp2429
g2414
ag2408
ag2411
asg854
(lp2430
(iconstruction
TP_REL
p2431
(dp2432
g860
g2408
sg88
g735
sg586
I120
sg861
g2414
sg69
VIS_120
p2433
sba(iconstruction
TP_REL
p2434
(dp2435
g860
g2411
sg88
g714
sg586
I121
sg861
g2408
sg69
VACT_AGT_121
p2436
sbasg586
I114
sg69
g1673
sbsg1768
(iconstruction
TP_SYNFORM
p2437
(dp2438
g586
I115
sg1771
(lp2439
(iconstruction
TP_SLOT
p2440
(dp2441
g1775
(lp2442
VNP
p2443
aVN
p2444
asg1778
I0
sg586
I122
sg69
g2397
sba(iconstruction
TP_SLOT
p2445
(dp2446
g1775
(lp2447
VVP
p2448
aVV
p2449
asg1778
I1
sg586
I123
sg69
g2399
sbasg69
g1673
sbsg1789
I1
sba(iconstruction
CXN
p2450
(dp2451
g1731
(iconstruction
TP_SYMLINKS
p2452
(dp2453
g1734
(dp2454
VEVT_127
p2455
VS1_130
p2456
sVPLACE_128
p2457
VS3_132
p2458
ssg586
I126
sg69
g1673
sbsg1740
VS
p2459
sg1742
I2
sg69
VPP_IN
p2460
sg1743
(iconstruction
TP_SEMFRAME
p2461
(dp2462
g99
g0
(g100
g2
Ntp2463
Rp2464
(dp2465
g104
(dp2466
(iconstruction
TP_NODE
p2467
(dp2468
g1752
I00
sg88
g744
sg69
g2457
sg1753
I01
sg1754
I00
sg586
I128
sb(dp2469
g1753
I01
sg88
g744
ss(iconstruction
TP_NODE
p2470
(dp2471
g1752
I01
sg88
g741
sg69
g2455
sg1753
I01
sg1754
I00
sg586
I127
sb(dp2472
g1753
I01
sg88
g741
sssg287
g288
sg289
g288
sg290
(dp2473
g2467
(dp2474
sg2470
(dp2475
g2467
(dp2476
g88
g732
ssssg484
g2473
sg99
(dp2477
sg486
g288
sg487
g2473
sg488
(dp2478
g2467
(dp2479
g2470
g2476
ssg2470
(dp2480
ssbsg581
(lp2481
g2470
ag2467
asg854
(lp2482
(iconstruction
TP_REL
p2483
(dp2484
g860
g2467
sg88
g732
sg586
I129
sg861
g2470
sg69
VEVT_PP_129
p2485
sbasg586
I124
sg69
g1673
sbsg1768
(iconstruction
TP_SYNFORM
p2486
(dp2487
g586
I125
sg1771
(lp2488
(iconstruction
TP_SLOT
p2489
(dp2490
g1775
(lp2491
VS
p2492
asg1778
I0
sg586
I130
sg69
g2456
sba(iconstruction
TP_PHON
p2493
(dp2494
g1781
I2
sg1778
I1
sg586
I131
sg1782
Vin
p2495
sg69
VS2_131
p2496
sba(iconstruction
TP_SLOT
p2497
(dp2498
g1775
(lp2499
VNP
p2500
aVN
p2501
asg1778
I2
sg586
I132
sg69
g2458
sbasg69
g1673
sbsg1789
I1
sba(iconstruction
CXN
p2502
(dp2503
g1731
(iconstruction
TP_SYMLINKS
p2504
(dp2505
g1734
(dp2506
VEVT2_137
p2507
VS2_140
p2508
sVEVT1_136
p2509
VS1_139
p2510
ssg586
I135
sg69
g1673
sbsg1740
VS
p2511
sg1742
I2
sg69
VS_PP
p2512
sg1743
(iconstruction
TP_SEMFRAME
p2513
(dp2514
g99
g0
(g100
g2
Ntp2515
Rp2516
(dp2517
g104
(dp2518
(iconstruction
TP_NODE
p2519
(dp2520
g1752
I00
sg88
g741
sg69
g2507
sg1753
I01
sg1754
I00
sg586
I137
sb(dp2521
g1753
I01
sg88
g741
ss(iconstruction
TP_NODE
p2522
(dp2523
g1752
I01
sg88
g741
sg69
g2509
sg1753
I01
sg1754
I01
sg586
I136
sb(dp2524
g1753
I01
sg88
g741
sssg287
g288
sg289
g288
sg290
(dp2525
g2519
(dp2526
sg2522
(dp2527
g2519
(dp2528
g88
g693
ssssg484
g2525
sg99
(dp2529
sg486
g288
sg487
g2525
sg488
(dp2530
g2519
(dp2531
g2522
g2528
ssg2522
(dp2532
ssbsg581
(lp2533
g2522
ag2519
asg854
(lp2534
(iconstruction
TP_REL
p2535
(dp2536
g860
g2519
sg88
g693
sg586
I138
sg861
g2522
sg69
VMOD_138
p2537
sbasg586
I133
sg69
g1673
sbsg1768
(iconstruction
TP_SYNFORM
p2538
(dp2539
g586
I134
sg1771
(lp2540
(iconstruction
TP_SLOT
p2541
(dp2542
g1775
(lp2543
VS
p2544
asg1778
I0
sg586
I139
sg69
g2510
sba(iconstruction
TP_SLOT
p2545
(dp2546
g1775
(lp2547
VPP
p2548
asg1778
I1
sg586
I140
sg69
g2508
sbasg69
g1673
sbsg1789
I1
sba(iconstruction
CXN
p2549
(dp2550
g1731
(iconstruction
TP_SYMLINKS
p2551
(dp2552
g1734
(dp2553
VENT_144
p2554
VS2_148
p2555
sVATTR_145
p2556
VS1_147
p2557
ssg586
I143
sg69
g1673
sbsg1740
VN
p2558
sg1742
I2
sg69
VADJUNCT_N
p2559
sg1743
(iconstruction
TP_SEMFRAME
p2560
(dp2561
g99
g0
(g100
g2
Ntp2562
Rp2563
(dp2564
g104
(dp2565
(iconstruction
TP_NODE
p2566
(dp2567
g1752
I00
sg88
g645
sg69
g2556
sg1753
I00
sg1754
I00
sg586
I145
sb(dp2568
g1753
I00
sg88
g645
ss(iconstruction
TP_NODE
p2569
(dp2570
g1752
I01
sg88
g744
sg69
g2554
sg1753
I01
sg1754
I00
sg586
I144
sb(dp2571
g1753
I01
sg88
g744
sssg287
g288
sg289
g288
sg290
(dp2572
g2566
(dp2573
sg2569
(dp2574
g2566
(dp2575
g88
g693
ssssg484
g2572
sg99
(dp2576
sg486
g288
sg487
g2572
sg488
(dp2577
g2566
(dp2578
g2569
g2575
ssg2569
(dp2579
ssbsg581
(lp2580
g2569
ag2566
asg854
(lp2581
(iconstruction
TP_REL
p2582
(dp2583
g860
g2566
sg88
g693
sg586
I146
sg861
g2569
sg69
VENT_ATTR_146
p2584
sbasg586
I141
sg69
g1673
sbsg1768
(iconstruction
TP_SYNFORM
p2585
(dp2586
g586
I142
sg1771
(lp2587
(iconstruction
TP_SLOT
p2588
(dp2589
g1775
(lp2590
VA
p2591
asg1778
I0
sg586
I147
sg69
g2557
sba(iconstruction
TP_SLOT
p2592
(dp2593
g1775
(lp2594
VN
p2595
asg1778
I1
sg586
I148
sg69
g2555
sbasg69
g1673
sbsg1789
I1
sba(iconstruction
CXN
p2596
(dp2597
g1731
(iconstruction
TP_SYMLINKS
p2598
(dp2599
g1734
(dp2600
VAGT_154
p2601
VS1_160
p2602
sVACT_153
p2603
VS3_162
p2604
sVPT_155
p2605
VS4_163
p2606
ssg586
I151
sg69
g1673
sbsg1740
VN
p2607
sg1742
I2
sg69
VSUBJ_REL_SVO
p2608
sg1743
(iconstruction
TP_SEMFRAME
p2609
(dp2610
g99
g0
(g100
g2
Ntp2611
Rp2612
(dp2613
g104
(dp2614
(iconstruction
TP_NODE
p2615
(dp2616
g1752
I00
sg88
g606
sg69
g2603
sg1753
I01
sg1754
I01
sg586
I153
sb(dp2617
g1753
I01
sg88
g606
ss(iconstruction
TP_NODE
p2618
(dp2619
g1752
I01
sg88
g744
sg69
g2601
sg1753
I01
sg1754
I00
sg586
I154
sb(dp2620
g1753
I01
sg88
g744
ss(iconstruction
TP_NODE
p2621
(dp2622
g1752
I00
sg88
g744
sg69
g2605
sg1753
I01
sg1754
I00
sg586
I155
sb(dp2623
g1753
I01
sg88
g744
ss(iconstruction
TP_NODE
p2624
(dp2625
g1752
I00
sg88
g741
sg69
VEVT_152
p2626
sg1753
I01
sg1754
I00
sg586
I152
sb(dp2627
g1753
I01
sg88
g741
sssg287
g288
sg289
g288
sg290
(dp2628
g2615
(dp2629
g2621
(dp2630
g88
g708
ssg2618
(dp2631
g88
g714
sssg2618
(dp2632
g2624
(dp2633
g88
g693
sssg2621
(dp2634
sg2624
(dp2635
g2615
(dp2636
g88
g735
ssssg484
g2628
sg99
(dp2637
sg486
g288
sg487
g2628
sg488
(dp2638
g2615
(dp2639
g2624
g2636
ssg2618
(dp2640
g2615
g2631
ssg2621
(dp2641
g2615
g2630
ssg2624
(dp2642
g2618
g2633
sssbsg581
(lp2643
g2624
ag2615
ag2618
ag2621
asg854
(lp2644
(iconstruction
TP_REL
p2645
(dp2646
g860
g2615
sg88
g735
sg586
I156
sg861
g2624
sg69
VIS_156
p2647
sba(iconstruction
TP_REL
p2648
(dp2649
g860
g2618
sg88
g714
sg586
I157
sg861
g2615
sg69
VACT_AGT_157
p2650
sba(iconstruction
TP_REL
p2651
(dp2652
g860
g2621
sg88
g708
sg586
I158
sg861
g2615
sg69
VACT_PT_158
p2653
sba(iconstruction
TP_REL
p2654
(dp2655
g860
g2624
sg88
g693
sg586
I159
sg861
g2618
sg69
VAGT_EVT_159
p2656
sbasg586
I149
sg69
g1673
sbsg1768
(iconstruction
TP_SYNFORM
p2657
(dp2658
g586
I150
sg1771
(lp2659
(iconstruction
TP_SLOT
p2660
(dp2661
g1775
(lp2662
VN
p2663
asg1778
I0
sg586
I160
sg69
g2602
sba(iconstruction
TP_PHON
p2664
(dp2665
g1781
I4
sg1778
I1
sg586
I161
sg1782
Vthat
p2666
sg69
VS2_161
p2667
sba(iconstruction
TP_SLOT
p2668
(dp2669
g1775
(lp2670
VVP
p2671
aVV
p2672
asg1778
I2
sg586
I162
sg69
g2604
sba(iconstruction
TP_SLOT
p2673
(dp2674
g1775
(lp2675
VNP
p2676
aVN
p2677
asg1778
I3
sg586
I163
sg69
g2606
sbasg69
g1673
sbsg1789
I1
sba(iconstruction
CXN
p2678
(dp2679
g1731
(iconstruction
TP_SYMLINKS
p2680
(dp2681
g1734
(dp2682
VAGT_169
p2683
VS1_173
p2684
sVACT_168
p2685
VS3_175
p2686
ssg586
I166
sg69
g1673
sbsg1740
VN
p2687
sg1742
I2
sg69
VSUBJ_REL_SV
p2688
sg1743
(iconstruction
TP_SEMFRAME
p2689
(dp2690
g99
g0
(g100
g2
Ntp2691
Rp2692
(dp2693
g104
(dp2694
(iconstruction
TP_NODE
p2695
(dp2696
g1752
I00
sg88
g741
sg69
VEVT_167
p2697
sg1753
I01
sg1754
I00
sg586
I167
sb(dp2698
g1753
I01
sg88
g741
ss(iconstruction
TP_NODE
p2699
(dp2700
g1752
I01
sg88
g744
sg69
g2683
sg1753
I01
sg1754
I00
sg586
I169
sb(dp2701
g1753
I01
sg88
g744
ss(iconstruction
TP_NODE
p2702
(dp2703
g1752
I00
sg88
g588
sg69
g2685
sg1753
I01
sg1754
I01
sg586
I168
sb(dp2704
g1753
I01
sg88
g588
sssg287
g288
sg289
g288
sg290
(dp2705
g2695
(dp2706
g2702
(dp2707
g88
g735
sssg2699
(dp2708
g2695
(dp2709
g88
g693
sssg2702
(dp2710
g2699
(dp2711
g88
g714
ssssg484
g2705
sg99
(dp2712
sg486
g288
sg487
g2705
sg488
(dp2713
g2695
(dp2714
g2699
g2709
ssg2699
(dp2715
g2702
g2711
ssg2702
(dp2716
g2695
g2707
sssbsg581
(lp2717
g2695
ag2702
ag2699
asg854
(lp2718
(iconstruction
TP_REL
p2719
(dp2720
g860
g2702
sg88
g735
sg586
I170
sg861
g2695
sg69
VIS_170
p2721
sba(iconstruction
TP_REL
p2722
(dp2723
g860
g2699
sg88
g714
sg586
I171
sg861
g2702
sg69
VACT_AGT_171
p2724
sba(iconstruction
TP_REL
p2725
(dp2726
g860
g2695
sg88
g693
sg586
I172
sg861
g2699
sg69
VAGT_EVT_172
p2727
sbasg586
I164
sg69
g1673
sbsg1768
(iconstruction
TP_SYNFORM
p2728
(dp2729
g586
I165
sg1771
(lp2730
(iconstruction
TP_SLOT
p2731
(dp2732
g1775
(lp2733
VN
p2734
asg1778
I0
sg586
I173
sg69
g2684
sba(iconstruction
TP_PHON
p2735
(dp2736
g1781
I4
sg1778
I1
sg586
I174
sg1782
Vthat
p2737
sg69
VS2_174
p2738
sba(iconstruction
TP_SLOT
p2739
(dp2740
g1775
(lp2741
VVP
p2742
aVV
p2743
asg1778
I2
sg586
I175
sg69
g2686
sbasg69
g1673
sbsg1789
I1
sba(iconstruction
CXN
p2744
(dp2745
g1731
(iconstruction
TP_SYMLINKS
p2746
(dp2747
g1734
(dp2748
VAGT_181
p2749
VS7_193
p2750
sVPT_182
p2751
VS1_187
p2752
sVACT_180
p2753
VS4_190
p2754
ssg586
I178
sg69
g1673
sbsg1740
VN
p2755
sg1742
I2
sg69
VSUBJ_REL_PAS_SVO
p2756
sg1743
(iconstruction
TP_SEMFRAME
p2757
(dp2758
g99
g0
(g100
g2
Ntp2759
Rp2760
(dp2761
g104
(dp2762
(iconstruction
TP_NODE
p2763
(dp2764
g1752
I00
sg88
g588
sg69
g2753
sg1753
I01
sg1754
I01
sg586
I180
sb(dp2765
g1753
I01
sg88
g588
ss(iconstruction
TP_NODE
p2766
(dp2767
g1752
I00
sg88
g744
sg69
g2749
sg1753
I01
sg1754
I00
sg586
I181
sb(dp2768
g1753
I01
sg88
g744
ss(iconstruction
TP_NODE
p2769
(dp2770
g1752
I00
sg88
g741
sg69
VEVT_179
p2771
sg1753
I01
sg1754
I00
sg586
I179
sb(dp2772
g1753
I01
sg88
g741
ss(iconstruction
TP_NODE
p2773
(dp2774
g1752
I01
sg88
g744
sg69
g2751
sg1753
I01
sg1754
I00
sg586
I182
sb(dp2775
g1753
I01
sg88
g744
sssg287
g288
sg289
g288
sg290
(dp2776
g2763
(dp2777
g2773
(dp2778
g88
g708
ssg2766
(dp2779
g88
g714
sssg2766
(dp2780
sg2769
(dp2781
g2763
(dp2782
g88
g735
sssg2773
(dp2783
g2769
(dp2784
g88
g693
ssssg484
g2776
sg99
(dp2785
sg486
g288
sg487
g2776
sg488
(dp2786
g2763
(dp2787
g2769
g2782
ssg2766
(dp2788
g2763
g2779
ssg2769
(dp2789
g2773
g2784
ssg2773
(dp2790
g2763
g2778
sssbsg581
(lp2791
g2769
ag2763
ag2766
ag2773
asg854
(lp2792
(iconstruction
TP_REL
p2793
(dp2794
g860
g2763
sg88
g735
sg586
I183
sg861
g2769
sg69
VIS_183
p2795
sba(iconstruction
TP_REL
p2796
(dp2797
g860
g2766
sg88
g714
sg586
I184
sg861
g2763
sg69
VACT_AGT_184
p2798
sba(iconstruction
TP_REL
p2799
(dp2800
g860
g2773
sg88
g708
sg586
I185
sg861
g2763
sg69
VACT_PT_185
p2801
sba(iconstruction
TP_REL
p2802
(dp2803
g860
g2769
sg88
g693
sg586
I186
sg861
g2773
sg69
VPT_EVT_186
p2804
sbasg586
I176
sg69
g1673
sbsg1768
(iconstruction
TP_SYNFORM
p2805
(dp2806
g586
I177
sg1771
(lp2807
(iconstruction
TP_SLOT
p2808
(dp2809
g1775
(lp2810
VN
p2811
asg1778
I0
sg586
I187
sg69
g2752
sba(iconstruction
TP_PHON
p2812
(dp2813
g1781
I4
sg1778
I1
sg586
I188
sg1782
Vthat
p2814
sg69
VS2_188
p2815
sba(iconstruction
TP_PHON
p2816
(dp2817
g1781
I2
sg1778
I2
sg586
I189
sg1782
Vis
p2818
sg69
VS3_189
p2819
sba(iconstruction
TP_SLOT
p2820
(dp2821
g1775
(lp2822
VVP
p2823
aVV
p2824
asg1778
I3
sg586
I190
sg69
g2754
sba(iconstruction
TP_PHON
p2825
(dp2826
g1781
I2
sg1778
I4
sg586
I191
sg1782
V-ed
p2827
sg69
VS5_191
p2828
sba(iconstruction
TP_PHON
p2829
(dp2830
g1781
I2
sg1778
I5
sg586
I192
sg1782
Vby
p2831
sg69
VS6_192
p2832
sba(iconstruction
TP_SLOT
p2833
(dp2834
g1775
(lp2835
VNP
p2836
aVN
p2837
asg1778
I6
sg586
I193
sg69
g2750
sbasg69
g1673
sbsg1789
I1
sba(iconstruction
CXN
p2838
(dp2839
g1731
(iconstruction
TP_SYMLINKS
p2840
(dp2841
g1734
(dp2842
VAGT_199
p2843
VS3_207
p2844
sVACT_198
p2845
VS4_208
p2846
sVPT_200
p2847
VS1_205
p2848
ssg586
I196
sg69
g1673
sbsg1740
VN
p2849
sg1742
I2
sg69
VOBJ_REL_SVO
p2850
sg1743
(iconstruction
TP_SEMFRAME
p2851
(dp2852
g99
g0
(g100
g2
Ntp2853
Rp2854
(dp2855
g104
(dp2856
(iconstruction
TP_NODE
p2857
(dp2858
g1752
I00
sg88
g588
sg69
g2845
sg1753
I01
sg1754
I01
sg586
I198
sb(dp2859
g1753
I01
sg88
g588
ss(iconstruction
TP_NODE
p2860
(dp2861
g1752
I00
sg88
g744
sg69
g2843
sg1753
I01
sg1754
I00
sg586
I199
sb(dp2862
g1753
I01
sg88
g744
ss(iconstruction
TP_NODE
p2863
(dp2864
g1752
I01
sg88
g744
sg69
g2847
sg1753
I01
sg1754
I00
sg586
I200
sb(dp2865
g1753
I01
sg88
g744
ss(iconstruction
TP_NODE
p2866
(dp2867
g1752
I00
sg88
g741
sg69
VEVT_197
p2868
sg1753
I01
sg1754
I00
sg586
I197
sb(dp2869
g1753
I01
sg88
g741
sssg287
g288
sg289
g288
sg290
(dp2870
g2857
(dp2871
g2863
(dp2872
g88
g708
ssg2860
(dp2873
g88
g714
sssg2860
(dp2874
sg2863
(dp2875
g2866
(dp2876
g88
g693
sssg2866
(dp2877
g2857
(dp2878
g88
g735
ssssg484
g2870
sg99
(dp2879
sg486
g288
sg487
g2870
sg488
(dp2880
g2857
(dp2881
g2866
g2878
ssg2860
(dp2882
g2857
g2873
ssg2863
(dp2883
g2857
g2872
ssg2866
(dp2884
g2863
g2876
sssbsg581
(lp2885
g2866
ag2857
ag2860
ag2863
asg854
(lp2886
(iconstruction
TP_REL
p2887
(dp2888
g860
g2857
sg88
g735
sg586
I201
sg861
g2866
sg69
VIS_201
p2889
sba(iconstruction
TP_REL
p2890
(dp2891
g860
g2860
sg88
g714
sg586
I202
sg861
g2857
sg69
VACT_AGT_202
p2892
sba(iconstruction
TP_REL
p2893
(dp2894
g860
g2863
sg88
g708
sg586
I203
sg861
g2857
sg69
VACT_PT_203
p2895
sba(iconstruction
TP_REL
p2896
(dp2897
g860
g2866
sg88
g693
sg586
I204
sg861
g2863
sg69
VPT_EVT_204
p2898
sbasg586
I194
sg69
g1673
sbsg1768
(iconstruction
TP_SYNFORM
p2899
(dp2900
g586
I195
sg1771
(lp2901
(iconstruction
TP_SLOT
p2902
(dp2903
g1775
(lp2904
VN
p2905
asg1778
I0
sg586
I205
sg69
g2848
sba(iconstruction
TP_PHON
p2906
(dp2907
g1781
I4
sg1778
I1
sg586
I206
sg1782
Vthat
p2908
sg69
VS2_206
p2909
sba(iconstruction
TP_SLOT
p2910
(dp2911
g1775
(lp2912
VNP
p2913
aVN
p2914
asg1778
I2
sg586
I207
sg69
g2844
sba(iconstruction
TP_SLOT
p2915
(dp2916
g1775
(lp2917
VVP
p2918
aVV
p2919
asg1778
I3
sg586
I208
sg69
g2846
sbasg69
g1673
sbsg1789
I1
sba(iconstruction
CXN
p2920
(dp2921
g1731
(iconstruction
TP_SYMLINKS
p2922
(dp2923
g1734
(dp2924
VPT_215
p2925
VS3_222
p2926
sVACT_213
p2927
VS5_224
p2928
sVAGT_214
p2929
VS1_220
p2930
ssg586
I211
sg69
g1673
sbsg1740
VN
p2931
sg1742
I2
sg69
VOBJ_REL_PAS_SVO
p2932
sg1743
(iconstruction
TP_SEMFRAME
p2933
(dp2934
g99
g0
(g100
g2
Ntp2935
Rp2936
(dp2937
g104
(dp2938
(iconstruction
TP_NODE
p2939
(dp2940
g1752
I00
sg88
g741
sg69
VEVT_212
p2941
sg1753
I01
sg1754
I00
sg586
I212
sb(dp2942
g1753
I01
sg88
g741
ss(iconstruction
TP_NODE
p2943
(dp2944
g1752
I01
sg88
g744
sg69
g2929
sg1753
I01
sg1754
I00
sg586
I214
sb(dp2945
g1753
I01
sg88
g744
ss(iconstruction
TP_NODE
p2946
(dp2947
g1752
I00
sg88
g744
sg69
g2925
sg1753
I01
sg1754
I00
sg586
I215
sb(dp2948
g1753
I01
sg88
g744
ss(iconstruction
TP_NODE
p2949
(dp2950
g1752
I00
sg88
g588
sg69
g2927
sg1753
I01
sg1754
I01
sg586
I213
sb(dp2951
g1753
I01
sg88
g588
sssg287
g288
sg289
g288
sg290
(dp2952
g2939
(dp2953
g2949
(dp2954
g88
g735
sssg2943
(dp2955
g2939
(dp2956
g88
g693
sssg2946
(dp2957
sg2949
(dp2958
g2943
(dp2959
g88
g714
ssg2946
(dp2960
g88
g708
ssssg484
g2952
sg99
(dp2961
sg486
g288
sg487
g2952
sg488
(dp2962
g2939
(dp2963
g2943
g2956
ssg2943
(dp2964
g2949
g2959
ssg2946
(dp2965
g2949
g2960
ssg2949
(dp2966
g2939
g2954
sssbsg581
(lp2967
g2939
ag2949
ag2943
ag2946
asg854
(lp2968
(iconstruction
TP_REL
p2969
(dp2970
g860
g2949
sg88
g735
sg586
I216
sg861
g2939
sg69
VIS_216
p2971
sba(iconstruction
TP_REL
p2972
(dp2973
g860
g2943
sg88
g714
sg586
I217
sg861
g2949
sg69
VACT_AGT_217
p2974
sba(iconstruction
TP_REL
p2975
(dp2976
g860
g2946
sg88
g708
sg586
I218
sg861
g2949
sg69
VACT_PT_218
p2977
sba(iconstruction
TP_REL
p2978
(dp2979
g860
g2939
sg88
g693
sg586
I219
sg861
g2943
sg69
VAGT_EVT_219
p2980
sbasg586
I209
sg69
g1673
sbsg1768
(iconstruction
TP_SYNFORM
p2981
(dp2982
g586
I210
sg1771
(lp2983
(iconstruction
TP_SLOT
p2984
(dp2985
g1775
(lp2986
VN
p2987
asg1778
I0
sg586
I220
sg69
g2930
sba(iconstruction
TP_PHON
p2988
(dp2989
g1781
I4
sg1778
I1
sg586
I221
sg1782
Vthat
p2990
sg69
VS2_221
p2991
sba(iconstruction
TP_SLOT
p2992
(dp2993
g1775
(lp2994
VNP
p2995
aVN
p2996
asg1778
I2
sg586
I222
sg69
g2926
sba(iconstruction
TP_PHON
p2997
(dp2998
g1781
I2
sg1778
I3
sg586
I223
sg1782
Vis
p2999
sg69
VS4_223
p3000
sba(iconstruction
TP_SLOT
p3001
(dp3002
g1775
(lp3003
VVP
p3004
aVV
p3005
asg1778
I4
sg586
I224
sg69
g2928
sba(iconstruction
TP_PHON
p3006
(dp3007
g1781
I2
sg1778
I5
sg586
I225
sg1782
V-ed
p3008
sg69
VS6_225
p3009
sba(iconstruction
TP_PHON
p3010
(dp3011
g1781
I2
sg1778
I6
sg586
I226
sg1782
Vby
p3012
sg69
VS7_226
p3013
sbasg69
g1673
sbsg1789
I1
sba(iconstruction
CXN
p3014
(dp3015
g1731
(iconstruction
TP_SYMLINKS
p3016
(dp3017
g1734
(dp3018
VATTR_232
p3019
VS4_238
p3020
sVENT_231
p3021
VS1_235
p3022
ssg586
I229
sg69
g1673
sbsg1740
VN
p3023
sg1742
I2
sg69
VREL_SPA
p3024
sg1743
(iconstruction
TP_SEMFRAME
p3025
(dp3026
g99
g0
(g100
g2
Ntp3027
Rp3028
(dp3029
g104
(dp3030
(iconstruction
TP_NODE
p3031
(dp3032
g1752
I01
sg88
g744
sg69
g3021
sg1753
I01
sg1754
I01
sg586
I231
sb(dp3033
g1753
I01
sg88
g744
ss(iconstruction
TP_NODE
p3034
(dp3035
g1752
I00
sg88
g645
sg69
g3019
sg1753
I00
sg1754
I00
sg586
I232
sb(dp3036
g1753
I00
sg88
g645
ss(iconstruction
TP_NODE
p3037
(dp3038
g1752
I00
sg88
g741
sg69
VEVT_230
p3039
sg1753
I01
sg1754
I00
sg586
I230
sb(dp3040
g1753
I01
sg88
g741
sssg287
g288
sg289
g288
sg290
(dp3041
g3031
(dp3042
sg3034
(dp3043
sg3037
(dp3044
g3031
(dp3045
g88
g735
ssg3034
(dp3046
g88
g693
ssssg484
g3041
sg99
(dp3047
sg486
g288
sg487
g3041
sg488
(dp3048
g3031
(dp3049
g3037
g3045
ssg3034
(dp3050
g3037
g3046
ssg3037
(dp3051
ssbsg581
(lp3052
g3037
ag3031
ag3034
asg854
(lp3053
(iconstruction
TP_REL
p3054
(dp3055
g860
g3031
sg88
g735
sg586
I233
sg861
g3037
sg69
VIS_233
p3056
sba(iconstruction
TP_REL
p3057
(dp3058
g860
g3034
sg88
g693
sg586
I234
sg861
g3037
sg69
VEVT_ATTR_234
p3059
sbasg586
I227
sg69
g1673
sbsg1768
(iconstruction
TP_SYNFORM
p3060
(dp3061
g586
I228
sg1771
(lp3062
(iconstruction
TP_SLOT
p3063
(dp3064
g1775
(lp3065
VN
p3066
asg1778
I0
sg586
I235
sg69
g3022
sba(iconstruction
TP_PHON
p3067
(dp3068
g1781
I4
sg1778
I1
sg586
I236
sg1782
Vthat
p3069
sg69
VS2_236
p3070
sba(iconstruction
TP_PHON
p3071
(dp3072
g1781
I2
sg1778
I2
sg586
I237
sg1782
Vis
p3073
sg69
VS3_237
p3074
sba(iconstruction
TP_SLOT
p3075
(dp3076
g1775
(lp3077
VA
p3078
asg1778
I3
sg586
I238
sg69
g3020
sbasg69
g1673
sbsg1789
I1
sba(iconstruction
CXN
p3079
(dp3080
g1731
(iconstruction
TP_SYMLINKS
p3081
(dp3082
g1734
(dp3083
VAGT_244
p3084
VS1_251
p3085
sVCOLOR_246
p3086
VS3_253
p3087
ssg586
I241
sg69
g1673
sbsg1740
VN
p3088
sg1742
I2
sg69
VIN_COLOR
p3089
sg1743
(iconstruction
TP_SEMFRAME
p3090
(dp3091
g99
g0
(g100
g2
Ntp3092
Rp3093
(dp3094
g104
(dp3095
(iconstruction
TP_NODE
p3096
(dp3097
g1752
I00
sg88
g633
sg69
VACT_243
p3098
sg1753
I01
sg1754
I00
sg586
I243
sb(dp3099
g1753
I01
sg88
g633
ss(iconstruction
TP_NODE
p3100
(dp3101
g1752
I01
sg88
g753
sg69
g3084
sg1753
I01
sg1754
I00
sg586
I244
sb(dp3102
g1753
I01
sg88
g753
ss(iconstruction
TP_NODE
p3103
(dp3104
g1752
I00
sg88
g783
sg69
VPT_245
p3105
sg1753
I01
sg1754
I00
sg586
I245
sb(dp3106
g1753
I01
sg88
g783
ss(iconstruction
TP_NODE
p3107
(dp3108
g1752
I00
sg88
g741
sg69
VEVT_242
p3109
sg1753
I01
sg1754
I00
sg586
I242
sb(dp3110
g1753
I01
sg88
g741
ss(iconstruction
TP_NODE
p3111
(dp3112
g1752
I00
sg88
g648
sg69
g3086
sg1753
I00
sg1754
I01
sg586
I246
sb(dp3113
g1753
I00
sg88
g648
sssg287
g288
sg289
g288
sg290
(dp3114
g3096
(dp3115
g3103
(dp3116
g88
g708
ssg3100
(dp3117
g88
g714
sssg3100
(dp3118
sg3103
(dp3119
g3111
(dp3120
g88
g693
sssg3107
(dp3121
g3096
(dp3122
g88
g735
sssg3111
(dp3123
ssg484
g3114
sg99
(dp3124
sg486
g288
sg487
g3114
sg488
(dp3125
g3096
(dp3126
g3107
g3122
ssg3100
(dp3127
g3096
g3117
ssg3103
(dp3128
g3096
g3116
ssg3107
(dp3129
sg3111
(dp3130
g3103
g3120
sssbsg581
(lp3131
g3107
ag3096
ag3100
ag3103
ag3111
asg854
(lp3132
(iconstruction
TP_REL
p3133
(dp3134
g860
g3096
sg88
g735
sg586
I247
sg861
g3107
sg69
VIS_247
p3135
sba(iconstruction
TP_REL
p3136
(dp3137
g860
g3100
sg88
g714
sg586
I248
sg861
g3096
sg69
VACT_AGT_248
p3138
sba(iconstruction
TP_REL
p3139
(dp3140
g860
g3103
sg88
g708
sg586
I249
sg861
g3096
sg69
VACT_PT_249
p3141
sba(iconstruction
TP_REL
p3142
(dp3143
g860
g3111
sg88
g693
sg586
I250
sg861
g3103
sg69
VPT_COLOR_250
p3144
sbasg586
I239
sg69
g1673
sbsg1768
(iconstruction
TP_SYNFORM
p3145
(dp3146
g586
I240
sg1771
(lp3147
(iconstruction
TP_SLOT
p3148
(dp3149
g1775
(lp3150
VN
p3151
asg1778
I0
sg586
I251
sg69
g3085
sba(iconstruction
TP_PHON
p3152
(dp3153
g1781
I2
sg1778
I1
sg586
I252
sg1782
Vin
p3154
sg69
VS2_252
p3155
sba(iconstruction
TP_SLOT
p3156
(dp3157
g1775
(lp3158
VA
p3159
asg1778
I2
sg586
I253
sg69
g3087
sbasg69
g1673
sbsg1789
I1
sba(iconstruction
CXN
p3160
(dp3161
g1731
(iconstruction
TP_SYMLINKS
p3162
(dp3163
g1734
(dp3164
VN1_258
p3165
VS1_260
p3166
ssg586
I256
sg69
g1673
sbsg1740
VV
p3167
sg1742
I1
sg69
VHIT
p3168
sg1743
(iconstruction
TP_SEMFRAME
p3169
(dp3170
g99
g0
(g100
g2
Ntp3171
Rp3172
(dp3173
g104
(dp3174
(iconstruction
TP_NODE
p3175
(dp3176
g1752
I01
sg88
g588
sg69
VACT_257
p3177
sg1753
I01
sg1754
I00
sg586
I257
sb(dp3178
g1753
I01
sg88
g588
ss(iconstruction
TP_NODE
p3179
(dp3180
g1752
I00
sg88
g609
sg69
g3165
sg1753
I00
sg1754
I00
sg586
I258
sb(dp3181
g1753
I00
sg88
g609
sssg287
g288
sg289
g288
sg290
(dp3182
g3175
(dp3183
g3179
(dp3184
g88
g735
sssg3179
(dp3185
ssg484
g3182
sg99
(dp3186
sg486
g288
sg487
g3182
sg488
(dp3187
g3175
(dp3188
sg3179
(dp3189
g3175
g3184
sssbsg581
(lp3190
g3175
ag3179
asg854
(lp3191
(iconstruction
TP_REL
p3192
(dp3193
g860
g3179
sg88
g735
sg586
I259
sg861
g3175
sg69
VIS_259
p3194
sbasg586
I254
sg69
g1673
sbsg1768
(iconstruction
TP_SYNFORM
p3195
(dp3196
g586
I255
sg1771
(lp3197
(iconstruction
TP_PHON
p3198
(dp3199
g1781
I3
sg1778
I0
sg586
I260
sg1782
Vhit
p3200
sg69
g3166
sbasg69
g1673
sbsg1789
I1
sba(iconstruction
CXN
p3201
(dp3202
g1731
(iconstruction
TP_SYMLINKS
p3203
(dp3204
g1734
(dp3205
VN1_265
p3206
VS1_267
p3207
ssg586
I263
sg69
g1673
sbsg1740
VV
p3208
sg1742
I1
sg69
VKICK
p3209
sg1743
(iconstruction
TP_SEMFRAME
p3210
(dp3211
g99
g0
(g100
g2
Ntp3212
Rp3213
(dp3214
g104
(dp3215
(iconstruction
TP_NODE
p3216
(dp3217
g1752
I00
sg88
g630
sg69
g3206
sg1753
I00
sg1754
I00
sg586
I265
sb(dp3218
g1753
I00
sg88
g630
ss(iconstruction
TP_NODE
p3219
(dp3220
g1752
I01
sg88
g588
sg69
VACT_264
p3221
sg1753
I01
sg1754
I00
sg586
I264
sb(dp3222
g1753
I01
sg88
g588
sssg287
g288
sg289
g288
sg290
(dp3223
g3216
(dp3224
sg3219
(dp3225
g3216
(dp3226
g88
g735
ssssg484
g3223
sg99
(dp3227
sg486
g288
sg487
g3223
sg488
(dp3228
g3216
(dp3229
g3219
g3226
ssg3219
(dp3230
ssbsg581
(lp3231
g3219
ag3216
asg854
(lp3232
(iconstruction
TP_REL
p3233
(dp3234
g860
g3216
sg88
g735
sg586
I266
sg861
g3219
sg69
VIS_266
p3235
sbasg586
I261
sg69
g1673
sbsg1768
(iconstruction
TP_SYNFORM
p3236
(dp3237
g586
I262
sg1771
(lp3238
(iconstruction
TP_PHON
p3239
(dp3240
g1781
I4
sg1778
I0
sg586
I267
sg1782
Vkick
p3241
sg69
g3207
sbasg69
g1673
sbsg1789
I1
sba(iconstruction
CXN
p3242
(dp3243
g1731
(iconstruction
TP_SYMLINKS
p3244
(dp3245
g1734
(dp3246
VN1_272
p3247
VS1_274
p3248
ssg586
I270
sg69
g1673
sbsg1740
VV
p3249
sg1742
I1
sg69
VPUNCH
p3250
sg1743
(iconstruction
TP_SEMFRAME
p3251
(dp3252
g99
g0
(g100
g2
Ntp3253
Rp3254
(dp3255
g104
(dp3256
(iconstruction
TP_NODE
p3257
(dp3258
g1752
I01
sg88
g588
sg69
VACT_271
p3259
sg1753
I01
sg1754
I00
sg586
I271
sb(dp3260
g1753
I01
sg88
g588
ss(iconstruction
TP_NODE
p3261
(dp3262
g1752
I00
sg88
g615
sg69
g3247
sg1753
I00
sg1754
I00
sg586
I272
sb(dp3263
g1753
I00
sg88
g615
sssg287
g288
sg289
g288
sg290
(dp3264
g3257
(dp3265
g3261
(dp3266
g88
g735
sssg3261
(dp3267
ssg484
g3264
sg99
(dp3268
sg486
g288
sg487
g3264
sg488
(dp3269
g3257
(dp3270
sg3261
(dp3271
g3257
g3266
sssbsg581
(lp3272
g3257
ag3261
asg854
(lp3273
(iconstruction
TP_REL
p3274
(dp3275
g860
g3261
sg88
g735
sg586
I273
sg861
g3257
sg69
VIS_273
p3276
sbasg586
I268
sg69
g1673
sbsg1768
(iconstruction
TP_SYNFORM
p3277
(dp3278
g586
I269
sg1771
(lp3279
(iconstruction
TP_PHON
p3280
(dp3281
g1781
I5
sg1778
I0
sg586
I274
sg1782
Vpunch
p3282
sg69
g3248
sbasg69
g1673
sbsg1789
I1
sba(iconstruction
CXN
p3283
(dp3284
g1731
(iconstruction
TP_SYMLINKS
p3285
(dp3286
g1734
(dp3287
VN1_279
p3288
VS1_281
p3289
ssg586
I277
sg69
g1673
sbsg1740
VV
p3290
sg1742
I1
sg69
VWEAR
p3291
sg1743
(iconstruction
TP_SEMFRAME
p3292
(dp3293
g99
g0
(g100
g2
Ntp3294
Rp3295
(dp3296
g104
(dp3297
(iconstruction
TP_NODE
p3298
(dp3299
g1752
I01
sg88
g588
sg69
VACT_278
p3300
sg1753
I01
sg1754
I00
sg586
I278
sb(dp3301
g1753
I01
sg88
g588
ss(iconstruction
TP_NODE
p3302
(dp3303
g1752
I00
sg88
g633
sg69
g3288
sg1753
I00
sg1754
I00
sg586
I279
sb(dp3304
g1753
I00
sg88
g633
sssg287
g288
sg289
g288
sg290
(dp3305
g3298
(dp3306
g3302
(dp3307
g88
g735
sssg3302
(dp3308
ssg484
g3305
sg99
(dp3309
sg486
g288
sg487
g3305
sg488
(dp3310
g3298
(dp3311
sg3302
(dp3312
g3298
g3307
sssbsg581
(lp3313
g3298
ag3302
asg854
(lp3314
(iconstruction
TP_REL
p3315
(dp3316
g860
g3302
sg88
g735
sg586
I280
sg861
g3298
sg69
VIS_280
p3317
sbasg586
I275
sg69
g1673
sbsg1768
(iconstruction
TP_SYNFORM
p3318
(dp3319
g586
I276
sg1771
(lp3320
(iconstruction
TP_PHON
p3321
(dp3322
g1781
I4
sg1778
I0
sg586
I281
sg1782
Vwear
p3323
sg69
g3289
sbasg69
g1673
sbsg1789
I1
sba(iconstruction
CXN
p3324
(dp3325
g1731
(iconstruction
TP_SYMLINKS
p3326
(dp3327
g1734
(dp3328
VN1_286
p3329
VS1_288
p3330
ssg586
I284
sg69
g1673
sbsg1740
VV
p3331
sg1742
I1
sg69
VLAUGH
p3332
sg1743
(iconstruction
TP_SEMFRAME
p3333
(dp3334
g99
g0
(g100
g2
Ntp3335
Rp3336
(dp3337
g104
(dp3338
(iconstruction
TP_NODE
p3339
(dp3340
g1752
I00
sg88
g603
sg69
g3329
sg1753
I00
sg1754
I00
sg586
I286
sb(dp3341
g1753
I00
sg88
g603
ss(iconstruction
TP_NODE
p3342
(dp3343
g1752
I01
sg88
g588
sg69
VACT_285
p3344
sg1753
I01
sg1754
I00
sg586
I285
sb(dp3345
g1753
I01
sg88
g588
sssg287
g288
sg289
g288
sg290
(dp3346
g3339
(dp3347
sg3342
(dp3348
g3339
(dp3349
g88
g735
ssssg484
g3346
sg99
(dp3350
sg486
g288
sg487
g3346
sg488
(dp3351
g3339
(dp3352
g3342
g3349
ssg3342
(dp3353
ssbsg581
(lp3354
g3342
ag3339
asg854
(lp3355
(iconstruction
TP_REL
p3356
(dp3357
g860
g3339
sg88
g735
sg586
I287
sg861
g3342
sg69
VIS_287
p3358
sbasg586
I282
sg69
g1673
sbsg1768
(iconstruction
TP_SYNFORM
p3359
(dp3360
g586
I283
sg1771
(lp3361
(iconstruction
TP_PHON
p3362
(dp3363
g1781
I5
sg1778
I0
sg586
I288
sg1782
Vlaugh
p3364
sg69
g3330
sbasg69
g1673
sbsg1789
I1
sba(iconstruction
CXN
p3365
(dp3366
g1731
(iconstruction
TP_SYMLINKS
p3367
(dp3368
g1734
(dp3369
VN1_293
p3370
VS1_295
p3371
ssg586
I291
sg69
g1673
sbsg1740
VV
p3372
sg1742
I1
sg69
VWATCH
p3373
sg1743
(iconstruction
TP_SEMFRAME
p3374
(dp3375
g99
g0
(g100
g2
Ntp3376
Rp3377
(dp3378
g104
(dp3379
(iconstruction
TP_NODE
p3380
(dp3381
g1752
I01
sg88
g588
sg69
VACT_292
p3382
sg1753
I01
sg1754
I00
sg586
I292
sb(dp3383
g1753
I01
sg88
g588
ss(iconstruction
TP_NODE
p3384
(dp3385
g1752
I00
sg88
g612
sg69
g3370
sg1753
I00
sg1754
I00
sg586
I293
sb(dp3386
g1753
I00
sg88
g612
sssg287
g288
sg289
g288
sg290
(dp3387
g3380
(dp3388
g3384
(dp3389
g88
g735
sssg3384
(dp3390
ssg484
g3387
sg99
(dp3391
sg486
g288
sg487
g3387
sg488
(dp3392
g3380
(dp3393
sg3384
(dp3394
g3380
g3389
sssbsg581
(lp3395
g3380
ag3384
asg854
(lp3396
(iconstruction
TP_REL
p3397
(dp3398
g860
g3384
sg88
g735
sg586
I294
sg861
g3380
sg69
VIS_294
p3399
sbasg586
I289
sg69
g1673
sbsg1768
(iconstruction
TP_SYNFORM
p3400
(dp3401
g586
I290
sg1771
(lp3402
(iconstruction
TP_PHON
p3403
(dp3404
g1781
I5
sg1778
I0
sg586
I295
sg1782
Vwatch
p3405
sg69
g3371
sbasg69
g1673
sbsg1789
I1
sba(iconstruction
CXN
p3406
(dp3407
g1731
(iconstruction
TP_SYMLINKS
p3408
(dp3409
g1734
(dp3410
VN1_300
p3411
VS1_302
p3412
ssg586
I298
sg69
g1673
sbsg1740
VV
p3413
sg1742
I1
sg69
VTALK
p3414
sg1743
(iconstruction
TP_SEMFRAME
p3415
(dp3416
g99
g0
(g100
g2
Ntp3417
Rp3418
(dp3419
g104
(dp3420
(iconstruction
TP_NODE
p3421
(dp3422
g1752
I00
sg88
g621
sg69
g3411
sg1753
I00
sg1754
I00
sg586
I300
sb(dp3423
g1753
I00
sg88
g621
ss(iconstruction
TP_NODE
p3424
(dp3425
g1752
I01
sg88
g588
sg69
VACT_299
p3426
sg1753
I01
sg1754
I00
sg586
I299
sb(dp3427
g1753
I01
sg88
g588
sssg287
g288
sg289
g288
sg290
(dp3428
g3421
(dp3429
sg3424
(dp3430
g3421
(dp3431
g88
g735
ssssg484
g3428
sg99
(dp3432
sg486
g288
sg487
g3428
sg488
(dp3433
g3421
(dp3434
g3424
g3431
ssg3424
(dp3435
ssbsg581
(lp3436
g3424
ag3421
asg854
(lp3437
(iconstruction
TP_REL
p3438
(dp3439
g860
g3421
sg88
g735
sg586
I301
sg861
g3424
sg69
VIS_301
p3440
sbasg586
I296
sg69
g1673
sbsg1768
(iconstruction
TP_SYNFORM
p3441
(dp3442
g586
I297
sg1771
(lp3443
(iconstruction
TP_PHON
p3444
(dp3445
g1781
I4
sg1778
I0
sg586
I302
sg1782
Vtalk
p3446
sg69
g3412
sba(iconstruction
TP_PHON
p3447
(dp3448
g1781
I2
sg1778
I1
sg586
I303
sg1782
Vto
p3449
sg69
VS2_303
p3450
sbasg69
g1673
sbsg1789
I1
sba(iconstruction
CXN
p3451
(dp3452
g1731
(iconstruction
TP_SYMLINKS
p3453
(dp3454
g1734
(dp3455
VN1_308
p3456
VS1_310
p3457
ssg586
I306
sg69
g1673
sbsg1740
VV
p3458
sg1742
I1
sg69
VSQUIRT
p3459
sg1743
(iconstruction
TP_SEMFRAME
p3460
(dp3461
g99
g0
(g100
g2
Ntp3462
Rp3463
(dp3464
g104
(dp3465
(iconstruction
TP_NODE
p3466
(dp3467
g1752
I00
sg88
g627
sg69
g3456
sg1753
I00
sg1754
I00
sg586
I308
sb(dp3468
g1753
I00
sg88
g627
ss(iconstruction
TP_NODE
p3469
(dp3470
g1752
I01
sg88
g588
sg69
VACT_307
p3471
sg1753
I01
sg1754
I00
sg586
I307
sb(dp3472
g1753
I01
sg88
g588
sssg287
g288
sg289
g288
sg290
(dp3473
g3466
(dp3474
sg3469
(dp3475
g3466
(dp3476
g88
g735
ssssg484
g3473
sg99
(dp3477
sg486
g288
sg487
g3473
sg488
(dp3478
g3466
(dp3479
g3469
g3476
ssg3469
(dp3480
ssbsg581
(lp3481
g3469
ag3466
asg854
(lp3482
(iconstruction
TP_REL
p3483
(dp3484
g860
g3466
sg88
g735
sg586
I309
sg861
g3469
sg69
VIS_309
p3485
sbasg586
I304
sg69
g1673
sbsg1768
(iconstruction
TP_SYNFORM
p3486
(dp3487
g586
I305
sg1771
(lp3488
(iconstruction
TP_PHON
p3489
(dp3490
g1781
I6
sg1778
I0
sg586
I310
sg1782
Vsquirt
p3491
sg69
g3457
sba(iconstruction
TP_PHON
p3492
(dp3493
g1781
I2
sg1778
I1
sg586
I311
sg1782
Vat
p3494
sg69
VS2_311
p3495
sbasg69
g1673
sbsg1789
I1
sba(iconstruction
CXN
p3496
(dp3497
g1731
(iconstruction
TP_SYMLINKS
p3498
(dp3499
g1734
(dp3500
VN1_316
p3501
VS1_318
p3502
ssg586
I314
sg69
g1673
sbsg1740
VV
p3503
sg1742
I1
sg69
VSPLASH
p3504
sg1743
(iconstruction
TP_SEMFRAME
p3505
(dp3506
g99
g0
(g100
g2
Ntp3507
Rp3508
(dp3509
g104
(dp3510
(iconstruction
TP_NODE
p3511
(dp3512
g1752
I01
sg88
g588
sg69
VACT_315
p3513
sg1753
I01
sg1754
I00
sg586
I315
sb(dp3514
g1753
I01
sg88
g588
ss(iconstruction
TP_NODE
p3515
(dp3516
g1752
I00
sg88
g618
sg69
g3501
sg1753
I00
sg1754
I00
sg586
I316
sb(dp3517
g1753
I00
sg88
g618
sssg287
g288
sg289
g288
sg290
(dp3518
g3511
(dp3519
g3515
(dp3520
g88
g735
sssg3515
(dp3521
ssg484
g3518
sg99
(dp3522
sg486
g288
sg487
g3518
sg488
(dp3523
g3511
(dp3524
sg3515
(dp3525
g3511
g3520
sssbsg581
(lp3526
g3511
ag3515
asg854
(lp3527
(iconstruction
TP_REL
p3528
(dp3529
g860
g3515
sg88
g735
sg586
I317
sg861
g3511
sg69
VIS_317
p3530
sbasg586
I312
sg69
g1673
sbsg1768
(iconstruction
TP_SYNFORM
p3531
(dp3532
g586
I313
sg1771
(lp3533
(iconstruction
TP_PHON
p3534
(dp3535
g1781
I6
sg1778
I0
sg586
I318
sg1782
Vsplash
p3536
sg69
g3502
sbasg69
g1673
sbsg1789
I1
sba(iconstruction
CXN
p3537
(dp3538
g1731
(iconstruction
TP_SYMLINKS
p3539
(dp3540
g1734
(dp3541
VN1_323
p3542
VS1_325
p3543
ssg586
I321
sg69
g1673
sbsg1740
VV
p3544
sg1742
I1
sg69
VGIVE
p3545
sg1743
(iconstruction
TP_SEMFRAME
p3546
(dp3547
g99
g0
(g100
g2
Ntp3548
Rp3549
(dp3550
g104
(dp3551
(iconstruction
TP_NODE
p3552
(dp3553
g1752
I00
sg88
g642
sg69
g3542
sg1753
I00
sg1754
I00
sg586
I323
sb(dp3554
g1753
I00
sg88
g642
ss(iconstruction
TP_NODE
p3555
(dp3556
g1752
I01
sg88
g588
sg69
VACT_322
p3557
sg1753
I01
sg1754
I00
sg586
I322
sb(dp3558
g1753
I01
sg88
g588
sssg287
g288
sg289
g288
sg290
(dp3559
g3552
(dp3560
sg3555
(dp3561
g3552
(dp3562
g88
g735
ssssg484
g3559
sg99
(dp3563
sg486
g288
sg487
g3559
sg488
(dp3564
g3552
(dp3565
g3555
g3562
ssg3555
(dp3566
ssbsg581
(lp3567
g3555
ag3552
asg854
(lp3568
(iconstruction
TP_REL
p3569
(dp3570
g860
g3552
sg88
g735
sg586
I324
sg861
g3555
sg69
VIS_324
p3571
sbasg586
I319
sg69
g1673
sbsg1768
(iconstruction
TP_SYNFORM
p3572
(dp3573
g586
I320
sg1771
(lp3574
(iconstruction
TP_PHON
p3575
(dp3576
g1781
I4
sg1778
I0
sg586
I325
sg1782
Vgive
p3577
sg69
g3543
sbasg69
g1673
sbsg1789
I1
sba(iconstruction
CXN
p3578
(dp3579
g1731
(iconstruction
TP_SYMLINKS
p3580
(dp3581
g1734
(dp3582
VN1_330
p3583
VS1_332
p3584
ssg586
I328
sg69
g1673
sbsg1740
VV
p3585
sg1742
I1
sg69
VSEND
p3586
sg1743
(iconstruction
TP_SEMFRAME
p3587
(dp3588
g99
g0
(g100
g2
Ntp3589
Rp3590
(dp3591
g104
(dp3592
(iconstruction
TP_NODE
p3593
(dp3594
g1752
I01
sg88
g588
sg69
VACT_329
p3595
sg1753
I01
sg1754
I00
sg586
I329
sb(dp3596
g1753
I01
sg88
g588
ss(iconstruction
TP_NODE
p3597
(dp3598
g1752
I00
sg88
g639
sg69
g3583
sg1753
I00
sg1754
I00
sg586
I330
sb(dp3599
g1753
I00
sg88
g639
sssg287
g288
sg289
g288
sg290
(dp3600
g3593
(dp3601
g3597
(dp3602
g88
g735
sssg3597
(dp3603
ssg484
g3600
sg99
(dp3604
sg486
g288
sg487
g3600
sg488
(dp3605
g3593
(dp3606
sg3597
(dp3607
g3593
g3602
sssbsg581
(lp3608
g3593
ag3597
asg854
(lp3609
(iconstruction
TP_REL
p3610
(dp3611
g860
g3597
sg88
g735
sg586
I331
sg861
g3593
sg69
VIS_331
p3612
sbasg586
I326
sg69
g1673
sbsg1768
(iconstruction
TP_SYNFORM
p3613
(dp3614
g586
I327
sg1771
(lp3615
(iconstruction
TP_PHON
p3616
(dp3617
g1781
I4
sg1778
I0
sg586
I332
sg1782
Vsend
p3618
sg69
g3584
sbasg69
g1673
sbsg1789
I1
sba(iconstruction
CXN
p3619
(dp3620
g1731
(iconstruction
TP_SYMLINKS
p3621
(dp3622
g1734
(dp3623
VN1_337
p3624
VS1_339
p3625
ssg586
I335
sg69
g1673
sbsg1740
VV
p3626
sg1742
I1
sg69
VMEET
p3627
sg1743
(iconstruction
TP_SEMFRAME
p3628
(dp3629
g99
g0
(g100
g2
Ntp3630
Rp3631
(dp3632
g104
(dp3633
(iconstruction
TP_NODE
p3634
(dp3635
g1752
I00
sg88
g594
sg69
g3624
sg1753
I00
sg1754
I00
sg586
I337
sb(dp3636
g1753
I00
sg88
g594
ss(iconstruction
TP_NODE
p3637
(dp3638
g1752
I01
sg88
g588
sg69
VACT_336
p3639
sg1753
I01
sg1754
I00
sg586
I336
sb(dp3640
g1753
I01
sg88
g588
sssg287
g288
sg289
g288
sg290
(dp3641
g3634
(dp3642
sg3637
(dp3643
g3634
(dp3644
g88
g735
ssssg484
g3641
sg99
(dp3645
sg486
g288
sg487
g3641
sg488
(dp3646
g3634
(dp3647
g3637
g3644
ssg3637
(dp3648
ssbsg581
(lp3649
g3637
ag3634
asg854
(lp3650
(iconstruction
TP_REL
p3651
(dp3652
g860
g3634
sg88
g735
sg586
I338
sg861
g3637
sg69
VIS_338
p3653
sbasg586
I333
sg69
g1673
sbsg1768
(iconstruction
TP_SYNFORM
p3654
(dp3655
g586
I334
sg1771
(lp3656
(iconstruction
TP_PHON
p3657
(dp3658
g1781
I4
sg1778
I0
sg586
I339
sg1782
Vmeet
p3659
sg69
g3625
sbasg69
g1673
sbsg1789
I1
sba(iconstruction
CXN
p3660
(dp3661
g1731
(iconstruction
TP_SYMLINKS
p3662
(dp3663
g1734
(dp3664
VN1_344
p3665
VS1_346
p3666
ssg586
I342
sg69
g1673
sbsg1740
VV
p3667
sg1742
I1
sg69
VKISS
p3668
sg1743
(iconstruction
TP_SEMFRAME
p3669
(dp3670
g99
g0
(g100
g2
Ntp3671
Rp3672
(dp3673
g104
(dp3674
(iconstruction
TP_NODE
p3675
(dp3676
g1752
I01
sg88
g588
sg69
VACT_343
p3677
sg1753
I01
sg1754
I00
sg586
I343
sb(dp3678
g1753
I01
sg88
g588
ss(iconstruction
TP_NODE
p3679
(dp3680
g1752
I00
sg88
g624
sg69
g3665
sg1753
I00
sg1754
I00
sg586
I344
sb(dp3681
g1753
I00
sg88
g624
sssg287
g288
sg289
g288
sg290
(dp3682
g3675
(dp3683
g3679
(dp3684
g88
g735
sssg3679
(dp3685
ssg484
g3682
sg99
(dp3686
sg486
g288
sg487
g3682
sg488
(dp3687
g3675
(dp3688
sg3679
(dp3689
g3675
g3684
sssbsg581
(lp3690
g3675
ag3679
asg854
(lp3691
(iconstruction
TP_REL
p3692
(dp3693
g860
g3679
sg88
g735
sg586
I345
sg861
g3675
sg69
VIS_345
p3694
sbasg586
I340
sg69
g1673
sbsg1768
(iconstruction
TP_SYNFORM
p3695
(dp3696
g586
I341
sg1771
(lp3697
(iconstruction
TP_PHON
p3698
(dp3699
g1781
I4
sg1778
I0
sg586
I346
sg1782
Vkiss
p3700
sg69
g3666
sbasg69
g1673
sbsg1789
I1
sba(iconstruction
CXN
p3701
(dp3702
g1731
(iconstruction
TP_SYMLINKS
p3703
(dp3704
g1734
(dp3705
VN1_351
p3706
VS1_353
p3707
ssg586
I349
sg69
g1673
sbsg1740
VV
p3708
sg1742
I1
sg69
VSHAKE_HANDS
p3709
sg1743
(iconstruction
TP_SEMFRAME
p3710
(dp3711
g99
g0
(g100
g2
Ntp3712
Rp3713
(dp3714
g104
(dp3715
(iconstruction
TP_NODE
p3716
(dp3717
g1752
I00
sg88
g597
sg69
g3706
sg1753
I00
sg1754
I00
sg586
I351
sb(dp3718
g1753
I00
sg88
g597
ss(iconstruction
TP_NODE
p3719
(dp3720
g1752
I01
sg88
g588
sg69
VACT_350
p3721
sg1753
I01
sg1754
I00
sg586
I350
sb(dp3722
g1753
I01
sg88
g588
sssg287
g288
sg289
g288
sg290
(dp3723
g3716
(dp3724
sg3719
(dp3725
g3716
(dp3726
g88
g735
ssssg484
g3723
sg99
(dp3727
sg486
g288
sg487
g3723
sg488
(dp3728
g3716
(dp3729
g3719
g3726
ssg3719
(dp3730
ssbsg581
(lp3731
g3719
ag3716
asg854
(lp3732
(iconstruction
TP_REL
p3733
(dp3734
g860
g3716
sg88
g735
sg586
I352
sg861
g3719
sg69
VIS_352
p3735
sbasg586
I347
sg69
g1673
sbsg1768
(iconstruction
TP_SYNFORM
p3736
(dp3737
g586
I348
sg1771
(lp3738
(iconstruction
TP_PHON
p3739
(dp3740
g1781
I10
sg1778
I0
sg586
I353
sg1782
Vshake hands
p3741
sg69
g3707
sbasg69
g1673
sbsg1789
I1
sba(iconstruction
CXN
p3742
(dp3743
g1731
(iconstruction
TP_SYMLINKS
p3744
(dp3745
g1734
(dp3746
VN1_357
p3747
VS1_358
p3748
ssg586
I356
sg69
g1673
sbsg1740
VA
p3749
sg1742
I1
sg69
VBLUE
p3750
sg1743
(iconstruction
TP_SEMFRAME
p3751
(dp3752
g99
g0
(g100
g2
Ntp3753
Rp3754
(dp3755
g104
(dp3756
(iconstruction
TP_NODE
p3757
(dp3758
g1752
I01
sg88
g651
sg69
g3747
sg1753
I00
sg1754
I00
sg586
I357
sb(dp3759
g1753
I00
sg88
g651
sssg287
g288
sg289
g288
sg290
(dp3760
g3757
(dp3761
ssg484
g3760
sg99
(dp3762
sg486
g288
sg487
g3760
sg488
(dp3763
g3757
(dp3764
ssbsg581
(lp3765
g3757
asg854
(lp3766
sg586
I354
sg69
g1673
sbsg1768
(iconstruction
TP_SYNFORM
p3767
(dp3768
g586
I355
sg1771
(lp3769
(iconstruction
TP_PHON
p3770
(dp3771
g1781
I4
sg1778
I0
sg586
I358
sg1782
Vblue
p3772
sg69
g3748
sbasg69
g1673
sbsg1789
I1
sba(iconstruction
CXN
p3773
(dp3774
g1731
(iconstruction
TP_SYMLINKS
p3775
(dp3776
g1734
(dp3777
VN1_362
p3778
VS1_363
p3779
ssg586
I361
sg69
g1673
sbsg1740
VA
p3780
sg1742
I1
sg69
VBLACK
p3781
sg1743
(iconstruction
TP_SEMFRAME
p3782
(dp3783
g99
g0
(g100
g2
Ntp3784
Rp3785
(dp3786
g104
(dp3787
(iconstruction
TP_NODE
p3788
(dp3789
g1752
I01
sg88
g660
sg69
g3778
sg1753
I00
sg1754
I00
sg586
I362
sb(dp3790
g1753
I00
sg88
g660
sssg287
g288
sg289
g288
sg290
(dp3791
g3788
(dp3792
ssg484
g3791
sg99
(dp3793
sg486
g288
sg487
g3791
sg488
(dp3794
g3788
(dp3795
ssbsg581
(lp3796
g3788
asg854
(lp3797
sg586
I359
sg69
g1673
sbsg1768
(iconstruction
TP_SYNFORM
p3798
(dp3799
g586
I360
sg1771
(lp3800
(iconstruction
TP_PHON
p3801
(dp3802
g1781
I5
sg1778
I0
sg586
I363
sg1782
Vblack
p3803
sg69
g3779
sbasg69
g1673
sbsg1789
I1
sba(iconstruction
CXN
p3804
(dp3805
g1731
(iconstruction
TP_SYMLINKS
p3806
(dp3807
g1734
(dp3808
VN1_367
p3809
VS1_368
p3810
ssg586
I366
sg69
g1673
sbsg1740
VA
p3811
sg1742
I1
sg69
VGREEN
p3812
sg1743
(iconstruction
TP_SEMFRAME
p3813
(dp3814
g99
g0
(g100
g2
Ntp3815
Rp3816
(dp3817
g104
(dp3818
(iconstruction
TP_NODE
p3819
(dp3820
g1752
I01
sg88
g654
sg69
g3809
sg1753
I00
sg1754
I00
sg586
I367
sb(dp3821
g1753
I00
sg88
g654
sssg287
g288
sg289
g288
sg290
(dp3822
g3819
(dp3823
ssg484
g3822
sg99
(dp3824
sg486
g288
sg487
g3822
sg488
(dp3825
g3819
(dp3826
ssbsg581
(lp3827
g3819
asg854
(lp3828
sg586
I364
sg69
g1673
sbsg1768
(iconstruction
TP_SYNFORM
p3829
(dp3830
g586
I365
sg1771
(lp3831
(iconstruction
TP_PHON
p3832
(dp3833
g1781
I5
sg1778
I0
sg586
I368
sg1782
Vgreen
p3834
sg69
g3810
sbasg69
g1673
sbsg1789
I1
sba(iconstruction
CXN
p3835
(dp3836
g1731
(iconstruction
TP_SYMLINKS
p3837
(dp3838
g1734
(dp3839
VN1_372
p3840
VS1_373
p3841
ssg586
I371
sg69
g1673
sbsg1740
VA
p3842
sg1742
I1
sg69
VSMALL
p3843
sg1743
(iconstruction
TP_SEMFRAME
p3844
(dp3845
g99
g0
(g100
g2
Ntp3846
Rp3847
(dp3848
g104
(dp3849
(iconstruction
TP_NODE
p3850
(dp3851
g1752
I01
sg88
g681
sg69
g3840
sg1753
I00
sg1754
I00
sg586
I372
sb(dp3852
g1753
I00
sg88
g681
sssg287
g288
sg289
g288
sg290
(dp3853
g3850
(dp3854
ssg484
g3853
sg99
(dp3855
sg486
g288
sg487
g3853
sg488
(dp3856
g3850
(dp3857
ssbsg581
(lp3858
g3850
asg854
(lp3859
sg586
I369
sg69
g1673
sbsg1768
(iconstruction
TP_SYNFORM
p3860
(dp3861
g586
I370
sg1771
(lp3862
(iconstruction
TP_PHON
p3863
(dp3864
g1781
I5
sg1778
I0
sg586
I373
sg1782
Vsmall
p3865
sg69
g3841
sbasg69
g1673
sbsg1789
I1
sba(iconstruction
CXN
p3866
(dp3867
g1731
(iconstruction
TP_SYMLINKS
p3868
(dp3869
g1734
(dp3870
VN1_377
p3871
VS1_378
p3872
ssg586
I376
sg69
g1673
sbsg1740
VA
p3873
sg1742
I1
sg69
VBIG
p3874
sg1743
(iconstruction
TP_SEMFRAME
p3875
(dp3876
g99
g0
(g100
g2
Ntp3877
Rp3878
(dp3879
g104
(dp3880
(iconstruction
TP_NODE
p3881
(dp3882
g1752
I01
sg88
g684
sg69
g3871
sg1753
I00
sg1754
I00
sg586
I377
sb(dp3883
g1753
I00
sg88
g684
sssg287
g288
sg289
g288
sg290
(dp3884
g3881
(dp3885
ssg484
g3884
sg99
(dp3886
sg486
g288
sg487
g3884
sg488
(dp3887
g3881
(dp3888
ssbsg581
(lp3889
g3881
asg854
(lp3890
sg586
I374
sg69
g1673
sbsg1768
(iconstruction
TP_SYNFORM
p3891
(dp3892
g586
I375
sg1771
(lp3893
(iconstruction
TP_PHON
p3894
(dp3895
g1781
I3
sg1778
I0
sg586
I378
sg1782
Vbig
p3896
sg69
g3872
sbasg69
g1673
sbsg1789
I1
sba(iconstruction
CXN
p3897
(dp3898
g1731
(iconstruction
TP_SYMLINKS
p3899
(dp3900
g1734
(dp3901
VN1_382
p3902
VS1_383
p3903
ssg586
I381
sg69
g1673
sbsg1740
VA
p3904
sg1742
I1
sg69
VHANDSOME
p3905
sg1743
(iconstruction
TP_SEMFRAME
p3906
(dp3907
g99
g0
(g100
g2
Ntp3908
Rp3909
(dp3910
g104
(dp3911
(iconstruction
TP_NODE
p3912
(dp3913
g1752
I01
sg88
g675
sg69
g3902
sg1753
I00
sg1754
I00
sg586
I382
sb(dp3914
g1753
I00
sg88
g675
sssg287
g288
sg289
g288
sg290
(dp3915
g3912
(dp3916
ssg484
g3915
sg99
(dp3917
sg486
g288
sg487
g3915
sg488
(dp3918
g3912
(dp3919
ssbsg581
(lp3920
g3912
asg854
(lp3921
sg586
I379
sg69
g1673
sbsg1768
(iconstruction
TP_SYNFORM
p3922
(dp3923
g586
I380
sg1771
(lp3924
(iconstruction
TP_PHON
p3925
(dp3926
g1781
I8
sg1778
I0
sg586
I383
sg1782
Vhandsome
p3927
sg69
g3903
sbasg69
g1673
sbsg1789
I1
sba(iconstruction
CXN
p3928
(dp3929
g1731
(iconstruction
TP_SYMLINKS
p3930
(dp3931
g1734
(dp3932
VN1_387
p3933
VS1_388
p3934
ssg586
I386
sg69
g1673
sbsg1740
VA
p3935
sg1742
I1
sg69
VPRETTY
p3936
sg1743
(iconstruction
TP_SEMFRAME
p3937
(dp3938
g99
g0
(g100
g2
Ntp3939
Rp3940
(dp3941
g104
(dp3942
(iconstruction
TP_NODE
p3943
(dp3944
g1752
I01
sg88
g672
sg69
g3933
sg1753
I00
sg1754
I00
sg586
I387
sb(dp3945
g1753
I00
sg88
g672
sssg287
g288
sg289
g288
sg290
(dp3946
g3943
(dp3947
ssg484
g3946
sg99
(dp3948
sg486
g288
sg487
g3946
sg488
(dp3949
g3943
(dp3950
ssbsg581
(lp3951
g3943
asg854
(lp3952
sg586
I384
sg69
g1673
sbsg1768
(iconstruction
TP_SYNFORM
p3953
(dp3954
g586
I385
sg1771
(lp3955
(iconstruction
TP_PHON
p3956
(dp3957
g1781
I6
sg1778
I0
sg586
I388
sg1782
Vpretty
p3958
sg69
g3934
sbasg69
g1673
sbsg1789
I1
sba(iconstruction
CXN
p3959
(dp3960
g1731
(iconstruction
TP_SYMLINKS
p3961
(dp3962
g1734
(dp3963
VN1_392
p3964
VS1_393
p3965
ssg586
I391
sg69
g1673
sbsg1740
VA
p3966
sg1742
I1
sg69
VYOUNG
p3967
sg1743
(iconstruction
TP_SEMFRAME
p3968
(dp3969
g99
g0
(g100
g2
Ntp3970
Rp3971
(dp3972
g104
(dp3973
(iconstruction
TP_NODE
p3974
(dp3975
g1752
I01
sg88
g669
sg69
g3964
sg1753
I00
sg1754
I00
sg586
I392
sb(dp3976
g1753
I00
sg88
g669
sssg287
g288
sg289
g288
sg290
(dp3977
g3974
(dp3978
ssg484
g3977
sg99
(dp3979
sg486
g288
sg487
g3977
sg488
(dp3980
g3974
(dp3981
ssbsg581
(lp3982
g3974
asg854
(lp3983
sg586
I389
sg69
g1673
sbsg1768
(iconstruction
TP_SYNFORM
p3984
(dp3985
g586
I390
sg1771
(lp3986
(iconstruction
TP_PHON
p3987
(dp3988
g1781
I5
sg1778
I0
sg586
I393
sg1782
Vyoung
p3989
sg69
g3965
sbasg69
g1673
sbsg1789
I1
sba(iconstruction
CXN
p3990
(dp3991
g1731
(iconstruction
TP_SYMLINKS
p3992
(dp3993
g1734
(dp3994
VN1_398
p3995
VS1_400
p3996
ssg586
I396
sg69
g1673
sbsg1740
VN
p3997
sg1742
I1
sg69
VWOMAN
p3998
sg1743
(iconstruction
TP_SEMFRAME
p3999
(dp4000
g99
g0
(g100
g2
Ntp4001
Rp4002
(dp4003
g104
(dp4004
(iconstruction
TP_NODE
p4005
(dp4006
g1752
I01
sg88
g744
sg69
VENT_397
p4007
sg1753
I01
sg1754
I00
sg586
I397
sb(dp4008
g1753
I01
sg88
g744
ss(iconstruction
TP_NODE
p4009
(dp4010
g1752
I00
sg88
g810
sg69
g3995
sg1753
I00
sg1754
I00
sg586
I398
sb(dp4011
g1753
I00
sg88
g810
sssg287
g288
sg289
g288
sg290
(dp4012
g4005
(dp4013
g4009
(dp4014
g88
g735
sssg4009
(dp4015
ssg484
g4012
sg99
(dp4016
sg486
g288
sg487
g4012
sg488
(dp4017
g4005
(dp4018
sg4009
(dp4019
g4005
g4014
sssbsg581
(lp4020
g4005
ag4009
asg854
(lp4021
(iconstruction
TP_REL
p4022
(dp4023
g860
g4009
sg88
g735
sg586
I399
sg861
g4005
sg69
VIS_399
p4024
sbasg586
I394
sg69
g1673
sbsg1768
(iconstruction
TP_SYNFORM
p4025
(dp4026
g586
I395
sg1771
(lp4027
(iconstruction
TP_PHON
p4028
(dp4029
g1781
I5
sg1778
I0
sg586
I400
sg1782
Vwoman
p4030
sg69
g3996
sbasg69
g1673
sbsg1789
I1
sba(iconstruction
CXN
p4031
(dp4032
g1731
(iconstruction
TP_SYMLINKS
p4033
(dp4034
g1734
(dp4035
VN1_405
p4036
VS1_407
p4037
ssg586
I403
sg69
g1673
sbsg1740
VN
p4038
sg1742
I1
sg69
VWOMAN2
p4039
sg1743
(iconstruction
TP_SEMFRAME
p4040
(dp4041
g99
g0
(g100
g2
Ntp4042
Rp4043
(dp4044
g104
(dp4045
(iconstruction
TP_NODE
p4046
(dp4047
g1752
I00
sg88
g810
sg69
g4036
sg1753
I00
sg1754
I00
sg586
I405
sb(dp4048
g1753
I00
sg88
g810
ss(iconstruction
TP_NODE
p4049
(dp4050
g1752
I01
sg88
g744
sg69
VENT_404
p4051
sg1753
I01
sg1754
I00
sg586
I404
sb(dp4052
g1753
I01
sg88
g744
sssg287
g288
sg289
g288
sg290
(dp4053
g4046
(dp4054
sg4049
(dp4055
g4046
(dp4056
g88
g735
ssssg484
g4053
sg99
(dp4057
sg486
g288
sg487
g4053
sg488
(dp4058
g4046
(dp4059
g4049
g4056
ssg4049
(dp4060
ssbsg581
(lp4061
g4049
ag4046
asg854
(lp4062
(iconstruction
TP_REL
p4063
(dp4064
g860
g4046
sg88
g735
sg586
I406
sg861
g4049
sg69
VIS_406
p4065
sbasg586
I401
sg69
g1673
sbsg1768
(iconstruction
TP_SYNFORM
p4066
(dp4067
g586
I402
sg1771
(lp4068
(iconstruction
TP_PHON
p4069
(dp4070
g1781
I4
sg1778
I0
sg586
I407
sg1782
Vlady
p4071
sg69
g4037
sbasg69
g1673
sbsg1789
I1
sba(iconstruction
CXN
p4072
(dp4073
g1731
(iconstruction
TP_SYMLINKS
p4074
(dp4075
g1734
(dp4076
VN1_412
p4077
VS1_414
p4078
ssg586
I410
sg69
g1673
sbsg1740
VN
p4079
sg1742
I1
sg69
VMAN
p4080
sg1743
(iconstruction
TP_SEMFRAME
p4081
(dp4082
g99
g0
(g100
g2
Ntp4083
Rp4084
(dp4085
g104
(dp4086
(iconstruction
TP_NODE
p4087
(dp4088
g1752
I01
sg88
g744
sg69
VENT_411
p4089
sg1753
I01
sg1754
I00
sg586
I411
sb(dp4090
g1753
I01
sg88
g744
ss(iconstruction
TP_NODE
p4091
(dp4092
g1752
I00
sg88
g837
sg69
g4077
sg1753
I00
sg1754
I00
sg586
I412
sb(dp4093
g1753
I00
sg88
g837
sssg287
g288
sg289
g288
sg290
(dp4094
g4087
(dp4095
g4091
(dp4096
g88
g735
sssg4091
(dp4097
ssg484
g4094
sg99
(dp4098
sg486
g288
sg487
g4094
sg488
(dp4099
g4087
(dp4100
sg4091
(dp4101
g4087
g4096
sssbsg581
(lp4102
g4087
ag4091
asg854
(lp4103
(iconstruction
TP_REL
p4104
(dp4105
g860
g4091
sg88
g735
sg586
I413
sg861
g4087
sg69
VIS_413
p4106
sbasg586
I408
sg69
g1673
sbsg1768
(iconstruction
TP_SYNFORM
p4107
(dp4108
g586
I409
sg1771
(lp4109
(iconstruction
TP_PHON
p4110
(dp4111
g1781
I3
sg1778
I0
sg586
I414
sg1782
Vman
p4112
sg69
g4078
sbasg69
g1673
sbsg1789
I1
sba(iconstruction
CXN
p4113
(dp4114
g1731
(iconstruction
TP_SYMLINKS
p4115
(dp4116
g1734
(dp4117
VN1_419
p4118
VS1_421
p4119
ssg586
I417
sg69
g1673
sbsg1740
VN
p4120
sg1742
I1
sg69
VGIRL
p4121
sg1743
(iconstruction
TP_SEMFRAME
p4122
(dp4123
g99
g0
(g100
g2
Ntp4124
Rp4125
(dp4126
g104
(dp4127
(iconstruction
TP_NODE
p4128
(dp4129
g1752
I00
sg88
g828
sg69
g4118
sg1753
I00
sg1754
I00
sg586
I419
sb(dp4130
g1753
I00
sg88
g828
ss(iconstruction
TP_NODE
p4131
(dp4132
g1752
I01
sg88
g744
sg69
VENT_418
p4133
sg1753
I01
sg1754
I00
sg586
I418
sb(dp4134
g1753
I01
sg88
g744
sssg287
g288
sg289
g288
sg290
(dp4135
g4128
(dp4136
sg4131
(dp4137
g4128
(dp4138
g88
g735
ssssg484
g4135
sg99
(dp4139
sg486
g288
sg487
g4135
sg488
(dp4140
g4128
(dp4141
g4131
g4138
ssg4131
(dp4142
ssbsg581
(lp4143
g4131
ag4128
asg854
(lp4144
(iconstruction
TP_REL
p4145
(dp4146
g860
g4128
sg88
g735
sg586
I420
sg861
g4131
sg69
VIS_420
p4147
sbasg586
I415
sg69
g1673
sbsg1768
(iconstruction
TP_SYNFORM
p4148
(dp4149
g586
I416
sg1771
(lp4150
(iconstruction
TP_PHON
p4151
(dp4152
g1781
I4
sg1778
I0
sg586
I421
sg1782
Vgirl
p4153
sg69
g4119
sbasg69
g1673
sbsg1789
I1
sba(iconstruction
CXN
p4154
(dp4155
g1731
(iconstruction
TP_SYMLINKS
p4156
(dp4157
g1734
(dp4158
VN1_426
p4159
VS1_428
p4160
ssg586
I424
sg69
g1673
sbsg1740
VN
p4161
sg1742
I1
sg69
VBOY
p4162
sg1743
(iconstruction
TP_SEMFRAME
p4163
(dp4164
g99
g0
(g100
g2
Ntp4165
Rp4166
(dp4167
g104
(dp4168
(iconstruction
TP_NODE
p4169
(dp4170
g1752
I01
sg88
g744
sg69
VENT_425
p4171
sg1753
I01
sg1754
I00
sg586
I425
sb(dp4172
g1753
I01
sg88
g744
ss(iconstruction
TP_NODE
p4173
(dp4174
g1752
I00
sg88
g807
sg69
g4159
sg1753
I00
sg1754
I00
sg586
I426
sb(dp4175
g1753
I00
sg88
g807
sssg287
g288
sg289
g288
sg290
(dp4176
g4169
(dp4177
g4173
(dp4178
g88
g735
sssg4173
(dp4179
ssg484
g4176
sg99
(dp4180
sg486
g288
sg487
g4176
sg488
(dp4181
g4169
(dp4182
sg4173
(dp4183
g4169
g4178
sssbsg581
(lp4184
g4169
ag4173
asg854
(lp4185
(iconstruction
TP_REL
p4186
(dp4187
g860
g4173
sg88
g735
sg586
I427
sg861
g4169
sg69
VIS_427
p4188
sbasg586
I422
sg69
g1673
sbsg1768
(iconstruction
TP_SYNFORM
p4189
(dp4190
g586
I423
sg1771
(lp4191
(iconstruction
TP_PHON
p4192
(dp4193
g1781
I3
sg1778
I0
sg586
I428
sg1782
Vboy
p4194
sg69
g4160
sbasg69
g1673
sbsg1789
I1
sba(iconstruction
CXN
p4195
(dp4196
g1731
(iconstruction
TP_SYMLINKS
p4197
(dp4198
g1734
(dp4199
VN1_433
p4200
VS1_435
p4201
ssg586
I431
sg69
g1673
sbsg1740
VN
p4202
sg1742
I1
sg69
VPEOPLE
p4203
sg1743
(iconstruction
TP_SEMFRAME
p4204
(dp4205
g99
g0
(g100
g2
Ntp4206
Rp4207
(dp4208
g104
(dp4209
(iconstruction
TP_NODE
p4210
(dp4211
g1752
I01
sg88
g744
sg69
VENT_432
p4212
sg1753
I01
sg1754
I00
sg586
I432
sb(dp4213
g1753
I01
sg88
g744
ss(iconstruction
TP_NODE
p4214
(dp4215
g1752
I00
sg88
g813
sg69
g4200
sg1753
I00
sg1754
I00
sg586
I433
sb(dp4216
g1753
I00
sg88
g813
sssg287
g288
sg289
g288
sg290
(dp4217
g4210
(dp4218
g4214
(dp4219
g88
g735
sssg4214
(dp4220
ssg484
g4217
sg99
(dp4221
sg486
g288
sg487
g4217
sg488
(dp4222
g4210
(dp4223
sg4214
(dp4224
g4210
g4219
sssbsg581
(lp4225
g4210
ag4214
asg854
(lp4226
(iconstruction
TP_REL
p4227
(dp4228
g860
g4214
sg88
g735
sg586
I434
sg861
g4210
sg69
VIS_434
p4229
sbasg586
I429
sg69
g1673
sbsg1768
(iconstruction
TP_SYNFORM
p4230
(dp4231
g586
I430
sg1771
(lp4232
(iconstruction
TP_PHON
p4233
(dp4234
g1781
I6
sg1778
I0
sg586
I435
sg1782
Vpeople
p4235
sg69
g4201
sbasg69
g1673
sbsg1789
I1
sba(iconstruction
CXN
p4236
(dp4237
g1731
(iconstruction
TP_SYMLINKS
p4238
(dp4239
g1734
(dp4240
VN1_440
p4241
VS1_442
p4242
ssg586
I438
sg69
g1673
sbsg1740
VN
p4243
sg1742
I1
sg69
VMOUSE
p4244
sg1743
(iconstruction
TP_SEMFRAME
p4245
(dp4246
g99
g0
(g100
g2
Ntp4247
Rp4248
(dp4249
g104
(dp4250
(iconstruction
TP_NODE
p4251
(dp4252
g1752
I00
sg88
g801
sg69
g4241
sg1753
I00
sg1754
I00
sg586
I440
sb(dp4253
g1753
I00
sg88
g801
ss(iconstruction
TP_NODE
p4254
(dp4255
g1752
I01
sg88
g744
sg69
VENT_439
p4256
sg1753
I01
sg1754
I00
sg586
I439
sb(dp4257
g1753
I01
sg88
g744
sssg287
g288
sg289
g288
sg290
(dp4258
g4251
(dp4259
sg4254
(dp4260
g4251
(dp4261
g88
g735
ssssg484
g4258
sg99
(dp4262
sg486
g288
sg487
g4258
sg488
(dp4263
g4251
(dp4264
g4254
g4261
ssg4254
(dp4265
ssbsg581
(lp4266
g4254
ag4251
asg854
(lp4267
(iconstruction
TP_REL
p4268
(dp4269
g860
g4251
sg88
g735
sg586
I441
sg861
g4254
sg69
VIS_441
p4270
sbasg586
I436
sg69
g1673
sbsg1768
(iconstruction
TP_SYNFORM
p4271
(dp4272
g586
I437
sg1771
(lp4273
(iconstruction
TP_PHON
p4274
(dp4275
g1781
I5
sg1778
I0
sg586
I442
sg1782
Vmouse
p4276
sg69
g4242
sbasg69
g1673
sbsg1789
I1
sba(iconstruction
CXN
p4277
(dp4278
g1731
(iconstruction
TP_SYMLINKS
p4279
(dp4280
g1734
(dp4281
VN1_447
p4282
VS1_449
p4283
ssg586
I445
sg69
g1673
sbsg1740
VN
p4284
sg1742
I1
sg69
VTURTLE
p4285
sg1743
(iconstruction
TP_SEMFRAME
p4286
(dp4287
g99
g0
(g100
g2
Ntp4288
Rp4289
(dp4290
g104
(dp4291
(iconstruction
TP_NODE
p4292
(dp4293
g1752
I01
sg88
g744
sg69
VENT_446
p4294
sg1753
I01
sg1754
I00
sg586
I446
sb(dp4295
g1753
I01
sg88
g744
ss(iconstruction
TP_NODE
p4296
(dp4297
g1752
I00
sg88
g798
sg69
g4282
sg1753
I00
sg1754
I00
sg586
I447
sb(dp4298
g1753
I00
sg88
g798
sssg287
g288
sg289
g288
sg290
(dp4299
g4292
(dp4300
g4296
(dp4301
g88
g735
sssg4296
(dp4302
ssg484
g4299
sg99
(dp4303
sg486
g288
sg487
g4299
sg488
(dp4304
g4292
(dp4305
sg4296
(dp4306
g4292
g4301
sssbsg581
(lp4307
g4292
ag4296
asg854
(lp4308
(iconstruction
TP_REL
p4309
(dp4310
g860
g4296
sg88
g735
sg586
I448
sg861
g4292
sg69
VIS_448
p4311
sbasg586
I443
sg69
g1673
sbsg1768
(iconstruction
TP_SYNFORM
p4312
(dp4313
g586
I444
sg1771
(lp4314
(iconstruction
TP_PHON
p4315
(dp4316
g1781
I6
sg1778
I0
sg586
I449
sg1782
Vturtle
p4317
sg69
g4283
sbasg69
g1673
sbsg1789
I1
sba(iconstruction
CXN
p4318
(dp4319
g1731
(iconstruction
TP_SYMLINKS
p4320
(dp4321
g1734
(dp4322
VN1_454
p4323
VS1_456
p4324
ssg586
I452
sg69
g1673
sbsg1740
VN
p4325
sg1742
I1
sg69
VDRESS
p4326
sg1743
(iconstruction
TP_SEMFRAME
p4327
(dp4328
g99
g0
(g100
g2
Ntp4329
Rp4330
(dp4331
g104
(dp4332
(iconstruction
TP_NODE
p4333
(dp4334
g1752
I00
sg88
g789
sg69
g4323
sg1753
I00
sg1754
I00
sg586
I454
sb(dp4335
g1753
I00
sg88
g789
ss(iconstruction
TP_NODE
p4336
(dp4337
g1752
I01
sg88
g744
sg69
VENT_453
p4338
sg1753
I01
sg1754
I00
sg586
I453
sb(dp4339
g1753
I01
sg88
g744
sssg287
g288
sg289
g288
sg290
(dp4340
g4333
(dp4341
sg4336
(dp4342
g4333
(dp4343
g88
g735
ssssg484
g4340
sg99
(dp4344
sg486
g288
sg487
g4340
sg488
(dp4345
g4333
(dp4346
g4336
g4343
ssg4336
(dp4347
ssbsg581
(lp4348
g4336
ag4333
asg854
(lp4349
(iconstruction
TP_REL
p4350
(dp4351
g860
g4333
sg88
g735
sg586
I455
sg861
g4336
sg69
VIS_455
p4352
sbasg586
I450
sg69
g1673
sbsg1768
(iconstruction
TP_SYNFORM
p4353
(dp4354
g586
I451
sg1771
(lp4355
(iconstruction
TP_PHON
p4356
(dp4357
g1781
I5
sg1778
I0
sg586
I456
sg1782
Vdress
p4358
sg69
g4324
sbasg69
g1673
sbsg1789
I1
sba(iconstruction
CXN
p4359
(dp4360
g1731
(iconstruction
TP_SYMLINKS
p4361
(dp4362
g1734
(dp4363
VN1_461
p4364
VS1_463
p4365
ssg586
I459
sg69
g1673
sbsg1740
VN
p4366
sg1742
I1
sg69
VTSHIRT
p4367
sg1743
(iconstruction
TP_SEMFRAME
p4368
(dp4369
g99
g0
(g100
g2
Ntp4370
Rp4371
(dp4372
g104
(dp4373
(iconstruction
TP_NODE
p4374
(dp4375
g1752
I01
sg88
g744
sg69
VENT_460
p4376
sg1753
I01
sg1754
I00
sg586
I460
sb(dp4377
g1753
I01
sg88
g744
ss(iconstruction
TP_NODE
p4378
(dp4379
g1752
I00
sg88
g786
sg69
g4364
sg1753
I00
sg1754
I00
sg586
I461
sb(dp4380
g1753
I00
sg88
g786
sssg287
g288
sg289
g288
sg290
(dp4381
g4374
(dp4382
g4378
(dp4383
g88
g735
sssg4378
(dp4384
ssg484
g4381
sg99
(dp4385
sg486
g288
sg487
g4381
sg488
(dp4386
g4374
(dp4387
sg4378
(dp4388
g4374
g4383
sssbsg581
(lp4389
g4374
ag4378
asg854
(lp4390
(iconstruction
TP_REL
p4391
(dp4392
g860
g4378
sg88
g735
sg586
I462
sg861
g4374
sg69
VIS_462
p4393
sbasg586
I457
sg69
g1673
sbsg1768
(iconstruction
TP_SYNFORM
p4394
(dp4395
g586
I458
sg1771
(lp4396
(iconstruction
TP_PHON
p4397
(dp4398
g1781
I6
sg1778
I0
sg586
I463
sg1782
Vt-shirt
p4399
sg69
g4365
sbasg69
g1673
sbsg1789
I1
sba(iconstruction
CXN
p4400
(dp4401
g1731
(iconstruction
TP_SYMLINKS
p4402
(dp4403
g1734
(dp4404
VN1_468
p4405
VS2_471
p4406
ssg586
I466
sg69
g1673
sbsg1740
VN
p4407
sg1742
I1
sg69
VBOXINGRING
p4408
sg1743
(iconstruction
TP_SEMFRAME
p4409
(dp4410
g99
g0
(g100
g2
Ntp4411
Rp4412
(dp4413
g104
(dp4414
(iconstruction
TP_NODE
p4415
(dp4416
g1752
I00
sg88
g843
sg69
g4405
sg1753
I00
sg1754
I00
sg586
I468
sb(dp4417
g1753
I00
sg88
g843
ss(iconstruction
TP_NODE
p4418
(dp4419
g1752
I01
sg88
g744
sg69
VENT_467
p4420
sg1753
I01
sg1754
I00
sg586
I467
sb(dp4421
g1753
I01
sg88
g744
sssg287
g288
sg289
g288
sg290
(dp4422
g4415
(dp4423
sg4418
(dp4424
g4415
(dp4425
g88
g735
ssssg484
g4422
sg99
(dp4426
sg486
g288
sg487
g4422
sg488
(dp4427
g4415
(dp4428
g4418
g4425
ssg4418
(dp4429
ssbsg581
(lp4430
g4418
ag4415
asg854
(lp4431
(iconstruction
TP_REL
p4432
(dp4433
g860
g4415
sg88
g735
sg586
I469
sg861
g4418
sg69
VIS_469
p4434
sbasg586
I464
sg69
g1673
sbsg1768
(iconstruction
TP_SYNFORM
p4435
(dp4436
g586
I465
sg1771
(lp4437
(iconstruction
TP_PHON
p4438
(dp4439
g1781
I6
sg1778
I0
sg586
I470
sg1782
Vboxing
p4440
sg69
VS1_470
p4441
sba(iconstruction
TP_PHON
p4442
(dp4443
g1781
I4
sg1778
I1
sg586
I471
sg1782
Vring
p4444
sg69
g4406
sbasg69
g1673
sbsg1789
I1
sba(iconstruction
CXN
p4445
(dp4446
g1731
(iconstruction
TP_SYMLINKS
p4447
(dp4448
g1734
(dp4449
VN1_476
p4450
VS1_478
p4451
ssg586
I474
sg69
g1673
sbsg1740
VN
p4452
sg1742
I1
sg69
VPARK
p4453
sg1743
(iconstruction
TP_SEMFRAME
p4454
(dp4455
g99
g0
(g100
g2
Ntp4456
Rp4457
(dp4458
g104
(dp4459
(iconstruction
TP_NODE
p4460
(dp4461
g1752
I01
sg88
g744
sg69
VENT_475
p4462
sg1753
I01
sg1754
I00
sg586
I475
sb(dp4463
g1753
I01
sg88
g744
ss(iconstruction
TP_NODE
p4464
(dp4465
g1752
I00
sg88
g846
sg69
g4450
sg1753
I00
sg1754
I00
sg586
I476
sb(dp4466
g1753
I00
sg88
g846
sssg287
g288
sg289
g288
sg290
(dp4467
g4460
(dp4468
g4464
(dp4469
g88
g735
sssg4464
(dp4470
ssg484
g4467
sg99
(dp4471
sg486
g288
sg487
g4467
sg488
(dp4472
g4460
(dp4473
sg4464
(dp4474
g4460
g4469
sssbsg581
(lp4475
g4460
ag4464
asg854
(lp4476
(iconstruction
TP_REL
p4477
(dp4478
g860
g4464
sg88
g735
sg586
I477
sg861
g4460
sg69
VIS_477
p4479
sbasg586
I472
sg69
g1673
sbsg1768
(iconstruction
TP_SYNFORM
p4480
(dp4481
g586
I473
sg1771
(lp4482
(iconstruction
TP_PHON
p4483
(dp4484
g1781
I4
sg1778
I0
sg586
I478
sg1782
Vpark
p4485
sg69
g4451
sbasg69
g1673
sbsg1789
I1
sba(iconstruction
CXN
p4486
(dp4487
g1731
(iconstruction
TP_SYMLINKS
p4488
(dp4489
g1734
(dp4490
VN1_483
p4491
VS1_485
p4492
ssg586
I481
sg69
g1673
sbsg1740
VN
p4493
sg1742
I1
sg69
VSHIRT
p4494
sg1743
(iconstruction
TP_SEMFRAME
p4495
(dp4496
g99
g0
(g100
g2
Ntp4497
Rp4498
(dp4499
g104
(dp4500
(iconstruction
TP_NODE
p4501
(dp4502
g1752
I00
sg88
g792
sg69
g4491
sg1753
I00
sg1754
I00
sg586
I483
sb(dp4503
g1753
I00
sg88
g792
ss(iconstruction
TP_NODE
p4504
(dp4505
g1752
I01
sg88
g744
sg69
VENT_482
p4506
sg1753
I01
sg1754
I00
sg586
I482
sb(dp4507
g1753
I01
sg88
g744
sssg287
g288
sg289
g288
sg290
(dp4508
g4501
(dp4509
sg4504
(dp4510
g4501
(dp4511
g88
g735
ssssg484
g4508
sg99
(dp4512
sg486
g288
sg487
g4508
sg488
(dp4513
g4501
(dp4514
g4504
g4511
ssg4504
(dp4515
ssbsg581
(lp4516
g4504
ag4501
asg854
(lp4517
(iconstruction
TP_REL
p4518
(dp4519
g860
g4501
sg88
g735
sg586
I484
sg861
g4504
sg69
VIS_484
p4520
sbasg586
I479
sg69
g1673
sbsg1768
(iconstruction
TP_SYNFORM
p4521
(dp4522
g586
I480
sg1771
(lp4523
(iconstruction
TP_PHON
p4524
(dp4525
g1781
I5
sg1778
I0
sg586
I485
sg1782
Vshirt
p4526
sg69
g4492
sbasg69
g1673
sbsg1789
I1
sba(iconstruction
CXN
p4527
(dp4528
g1731
(iconstruction
TP_SYMLINKS
p4529
(dp4530
g1734
(dp4531
VN1_490
p4532
VS1_492
p4533
ssg586
I488
sg69
g1673
sbsg1740
VN
p4534
sg1742
I1
sg69
VSUIT
p4535
sg1743
(iconstruction
TP_SEMFRAME
p4536
(dp4537
g99
g0
(g100
g2
Ntp4538
Rp4539
(dp4540
g104
(dp4541
(iconstruction
TP_NODE
p4542
(dp4543
g1752
I01
sg88
g744
sg69
VENT_489
p4544
sg1753
I01
sg1754
I00
sg586
I489
sb(dp4545
g1753
I01
sg88
g744
ss(iconstruction
TP_NODE
p4546
(dp4547
g1752
I00
sg88
g795
sg69
g4532
sg1753
I00
sg1754
I00
sg586
I490
sb(dp4548
g1753
I00
sg88
g795
sssg287
g288
sg289
g288
sg290
(dp4549
g4542
(dp4550
g4546
(dp4551
g88
g735
sssg4546
(dp4552
ssg484
g4549
sg99
(dp4553
sg486
g288
sg487
g4549
sg488
(dp4554
g4542
(dp4555
sg4546
(dp4556
g4542
g4551
sssbsg581
(lp4557
g4542
ag4546
asg854
(lp4558
(iconstruction
TP_REL
p4559
(dp4560
g860
g4546
sg88
g735
sg586
I491
sg861
g4542
sg69
VIS_491
p4561
sbasg586
I486
sg69
g1673
sbsg1768
(iconstruction
TP_SYNFORM
p4562
(dp4563
g586
I487
sg1771
(lp4564
(iconstruction
TP_PHON
p4565
(dp4566
g1781
I4
sg1778
I0
sg586
I492
sg1782
Vsuit
p4567
sg69
g4533
sbasg69
g1673
sbsg1789
I1
sba(iconstruction
CXN
p4568
(dp4569
g1731
(iconstruction
TP_SYMLINKS
p4570
(dp4571
g1734
(dp4572
VN1_497
p4573
VS1_499
p4574
ssg586
I495
sg69
g1673
sbsg1740
VN
p4575
sg1742
I1
sg69
VCELLO
p4576
sg1743
(iconstruction
TP_SEMFRAME
p4577
(dp4578
g99
g0
(g100
g2
Ntp4579
Rp4580
(dp4581
g104
(dp4582
(iconstruction
TP_NODE
p4583
(dp4584
g1752
I00
sg88
g777
sg69
g4573
sg1753
I00
sg1754
I00
sg586
I497
sb(dp4585
g1753
I00
sg88
g777
ss(iconstruction
TP_NODE
p4586
(dp4587
g1752
I01
sg88
g744
sg69
VENT_496
p4588
sg1753
I01
sg1754
I00
sg586
I496
sb(dp4589
g1753
I01
sg88
g744
sssg287
g288
sg289
g288
sg290
(dp4590
g4583
(dp4591
sg4586
(dp4592
g4583
(dp4593
g88
g735
ssssg484
g4590
sg99
(dp4594
sg486
g288
sg487
g4590
sg488
(dp4595
g4583
(dp4596
g4586
g4593
ssg4586
(dp4597
ssbsg581
(lp4598
g4586
ag4583
asg854
(lp4599
(iconstruction
TP_REL
p4600
(dp4601
g860
g4583
sg88
g735
sg586
I498
sg861
g4586
sg69
VIS_498
p4602
sbasg586
I493
sg69
g1673
sbsg1768
(iconstruction
TP_SYNFORM
p4603
(dp4604
g586
I494
sg1771
(lp4605
(iconstruction
TP_PHON
p4606
(dp4607
g1781
I5
sg1778
I0
sg586
I499
sg1782
VCELLO
p4608
sg69
g4574
sbasg69
g1673
sbsg1789
I1
sba(iconstruction
CXN
p4609
(dp4610
g1731
(iconstruction
TP_SYMLINKS
p4611
(dp4612
g1734
(dp4613
VN1_504
p4614
VS1_506
p4615
ssg586
I502
sg69
g1673
sbsg1740
VN
p4616
sg1742
I1
sg69
VBAG
p4617
sg1743
(iconstruction
TP_SEMFRAME
p4618
(dp4619
g99
g0
(g100
g2
Ntp4620
Rp4621
(dp4622
g104
(dp4623
(iconstruction
TP_NODE
p4624
(dp4625
g1752
I01
sg88
g744
sg69
VENT_503
p4626
sg1753
I01
sg1754
I00
sg586
I503
sb(dp4627
g1753
I01
sg88
g744
ss(iconstruction
TP_NODE
p4628
(dp4629
g1752
I00
sg88
g768
sg69
g4614
sg1753
I00
sg1754
I00
sg586
I504
sb(dp4630
g1753
I00
sg88
g768
sssg287
g288
sg289
g288
sg290
(dp4631
g4624
(dp4632
g4628
(dp4633
g88
g735
sssg4628
(dp4634
ssg484
g4631
sg99
(dp4635
sg486
g288
sg487
g4631
sg488
(dp4636
g4624
(dp4637
sg4628
(dp4638
g4624
g4633
sssbsg581
(lp4639
g4624
ag4628
asg854
(lp4640
(iconstruction
TP_REL
p4641
(dp4642
g860
g4628
sg88
g735
sg586
I505
sg861
g4624
sg69
VIS_505
p4643
sbasg586
I500
sg69
g1673
sbsg1768
(iconstruction
TP_SYNFORM
p4644
(dp4645
g586
I501
sg1771
(lp4646
(iconstruction
TP_PHON
p4647
(dp4648
g1781
I3
sg1778
I0
sg586
I506
sg1782
Vbag
p4649
sg69
g4615
sbasg69
g1673
sbsg1789
I1
sba(iconstruction
CXN
p4650
(dp4651
g1731
(iconstruction
TP_SYMLINKS
p4652
(dp4653
g1734
(dp4654
VN1_511
p4655
VS2_514
p4656
ssg586
I509
sg69
g1673
sbsg1740
VN
p4657
sg1742
I1
sg69
VWATERING_CAN
p4658
sg1743
(iconstruction
TP_SEMFRAME
p4659
(dp4660
g99
g0
(g100
g2
Ntp4661
Rp4662
(dp4663
g104
(dp4664
(iconstruction
TP_NODE
p4665
(dp4666
g1752
I01
sg88
g744
sg69
VENT_510
p4667
sg1753
I01
sg1754
I00
sg586
I510
sb(dp4668
g1753
I01
sg88
g744
ss(iconstruction
TP_NODE
p4669
(dp4670
g1752
I00
sg88
g765
sg69
g4655
sg1753
I00
sg1754
I00
sg586
I511
sb(dp4671
g1753
I00
sg88
g765
sssg287
g288
sg289
g288
sg290
(dp4672
g4665
(dp4673
g4669
(dp4674
g88
g735
sssg4669
(dp4675
ssg484
g4672
sg99
(dp4676
sg486
g288
sg487
g4672
sg488
(dp4677
g4665
(dp4678
sg4669
(dp4679
g4665
g4674
sssbsg581
(lp4680
g4665
ag4669
asg854
(lp4681
(iconstruction
TP_REL
p4682
(dp4683
g860
g4669
sg88
g735
sg586
I512
sg861
g4665
sg69
VIS_512
p4684
sbasg586
I507
sg69
g1673
sbsg1768
(iconstruction
TP_SYNFORM
p4685
(dp4686
g586
I508
sg1771
(lp4687
(iconstruction
TP_PHON
p4688
(dp4689
g1781
I8
sg1778
I0
sg586
I513
sg1782
Vwatering
p4690
sg69
VS1_513
p4691
sba(iconstruction
TP_PHON
p4692
(dp4693
g1781
I3
sg1778
I1
sg586
I514
sg1782
Vcan
p4694
sg69
g4656
sbasg69
g1673
sbsg1789
I1
sba(iconstruction
CXN
p4695
(dp4696
g1731
(iconstruction
TP_SYMLINKS
p4697
(dp4698
g1734
(dp4699
VN1_519
p4700
VS1_521
p4701
ssg586
I517
sg69
g1673
sbsg1740
VN
p4702
sg1742
I1
sg69
VBALLERINA
p4703
sg1743
(iconstruction
TP_SEMFRAME
p4704
(dp4705
g99
g0
(g100
g2
Ntp4706
Rp4707
(dp4708
g104
(dp4709
(iconstruction
TP_NODE
p4710
(dp4711
g1752
I01
sg88
g744
sg69
VENT_518
p4712
sg1753
I01
sg1754
I00
sg586
I518
sb(dp4713
g1753
I01
sg88
g744
ss(iconstruction
TP_NODE
p4714
(dp4715
g1752
I00
sg88
g822
sg69
g4700
sg1753
I00
sg1754
I00
sg586
I519
sb(dp4716
g1753
I00
sg88
g822
sssg287
g288
sg289
g288
sg290
(dp4717
g4710
(dp4718
g4714
(dp4719
g88
g735
sssg4714
(dp4720
ssg484
g4717
sg99
(dp4721
sg486
g288
sg487
g4717
sg488
(dp4722
g4710
(dp4723
sg4714
(dp4724
g4710
g4719
sssbsg581
(lp4725
g4710
ag4714
asg854
(lp4726
(iconstruction
TP_REL
p4727
(dp4728
g860
g4714
sg88
g735
sg586
I520
sg861
g4710
sg69
VIS_520
p4729
sbasg586
I515
sg69
g1673
sbsg1768
(iconstruction
TP_SYNFORM
p4730
(dp4731
g586
I516
sg1771
(lp4732
(iconstruction
TP_PHON
p4733
(dp4734
g1781
I9
sg1778
I0
sg586
I521
sg1782
Vballerina
p4735
sg69
g4701
sbasg69
g1673
sbsg1789
I1
sba(iconstruction
CXN
p4736
(dp4737
g1731
(iconstruction
TP_SYMLINKS
p4738
(dp4739
g1734
(dp4740
VN1_526
p4741
VS1_528
p4742
ssg586
I524
sg69
g1673
sbsg1740
VN
p4743
sg1742
I1
sg69
VCELLIST
p4744
sg1743
(iconstruction
TP_SEMFRAME
p4745
(dp4746
g99
g0
(g100
g2
Ntp4747
Rp4748
(dp4749
g104
(dp4750
(iconstruction
TP_NODE
p4751
(dp4752
g1752
I00
sg88
g825
sg69
g4741
sg1753
I00
sg1754
I00
sg586
I526
sb(dp4753
g1753
I00
sg88
g825
ss(iconstruction
TP_NODE
p4754
(dp4755
g1752
I01
sg88
g744
sg69
VENT_525
p4756
sg1753
I01
sg1754
I00
sg586
I525
sb(dp4757
g1753
I01
sg88
g744
sssg287
g288
sg289
g288
sg290
(dp4758
g4751
(dp4759
sg4754
(dp4760
g4751
(dp4761
g88
g735
ssssg484
g4758
sg99
(dp4762
sg486
g288
sg487
g4758
sg488
(dp4763
g4751
(dp4764
g4754
g4761
ssg4754
(dp4765
ssbsg581
(lp4766
g4754
ag4751
asg854
(lp4767
(iconstruction
TP_REL
p4768
(dp4769
g860
g4751
sg88
g735
sg586
I527
sg861
g4754
sg69
VIS_527
p4770
sbasg586
I522
sg69
g1673
sbsg1768
(iconstruction
TP_SYNFORM
p4771
(dp4772
g586
I523
sg1771
(lp4773
(iconstruction
TP_PHON
p4774
(dp4775
g1781
I7
sg1778
I0
sg586
I528
sg1782
Vcellist
p4776
sg69
g4742
sbasg69
g1673
sbsg1789
I1
sba(iconstruction
CXN
p4777
(dp4778
g1731
(iconstruction
TP_SYMLINKS
p4779
(dp4780
g1734
(dp4781
VN1_533
p4782
VS1_535
p4783
ssg586
I531
sg69
g1673
sbsg1740
VN
p4784
sg1742
I1
sg69
VFENCER
p4785
sg1743
(iconstruction
TP_SEMFRAME
p4786
(dp4787
g99
g0
(g100
g2
Ntp4788
Rp4789
(dp4790
g104
(dp4791
(iconstruction
TP_NODE
p4792
(dp4793
g1752
I01
sg88
g744
sg69
VENT_532
p4794
sg1753
I01
sg1754
I00
sg586
I532
sb(dp4795
g1753
I01
sg88
g744
ss(iconstruction
TP_NODE
p4796
(dp4797
g1752
I00
sg88
g831
sg69
g4782
sg1753
I00
sg1754
I00
sg586
I533
sb(dp4798
g1753
I00
sg88
g831
sssg287
g288
sg289
g288
sg290
(dp4799
g4792
(dp4800
g4796
(dp4801
g88
g735
sssg4796
(dp4802
ssg484
g4799
sg99
(dp4803
sg486
g288
sg487
g4799
sg488
(dp4804
g4792
(dp4805
sg4796
(dp4806
g4792
g4801
sssbsg581
(lp4807
g4792
ag4796
asg854
(lp4808
(iconstruction
TP_REL
p4809
(dp4810
g860
g4796
sg88
g735
sg586
I534
sg861
g4792
sg69
VIS_534
p4811
sbasg586
I529
sg69
g1673
sbsg1768
(iconstruction
TP_SYNFORM
p4812
(dp4813
g586
I530
sg1771
(lp4814
(iconstruction
TP_PHON
p4815
(dp4816
g1781
I6
sg1778
I0
sg586
I535
sg1782
Vfencer
p4817
sg69
g4783
sbasg69
g1673
sbsg1789
I1
sba(iconstruction
CXN
p4818
(dp4819
g1731
(iconstruction
TP_SYMLINKS
p4820
(dp4821
g1734
(dp4822
VN1_540
p4823
VS1_542
p4824
ssg586
I538
sg69
g1673
sbsg1740
VN
p4825
sg1742
I1
sg69
VROBBER
p4826
sg1743
(iconstruction
TP_SEMFRAME
p4827
(dp4828
g99
g0
(g100
g2
Ntp4829
Rp4830
(dp4831
g104
(dp4832
(iconstruction
TP_NODE
p4833
(dp4834
g1752
I00
sg88
g834
sg69
g4823
sg1753
I00
sg1754
I00
sg586
I540
sb(dp4835
g1753
I00
sg88
g834
ss(iconstruction
TP_NODE
p4836
(dp4837
g1752
I01
sg88
g744
sg69
VENT_539
p4838
sg1753
I01
sg1754
I00
sg586
I539
sb(dp4839
g1753
I01
sg88
g744
sssg287
g288
sg289
g288
sg290
(dp4840
g4833
(dp4841
sg4836
(dp4842
g4833
(dp4843
g88
g735
ssssg484
g4840
sg99
(dp4844
sg486
g288
sg487
g4840
sg488
(dp4845
g4833
(dp4846
g4836
g4843
ssg4836
(dp4847
ssbsg581
(lp4848
g4836
ag4833
asg854
(lp4849
(iconstruction
TP_REL
p4850
(dp4851
g860
g4833
sg88
g735
sg586
I541
sg861
g4836
sg69
VIS_541
p4852
sbasg586
I536
sg69
g1673
sbsg1768
(iconstruction
TP_SYNFORM
p4853
(dp4854
g586
I537
sg1771
(lp4855
(iconstruction
TP_PHON
p4856
(dp4857
g1781
I5
sg1778
I0
sg586
I542
sg1782
Vthief
p4858
sg69
g4824
sbasg69
g1673
sbsg1789
I1
sba(iconstruction
CXN
p4859
(dp4860
g1731
(iconstruction
TP_SYMLINKS
p4861
(dp4862
g1734
(dp4863
VN1_547
p4864
VS1_549
p4865
ssg586
I545
sg69
g1673
sbsg1740
VN
p4866
sg1742
I1
sg69
VPOLICEMAN
p4867
sg1743
(iconstruction
TP_SEMFRAME
p4868
(dp4869
g99
g0
(g100
g2
Ntp4870
Rp4871
(dp4872
g104
(dp4873
(iconstruction
TP_NODE
p4874
(dp4875
g1752
I01
sg88
g744
sg69
VENT_546
p4876
sg1753
I01
sg1754
I00
sg586
I546
sb(dp4877
g1753
I01
sg88
g744
ss(iconstruction
TP_NODE
p4878
(dp4879
g1752
I00
sg88
g816
sg69
g4864
sg1753
I00
sg1754
I00
sg586
I547
sb(dp4880
g1753
I00
sg88
g816
sssg287
g288
sg289
g288
sg290
(dp4881
g4874
(dp4882
g4878
(dp4883
g88
g735
sssg4878
(dp4884
ssg484
g4881
sg99
(dp4885
sg486
g288
sg487
g4881
sg488
(dp4886
g4874
(dp4887
sg4878
(dp4888
g4874
g4883
sssbsg581
(lp4889
g4874
ag4878
asg854
(lp4890
(iconstruction
TP_REL
p4891
(dp4892
g860
g4878
sg88
g735
sg586
I548
sg861
g4874
sg69
VIS_548
p4893
sbasg586
I543
sg69
g1673
sbsg1768
(iconstruction
TP_SYNFORM
p4894
(dp4895
g586
I544
sg1771
(lp4896
(iconstruction
TP_PHON
p4897
(dp4898
g1781
I9
sg1778
I0
sg586
I549
sg1782
Vpoliceman
p4899
sg69
g4865
sbasg69
g1673
sbsg1789
I1
sba(iconstruction
CXN
p4900
(dp4901
g1731
(iconstruction
TP_SYMLINKS
p4902
(dp4903
g1734
(dp4904
VN1_554
p4905
VS1_556
p4906
ssg586
I552
sg69
g1673
sbsg1740
VN
p4907
sg1742
I1
sg69
VHUNTER
p4908
sg1743
(iconstruction
TP_SEMFRAME
p4909
(dp4910
g99
g0
(g100
g2
Ntp4911
Rp4912
(dp4913
g104
(dp4914
(iconstruction
TP_NODE
p4915
(dp4916
g1752
I01
sg88
g744
sg69
VENT_553
p4917
sg1753
I01
sg1754
I00
sg586
I553
sb(dp4918
g1753
I01
sg88
g744
ss(iconstruction
TP_NODE
p4919
(dp4920
g1752
I00
sg88
g819
sg69
g4905
sg1753
I00
sg1754
I00
sg586
I554
sb(dp4921
g1753
I00
sg88
g819
sssg287
g288
sg289
g288
sg290
(dp4922
g4915
(dp4923
g4919
(dp4924
g88
g735
sssg4919
(dp4925
ssg484
g4922
sg99
(dp4926
sg486
g288
sg487
g4922
sg488
(dp4927
g4915
(dp4928
sg4919
(dp4929
g4915
g4924
sssbsg581
(lp4930
g4915
ag4919
asg854
(lp4931
(iconstruction
TP_REL
p4932
(dp4933
g860
g4919
sg88
g735
sg586
I555
sg861
g4915
sg69
VIS_555
p4934
sbasg586
I550
sg69
g1673
sbsg1768
(iconstruction
TP_SYNFORM
p4935
(dp4936
g586
I551
sg1771
(lp4937
(iconstruction
TP_PHON
p4938
(dp4939
g1781
I6
sg1778
I0
sg586
I556
sg1782
Vhunter
p4940
sg69
g4906
sbasg69
g1673
sbsg1789
I1
sba(iconstruction
CXN
p4941
(dp4942
g1731
(iconstruction
TP_SYMLINKS
p4943
(dp4944
g1734
(dp4945
VN1_561
p4946
VS1_563
p4947
ssg586
I559
sg69
g1673
sbsg1740
VN
p4948
sg1742
I1
sg69
VDOG
p4949
sg1743
(iconstruction
TP_SEMFRAME
p4950
(dp4951
g99
g0
(g100
g2
Ntp4952
Rp4953
(dp4954
g104
(dp4955
(iconstruction
TP_NODE
p4956
(dp4957
g1752
I00
sg88
g804
sg69
g4946
sg1753
I00
sg1754
I00
sg586
I561
sb(dp4958
g1753
I00
sg88
g804
ss(iconstruction
TP_NODE
p4959
(dp4960
g1752
I01
sg88
g744
sg69
VENT_560
p4961
sg1753
I01
sg1754
I00
sg586
I560
sb(dp4962
g1753
I01
sg88
g744
sssg287
g288
sg289
g288
sg290
(dp4963
g4956
(dp4964
sg4959
(dp4965
g4956
(dp4966
g88
g735
ssssg484
g4963
sg99
(dp4967
sg486
g288
sg487
g4963
sg488
(dp4968
g4956
(dp4969
g4959
g4966
ssg4959
(dp4970
ssbsg581
(lp4971
g4959
ag4956
asg854
(lp4972
(iconstruction
TP_REL
p4973
(dp4974
g860
g4956
sg88
g735
sg586
I562
sg861
g4959
sg69
VIS_562
p4975
sbasg586
I557
sg69
g1673
sbsg1768
(iconstruction
TP_SYNFORM
p4976
(dp4977
g586
I558
sg1771
(lp4978
(iconstruction
TP_PHON
p4979
(dp4980
g1781
I3
sg1778
I0
sg586
I563
sg1782
Vdog
p4981
sg69
g4947
sbasg69
g1673
sbsg1789
I1
sba(iconstruction
CXN
p4982
(dp4983
g1731
(iconstruction
TP_SYMLINKS
p4984
(dp4985
g1734
(dp4986
VN1_568
p4987
VS1_570
p4988
ssg586
I566
sg69
g1673
sbsg1740
VN
p4989
sg1742
I1
sg69
VHOOK
p4990
sg1743
(iconstruction
TP_SEMFRAME
p4991
(dp4992
g99
g0
(g100
g2
Ntp4993
Rp4994
(dp4995
g104
(dp4996
(iconstruction
TP_NODE
p4997
(dp4998
g1752
I01
sg88
g744
sg69
VENT_567
p4999
sg1753
I01
sg1754
I00
sg586
I567
sb(dp5000
g1753
I01
sg88
g744
ss(iconstruction
TP_NODE
p5001
(dp5002
g1752
I00
sg88
g774
sg69
g4987
sg1753
I00
sg1754
I00
sg586
I568
sb(dp5003
g1753
I00
sg88
g774
sssg287
g288
sg289
g288
sg290
(dp5004
g4997
(dp5005
g5001
(dp5006
g88
g735
sssg5001
(dp5007
ssg484
g5004
sg99
(dp5008
sg486
g288
sg487
g5004
sg488
(dp5009
g4997
(dp5010
sg5001
(dp5011
g4997
g5006
sssbsg581
(lp5012
g4997
ag5001
asg854
(lp5013
(iconstruction
TP_REL
p5014
(dp5015
g860
g5001
sg88
g735
sg586
I569
sg861
g4997
sg69
VIS_569
p5016
sbasg586
I564
sg69
g1673
sbsg1768
(iconstruction
TP_SYNFORM
p5017
(dp5018
g586
I565
sg1771
(lp5019
(iconstruction
TP_PHON
p5020
(dp5021
g1781
I4
sg1778
I0
sg586
I570
sg1782
Vhook
p5022
sg69
g4988
sbasg69
g1673
sbsg1789
I1
sba(iconstruction
CXN
p5023
(dp5024
g1731
(iconstruction
TP_SYMLINKS
p5025
(dp5026
g1734
(dp5027
VN1_575
p5028
VS1_577
p5029
ssg586
I573
sg69
g1673
sbsg1740
VN
p5030
sg1742
I1
sg69
VBOOKSHELF
p5031
sg1743
(iconstruction
TP_SEMFRAME
p5032
(dp5033
g99
g0
(g100
g2
Ntp5034
Rp5035
(dp5036
g104
(dp5037
(iconstruction
TP_NODE
p5038
(dp5039
g1752
I00
sg88
g780
sg69
g5028
sg1753
I00
sg1754
I00
sg586
I575
sb(dp5040
g1753
I00
sg88
g780
ss(iconstruction
TP_NODE
p5041
(dp5042
g1752
I01
sg88
g744
sg69
VENT_574
p5043
sg1753
I01
sg1754
I00
sg586
I574
sb(dp5044
g1753
I01
sg88
g744
sssg287
g288
sg289
g288
sg290
(dp5045
g5038
(dp5046
sg5041
(dp5047
g5038
(dp5048
g88
g735
ssssg484
g5045
sg99
(dp5049
sg486
g288
sg487
g5045
sg488
(dp5050
g5038
(dp5051
g5041
g5048
ssg5041
(dp5052
ssbsg581
(lp5053
g5041
ag5038
asg854
(lp5054
(iconstruction
TP_REL
p5055
(dp5056
g860
g5038
sg88
g735
sg586
I576
sg861
g5041
sg69
VIS_576
p5057
sbasg586
I571
sg69
g1673
sbsg1768
(iconstruction
TP_SYNFORM
p5058
(dp5059
g586
I572
sg1771
(lp5060
(iconstruction
TP_PHON
p5061
(dp5062
g1781
I9
sg1778
I0
sg586
I577
sg1782
Vbookshelf
p5063
sg69
g5029
sbasg69
g1673
sbsg1789
I1
sba(iconstruction
CXN
p5064
(dp5065
g1731
(iconstruction
TP_SYMLINKS
p5066
(dp5067
g1734
(dp5068
VN1_582
p5069
VS1_584
p5070
ssg586
I580
sg69
g1673
sbsg1740
VN
p5071
sg1742
I1
sg69
VWAGON
p5072
sg1743
(iconstruction
TP_SEMFRAME
p5073
(dp5074
g99
g0
(g100
g2
Ntp5075
Rp5076
(dp5077
g104
(dp5078
(iconstruction
TP_NODE
p5079
(dp5080
g1752
I01
sg88
g744
sg69
VENT_581
p5081
sg1753
I01
sg1754
I00
sg586
I581
sb(dp5082
g1753
I01
sg88
g744
ss(iconstruction
TP_NODE
p5083
(dp5084
g1752
I00
sg88
g762
sg69
g5069
sg1753
I00
sg1754
I00
sg586
I582
sb(dp5085
g1753
I00
sg88
g762
sssg287
g288
sg289
g288
sg290
(dp5086
g5079
(dp5087
g5083
(dp5088
g88
g735
sssg5083
(dp5089
ssg484
g5086
sg99
(dp5090
sg486
g288
sg487
g5086
sg488
(dp5091
g5079
(dp5092
sg5083
(dp5093
g5079
g5088
sssbsg581
(lp5094
g5079
ag5083
asg854
(lp5095
(iconstruction
TP_REL
p5096
(dp5097
g860
g5083
sg88
g735
sg586
I583
sg861
g5079
sg69
VIS_583
p5098
sbasg586
I578
sg69
g1673
sbsg1768
(iconstruction
TP_SYNFORM
p5099
(dp5100
g586
I579
sg1771
(lp5101
(iconstruction
TP_PHON
p5102
(dp5103
g1781
I5
sg1778
I0
sg586
I584
sg1782
Vwagon
p5104
sg69
g5070
sbasg69
g1673
sbsg1789
I1
sba(iconstruction
CXN
p5105
(dp5106
g1731
(iconstruction
TP_SYMLINKS
p5107
(dp5108
g1734
(dp5109
VN1_589
p5110
VS1_591
p5111
ssg586
I587
sg69
g1673
sbsg1740
VN
p5112
sg1742
I1
sg69
VTREE
p5113
sg1743
(iconstruction
TP_SEMFRAME
p5114
(dp5115
g99
g0
(g100
g2
Ntp5116
Rp5117
(dp5118
g104
(dp5119
(iconstruction
TP_NODE
p5120
(dp5121
g1752
I00
sg88
g771
sg69
g5110
sg1753
I00
sg1754
I00
sg586
I589
sb(dp5122
g1753
I00
sg88
g771
ss(iconstruction
TP_NODE
p5123
(dp5124
g1752
I01
sg88
g744
sg69
VENT_588
p5125
sg1753
I01
sg1754
I00
sg586
I588
sb(dp5126
g1753
I01
sg88
g744
sssg287
g288
sg289
g288
sg290
(dp5127
g5120
(dp5128
sg5123
(dp5129
g5120
(dp5130
g88
g735
ssssg484
g5127
sg99
(dp5131
sg486
g288
sg487
g5127
sg488
(dp5132
g5120
(dp5133
g5123
g5130
ssg5123
(dp5134
ssbsg581
(lp5135
g5123
ag5120
asg854
(lp5136
(iconstruction
TP_REL
p5137
(dp5138
g860
g5120
sg88
g735
sg586
I590
sg861
g5123
sg69
VIS_590
p5139
sbasg586
I585
sg69
g1673
sbsg1768
(iconstruction
TP_SYNFORM
p5140
(dp5141
g586
I586
sg1771
(lp5142
(iconstruction
TP_PHON
p5143
(dp5144
g1781
I4
sg1778
I0
sg586
I591
sg1782
Vtree
p5145
sg69
g5111
sbasg69
g1673
sbsg1789
I1
sbasbsg69
g1686
sg71
(lp5146
g0
(g73
g2
Ntp5147
Rp5148
(dp5149
g1575
Nsg69
g1581
sg78
Nsg79
Nsg1577
Nsg296
g1520
sg586
I20
sg1521
g1792
sbag0
(g73
g2
Ntp5150
Rp5151
(dp5152
g69
S'to_cxn_retrieval_C'
p5153
sg78
Nsg79
g1723
sg296
g1520
sg586
I21
sg1521
g1792
sbasg1526
(dp5154
g1581
Nsg5153
Nssg1528
(lp5155
sg1531
F1.0
sg1532
(lp5156
sg1534
(dp5157
g1159
F0.3
ssg1536
I0
sg1537
I0
sg1157
g1540
sg586
I4
sS'schemas'
p5158
g1723
sbsg1159
F0.3
sbag0
(g1724
g2
Ntp5159
Rp5160
(dp5161
g69
g1810
sg86
g1800
sg1157
Nsg586
I100
sg1158
g1792
sg1159
F0.3
sbag0
(g1724
g2
Ntp5162
Rp5163
(dp5164
g69
g1861
sg86
g1851
sg1157
Nsg586
I101
sg1158
g1792
sg1159
F0.3
sbag0
(g1724
g2
Ntp5165
Rp5166
(dp5167
g69
g1914
sg86
g1902
sg1157
Nsg586
I102
sg1158
g1792
sg1159
F0.3
sbag0
(g1724
g2
Ntp5168
Rp5169
(dp5170
g69
g1993
sg86
g1981
sg1157
Nsg586
I103
sg1158
g1792
sg1159
F0.3
sbag0
(g1724
g2
Ntp5171
Rp5172
(dp5173
g69
g2068
sg86
g2056
sg1157
Nsg586
I104
sg1158
g1792
sg1159
F0.3
sbag0
(g1724
g2
Ntp5174
Rp5175
(dp5176
g69
g2157
sg86
g2143
sg1157
Nsg586
I105
sg1158
g1792
sg1159
F0.3
sbag0
(g1724
g2
Ntp5177
Rp5178
(dp5179
g69
g2248
sg86
g2234
sg1157
Nsg586
I106
sg1158
g1792
sg1159
F0.3
sbag0
(g1724
g2
Ntp5180
Rp5181
(dp5182
g69
g2339
sg86
g2329
sg1157
Nsg586
I107
sg1158
g1792
sg1159
F0.3
sbag0
(g1724
g2
Ntp5183
Rp5184
(dp5185
g69
g2401
sg86
g2391
sg1157
Nsg586
I108
sg1158
g1792
sg1159
F0.3
sbag0
(g1724
g2
Ntp5186
Rp5187
(dp5188
g69
g2460
sg86
g2450
sg1157
Nsg586
I109
sg1158
g1792
sg1159
F0.3
sbag0
(g1724
g2
Ntp5189
Rp5190
(dp5191
g69
g2512
sg86
g2502
sg1157
Nsg586
I110
sg1158
g1792
sg1159
F0.3
sbag0
(g1724
g2
Ntp5192
Rp5193
(dp5194
g69
g2559
sg86
g2549
sg1157
Nsg586
I111
sg1158
g1792
sg1159
F0.3
sbag0
(g1724
g2
Ntp5195
Rp5196
(dp5197
g69
g2608
sg86
g2596
sg1157
Nsg586
I112
sg1158
g1792
sg1159
F0.3
sbag0
(g1724
g2
Ntp5198
Rp5199
(dp5200
g69
g2688
sg86
g2678
sg1157
Nsg586
I113
sg1158
g1792
sg1159
F0.3
sbag0
(g1724
g2
Ntp5201
Rp5202
(dp5203
g69
g2756
sg86
g2744
sg1157
Nsg586
I114
sg1158
g1792
sg1159
F0.3
sbag0
(g1724
g2
Ntp5204
Rp5205
(dp5206
g69
g2850
sg86
g2838
sg1157
Nsg586
I115
sg1158
g1792
sg1159
F0.3
sbag0
(g1724
g2
Ntp5207
Rp5208
(dp5209
g69
g2932
sg86
g2920
sg1157
Nsg586
I116
sg1158
g1792
sg1159
F0.3
sbag0
(g1724
g2
Ntp5210
Rp5211
(dp5212
g69
g3024
sg86
g3014
sg1157
Nsg586
I117
sg1158
g1792
sg1159
F0.3
sbag0
(g1724
g2
Ntp5213
Rp5214
(dp5215
g69
g3089
sg86
g3079
sg1157
Nsg586
I118
sg1158
g1792
sg1159
F0.3
sbag0
(g1724
g2
Ntp5216
Rp5217
(dp5218
g69
g3168
sg86
g3160
sg1157
Nsg586
I119
sg1158
g1792
sg1159
F0.3
sbag0
(g1724
g2
Ntp5219
Rp5220
(dp5221
g69
g3209
sg86
g3201
sg1157
Nsg586
I120
sg1158
g1792
sg1159
F0.3
sbag0
(g1724
g2
Ntp5222
Rp5223
(dp5224
g69
g3250
sg86
g3242
sg1157
Nsg586
I121
sg1158
g1792
sg1159
F0.3
sbag0
(g1724
g2
Ntp5225
Rp5226
(dp5227
g69
g3291
sg86
g3283
sg1157
Nsg586
I122
sg1158
g1792
sg1159
F0.3
sbag0
(g1724
g2
Ntp5228
Rp5229
(dp5230
g69
g3332
sg86
g3324
sg1157
Nsg586
I123
sg1158
g1792
sg1159
F0.3
sbag0
(g1724
g2
Ntp5231
Rp5232
(dp5233
g69
g3373
sg86
g3365
sg1157
Nsg586
I124
sg1158
g1792
sg1159
F0.3
sbag0
(g1724
g2
Ntp5234
Rp5235
(dp5236
g69
g3414
sg86
g3406
sg1157
Nsg586
I125
sg1158
g1792
sg1159
F0.3
sbag0
(g1724
g2
Ntp5237
Rp5238
(dp5239
g69
g3459
sg86
g3451
sg1157
Nsg586
I126
sg1158
g1792
sg1159
F0.3
sbag0
(g1724
g2
Ntp5240
Rp5241
(dp5242
g69
g3504
sg86
g3496
sg1157
Nsg586
I127
sg1158
g1792
sg1159
F0.3
sbag0
(g1724
g2
Ntp5243
Rp5244
(dp5245
g69
g3545
sg86
g3537
sg1157
Nsg586
I128
sg1158
g1792
sg1159
F0.3
sbag0
(g1724
g2
Ntp5246
Rp5247
(dp5248
g69
g3586
sg86
g3578
sg1157
Nsg586
I129
sg1158
g1792
sg1159
F0.3
sbag0
(g1724
g2
Ntp5249
Rp5250
(dp5251
g69
g3627
sg86
g3619
sg1157
Nsg586
I130
sg1158
g1792
sg1159
F0.3
sbag0
(g1724
g2
Ntp5252
Rp5253
(dp5254
g69
g3668
sg86
g3660
sg1157
Nsg586
I131
sg1158
g1792
sg1159
F0.3
sbag0
(g1724
g2
Ntp5255
Rp5256
(dp5257
g69
g3709
sg86
g3701
sg1157
Nsg586
I132
sg1158
g1792
sg1159
F0.3
sbag0
(g1724
g2
Ntp5258
Rp5259
(dp5260
g69
g3750
sg86
g3742
sg1157
Nsg586
I133
sg1158
g1792
sg1159
F0.3
sbag0
(g1724
g2
Ntp5261
Rp5262
(dp5263
g69
g3781
sg86
g3773
sg1157
Nsg586
I134
sg1158
g1792
sg1159
F0.3
sbag0
(g1724
g2
Ntp5264
Rp5265
(dp5266
g69
g3812
sg86
g3804
sg1157
Nsg586
I135
sg1158
g1792
sg1159
F0.3
sbag0
(g1724
g2
Ntp5267
Rp5268
(dp5269
g69
g3843
sg86
g3835
sg1157
Nsg586
I136
sg1158
g1792
sg1159
F0.3
sbag0
(g1724
g2
Ntp5270
Rp5271
(dp5272
g69
g3874
sg86
g3866
sg1157
Nsg586
I137
sg1158
g1792
sg1159
F0.3
sbag0
(g1724
g2
Ntp5273
Rp5274
(dp5275
g69
g3905
sg86
g3897
sg1157
Nsg586
I138
sg1158
g1792
sg1159
F0.3
sbag0
(g1724
g2
Ntp5276
Rp5277
(dp5278
g69
g3936
sg86
g3928
sg1157
Nsg586
I139
sg1158
g1792
sg1159
F0.3
sbag0
(g1724
g2
Ntp5279
Rp5280
(dp5281
g69
g3967
sg86
g3959
sg1157
Nsg586
I140
sg1158
g1792
sg1159
F0.3
sbag0
(g1724
g2
Ntp5282
Rp5283
(dp5284
g69
g3998
sg86
g3990
sg1157
Nsg586
I141
sg1158
g1792
sg1159
F0.3
sbag0
(g1724
g2
Ntp5285
Rp5286
(dp5287
g69
g4039
sg86
g4031
sg1157
Nsg586
I142
sg1158
g1792
sg1159
F0.3
sbag0
(g1724
g2
Ntp5288
Rp5289
(dp5290
g69
g4080
sg86
g4072
sg1157
Nsg586
I143
sg1158
g1792
sg1159
F0.3
sbag0
(g1724
g2
Ntp5291
Rp5292
(dp5293
g69
g4121
sg86
g4113
sg1157
Nsg586
I144
sg1158
g1792
sg1159
F0.3
sbag0
(g1724
g2
Ntp5294
Rp5295
(dp5296
g69
g4162
sg86
g4154
sg1157
Nsg586
I145
sg1158
g1792
sg1159
F0.3
sbag0
(g1724
g2
Ntp5297
Rp5298
(dp5299
g69
g4203
sg86
g4195
sg1157
Nsg586
I146
sg1158
g1792
sg1159
F0.3
sbag0
(g1724
g2
Ntp5300
Rp5301
(dp5302
g69
g4244
sg86
g4236
sg1157
Nsg586
I147
sg1158
g1792
sg1159
F0.3
sbag0
(g1724
g2
Ntp5303
Rp5304
(dp5305
g69
g4285
sg86
g4277
sg1157
Nsg586
I148
sg1158
g1792
sg1159
F0.3
sbag0
(g1724
g2
Ntp5306
Rp5307
(dp5308
g69
g4326
sg86
g4318
sg1157
Nsg586
I149
sg1158
g1792
sg1159
F0.3
sbag0
(g1724
g2
Ntp5309
Rp5310
(dp5311
g69
g4367
sg86
g4359
sg1157
Nsg586
I150
sg1158
g1792
sg1159
F0.3
sbag0
(g1724
g2
Ntp5312
Rp5313
(dp5314
g69
g4408
sg86
g4400
sg1157
Nsg586
I151
sg1158
g1792
sg1159
F0.3
sbag0
(g1724
g2
Ntp5315
Rp5316
(dp5317
g69
g4453
sg86
g4445
sg1157
Nsg586
I152
sg1158
g1792
sg1159
F0.3
sbag0
(g1724
g2
Ntp5318
Rp5319
(dp5320
g69
g4494
sg86
g4486
sg1157
Nsg586
I153
sg1158
g1792
sg1159
F0.3
sbag0
(g1724
g2
Ntp5321
Rp5322
(dp5323
g69
g4535
sg86
g4527
sg1157
Nsg586
I154
sg1158
g1792
sg1159
F0.3
sbag0
(g1724
g2
Ntp5324
Rp5325
(dp5326
g69
g4576
sg86
g4568
sg1157
Nsg586
I155
sg1158
g1792
sg1159
F0.3
sbag0
(g1724
g2
Ntp5327
Rp5328
(dp5329
g69
g4617
sg86
g4609
sg1157
Nsg586
I156
sg1158
g1792
sg1159
F0.3
sbag0
(g1724
g2
Ntp5330
Rp5331
(dp5332
g69
g4658
sg86
g4650
sg1157
Nsg586
I157
sg1158
g1792
sg1159
F0.3
sbag0
(g1724
g2
Ntp5333
Rp5334
(dp5335
g69
g4703
sg86
g4695
sg1157
Nsg586
I158
sg1158
g1792
sg1159
F0.3
sbag0
(g1724
g2
Ntp5336
Rp5337
(dp5338
g69
g4744
sg86
g4736
sg1157
Nsg586
I159
sg1158
g1792
sg1159
F0.3
sbag0
(g1724
g2
Ntp5339
Rp5340
(dp5341
g69
g4785
sg86
g4777
sg1157
Nsg586
I160
sg1158
g1792
sg1159
F0.3
sbag0
(g1724
g2
Ntp5342
Rp5343
(dp5344
g69
g4826
sg86
g4818
sg1157
Nsg586
I161
sg1158
g1792
sg1159
F0.3
sbag0
(g1724
g2
Ntp5345
Rp5346
(dp5347
g69
g4867
sg86
g4859
sg1157
Nsg586
I162
sg1158
g1792
sg1159
F0.3
sbag0
(g1724
g2
Ntp5348
Rp5349
(dp5350
g69
g4908
sg86
g4900
sg1157
Nsg586
I163
sg1158
g1792
sg1159
F0.3
sbag0
(g1724
g2
Ntp5351
Rp5352
(dp5353
g69
g4949
sg86
g4941
sg1157
Nsg586
I164
sg1158
g1792
sg1159
F0.3
sbag0
(g1724
g2
Ntp5354
Rp5355
(dp5356
g69
g4990
sg86
g4982
sg1157
Nsg586
I165
sg1158
g1792
sg1159
F0.3
sbag0
(g1724
g2
Ntp5357
Rp5358
(dp5359
g69
g5031
sg86
g5023
sg1157
Nsg586
I166
sg1158
g1792
sg1159
F0.3
sbag0
(g1724
g2
Ntp5360
Rp5361
(dp5362
g69
g5072
sg86
g5064
sg1157
Nsg586
I167
sg1158
g1792
sg1159
F0.3
sbag0
(g1724
g2
Ntp5363
Rp5364
(dp5365
g69
g5113
sg86
g5105
sg1157
Nsg586
I168
sg1158
g1792
sg1159
F0.3
sbasg1577
Nsg296
g1556
sg586
I22
sg1521
g1708
sbag1703
asg1534
(dp5366
sg1536
I0
sg1537
I0
sg1157
g1540
sg586
I5
sbsbsS'port_from'
p5367
g1579
sg1157
g1540
sg586
I1
sbag0
(g1695
g2
Ntp5368
Rp5369
(dp5370
g1699
I0
sg69
g1673
sg1700
I0
sg1701
g1721
sg5367
g5148
sg1157
g1540
sg586
I2
sbag0
(g1695
g2
Ntp5371
Rp5372
(dp5373
g1699
I0
sg69
g1673
sg1700
I0
sg1701
g0
(g73
g2
Ntp5374
Rp5375
(dp5376
g1575
Nsg69
S'from_cxn_retrieval_P'
p5377
sg78
Nsg79
Nsg1577
Nsg296
g1556
sg586
I14
sg1521
g0
(clanguage_schemas
GRAMMATICAL_WM_P
p5378
g2
Ntp5379
Rp5380
(dp5381
g67
(dp5382
g5377
NsS'from_phonological_WM_P'
p5383
Nsg1705
Nsg1564
Nssg1566
(lp5384
sg69
g1682
sg1569
(lp5385
sg71
(lp5386
g0
(g73
g2
Ntp5387
Rp5388
(dp5389
g1575
Nsg69
g1525
sg78
Nsg79
Nsg1577
Nsg296
g1520
sg586
I17
sg1521
g5380
sbag0
(g73
g2
Ntp5390
Rp5391
(dp5392
g1575
Nsg69
S'to_phonological_WM_P'
p5393
sg78
Nsg79
Nsg1577
Nsg296
g1520
sg586
I18
sg1521
g5380
sbag0
(g73
g2
Ntp5394
Rp5395
(dp5396
g69
g1593
sg78
Nsg79
Nsg296
g1520
sg586
I19
sg1521
g5380
sbasg1526
(dp5397
g1593
Nsg5393
Nsg1525
NssS'time_to_next_prod'
p5398
I8
sg1531
F1.0
sg1595
(lp5399
sg1532
(lp5400
g0
(g73
g2
Ntp5401
Rp5402
(dp5403
g1575
Nsg69
g1705
sg78
Nsg79
(dp5404
g581
(dp5405
sg854
(dp5406
ssg1577
Nsg296
g1556
sg586
I13
sg1521
g5380
sbag5375
ag0
(g73
g2
Ntp5407
Rp5408
(dp5409
g1575
Nsg69
g1564
sg78
Nsg79
(dp5410
S'params_style'
p5411
(dp5412
S'continuity'
p5413
F0.3
sS'form_length'
p5414
F0.0
sS'sem_length'
p5415
F0.0
sS'activation'
p5416
F0.7
ssS'pressure'
p5417
I0
sg1610
I00
ssg1577
Nsg296
g1556
sg586
I15
sg1521
g5380
sbag0
(g73
g2
Ntp5418
Rp5419
(dp5420
g1575
Nsg69
g5383
sg78
Nsg79
(lp5421
g4030
ag2123
ag3241
ag2132
ag2136
ag4153
asg1577
Nsg296
g1556
sg586
I16
sg1521
g5380
sbasS'refractory_period'
p5422
I10
sg1611
(dp5423
g1613
(dp5424
sg1615
(dp5425
g1617
(lp5426
sg1619
(dp5427
g1621
(lp5428
sg1623
(lp5429
sg1625
(lp5430
ssg1627
(lp5431
sg1536
(lp5432
sg1630
(lp5433
sssg1534
(dp5434
g1633
(dp5435
g1639
F1.0
sg1640
F1.0
sS'sub_threshold_r'
p5436
F0.8
sg1642
F0.0
sS'deact_weight'
p5437
F0.0
sg1641
F0.3
sg1643
F0.01
sg5422
I10
sg1635
F1.0
sg1636
Nsg1637
F-10.0
sg1638
F1.0
ssg1644
(dp5438
g1646
I100
sg1647
I10
sg1648
F0.001
sg1649
F0.0
sg1650
F1.0
sg1651
F1.0
sg1652
F1.0
ssS'style'
p5439
(dp5440
g5413
F0.3
sg5414
F0.0
sg5415
F0.0
sg5416
F0.7
sssg1536
I0
sg1537
I0
sg1157
g1540
sg586
I3
sbsbsg5367
g1714
sg1157
g1540
sg586
I3
sbag0
(g1695
g2
Ntp5441
Rp5442
(dp5443
g1699
I0
sg69
g1673
sg1700
I0
sg1701
g5402
sg5367
g1573
sg1157
g1540
sg586
I4
sbag0
(g1695
g2
Ntp5444
Rp5445
(dp5446
g1699
I0
sg69
g1673
sg1700
I0
sg1701
g1605
sg5367
g5388
sg1157
g1540
sg586
I5
sbag0
(g1695
g2
Ntp5447
Rp5448
(dp5449
g1699
I0
sg69
g1673
sg1700
I0
sg1701
g0
(g73
g2
Ntp5450
Rp5451
(dp5452
g1575
Nsg69
g1562
sg78
Nsg79
Nsg1577
Nsg296
g1556
sg586
I25
sg1521
g0
(clanguage_schemas
PHON_WM_P
p5453
g2
Ntp5454
Rp5455
(dp5456
g67
(dp5457
g1562
Nssg1566
(lp5458
sg69
g1678
sg1569
(lp5459
sg71
(lp5460
g0
(g73
g2
Ntp5461
Rp5462
(dp5463
g1575
Nsg69
S'to_utter'
p5464
sg78
Nsg79
Nsg1577
Nsg296
g1520
sg586
I26
sg1521
g5455
sbag0
(g73
g2
Ntp5465
Rp5466
(dp5467
g1575
Nsg69
g1576
sg78
Nsg79
Nsg1577
Nsg296
g1520
sg586
I27
sg1521
g5455
sbag0
(g73
g2
Ntp5468
Rp5469
(dp5470
g1575
Nsg69
g1585
sg78
Nsg79
Nsg1577
Nsg296
g1520
sg586
I28
sg1521
g5455
sbag0
(g73
g2
Ntp5471
Rp5472
(dp5473
g69
g1593
sg78
Nsg79
Nsg296
g1520
sg586
I29
sg1521
g5455
sbasg1526
(dp5474
g1593
Nsg1576
Nsg5464
Nsg1585
NssS'needs_filler'
p5475
I01
sg1531
F1.0
sg1595
(lp5476
sg1532
(lp5477
g5451
asS'filler'
p5478
S'....'
p5479
sg1611
(dp5480
g1613
(dp5481
sg1615
(dp5482
g1617
(lp5483
sg1619
(dp5484
g1621
(lp5485
sg1623
(lp5486
sg1625
(lp5487
ssg1627
(lp5488
sg1536
(lp5489
sg1630
(lp5490
sssg1534
(dp5491
g1633
(dp5492
g1635
F1.0
sg1636
Nsg1637
F0.0
sg1638
F1.0
sg1639
F1.0
sg1640
F0.0
sg1641
F0.0
sg1642
F0.0
sg1643
F0.01
ssg1644
(dp5493
g1646
F100.0
sg1647
F10.0
sg1648
F0.001
sg1649
F0.0
sg1650
F1.0
sg1651
F1.0
sg1652
F1.0
sssg1536
I0
sg1537
I0
sg1157
g1540
sS'phon_sequence'
p5494
(lp5495
sg586
I6
sbsbsg5367
g5391
sg1157
g1540
sg586
I6
sbag0
(g1695
g2
Ntp5496
Rp5497
(dp5498
g1699
I0
sg69
g1673
sg1700
I0
sg1701
g5419
sg5367
g5466
sg1157
g1540
sg586
I7
sbag0
(g1695
g2
Ntp5499
Rp5500
(dp5501
g1699
I0
sg69
g1673
sg1700
I0
sg1701
g0
(g73
g2
Ntp5502
Rp5503
(dp5504
g1575
Nsg69
g1705
sg78
Nsg79
I00
sg1577
Nsg296
g1556
sg586
I32
sg1521
g0
(clanguage_schemas
CONTROL
p5505
g2
Ntp5506
Rp5507
(dp5508
g67
(dp5509
g5383
Nsg1705
Nssg69
g1668
sg71
(lp5510
g0
(g73
g2
Ntp5511
Rp5512
(dp5513
g1575
Nsg69
g1525
sg78
Nsg79
Nsg1577
Nsg296
g1520
sg586
I34
sg1521
g5507
sbag0
(g73
g2
Ntp5514
Rp5515
(dp5516
g1575
Nsg69
g1576
sg78
Nsg79
Nsg1577
Nsg296
g1520
sg586
I35
sg1521
g5507
sbag0
(g73
g2
Ntp5517
Rp5518
(dp5519
g69
S'to_grammatical_WM_C'
p5520
sg78
Nsg79
I00
sg296
g1520
sg586
I36
sg1521
g5507
sbasg1526
(dp5521
g1576
Nsg5520
Nsg1525
Nssg1531
F1.0
sg1532
(lp5522
g5503
ag0
(g73
g2
Ntp5523
Rp5524
(dp5525
g1575
Nsg69
g5383
sg78
Nsg79
Nsg1577
Nsg296
g1556
sg586
I33
sg1521
g5507
sbasS'state'
p5526
(dp5527
g1610
I00
sS'unexpressed_sem'
p5528
I00
sS'mode'
p5529
g1610
sS'last_prod_time'
p5530
I0
ssg1534
(dp5531
g5439
(dp5532
g5413
F0.3
sg5414
F0.0
sg5416
F0.7
sg5415
F0.0
ssS'task'
p5533
(dp5534
S'time_pressure'
p5535
cnumpy.core.multiarray
scalar
p5536
(cnumpy
dtype
p5537
(S'f8'
p5538
I0
I1
tp5539
Rp5540
(I3
S'<'
p5541
NNNI-1
I-1
I0
tp5542
bS'\x00\x00\x00\x00\x00@\x8f@'
p5543
tp5544
Rp5545
sS'start_produce'
p5546
I1
sssg1536
I0
sg1537
I0
sg1157
g1540
sg586
I8
sbsbsg5367
g1583
sg1157
g1540
sg586
I8
sbag0
(g1695
g2
Ntp5547
Rp5548
(dp5549
g1699
I0
sg69
g1673
sg1700
I0
sg1701
g0
(g73
g2
Ntp5550
Rp5551
(dp5552
g1575
Nsg69
g5383
sg78
Nsg79
Nsg1577
Nsg296
g1556
sg586
I30
sg1521
g0
(clanguage_schemas
UTTER
p5553
g2
Ntp5554
Rp5555
(dp5556
g67
(dp5557
g5383
Nssg69
g1671
sg71
(lp5558
g0
(g73
g2
Ntp5559
Rp5560
(dp5561
g69
g1593
sg78
Nsg79
Nsg296
g1520
sg586
I31
sg1521
g5555
sbasg1526
(dp5562
g1593
NssS'utterance_stack'
p5563
(lp5564
sg1531
F1.0
sg1532
(lp5565
g5551
asg1534
(dp5566
S'speech_rate'
p5567
F1.0
ssg1536
I0
sg1537
I0
sg1157
g1540
sg586
I7
sbsbsg5367
g5462
sg1157
g1540
sg586
I9
sbag0
(g1695
g2
Ntp5568
Rp5569
(dp5570
g1699
I0
sg69
g1673
sg1700
I0
sg1701
g5524
sg5367
g5469
sg1157
g1540
sg586
I10
sbag0
(g1695
g2
Ntp5571
Rp5572
(dp5573
g1699
I0
sg69
g1673
sg1700
I0
sg1701
g5408
sg5367
g5515
sg1157
g1540
sg586
I11
sbag0
(g1695
g2
Ntp5574
Rp5575
(dp5576
g1699
I0
sg69
g1673
sg1700
I0
sg1701
g1608
sg5367
g5512
sg1157
g1540
sg586
I12
sbasg1534
(dp5577
g1668
g5531
sg1678
g5491
sg70
g1535
sg1686
g5157
sg1690
g5366
sg1568
g1632
sg1671
g5566
sg1682
g5434
ssg1536
F0.0
sS'set_up_time'
p5578
I10
sS'input'
p5579
NsS'default_params'
p5580
Nsg1531
F1.0
sS'output_ports'
p5581
(lp5582
g5560
ag5472
ag5395
ag1591
asg5158
(dp5583
g1668
g5507
sg1678
g5455
sg70
g65
sg1690
g1708
sg1682
g5380
sg1568
g1559
sg1671
g5555
sg1686
g1792
ssbsg586
I2
sg5158
g80
sbsbsb.