ccopy_reg
_reconstructor
p0
(clanguage_schemas
SEM_GENERATOR
p1
c__builtin__
object
p2
Ntp3
Rp4
(dp5
S'sem_inputs'
p6
(dp7
S'young_woman_punch_man_dyn'
p8
(dp9
Vtiming
p10
(lp11
F0.0
aF100.0
aF200.0
aF300.0
asVsem_rate
p12
I1
sVsequence
p13
(lp14
VP1
p15
aVP2
p16
aVP3
p17
aVP4
p18
asVcomments
p19
VActions + property modifier dynamic.
p20
sVpropositions
p21
(dp22
VP2
p23
(lp24
VEVENT(evt1,F)
p25
aVACTION(a1,F)
p26
aVIS(is3)
p27
aVis3(evt1,a1)
p28
aVENTITY(e2,F)
p29
aVPUNCH(punch)
p30
aVIS(is4)
p31
aVis4(a1, punch)
p32
aVAGENT(agt)
p33
aVPATIENT(pt)
p34
aVagt(a1, e2)
p35
aVENTITY(e1,F)
p36
aVpt(a1, e1)
p37
asVP3
p38
(lp39
VENTITY(e2,F)
p40
aVWOMAN(woman)
p41
aVIS(is2)
p42
aVis2(e2, woman)
p43
asVP1
p44
(lp45
VENTITY(e1,F)
p46
aVMAN(man)
p47
aVIS(is1)
p48
aVis1(e1, man)
p49
asVP4
p50
(lp51
VYOUNG(young)
p52
aVMODIFY(mod)
p53
aVmod(e2, young)
p54
assssS'is_macro'
p55
I00
sS'ground_truths'
p56
NsS'speed_param'
p57
I100
sS'interpreter'
p58
g0
(clanguage_schemas
ISRF_INTERPRETER
p59
g2
Ntp60
Rp61
(dp62
S'name_table'
p63
(dp64
sS'conceptLTM'
p65
g0
(clanguage_schemas
CONCEPT_LTM
p66
g2
Ntp67
Rp68
(dp69
S'inputs'
p70
(dp71
sS'name'
p72
S'Concept_LTM'
p73
sS'out_ports'
p74
(lp75
g0
(cschema_theory
PORT
p76
g2
Ntp77
Rp78
(dp79
g72
S'to_conceptualizer'
p80
sS'data'
p81
NsS'value'
p82
NsS'type'
p83
S'OUT'
p84
sS'id'
p85
I11
sS'schema'
p86
g68
sbag0
(g76
g2
Ntp87
Rp88
(dp89
g72
S'to_semantic_WM'
p90
sg81
Nsg82
Nsg83
g84
sg85
I12
sg86
g68
sbasS'outputs'
p91
(dp92
g80
Nsg90
NssS'connections'
p93
(lp94
sS'cpt_knowledge'
p95
g0
(cconcept
CONCEPTUAL_KNOWLEDGE
p96
g2
Ntp97
Rp98
(dp99
S'graph'
p100
g0
(cnetworkx.classes.digraph
DiGraph
p101
g2
Ntp102
Rp103
(dp104
S'node'
p105
(dp106
I1
(dp107
S'meaning'
p108
S'?'
p109
ssI2
(dp110
g108
S'CONCEPT'
p111
ssI3
(dp112
g108
VACTION
p113
ssI4
(dp114
g108
VSYMMETRIC
p115
ssI5
(dp116
g108
VMEET
p117
ssI6
(dp118
g108
VSHAKE_HANDS
p119
ssI7
(dp120
g108
VINTRANSITIVE
p121
ssI8
(dp122
g108
VLAUGH
p123
ssI9
(dp124
g108
VTRANSITIVE
p125
ssI10
(dp126
g108
VHIT
p127
ssI11
(dp128
g108
VWATCH
p129
ssI12
(dp130
g108
VPUNCH
p131
ssI13
(dp132
g108
VSPLASH
p133
ssI14
(dp134
g108
VTALK
p135
ssI15
(dp136
g108
VKISS
p137
ssI16
(dp138
g108
VSQUIRT
p139
ssI17
(dp140
g108
VKICK
p141
ssI18
(dp142
g108
VWEAR
p143
ssI19
(dp144
g108
VDITRANSITIVE
p145
ssI20
(dp146
g108
VSEND
p147
ssI21
(dp148
g108
VGIVE
p149
ssI22
(dp150
g108
VPROPERTY
p151
ssI23
(dp152
g108
VCOLOR
p153
ssI24
(dp154
g108
VBLUE
p155
ssI25
(dp156
g108
VGREEN
p157
ssI26
(dp158
g108
VWHITE
p159
ssI27
(dp160
g108
VBLACK
p161
ssI28
(dp162
g108
VRED
p163
ssI29
(dp164
g108
VAPPEARANCE
p165
ssI30
(dp166
g108
VYOUNG
p167
ssI31
(dp168
g108
VPRETTY
p169
ssI32
(dp170
g108
VHANDSOME
p171
ssI33
(dp172
g108
VSIZE
p173
ssI34
(dp174
g108
VSMALL
p175
ssI35
(dp176
g108
VBIG
p177
ssI36
(dp178
g108
VRELATION
p179
ssI37
(dp180
g108
VACTION_FRAME
p181
ssI38
(dp182
g108
VMODIFY
p183
ssI39
(dp184
g108
VTHEME
p185
ssI40
(dp186
g108
VRECIPIENT
p187
ssI41
(dp188
g108
VATTR
p189
ssI42
(dp190
g108
VAGT_PT
p191
ssI43
(dp192
g108
VPATIENT
p193
ssI44
(dp194
g108
VAGT+PT
p195
ssI45
(dp196
g108
VAGENT
p197
ssI46
(dp198
g108
VEVENT_FRAME
p199
ssI47
(dp200
g108
VTEMPORAL
p201
ssI48
(dp202
g108
VCONCURRENT
p203
ssI49
(dp204
g108
VSUCCESSIVE
p205
ssI50
(dp206
g108
VSPATIAL
p207
ssI51
(dp208
g108
VIN
p209
ssI52
(dp210
g108
VIS
p211
ssI53
(dp212
g108
VOBJECT_FRAME
p213
ssI54
(dp214
g108
VEVENT
p215
ssI55
(dp216
g108
VENTITY
p217
ssI56
(dp218
g108
VANIMATE
p219
ssI57
(dp220
g108
VANIMAL
p221
ssI58
(dp222
g108
VHUMAN
p223
ssI59
(dp224
g108
VOBJECT
p225
ssI60
(dp226
g108
VITEM
p227
ssI61
(dp228
g108
VWAGON
p229
ssI62
(dp230
g108
VWATERING_CAN
p231
ssI63
(dp232
g108
VBAG
p233
ssI64
(dp234
g108
VTREE
p235
ssI65
(dp236
g108
VHOOK
p237
ssI66
(dp238
g108
VCELLO
p239
ssI67
(dp240
g108
VBOOKSHELF
p241
ssI68
(dp242
g108
VCLOTHING
p243
ssI69
(dp244
g108
VTSHIRT
p245
ssI70
(dp246
g108
VDRESS
p247
ssI71
(dp248
g108
VSHIRT
p249
ssI72
(dp250
g108
VSUIT
p251
ssI73
(dp252
g108
VTURTLE
p253
ssI74
(dp254
g108
VMOUSE
p255
ssI75
(dp256
g108
VDOG
p257
ssI76
(dp258
g108
VBOY
p259
ssI77
(dp260
g108
VWOMAN
p261
ssI78
(dp262
g108
VPEOPLE
p263
ssI79
(dp264
g108
VPOLICEMAN
p265
ssI80
(dp266
g108
VHUNTER
p267
ssI81
(dp268
g108
VBALLERINA
p269
ssI82
(dp270
g108
VCELLIST
p271
ssI83
(dp272
g108
VGIRL
p273
ssI84
(dp274
g108
VFENCER
p275
ssI85
(dp276
g108
VROBBER
p277
ssI86
(dp278
g108
VMAN
p279
ssI87
(dp280
g108
VPLACE
p281
ssI88
(dp282
g108
VBOXINGRING
p283
ssI89
(dp284
g108
VPARK
p285
ssI90
(dp286
g108
VMALE
p287
ssI91
(dp288
g108
VFEMALE
p289
sssS'node_dict_factory'
p290
c__builtin__
dict
p291
sS'edge_attr_dict_factory'
p292
g291
sS'succ'
p293
(dp294
I1
(dp295
sI2
(dp296
sI3
(dp297
I2
(dp298
g83
S'is_a'
p299
sssI4
(dp300
I3
(dp301
g83
g299
sssI5
(dp302
I4
(dp303
g83
g299
sssI6
(dp304
I4
(dp305
g83
g299
sssI7
(dp306
I3
(dp307
g83
g299
sssI8
(dp308
I7
(dp309
g83
g299
sssI9
(dp310
I3
(dp311
g83
g299
sssI10
(dp312
I9
(dp313
g83
g299
sssI11
(dp314
I9
(dp315
g83
g299
sssI12
(dp316
I9
(dp317
g83
g299
sssI13
(dp318
I9
(dp319
g83
g299
sssI14
(dp320
I9
(dp321
g83
g299
sssI15
(dp322
I9
(dp323
g83
g299
sssI16
(dp324
I9
(dp325
g83
g299
sssI17
(dp326
I9
(dp327
g83
g299
sssI18
(dp328
I9
(dp329
g83
g299
sssI19
(dp330
I3
(dp331
g83
g299
sssI20
(dp332
I19
(dp333
g83
g299
sssI21
(dp334
I19
(dp335
g83
g299
sssI22
(dp336
I2
(dp337
g83
g299
sssI23
(dp338
I22
(dp339
g83
g299
sssI24
(dp340
I23
(dp341
g83
g299
sssI25
(dp342
I23
(dp343
g83
g299
sssI26
(dp344
I23
(dp345
g83
g299
sssI27
(dp346
I23
(dp347
g83
g299
sssI28
(dp348
I23
(dp349
g83
g299
sssI29
(dp350
I22
(dp351
g83
g299
sssI30
(dp352
I29
(dp353
g83
g299
sssI31
(dp354
I29
(dp355
g83
g299
sssI32
(dp356
I29
(dp357
g83
g299
sssI33
(dp358
I22
(dp359
g83
g299
sssI34
(dp360
I33
(dp361
g83
g299
sssI35
(dp362
I33
(dp363
g83
g299
sssI36
(dp364
I2
(dp365
g83
g299
sssI37
(dp366
I36
(dp367
g83
g299
sssI38
(dp368
I37
(dp369
g83
g299
ssI53
(dp370
g83
g299
sssI39
(dp371
I37
(dp372
g83
g299
sssI40
(dp373
I37
(dp374
g83
g299
sssI41
(dp375
I37
(dp376
g83
g299
ssI53
(dp377
g83
g299
sssI42
(dp378
I37
(dp379
g83
g299
sssI43
(dp380
I42
(dp381
g83
g299
sssI44
(dp382
I43
(dp383
g83
g299
ssI45
(dp384
g83
g299
sssI45
(dp385
I42
(dp386
g83
g299
sssI46
(dp387
I36
(dp388
g83
g299
sssI47
(dp389
I46
(dp390
g83
g299
sssI48
(dp391
I47
(dp392
g83
g299
sssI49
(dp393
I47
(dp394
g83
g299
sssI50
(dp395
I46
(dp396
g83
g299
sssI51
(dp397
I50
(dp398
g83
g299
sssI52
(dp399
I36
(dp400
g83
g299
sssI53
(dp401
I36
(dp402
g83
g299
sssI54
(dp403
I2
(dp404
g83
g299
sssI55
(dp405
I2
(dp406
g83
g299
sssI56
(dp407
I55
(dp408
g83
g299
sssI57
(dp409
I56
(dp410
g83
g299
ssI59
(dp411
g83
g299
sssI58
(dp412
I56
(dp413
g83
g299
ssI59
(dp414
g83
g299
sssI59
(dp415
I55
(dp416
g83
g299
sssI60
(dp417
I59
(dp418
g83
g299
sssI61
(dp419
I60
(dp420
g83
g299
sssI62
(dp421
I60
(dp422
g83
g299
sssI63
(dp423
I60
(dp424
g83
g299
sssI64
(dp425
I60
(dp426
g83
g299
sssI65
(dp427
I60
(dp428
g83
g299
sssI66
(dp429
I60
(dp430
g83
g299
sssI67
(dp431
I60
(dp432
g83
g299
sssI68
(dp433
I60
(dp434
g83
g299
sssI69
(dp435
I68
(dp436
g83
g299
sssI70
(dp437
I68
(dp438
g83
g299
sssI71
(dp439
I68
(dp440
g83
g299
sssI72
(dp441
I68
(dp442
g83
g299
sssI73
(dp443
I57
(dp444
g83
g299
sssI74
(dp445
I57
(dp446
g83
g299
sssI75
(dp447
I57
(dp448
g83
g299
sssI76
(dp449
I58
(dp450
g83
g299
ssI90
(dp451
g83
g299
sssI77
(dp452
I58
(dp453
g83
g299
ssI91
(dp454
g83
g299
sssI78
(dp455
I58
(dp456
g83
g299
sssI79
(dp457
I58
(dp458
g83
g299
sssI80
(dp459
I58
(dp460
g83
g299
sssI81
(dp461
I58
(dp462
g83
g299
ssI91
(dp463
g83
g299
sssI82
(dp464
I58
(dp465
g83
g299
sssI83
(dp466
I58
(dp467
g83
g299
ssI91
(dp468
g83
g299
sssI84
(dp469
I58
(dp470
g83
g299
sssI85
(dp471
I58
(dp472
g83
g299
sssI86
(dp473
I58
(dp474
g83
g299
ssI90
(dp475
g83
g299
sssI87
(dp476
I55
(dp477
g83
g299
sssI88
(dp478
I87
(dp479
g83
g299
sssI89
(dp480
I87
(dp481
g83
g299
sssI90
(dp482
I55
(dp483
g83
g299
sssI91
(dp484
I55
(dp485
g83
g299
ssssS'edge'
p486
g294
sg100
(dp487
sS'adjlist_dict_factory'
p488
g291
sS'adj'
p489
g294
sS'pred'
p490
(dp491
I1
(dp492
sI2
(dp493
I3
g298
sI36
g365
sI54
g404
sI22
g337
sI55
g406
ssI3
(dp494
I9
g311
sI19
g331
sI4
g301
sI7
g307
ssI4
(dp495
I5
g303
sI6
g305
ssI5
(dp496
sI6
(dp497
sI7
(dp498
I8
g309
ssI8
(dp499
sI9
(dp500
I10
g313
sI11
g315
sI12
g317
sI13
g319
sI14
g321
sI15
g323
sI16
g325
sI17
g327
sI18
g329
ssI10
(dp501
sI11
(dp502
sI12
(dp503
sI13
(dp504
sI14
(dp505
sI15
(dp506
sI16
(dp507
sI17
(dp508
sI18
(dp509
sI19
(dp510
I20
g333
sI21
g335
ssI20
(dp511
sI21
(dp512
sI22
(dp513
I33
g359
sI29
g351
sI23
g339
ssI23
(dp514
I24
g341
sI25
g343
sI26
g345
sI27
g347
sI28
g349
ssI24
(dp515
sI25
(dp516
sI26
(dp517
sI27
(dp518
sI28
(dp519
sI29
(dp520
I32
g357
sI30
g353
sI31
g355
ssI30
(dp521
sI31
(dp522
sI32
(dp523
sI33
(dp524
I34
g361
sI35
g363
ssI34
(dp525
sI35
(dp526
sI36
(dp527
I52
g400
sI37
g367
sI46
g388
sI53
g402
ssI37
(dp528
I40
g374
sI41
g376
sI42
g379
sI38
g369
sI39
g372
ssI38
(dp529
sI39
(dp530
sI40
(dp531
sI41
(dp532
sI42
(dp533
I43
g381
sI45
g386
ssI43
(dp534
I44
g383
ssI44
(dp535
sI45
(dp536
I44
g384
ssI46
(dp537
I50
g396
sI47
g390
ssI47
(dp538
I48
g392
sI49
g394
ssI48
(dp539
sI49
(dp540
sI50
(dp541
I51
g398
ssI51
(dp542
sI52
(dp543
sI53
(dp544
I41
g377
sI38
g370
ssI54
(dp545
sI55
(dp546
I56
g408
sI91
g485
sI90
g483
sI59
g416
sI87
g477
ssI56
(dp547
I57
g410
sI58
g413
ssI57
(dp548
I73
g444
sI74
g446
sI75
g448
ssI58
(dp549
I76
g450
sI77
g453
sI78
g456
sI79
g458
sI80
g460
sI81
g462
sI82
g465
sI83
g467
sI84
g470
sI85
g472
sI86
g474
ssI59
(dp550
I57
g411
sI58
g414
sI60
g418
ssI60
(dp551
I64
g426
sI65
g428
sI66
g430
sI67
g432
sI68
g434
sI61
g420
sI62
g422
sI63
g424
ssI61
(dp552
sI62
(dp553
sI63
(dp554
sI64
(dp555
sI65
(dp556
sI66
(dp557
sI67
(dp558
sI68
(dp559
I72
g442
sI69
g436
sI70
g438
sI71
g440
ssI69
(dp560
sI70
(dp561
sI71
(dp562
sI72
(dp563
sI73
(dp564
sI74
(dp565
sI75
(dp566
sI76
(dp567
sI77
(dp568
sI78
(dp569
sI79
(dp570
sI80
(dp571
sI81
(dp572
sI82
(dp573
sI83
(dp574
sI84
(dp575
sI85
(dp576
sI86
(dp577
sI87
(dp578
I88
g479
sI89
g481
ssI88
(dp579
sI89
(dp580
sI90
(dp581
I76
g451
sI86
g475
ssI91
(dp582
I81
g463
sI83
g468
sI77
g454
sssbsS'nodes'
p583
(lp584
g0
(cconcept
CONCEPT
p585
g2
Ntp586
Rp587
(dp588
g108
g109
sS'conceptual_knowledge'
p589
g98
sg85
I1
sg72
g109
sbag0
(g585
g2
Ntp590
Rp591
(dp592
g108
g111
sg589
g98
sg85
I2
sg72
g111
sbag0
(g585
g2
Ntp593
Rp594
(dp595
g108
g113
sg589
g98
sg85
I3
sg72
g113
sbag0
(g585
g2
Ntp596
Rp597
(dp598
g108
g115
sg589
g98
sg85
I4
sg72
g115
sbag0
(g585
g2
Ntp599
Rp600
(dp601
g108
g117
sg589
g98
sg85
I5
sg72
g117
sbag0
(g585
g2
Ntp602
Rp603
(dp604
g108
g119
sg589
g98
sg85
I6
sg72
g119
sbag0
(g585
g2
Ntp605
Rp606
(dp607
g108
g121
sg589
g98
sg85
I7
sg72
g121
sbag0
(g585
g2
Ntp608
Rp609
(dp610
g108
g123
sg589
g98
sg85
I8
sg72
g123
sbag0
(g585
g2
Ntp611
Rp612
(dp613
g108
g125
sg589
g98
sg85
I9
sg72
g125
sbag0
(g585
g2
Ntp614
Rp615
(dp616
g108
g127
sg589
g98
sg85
I10
sg72
g127
sbag0
(g585
g2
Ntp617
Rp618
(dp619
g108
g129
sg589
g98
sg85
I11
sg72
g129
sbag0
(g585
g2
Ntp620
Rp621
(dp622
g108
g131
sg589
g98
sg85
I12
sg72
g131
sbag0
(g585
g2
Ntp623
Rp624
(dp625
g108
g133
sg589
g98
sg85
I13
sg72
g133
sbag0
(g585
g2
Ntp626
Rp627
(dp628
g108
g135
sg589
g98
sg85
I14
sg72
g135
sbag0
(g585
g2
Ntp629
Rp630
(dp631
g108
g137
sg589
g98
sg85
I15
sg72
g137
sbag0
(g585
g2
Ntp632
Rp633
(dp634
g108
g139
sg589
g98
sg85
I16
sg72
g139
sbag0
(g585
g2
Ntp635
Rp636
(dp637
g108
g141
sg589
g98
sg85
I17
sg72
g141
sbag0
(g585
g2
Ntp638
Rp639
(dp640
g108
g143
sg589
g98
sg85
I18
sg72
g143
sbag0
(g585
g2
Ntp641
Rp642
(dp643
g108
g145
sg589
g98
sg85
I19
sg72
g145
sbag0
(g585
g2
Ntp644
Rp645
(dp646
g108
g147
sg589
g98
sg85
I20
sg72
g147
sbag0
(g585
g2
Ntp647
Rp648
(dp649
g108
g149
sg589
g98
sg85
I21
sg72
g149
sbag0
(g585
g2
Ntp650
Rp651
(dp652
g108
g151
sg589
g98
sg85
I22
sg72
g151
sbag0
(g585
g2
Ntp653
Rp654
(dp655
g108
g153
sg589
g98
sg85
I23
sg72
g153
sbag0
(g585
g2
Ntp656
Rp657
(dp658
g108
g155
sg589
g98
sg85
I24
sg72
g155
sbag0
(g585
g2
Ntp659
Rp660
(dp661
g108
g157
sg589
g98
sg85
I25
sg72
g157
sbag0
(g585
g2
Ntp662
Rp663
(dp664
g108
g159
sg589
g98
sg85
I26
sg72
g159
sbag0
(g585
g2
Ntp665
Rp666
(dp667
g108
g161
sg589
g98
sg85
I27
sg72
g161
sbag0
(g585
g2
Ntp668
Rp669
(dp670
g108
g163
sg589
g98
sg85
I28
sg72
g163
sbag0
(g585
g2
Ntp671
Rp672
(dp673
g108
g165
sg589
g98
sg85
I29
sg72
g165
sbag0
(g585
g2
Ntp674
Rp675
(dp676
g108
g167
sg589
g98
sg85
I30
sg72
g167
sbag0
(g585
g2
Ntp677
Rp678
(dp679
g108
g169
sg589
g98
sg85
I31
sg72
g169
sbag0
(g585
g2
Ntp680
Rp681
(dp682
g108
g171
sg589
g98
sg85
I32
sg72
g171
sbag0
(g585
g2
Ntp683
Rp684
(dp685
g108
g173
sg589
g98
sg85
I33
sg72
g173
sbag0
(g585
g2
Ntp686
Rp687
(dp688
g108
g175
sg589
g98
sg85
I34
sg72
g175
sbag0
(g585
g2
Ntp689
Rp690
(dp691
g108
g177
sg589
g98
sg85
I35
sg72
g177
sbag0
(g585
g2
Ntp692
Rp693
(dp694
g108
g179
sg589
g98
sg85
I36
sg72
g179
sbag0
(g585
g2
Ntp695
Rp696
(dp697
g108
g181
sg589
g98
sg85
I37
sg72
g181
sbag0
(g585
g2
Ntp698
Rp699
(dp700
g108
g183
sg589
g98
sg85
I38
sg72
g183
sbag0
(g585
g2
Ntp701
Rp702
(dp703
g108
g185
sg589
g98
sg85
I39
sg72
g185
sbag0
(g585
g2
Ntp704
Rp705
(dp706
g108
g187
sg589
g98
sg85
I40
sg72
g187
sbag0
(g585
g2
Ntp707
Rp708
(dp709
g108
g189
sg589
g98
sg85
I41
sg72
g189
sbag0
(g585
g2
Ntp710
Rp711
(dp712
g108
g191
sg589
g98
sg85
I42
sg72
g191
sbag0
(g585
g2
Ntp713
Rp714
(dp715
g108
g193
sg589
g98
sg85
I43
sg72
g193
sbag0
(g585
g2
Ntp716
Rp717
(dp718
g108
g195
sg589
g98
sg85
I44
sg72
g195
sbag0
(g585
g2
Ntp719
Rp720
(dp721
g108
g197
sg589
g98
sg85
I45
sg72
g197
sbag0
(g585
g2
Ntp722
Rp723
(dp724
g108
g199
sg589
g98
sg85
I46
sg72
g199
sbag0
(g585
g2
Ntp725
Rp726
(dp727
g108
g201
sg589
g98
sg85
I47
sg72
g201
sbag0
(g585
g2
Ntp728
Rp729
(dp730
g108
g203
sg589
g98
sg85
I48
sg72
g203
sbag0
(g585
g2
Ntp731
Rp732
(dp733
g108
g205
sg589
g98
sg85
I49
sg72
g205
sbag0
(g585
g2
Ntp734
Rp735
(dp736
g108
g207
sg589
g98
sg85
I50
sg72
g207
sbag0
(g585
g2
Ntp737
Rp738
(dp739
g108
g209
sg589
g98
sg85
I51
sg72
g209
sbag0
(g585
g2
Ntp740
Rp741
(dp742
g108
g211
sg589
g98
sg85
I52
sg72
g211
sbag0
(g585
g2
Ntp743
Rp744
(dp745
g108
g213
sg589
g98
sg85
I53
sg72
g213
sbag0
(g585
g2
Ntp746
Rp747
(dp748
g108
g215
sg589
g98
sg85
I54
sg72
g215
sbag0
(g585
g2
Ntp749
Rp750
(dp751
g108
g217
sg589
g98
sg85
I55
sg72
g217
sbag0
(g585
g2
Ntp752
Rp753
(dp754
g108
g219
sg589
g98
sg85
I56
sg72
g219
sbag0
(g585
g2
Ntp755
Rp756
(dp757
g108
g221
sg589
g98
sg85
I57
sg72
g221
sbag0
(g585
g2
Ntp758
Rp759
(dp760
g108
g223
sg589
g98
sg85
I58
sg72
g223
sbag0
(g585
g2
Ntp761
Rp762
(dp763
g108
g225
sg589
g98
sg85
I59
sg72
g225
sbag0
(g585
g2
Ntp764
Rp765
(dp766
g108
g227
sg589
g98
sg85
I60
sg72
g227
sbag0
(g585
g2
Ntp767
Rp768
(dp769
g108
g229
sg589
g98
sg85
I61
sg72
g229
sbag0
(g585
g2
Ntp770
Rp771
(dp772
g108
g231
sg589
g98
sg85
I62
sg72
g231
sbag0
(g585
g2
Ntp773
Rp774
(dp775
g108
g233
sg589
g98
sg85
I63
sg72
g233
sbag0
(g585
g2
Ntp776
Rp777
(dp778
g108
g235
sg589
g98
sg85
I64
sg72
g235
sbag0
(g585
g2
Ntp779
Rp780
(dp781
g108
g237
sg589
g98
sg85
I65
sg72
g237
sbag0
(g585
g2
Ntp782
Rp783
(dp784
g108
g239
sg589
g98
sg85
I66
sg72
g239
sbag0
(g585
g2
Ntp785
Rp786
(dp787
g108
g241
sg589
g98
sg85
I67
sg72
g241
sbag0
(g585
g2
Ntp788
Rp789
(dp790
g108
g243
sg589
g98
sg85
I68
sg72
g243
sbag0
(g585
g2
Ntp791
Rp792
(dp793
g108
g245
sg589
g98
sg85
I69
sg72
g245
sbag0
(g585
g2
Ntp794
Rp795
(dp796
g108
g247
sg589
g98
sg85
I70
sg72
g247
sbag0
(g585
g2
Ntp797
Rp798
(dp799
g108
g249
sg589
g98
sg85
I71
sg72
g249
sbag0
(g585
g2
Ntp800
Rp801
(dp802
g108
g251
sg589
g98
sg85
I72
sg72
g251
sbag0
(g585
g2
Ntp803
Rp804
(dp805
g108
g253
sg589
g98
sg85
I73
sg72
g253
sbag0
(g585
g2
Ntp806
Rp807
(dp808
g108
g255
sg589
g98
sg85
I74
sg72
g255
sbag0
(g585
g2
Ntp809
Rp810
(dp811
g108
g257
sg589
g98
sg85
I75
sg72
g257
sbag0
(g585
g2
Ntp812
Rp813
(dp814
g108
g259
sg589
g98
sg85
I76
sg72
g259
sbag0
(g585
g2
Ntp815
Rp816
(dp817
g108
g261
sg589
g98
sg85
I77
sg72
g261
sbag0
(g585
g2
Ntp818
Rp819
(dp820
g108
g263
sg589
g98
sg85
I78
sg72
g263
sbag0
(g585
g2
Ntp821
Rp822
(dp823
g108
g265
sg589
g98
sg85
I79
sg72
g265
sbag0
(g585
g2
Ntp824
Rp825
(dp826
g108
g267
sg589
g98
sg85
I80
sg72
g267
sbag0
(g585
g2
Ntp827
Rp828
(dp829
g108
g269
sg589
g98
sg85
I81
sg72
g269
sbag0
(g585
g2
Ntp830
Rp831
(dp832
g108
g271
sg589
g98
sg85
I82
sg72
g271
sbag0
(g585
g2
Ntp833
Rp834
(dp835
g108
g273
sg589
g98
sg85
I83
sg72
g273
sbag0
(g585
g2
Ntp836
Rp837
(dp838
g108
g275
sg589
g98
sg85
I84
sg72
g275
sbag0
(g585
g2
Ntp839
Rp840
(dp841
g108
g277
sg589
g98
sg85
I85
sg72
g277
sbag0
(g585
g2
Ntp842
Rp843
(dp844
g108
g279
sg589
g98
sg85
I86
sg72
g279
sbag0
(g585
g2
Ntp845
Rp846
(dp847
g108
g281
sg589
g98
sg85
I87
sg72
g281
sbag0
(g585
g2
Ntp848
Rp849
(dp850
g108
g283
sg589
g98
sg85
I88
sg72
g283
sbag0
(g585
g2
Ntp851
Rp852
(dp853
g108
g285
sg589
g98
sg85
I89
sg72
g285
sbag0
(g585
g2
Ntp854
Rp855
(dp856
g108
g287
sg589
g98
sg85
I90
sg72
g287
sbag0
(g585
g2
Ntp857
Rp858
(dp859
g108
g289
sg589
g98
sg85
I91
sg72
g289
sbasS'edges'
p860
(lp861
g0
(cconcept
SEM_REL
p862
g2
Ntp863
Rp864
(dp865
S'pTo'
p866
g591
sg83
g299
sS'pFrom'
p867
g594
sbag0
(g862
g2
Ntp868
Rp869
(dp870
g866
g594
sg83
g299
sg867
g597
sbag0
(g862
g2
Ntp871
Rp872
(dp873
g866
g597
sg83
g299
sg867
g600
sbag0
(g862
g2
Ntp874
Rp875
(dp876
g866
g597
sg83
g299
sg867
g603
sbag0
(g862
g2
Ntp877
Rp878
(dp879
g866
g594
sg83
g299
sg867
g606
sbag0
(g862
g2
Ntp880
Rp881
(dp882
g866
g606
sg83
g299
sg867
g609
sbag0
(g862
g2
Ntp883
Rp884
(dp885
g866
g594
sg83
g299
sg867
g612
sbag0
(g862
g2
Ntp886
Rp887
(dp888
g866
g612
sg83
g299
sg867
g615
sbag0
(g862
g2
Ntp889
Rp890
(dp891
g866
g612
sg83
g299
sg867
g618
sbag0
(g862
g2
Ntp892
Rp893
(dp894
g866
g612
sg83
g299
sg867
g621
sbag0
(g862
g2
Ntp895
Rp896
(dp897
g866
g612
sg83
g299
sg867
g624
sbag0
(g862
g2
Ntp898
Rp899
(dp900
g866
g612
sg83
g299
sg867
g627
sbag0
(g862
g2
Ntp901
Rp902
(dp903
g866
g612
sg83
g299
sg867
g630
sbag0
(g862
g2
Ntp904
Rp905
(dp906
g866
g612
sg83
g299
sg867
g633
sbag0
(g862
g2
Ntp907
Rp908
(dp909
g866
g612
sg83
g299
sg867
g636
sbag0
(g862
g2
Ntp910
Rp911
(dp912
g866
g612
sg83
g299
sg867
g639
sbag0
(g862
g2
Ntp913
Rp914
(dp915
g866
g594
sg83
g299
sg867
g642
sbag0
(g862
g2
Ntp916
Rp917
(dp918
g866
g642
sg83
g299
sg867
g645
sbag0
(g862
g2
Ntp919
Rp920
(dp921
g866
g642
sg83
g299
sg867
g648
sbag0
(g862
g2
Ntp922
Rp923
(dp924
g866
g591
sg83
g299
sg867
g651
sbag0
(g862
g2
Ntp925
Rp926
(dp927
g866
g651
sg83
g299
sg867
g654
sbag0
(g862
g2
Ntp928
Rp929
(dp930
g866
g654
sg83
g299
sg867
g657
sbag0
(g862
g2
Ntp931
Rp932
(dp933
g866
g654
sg83
g299
sg867
g660
sbag0
(g862
g2
Ntp934
Rp935
(dp936
g866
g654
sg83
g299
sg867
g663
sbag0
(g862
g2
Ntp937
Rp938
(dp939
g866
g654
sg83
g299
sg867
g666
sbag0
(g862
g2
Ntp940
Rp941
(dp942
g866
g654
sg83
g299
sg867
g669
sbag0
(g862
g2
Ntp943
Rp944
(dp945
g866
g651
sg83
g299
sg867
g672
sbag0
(g862
g2
Ntp946
Rp947
(dp948
g866
g672
sg83
g299
sg867
g675
sbag0
(g862
g2
Ntp949
Rp950
(dp951
g866
g672
sg83
g299
sg867
g678
sbag0
(g862
g2
Ntp952
Rp953
(dp954
g866
g672
sg83
g299
sg867
g681
sbag0
(g862
g2
Ntp955
Rp956
(dp957
g866
g651
sg83
g299
sg867
g684
sbag0
(g862
g2
Ntp958
Rp959
(dp960
g866
g684
sg83
g299
sg867
g687
sbag0
(g862
g2
Ntp961
Rp962
(dp963
g866
g684
sg83
g299
sg867
g690
sbag0
(g862
g2
Ntp964
Rp965
(dp966
g866
g591
sg83
g299
sg867
g693
sbag0
(g862
g2
Ntp967
Rp968
(dp969
g866
g693
sg83
g299
sg867
g696
sbag0
(g862
g2
Ntp970
Rp971
(dp972
g866
g696
sg83
g299
sg867
g699
sbag0
(g862
g2
Ntp973
Rp974
(dp975
g866
g696
sg83
g299
sg867
g702
sbag0
(g862
g2
Ntp976
Rp977
(dp978
g866
g696
sg83
g299
sg867
g705
sbag0
(g862
g2
Ntp979
Rp980
(dp981
g866
g696
sg83
g299
sg867
g708
sbag0
(g862
g2
Ntp982
Rp983
(dp984
g866
g696
sg83
g299
sg867
g711
sbag0
(g862
g2
Ntp985
Rp986
(dp987
g866
g711
sg83
g299
sg867
g714
sbag0
(g862
g2
Ntp988
Rp989
(dp990
g866
g714
sg83
g299
sg867
g717
sbag0
(g862
g2
Ntp991
Rp992
(dp993
g866
g711
sg83
g299
sg867
g720
sbag0
(g862
g2
Ntp994
Rp995
(dp996
g866
g720
sg83
g299
sg867
g717
sbag0
(g862
g2
Ntp997
Rp998
(dp999
g866
g693
sg83
g299
sg867
g723
sbag0
(g862
g2
Ntp1000
Rp1001
(dp1002
g866
g723
sg83
g299
sg867
g726
sbag0
(g862
g2
Ntp1003
Rp1004
(dp1005
g866
g726
sg83
g299
sg867
g729
sbag0
(g862
g2
Ntp1006
Rp1007
(dp1008
g866
g726
sg83
g299
sg867
g732
sbag0
(g862
g2
Ntp1009
Rp1010
(dp1011
g866
g723
sg83
g299
sg867
g735
sbag0
(g862
g2
Ntp1012
Rp1013
(dp1014
g866
g735
sg83
g299
sg867
g738
sbag0
(g862
g2
Ntp1015
Rp1016
(dp1017
g866
g693
sg83
g299
sg867
g741
sbag0
(g862
g2
Ntp1018
Rp1019
(dp1020
g866
g693
sg83
g299
sg867
g744
sbag0
(g862
g2
Ntp1021
Rp1022
(dp1023
g866
g744
sg83
g299
sg867
g699
sbag0
(g862
g2
Ntp1024
Rp1025
(dp1026
g866
g744
sg83
g299
sg867
g708
sbag0
(g862
g2
Ntp1027
Rp1028
(dp1029
g866
g591
sg83
g299
sg867
g747
sbag0
(g862
g2
Ntp1030
Rp1031
(dp1032
g866
g591
sg83
g299
sg867
g750
sbag0
(g862
g2
Ntp1033
Rp1034
(dp1035
g866
g750
sg83
g299
sg867
g753
sbag0
(g862
g2
Ntp1036
Rp1037
(dp1038
g866
g753
sg83
g299
sg867
g756
sbag0
(g862
g2
Ntp1039
Rp1040
(dp1041
g866
g753
sg83
g299
sg867
g759
sbag0
(g862
g2
Ntp1042
Rp1043
(dp1044
g866
g750
sg83
g299
sg867
g762
sbag0
(g862
g2
Ntp1045
Rp1046
(dp1047
g866
g762
sg83
g299
sg867
g765
sbag0
(g862
g2
Ntp1048
Rp1049
(dp1050
g866
g765
sg83
g299
sg867
g768
sbag0
(g862
g2
Ntp1051
Rp1052
(dp1053
g866
g765
sg83
g299
sg867
g771
sbag0
(g862
g2
Ntp1054
Rp1055
(dp1056
g866
g765
sg83
g299
sg867
g774
sbag0
(g862
g2
Ntp1057
Rp1058
(dp1059
g866
g765
sg83
g299
sg867
g777
sbag0
(g862
g2
Ntp1060
Rp1061
(dp1062
g866
g765
sg83
g299
sg867
g780
sbag0
(g862
g2
Ntp1063
Rp1064
(dp1065
g866
g765
sg83
g299
sg867
g783
sbag0
(g862
g2
Ntp1066
Rp1067
(dp1068
g866
g765
sg83
g299
sg867
g786
sbag0
(g862
g2
Ntp1069
Rp1070
(dp1071
g866
g765
sg83
g299
sg867
g789
sbag0
(g862
g2
Ntp1072
Rp1073
(dp1074
g866
g789
sg83
g299
sg867
g792
sbag0
(g862
g2
Ntp1075
Rp1076
(dp1077
g866
g789
sg83
g299
sg867
g795
sbag0
(g862
g2
Ntp1078
Rp1079
(dp1080
g866
g789
sg83
g299
sg867
g798
sbag0
(g862
g2
Ntp1081
Rp1082
(dp1083
g866
g789
sg83
g299
sg867
g801
sbag0
(g862
g2
Ntp1084
Rp1085
(dp1086
g866
g762
sg83
g299
sg867
g756
sbag0
(g862
g2
Ntp1087
Rp1088
(dp1089
g866
g756
sg83
g299
sg867
g804
sbag0
(g862
g2
Ntp1090
Rp1091
(dp1092
g866
g756
sg83
g299
sg867
g807
sbag0
(g862
g2
Ntp1093
Rp1094
(dp1095
g866
g756
sg83
g299
sg867
g810
sbag0
(g862
g2
Ntp1096
Rp1097
(dp1098
g866
g762
sg83
g299
sg867
g759
sbag0
(g862
g2
Ntp1099
Rp1100
(dp1101
g866
g759
sg83
g299
sg867
g813
sbag0
(g862
g2
Ntp1102
Rp1103
(dp1104
g866
g759
sg83
g299
sg867
g816
sbag0
(g862
g2
Ntp1105
Rp1106
(dp1107
g866
g759
sg83
g299
sg867
g819
sbag0
(g862
g2
Ntp1108
Rp1109
(dp1110
g866
g759
sg83
g299
sg867
g822
sbag0
(g862
g2
Ntp1111
Rp1112
(dp1113
g866
g759
sg83
g299
sg867
g825
sbag0
(g862
g2
Ntp1114
Rp1115
(dp1116
g866
g759
sg83
g299
sg867
g828
sbag0
(g862
g2
Ntp1117
Rp1118
(dp1119
g866
g759
sg83
g299
sg867
g831
sbag0
(g862
g2
Ntp1120
Rp1121
(dp1122
g866
g759
sg83
g299
sg867
g834
sbag0
(g862
g2
Ntp1123
Rp1124
(dp1125
g866
g759
sg83
g299
sg867
g837
sbag0
(g862
g2
Ntp1126
Rp1127
(dp1128
g866
g759
sg83
g299
sg867
g840
sbag0
(g862
g2
Ntp1129
Rp1130
(dp1131
g866
g759
sg83
g299
sg867
g843
sbag0
(g862
g2
Ntp1132
Rp1133
(dp1134
g866
g750
sg83
g299
sg867
g846
sbag0
(g862
g2
Ntp1135
Rp1136
(dp1137
g866
g846
sg83
g299
sg867
g849
sbag0
(g862
g2
Ntp1138
Rp1139
(dp1140
g866
g846
sg83
g299
sg867
g852
sbag0
(g862
g2
Ntp1141
Rp1142
(dp1143
g866
g750
sg83
g299
sg867
g855
sbag0
(g862
g2
Ntp1144
Rp1145
(dp1146
g866
g855
sg83
g299
sg867
g813
sbag0
(g862
g2
Ntp1147
Rp1148
(dp1149
g866
g855
sg83
g299
sg867
g843
sbag0
(g862
g2
Ntp1150
Rp1151
(dp1152
g866
g750
sg83
g299
sg867
g858
sbag0
(g862
g2
Ntp1153
Rp1154
(dp1155
g866
g858
sg83
g299
sg867
g828
sbag0
(g862
g2
Ntp1156
Rp1157
(dp1158
g866
g858
sg83
g299
sg867
g834
sbag0
(g862
g2
Ntp1159
Rp1160
(dp1161
g866
g858
sg83
g299
sg867
g816
sbasS'neutral'
p1162
g587
sbsS'dt'
p1163
F1.0
sS'in_ports'
p1164
(lp1165
sS'params'
p1166
(dp1167
S'init_act'
p1168
F1.0
ssS't'
p1169
F0.0
sS'activity'
p1170
F0.0
sS'model'
p1171
g0
(cschema_theory
MODEL
p1172
g2
Ntp1173
Rp1174
(dp1175
S'verbose'
p1176
I00
sg72
S'language_system_P'
p1177
sS'sim_data'
p1178
(dp1179
S'system_states'
p1180
(dp1181
sg1171
(dp1182
ssg91
(dp1183
sS'input_ports'
p1184
(lp1185
g0
(g76
g2
Ntp1186
Rp1187
(dp1188
g72
S'from_conceptualizer'
p1189
sg81
Nsg82
Nsg83
S'IN'
p1190
sg85
I1
sg86
g0
(clanguage_schemas
SEMANTIC_WM
p1191
g2
Ntp1192
Rp1193
(dp1194
g70
(dp1195
S'from_grammatical_WM_P'
p1196
NsS'from_concept_LTM'
p1197
NsS'from_control'
p1198
NsS'from_grammatical_WM_C'
p1199
Nsg1189
NssS'schema_insts'
p1200
(lp1201
sg72
S'Semantic_WM'
p1202
sS'comp_links'
p1203
(lp1204
sg74
(lp1205
g0
(g76
g2
Ntp1206
Rp1207
(dp1208
g72
S'to_grammatical_WM_P'
p1209
sg81
Nsg82
Nsg83
g84
sg85
I6
sg86
g1193
sbag0
(g76
g2
Ntp1210
Rp1211
(dp1212
g72
S'to_cxn_retrieval_P'
p1213
sg81
Nsg82
Nsg83
g84
sg85
I7
sg86
g1193
sbag0
(g76
g2
Ntp1214
Rp1215
(dp1216
g72
S'to_control'
p1217
sg81
Nsg82
Nsg83
g84
sg85
I8
sg86
g1193
sbag0
(g76
g2
Ntp1218
Rp1219
(dp1220
g72
S'to_visual_WM'
p1221
sg81
Nsg82
Nsg83
g84
sg85
I9
sg86
g1193
sbag0
(g76
g2
Ntp1222
Rp1223
(dp1224
g72
S'to_output'
p1225
sg81
Nsg82
Nsg83
g84
sg85
I10
sg86
g1193
sbasg91
(dp1226
g1225
Nsg1209
Nsg1221
Nsg1213
Nsg1217
Nssg1163
F1.0
sS'coop_links'
p1227
(lp1228
sg1164
(lp1229
g1187
ag0
(g76
g2
Ntp1230
Rp1231
(dp1232
g72
g1197
sg81
Nsg82
Nsg83
g1190
sg85
I2
sg86
g1193
sbag0
(g76
g2
Ntp1233
Rp1234
(dp1235
g72
g1199
sg81
Nsg82
Nsg83
g1190
sg85
I3
sg86
g1193
sbag0
(g76
g2
Ntp1236
Rp1237
(dp1238
g72
g1196
sg81
Nsg82
Nsg83
g1190
sg85
I4
sg86
g1193
sbag0
(g76
g2
Ntp1239
Rp1240
(dp1241
g72
g1198
sg81
Nsg82
Nsg83
g1190
sg85
I5
sg86
g1193
sbasS'save_state'
p1242
(dp1243
S'insts'
p1244
(dp1245
sS'WM_activity'
p1246
(dp1247
S'comp'
p1248
(lp1249
sS'c2_network'
p1250
(dp1251
S'num_insts'
p1252
(lp1253
sS'num_coop_links'
p1254
(lp1255
sS'num_comp_links'
p1256
(lp1257
ssS'coop'
p1258
(lp1259
sg1169
(lp1260
sS'act'
p1261
(lp1262
sssg1166
(dp1263
S'C2'
p1264
(dp1265
S'P_comp'
p1266
F1.0
sS'max_capacity'
p1267
NsS'comp_weight'
p1268
F0.0
sS'P_coop'
p1269
F1.0
sS'coop_asymmetry'
p1270
F1.0
sS'coop_weight'
p1271
F0.0
sS'confidence_threshold'
p1272
F0.0
sS'comp_asymmetry'
p1273
F0.0
sS'prune_threshold'
p1274
F0.01
ssS'dyn'
p1275
(dp1276
S'tau'
p1277
F10000.0
sS'k'
p1278
F10.0
sS'act_rest'
p1279
F0.001
sS'noise_mean'
p1280
F0.0
sS'noise_std'
p1281
F1.0
sS'ext_weight'
p1282
F1.0
sS'int_weight'
p1283
F1.0
sssg1169
F0.0
sg1170
F0.0
sg1171
g1174
sS'SemRep'
p1284
g0
(g101
g2
Ntp1285
Rp1286
(dp1287
g105
(dp1288
sg290
g291
sg292
g291
sg293
(dp1289
sg486
g1289
sg100
(dp1290
sg488
g291
sg489
g1289
sg490
(dp1291
sbsg85
I1
sbsbasS'brain_mapping'
p1292
g0
(cschema_theory
BRAIN_MAPPING
p1293
g2
Ntp1294
Rp1295
(dp1296
S'schema_mapping'
p1297
(dp1298
S'Control'
p1299
(lp1300
S'DLPFC'
p1301
asS'Utter'
p1302
(lp1303
S''
p1304
asg1202
(lp1305
S'left_SFG'
p1306
aS'LIP'
p1307
aS'Hippocampus'
p1308
asS'Phonological_WM_P'
p1309
(lp1310
S'left_BA6'
p1311
asg73
(lp1312
g1304
asS'Grammatical_WM_P'
p1313
(lp1314
S'left_BA45'
p1315
aS'leftBA44'
p1316
asS'Grammatical_LTM'
p1317
(lp1318
S'left_STG'
p1319
aS'left_MTG'
p1320
asS'Cxn_retrieval_P'
p1321
(lp1322
ssS'connect_mapping'
p1323
(dp1324
sbsg93
(lp1325
g0
(cschema_theory
CONNECT
p1326
g2
Ntp1327
Rp1328
(dp1329
S'delay'
p1330
I0
sg72
g1304
sS'weight'
p1331
I0
sS'port_to'
p1332
g0
(g76
g2
Ntp1333
Rp1334
(dp1335
g72
S'from_semantic_WM'
p1336
sg81
Nsg82
Nsg83
g1190
sg85
I23
sg86
g0
(clanguage_schemas
CXN_RETRIEVAL_P
p1337
g2
Ntp1338
Rp1339
(dp1340
g70
(dp1341
g1336
NsS'from_grammatical_LTM'
p1342
Nssg72
g1321
sg74
(lp1343
g0
(g76
g2
Ntp1344
Rp1345
(dp1346
g72
g1209
sg81
Nsg82
Nsg83
g84
sg85
I24
sg86
g1339
sbasg91
(dp1347
g1209
NssS'cxn_instances'
p1348
(lp1349
sg1163
F1.0
sg1164
(lp1350
g0
(g76
g2
Ntp1351
Rp1352
(dp1353
g72
g1342
sg81
Nsg82
Nsg83
g1190
sg85
I22
sg86
g1339
sbag1334
asg1166
(dp1354
sg1169
F0.0
sg1170
F0.0
sg1171
g1174
sg85
I5
sbsbsS'port_from'
p1355
g1211
sg1171
g1174
sg85
I1
sbag0
(g1326
g2
Ntp1356
Rp1357
(dp1358
g1330
I0
sg72
g1304
sg1331
I0
sg1332
g1352
sg1355
g0
(g76
g2
Ntp1359
Rp1360
(dp1361
g72
g1213
sg81
Nsg82
Nsg83
g84
sg85
I20
sg86
g0
(clanguage_schemas
GRAMMATICAL_LTM
p1362
g2
Ntp1363
Rp1364
(dp1365
g70
(dp1366
sS'grammar'
p1367
(iconstruction
GRAMMAR
p1368
(dp1369
S'constructions'
p1370
(lp1371
(iconstruction
CXN
p1372
(dp1373
S'SymLinks'
p1374
(iconstruction
TP_SYMLINKS
p1375
(dp1376
S'SL'
p1377
(dp1378
VEVT1_4
p1379
VS1_6
p1380
sVEVT2_5
p1381
VS3_8
p1382
ssg85
I3
sg72
g1304
sbsS'clss'
p1383
VD
p1384
sS'group'
p1385
I3
sg72
VCNJ_AND
p1386
sS'SemFrame'
p1387
(iconstruction
TP_SEMFRAME
p1388
(dp1389
g100
g0
(g101
g2
Ntp1390
Rp1391
(dp1392
g105
(dp1393
(iconstruction
TP_NODE
p1394
(dp1395
S'head'
p1396
I00
sS'concept'
p1397
g747
sg72
g1381
sS'frame'
p1398
I00
sS'focus'
p1399
I00
sg85
I5
sb(dp1400
g1398
I00
sg1397
g747
ss(iconstruction
TP_NODE
p1401
(dp1402
g1396
I00
sg1397
g747
sg72
g1379
sg1398
I00
sg1399
I01
sg85
I4
sb(dp1403
g1398
I00
sg1397
g747
sssg290
g291
sg292
g291
sg293
(dp1404
g1394
(dp1405
sg1401
(dp1406
ssg486
g1404
sg100
(dp1407
sg488
g291
sg489
g1404
sg490
(dp1408
g1394
(dp1409
sg1401
(dp1410
ssbsg583
(lp1411
g1401
ag1394
asg860
(lp1412
sg85
I1
sg72
g1304
sbsS'SynForm'
p1413
(iconstruction
TP_SYNFORM
p1414
(dp1415
g85
I2
sS'form'
p1416
(lp1417
(iconstruction
TP_SLOT
p1418
(dp1419
S'cxn_classes'
p1420
(lp1421
VS
p1422
asS'order'
p1423
I0
sg85
I6
sg72
g1380
sba(iconstruction
TP_PHON
p1424
(dp1425
S'num_syllables'
p1426
I3
sg1423
I1
sg85
I7
sS'cxn_phonetics'
p1427
Vand
p1428
sg72
VS2_7
p1429
sba(iconstruction
TP_SLOT
p1430
(dp1431
g1420
(lp1432
VS
p1433
asg1423
I2
sg85
I8
sg72
g1382
sbasg72
g1304
sbsS'preference'
p1434
I1
sba(iconstruction
CXN
p1435
(dp1436
g1374
(iconstruction
TP_SYMLINKS
p1437
(dp1438
g1377
(dp1439
VEVT2_13
p1440
VS3_17
p1441
sVEVT1_12
p1442
VS1_15
p1443
ssg85
I11
sg72
g1304
sbsg1383
VD
p1444
sg1385
I3
sg72
VCNJ_THEN
p1445
sg1387
(iconstruction
TP_SEMFRAME
p1446
(dp1447
g100
g0
(g101
g2
Ntp1448
Rp1449
(dp1450
g105
(dp1451
(iconstruction
TP_NODE
p1452
(dp1453
g1396
I00
sg1397
g747
sg72
g1442
sg1398
I00
sg1399
I00
sg85
I12
sb(dp1454
g1398
I00
sg1397
g747
ss(iconstruction
TP_NODE
p1455
(dp1456
g1396
I00
sg1397
g747
sg72
g1440
sg1398
I00
sg1399
I00
sg85
I13
sb(dp1457
g1398
I00
sg1397
g747
sssg290
g291
sg292
g291
sg293
(dp1458
g1452
(dp1459
g1455
(dp1460
g1397
g732
sssg1455
(dp1461
ssg486
g1458
sg100
(dp1462
sg488
g291
sg489
g1458
sg490
(dp1463
g1452
(dp1464
sg1455
(dp1465
g1452
g1460
sssbsg583
(lp1466
g1452
ag1455
asg860
(lp1467
(iconstruction
TP_REL
p1468
(dp1469
g866
g1455
sg1397
g732
sg85
I14
sg867
g1452
sg72
VEVT1_EVT2_14
p1470
sbasg85
I9
sg72
g1304
sbsg1413
(iconstruction
TP_SYNFORM
p1471
(dp1472
g85
I10
sg1416
(lp1473
(iconstruction
TP_SLOT
p1474
(dp1475
g1420
(lp1476
VS
p1477
asg1423
I0
sg85
I15
sg72
g1443
sba(iconstruction
TP_PHON
p1478
(dp1479
g1426
I4
sg1423
I1
sg85
I16
sg1427
Vthen
p1480
sg72
VS2_16
p1481
sba(iconstruction
TP_SLOT
p1482
(dp1483
g1420
(lp1484
VS
p1485
asg1423
I2
sg85
I17
sg72
g1441
sbasg72
g1304
sbsg1434
I1
sba(iconstruction
CXN
p1486
(dp1487
g1374
(iconstruction
TP_SYMLINKS
p1488
(dp1489
g1377
(dp1490
VEVT2_22
p1491
VS3_26
p1492
sVEVT1_21
p1493
VS1_24
p1494
ssg85
I20
sg72
g1304
sbsg1383
VD
p1495
sg1385
I3
sg72
VCNJ_WHILE
p1496
sg1387
(iconstruction
TP_SEMFRAME
p1497
(dp1498
g100
g0
(g101
g2
Ntp1499
Rp1500
(dp1501
g105
(dp1502
(iconstruction
TP_NODE
p1503
(dp1504
g1396
I00
sg1397
g747
sg72
g1491
sg1398
I00
sg1399
I00
sg85
I22
sb(dp1505
g1398
I00
sg1397
g747
ss(iconstruction
TP_NODE
p1506
(dp1507
g1396
I00
sg1397
g747
sg72
g1493
sg1398
I00
sg1399
I01
sg85
I21
sb(dp1508
g1398
I00
sg1397
g747
sssg290
g291
sg292
g291
sg293
(dp1509
g1503
(dp1510
sg1506
(dp1511
g1503
(dp1512
g1397
g729
ssssg486
g1509
sg100
(dp1513
sg488
g291
sg489
g1509
sg490
(dp1514
g1503
(dp1515
g1506
g1512
ssg1506
(dp1516
ssbsg583
(lp1517
g1506
ag1503
asg860
(lp1518
(iconstruction
TP_REL
p1519
(dp1520
g866
g1503
sg1397
g729
sg85
I23
sg867
g1506
sg72
VEVT1_EVT2_23
p1521
sbasg85
I18
sg72
g1304
sbsg1413
(iconstruction
TP_SYNFORM
p1522
(dp1523
g85
I19
sg1416
(lp1524
(iconstruction
TP_SLOT
p1525
(dp1526
g1420
(lp1527
VS
p1528
asg1423
I0
sg85
I24
sg72
g1494
sba(iconstruction
TP_PHON
p1529
(dp1530
g1426
I5
sg1423
I1
sg85
I25
sg1427
Vwhile
p1531
sg72
VS2_25
p1532
sba(iconstruction
TP_SLOT
p1533
(dp1534
g1420
(lp1535
VS
p1536
asg1423
I2
sg85
I26
sg72
g1492
sbasg72
g1304
sbsg1434
I1
sba(iconstruction
CXN
p1537
(dp1538
g1374
(iconstruction
TP_SYMLINKS
p1539
(dp1540
g1377
(dp1541
VACT_31
p1542
VS4_40
p1543
sVACTOR_1_32
p1544
VS1_37
p1545
sVACTOR_2_33
p1546
VS3_39
p1547
ssg85
I29
sg72
g1304
sbsg1383
VS
p1548
sg1385
Nsg72
VSYMMETRIC_TRANS
p1549
sg1387
(iconstruction
TP_SEMFRAME
p1550
(dp1551
g100
g0
(g101
g2
Ntp1552
Rp1553
(dp1554
g105
(dp1555
(iconstruction
TP_NODE
p1556
(dp1557
g1396
I01
sg1397
g747
sg72
VEVT_30
p1558
sg1398
I01
sg1399
I00
sg85
I30
sb(dp1559
g1398
I01
sg1397
g747
ss(iconstruction
TP_NODE
p1560
(dp1561
g1396
I00
sg1397
g750
sg72
g1544
sg1398
I01
sg1399
I01
sg85
I32
sb(dp1562
g1398
I01
sg1397
g750
ss(iconstruction
TP_NODE
p1563
(dp1564
g1396
I00
sg1397
g750
sg72
g1546
sg1398
I01
sg1399
I00
sg85
I33
sb(dp1565
g1398
I01
sg1397
g750
ss(iconstruction
TP_NODE
p1566
(dp1567
g1396
I00
sg1397
g594
sg72
g1542
sg1398
I01
sg1399
I00
sg85
I31
sb(dp1568
g1398
I01
sg1397
g594
sssg290
g291
sg292
g291
sg293
(dp1569
g1556
(dp1570
g1566
(dp1571
g1397
g741
sssg1560
(dp1572
sg1563
(dp1573
sg1566
(dp1574
g1560
(dp1575
g1397
g717
ssg1563
(dp1576
g1397
g717
ssssg486
g1569
sg100
(dp1577
sg488
g291
sg489
g1569
sg490
(dp1578
g1556
(dp1579
sg1560
(dp1580
g1566
g1575
ssg1563
(dp1581
g1566
g1576
ssg1566
(dp1582
g1556
g1571
sssbsg583
(lp1583
g1556
ag1566
ag1560
ag1563
asg860
(lp1584
(iconstruction
TP_REL
p1585
(dp1586
g866
g1566
sg1397
g741
sg85
I34
sg867
g1556
sg72
VIS_34
p1587
sba(iconstruction
TP_REL
p1588
(dp1589
g866
g1560
sg1397
g717
sg85
I35
sg867
g1566
sg72
VAGT_PT_1_35
p1590
sba(iconstruction
TP_REL
p1591
(dp1592
g866
g1563
sg1397
g717
sg85
I36
sg867
g1566
sg72
VAGT_PT_2_36
p1593
sbasg85
I27
sg72
g1304
sbsg1413
(iconstruction
TP_SYNFORM
p1594
(dp1595
g85
I28
sg1416
(lp1596
(iconstruction
TP_SLOT
p1597
(dp1598
g1420
(lp1599
VNP
p1600
aVN
p1601
asg1423
I0
sg85
I37
sg72
g1545
sba(iconstruction
TP_PHON
p1602
(dp1603
g1426
I3
sg1423
I1
sg85
I38
sg1427
Vand
p1604
sg72
VS2_38
p1605
sba(iconstruction
TP_SLOT
p1606
(dp1607
g1420
(lp1608
VNP
p1609
aVN
p1610
asg1423
I2
sg85
I39
sg72
g1547
sba(iconstruction
TP_SLOT
p1611
(dp1612
g1420
(lp1613
VVP
p1614
aVV
p1615
asg1423
I3
sg85
I40
sg72
g1543
sbasg72
g1304
sbsg1434
I1
sba(iconstruction
CXN
p1616
(dp1617
g1374
(iconstruction
TP_SYMLINKS
p1618
(dp1619
g1377
(dp1620
VAGT_46
p1621
VS1_51
p1622
sVACT_45
p1623
VS2_52
p1624
sVPT_47
p1625
VS3_53
p1626
ssg85
I43
sg72
g1304
sbsg1383
VS
p1627
sg1385
I2
sg72
VSVO
p1628
sg1387
(iconstruction
TP_SEMFRAME
p1629
(dp1630
g100
g0
(g101
g2
Ntp1631
Rp1632
(dp1633
g105
(dp1634
(iconstruction
TP_NODE
p1635
(dp1636
g1396
I01
sg1397
g747
sg72
VEVT_44
p1637
sg1398
I01
sg1399
I00
sg85
I44
sb(dp1638
g1398
I01
sg1397
g747
ss(iconstruction
TP_NODE
p1639
(dp1640
g1396
I00
sg1397
g750
sg72
g1621
sg1398
I01
sg1399
I01
sg85
I46
sb(dp1641
g1398
I01
sg1397
g750
ss(iconstruction
TP_NODE
p1642
(dp1643
g1396
I00
sg1397
g594
sg72
g1623
sg1398
I01
sg1399
I00
sg85
I45
sb(dp1644
g1398
I01
sg1397
g594
ss(iconstruction
TP_NODE
p1645
(dp1646
g1396
I00
sg1397
g750
sg72
g1625
sg1398
I01
sg1399
I00
sg85
I47
sb(dp1647
g1398
I01
sg1397
g750
sssg290
g291
sg292
g291
sg293
(dp1648
g1635
(dp1649
g1642
(dp1650
g1397
g741
sssg1639
(dp1651
sg1642
(dp1652
g1639
(dp1653
g1397
g720
ssg1645
(dp1654
g1397
g714
sssg1645
(dp1655
ssg486
g1648
sg100
(dp1656
sg488
g291
sg489
g1648
sg490
(dp1657
g1635
(dp1658
sg1639
(dp1659
g1642
g1653
ssg1642
(dp1660
g1635
g1650
ssg1645
(dp1661
g1642
g1654
sssbsg583
(lp1662
g1635
ag1642
ag1639
ag1645
asg860
(lp1663
(iconstruction
TP_REL
p1664
(dp1665
g866
g1642
sg1397
g741
sg85
I48
sg867
g1635
sg72
VIS_48
p1666
sba(iconstruction
TP_REL
p1667
(dp1668
g866
g1639
sg1397
g720
sg85
I49
sg867
g1642
sg72
VACT_AGT_49
p1669
sba(iconstruction
TP_REL
p1670
(dp1671
g866
g1645
sg1397
g714
sg85
I50
sg867
g1642
sg72
VACT_PT_50
p1672
sbasg85
I41
sg72
g1304
sbsg1413
(iconstruction
TP_SYNFORM
p1673
(dp1674
g85
I42
sg1416
(lp1675
(iconstruction
TP_SLOT
p1676
(dp1677
g1420
(lp1678
VNP
p1679
aVN
p1680
asg1423
I0
sg85
I51
sg72
g1622
sba(iconstruction
TP_SLOT
p1681
(dp1682
g1420
(lp1683
VVP
p1684
aVV
p1685
asg1423
I1
sg85
I52
sg72
g1624
sba(iconstruction
TP_SLOT
p1686
(dp1687
g1420
(lp1688
VNP
p1689
aVN
p1690
asg1423
I2
sg85
I53
sg72
g1626
sbasg72
g1304
sbsg1434
I1
sba(iconstruction
CXN
p1691
(dp1692
g1374
(iconstruction
TP_SYMLINKS
p1693
(dp1694
g1377
(dp1695
VPT_60
p1696
VS1_64
p1697
sVACT_58
p1698
VS3_66
p1699
sVAGT_59
p1700
VS6_69
p1701
ssg85
I56
sg72
g1304
sbsg1383
VS
p1702
sg1385
I2
sg72
VPAS_SVO
p1703
sg1387
(iconstruction
TP_SEMFRAME
p1704
(dp1705
g100
g0
(g101
g2
Ntp1706
Rp1707
(dp1708
g105
(dp1709
(iconstruction
TP_NODE
p1710
(dp1711
g1396
I01
sg1397
g747
sg72
VEVT_57
p1712
sg1398
I01
sg1399
I00
sg85
I57
sb(dp1713
g1398
I01
sg1397
g747
ss(iconstruction
TP_NODE
p1714
(dp1715
g1396
I00
sg1397
g750
sg72
g1700
sg1398
I01
sg1399
I00
sg85
I59
sb(dp1716
g1398
I01
sg1397
g750
ss(iconstruction
TP_NODE
p1717
(dp1718
g1396
I00
sg1397
g594
sg72
g1698
sg1398
I01
sg1399
I00
sg85
I58
sb(dp1719
g1398
I01
sg1397
g594
ss(iconstruction
TP_NODE
p1720
(dp1721
g1396
I00
sg1397
g750
sg72
g1696
sg1398
I01
sg1399
I01
sg85
I60
sb(dp1722
g1398
I01
sg1397
g750
sssg290
g291
sg292
g291
sg293
(dp1723
g1710
(dp1724
g1717
(dp1725
g1397
g741
sssg1714
(dp1726
sg1717
(dp1727
g1714
(dp1728
g1397
g720
ssg1720
(dp1729
g1397
g714
sssg1720
(dp1730
ssg486
g1723
sg100
(dp1731
sg488
g291
sg489
g1723
sg490
(dp1732
g1710
(dp1733
sg1714
(dp1734
g1717
g1728
ssg1717
(dp1735
g1710
g1725
ssg1720
(dp1736
g1717
g1729
sssbsg583
(lp1737
g1710
ag1717
ag1714
ag1720
asg860
(lp1738
(iconstruction
TP_REL
p1739
(dp1740
g866
g1717
sg1397
g741
sg85
I61
sg867
g1710
sg72
VIS_61
p1741
sba(iconstruction
TP_REL
p1742
(dp1743
g866
g1714
sg1397
g720
sg85
I62
sg867
g1717
sg72
VACT_AGT_62
p1744
sba(iconstruction
TP_REL
p1745
(dp1746
g866
g1720
sg1397
g714
sg85
I63
sg867
g1717
sg72
VACT_PT_63
p1747
sbasg85
I54
sg72
g1304
sbsg1413
(iconstruction
TP_SYNFORM
p1748
(dp1749
g85
I55
sg1416
(lp1750
(iconstruction
TP_SLOT
p1751
(dp1752
g1420
(lp1753
VNP
p1754
aVN
p1755
asg1423
I0
sg85
I64
sg72
g1697
sba(iconstruction
TP_PHON
p1756
(dp1757
g1426
I2
sg1423
I1
sg85
I65
sg1427
Vis
p1758
sg72
VS2_65
p1759
sba(iconstruction
TP_SLOT
p1760
(dp1761
g1420
(lp1762
VVP
p1763
aVV
p1764
asg1423
I2
sg85
I66
sg72
g1699
sba(iconstruction
TP_PHON
p1765
(dp1766
g1426
I2
sg1423
I3
sg85
I67
sg1427
V-ed
p1767
sg72
VS4_67
p1768
sba(iconstruction
TP_PHON
p1769
(dp1770
g1426
I2
sg1423
I4
sg85
I68
sg1427
Vby
p1771
sg72
VS5_68
p1772
sba(iconstruction
TP_SLOT
p1773
(dp1774
g1420
(lp1775
VNP
p1776
aVN
p1777
asg1423
I5
sg85
I69
sg72
g1701
sbasg72
g1304
sbsg1434
I1
sba(iconstruction
CXN
p1778
(dp1779
g1374
(iconstruction
TP_SYMLINKS
p1780
(dp1781
g1377
(dp1782
VACT_74
p1783
VS2_83
p1784
sVRCPT_77
p1785
VS3_84
p1786
sVTHEME_76
p1787
VS4_85
p1788
sVAGT_75
p1789
VS1_82
p1790
ssg85
I72
sg72
g1304
sbsg1383
VS
p1791
sg1385
I2
sg72
VDOUBLE_OBJ
p1792
sg1387
(iconstruction
TP_SEMFRAME
p1793
(dp1794
g100
g0
(g101
g2
Ntp1795
Rp1796
(dp1797
g105
(dp1798
(iconstruction
TP_NODE
p1799
(dp1800
g1396
I01
sg1397
g747
sg72
VEVT_73
p1801
sg1398
I01
sg1399
I00
sg85
I73
sb(dp1802
g1398
I01
sg1397
g747
ss(iconstruction
TP_NODE
p1803
(dp1804
g1396
I00
sg1397
g750
sg72
g1789
sg1398
I01
sg1399
I01
sg85
I75
sb(dp1805
g1398
I01
sg1397
g750
ss(iconstruction
TP_NODE
p1806
(dp1807
g1396
I00
sg1397
g750
sg72
g1787
sg1398
I01
sg1399
I00
sg85
I76
sb(dp1808
g1398
I01
sg1397
g750
ss(iconstruction
TP_NODE
p1809
(dp1810
g1396
I00
sg1397
g750
sg72
g1785
sg1398
I01
sg1399
I00
sg85
I77
sb(dp1811
g1398
I01
sg1397
g750
ss(iconstruction
TP_NODE
p1812
(dp1813
g1396
I00
sg1397
g594
sg72
g1783
sg1398
I01
sg1399
I00
sg85
I74
sb(dp1814
g1398
I01
sg1397
g594
sssg290
g291
sg292
g291
sg293
(dp1815
g1799
(dp1816
g1812
(dp1817
g1397
g741
sssg1803
(dp1818
sg1806
(dp1819
sg1809
(dp1820
sg1812
(dp1821
g1803
(dp1822
g1397
g720
ssg1809
(dp1823
g1397
g705
ssg1806
(dp1824
g1397
g702
ssssg486
g1815
sg100
(dp1825
sg488
g291
sg489
g1815
sg490
(dp1826
g1799
(dp1827
sg1803
(dp1828
g1812
g1822
ssg1806
(dp1829
g1812
g1824
ssg1809
(dp1830
g1812
g1823
ssg1812
(dp1831
g1799
g1817
sssbsg583
(lp1832
g1799
ag1812
ag1803
ag1806
ag1809
asg860
(lp1833
(iconstruction
TP_REL
p1834
(dp1835
g866
g1812
sg1397
g741
sg85
I78
sg867
g1799
sg72
VIS_78
p1836
sba(iconstruction
TP_REL
p1837
(dp1838
g866
g1803
sg1397
g720
sg85
I79
sg867
g1812
sg72
VACT_AGT_79
p1839
sba(iconstruction
TP_REL
p1840
(dp1841
g866
g1806
sg1397
g702
sg85
I80
sg867
g1812
sg72
VACT_THEME_80
p1842
sba(iconstruction
TP_REL
p1843
(dp1844
g866
g1809
sg1397
g705
sg85
I81
sg867
g1812
sg72
VACT_RCPT_81
p1845
sbasg85
I70
sg72
g1304
sbsg1413
(iconstruction
TP_SYNFORM
p1846
(dp1847
g85
I71
sg1416
(lp1848
(iconstruction
TP_SLOT
p1849
(dp1850
g1420
(lp1851
VNP
p1852
aVN
p1853
asg1423
I0
sg85
I82
sg72
g1790
sba(iconstruction
TP_SLOT
p1854
(dp1855
g1420
(lp1856
VVP
p1857
aVV
p1858
asg1423
I1
sg85
I83
sg72
g1784
sba(iconstruction
TP_SLOT
p1859
(dp1860
g1420
(lp1861
VNP
p1862
aVN
p1863
asg1423
I2
sg85
I84
sg72
g1786
sba(iconstruction
TP_SLOT
p1864
(dp1865
g1420
(lp1866
VNP
p1867
aVN
p1868
asg1423
I3
sg85
I85
sg72
g1788
sbasg72
g1304
sbsg1434
I1
sba(iconstruction
CXN
p1869
(dp1870
g1374
(iconstruction
TP_SYMLINKS
p1871
(dp1872
g1377
(dp1873
VAGT_91
p1874
VS1_98
p1875
sVRCPT_93
p1876
VS5_102
p1877
sVACT_90
p1878
VS2_99
p1879
sVTHEME_92
p1880
VS3_100
p1881
ssg85
I88
sg72
g1304
sbsg1383
VS
p1882
sg1385
I2
sg72
VOBLIQUE_DATIVE
p1883
sg1387
(iconstruction
TP_SEMFRAME
p1884
(dp1885
g100
g0
(g101
g2
Ntp1886
Rp1887
(dp1888
g105
(dp1889
(iconstruction
TP_NODE
p1890
(dp1891
g1396
I01
sg1397
g747
sg72
VEVT_89
p1892
sg1398
I01
sg1399
I00
sg85
I89
sb(dp1893
g1398
I01
sg1397
g747
ss(iconstruction
TP_NODE
p1894
(dp1895
g1396
I00
sg1397
g750
sg72
g1874
sg1398
I01
sg1399
I01
sg85
I91
sb(dp1896
g1398
I01
sg1397
g750
ss(iconstruction
TP_NODE
p1897
(dp1898
g1396
I00
sg1397
g750
sg72
g1876
sg1398
I01
sg1399
I00
sg85
I93
sb(dp1899
g1398
I01
sg1397
g750
ss(iconstruction
TP_NODE
p1900
(dp1901
g1396
I00
sg1397
g642
sg72
g1878
sg1398
I01
sg1399
I00
sg85
I90
sb(dp1902
g1398
I01
sg1397
g642
ss(iconstruction
TP_NODE
p1903
(dp1904
g1396
I00
sg1397
g750
sg72
g1880
sg1398
I01
sg1399
I00
sg85
I92
sb(dp1905
g1398
I01
sg1397
g750
sssg290
g291
sg292
g291
sg293
(dp1906
g1890
(dp1907
g1900
(dp1908
g1397
g741
sssg1894
(dp1909
sg1897
(dp1910
sg1900
(dp1911
g1894
(dp1912
g1397
g720
ssg1897
(dp1913
g1397
g705
ssg1903
(dp1914
g1397
g702
sssg1903
(dp1915
ssg486
g1906
sg100
(dp1916
sg488
g291
sg489
g1906
sg490
(dp1917
g1890
(dp1918
sg1894
(dp1919
g1900
g1912
ssg1897
(dp1920
g1900
g1913
ssg1900
(dp1921
g1890
g1908
ssg1903
(dp1922
g1900
g1914
sssbsg583
(lp1923
g1890
ag1900
ag1894
ag1903
ag1897
asg860
(lp1924
(iconstruction
TP_REL
p1925
(dp1926
g866
g1900
sg1397
g741
sg85
I94
sg867
g1890
sg72
VIS_94
p1927
sba(iconstruction
TP_REL
p1928
(dp1929
g866
g1894
sg1397
g720
sg85
I95
sg867
g1900
sg72
VACT_AGT_95
p1930
sba(iconstruction
TP_REL
p1931
(dp1932
g866
g1903
sg1397
g702
sg85
I96
sg867
g1900
sg72
VACT_THEME_96
p1933
sba(iconstruction
TP_REL
p1934
(dp1935
g866
g1897
sg1397
g705
sg85
I97
sg867
g1900
sg72
VACT_RCPT_97
p1936
sbasg85
I86
sg72
g1304
sbsg1413
(iconstruction
TP_SYNFORM
p1937
(dp1938
g85
I87
sg1416
(lp1939
(iconstruction
TP_SLOT
p1940
(dp1941
g1420
(lp1942
VNP
p1943
aVN
p1944
asg1423
I0
sg85
I98
sg72
g1875
sba(iconstruction
TP_SLOT
p1945
(dp1946
g1420
(lp1947
VVP
p1948
aVV
p1949
asg1423
I1
sg85
I99
sg72
g1879
sba(iconstruction
TP_SLOT
p1950
(dp1951
g1420
(lp1952
VNP
p1953
aVN
p1954
asg1423
I2
sg85
I100
sg72
g1881
sba(iconstruction
TP_PHON
p1955
(dp1956
g1426
I2
sg1423
I3
sg85
I101
sg1427
Vto
p1957
sg72
VS4_101
p1958
sba(iconstruction
TP_SLOT
p1959
(dp1960
g1420
(lp1961
VNP
p1962
aVN
p1963
asg1423
I4
sg85
I102
sg72
g1877
sbasg72
g1304
sbsg1434
I1
sba(iconstruction
CXN
p1964
(dp1965
g1374
(iconstruction
TP_SYMLINKS
p1966
(dp1967
g1377
(dp1968
VATTR_108
p1969
VS3_113
p1970
sVENT_107
p1971
VS1_111
p1972
ssg85
I105
sg72
g1304
sbsg1383
VS
p1973
sg1385
I2
sg72
VSPA
p1974
sg1387
(iconstruction
TP_SEMFRAME
p1975
(dp1976
g100
g0
(g101
g2
Ntp1977
Rp1978
(dp1979
g105
(dp1980
(iconstruction
TP_NODE
p1981
(dp1982
g1396
I01
sg1397
g747
sg72
VEVT_106
p1983
sg1398
I01
sg1399
I00
sg85
I106
sb(dp1984
g1398
I01
sg1397
g747
ss(iconstruction
TP_NODE
p1985
(dp1986
g1396
I00
sg1397
g651
sg72
g1969
sg1398
I00
sg1399
I00
sg85
I108
sb(dp1987
g1398
I00
sg1397
g651
ss(iconstruction
TP_NODE
p1988
(dp1989
g1396
I00
sg1397
g750
sg72
g1971
sg1398
I01
sg1399
I01
sg85
I107
sb(dp1990
g1398
I01
sg1397
g750
sssg290
g291
sg292
g291
sg293
(dp1991
g1981
(dp1992
g1985
(dp1993
g1397
g699
ssg1988
(dp1994
g1397
g741
sssg1985
(dp1995
sg1988
(dp1996
ssg486
g1991
sg100
(dp1997
sg488
g291
sg489
g1991
sg490
(dp1998
g1981
(dp1999
sg1985
(dp2000
g1981
g1993
ssg1988
(dp2001
g1981
g1994
sssbsg583
(lp2002
g1981
ag1988
ag1985
asg860
(lp2003
(iconstruction
TP_REL
p2004
(dp2005
g866
g1988
sg1397
g741
sg85
I109
sg867
g1981
sg72
VIS_109
p2006
sba(iconstruction
TP_REL
p2007
(dp2008
g866
g1985
sg1397
g699
sg85
I110
sg867
g1981
sg72
VEVT_ATTR_110
p2009
sbasg85
I103
sg72
g1304
sbsg1413
(iconstruction
TP_SYNFORM
p2010
(dp2011
g85
I104
sg1416
(lp2012
(iconstruction
TP_SLOT
p2013
(dp2014
g1420
(lp2015
VNP
p2016
aVN
p2017
asg1423
I0
sg85
I111
sg72
g1972
sba(iconstruction
TP_PHON
p2018
(dp2019
g1426
I2
sg1423
I1
sg85
I112
sg1427
Vis
p2020
sg72
VS2_112
p2021
sba(iconstruction
TP_SLOT
p2022
(dp2023
g1420
(lp2024
VA
p2025
asg1423
I2
sg85
I113
sg72
g1970
sbasg72
g1304
sbsg1434
I1
sba(iconstruction
CXN
p2026
(dp2027
g1374
(iconstruction
TP_SYMLINKS
p2028
(dp2029
g1377
(dp2030
VAGT_119
p2031
VS1_122
p2032
sVACT_118
p2033
VS2_123
p2034
ssg85
I116
sg72
g1304
sbsg1383
VS
p2035
sg1385
I2
sg72
VSV
p2036
sg1387
(iconstruction
TP_SEMFRAME
p2037
(dp2038
g100
g0
(g101
g2
Ntp2039
Rp2040
(dp2041
g105
(dp2042
(iconstruction
TP_NODE
p2043
(dp2044
g1396
I00
sg1397
g606
sg72
g2033
sg1398
I01
sg1399
I00
sg85
I118
sb(dp2045
g1398
I01
sg1397
g606
ss(iconstruction
TP_NODE
p2046
(dp2047
g1396
I00
sg1397
g750
sg72
g2031
sg1398
I01
sg1399
I01
sg85
I119
sb(dp2048
g1398
I01
sg1397
g750
ss(iconstruction
TP_NODE
p2049
(dp2050
g1396
I01
sg1397
g747
sg72
VEVT_117
p2051
sg1398
I01
sg1399
I00
sg85
I117
sb(dp2052
g1398
I01
sg1397
g747
sssg290
g291
sg292
g291
sg293
(dp2053
g2043
(dp2054
g2046
(dp2055
g1397
g720
sssg2046
(dp2056
sg2049
(dp2057
g2043
(dp2058
g1397
g741
ssssg486
g2053
sg100
(dp2059
sg488
g291
sg489
g2053
sg490
(dp2060
g2043
(dp2061
g2049
g2058
ssg2046
(dp2062
g2043
g2055
ssg2049
(dp2063
ssbsg583
(lp2064
g2049
ag2043
ag2046
asg860
(lp2065
(iconstruction
TP_REL
p2066
(dp2067
g866
g2043
sg1397
g741
sg85
I120
sg867
g2049
sg72
VIS_120
p2068
sba(iconstruction
TP_REL
p2069
(dp2070
g866
g2046
sg1397
g720
sg85
I121
sg867
g2043
sg72
VACT_AGT_121
p2071
sbasg85
I114
sg72
g1304
sbsg1413
(iconstruction
TP_SYNFORM
p2072
(dp2073
g85
I115
sg1416
(lp2074
(iconstruction
TP_SLOT
p2075
(dp2076
g1420
(lp2077
VNP
p2078
aVN
p2079
asg1423
I0
sg85
I122
sg72
g2032
sba(iconstruction
TP_SLOT
p2080
(dp2081
g1420
(lp2082
VVP
p2083
aVV
p2084
asg1423
I1
sg85
I123
sg72
g2034
sbasg72
g1304
sbsg1434
I1
sba(iconstruction
CXN
p2085
(dp2086
g1374
(iconstruction
TP_SYMLINKS
p2087
(dp2088
g1377
(dp2089
VEVT_127
p2090
VS1_130
p2091
sVPLACE_128
p2092
VS3_132
p2093
ssg85
I126
sg72
g1304
sbsg1383
VS
p2094
sg1385
I2
sg72
VPP_IN
p2095
sg1387
(iconstruction
TP_SEMFRAME
p2096
(dp2097
g100
g0
(g101
g2
Ntp2098
Rp2099
(dp2100
g105
(dp2101
(iconstruction
TP_NODE
p2102
(dp2103
g1396
I00
sg1397
g750
sg72
g2092
sg1398
I01
sg1399
I00
sg85
I128
sb(dp2104
g1398
I01
sg1397
g750
ss(iconstruction
TP_NODE
p2105
(dp2106
g1396
I01
sg1397
g747
sg72
g2090
sg1398
I01
sg1399
I00
sg85
I127
sb(dp2107
g1398
I01
sg1397
g747
sssg290
g291
sg292
g291
sg293
(dp2108
g2102
(dp2109
sg2105
(dp2110
g2102
(dp2111
g1397
g738
ssssg486
g2108
sg100
(dp2112
sg488
g291
sg489
g2108
sg490
(dp2113
g2102
(dp2114
g2105
g2111
ssg2105
(dp2115
ssbsg583
(lp2116
g2105
ag2102
asg860
(lp2117
(iconstruction
TP_REL
p2118
(dp2119
g866
g2102
sg1397
g738
sg85
I129
sg867
g2105
sg72
VEVT_PP_129
p2120
sbasg85
I124
sg72
g1304
sbsg1413
(iconstruction
TP_SYNFORM
p2121
(dp2122
g85
I125
sg1416
(lp2123
(iconstruction
TP_SLOT
p2124
(dp2125
g1420
(lp2126
VS
p2127
asg1423
I0
sg85
I130
sg72
g2091
sba(iconstruction
TP_PHON
p2128
(dp2129
g1426
I2
sg1423
I1
sg85
I131
sg1427
Vin
p2130
sg72
VS2_131
p2131
sba(iconstruction
TP_SLOT
p2132
(dp2133
g1420
(lp2134
VNP
p2135
aVN
p2136
asg1423
I2
sg85
I132
sg72
g2093
sbasg72
g1304
sbsg1434
I1
sba(iconstruction
CXN
p2137
(dp2138
g1374
(iconstruction
TP_SYMLINKS
p2139
(dp2140
g1377
(dp2141
VEVT2_137
p2142
VS2_140
p2143
sVEVT1_136
p2144
VS1_139
p2145
ssg85
I135
sg72
g1304
sbsg1383
VS
p2146
sg1385
I2
sg72
VS_PP
p2147
sg1387
(iconstruction
TP_SEMFRAME
p2148
(dp2149
g100
g0
(g101
g2
Ntp2150
Rp2151
(dp2152
g105
(dp2153
(iconstruction
TP_NODE
p2154
(dp2155
g1396
I01
sg1397
g747
sg72
g2144
sg1398
I01
sg1399
I01
sg85
I136
sb(dp2156
g1398
I01
sg1397
g747
ss(iconstruction
TP_NODE
p2157
(dp2158
g1396
I00
sg1397
g747
sg72
g2142
sg1398
I01
sg1399
I00
sg85
I137
sb(dp2159
g1398
I01
sg1397
g747
sssg290
g291
sg292
g291
sg293
(dp2160
g2154
(dp2161
g2157
(dp2162
g1397
g699
sssg2157
(dp2163
ssg486
g2160
sg100
(dp2164
sg488
g291
sg489
g2160
sg490
(dp2165
g2154
(dp2166
sg2157
(dp2167
g2154
g2162
sssbsg583
(lp2168
g2154
ag2157
asg860
(lp2169
(iconstruction
TP_REL
p2170
(dp2171
g866
g2157
sg1397
g699
sg85
I138
sg867
g2154
sg72
VMOD_138
p2172
sbasg85
I133
sg72
g1304
sbsg1413
(iconstruction
TP_SYNFORM
p2173
(dp2174
g85
I134
sg1416
(lp2175
(iconstruction
TP_SLOT
p2176
(dp2177
g1420
(lp2178
VS
p2179
asg1423
I0
sg85
I139
sg72
g2145
sba(iconstruction
TP_SLOT
p2180
(dp2181
g1420
(lp2182
VPP
p2183
asg1423
I1
sg85
I140
sg72
g2143
sbasg72
g1304
sbsg1434
I1
sba(iconstruction
CXN
p2184
(dp2185
g1374
(iconstruction
TP_SYMLINKS
p2186
(dp2187
g1377
(dp2188
VENT_144
p2189
VS2_148
p2190
sVATTR_145
p2191
VS1_147
p2192
ssg85
I143
sg72
g1304
sbsg1383
VN
p2193
sg1385
I2
sg72
VADJUNCT_N
p2194
sg1387
(iconstruction
TP_SEMFRAME
p2195
(dp2196
g100
g0
(g101
g2
Ntp2197
Rp2198
(dp2199
g105
(dp2200
(iconstruction
TP_NODE
p2201
(dp2202
g1396
I01
sg1397
g750
sg72
g2189
sg1398
I01
sg1399
I00
sg85
I144
sb(dp2203
g1398
I01
sg1397
g750
ss(iconstruction
TP_NODE
p2204
(dp2205
g1396
I00
sg1397
g651
sg72
g2191
sg1398
I00
sg1399
I00
sg85
I145
sb(dp2206
g1398
I00
sg1397
g651
sssg290
g291
sg292
g291
sg293
(dp2207
g2201
(dp2208
g2204
(dp2209
g1397
g699
sssg2204
(dp2210
ssg486
g2207
sg100
(dp2211
sg488
g291
sg489
g2207
sg490
(dp2212
g2201
(dp2213
sg2204
(dp2214
g2201
g2209
sssbsg583
(lp2215
g2201
ag2204
asg860
(lp2216
(iconstruction
TP_REL
p2217
(dp2218
g866
g2204
sg1397
g699
sg85
I146
sg867
g2201
sg72
VENT_ATTR_146
p2219
sbasg85
I141
sg72
g1304
sbsg1413
(iconstruction
TP_SYNFORM
p2220
(dp2221
g85
I142
sg1416
(lp2222
(iconstruction
TP_SLOT
p2223
(dp2224
g1420
(lp2225
VA
p2226
asg1423
I0
sg85
I147
sg72
g2192
sba(iconstruction
TP_SLOT
p2227
(dp2228
g1420
(lp2229
VN
p2230
asg1423
I1
sg85
I148
sg72
g2190
sbasg72
g1304
sbsg1434
I1
sba(iconstruction
CXN
p2231
(dp2232
g1374
(iconstruction
TP_SYMLINKS
p2233
(dp2234
g1377
(dp2235
VAGT_154
p2236
VS1_160
p2237
sVACT_153
p2238
VS3_162
p2239
sVPT_155
p2240
VS4_163
p2241
ssg85
I151
sg72
g1304
sbsg1383
VN
p2242
sg1385
I2
sg72
VSUBJ_REL_SVO
p2243
sg1387
(iconstruction
TP_SEMFRAME
p2244
(dp2245
g100
g0
(g101
g2
Ntp2246
Rp2247
(dp2248
g105
(dp2249
(iconstruction
TP_NODE
p2250
(dp2251
g1396
I00
sg1397
g612
sg72
g2238
sg1398
I01
sg1399
I01
sg85
I153
sb(dp2252
g1398
I01
sg1397
g612
ss(iconstruction
TP_NODE
p2253
(dp2254
g1396
I01
sg1397
g750
sg72
g2236
sg1398
I01
sg1399
I00
sg85
I154
sb(dp2255
g1398
I01
sg1397
g750
ss(iconstruction
TP_NODE
p2256
(dp2257
g1396
I00
sg1397
g747
sg72
VEVT_152
p2258
sg1398
I01
sg1399
I00
sg85
I152
sb(dp2259
g1398
I01
sg1397
g747
ss(iconstruction
TP_NODE
p2260
(dp2261
g1396
I00
sg1397
g750
sg72
g2240
sg1398
I01
sg1399
I00
sg85
I155
sb(dp2262
g1398
I01
sg1397
g750
sssg290
g291
sg292
g291
sg293
(dp2263
g2250
(dp2264
g2260
(dp2265
g1397
g714
ssg2253
(dp2266
g1397
g720
sssg2253
(dp2267
g2256
(dp2268
g1397
g699
sssg2256
(dp2269
g2250
(dp2270
g1397
g741
sssg2260
(dp2271
ssg486
g2263
sg100
(dp2272
sg488
g291
sg489
g2263
sg490
(dp2273
g2250
(dp2274
g2256
g2270
ssg2253
(dp2275
g2250
g2266
ssg2256
(dp2276
g2253
g2268
ssg2260
(dp2277
g2250
g2265
sssbsg583
(lp2278
g2256
ag2250
ag2253
ag2260
asg860
(lp2279
(iconstruction
TP_REL
p2280
(dp2281
g866
g2250
sg1397
g741
sg85
I156
sg867
g2256
sg72
VIS_156
p2282
sba(iconstruction
TP_REL
p2283
(dp2284
g866
g2253
sg1397
g720
sg85
I157
sg867
g2250
sg72
VACT_AGT_157
p2285
sba(iconstruction
TP_REL
p2286
(dp2287
g866
g2260
sg1397
g714
sg85
I158
sg867
g2250
sg72
VACT_PT_158
p2288
sba(iconstruction
TP_REL
p2289
(dp2290
g866
g2256
sg1397
g699
sg85
I159
sg867
g2253
sg72
VAGT_EVT_159
p2291
sbasg85
I149
sg72
g1304
sbsg1413
(iconstruction
TP_SYNFORM
p2292
(dp2293
g85
I150
sg1416
(lp2294
(iconstruction
TP_SLOT
p2295
(dp2296
g1420
(lp2297
VN
p2298
asg1423
I0
sg85
I160
sg72
g2237
sba(iconstruction
TP_PHON
p2299
(dp2300
g1426
I4
sg1423
I1
sg85
I161
sg1427
Vthat
p2301
sg72
VS2_161
p2302
sba(iconstruction
TP_SLOT
p2303
(dp2304
g1420
(lp2305
VVP
p2306
aVV
p2307
asg1423
I2
sg85
I162
sg72
g2239
sba(iconstruction
TP_SLOT
p2308
(dp2309
g1420
(lp2310
VNP
p2311
aVN
p2312
asg1423
I3
sg85
I163
sg72
g2241
sbasg72
g1304
sbsg1434
I1
sba(iconstruction
CXN
p2313
(dp2314
g1374
(iconstruction
TP_SYMLINKS
p2315
(dp2316
g1377
(dp2317
VAGT_169
p2318
VS1_173
p2319
sVACT_168
p2320
VS3_175
p2321
ssg85
I166
sg72
g1304
sbsg1383
VN
p2322
sg1385
I2
sg72
VSUBJ_REL_SV
p2323
sg1387
(iconstruction
TP_SEMFRAME
p2324
(dp2325
g100
g0
(g101
g2
Ntp2326
Rp2327
(dp2328
g105
(dp2329
(iconstruction
TP_NODE
p2330
(dp2331
g1396
I00
sg1397
g747
sg72
VEVT_167
p2332
sg1398
I01
sg1399
I00
sg85
I167
sb(dp2333
g1398
I01
sg1397
g747
ss(iconstruction
TP_NODE
p2334
(dp2335
g1396
I01
sg1397
g750
sg72
g2318
sg1398
I01
sg1399
I00
sg85
I169
sb(dp2336
g1398
I01
sg1397
g750
ss(iconstruction
TP_NODE
p2337
(dp2338
g1396
I00
sg1397
g594
sg72
g2320
sg1398
I01
sg1399
I01
sg85
I168
sb(dp2339
g1398
I01
sg1397
g594
sssg290
g291
sg292
g291
sg293
(dp2340
g2330
(dp2341
g2337
(dp2342
g1397
g741
sssg2334
(dp2343
g2330
(dp2344
g1397
g699
sssg2337
(dp2345
g2334
(dp2346
g1397
g720
ssssg486
g2340
sg100
(dp2347
sg488
g291
sg489
g2340
sg490
(dp2348
g2330
(dp2349
g2334
g2344
ssg2334
(dp2350
g2337
g2346
ssg2337
(dp2351
g2330
g2342
sssbsg583
(lp2352
g2330
ag2337
ag2334
asg860
(lp2353
(iconstruction
TP_REL
p2354
(dp2355
g866
g2337
sg1397
g741
sg85
I170
sg867
g2330
sg72
VIS_170
p2356
sba(iconstruction
TP_REL
p2357
(dp2358
g866
g2334
sg1397
g720
sg85
I171
sg867
g2337
sg72
VACT_AGT_171
p2359
sba(iconstruction
TP_REL
p2360
(dp2361
g866
g2330
sg1397
g699
sg85
I172
sg867
g2334
sg72
VAGT_EVT_172
p2362
sbasg85
I164
sg72
g1304
sbsg1413
(iconstruction
TP_SYNFORM
p2363
(dp2364
g85
I165
sg1416
(lp2365
(iconstruction
TP_SLOT
p2366
(dp2367
g1420
(lp2368
VN
p2369
asg1423
I0
sg85
I173
sg72
g2319
sba(iconstruction
TP_PHON
p2370
(dp2371
g1426
I4
sg1423
I1
sg85
I174
sg1427
Vthat
p2372
sg72
VS2_174
p2373
sba(iconstruction
TP_SLOT
p2374
(dp2375
g1420
(lp2376
VVP
p2377
aVV
p2378
asg1423
I2
sg85
I175
sg72
g2321
sbasg72
g1304
sbsg1434
I1
sba(iconstruction
CXN
p2379
(dp2380
g1374
(iconstruction
TP_SYMLINKS
p2381
(dp2382
g1377
(dp2383
VAGT_181
p2384
VS7_193
p2385
sVPT_182
p2386
VS1_187
p2387
sVACT_180
p2388
VS4_190
p2389
ssg85
I178
sg72
g1304
sbsg1383
VN
p2390
sg1385
I2
sg72
VSUBJ_REL_PAS_SVO
p2391
sg1387
(iconstruction
TP_SEMFRAME
p2392
(dp2393
g100
g0
(g101
g2
Ntp2394
Rp2395
(dp2396
g105
(dp2397
(iconstruction
TP_NODE
p2398
(dp2399
g1396
I00
sg1397
g747
sg72
VEVT_179
p2400
sg1398
I01
sg1399
I00
sg85
I179
sb(dp2401
g1398
I01
sg1397
g747
ss(iconstruction
TP_NODE
p2402
(dp2403
g1396
I00
sg1397
g750
sg72
g2384
sg1398
I01
sg1399
I00
sg85
I181
sb(dp2404
g1398
I01
sg1397
g750
ss(iconstruction
TP_NODE
p2405
(dp2406
g1396
I01
sg1397
g750
sg72
g2386
sg1398
I01
sg1399
I00
sg85
I182
sb(dp2407
g1398
I01
sg1397
g750
ss(iconstruction
TP_NODE
p2408
(dp2409
g1396
I00
sg1397
g594
sg72
g2388
sg1398
I01
sg1399
I01
sg85
I180
sb(dp2410
g1398
I01
sg1397
g594
sssg290
g291
sg292
g291
sg293
(dp2411
g2398
(dp2412
g2408
(dp2413
g1397
g741
sssg2402
(dp2414
sg2405
(dp2415
g2398
(dp2416
g1397
g699
sssg2408
(dp2417
g2402
(dp2418
g1397
g720
ssg2405
(dp2419
g1397
g714
ssssg486
g2411
sg100
(dp2420
sg488
g291
sg489
g2411
sg490
(dp2421
g2398
(dp2422
g2405
g2416
ssg2402
(dp2423
g2408
g2418
ssg2405
(dp2424
g2408
g2419
ssg2408
(dp2425
g2398
g2413
sssbsg583
(lp2426
g2398
ag2408
ag2402
ag2405
asg860
(lp2427
(iconstruction
TP_REL
p2428
(dp2429
g866
g2408
sg1397
g741
sg85
I183
sg867
g2398
sg72
VIS_183
p2430
sba(iconstruction
TP_REL
p2431
(dp2432
g866
g2402
sg1397
g720
sg85
I184
sg867
g2408
sg72
VACT_AGT_184
p2433
sba(iconstruction
TP_REL
p2434
(dp2435
g866
g2405
sg1397
g714
sg85
I185
sg867
g2408
sg72
VACT_PT_185
p2436
sba(iconstruction
TP_REL
p2437
(dp2438
g866
g2398
sg1397
g699
sg85
I186
sg867
g2405
sg72
VPT_EVT_186
p2439
sbasg85
I176
sg72
g1304
sbsg1413
(iconstruction
TP_SYNFORM
p2440
(dp2441
g85
I177
sg1416
(lp2442
(iconstruction
TP_SLOT
p2443
(dp2444
g1420
(lp2445
VN
p2446
asg1423
I0
sg85
I187
sg72
g2387
sba(iconstruction
TP_PHON
p2447
(dp2448
g1426
I4
sg1423
I1
sg85
I188
sg1427
Vthat
p2449
sg72
VS2_188
p2450
sba(iconstruction
TP_PHON
p2451
(dp2452
g1426
I2
sg1423
I2
sg85
I189
sg1427
Vis
p2453
sg72
VS3_189
p2454
sba(iconstruction
TP_SLOT
p2455
(dp2456
g1420
(lp2457
VVP
p2458
aVV
p2459
asg1423
I3
sg85
I190
sg72
g2389
sba(iconstruction
TP_PHON
p2460
(dp2461
g1426
I2
sg1423
I4
sg85
I191
sg1427
V-ed
p2462
sg72
VS5_191
p2463
sba(iconstruction
TP_PHON
p2464
(dp2465
g1426
I2
sg1423
I5
sg85
I192
sg1427
Vby
p2466
sg72
VS6_192
p2467
sba(iconstruction
TP_SLOT
p2468
(dp2469
g1420
(lp2470
VNP
p2471
aVN
p2472
asg1423
I6
sg85
I193
sg72
g2385
sbasg72
g1304
sbsg1434
I1
sba(iconstruction
CXN
p2473
(dp2474
g1374
(iconstruction
TP_SYMLINKS
p2475
(dp2476
g1377
(dp2477
VAGT_199
p2478
VS3_207
p2479
sVACT_198
p2480
VS4_208
p2481
sVPT_200
p2482
VS1_205
p2483
ssg85
I196
sg72
g1304
sbsg1383
VN
p2484
sg1385
I2
sg72
VOBJ_REL_SVO
p2485
sg1387
(iconstruction
TP_SEMFRAME
p2486
(dp2487
g100
g0
(g101
g2
Ntp2488
Rp2489
(dp2490
g105
(dp2491
(iconstruction
TP_NODE
p2492
(dp2493
g1396
I00
sg1397
g594
sg72
g2480
sg1398
I01
sg1399
I01
sg85
I198
sb(dp2494
g1398
I01
sg1397
g594
ss(iconstruction
TP_NODE
p2495
(dp2496
g1396
I00
sg1397
g750
sg72
g2478
sg1398
I01
sg1399
I00
sg85
I199
sb(dp2497
g1398
I01
sg1397
g750
ss(iconstruction
TP_NODE
p2498
(dp2499
g1396
I00
sg1397
g747
sg72
VEVT_197
p2500
sg1398
I01
sg1399
I00
sg85
I197
sb(dp2501
g1398
I01
sg1397
g747
ss(iconstruction
TP_NODE
p2502
(dp2503
g1396
I01
sg1397
g750
sg72
g2482
sg1398
I01
sg1399
I00
sg85
I200
sb(dp2504
g1398
I01
sg1397
g750
sssg290
g291
sg292
g291
sg293
(dp2505
g2492
(dp2506
g2502
(dp2507
g1397
g714
ssg2495
(dp2508
g1397
g720
sssg2495
(dp2509
sg2498
(dp2510
g2492
(dp2511
g1397
g741
sssg2502
(dp2512
g2498
(dp2513
g1397
g699
ssssg486
g2505
sg100
(dp2514
sg488
g291
sg489
g2505
sg490
(dp2515
g2492
(dp2516
g2498
g2511
ssg2495
(dp2517
g2492
g2508
ssg2498
(dp2518
g2502
g2513
ssg2502
(dp2519
g2492
g2507
sssbsg583
(lp2520
g2498
ag2492
ag2495
ag2502
asg860
(lp2521
(iconstruction
TP_REL
p2522
(dp2523
g866
g2492
sg1397
g741
sg85
I201
sg867
g2498
sg72
VIS_201
p2524
sba(iconstruction
TP_REL
p2525
(dp2526
g866
g2495
sg1397
g720
sg85
I202
sg867
g2492
sg72
VACT_AGT_202
p2527
sba(iconstruction
TP_REL
p2528
(dp2529
g866
g2502
sg1397
g714
sg85
I203
sg867
g2492
sg72
VACT_PT_203
p2530
sba(iconstruction
TP_REL
p2531
(dp2532
g866
g2498
sg1397
g699
sg85
I204
sg867
g2502
sg72
VPT_EVT_204
p2533
sbasg85
I194
sg72
g1304
sbsg1413
(iconstruction
TP_SYNFORM
p2534
(dp2535
g85
I195
sg1416
(lp2536
(iconstruction
TP_SLOT
p2537
(dp2538
g1420
(lp2539
VN
p2540
asg1423
I0
sg85
I205
sg72
g2483
sba(iconstruction
TP_PHON
p2541
(dp2542
g1426
I4
sg1423
I1
sg85
I206
sg1427
Vthat
p2543
sg72
VS2_206
p2544
sba(iconstruction
TP_SLOT
p2545
(dp2546
g1420
(lp2547
VNP
p2548
aVN
p2549
asg1423
I2
sg85
I207
sg72
g2479
sba(iconstruction
TP_SLOT
p2550
(dp2551
g1420
(lp2552
VVP
p2553
aVV
p2554
asg1423
I3
sg85
I208
sg72
g2481
sbasg72
g1304
sbsg1434
I1
sba(iconstruction
CXN
p2555
(dp2556
g1374
(iconstruction
TP_SYMLINKS
p2557
(dp2558
g1377
(dp2559
VPT_215
p2560
VS3_222
p2561
sVACT_213
p2562
VS5_224
p2563
sVAGT_214
p2564
VS1_220
p2565
ssg85
I211
sg72
g1304
sbsg1383
VN
p2566
sg1385
I2
sg72
VOBJ_REL_PAS_SVO
p2567
sg1387
(iconstruction
TP_SEMFRAME
p2568
(dp2569
g100
g0
(g101
g2
Ntp2570
Rp2571
(dp2572
g105
(dp2573
(iconstruction
TP_NODE
p2574
(dp2575
g1396
I00
sg1397
g747
sg72
VEVT_212
p2576
sg1398
I01
sg1399
I00
sg85
I212
sb(dp2577
g1398
I01
sg1397
g747
ss(iconstruction
TP_NODE
p2578
(dp2579
g1396
I01
sg1397
g750
sg72
g2564
sg1398
I01
sg1399
I00
sg85
I214
sb(dp2580
g1398
I01
sg1397
g750
ss(iconstruction
TP_NODE
p2581
(dp2582
g1396
I00
sg1397
g594
sg72
g2562
sg1398
I01
sg1399
I01
sg85
I213
sb(dp2583
g1398
I01
sg1397
g594
ss(iconstruction
TP_NODE
p2584
(dp2585
g1396
I00
sg1397
g750
sg72
g2560
sg1398
I01
sg1399
I00
sg85
I215
sb(dp2586
g1398
I01
sg1397
g750
sssg290
g291
sg292
g291
sg293
(dp2587
g2574
(dp2588
g2581
(dp2589
g1397
g741
sssg2578
(dp2590
g2574
(dp2591
g1397
g699
sssg2581
(dp2592
g2578
(dp2593
g1397
g720
ssg2584
(dp2594
g1397
g714
sssg2584
(dp2595
ssg486
g2587
sg100
(dp2596
sg488
g291
sg489
g2587
sg490
(dp2597
g2574
(dp2598
g2578
g2591
ssg2578
(dp2599
g2581
g2593
ssg2581
(dp2600
g2574
g2589
ssg2584
(dp2601
g2581
g2594
sssbsg583
(lp2602
g2574
ag2581
ag2578
ag2584
asg860
(lp2603
(iconstruction
TP_REL
p2604
(dp2605
g866
g2581
sg1397
g741
sg85
I216
sg867
g2574
sg72
VIS_216
p2606
sba(iconstruction
TP_REL
p2607
(dp2608
g866
g2578
sg1397
g720
sg85
I217
sg867
g2581
sg72
VACT_AGT_217
p2609
sba(iconstruction
TP_REL
p2610
(dp2611
g866
g2584
sg1397
g714
sg85
I218
sg867
g2581
sg72
VACT_PT_218
p2612
sba(iconstruction
TP_REL
p2613
(dp2614
g866
g2574
sg1397
g699
sg85
I219
sg867
g2578
sg72
VAGT_EVT_219
p2615
sbasg85
I209
sg72
g1304
sbsg1413
(iconstruction
TP_SYNFORM
p2616
(dp2617
g85
I210
sg1416
(lp2618
(iconstruction
TP_SLOT
p2619
(dp2620
g1420
(lp2621
VN
p2622
asg1423
I0
sg85
I220
sg72
g2565
sba(iconstruction
TP_PHON
p2623
(dp2624
g1426
I4
sg1423
I1
sg85
I221
sg1427
Vthat
p2625
sg72
VS2_221
p2626
sba(iconstruction
TP_SLOT
p2627
(dp2628
g1420
(lp2629
VNP
p2630
aVN
p2631
asg1423
I2
sg85
I222
sg72
g2561
sba(iconstruction
TP_PHON
p2632
(dp2633
g1426
I2
sg1423
I3
sg85
I223
sg1427
Vis
p2634
sg72
VS4_223
p2635
sba(iconstruction
TP_SLOT
p2636
(dp2637
g1420
(lp2638
VVP
p2639
aVV
p2640
asg1423
I4
sg85
I224
sg72
g2563
sba(iconstruction
TP_PHON
p2641
(dp2642
g1426
I2
sg1423
I5
sg85
I225
sg1427
V-ed
p2643
sg72
VS6_225
p2644
sba(iconstruction
TP_PHON
p2645
(dp2646
g1426
I2
sg1423
I6
sg85
I226
sg1427
Vby
p2647
sg72
VS7_226
p2648
sbasg72
g1304
sbsg1434
I1
sba(iconstruction
CXN
p2649
(dp2650
g1374
(iconstruction
TP_SYMLINKS
p2651
(dp2652
g1377
(dp2653
VATTR_232
p2654
VS4_238
p2655
sVENT_231
p2656
VS1_235
p2657
ssg85
I229
sg72
g1304
sbsg1383
VN
p2658
sg1385
I2
sg72
VREL_SPA
p2659
sg1387
(iconstruction
TP_SEMFRAME
p2660
(dp2661
g100
g0
(g101
g2
Ntp2662
Rp2663
(dp2664
g105
(dp2665
(iconstruction
TP_NODE
p2666
(dp2667
g1396
I00
sg1397
g747
sg72
VEVT_230
p2668
sg1398
I01
sg1399
I00
sg85
I230
sb(dp2669
g1398
I01
sg1397
g747
ss(iconstruction
TP_NODE
p2670
(dp2671
g1396
I00
sg1397
g651
sg72
g2654
sg1398
I00
sg1399
I00
sg85
I232
sb(dp2672
g1398
I00
sg1397
g651
ss(iconstruction
TP_NODE
p2673
(dp2674
g1396
I01
sg1397
g750
sg72
g2656
sg1398
I01
sg1399
I01
sg85
I231
sb(dp2675
g1398
I01
sg1397
g750
sssg290
g291
sg292
g291
sg293
(dp2676
g2666
(dp2677
g2670
(dp2678
g1397
g699
ssg2673
(dp2679
g1397
g741
sssg2670
(dp2680
sg2673
(dp2681
ssg486
g2676
sg100
(dp2682
sg488
g291
sg489
g2676
sg490
(dp2683
g2666
(dp2684
sg2670
(dp2685
g2666
g2678
ssg2673
(dp2686
g2666
g2679
sssbsg583
(lp2687
g2666
ag2673
ag2670
asg860
(lp2688
(iconstruction
TP_REL
p2689
(dp2690
g866
g2673
sg1397
g741
sg85
I233
sg867
g2666
sg72
VIS_233
p2691
sba(iconstruction
TP_REL
p2692
(dp2693
g866
g2670
sg1397
g699
sg85
I234
sg867
g2666
sg72
VEVT_ATTR_234
p2694
sbasg85
I227
sg72
g1304
sbsg1413
(iconstruction
TP_SYNFORM
p2695
(dp2696
g85
I228
sg1416
(lp2697
(iconstruction
TP_SLOT
p2698
(dp2699
g1420
(lp2700
VN
p2701
asg1423
I0
sg85
I235
sg72
g2657
sba(iconstruction
TP_PHON
p2702
(dp2703
g1426
I4
sg1423
I1
sg85
I236
sg1427
Vthat
p2704
sg72
VS2_236
p2705
sba(iconstruction
TP_PHON
p2706
(dp2707
g1426
I2
sg1423
I2
sg85
I237
sg1427
Vis
p2708
sg72
VS3_237
p2709
sba(iconstruction
TP_SLOT
p2710
(dp2711
g1420
(lp2712
VA
p2713
asg1423
I3
sg85
I238
sg72
g2655
sbasg72
g1304
sbsg1434
I1
sba(iconstruction
CXN
p2714
(dp2715
g1374
(iconstruction
TP_SYMLINKS
p2716
(dp2717
g1377
(dp2718
VAGT_244
p2719
VS1_251
p2720
sVCOLOR_246
p2721
VS3_253
p2722
ssg85
I241
sg72
g1304
sbsg1383
VN
p2723
sg1385
I2
sg72
VIN_COLOR
p2724
sg1387
(iconstruction
TP_SEMFRAME
p2725
(dp2726
g100
g0
(g101
g2
Ntp2727
Rp2728
(dp2729
g105
(dp2730
(iconstruction
TP_NODE
p2731
(dp2732
g1396
I00
sg1397
g747
sg72
VEVT_242
p2733
sg1398
I01
sg1399
I00
sg85
I242
sb(dp2734
g1398
I01
sg1397
g747
ss(iconstruction
TP_NODE
p2735
(dp2736
g1396
I00
sg1397
g639
sg72
VACT_243
p2737
sg1398
I01
sg1399
I00
sg85
I243
sb(dp2738
g1398
I01
sg1397
g639
ss(iconstruction
TP_NODE
p2739
(dp2740
g1396
I00
sg1397
g654
sg72
g2721
sg1398
I00
sg1399
I01
sg85
I246
sb(dp2741
g1398
I00
sg1397
g654
ss(iconstruction
TP_NODE
p2742
(dp2743
g1396
I01
sg1397
g759
sg72
g2719
sg1398
I01
sg1399
I00
sg85
I244
sb(dp2744
g1398
I01
sg1397
g759
ss(iconstruction
TP_NODE
p2745
(dp2746
g1396
I00
sg1397
g789
sg72
VPT_245
p2747
sg1398
I01
sg1399
I00
sg85
I245
sb(dp2748
g1398
I01
sg1397
g789
sssg290
g291
sg292
g291
sg293
(dp2749
g2731
(dp2750
g2735
(dp2751
g1397
g741
sssg2735
(dp2752
g2745
(dp2753
g1397
g714
ssg2742
(dp2754
g1397
g720
sssg2739
(dp2755
sg2742
(dp2756
sg2745
(dp2757
g2739
(dp2758
g1397
g699
ssssg486
g2749
sg100
(dp2759
sg488
g291
sg489
g2749
sg490
(dp2760
g2731
(dp2761
sg2735
(dp2762
g2731
g2751
ssg2739
(dp2763
g2745
g2758
ssg2742
(dp2764
g2735
g2754
ssg2745
(dp2765
g2735
g2753
sssbsg583
(lp2766
g2731
ag2735
ag2742
ag2745
ag2739
asg860
(lp2767
(iconstruction
TP_REL
p2768
(dp2769
g866
g2735
sg1397
g741
sg85
I247
sg867
g2731
sg72
VIS_247
p2770
sba(iconstruction
TP_REL
p2771
(dp2772
g866
g2742
sg1397
g720
sg85
I248
sg867
g2735
sg72
VACT_AGT_248
p2773
sba(iconstruction
TP_REL
p2774
(dp2775
g866
g2745
sg1397
g714
sg85
I249
sg867
g2735
sg72
VACT_PT_249
p2776
sba(iconstruction
TP_REL
p2777
(dp2778
g866
g2739
sg1397
g699
sg85
I250
sg867
g2745
sg72
VPT_COLOR_250
p2779
sbasg85
I239
sg72
g1304
sbsg1413
(iconstruction
TP_SYNFORM
p2780
(dp2781
g85
I240
sg1416
(lp2782
(iconstruction
TP_SLOT
p2783
(dp2784
g1420
(lp2785
VN
p2786
asg1423
I0
sg85
I251
sg72
g2720
sba(iconstruction
TP_PHON
p2787
(dp2788
g1426
I2
sg1423
I1
sg85
I252
sg1427
Vin
p2789
sg72
VS2_252
p2790
sba(iconstruction
TP_SLOT
p2791
(dp2792
g1420
(lp2793
VA
p2794
asg1423
I2
sg85
I253
sg72
g2722
sbasg72
g1304
sbsg1434
I1
sba(iconstruction
CXN
p2795
(dp2796
g1374
(iconstruction
TP_SYMLINKS
p2797
(dp2798
g1377
(dp2799
VN1_258
p2800
VS1_260
p2801
ssg85
I256
sg72
g1304
sbsg1383
VV
p2802
sg1385
I1
sg72
VHIT
p2803
sg1387
(iconstruction
TP_SEMFRAME
p2804
(dp2805
g100
g0
(g101
g2
Ntp2806
Rp2807
(dp2808
g105
(dp2809
(iconstruction
TP_NODE
p2810
(dp2811
g1396
I01
sg1397
g594
sg72
VACT_257
p2812
sg1398
I01
sg1399
I00
sg85
I257
sb(dp2813
g1398
I01
sg1397
g594
ss(iconstruction
TP_NODE
p2814
(dp2815
g1396
I00
sg1397
g615
sg72
g2800
sg1398
I00
sg1399
I00
sg85
I258
sb(dp2816
g1398
I00
sg1397
g615
sssg290
g291
sg292
g291
sg293
(dp2817
g2810
(dp2818
g2814
(dp2819
g1397
g741
sssg2814
(dp2820
ssg486
g2817
sg100
(dp2821
sg488
g291
sg489
g2817
sg490
(dp2822
g2810
(dp2823
sg2814
(dp2824
g2810
g2819
sssbsg583
(lp2825
g2810
ag2814
asg860
(lp2826
(iconstruction
TP_REL
p2827
(dp2828
g866
g2814
sg1397
g741
sg85
I259
sg867
g2810
sg72
VIS_259
p2829
sbasg85
I254
sg72
g1304
sbsg1413
(iconstruction
TP_SYNFORM
p2830
(dp2831
g85
I255
sg1416
(lp2832
(iconstruction
TP_PHON
p2833
(dp2834
g1426
I3
sg1423
I0
sg85
I260
sg1427
Vhit
p2835
sg72
g2801
sbasg72
g1304
sbsg1434
I1
sba(iconstruction
CXN
p2836
(dp2837
g1374
(iconstruction
TP_SYMLINKS
p2838
(dp2839
g1377
(dp2840
VN1_265
p2841
VS1_267
p2842
ssg85
I263
sg72
g1304
sbsg1383
VV
p2843
sg1385
I1
sg72
VKICK
p2844
sg1387
(iconstruction
TP_SEMFRAME
p2845
(dp2846
g100
g0
(g101
g2
Ntp2847
Rp2848
(dp2849
g105
(dp2850
(iconstruction
TP_NODE
p2851
(dp2852
g1396
I00
sg1397
g636
sg72
g2841
sg1398
I00
sg1399
I00
sg85
I265
sb(dp2853
g1398
I00
sg1397
g636
ss(iconstruction
TP_NODE
p2854
(dp2855
g1396
I01
sg1397
g594
sg72
VACT_264
p2856
sg1398
I01
sg1399
I00
sg85
I264
sb(dp2857
g1398
I01
sg1397
g594
sssg290
g291
sg292
g291
sg293
(dp2858
g2851
(dp2859
sg2854
(dp2860
g2851
(dp2861
g1397
g741
ssssg486
g2858
sg100
(dp2862
sg488
g291
sg489
g2858
sg490
(dp2863
g2851
(dp2864
g2854
g2861
ssg2854
(dp2865
ssbsg583
(lp2866
g2854
ag2851
asg860
(lp2867
(iconstruction
TP_REL
p2868
(dp2869
g866
g2851
sg1397
g741
sg85
I266
sg867
g2854
sg72
VIS_266
p2870
sbasg85
I261
sg72
g1304
sbsg1413
(iconstruction
TP_SYNFORM
p2871
(dp2872
g85
I262
sg1416
(lp2873
(iconstruction
TP_PHON
p2874
(dp2875
g1426
I4
sg1423
I0
sg85
I267
sg1427
Vkick
p2876
sg72
g2842
sbasg72
g1304
sbsg1434
I1
sba(iconstruction
CXN
p2877
(dp2878
g1374
(iconstruction
TP_SYMLINKS
p2879
(dp2880
g1377
(dp2881
VN1_272
p2882
VS1_274
p2883
ssg85
I270
sg72
g1304
sbsg1383
VV
p2884
sg1385
I1
sg72
VPUNCH
p2885
sg1387
(iconstruction
TP_SEMFRAME
p2886
(dp2887
g100
g0
(g101
g2
Ntp2888
Rp2889
(dp2890
g105
(dp2891
(iconstruction
TP_NODE
p2892
(dp2893
g1396
I01
sg1397
g594
sg72
VACT_271
p2894
sg1398
I01
sg1399
I00
sg85
I271
sb(dp2895
g1398
I01
sg1397
g594
ss(iconstruction
TP_NODE
p2896
(dp2897
g1396
I00
sg1397
g621
sg72
g2882
sg1398
I00
sg1399
I00
sg85
I272
sb(dp2898
g1398
I00
sg1397
g621
sssg290
g291
sg292
g291
sg293
(dp2899
g2892
(dp2900
g2896
(dp2901
g1397
g741
sssg2896
(dp2902
ssg486
g2899
sg100
(dp2903
sg488
g291
sg489
g2899
sg490
(dp2904
g2892
(dp2905
sg2896
(dp2906
g2892
g2901
sssbsg583
(lp2907
g2892
ag2896
asg860
(lp2908
(iconstruction
TP_REL
p2909
(dp2910
g866
g2896
sg1397
g741
sg85
I273
sg867
g2892
sg72
VIS_273
p2911
sbasg85
I268
sg72
g1304
sbsg1413
(iconstruction
TP_SYNFORM
p2912
(dp2913
g85
I269
sg1416
(lp2914
(iconstruction
TP_PHON
p2915
(dp2916
g1426
I5
sg1423
I0
sg85
I274
sg1427
Vpunch
p2917
sg72
g2883
sbasg72
g1304
sbsg1434
I1
sba(iconstruction
CXN
p2918
(dp2919
g1374
(iconstruction
TP_SYMLINKS
p2920
(dp2921
g1377
(dp2922
VN1_279
p2923
VS1_281
p2924
ssg85
I277
sg72
g1304
sbsg1383
VV
p2925
sg1385
I1
sg72
VWEAR
p2926
sg1387
(iconstruction
TP_SEMFRAME
p2927
(dp2928
g100
g0
(g101
g2
Ntp2929
Rp2930
(dp2931
g105
(dp2932
(iconstruction
TP_NODE
p2933
(dp2934
g1396
I00
sg1397
g639
sg72
g2923
sg1398
I00
sg1399
I00
sg85
I279
sb(dp2935
g1398
I00
sg1397
g639
ss(iconstruction
TP_NODE
p2936
(dp2937
g1396
I01
sg1397
g594
sg72
VACT_278
p2938
sg1398
I01
sg1399
I00
sg85
I278
sb(dp2939
g1398
I01
sg1397
g594
sssg290
g291
sg292
g291
sg293
(dp2940
g2933
(dp2941
sg2936
(dp2942
g2933
(dp2943
g1397
g741
ssssg486
g2940
sg100
(dp2944
sg488
g291
sg489
g2940
sg490
(dp2945
g2933
(dp2946
g2936
g2943
ssg2936
(dp2947
ssbsg583
(lp2948
g2936
ag2933
asg860
(lp2949
(iconstruction
TP_REL
p2950
(dp2951
g866
g2933
sg1397
g741
sg85
I280
sg867
g2936
sg72
VIS_280
p2952
sbasg85
I275
sg72
g1304
sbsg1413
(iconstruction
TP_SYNFORM
p2953
(dp2954
g85
I276
sg1416
(lp2955
(iconstruction
TP_PHON
p2956
(dp2957
g1426
I4
sg1423
I0
sg85
I281
sg1427
Vwear
p2958
sg72
g2924
sbasg72
g1304
sbsg1434
I1
sba(iconstruction
CXN
p2959
(dp2960
g1374
(iconstruction
TP_SYMLINKS
p2961
(dp2962
g1377
(dp2963
VN1_286
p2964
VS1_288
p2965
ssg85
I284
sg72
g1304
sbsg1383
VV
p2966
sg1385
I1
sg72
VLAUGH
p2967
sg1387
(iconstruction
TP_SEMFRAME
p2968
(dp2969
g100
g0
(g101
g2
Ntp2970
Rp2971
(dp2972
g105
(dp2973
(iconstruction
TP_NODE
p2974
(dp2975
g1396
I01
sg1397
g594
sg72
VACT_285
p2976
sg1398
I01
sg1399
I00
sg85
I285
sb(dp2977
g1398
I01
sg1397
g594
ss(iconstruction
TP_NODE
p2978
(dp2979
g1396
I00
sg1397
g609
sg72
g2964
sg1398
I00
sg1399
I00
sg85
I286
sb(dp2980
g1398
I00
sg1397
g609
sssg290
g291
sg292
g291
sg293
(dp2981
g2974
(dp2982
g2978
(dp2983
g1397
g741
sssg2978
(dp2984
ssg486
g2981
sg100
(dp2985
sg488
g291
sg489
g2981
sg490
(dp2986
g2974
(dp2987
sg2978
(dp2988
g2974
g2983
sssbsg583
(lp2989
g2974
ag2978
asg860
(lp2990
(iconstruction
TP_REL
p2991
(dp2992
g866
g2978
sg1397
g741
sg85
I287
sg867
g2974
sg72
VIS_287
p2993
sbasg85
I282
sg72
g1304
sbsg1413
(iconstruction
TP_SYNFORM
p2994
(dp2995
g85
I283
sg1416
(lp2996
(iconstruction
TP_PHON
p2997
(dp2998
g1426
I5
sg1423
I0
sg85
I288
sg1427
Vlaugh
p2999
sg72
g2965
sbasg72
g1304
sbsg1434
I1
sba(iconstruction
CXN
p3000
(dp3001
g1374
(iconstruction
TP_SYMLINKS
p3002
(dp3003
g1377
(dp3004
VN1_293
p3005
VS1_295
p3006
ssg85
I291
sg72
g1304
sbsg1383
VV
p3007
sg1385
I1
sg72
VWATCH
p3008
sg1387
(iconstruction
TP_SEMFRAME
p3009
(dp3010
g100
g0
(g101
g2
Ntp3011
Rp3012
(dp3013
g105
(dp3014
(iconstruction
TP_NODE
p3015
(dp3016
g1396
I01
sg1397
g594
sg72
VACT_292
p3017
sg1398
I01
sg1399
I00
sg85
I292
sb(dp3018
g1398
I01
sg1397
g594
ss(iconstruction
TP_NODE
p3019
(dp3020
g1396
I00
sg1397
g618
sg72
g3005
sg1398
I00
sg1399
I00
sg85
I293
sb(dp3021
g1398
I00
sg1397
g618
sssg290
g291
sg292
g291
sg293
(dp3022
g3015
(dp3023
g3019
(dp3024
g1397
g741
sssg3019
(dp3025
ssg486
g3022
sg100
(dp3026
sg488
g291
sg489
g3022
sg490
(dp3027
g3015
(dp3028
sg3019
(dp3029
g3015
g3024
sssbsg583
(lp3030
g3015
ag3019
asg860
(lp3031
(iconstruction
TP_REL
p3032
(dp3033
g866
g3019
sg1397
g741
sg85
I294
sg867
g3015
sg72
VIS_294
p3034
sbasg85
I289
sg72
g1304
sbsg1413
(iconstruction
TP_SYNFORM
p3035
(dp3036
g85
I290
sg1416
(lp3037
(iconstruction
TP_PHON
p3038
(dp3039
g1426
I5
sg1423
I0
sg85
I295
sg1427
Vwatch
p3040
sg72
g3006
sbasg72
g1304
sbsg1434
I1
sba(iconstruction
CXN
p3041
(dp3042
g1374
(iconstruction
TP_SYMLINKS
p3043
(dp3044
g1377
(dp3045
VN1_300
p3046
VS1_302
p3047
ssg85
I298
sg72
g1304
sbsg1383
VV
p3048
sg1385
I1
sg72
VTALK
p3049
sg1387
(iconstruction
TP_SEMFRAME
p3050
(dp3051
g100
g0
(g101
g2
Ntp3052
Rp3053
(dp3054
g105
(dp3055
(iconstruction
TP_NODE
p3056
(dp3057
g1396
I00
sg1397
g627
sg72
g3046
sg1398
I00
sg1399
I00
sg85
I300
sb(dp3058
g1398
I00
sg1397
g627
ss(iconstruction
TP_NODE
p3059
(dp3060
g1396
I01
sg1397
g594
sg72
VACT_299
p3061
sg1398
I01
sg1399
I00
sg85
I299
sb(dp3062
g1398
I01
sg1397
g594
sssg290
g291
sg292
g291
sg293
(dp3063
g3056
(dp3064
sg3059
(dp3065
g3056
(dp3066
g1397
g741
ssssg486
g3063
sg100
(dp3067
sg488
g291
sg489
g3063
sg490
(dp3068
g3056
(dp3069
g3059
g3066
ssg3059
(dp3070
ssbsg583
(lp3071
g3059
ag3056
asg860
(lp3072
(iconstruction
TP_REL
p3073
(dp3074
g866
g3056
sg1397
g741
sg85
I301
sg867
g3059
sg72
VIS_301
p3075
sbasg85
I296
sg72
g1304
sbsg1413
(iconstruction
TP_SYNFORM
p3076
(dp3077
g85
I297
sg1416
(lp3078
(iconstruction
TP_PHON
p3079
(dp3080
g1426
I4
sg1423
I0
sg85
I302
sg1427
Vtalk
p3081
sg72
g3047
sba(iconstruction
TP_PHON
p3082
(dp3083
g1426
I2
sg1423
I1
sg85
I303
sg1427
Vto
p3084
sg72
VS2_303
p3085
sbasg72
g1304
sbsg1434
I1
sba(iconstruction
CXN
p3086
(dp3087
g1374
(iconstruction
TP_SYMLINKS
p3088
(dp3089
g1377
(dp3090
VN1_308
p3091
VS1_310
p3092
ssg85
I306
sg72
g1304
sbsg1383
VV
p3093
sg1385
I1
sg72
VSQUIRT
p3094
sg1387
(iconstruction
TP_SEMFRAME
p3095
(dp3096
g100
g0
(g101
g2
Ntp3097
Rp3098
(dp3099
g105
(dp3100
(iconstruction
TP_NODE
p3101
(dp3102
g1396
I00
sg1397
g633
sg72
g3091
sg1398
I00
sg1399
I00
sg85
I308
sb(dp3103
g1398
I00
sg1397
g633
ss(iconstruction
TP_NODE
p3104
(dp3105
g1396
I01
sg1397
g594
sg72
VACT_307
p3106
sg1398
I01
sg1399
I00
sg85
I307
sb(dp3107
g1398
I01
sg1397
g594
sssg290
g291
sg292
g291
sg293
(dp3108
g3101
(dp3109
sg3104
(dp3110
g3101
(dp3111
g1397
g741
ssssg486
g3108
sg100
(dp3112
sg488
g291
sg489
g3108
sg490
(dp3113
g3101
(dp3114
g3104
g3111
ssg3104
(dp3115
ssbsg583
(lp3116
g3104
ag3101
asg860
(lp3117
(iconstruction
TP_REL
p3118
(dp3119
g866
g3101
sg1397
g741
sg85
I309
sg867
g3104
sg72
VIS_309
p3120
sbasg85
I304
sg72
g1304
sbsg1413
(iconstruction
TP_SYNFORM
p3121
(dp3122
g85
I305
sg1416
(lp3123
(iconstruction
TP_PHON
p3124
(dp3125
g1426
I6
sg1423
I0
sg85
I310
sg1427
Vsquirt
p3126
sg72
g3092
sba(iconstruction
TP_PHON
p3127
(dp3128
g1426
I2
sg1423
I1
sg85
I311
sg1427
Vat
p3129
sg72
VS2_311
p3130
sbasg72
g1304
sbsg1434
I1
sba(iconstruction
CXN
p3131
(dp3132
g1374
(iconstruction
TP_SYMLINKS
p3133
(dp3134
g1377
(dp3135
VN1_316
p3136
VS1_318
p3137
ssg85
I314
sg72
g1304
sbsg1383
VV
p3138
sg1385
I1
sg72
VSPLASH
p3139
sg1387
(iconstruction
TP_SEMFRAME
p3140
(dp3141
g100
g0
(g101
g2
Ntp3142
Rp3143
(dp3144
g105
(dp3145
(iconstruction
TP_NODE
p3146
(dp3147
g1396
I00
sg1397
g624
sg72
g3136
sg1398
I00
sg1399
I00
sg85
I316
sb(dp3148
g1398
I00
sg1397
g624
ss(iconstruction
TP_NODE
p3149
(dp3150
g1396
I01
sg1397
g594
sg72
VACT_315
p3151
sg1398
I01
sg1399
I00
sg85
I315
sb(dp3152
g1398
I01
sg1397
g594
sssg290
g291
sg292
g291
sg293
(dp3153
g3146
(dp3154
sg3149
(dp3155
g3146
(dp3156
g1397
g741
ssssg486
g3153
sg100
(dp3157
sg488
g291
sg489
g3153
sg490
(dp3158
g3146
(dp3159
g3149
g3156
ssg3149
(dp3160
ssbsg583
(lp3161
g3149
ag3146
asg860
(lp3162
(iconstruction
TP_REL
p3163
(dp3164
g866
g3146
sg1397
g741
sg85
I317
sg867
g3149
sg72
VIS_317
p3165
sbasg85
I312
sg72
g1304
sbsg1413
(iconstruction
TP_SYNFORM
p3166
(dp3167
g85
I313
sg1416
(lp3168
(iconstruction
TP_PHON
p3169
(dp3170
g1426
I6
sg1423
I0
sg85
I318
sg1427
Vsplash
p3171
sg72
g3137
sbasg72
g1304
sbsg1434
I1
sba(iconstruction
CXN
p3172
(dp3173
g1374
(iconstruction
TP_SYMLINKS
p3174
(dp3175
g1377
(dp3176
VN1_323
p3177
VS1_325
p3178
ssg85
I321
sg72
g1304
sbsg1383
VV
p3179
sg1385
I1
sg72
VGIVE
p3180
sg1387
(iconstruction
TP_SEMFRAME
p3181
(dp3182
g100
g0
(g101
g2
Ntp3183
Rp3184
(dp3185
g105
(dp3186
(iconstruction
TP_NODE
p3187
(dp3188
g1396
I01
sg1397
g594
sg72
VACT_322
p3189
sg1398
I01
sg1399
I00
sg85
I322
sb(dp3190
g1398
I01
sg1397
g594
ss(iconstruction
TP_NODE
p3191
(dp3192
g1396
I00
sg1397
g648
sg72
g3177
sg1398
I00
sg1399
I00
sg85
I323
sb(dp3193
g1398
I00
sg1397
g648
sssg290
g291
sg292
g291
sg293
(dp3194
g3187
(dp3195
g3191
(dp3196
g1397
g741
sssg3191
(dp3197
ssg486
g3194
sg100
(dp3198
sg488
g291
sg489
g3194
sg490
(dp3199
g3187
(dp3200
sg3191
(dp3201
g3187
g3196
sssbsg583
(lp3202
g3187
ag3191
asg860
(lp3203
(iconstruction
TP_REL
p3204
(dp3205
g866
g3191
sg1397
g741
sg85
I324
sg867
g3187
sg72
VIS_324
p3206
sbasg85
I319
sg72
g1304
sbsg1413
(iconstruction
TP_SYNFORM
p3207
(dp3208
g85
I320
sg1416
(lp3209
(iconstruction
TP_PHON
p3210
(dp3211
g1426
I4
sg1423
I0
sg85
I325
sg1427
Vgive
p3212
sg72
g3178
sbasg72
g1304
sbsg1434
I1
sba(iconstruction
CXN
p3213
(dp3214
g1374
(iconstruction
TP_SYMLINKS
p3215
(dp3216
g1377
(dp3217
VN1_330
p3218
VS1_332
p3219
ssg85
I328
sg72
g1304
sbsg1383
VV
p3220
sg1385
I1
sg72
VSEND
p3221
sg1387
(iconstruction
TP_SEMFRAME
p3222
(dp3223
g100
g0
(g101
g2
Ntp3224
Rp3225
(dp3226
g105
(dp3227
(iconstruction
TP_NODE
p3228
(dp3229
g1396
I01
sg1397
g594
sg72
VACT_329
p3230
sg1398
I01
sg1399
I00
sg85
I329
sb(dp3231
g1398
I01
sg1397
g594
ss(iconstruction
TP_NODE
p3232
(dp3233
g1396
I00
sg1397
g645
sg72
g3218
sg1398
I00
sg1399
I00
sg85
I330
sb(dp3234
g1398
I00
sg1397
g645
sssg290
g291
sg292
g291
sg293
(dp3235
g3228
(dp3236
g3232
(dp3237
g1397
g741
sssg3232
(dp3238
ssg486
g3235
sg100
(dp3239
sg488
g291
sg489
g3235
sg490
(dp3240
g3228
(dp3241
sg3232
(dp3242
g3228
g3237
sssbsg583
(lp3243
g3228
ag3232
asg860
(lp3244
(iconstruction
TP_REL
p3245
(dp3246
g866
g3232
sg1397
g741
sg85
I331
sg867
g3228
sg72
VIS_331
p3247
sbasg85
I326
sg72
g1304
sbsg1413
(iconstruction
TP_SYNFORM
p3248
(dp3249
g85
I327
sg1416
(lp3250
(iconstruction
TP_PHON
p3251
(dp3252
g1426
I4
sg1423
I0
sg85
I332
sg1427
Vsend
p3253
sg72
g3219
sbasg72
g1304
sbsg1434
I1
sba(iconstruction
CXN
p3254
(dp3255
g1374
(iconstruction
TP_SYMLINKS
p3256
(dp3257
g1377
(dp3258
VN1_337
p3259
VS1_339
p3260
ssg85
I335
sg72
g1304
sbsg1383
VV
p3261
sg1385
I1
sg72
VMEET
p3262
sg1387
(iconstruction
TP_SEMFRAME
p3263
(dp3264
g100
g0
(g101
g2
Ntp3265
Rp3266
(dp3267
g105
(dp3268
(iconstruction
TP_NODE
p3269
(dp3270
g1396
I00
sg1397
g600
sg72
g3259
sg1398
I00
sg1399
I00
sg85
I337
sb(dp3271
g1398
I00
sg1397
g600
ss(iconstruction
TP_NODE
p3272
(dp3273
g1396
I01
sg1397
g594
sg72
VACT_336
p3274
sg1398
I01
sg1399
I00
sg85
I336
sb(dp3275
g1398
I01
sg1397
g594
sssg290
g291
sg292
g291
sg293
(dp3276
g3269
(dp3277
sg3272
(dp3278
g3269
(dp3279
g1397
g741
ssssg486
g3276
sg100
(dp3280
sg488
g291
sg489
g3276
sg490
(dp3281
g3269
(dp3282
g3272
g3279
ssg3272
(dp3283
ssbsg583
(lp3284
g3272
ag3269
asg860
(lp3285
(iconstruction
TP_REL
p3286
(dp3287
g866
g3269
sg1397
g741
sg85
I338
sg867
g3272
sg72
VIS_338
p3288
sbasg85
I333
sg72
g1304
sbsg1413
(iconstruction
TP_SYNFORM
p3289
(dp3290
g85
I334
sg1416
(lp3291
(iconstruction
TP_PHON
p3292
(dp3293
g1426
I4
sg1423
I0
sg85
I339
sg1427
Vmeet
p3294
sg72
g3260
sbasg72
g1304
sbsg1434
I1
sba(iconstruction
CXN
p3295
(dp3296
g1374
(iconstruction
TP_SYMLINKS
p3297
(dp3298
g1377
(dp3299
VN1_344
p3300
VS1_346
p3301
ssg85
I342
sg72
g1304
sbsg1383
VV
p3302
sg1385
I1
sg72
VKISS
p3303
sg1387
(iconstruction
TP_SEMFRAME
p3304
(dp3305
g100
g0
(g101
g2
Ntp3306
Rp3307
(dp3308
g105
(dp3309
(iconstruction
TP_NODE
p3310
(dp3311
g1396
I01
sg1397
g594
sg72
VACT_343
p3312
sg1398
I01
sg1399
I00
sg85
I343
sb(dp3313
g1398
I01
sg1397
g594
ss(iconstruction
TP_NODE
p3314
(dp3315
g1396
I00
sg1397
g630
sg72
g3300
sg1398
I00
sg1399
I00
sg85
I344
sb(dp3316
g1398
I00
sg1397
g630
sssg290
g291
sg292
g291
sg293
(dp3317
g3310
(dp3318
g3314
(dp3319
g1397
g741
sssg3314
(dp3320
ssg486
g3317
sg100
(dp3321
sg488
g291
sg489
g3317
sg490
(dp3322
g3310
(dp3323
sg3314
(dp3324
g3310
g3319
sssbsg583
(lp3325
g3310
ag3314
asg860
(lp3326
(iconstruction
TP_REL
p3327
(dp3328
g866
g3314
sg1397
g741
sg85
I345
sg867
g3310
sg72
VIS_345
p3329
sbasg85
I340
sg72
g1304
sbsg1413
(iconstruction
TP_SYNFORM
p3330
(dp3331
g85
I341
sg1416
(lp3332
(iconstruction
TP_PHON
p3333
(dp3334
g1426
I4
sg1423
I0
sg85
I346
sg1427
Vkiss
p3335
sg72
g3301
sbasg72
g1304
sbsg1434
I1
sba(iconstruction
CXN
p3336
(dp3337
g1374
(iconstruction
TP_SYMLINKS
p3338
(dp3339
g1377
(dp3340
VN1_351
p3341
VS1_353
p3342
ssg85
I349
sg72
g1304
sbsg1383
VV
p3343
sg1385
I1
sg72
VSHAKE_HANDS
p3344
sg1387
(iconstruction
TP_SEMFRAME
p3345
(dp3346
g100
g0
(g101
g2
Ntp3347
Rp3348
(dp3349
g105
(dp3350
(iconstruction
TP_NODE
p3351
(dp3352
g1396
I00
sg1397
g603
sg72
g3341
sg1398
I00
sg1399
I00
sg85
I351
sb(dp3353
g1398
I00
sg1397
g603
ss(iconstruction
TP_NODE
p3354
(dp3355
g1396
I01
sg1397
g594
sg72
VACT_350
p3356
sg1398
I01
sg1399
I00
sg85
I350
sb(dp3357
g1398
I01
sg1397
g594
sssg290
g291
sg292
g291
sg293
(dp3358
g3351
(dp3359
sg3354
(dp3360
g3351
(dp3361
g1397
g741
ssssg486
g3358
sg100
(dp3362
sg488
g291
sg489
g3358
sg490
(dp3363
g3351
(dp3364
g3354
g3361
ssg3354
(dp3365
ssbsg583
(lp3366
g3354
ag3351
asg860
(lp3367
(iconstruction
TP_REL
p3368
(dp3369
g866
g3351
sg1397
g741
sg85
I352
sg867
g3354
sg72
VIS_352
p3370
sbasg85
I347
sg72
g1304
sbsg1413
(iconstruction
TP_SYNFORM
p3371
(dp3372
g85
I348
sg1416
(lp3373
(iconstruction
TP_PHON
p3374
(dp3375
g1426
I10
sg1423
I0
sg85
I353
sg1427
Vshake hands
p3376
sg72
g3342
sbasg72
g1304
sbsg1434
I1
sba(iconstruction
CXN
p3377
(dp3378
g1374
(iconstruction
TP_SYMLINKS
p3379
(dp3380
g1377
(dp3381
VN1_357
p3382
VS1_358
p3383
ssg85
I356
sg72
g1304
sbsg1383
VA
p3384
sg1385
I1
sg72
VBLUE
p3385
sg1387
(iconstruction
TP_SEMFRAME
p3386
(dp3387
g100
g0
(g101
g2
Ntp3388
Rp3389
(dp3390
g105
(dp3391
(iconstruction
TP_NODE
p3392
(dp3393
g1396
I01
sg1397
g657
sg72
g3382
sg1398
I00
sg1399
I00
sg85
I357
sb(dp3394
g1398
I00
sg1397
g657
sssg290
g291
sg292
g291
sg293
(dp3395
g3392
(dp3396
ssg486
g3395
sg100
(dp3397
sg488
g291
sg489
g3395
sg490
(dp3398
g3392
(dp3399
ssbsg583
(lp3400
g3392
asg860
(lp3401
sg85
I354
sg72
g1304
sbsg1413
(iconstruction
TP_SYNFORM
p3402
(dp3403
g85
I355
sg1416
(lp3404
(iconstruction
TP_PHON
p3405
(dp3406
g1426
I4
sg1423
I0
sg85
I358
sg1427
Vblue
p3407
sg72
g3383
sbasg72
g1304
sbsg1434
I1
sba(iconstruction
CXN
p3408
(dp3409
g1374
(iconstruction
TP_SYMLINKS
p3410
(dp3411
g1377
(dp3412
VN1_362
p3413
VS1_363
p3414
ssg85
I361
sg72
g1304
sbsg1383
VA
p3415
sg1385
I1
sg72
VBLACK
p3416
sg1387
(iconstruction
TP_SEMFRAME
p3417
(dp3418
g100
g0
(g101
g2
Ntp3419
Rp3420
(dp3421
g105
(dp3422
(iconstruction
TP_NODE
p3423
(dp3424
g1396
I01
sg1397
g666
sg72
g3413
sg1398
I00
sg1399
I00
sg85
I362
sb(dp3425
g1398
I00
sg1397
g666
sssg290
g291
sg292
g291
sg293
(dp3426
g3423
(dp3427
ssg486
g3426
sg100
(dp3428
sg488
g291
sg489
g3426
sg490
(dp3429
g3423
(dp3430
ssbsg583
(lp3431
g3423
asg860
(lp3432
sg85
I359
sg72
g1304
sbsg1413
(iconstruction
TP_SYNFORM
p3433
(dp3434
g85
I360
sg1416
(lp3435
(iconstruction
TP_PHON
p3436
(dp3437
g1426
I5
sg1423
I0
sg85
I363
sg1427
Vblack
p3438
sg72
g3414
sbasg72
g1304
sbsg1434
I1
sba(iconstruction
CXN
p3439
(dp3440
g1374
(iconstruction
TP_SYMLINKS
p3441
(dp3442
g1377
(dp3443
VN1_367
p3444
VS1_368
p3445
ssg85
I366
sg72
g1304
sbsg1383
VA
p3446
sg1385
I1
sg72
VGREEN
p3447
sg1387
(iconstruction
TP_SEMFRAME
p3448
(dp3449
g100
g0
(g101
g2
Ntp3450
Rp3451
(dp3452
g105
(dp3453
(iconstruction
TP_NODE
p3454
(dp3455
g1396
I01
sg1397
g660
sg72
g3444
sg1398
I00
sg1399
I00
sg85
I367
sb(dp3456
g1398
I00
sg1397
g660
sssg290
g291
sg292
g291
sg293
(dp3457
g3454
(dp3458
ssg486
g3457
sg100
(dp3459
sg488
g291
sg489
g3457
sg490
(dp3460
g3454
(dp3461
ssbsg583
(lp3462
g3454
asg860
(lp3463
sg85
I364
sg72
g1304
sbsg1413
(iconstruction
TP_SYNFORM
p3464
(dp3465
g85
I365
sg1416
(lp3466
(iconstruction
TP_PHON
p3467
(dp3468
g1426
I5
sg1423
I0
sg85
I368
sg1427
Vgreen
p3469
sg72
g3445
sbasg72
g1304
sbsg1434
I1
sba(iconstruction
CXN
p3470
(dp3471
g1374
(iconstruction
TP_SYMLINKS
p3472
(dp3473
g1377
(dp3474
VN1_372
p3475
VS1_373
p3476
ssg85
I371
sg72
g1304
sbsg1383
VA
p3477
sg1385
I1
sg72
VSMALL
p3478
sg1387
(iconstruction
TP_SEMFRAME
p3479
(dp3480
g100
g0
(g101
g2
Ntp3481
Rp3482
(dp3483
g105
(dp3484
(iconstruction
TP_NODE
p3485
(dp3486
g1396
I01
sg1397
g687
sg72
g3475
sg1398
I00
sg1399
I00
sg85
I372
sb(dp3487
g1398
I00
sg1397
g687
sssg290
g291
sg292
g291
sg293
(dp3488
g3485
(dp3489
ssg486
g3488
sg100
(dp3490
sg488
g291
sg489
g3488
sg490
(dp3491
g3485
(dp3492
ssbsg583
(lp3493
g3485
asg860
(lp3494
sg85
I369
sg72
g1304
sbsg1413
(iconstruction
TP_SYNFORM
p3495
(dp3496
g85
I370
sg1416
(lp3497
(iconstruction
TP_PHON
p3498
(dp3499
g1426
I5
sg1423
I0
sg85
I373
sg1427
Vsmall
p3500
sg72
g3476
sbasg72
g1304
sbsg1434
I1
sba(iconstruction
CXN
p3501
(dp3502
g1374
(iconstruction
TP_SYMLINKS
p3503
(dp3504
g1377
(dp3505
VN1_377
p3506
VS1_378
p3507
ssg85
I376
sg72
g1304
sbsg1383
VA
p3508
sg1385
I1
sg72
VBIG
p3509
sg1387
(iconstruction
TP_SEMFRAME
p3510
(dp3511
g100
g0
(g101
g2
Ntp3512
Rp3513
(dp3514
g105
(dp3515
(iconstruction
TP_NODE
p3516
(dp3517
g1396
I01
sg1397
g690
sg72
g3506
sg1398
I00
sg1399
I00
sg85
I377
sb(dp3518
g1398
I00
sg1397
g690
sssg290
g291
sg292
g291
sg293
(dp3519
g3516
(dp3520
ssg486
g3519
sg100
(dp3521
sg488
g291
sg489
g3519
sg490
(dp3522
g3516
(dp3523
ssbsg583
(lp3524
g3516
asg860
(lp3525
sg85
I374
sg72
g1304
sbsg1413
(iconstruction
TP_SYNFORM
p3526
(dp3527
g85
I375
sg1416
(lp3528
(iconstruction
TP_PHON
p3529
(dp3530
g1426
I3
sg1423
I0
sg85
I378
sg1427
Vbig
p3531
sg72
g3507
sbasg72
g1304
sbsg1434
I1
sba(iconstruction
CXN
p3532
(dp3533
g1374
(iconstruction
TP_SYMLINKS
p3534
(dp3535
g1377
(dp3536
VN1_382
p3537
VS1_383
p3538
ssg85
I381
sg72
g1304
sbsg1383
VA
p3539
sg1385
I1
sg72
VHANDSOME
p3540
sg1387
(iconstruction
TP_SEMFRAME
p3541
(dp3542
g100
g0
(g101
g2
Ntp3543
Rp3544
(dp3545
g105
(dp3546
(iconstruction
TP_NODE
p3547
(dp3548
g1396
I01
sg1397
g681
sg72
g3537
sg1398
I00
sg1399
I00
sg85
I382
sb(dp3549
g1398
I00
sg1397
g681
sssg290
g291
sg292
g291
sg293
(dp3550
g3547
(dp3551
ssg486
g3550
sg100
(dp3552
sg488
g291
sg489
g3550
sg490
(dp3553
g3547
(dp3554
ssbsg583
(lp3555
g3547
asg860
(lp3556
sg85
I379
sg72
g1304
sbsg1413
(iconstruction
TP_SYNFORM
p3557
(dp3558
g85
I380
sg1416
(lp3559
(iconstruction
TP_PHON
p3560
(dp3561
g1426
I8
sg1423
I0
sg85
I383
sg1427
Vhandsome
p3562
sg72
g3538
sbasg72
g1304
sbsg1434
I1
sba(iconstruction
CXN
p3563
(dp3564
g1374
(iconstruction
TP_SYMLINKS
p3565
(dp3566
g1377
(dp3567
VN1_387
p3568
VS1_388
p3569
ssg85
I386
sg72
g1304
sbsg1383
VA
p3570
sg1385
I1
sg72
VPRETTY
p3571
sg1387
(iconstruction
TP_SEMFRAME
p3572
(dp3573
g100
g0
(g101
g2
Ntp3574
Rp3575
(dp3576
g105
(dp3577
(iconstruction
TP_NODE
p3578
(dp3579
g1396
I01
sg1397
g678
sg72
g3568
sg1398
I00
sg1399
I00
sg85
I387
sb(dp3580
g1398
I00
sg1397
g678
sssg290
g291
sg292
g291
sg293
(dp3581
g3578
(dp3582
ssg486
g3581
sg100
(dp3583
sg488
g291
sg489
g3581
sg490
(dp3584
g3578
(dp3585
ssbsg583
(lp3586
g3578
asg860
(lp3587
sg85
I384
sg72
g1304
sbsg1413
(iconstruction
TP_SYNFORM
p3588
(dp3589
g85
I385
sg1416
(lp3590
(iconstruction
TP_PHON
p3591
(dp3592
g1426
I6
sg1423
I0
sg85
I388
sg1427
Vpretty
p3593
sg72
g3569
sbasg72
g1304
sbsg1434
I1
sba(iconstruction
CXN
p3594
(dp3595
g1374
(iconstruction
TP_SYMLINKS
p3596
(dp3597
g1377
(dp3598
VN1_392
p3599
VS1_393
p3600
ssg85
I391
sg72
g1304
sbsg1383
VA
p3601
sg1385
I1
sg72
VYOUNG
p3602
sg1387
(iconstruction
TP_SEMFRAME
p3603
(dp3604
g100
g0
(g101
g2
Ntp3605
Rp3606
(dp3607
g105
(dp3608
(iconstruction
TP_NODE
p3609
(dp3610
g1396
I01
sg1397
g675
sg72
g3599
sg1398
I00
sg1399
I00
sg85
I392
sb(dp3611
g1398
I00
sg1397
g675
sssg290
g291
sg292
g291
sg293
(dp3612
g3609
(dp3613
ssg486
g3612
sg100
(dp3614
sg488
g291
sg489
g3612
sg490
(dp3615
g3609
(dp3616
ssbsg583
(lp3617
g3609
asg860
(lp3618
sg85
I389
sg72
g1304
sbsg1413
(iconstruction
TP_SYNFORM
p3619
(dp3620
g85
I390
sg1416
(lp3621
(iconstruction
TP_PHON
p3622
(dp3623
g1426
I5
sg1423
I0
sg85
I393
sg1427
Vyoung
p3624
sg72
g3600
sbasg72
g1304
sbsg1434
I1
sba(iconstruction
CXN
p3625
(dp3626
g1374
(iconstruction
TP_SYMLINKS
p3627
(dp3628
g1377
(dp3629
VN1_398
p3630
VS1_400
p3631
ssg85
I396
sg72
g1304
sbsg1383
VN
p3632
sg1385
I1
sg72
VWOMAN
p3633
sg1387
(iconstruction
TP_SEMFRAME
p3634
(dp3635
g100
g0
(g101
g2
Ntp3636
Rp3637
(dp3638
g105
(dp3639
(iconstruction
TP_NODE
p3640
(dp3641
g1396
I00
sg1397
g816
sg72
g3630
sg1398
I00
sg1399
I00
sg85
I398
sb(dp3642
g1398
I00
sg1397
g816
ss(iconstruction
TP_NODE
p3643
(dp3644
g1396
I01
sg1397
g750
sg72
VENT_397
p3645
sg1398
I01
sg1399
I00
sg85
I397
sb(dp3646
g1398
I01
sg1397
g750
sssg290
g291
sg292
g291
sg293
(dp3647
g3640
(dp3648
sg3643
(dp3649
g3640
(dp3650
g1397
g741
ssssg486
g3647
sg100
(dp3651
sg488
g291
sg489
g3647
sg490
(dp3652
g3640
(dp3653
g3643
g3650
ssg3643
(dp3654
ssbsg583
(lp3655
g3643
ag3640
asg860
(lp3656
(iconstruction
TP_REL
p3657
(dp3658
g866
g3640
sg1397
g741
sg85
I399
sg867
g3643
sg72
VIS_399
p3659
sbasg85
I394
sg72
g1304
sbsg1413
(iconstruction
TP_SYNFORM
p3660
(dp3661
g85
I395
sg1416
(lp3662
(iconstruction
TP_PHON
p3663
(dp3664
g1426
I5
sg1423
I0
sg85
I400
sg1427
Vwoman
p3665
sg72
g3631
sbasg72
g1304
sbsg1434
I1
sba(iconstruction
CXN
p3666
(dp3667
g1374
(iconstruction
TP_SYMLINKS
p3668
(dp3669
g1377
(dp3670
VN1_405
p3671
VS1_407
p3672
ssg85
I403
sg72
g1304
sbsg1383
VN
p3673
sg1385
I1
sg72
VWOMAN2
p3674
sg1387
(iconstruction
TP_SEMFRAME
p3675
(dp3676
g100
g0
(g101
g2
Ntp3677
Rp3678
(dp3679
g105
(dp3680
(iconstruction
TP_NODE
p3681
(dp3682
g1396
I00
sg1397
g816
sg72
g3671
sg1398
I00
sg1399
I00
sg85
I405
sb(dp3683
g1398
I00
sg1397
g816
ss(iconstruction
TP_NODE
p3684
(dp3685
g1396
I01
sg1397
g750
sg72
VENT_404
p3686
sg1398
I01
sg1399
I00
sg85
I404
sb(dp3687
g1398
I01
sg1397
g750
sssg290
g291
sg292
g291
sg293
(dp3688
g3681
(dp3689
sg3684
(dp3690
g3681
(dp3691
g1397
g741
ssssg486
g3688
sg100
(dp3692
sg488
g291
sg489
g3688
sg490
(dp3693
g3681
(dp3694
g3684
g3691
ssg3684
(dp3695
ssbsg583
(lp3696
g3684
ag3681
asg860
(lp3697
(iconstruction
TP_REL
p3698
(dp3699
g866
g3681
sg1397
g741
sg85
I406
sg867
g3684
sg72
VIS_406
p3700
sbasg85
I401
sg72
g1304
sbsg1413
(iconstruction
TP_SYNFORM
p3701
(dp3702
g85
I402
sg1416
(lp3703
(iconstruction
TP_PHON
p3704
(dp3705
g1426
I4
sg1423
I0
sg85
I407
sg1427
Vlady
p3706
sg72
g3672
sbasg72
g1304
sbsg1434
I1
sba(iconstruction
CXN
p3707
(dp3708
g1374
(iconstruction
TP_SYMLINKS
p3709
(dp3710
g1377
(dp3711
VN1_412
p3712
VS1_414
p3713
ssg85
I410
sg72
g1304
sbsg1383
VN
p3714
sg1385
I1
sg72
VMAN
p3715
sg1387
(iconstruction
TP_SEMFRAME
p3716
(dp3717
g100
g0
(g101
g2
Ntp3718
Rp3719
(dp3720
g105
(dp3721
(iconstruction
TP_NODE
p3722
(dp3723
g1396
I01
sg1397
g750
sg72
VENT_411
p3724
sg1398
I01
sg1399
I00
sg85
I411
sb(dp3725
g1398
I01
sg1397
g750
ss(iconstruction
TP_NODE
p3726
(dp3727
g1396
I00
sg1397
g843
sg72
g3712
sg1398
I00
sg1399
I00
sg85
I412
sb(dp3728
g1398
I00
sg1397
g843
sssg290
g291
sg292
g291
sg293
(dp3729
g3722
(dp3730
g3726
(dp3731
g1397
g741
sssg3726
(dp3732
ssg486
g3729
sg100
(dp3733
sg488
g291
sg489
g3729
sg490
(dp3734
g3722
(dp3735
sg3726
(dp3736
g3722
g3731
sssbsg583
(lp3737
g3722
ag3726
asg860
(lp3738
(iconstruction
TP_REL
p3739
(dp3740
g866
g3726
sg1397
g741
sg85
I413
sg867
g3722
sg72
VIS_413
p3741
sbasg85
I408
sg72
g1304
sbsg1413
(iconstruction
TP_SYNFORM
p3742
(dp3743
g85
I409
sg1416
(lp3744
(iconstruction
TP_PHON
p3745
(dp3746
g1426
I3
sg1423
I0
sg85
I414
sg1427
Vman
p3747
sg72
g3713
sbasg72
g1304
sbsg1434
I1
sba(iconstruction
CXN
p3748
(dp3749
g1374
(iconstruction
TP_SYMLINKS
p3750
(dp3751
g1377
(dp3752
VN1_419
p3753
VS1_421
p3754
ssg85
I417
sg72
g1304
sbsg1383
VN
p3755
sg1385
I1
sg72
VGIRL
p3756
sg1387
(iconstruction
TP_SEMFRAME
p3757
(dp3758
g100
g0
(g101
g2
Ntp3759
Rp3760
(dp3761
g105
(dp3762
(iconstruction
TP_NODE
p3763
(dp3764
g1396
I00
sg1397
g834
sg72
g3753
sg1398
I00
sg1399
I00
sg85
I419
sb(dp3765
g1398
I00
sg1397
g834
ss(iconstruction
TP_NODE
p3766
(dp3767
g1396
I01
sg1397
g750
sg72
VENT_418
p3768
sg1398
I01
sg1399
I00
sg85
I418
sb(dp3769
g1398
I01
sg1397
g750
sssg290
g291
sg292
g291
sg293
(dp3770
g3763
(dp3771
sg3766
(dp3772
g3763
(dp3773
g1397
g741
ssssg486
g3770
sg100
(dp3774
sg488
g291
sg489
g3770
sg490
(dp3775
g3763
(dp3776
g3766
g3773
ssg3766
(dp3777
ssbsg583
(lp3778
g3766
ag3763
asg860
(lp3779
(iconstruction
TP_REL
p3780
(dp3781
g866
g3763
sg1397
g741
sg85
I420
sg867
g3766
sg72
VIS_420
p3782
sbasg85
I415
sg72
g1304
sbsg1413
(iconstruction
TP_SYNFORM
p3783
(dp3784
g85
I416
sg1416
(lp3785
(iconstruction
TP_PHON
p3786
(dp3787
g1426
I4
sg1423
I0
sg85
I421
sg1427
Vgirl
p3788
sg72
g3754
sbasg72
g1304
sbsg1434
I1
sba(iconstruction
CXN
p3789
(dp3790
g1374
(iconstruction
TP_SYMLINKS
p3791
(dp3792
g1377
(dp3793
VN1_426
p3794
VS1_428
p3795
ssg85
I424
sg72
g1304
sbsg1383
VN
p3796
sg1385
I1
sg72
VBOY
p3797
sg1387
(iconstruction
TP_SEMFRAME
p3798
(dp3799
g100
g0
(g101
g2
Ntp3800
Rp3801
(dp3802
g105
(dp3803
(iconstruction
TP_NODE
p3804
(dp3805
g1396
I01
sg1397
g750
sg72
VENT_425
p3806
sg1398
I01
sg1399
I00
sg85
I425
sb(dp3807
g1398
I01
sg1397
g750
ss(iconstruction
TP_NODE
p3808
(dp3809
g1396
I00
sg1397
g813
sg72
g3794
sg1398
I00
sg1399
I00
sg85
I426
sb(dp3810
g1398
I00
sg1397
g813
sssg290
g291
sg292
g291
sg293
(dp3811
g3804
(dp3812
g3808
(dp3813
g1397
g741
sssg3808
(dp3814
ssg486
g3811
sg100
(dp3815
sg488
g291
sg489
g3811
sg490
(dp3816
g3804
(dp3817
sg3808
(dp3818
g3804
g3813
sssbsg583
(lp3819
g3804
ag3808
asg860
(lp3820
(iconstruction
TP_REL
p3821
(dp3822
g866
g3808
sg1397
g741
sg85
I427
sg867
g3804
sg72
VIS_427
p3823
sbasg85
I422
sg72
g1304
sbsg1413
(iconstruction
TP_SYNFORM
p3824
(dp3825
g85
I423
sg1416
(lp3826
(iconstruction
TP_PHON
p3827
(dp3828
g1426
I3
sg1423
I0
sg85
I428
sg1427
Vboy
p3829
sg72
g3795
sbasg72
g1304
sbsg1434
I1
sba(iconstruction
CXN
p3830
(dp3831
g1374
(iconstruction
TP_SYMLINKS
p3832
(dp3833
g1377
(dp3834
VN1_433
p3835
VS1_435
p3836
ssg85
I431
sg72
g1304
sbsg1383
VN
p3837
sg1385
I1
sg72
VPEOPLE
p3838
sg1387
(iconstruction
TP_SEMFRAME
p3839
(dp3840
g100
g0
(g101
g2
Ntp3841
Rp3842
(dp3843
g105
(dp3844
(iconstruction
TP_NODE
p3845
(dp3846
g1396
I00
sg1397
g819
sg72
g3835
sg1398
I00
sg1399
I00
sg85
I433
sb(dp3847
g1398
I00
sg1397
g819
ss(iconstruction
TP_NODE
p3848
(dp3849
g1396
I01
sg1397
g750
sg72
VENT_432
p3850
sg1398
I01
sg1399
I00
sg85
I432
sb(dp3851
g1398
I01
sg1397
g750
sssg290
g291
sg292
g291
sg293
(dp3852
g3845
(dp3853
sg3848
(dp3854
g3845
(dp3855
g1397
g741
ssssg486
g3852
sg100
(dp3856
sg488
g291
sg489
g3852
sg490
(dp3857
g3845
(dp3858
g3848
g3855
ssg3848
(dp3859
ssbsg583
(lp3860
g3848
ag3845
asg860
(lp3861
(iconstruction
TP_REL
p3862
(dp3863
g866
g3845
sg1397
g741
sg85
I434
sg867
g3848
sg72
VIS_434
p3864
sbasg85
I429
sg72
g1304
sbsg1413
(iconstruction
TP_SYNFORM
p3865
(dp3866
g85
I430
sg1416
(lp3867
(iconstruction
TP_PHON
p3868
(dp3869
g1426
I6
sg1423
I0
sg85
I435
sg1427
Vpeople
p3870
sg72
g3836
sbasg72
g1304
sbsg1434
I1
sba(iconstruction
CXN
p3871
(dp3872
g1374
(iconstruction
TP_SYMLINKS
p3873
(dp3874
g1377
(dp3875
VN1_440
p3876
VS1_442
p3877
ssg85
I438
sg72
g1304
sbsg1383
VN
p3878
sg1385
I1
sg72
VMOUSE
p3879
sg1387
(iconstruction
TP_SEMFRAME
p3880
(dp3881
g100
g0
(g101
g2
Ntp3882
Rp3883
(dp3884
g105
(dp3885
(iconstruction
TP_NODE
p3886
(dp3887
g1396
I01
sg1397
g750
sg72
VENT_439
p3888
sg1398
I01
sg1399
I00
sg85
I439
sb(dp3889
g1398
I01
sg1397
g750
ss(iconstruction
TP_NODE
p3890
(dp3891
g1396
I00
sg1397
g807
sg72
g3876
sg1398
I00
sg1399
I00
sg85
I440
sb(dp3892
g1398
I00
sg1397
g807
sssg290
g291
sg292
g291
sg293
(dp3893
g3886
(dp3894
g3890
(dp3895
g1397
g741
sssg3890
(dp3896
ssg486
g3893
sg100
(dp3897
sg488
g291
sg489
g3893
sg490
(dp3898
g3886
(dp3899
sg3890
(dp3900
g3886
g3895
sssbsg583
(lp3901
g3886
ag3890
asg860
(lp3902
(iconstruction
TP_REL
p3903
(dp3904
g866
g3890
sg1397
g741
sg85
I441
sg867
g3886
sg72
VIS_441
p3905
sbasg85
I436
sg72
g1304
sbsg1413
(iconstruction
TP_SYNFORM
p3906
(dp3907
g85
I437
sg1416
(lp3908
(iconstruction
TP_PHON
p3909
(dp3910
g1426
I5
sg1423
I0
sg85
I442
sg1427
Vmouse
p3911
sg72
g3877
sbasg72
g1304
sbsg1434
I1
sba(iconstruction
CXN
p3912
(dp3913
g1374
(iconstruction
TP_SYMLINKS
p3914
(dp3915
g1377
(dp3916
VN1_447
p3917
VS1_449
p3918
ssg85
I445
sg72
g1304
sbsg1383
VN
p3919
sg1385
I1
sg72
VTURTLE
p3920
sg1387
(iconstruction
TP_SEMFRAME
p3921
(dp3922
g100
g0
(g101
g2
Ntp3923
Rp3924
(dp3925
g105
(dp3926
(iconstruction
TP_NODE
p3927
(dp3928
g1396
I01
sg1397
g750
sg72
VENT_446
p3929
sg1398
I01
sg1399
I00
sg85
I446
sb(dp3930
g1398
I01
sg1397
g750
ss(iconstruction
TP_NODE
p3931
(dp3932
g1396
I00
sg1397
g804
sg72
g3917
sg1398
I00
sg1399
I00
sg85
I447
sb(dp3933
g1398
I00
sg1397
g804
sssg290
g291
sg292
g291
sg293
(dp3934
g3927
(dp3935
g3931
(dp3936
g1397
g741
sssg3931
(dp3937
ssg486
g3934
sg100
(dp3938
sg488
g291
sg489
g3934
sg490
(dp3939
g3927
(dp3940
sg3931
(dp3941
g3927
g3936
sssbsg583
(lp3942
g3927
ag3931
asg860
(lp3943
(iconstruction
TP_REL
p3944
(dp3945
g866
g3931
sg1397
g741
sg85
I448
sg867
g3927
sg72
VIS_448
p3946
sbasg85
I443
sg72
g1304
sbsg1413
(iconstruction
TP_SYNFORM
p3947
(dp3948
g85
I444
sg1416
(lp3949
(iconstruction
TP_PHON
p3950
(dp3951
g1426
I6
sg1423
I0
sg85
I449
sg1427
Vturtle
p3952
sg72
g3918
sbasg72
g1304
sbsg1434
I1
sba(iconstruction
CXN
p3953
(dp3954
g1374
(iconstruction
TP_SYMLINKS
p3955
(dp3956
g1377
(dp3957
VN1_454
p3958
VS1_456
p3959
ssg85
I452
sg72
g1304
sbsg1383
VN
p3960
sg1385
I1
sg72
VDRESS
p3961
sg1387
(iconstruction
TP_SEMFRAME
p3962
(dp3963
g100
g0
(g101
g2
Ntp3964
Rp3965
(dp3966
g105
(dp3967
(iconstruction
TP_NODE
p3968
(dp3969
g1396
I00
sg1397
g795
sg72
g3958
sg1398
I00
sg1399
I00
sg85
I454
sb(dp3970
g1398
I00
sg1397
g795
ss(iconstruction
TP_NODE
p3971
(dp3972
g1396
I01
sg1397
g750
sg72
VENT_453
p3973
sg1398
I01
sg1399
I00
sg85
I453
sb(dp3974
g1398
I01
sg1397
g750
sssg290
g291
sg292
g291
sg293
(dp3975
g3968
(dp3976
sg3971
(dp3977
g3968
(dp3978
g1397
g741
ssssg486
g3975
sg100
(dp3979
sg488
g291
sg489
g3975
sg490
(dp3980
g3968
(dp3981
g3971
g3978
ssg3971
(dp3982
ssbsg583
(lp3983
g3971
ag3968
asg860
(lp3984
(iconstruction
TP_REL
p3985
(dp3986
g866
g3968
sg1397
g741
sg85
I455
sg867
g3971
sg72
VIS_455
p3987
sbasg85
I450
sg72
g1304
sbsg1413
(iconstruction
TP_SYNFORM
p3988
(dp3989
g85
I451
sg1416
(lp3990
(iconstruction
TP_PHON
p3991
(dp3992
g1426
I5
sg1423
I0
sg85
I456
sg1427
Vdress
p3993
sg72
g3959
sbasg72
g1304
sbsg1434
I1
sba(iconstruction
CXN
p3994
(dp3995
g1374
(iconstruction
TP_SYMLINKS
p3996
(dp3997
g1377
(dp3998
VN1_461
p3999
VS1_463
p4000
ssg85
I459
sg72
g1304
sbsg1383
VN
p4001
sg1385
I1
sg72
VTSHIRT
p4002
sg1387
(iconstruction
TP_SEMFRAME
p4003
(dp4004
g100
g0
(g101
g2
Ntp4005
Rp4006
(dp4007
g105
(dp4008
(iconstruction
TP_NODE
p4009
(dp4010
g1396
I01
sg1397
g750
sg72
VENT_460
p4011
sg1398
I01
sg1399
I00
sg85
I460
sb(dp4012
g1398
I01
sg1397
g750
ss(iconstruction
TP_NODE
p4013
(dp4014
g1396
I00
sg1397
g792
sg72
g3999
sg1398
I00
sg1399
I00
sg85
I461
sb(dp4015
g1398
I00
sg1397
g792
sssg290
g291
sg292
g291
sg293
(dp4016
g4009
(dp4017
g4013
(dp4018
g1397
g741
sssg4013
(dp4019
ssg486
g4016
sg100
(dp4020
sg488
g291
sg489
g4016
sg490
(dp4021
g4009
(dp4022
sg4013
(dp4023
g4009
g4018
sssbsg583
(lp4024
g4009
ag4013
asg860
(lp4025
(iconstruction
TP_REL
p4026
(dp4027
g866
g4013
sg1397
g741
sg85
I462
sg867
g4009
sg72
VIS_462
p4028
sbasg85
I457
sg72
g1304
sbsg1413
(iconstruction
TP_SYNFORM
p4029
(dp4030
g85
I458
sg1416
(lp4031
(iconstruction
TP_PHON
p4032
(dp4033
g1426
I6
sg1423
I0
sg85
I463
sg1427
Vt-shirt
p4034
sg72
g4000
sbasg72
g1304
sbsg1434
I1
sba(iconstruction
CXN
p4035
(dp4036
g1374
(iconstruction
TP_SYMLINKS
p4037
(dp4038
g1377
(dp4039
VN1_468
p4040
VS2_471
p4041
ssg85
I466
sg72
g1304
sbsg1383
VN
p4042
sg1385
I1
sg72
VBOXINGRING
p4043
sg1387
(iconstruction
TP_SEMFRAME
p4044
(dp4045
g100
g0
(g101
g2
Ntp4046
Rp4047
(dp4048
g105
(dp4049
(iconstruction
TP_NODE
p4050
(dp4051
g1396
I00
sg1397
g849
sg72
g4040
sg1398
I00
sg1399
I00
sg85
I468
sb(dp4052
g1398
I00
sg1397
g849
ss(iconstruction
TP_NODE
p4053
(dp4054
g1396
I01
sg1397
g750
sg72
VENT_467
p4055
sg1398
I01
sg1399
I00
sg85
I467
sb(dp4056
g1398
I01
sg1397
g750
sssg290
g291
sg292
g291
sg293
(dp4057
g4050
(dp4058
sg4053
(dp4059
g4050
(dp4060
g1397
g741
ssssg486
g4057
sg100
(dp4061
sg488
g291
sg489
g4057
sg490
(dp4062
g4050
(dp4063
g4053
g4060
ssg4053
(dp4064
ssbsg583
(lp4065
g4053
ag4050
asg860
(lp4066
(iconstruction
TP_REL
p4067
(dp4068
g866
g4050
sg1397
g741
sg85
I469
sg867
g4053
sg72
VIS_469
p4069
sbasg85
I464
sg72
g1304
sbsg1413
(iconstruction
TP_SYNFORM
p4070
(dp4071
g85
I465
sg1416
(lp4072
(iconstruction
TP_PHON
p4073
(dp4074
g1426
I6
sg1423
I0
sg85
I470
sg1427
Vboxing
p4075
sg72
VS1_470
p4076
sba(iconstruction
TP_PHON
p4077
(dp4078
g1426
I4
sg1423
I1
sg85
I471
sg1427
Vring
p4079
sg72
g4041
sbasg72
g1304
sbsg1434
I1
sba(iconstruction
CXN
p4080
(dp4081
g1374
(iconstruction
TP_SYMLINKS
p4082
(dp4083
g1377
(dp4084
VN1_476
p4085
VS1_478
p4086
ssg85
I474
sg72
g1304
sbsg1383
VN
p4087
sg1385
I1
sg72
VPARK
p4088
sg1387
(iconstruction
TP_SEMFRAME
p4089
(dp4090
g100
g0
(g101
g2
Ntp4091
Rp4092
(dp4093
g105
(dp4094
(iconstruction
TP_NODE
p4095
(dp4096
g1396
I00
sg1397
g852
sg72
g4085
sg1398
I00
sg1399
I00
sg85
I476
sb(dp4097
g1398
I00
sg1397
g852
ss(iconstruction
TP_NODE
p4098
(dp4099
g1396
I01
sg1397
g750
sg72
VENT_475
p4100
sg1398
I01
sg1399
I00
sg85
I475
sb(dp4101
g1398
I01
sg1397
g750
sssg290
g291
sg292
g291
sg293
(dp4102
g4095
(dp4103
sg4098
(dp4104
g4095
(dp4105
g1397
g741
ssssg486
g4102
sg100
(dp4106
sg488
g291
sg489
g4102
sg490
(dp4107
g4095
(dp4108
g4098
g4105
ssg4098
(dp4109
ssbsg583
(lp4110
g4098
ag4095
asg860
(lp4111
(iconstruction
TP_REL
p4112
(dp4113
g866
g4095
sg1397
g741
sg85
I477
sg867
g4098
sg72
VIS_477
p4114
sbasg85
I472
sg72
g1304
sbsg1413
(iconstruction
TP_SYNFORM
p4115
(dp4116
g85
I473
sg1416
(lp4117
(iconstruction
TP_PHON
p4118
(dp4119
g1426
I4
sg1423
I0
sg85
I478
sg1427
Vpark
p4120
sg72
g4086
sbasg72
g1304
sbsg1434
I1
sba(iconstruction
CXN
p4121
(dp4122
g1374
(iconstruction
TP_SYMLINKS
p4123
(dp4124
g1377
(dp4125
VN1_483
p4126
VS1_485
p4127
ssg85
I481
sg72
g1304
sbsg1383
VN
p4128
sg1385
I1
sg72
VSHIRT
p4129
sg1387
(iconstruction
TP_SEMFRAME
p4130
(dp4131
g100
g0
(g101
g2
Ntp4132
Rp4133
(dp4134
g105
(dp4135
(iconstruction
TP_NODE
p4136
(dp4137
g1396
I00
sg1397
g798
sg72
g4126
sg1398
I00
sg1399
I00
sg85
I483
sb(dp4138
g1398
I00
sg1397
g798
ss(iconstruction
TP_NODE
p4139
(dp4140
g1396
I01
sg1397
g750
sg72
VENT_482
p4141
sg1398
I01
sg1399
I00
sg85
I482
sb(dp4142
g1398
I01
sg1397
g750
sssg290
g291
sg292
g291
sg293
(dp4143
g4136
(dp4144
sg4139
(dp4145
g4136
(dp4146
g1397
g741
ssssg486
g4143
sg100
(dp4147
sg488
g291
sg489
g4143
sg490
(dp4148
g4136
(dp4149
g4139
g4146
ssg4139
(dp4150
ssbsg583
(lp4151
g4139
ag4136
asg860
(lp4152
(iconstruction
TP_REL
p4153
(dp4154
g866
g4136
sg1397
g741
sg85
I484
sg867
g4139
sg72
VIS_484
p4155
sbasg85
I479
sg72
g1304
sbsg1413
(iconstruction
TP_SYNFORM
p4156
(dp4157
g85
I480
sg1416
(lp4158
(iconstruction
TP_PHON
p4159
(dp4160
g1426
I5
sg1423
I0
sg85
I485
sg1427
Vshirt
p4161
sg72
g4127
sbasg72
g1304
sbsg1434
I1
sba(iconstruction
CXN
p4162
(dp4163
g1374
(iconstruction
TP_SYMLINKS
p4164
(dp4165
g1377
(dp4166
VN1_490
p4167
VS1_492
p4168
ssg85
I488
sg72
g1304
sbsg1383
VN
p4169
sg1385
I1
sg72
VSUIT
p4170
sg1387
(iconstruction
TP_SEMFRAME
p4171
(dp4172
g100
g0
(g101
g2
Ntp4173
Rp4174
(dp4175
g105
(dp4176
(iconstruction
TP_NODE
p4177
(dp4178
g1396
I01
sg1397
g750
sg72
VENT_489
p4179
sg1398
I01
sg1399
I00
sg85
I489
sb(dp4180
g1398
I01
sg1397
g750
ss(iconstruction
TP_NODE
p4181
(dp4182
g1396
I00
sg1397
g801
sg72
g4167
sg1398
I00
sg1399
I00
sg85
I490
sb(dp4183
g1398
I00
sg1397
g801
sssg290
g291
sg292
g291
sg293
(dp4184
g4177
(dp4185
g4181
(dp4186
g1397
g741
sssg4181
(dp4187
ssg486
g4184
sg100
(dp4188
sg488
g291
sg489
g4184
sg490
(dp4189
g4177
(dp4190
sg4181
(dp4191
g4177
g4186
sssbsg583
(lp4192
g4177
ag4181
asg860
(lp4193
(iconstruction
TP_REL
p4194
(dp4195
g866
g4181
sg1397
g741
sg85
I491
sg867
g4177
sg72
VIS_491
p4196
sbasg85
I486
sg72
g1304
sbsg1413
(iconstruction
TP_SYNFORM
p4197
(dp4198
g85
I487
sg1416
(lp4199
(iconstruction
TP_PHON
p4200
(dp4201
g1426
I4
sg1423
I0
sg85
I492
sg1427
Vsuit
p4202
sg72
g4168
sbasg72
g1304
sbsg1434
I1
sba(iconstruction
CXN
p4203
(dp4204
g1374
(iconstruction
TP_SYMLINKS
p4205
(dp4206
g1377
(dp4207
VN1_497
p4208
VS1_499
p4209
ssg85
I495
sg72
g1304
sbsg1383
VN
p4210
sg1385
I1
sg72
VCELLO
p4211
sg1387
(iconstruction
TP_SEMFRAME
p4212
(dp4213
g100
g0
(g101
g2
Ntp4214
Rp4215
(dp4216
g105
(dp4217
(iconstruction
TP_NODE
p4218
(dp4219
g1396
I00
sg1397
g783
sg72
g4208
sg1398
I00
sg1399
I00
sg85
I497
sb(dp4220
g1398
I00
sg1397
g783
ss(iconstruction
TP_NODE
p4221
(dp4222
g1396
I01
sg1397
g750
sg72
VENT_496
p4223
sg1398
I01
sg1399
I00
sg85
I496
sb(dp4224
g1398
I01
sg1397
g750
sssg290
g291
sg292
g291
sg293
(dp4225
g4218
(dp4226
sg4221
(dp4227
g4218
(dp4228
g1397
g741
ssssg486
g4225
sg100
(dp4229
sg488
g291
sg489
g4225
sg490
(dp4230
g4218
(dp4231
g4221
g4228
ssg4221
(dp4232
ssbsg583
(lp4233
g4221
ag4218
asg860
(lp4234
(iconstruction
TP_REL
p4235
(dp4236
g866
g4218
sg1397
g741
sg85
I498
sg867
g4221
sg72
VIS_498
p4237
sbasg85
I493
sg72
g1304
sbsg1413
(iconstruction
TP_SYNFORM
p4238
(dp4239
g85
I494
sg1416
(lp4240
(iconstruction
TP_PHON
p4241
(dp4242
g1426
I5
sg1423
I0
sg85
I499
sg1427
VCELLO
p4243
sg72
g4209
sbasg72
g1304
sbsg1434
I1
sba(iconstruction
CXN
p4244
(dp4245
g1374
(iconstruction
TP_SYMLINKS
p4246
(dp4247
g1377
(dp4248
VN1_504
p4249
VS1_506
p4250
ssg85
I502
sg72
g1304
sbsg1383
VN
p4251
sg1385
I1
sg72
VBAG
p4252
sg1387
(iconstruction
TP_SEMFRAME
p4253
(dp4254
g100
g0
(g101
g2
Ntp4255
Rp4256
(dp4257
g105
(dp4258
(iconstruction
TP_NODE
p4259
(dp4260
g1396
I01
sg1397
g750
sg72
VENT_503
p4261
sg1398
I01
sg1399
I00
sg85
I503
sb(dp4262
g1398
I01
sg1397
g750
ss(iconstruction
TP_NODE
p4263
(dp4264
g1396
I00
sg1397
g774
sg72
g4249
sg1398
I00
sg1399
I00
sg85
I504
sb(dp4265
g1398
I00
sg1397
g774
sssg290
g291
sg292
g291
sg293
(dp4266
g4259
(dp4267
g4263
(dp4268
g1397
g741
sssg4263
(dp4269
ssg486
g4266
sg100
(dp4270
sg488
g291
sg489
g4266
sg490
(dp4271
g4259
(dp4272
sg4263
(dp4273
g4259
g4268
sssbsg583
(lp4274
g4259
ag4263
asg860
(lp4275
(iconstruction
TP_REL
p4276
(dp4277
g866
g4263
sg1397
g741
sg85
I505
sg867
g4259
sg72
VIS_505
p4278
sbasg85
I500
sg72
g1304
sbsg1413
(iconstruction
TP_SYNFORM
p4279
(dp4280
g85
I501
sg1416
(lp4281
(iconstruction
TP_PHON
p4282
(dp4283
g1426
I3
sg1423
I0
sg85
I506
sg1427
Vbag
p4284
sg72
g4250
sbasg72
g1304
sbsg1434
I1
sba(iconstruction
CXN
p4285
(dp4286
g1374
(iconstruction
TP_SYMLINKS
p4287
(dp4288
g1377
(dp4289
VN1_511
p4290
VS2_514
p4291
ssg85
I509
sg72
g1304
sbsg1383
VN
p4292
sg1385
I1
sg72
VWATERING_CAN
p4293
sg1387
(iconstruction
TP_SEMFRAME
p4294
(dp4295
g100
g0
(g101
g2
Ntp4296
Rp4297
(dp4298
g105
(dp4299
(iconstruction
TP_NODE
p4300
(dp4301
g1396
I00
sg1397
g771
sg72
g4290
sg1398
I00
sg1399
I00
sg85
I511
sb(dp4302
g1398
I00
sg1397
g771
ss(iconstruction
TP_NODE
p4303
(dp4304
g1396
I01
sg1397
g750
sg72
VENT_510
p4305
sg1398
I01
sg1399
I00
sg85
I510
sb(dp4306
g1398
I01
sg1397
g750
sssg290
g291
sg292
g291
sg293
(dp4307
g4300
(dp4308
sg4303
(dp4309
g4300
(dp4310
g1397
g741
ssssg486
g4307
sg100
(dp4311
sg488
g291
sg489
g4307
sg490
(dp4312
g4300
(dp4313
g4303
g4310
ssg4303
(dp4314
ssbsg583
(lp4315
g4303
ag4300
asg860
(lp4316
(iconstruction
TP_REL
p4317
(dp4318
g866
g4300
sg1397
g741
sg85
I512
sg867
g4303
sg72
VIS_512
p4319
sbasg85
I507
sg72
g1304
sbsg1413
(iconstruction
TP_SYNFORM
p4320
(dp4321
g85
I508
sg1416
(lp4322
(iconstruction
TP_PHON
p4323
(dp4324
g1426
I8
sg1423
I0
sg85
I513
sg1427
Vwatering
p4325
sg72
VS1_513
p4326
sba(iconstruction
TP_PHON
p4327
(dp4328
g1426
I3
sg1423
I1
sg85
I514
sg1427
Vcan
p4329
sg72
g4291
sbasg72
g1304
sbsg1434
I1
sba(iconstruction
CXN
p4330
(dp4331
g1374
(iconstruction
TP_SYMLINKS
p4332
(dp4333
g1377
(dp4334
VN1_519
p4335
VS1_521
p4336
ssg85
I517
sg72
g1304
sbsg1383
VN
p4337
sg1385
I1
sg72
VBALLERINA
p4338
sg1387
(iconstruction
TP_SEMFRAME
p4339
(dp4340
g100
g0
(g101
g2
Ntp4341
Rp4342
(dp4343
g105
(dp4344
(iconstruction
TP_NODE
p4345
(dp4346
g1396
I00
sg1397
g828
sg72
g4335
sg1398
I00
sg1399
I00
sg85
I519
sb(dp4347
g1398
I00
sg1397
g828
ss(iconstruction
TP_NODE
p4348
(dp4349
g1396
I01
sg1397
g750
sg72
VENT_518
p4350
sg1398
I01
sg1399
I00
sg85
I518
sb(dp4351
g1398
I01
sg1397
g750
sssg290
g291
sg292
g291
sg293
(dp4352
g4345
(dp4353
sg4348
(dp4354
g4345
(dp4355
g1397
g741
ssssg486
g4352
sg100
(dp4356
sg488
g291
sg489
g4352
sg490
(dp4357
g4345
(dp4358
g4348
g4355
ssg4348
(dp4359
ssbsg583
(lp4360
g4348
ag4345
asg860
(lp4361
(iconstruction
TP_REL
p4362
(dp4363
g866
g4345
sg1397
g741
sg85
I520
sg867
g4348
sg72
VIS_520
p4364
sbasg85
I515
sg72
g1304
sbsg1413
(iconstruction
TP_SYNFORM
p4365
(dp4366
g85
I516
sg1416
(lp4367
(iconstruction
TP_PHON
p4368
(dp4369
g1426
I9
sg1423
I0
sg85
I521
sg1427
Vballerina
p4370
sg72
g4336
sbasg72
g1304
sbsg1434
I1
sba(iconstruction
CXN
p4371
(dp4372
g1374
(iconstruction
TP_SYMLINKS
p4373
(dp4374
g1377
(dp4375
VN1_526
p4376
VS1_528
p4377
ssg85
I524
sg72
g1304
sbsg1383
VN
p4378
sg1385
I1
sg72
VCELLIST
p4379
sg1387
(iconstruction
TP_SEMFRAME
p4380
(dp4381
g100
g0
(g101
g2
Ntp4382
Rp4383
(dp4384
g105
(dp4385
(iconstruction
TP_NODE
p4386
(dp4387
g1396
I00
sg1397
g831
sg72
g4376
sg1398
I00
sg1399
I00
sg85
I526
sb(dp4388
g1398
I00
sg1397
g831
ss(iconstruction
TP_NODE
p4389
(dp4390
g1396
I01
sg1397
g750
sg72
VENT_525
p4391
sg1398
I01
sg1399
I00
sg85
I525
sb(dp4392
g1398
I01
sg1397
g750
sssg290
g291
sg292
g291
sg293
(dp4393
g4386
(dp4394
sg4389
(dp4395
g4386
(dp4396
g1397
g741
ssssg486
g4393
sg100
(dp4397
sg488
g291
sg489
g4393
sg490
(dp4398
g4386
(dp4399
g4389
g4396
ssg4389
(dp4400
ssbsg583
(lp4401
g4389
ag4386
asg860
(lp4402
(iconstruction
TP_REL
p4403
(dp4404
g866
g4386
sg1397
g741
sg85
I527
sg867
g4389
sg72
VIS_527
p4405
sbasg85
I522
sg72
g1304
sbsg1413
(iconstruction
TP_SYNFORM
p4406
(dp4407
g85
I523
sg1416
(lp4408
(iconstruction
TP_PHON
p4409
(dp4410
g1426
I7
sg1423
I0
sg85
I528
sg1427
Vcellist
p4411
sg72
g4377
sbasg72
g1304
sbsg1434
I1
sba(iconstruction
CXN
p4412
(dp4413
g1374
(iconstruction
TP_SYMLINKS
p4414
(dp4415
g1377
(dp4416
VN1_533
p4417
VS1_535
p4418
ssg85
I531
sg72
g1304
sbsg1383
VN
p4419
sg1385
I1
sg72
VFENCER
p4420
sg1387
(iconstruction
TP_SEMFRAME
p4421
(dp4422
g100
g0
(g101
g2
Ntp4423
Rp4424
(dp4425
g105
(dp4426
(iconstruction
TP_NODE
p4427
(dp4428
g1396
I01
sg1397
g750
sg72
VENT_532
p4429
sg1398
I01
sg1399
I00
sg85
I532
sb(dp4430
g1398
I01
sg1397
g750
ss(iconstruction
TP_NODE
p4431
(dp4432
g1396
I00
sg1397
g837
sg72
g4417
sg1398
I00
sg1399
I00
sg85
I533
sb(dp4433
g1398
I00
sg1397
g837
sssg290
g291
sg292
g291
sg293
(dp4434
g4427
(dp4435
g4431
(dp4436
g1397
g741
sssg4431
(dp4437
ssg486
g4434
sg100
(dp4438
sg488
g291
sg489
g4434
sg490
(dp4439
g4427
(dp4440
sg4431
(dp4441
g4427
g4436
sssbsg583
(lp4442
g4427
ag4431
asg860
(lp4443
(iconstruction
TP_REL
p4444
(dp4445
g866
g4431
sg1397
g741
sg85
I534
sg867
g4427
sg72
VIS_534
p4446
sbasg85
I529
sg72
g1304
sbsg1413
(iconstruction
TP_SYNFORM
p4447
(dp4448
g85
I530
sg1416
(lp4449
(iconstruction
TP_PHON
p4450
(dp4451
g1426
I6
sg1423
I0
sg85
I535
sg1427
Vfencer
p4452
sg72
g4418
sbasg72
g1304
sbsg1434
I1
sba(iconstruction
CXN
p4453
(dp4454
g1374
(iconstruction
TP_SYMLINKS
p4455
(dp4456
g1377
(dp4457
VN1_540
p4458
VS1_542
p4459
ssg85
I538
sg72
g1304
sbsg1383
VN
p4460
sg1385
I1
sg72
VROBBER
p4461
sg1387
(iconstruction
TP_SEMFRAME
p4462
(dp4463
g100
g0
(g101
g2
Ntp4464
Rp4465
(dp4466
g105
(dp4467
(iconstruction
TP_NODE
p4468
(dp4469
g1396
I00
sg1397
g840
sg72
g4458
sg1398
I00
sg1399
I00
sg85
I540
sb(dp4470
g1398
I00
sg1397
g840
ss(iconstruction
TP_NODE
p4471
(dp4472
g1396
I01
sg1397
g750
sg72
VENT_539
p4473
sg1398
I01
sg1399
I00
sg85
I539
sb(dp4474
g1398
I01
sg1397
g750
sssg290
g291
sg292
g291
sg293
(dp4475
g4468
(dp4476
sg4471
(dp4477
g4468
(dp4478
g1397
g741
ssssg486
g4475
sg100
(dp4479
sg488
g291
sg489
g4475
sg490
(dp4480
g4468
(dp4481
g4471
g4478
ssg4471
(dp4482
ssbsg583
(lp4483
g4471
ag4468
asg860
(lp4484
(iconstruction
TP_REL
p4485
(dp4486
g866
g4468
sg1397
g741
sg85
I541
sg867
g4471
sg72
VIS_541
p4487
sbasg85
I536
sg72
g1304
sbsg1413
(iconstruction
TP_SYNFORM
p4488
(dp4489
g85
I537
sg1416
(lp4490
(iconstruction
TP_PHON
p4491
(dp4492
g1426
I5
sg1423
I0
sg85
I542
sg1427
Vthief
p4493
sg72
g4459
sbasg72
g1304
sbsg1434
I1
sba(iconstruction
CXN
p4494
(dp4495
g1374
(iconstruction
TP_SYMLINKS
p4496
(dp4497
g1377
(dp4498
VN1_547
p4499
VS1_549
p4500
ssg85
I545
sg72
g1304
sbsg1383
VN
p4501
sg1385
I1
sg72
VPOLICEMAN
p4502
sg1387
(iconstruction
TP_SEMFRAME
p4503
(dp4504
g100
g0
(g101
g2
Ntp4505
Rp4506
(dp4507
g105
(dp4508
(iconstruction
TP_NODE
p4509
(dp4510
g1396
I01
sg1397
g750
sg72
VENT_546
p4511
sg1398
I01
sg1399
I00
sg85
I546
sb(dp4512
g1398
I01
sg1397
g750
ss(iconstruction
TP_NODE
p4513
(dp4514
g1396
I00
sg1397
g822
sg72
g4499
sg1398
I00
sg1399
I00
sg85
I547
sb(dp4515
g1398
I00
sg1397
g822
sssg290
g291
sg292
g291
sg293
(dp4516
g4509
(dp4517
g4513
(dp4518
g1397
g741
sssg4513
(dp4519
ssg486
g4516
sg100
(dp4520
sg488
g291
sg489
g4516
sg490
(dp4521
g4509
(dp4522
sg4513
(dp4523
g4509
g4518
sssbsg583
(lp4524
g4509
ag4513
asg860
(lp4525
(iconstruction
TP_REL
p4526
(dp4527
g866
g4513
sg1397
g741
sg85
I548
sg867
g4509
sg72
VIS_548
p4528
sbasg85
I543
sg72
g1304
sbsg1413
(iconstruction
TP_SYNFORM
p4529
(dp4530
g85
I544
sg1416
(lp4531
(iconstruction
TP_PHON
p4532
(dp4533
g1426
I9
sg1423
I0
sg85
I549
sg1427
Vpoliceman
p4534
sg72
g4500
sbasg72
g1304
sbsg1434
I1
sba(iconstruction
CXN
p4535
(dp4536
g1374
(iconstruction
TP_SYMLINKS
p4537
(dp4538
g1377
(dp4539
VN1_554
p4540
VS1_556
p4541
ssg85
I552
sg72
g1304
sbsg1383
VN
p4542
sg1385
I1
sg72
VHUNTER
p4543
sg1387
(iconstruction
TP_SEMFRAME
p4544
(dp4545
g100
g0
(g101
g2
Ntp4546
Rp4547
(dp4548
g105
(dp4549
(iconstruction
TP_NODE
p4550
(dp4551
g1396
I00
sg1397
g825
sg72
g4540
sg1398
I00
sg1399
I00
sg85
I554
sb(dp4552
g1398
I00
sg1397
g825
ss(iconstruction
TP_NODE
p4553
(dp4554
g1396
I01
sg1397
g750
sg72
VENT_553
p4555
sg1398
I01
sg1399
I00
sg85
I553
sb(dp4556
g1398
I01
sg1397
g750
sssg290
g291
sg292
g291
sg293
(dp4557
g4550
(dp4558
sg4553
(dp4559
g4550
(dp4560
g1397
g741
ssssg486
g4557
sg100
(dp4561
sg488
g291
sg489
g4557
sg490
(dp4562
g4550
(dp4563
g4553
g4560
ssg4553
(dp4564
ssbsg583
(lp4565
g4553
ag4550
asg860
(lp4566
(iconstruction
TP_REL
p4567
(dp4568
g866
g4550
sg1397
g741
sg85
I555
sg867
g4553
sg72
VIS_555
p4569
sbasg85
I550
sg72
g1304
sbsg1413
(iconstruction
TP_SYNFORM
p4570
(dp4571
g85
I551
sg1416
(lp4572
(iconstruction
TP_PHON
p4573
(dp4574
g1426
I6
sg1423
I0
sg85
I556
sg1427
Vhunter
p4575
sg72
g4541
sbasg72
g1304
sbsg1434
I1
sba(iconstruction
CXN
p4576
(dp4577
g1374
(iconstruction
TP_SYMLINKS
p4578
(dp4579
g1377
(dp4580
VN1_561
p4581
VS1_563
p4582
ssg85
I559
sg72
g1304
sbsg1383
VN
p4583
sg1385
I1
sg72
VDOG
p4584
sg1387
(iconstruction
TP_SEMFRAME
p4585
(dp4586
g100
g0
(g101
g2
Ntp4587
Rp4588
(dp4589
g105
(dp4590
(iconstruction
TP_NODE
p4591
(dp4592
g1396
I01
sg1397
g750
sg72
VENT_560
p4593
sg1398
I01
sg1399
I00
sg85
I560
sb(dp4594
g1398
I01
sg1397
g750
ss(iconstruction
TP_NODE
p4595
(dp4596
g1396
I00
sg1397
g810
sg72
g4581
sg1398
I00
sg1399
I00
sg85
I561
sb(dp4597
g1398
I00
sg1397
g810
sssg290
g291
sg292
g291
sg293
(dp4598
g4591
(dp4599
g4595
(dp4600
g1397
g741
sssg4595
(dp4601
ssg486
g4598
sg100
(dp4602
sg488
g291
sg489
g4598
sg490
(dp4603
g4591
(dp4604
sg4595
(dp4605
g4591
g4600
sssbsg583
(lp4606
g4591
ag4595
asg860
(lp4607
(iconstruction
TP_REL
p4608
(dp4609
g866
g4595
sg1397
g741
sg85
I562
sg867
g4591
sg72
VIS_562
p4610
sbasg85
I557
sg72
g1304
sbsg1413
(iconstruction
TP_SYNFORM
p4611
(dp4612
g85
I558
sg1416
(lp4613
(iconstruction
TP_PHON
p4614
(dp4615
g1426
I3
sg1423
I0
sg85
I563
sg1427
Vdog
p4616
sg72
g4582
sbasg72
g1304
sbsg1434
I1
sba(iconstruction
CXN
p4617
(dp4618
g1374
(iconstruction
TP_SYMLINKS
p4619
(dp4620
g1377
(dp4621
VN1_568
p4622
VS1_570
p4623
ssg85
I566
sg72
g1304
sbsg1383
VN
p4624
sg1385
I1
sg72
VHOOK
p4625
sg1387
(iconstruction
TP_SEMFRAME
p4626
(dp4627
g100
g0
(g101
g2
Ntp4628
Rp4629
(dp4630
g105
(dp4631
(iconstruction
TP_NODE
p4632
(dp4633
g1396
I01
sg1397
g750
sg72
VENT_567
p4634
sg1398
I01
sg1399
I00
sg85
I567
sb(dp4635
g1398
I01
sg1397
g750
ss(iconstruction
TP_NODE
p4636
(dp4637
g1396
I00
sg1397
g780
sg72
g4622
sg1398
I00
sg1399
I00
sg85
I568
sb(dp4638
g1398
I00
sg1397
g780
sssg290
g291
sg292
g291
sg293
(dp4639
g4632
(dp4640
g4636
(dp4641
g1397
g741
sssg4636
(dp4642
ssg486
g4639
sg100
(dp4643
sg488
g291
sg489
g4639
sg490
(dp4644
g4632
(dp4645
sg4636
(dp4646
g4632
g4641
sssbsg583
(lp4647
g4632
ag4636
asg860
(lp4648
(iconstruction
TP_REL
p4649
(dp4650
g866
g4636
sg1397
g741
sg85
I569
sg867
g4632
sg72
VIS_569
p4651
sbasg85
I564
sg72
g1304
sbsg1413
(iconstruction
TP_SYNFORM
p4652
(dp4653
g85
I565
sg1416
(lp4654
(iconstruction
TP_PHON
p4655
(dp4656
g1426
I4
sg1423
I0
sg85
I570
sg1427
Vhook
p4657
sg72
g4623
sbasg72
g1304
sbsg1434
I1
sba(iconstruction
CXN
p4658
(dp4659
g1374
(iconstruction
TP_SYMLINKS
p4660
(dp4661
g1377
(dp4662
VN1_575
p4663
VS1_577
p4664
ssg85
I573
sg72
g1304
sbsg1383
VN
p4665
sg1385
I1
sg72
VBOOKSHELF
p4666
sg1387
(iconstruction
TP_SEMFRAME
p4667
(dp4668
g100
g0
(g101
g2
Ntp4669
Rp4670
(dp4671
g105
(dp4672
(iconstruction
TP_NODE
p4673
(dp4674
g1396
I00
sg1397
g786
sg72
g4663
sg1398
I00
sg1399
I00
sg85
I575
sb(dp4675
g1398
I00
sg1397
g786
ss(iconstruction
TP_NODE
p4676
(dp4677
g1396
I01
sg1397
g750
sg72
VENT_574
p4678
sg1398
I01
sg1399
I00
sg85
I574
sb(dp4679
g1398
I01
sg1397
g750
sssg290
g291
sg292
g291
sg293
(dp4680
g4673
(dp4681
sg4676
(dp4682
g4673
(dp4683
g1397
g741
ssssg486
g4680
sg100
(dp4684
sg488
g291
sg489
g4680
sg490
(dp4685
g4673
(dp4686
g4676
g4683
ssg4676
(dp4687
ssbsg583
(lp4688
g4676
ag4673
asg860
(lp4689
(iconstruction
TP_REL
p4690
(dp4691
g866
g4673
sg1397
g741
sg85
I576
sg867
g4676
sg72
VIS_576
p4692
sbasg85
I571
sg72
g1304
sbsg1413
(iconstruction
TP_SYNFORM
p4693
(dp4694
g85
I572
sg1416
(lp4695
(iconstruction
TP_PHON
p4696
(dp4697
g1426
I9
sg1423
I0
sg85
I577
sg1427
Vbookshelf
p4698
sg72
g4664
sbasg72
g1304
sbsg1434
I1
sba(iconstruction
CXN
p4699
(dp4700
g1374
(iconstruction
TP_SYMLINKS
p4701
(dp4702
g1377
(dp4703
VN1_582
p4704
VS1_584
p4705
ssg85
I580
sg72
g1304
sbsg1383
VN
p4706
sg1385
I1
sg72
VWAGON
p4707
sg1387
(iconstruction
TP_SEMFRAME
p4708
(dp4709
g100
g0
(g101
g2
Ntp4710
Rp4711
(dp4712
g105
(dp4713
(iconstruction
TP_NODE
p4714
(dp4715
g1396
I01
sg1397
g750
sg72
VENT_581
p4716
sg1398
I01
sg1399
I00
sg85
I581
sb(dp4717
g1398
I01
sg1397
g750
ss(iconstruction
TP_NODE
p4718
(dp4719
g1396
I00
sg1397
g768
sg72
g4704
sg1398
I00
sg1399
I00
sg85
I582
sb(dp4720
g1398
I00
sg1397
g768
sssg290
g291
sg292
g291
sg293
(dp4721
g4714
(dp4722
g4718
(dp4723
g1397
g741
sssg4718
(dp4724
ssg486
g4721
sg100
(dp4725
sg488
g291
sg489
g4721
sg490
(dp4726
g4714
(dp4727
sg4718
(dp4728
g4714
g4723
sssbsg583
(lp4729
g4714
ag4718
asg860
(lp4730
(iconstruction
TP_REL
p4731
(dp4732
g866
g4718
sg1397
g741
sg85
I583
sg867
g4714
sg72
VIS_583
p4733
sbasg85
I578
sg72
g1304
sbsg1413
(iconstruction
TP_SYNFORM
p4734
(dp4735
g85
I579
sg1416
(lp4736
(iconstruction
TP_PHON
p4737
(dp4738
g1426
I5
sg1423
I0
sg85
I584
sg1427
Vwagon
p4739
sg72
g4705
sbasg72
g1304
sbsg1434
I1
sba(iconstruction
CXN
p4740
(dp4741
g1374
(iconstruction
TP_SYMLINKS
p4742
(dp4743
g1377
(dp4744
VN1_589
p4745
VS1_591
p4746
ssg85
I587
sg72
g1304
sbsg1383
VN
p4747
sg1385
I1
sg72
VTREE
p4748
sg1387
(iconstruction
TP_SEMFRAME
p4749
(dp4750
g100
g0
(g101
g2
Ntp4751
Rp4752
(dp4753
g105
(dp4754
(iconstruction
TP_NODE
p4755
(dp4756
g1396
I00
sg1397
g777
sg72
g4745
sg1398
I00
sg1399
I00
sg85
I589
sb(dp4757
g1398
I00
sg1397
g777
ss(iconstruction
TP_NODE
p4758
(dp4759
g1396
I01
sg1397
g750
sg72
VENT_588
p4760
sg1398
I01
sg1399
I00
sg85
I588
sb(dp4761
g1398
I01
sg1397
g750
sssg290
g291
sg292
g291
sg293
(dp4762
g4755
(dp4763
sg4758
(dp4764
g4755
(dp4765
g1397
g741
ssssg486
g4762
sg100
(dp4766
sg488
g291
sg489
g4762
sg490
(dp4767
g4755
(dp4768
g4758
g4765
ssg4758
(dp4769
ssbsg583
(lp4770
g4758
ag4755
asg860
(lp4771
(iconstruction
TP_REL
p4772
(dp4773
g866
g4755
sg1397
g741
sg85
I590
sg867
g4758
sg72
VIS_590
p4774
sbasg85
I585
sg72
g1304
sbsg1413
(iconstruction
TP_SYNFORM
p4775
(dp4776
g85
I586
sg1416
(lp4777
(iconstruction
TP_PHON
p4778
(dp4779
g1426
I4
sg1423
I0
sg85
I591
sg1427
Vtree
p4780
sg72
g4746
sbasg72
g1304
sbsg1434
I1
sbasbsg72
g1317
sg74
(lp4781
g1360
ag0
(g76
g2
Ntp4782
Rp4783
(dp4784
g72
S'to_cxn_retrieval_C'
p4785
sg81
Nsg82
Nsg83
g84
sg85
I21
sg86
g1364
sbasg91
(dp4786
g1213
Nsg4785
Nssg93
(lp4787
sg1163
F1.0
sg1164
(lp4788
sg1166
(dp4789
g1168
F0.3
ssg1169
F0.0
sg1170
F0.0
sg1171
g1174
sg85
I4
sS'schemas'
p4790
(lp4791
g0
(clanguage_schemas
CXN_SCHEMA
p4792
g2
Ntp4793
Rp4794
(dp4795
g72
g1386
sS'content'
p4796
g1372
sg1171
Nsg85
I99
sS'LTM'
p4797
g1364
sg1168
F0.3
sbag0
(g4792
g2
Ntp4798
Rp4799
(dp4800
g72
g1445
sg4796
g1435
sg1171
Nsg85
I100
sg4797
g1364
sg1168
F0.3
sbag0
(g4792
g2
Ntp4801
Rp4802
(dp4803
g72
g1496
sg4796
g1486
sg1171
Nsg85
I101
sg4797
g1364
sg1168
F0.3
sbag0
(g4792
g2
Ntp4804
Rp4805
(dp4806
g72
g1549
sg4796
g1537
sg1171
Nsg85
I102
sg4797
g1364
sg1168
F0.3
sbag0
(g4792
g2
Ntp4807
Rp4808
(dp4809
g72
g1628
sg4796
g1616
sg1171
Nsg85
I103
sg4797
g1364
sg1168
F0.3
sbag0
(g4792
g2
Ntp4810
Rp4811
(dp4812
g72
g1703
sg4796
g1691
sg1171
Nsg85
I104
sg4797
g1364
sg1168
F0.3
sbag0
(g4792
g2
Ntp4813
Rp4814
(dp4815
g72
g1792
sg4796
g1778
sg1171
Nsg85
I105
sg4797
g1364
sg1168
F0.3
sbag0
(g4792
g2
Ntp4816
Rp4817
(dp4818
g72
g1883
sg4796
g1869
sg1171
Nsg85
I106
sg4797
g1364
sg1168
F0.3
sbag0
(g4792
g2
Ntp4819
Rp4820
(dp4821
g72
g1974
sg4796
g1964
sg1171
Nsg85
I107
sg4797
g1364
sg1168
F0.3
sbag0
(g4792
g2
Ntp4822
Rp4823
(dp4824
g72
g2036
sg4796
g2026
sg1171
Nsg85
I108
sg4797
g1364
sg1168
F0.3
sbag0
(g4792
g2
Ntp4825
Rp4826
(dp4827
g72
g2095
sg4796
g2085
sg1171
Nsg85
I109
sg4797
g1364
sg1168
F0.3
sbag0
(g4792
g2
Ntp4828
Rp4829
(dp4830
g72
g2147
sg4796
g2137
sg1171
Nsg85
I110
sg4797
g1364
sg1168
F0.3
sbag0
(g4792
g2
Ntp4831
Rp4832
(dp4833
g72
g2194
sg4796
g2184
sg1171
Nsg85
I111
sg4797
g1364
sg1168
F0.3
sbag0
(g4792
g2
Ntp4834
Rp4835
(dp4836
g72
g2243
sg4796
g2231
sg1171
Nsg85
I112
sg4797
g1364
sg1168
F0.3
sbag0
(g4792
g2
Ntp4837
Rp4838
(dp4839
g72
g2323
sg4796
g2313
sg1171
Nsg85
I113
sg4797
g1364
sg1168
F0.3
sbag0
(g4792
g2
Ntp4840
Rp4841
(dp4842
g72
g2391
sg4796
g2379
sg1171
Nsg85
I114
sg4797
g1364
sg1168
F0.3
sbag0
(g4792
g2
Ntp4843
Rp4844
(dp4845
g72
g2485
sg4796
g2473
sg1171
Nsg85
I115
sg4797
g1364
sg1168
F0.3
sbag0
(g4792
g2
Ntp4846
Rp4847
(dp4848
g72
g2567
sg4796
g2555
sg1171
Nsg85
I116
sg4797
g1364
sg1168
F0.3
sbag0
(g4792
g2
Ntp4849
Rp4850
(dp4851
g72
g2659
sg4796
g2649
sg1171
Nsg85
I117
sg4797
g1364
sg1168
F0.3
sbag0
(g4792
g2
Ntp4852
Rp4853
(dp4854
g72
g2724
sg4796
g2714
sg1171
Nsg85
I118
sg4797
g1364
sg1168
F0.3
sbag0
(g4792
g2
Ntp4855
Rp4856
(dp4857
g72
g2803
sg4796
g2795
sg1171
Nsg85
I119
sg4797
g1364
sg1168
F0.3
sbag0
(g4792
g2
Ntp4858
Rp4859
(dp4860
g72
g2844
sg4796
g2836
sg1171
Nsg85
I120
sg4797
g1364
sg1168
F0.3
sbag0
(g4792
g2
Ntp4861
Rp4862
(dp4863
g72
g2885
sg4796
g2877
sg1171
Nsg85
I121
sg4797
g1364
sg1168
F0.3
sbag0
(g4792
g2
Ntp4864
Rp4865
(dp4866
g72
g2926
sg4796
g2918
sg1171
Nsg85
I122
sg4797
g1364
sg1168
F0.3
sbag0
(g4792
g2
Ntp4867
Rp4868
(dp4869
g72
g2967
sg4796
g2959
sg1171
Nsg85
I123
sg4797
g1364
sg1168
F0.3
sbag0
(g4792
g2
Ntp4870
Rp4871
(dp4872
g72
g3008
sg4796
g3000
sg1171
Nsg85
I124
sg4797
g1364
sg1168
F0.3
sbag0
(g4792
g2
Ntp4873
Rp4874
(dp4875
g72
g3049
sg4796
g3041
sg1171
Nsg85
I125
sg4797
g1364
sg1168
F0.3
sbag0
(g4792
g2
Ntp4876
Rp4877
(dp4878
g72
g3094
sg4796
g3086
sg1171
Nsg85
I126
sg4797
g1364
sg1168
F0.3
sbag0
(g4792
g2
Ntp4879
Rp4880
(dp4881
g72
g3139
sg4796
g3131
sg1171
Nsg85
I127
sg4797
g1364
sg1168
F0.3
sbag0
(g4792
g2
Ntp4882
Rp4883
(dp4884
g72
g3180
sg4796
g3172
sg1171
Nsg85
I128
sg4797
g1364
sg1168
F0.3
sbag0
(g4792
g2
Ntp4885
Rp4886
(dp4887
g72
g3221
sg4796
g3213
sg1171
Nsg85
I129
sg4797
g1364
sg1168
F0.3
sbag0
(g4792
g2
Ntp4888
Rp4889
(dp4890
g72
g3262
sg4796
g3254
sg1171
Nsg85
I130
sg4797
g1364
sg1168
F0.3
sbag0
(g4792
g2
Ntp4891
Rp4892
(dp4893
g72
g3303
sg4796
g3295
sg1171
Nsg85
I131
sg4797
g1364
sg1168
F0.3
sbag0
(g4792
g2
Ntp4894
Rp4895
(dp4896
g72
g3344
sg4796
g3336
sg1171
Nsg85
I132
sg4797
g1364
sg1168
F0.3
sbag0
(g4792
g2
Ntp4897
Rp4898
(dp4899
g72
g3385
sg4796
g3377
sg1171
Nsg85
I133
sg4797
g1364
sg1168
F0.3
sbag0
(g4792
g2
Ntp4900
Rp4901
(dp4902
g72
g3416
sg4796
g3408
sg1171
Nsg85
I134
sg4797
g1364
sg1168
F0.3
sbag0
(g4792
g2
Ntp4903
Rp4904
(dp4905
g72
g3447
sg4796
g3439
sg1171
Nsg85
I135
sg4797
g1364
sg1168
F0.3
sbag0
(g4792
g2
Ntp4906
Rp4907
(dp4908
g72
g3478
sg4796
g3470
sg1171
Nsg85
I136
sg4797
g1364
sg1168
F0.3
sbag0
(g4792
g2
Ntp4909
Rp4910
(dp4911
g72
g3509
sg4796
g3501
sg1171
Nsg85
I137
sg4797
g1364
sg1168
F0.3
sbag0
(g4792
g2
Ntp4912
Rp4913
(dp4914
g72
g3540
sg4796
g3532
sg1171
Nsg85
I138
sg4797
g1364
sg1168
F0.3
sbag0
(g4792
g2
Ntp4915
Rp4916
(dp4917
g72
g3571
sg4796
g3563
sg1171
Nsg85
I139
sg4797
g1364
sg1168
F0.3
sbag0
(g4792
g2
Ntp4918
Rp4919
(dp4920
g72
g3602
sg4796
g3594
sg1171
Nsg85
I140
sg4797
g1364
sg1168
F0.3
sbag0
(g4792
g2
Ntp4921
Rp4922
(dp4923
g72
g3633
sg4796
g3625
sg1171
Nsg85
I141
sg4797
g1364
sg1168
F0.3
sbag0
(g4792
g2
Ntp4924
Rp4925
(dp4926
g72
g3674
sg4796
g3666
sg1171
Nsg85
I142
sg4797
g1364
sg1168
F0.3
sbag0
(g4792
g2
Ntp4927
Rp4928
(dp4929
g72
g3715
sg4796
g3707
sg1171
Nsg85
I143
sg4797
g1364
sg1168
F0.3
sbag0
(g4792
g2
Ntp4930
Rp4931
(dp4932
g72
g3756
sg4796
g3748
sg1171
Nsg85
I144
sg4797
g1364
sg1168
F0.3
sbag0
(g4792
g2
Ntp4933
Rp4934
(dp4935
g72
g3797
sg4796
g3789
sg1171
Nsg85
I145
sg4797
g1364
sg1168
F0.3
sbag0
(g4792
g2
Ntp4936
Rp4937
(dp4938
g72
g3838
sg4796
g3830
sg1171
Nsg85
I146
sg4797
g1364
sg1168
F0.3
sbag0
(g4792
g2
Ntp4939
Rp4940
(dp4941
g72
g3879
sg4796
g3871
sg1171
Nsg85
I147
sg4797
g1364
sg1168
F0.3
sbag0
(g4792
g2
Ntp4942
Rp4943
(dp4944
g72
g3920
sg4796
g3912
sg1171
Nsg85
I148
sg4797
g1364
sg1168
F0.3
sbag0
(g4792
g2
Ntp4945
Rp4946
(dp4947
g72
g3961
sg4796
g3953
sg1171
Nsg85
I149
sg4797
g1364
sg1168
F0.3
sbag0
(g4792
g2
Ntp4948
Rp4949
(dp4950
g72
g4002
sg4796
g3994
sg1171
Nsg85
I150
sg4797
g1364
sg1168
F0.3
sbag0
(g4792
g2
Ntp4951
Rp4952
(dp4953
g72
g4043
sg4796
g4035
sg1171
Nsg85
I151
sg4797
g1364
sg1168
F0.3
sbag0
(g4792
g2
Ntp4954
Rp4955
(dp4956
g72
g4088
sg4796
g4080
sg1171
Nsg85
I152
sg4797
g1364
sg1168
F0.3
sbag0
(g4792
g2
Ntp4957
Rp4958
(dp4959
g72
g4129
sg4796
g4121
sg1171
Nsg85
I153
sg4797
g1364
sg1168
F0.3
sbag0
(g4792
g2
Ntp4960
Rp4961
(dp4962
g72
g4170
sg4796
g4162
sg1171
Nsg85
I154
sg4797
g1364
sg1168
F0.3
sbag0
(g4792
g2
Ntp4963
Rp4964
(dp4965
g72
g4211
sg4796
g4203
sg1171
Nsg85
I155
sg4797
g1364
sg1168
F0.3
sbag0
(g4792
g2
Ntp4966
Rp4967
(dp4968
g72
g4252
sg4796
g4244
sg1171
Nsg85
I156
sg4797
g1364
sg1168
F0.3
sbag0
(g4792
g2
Ntp4969
Rp4970
(dp4971
g72
g4293
sg4796
g4285
sg1171
Nsg85
I157
sg4797
g1364
sg1168
F0.3
sbag0
(g4792
g2
Ntp4972
Rp4973
(dp4974
g72
g4338
sg4796
g4330
sg1171
Nsg85
I158
sg4797
g1364
sg1168
F0.3
sbag0
(g4792
g2
Ntp4975
Rp4976
(dp4977
g72
g4379
sg4796
g4371
sg1171
Nsg85
I159
sg4797
g1364
sg1168
F0.3
sbag0
(g4792
g2
Ntp4978
Rp4979
(dp4980
g72
g4420
sg4796
g4412
sg1171
Nsg85
I160
sg4797
g1364
sg1168
F0.3
sbag0
(g4792
g2
Ntp4981
Rp4982
(dp4983
g72
g4461
sg4796
g4453
sg1171
Nsg85
I161
sg4797
g1364
sg1168
F0.3
sbag0
(g4792
g2
Ntp4984
Rp4985
(dp4986
g72
g4502
sg4796
g4494
sg1171
Nsg85
I162
sg4797
g1364
sg1168
F0.3
sbag0
(g4792
g2
Ntp4987
Rp4988
(dp4989
g72
g4543
sg4796
g4535
sg1171
Nsg85
I163
sg4797
g1364
sg1168
F0.3
sbag0
(g4792
g2
Ntp4990
Rp4991
(dp4992
g72
g4584
sg4796
g4576
sg1171
Nsg85
I164
sg4797
g1364
sg1168
F0.3
sbag0
(g4792
g2
Ntp4993
Rp4994
(dp4995
g72
g4625
sg4796
g4617
sg1171
Nsg85
I165
sg4797
g1364
sg1168
F0.3
sbag0
(g4792
g2
Ntp4996
Rp4997
(dp4998
g72
g4666
sg4796
g4658
sg1171
Nsg85
I166
sg4797
g1364
sg1168
F0.3
sbag0
(g4792
g2
Ntp4999
Rp5000
(dp5001
g72
g4707
sg4796
g4699
sg1171
Nsg85
I167
sg4797
g1364
sg1168
F0.3
sbag0
(g4792
g2
Ntp5002
Rp5003
(dp5004
g72
g4748
sg4796
g4740
sg1171
Nsg85
I168
sg4797
g1364
sg1168
F0.3
sbasbsbsg1171
g1174
sg85
I2
sbag0
(g1326
g2
Ntp5005
Rp5006
(dp5007
g1330
I0
sg72
g1304
sg1331
I0
sg1332
g0
(g76
g2
Ntp5008
Rp5009
(dp5010
g72
S'from_cxn_retrieval_P'
p5011
sg81
Nsg82
Nsg83
g1190
sg85
I14
sg86
g0
(clanguage_schemas
GRAMMATICAL_WM_P
p5012
g2
Ntp5013
Rp5014
(dp5015
g70
(dp5016
g5011
NsS'from_phonological_WM_P'
p5017
Nsg1336
Nsg1198
Nssg1200
(lp5018
sg72
g1313
sg1203
(lp5019
sg74
(lp5020
g0
(g76
g2
Ntp5021
Rp5022
(dp5023
g72
g90
sg81
Nsg82
Nsg83
g84
sg85
I17
sg86
g5014
sbag0
(g76
g2
Ntp5024
Rp5025
(dp5026
g72
S'to_phonological_WM_P'
p5027
sg81
Nsg82
Nsg83
g84
sg85
I18
sg86
g5014
sbag0
(g76
g2
Ntp5028
Rp5029
(dp5030
g72
g1225
sg81
Nsg82
Nsg83
g84
sg85
I19
sg86
g5014
sbasg91
(dp5031
g1225
Nsg5027
Nsg90
NssS'time_to_next_prod'
p5032
I0
sg1163
F1.0
sg1227
(lp5033
sg1164
(lp5034
g0
(g76
g2
Ntp5035
Rp5036
(dp5037
g72
g1336
sg81
Nsg82
Nsg83
g1190
sg85
I13
sg86
g5014
sbag5009
ag0
(g76
g2
Ntp5038
Rp5039
(dp5040
g72
g1198
sg81
Nsg82
Nsg83
g1190
sg85
I15
sg86
g5014
sbag0
(g76
g2
Ntp5041
Rp5042
(dp5043
g72
g5017
sg81
Nsg82
Nsg83
g1190
sg85
I16
sg86
g5014
sbasS'refractory_period'
p5044
I10
sg1242
(dp5045
g1244
(dp5046
sg1246
(dp5047
g1248
(lp5048
sg1250
(dp5049
g1252
(lp5050
sg1254
(lp5051
sg1256
(lp5052
ssg1258
(lp5053
sg1169
(lp5054
sg1261
(lp5055
sssg1166
(dp5056
g1264
(dp5057
g1270
F1.0
sg1271
F1.0
sS'sub_threshold_r'
p5058
F0.8
sg1273
F0.0
sS'deact_weight'
p5059
F0.0
sg1272
F0.3
sg1274
F0.01
sg5044
I10
sg1266
F1.0
sg1267
Nsg1268
F-10.0
sg1269
F1.0
ssg1275
(dp5060
g1277
F100.0
sg1278
F10.0
sg1279
F0.001
sg1280
F0.0
sg1281
F0.1
sg1282
F1.0
sg1283
F1.0
ssS'style'
p5061
(dp5062
S'continuity'
p5063
I0
sS'form_length'
p5064
I0
sS'activation'
p5065
F1.0
sS'sem_length'
p5066
I0
sssg1169
F0.0
sg1170
F0.0
sg1171
g1174
sg85
I3
sbsbsg1355
g1345
sg1171
g1174
sg85
I3
sbag0
(g1326
g2
Ntp5067
Rp5068
(dp5069
g1330
I0
sg72
g1304
sg1331
I0
sg1332
g5036
sg1355
g1207
sg1171
g1174
sg85
I4
sbag0
(g1326
g2
Ntp5070
Rp5071
(dp5072
g1330
I0
sg72
g1304
sg1331
I0
sg1332
g1237
sg1355
g5022
sg1171
g1174
sg85
I5
sbag0
(g1326
g2
Ntp5073
Rp5074
(dp5075
g1330
I0
sg72
g1304
sg1331
I0
sg1332
g0
(g76
g2
Ntp5076
Rp5077
(dp5078
g72
g1196
sg81
Nsg82
Nsg83
g1190
sg85
I25
sg86
g0
(clanguage_schemas
PHON_WM_P
p5079
g2
Ntp5080
Rp5081
(dp5082
g70
(dp5083
g1196
Nssg1200
(lp5084
sg72
g1309
sg1203
(lp5085
sg74
(lp5086
g0
(g76
g2
Ntp5087
Rp5088
(dp5089
g72
S'to_utter'
p5090
sg81
Nsg82
Nsg83
g84
sg85
I26
sg86
g5081
sbag0
(g76
g2
Ntp5091
Rp5092
(dp5093
g72
g1209
sg81
Nsg82
Nsg83
g84
sg85
I27
sg86
g5081
sbag0
(g76
g2
Ntp5094
Rp5095
(dp5096
g72
g1217
sg81
Nsg82
Nsg83
g84
sg85
I28
sg86
g5081
sbag0
(g76
g2
Ntp5097
Rp5098
(dp5099
g72
g1225
sg81
Nsg82
Nsg83
g84
sg85
I29
sg86
g5081
sbasg91
(dp5100
g1225
Nsg1209
Nsg5090
Nsg1217
NssS'needs_filler'
p5101
I00
sg1163
F1.0
sg1227
(lp5102
sg1164
(lp5103
g5077
asS'filler'
p5104
S'....'
p5105
sg1242
(dp5106
g1244
(dp5107
sg1246
(dp5108
g1248
(lp5109
sg1250
(dp5110
g1252
(lp5111
sg1254
(lp5112
sg1256
(lp5113
ssg1258
(lp5114
sg1169
(lp5115
sg1261
(lp5116
sssg1166
(dp5117
g1264
(dp5118
g1266
F1.0
sg1267
Nsg1268
F0.0
sg1269
F1.0
sg1270
F1.0
sg1271
F0.0
sg1272
F0.0
sg1273
F0.0
sg1274
F0.01
ssg1275
(dp5119
g1277
F100.0
sg1278
F10.0
sg1279
F0.001
sg1280
F0.0
sg1281
F1.0
sg1282
F1.0
sg1283
F1.0
sssg1169
F0.0
sg1170
F0.0
sg1171
g1174
sS'phon_sequence'
p5120
(lp5121
sg85
I6
sbsbsg1355
g5025
sg1171
g1174
sg85
I6
sbag0
(g1326
g2
Ntp5122
Rp5123
(dp5124
g1330
I0
sg72
g1304
sg1331
I0
sg1332
g5042
sg1355
g5092
sg1171
g1174
sg85
I7
sbag0
(g1326
g2
Ntp5125
Rp5126
(dp5127
g1330
I0
sg72
g1304
sg1331
I0
sg1332
g0
(g76
g2
Ntp5128
Rp5129
(dp5130
g72
g1336
sg81
Nsg82
Nsg83
g1190
sg85
I32
sg86
g0
(clanguage_schemas
CONTROL
p5131
g2
Ntp5132
Rp5133
(dp5134
g70
(dp5135
g5017
Nsg1336
Nssg72
g1299
sg74
(lp5136
g0
(g76
g2
Ntp5137
Rp5138
(dp5139
g72
g90
sg81
Nsg82
Nsg83
g84
sg85
I34
sg86
g5133
sbag0
(g76
g2
Ntp5140
Rp5141
(dp5142
g72
g1209
sg81
Nsg82
Nsg83
g84
sg85
I35
sg86
g5133
sbag0
(g76
g2
Ntp5143
Rp5144
(dp5145
g72
S'to_grammatical_WM_C'
p5146
sg81
Nsg82
Nsg83
g84
sg85
I36
sg86
g5133
sbasg91
(dp5147
g1209
Nsg5146
Nsg90
Nssg1163
F1.0
sg1164
(lp5148
g5129
ag0
(g76
g2
Ntp5149
Rp5150
(dp5151
g72
g5017
sg81
Nsg82
Nsg83
g1190
sg85
I33
sg86
g5133
sbasS'state'
p5152
(dp5153
S'produce'
p5154
I00
sS'unexpressed_sem'
p5155
I00
sS'mode'
p5156
g5154
sS'last_prod_time'
p5157
I0
ssg1166
(dp5158
g5061
(dp5159
g5063
F0.3
sg5064
F0.0
sg5065
F0.7
sg5066
F0.0
ssS'task'
p5160
(dp5161
S'time_pressure'
p5162
F200.0
sS'start_produce'
p5163
F400.0
sssg1169
F0.0
sg1170
F0.0
sg1171
g1174
sg85
I8
sbsbsg1355
g1215
sg1171
g1174
sg85
I8
sbag0
(g1326
g2
Ntp5164
Rp5165
(dp5166
g1330
I0
sg72
g1304
sg1331
I0
sg1332
g0
(g76
g2
Ntp5167
Rp5168
(dp5169
g72
g5017
sg81
Nsg82
Nsg83
g1190
sg85
I30
sg86
g0
(clanguage_schemas
UTTER
p5170
g2
Ntp5171
Rp5172
(dp5173
g70
(dp5174
g5017
Nssg72
g1302
sg74
(lp5175
g0
(g76
g2
Ntp5176
Rp5177
(dp5178
g72
g1225
sg81
Nsg82
Nsg83
g84
sg85
I31
sg86
g5172
sbasg91
(dp5179
g1225
NssS'utterance_stack'
p5180
(lp5181
sg1163
F1.0
sg1164
(lp5182
g5168
asg1166
(dp5183
S'speech_rate'
p5184
F1.0
ssg1169
F0.0
sg1170
F0.0
sg1171
g1174
sg85
I7
sbsbsg1355
g5088
sg1171
g1174
sg85
I9
sbag0
(g1326
g2
Ntp5185
Rp5186
(dp5187
g1330
I0
sg72
g1304
sg1331
I0
sg1332
g5150
sg1355
g5095
sg1171
g1174
sg85
I10
sbag0
(g1326
g2
Ntp5188
Rp5189
(dp5190
g1330
I0
sg72
g1304
sg1331
I0
sg1332
g5039
sg1355
g5141
sg1171
g1174
sg85
I11
sbag0
(g1326
g2
Ntp5191
Rp5192
(dp5193
g1330
I0
sg72
g1304
sg1331
I0
sg1332
g1240
sg1355
g5138
sg1171
g1174
sg85
I12
sbasg1166
(dp5194
g1299
g5158
sg1309
g5117
sg73
g1167
sg1317
g4789
sg1321
g1354
sg1202
g1263
sg1302
g5183
sg1313
g5056
ssg1169
F0.0
sS'set_up_time'
p5195
I10
sS'input'
p5196
NsS'default_params'
p5197
Nsg1163
F1.0
sS'output_ports'
p5198
(lp5199
g5177
ag5098
ag5029
ag1223
asg4790
(dp5200
g1299
g5133
sg1309
g5081
sg73
g68
sg1321
g1339
sg1313
g5014
sg1202
g1193
sg1302
g5172
sg1317
g1364
ssbsg85
I2
sg4790
(lp5201
g0
(clanguage_schemas
CPT_EVENT_SCHEMA
p5202
g2
Ntp5203
Rp5204
(dp5205
g72
g109
sg4796
(dp5206
g1397
g587
ssg1171
Nsg85
I9
sg4797
g68
sg1168
F1.0
sbag0
(clanguage_schemas
CPT_ACTION_SCHEMA
p5207
g2
Ntp5208
Rp5209
(dp5210
g72
g113
sg4796
(dp5211
g1397
g594
ssg1171
Nsg85
I10
sg4797
g68
sg1168
F1.0
sbag0
(g5207
g2
Ntp5212
Rp5213
(dp5214
g72
g115
sg4796
(dp5215
g1397
g597
ssg1171
Nsg85
I11
sg4797
g68
sg1168
F1.0
sbag0
(g5207
g2
Ntp5216
Rp5217
(dp5218
g72
g117
sg4796
(dp5219
g1397
g600
ssg1171
Nsg85
I12
sg4797
g68
sg1168
F1.0
sbag0
(g5207
g2
Ntp5220
Rp5221
(dp5222
g72
g119
sg4796
(dp5223
g1397
g603
ssg1171
Nsg85
I13
sg4797
g68
sg1168
F1.0
sbag0
(g5207
g2
Ntp5224
Rp5225
(dp5226
g72
g121
sg4796
(dp5227
g1397
g606
ssg1171
Nsg85
I14
sg4797
g68
sg1168
F1.0
sbag0
(g5207
g2
Ntp5228
Rp5229
(dp5230
g72
g123
sg4796
(dp5231
g1397
g609
ssg1171
Nsg85
I15
sg4797
g68
sg1168
F1.0
sbag0
(g5207
g2
Ntp5232
Rp5233
(dp5234
g72
g125
sg4796
(dp5235
g1397
g612
ssg1171
Nsg85
I16
sg4797
g68
sg1168
F1.0
sbag0
(g5207
g2
Ntp5236
Rp5237
(dp5238
g72
g127
sg4796
(dp5239
g1397
g615
ssg1171
Nsg85
I17
sg4797
g68
sg1168
F1.0
sbag0
(g5207
g2
Ntp5240
Rp5241
(dp5242
g72
g129
sg4796
(dp5243
g1397
g618
ssg1171
Nsg85
I18
sg4797
g68
sg1168
F1.0
sbag0
(g5207
g2
Ntp5244
Rp5245
(dp5246
g72
g131
sg4796
(dp5247
g1397
g621
ssg1171
Nsg85
I19
sg4797
g68
sg1168
F1.0
sbag0
(g5207
g2
Ntp5248
Rp5249
(dp5250
g72
g133
sg4796
(dp5251
g1397
g624
ssg1171
Nsg85
I20
sg4797
g68
sg1168
F1.0
sbag0
(g5207
g2
Ntp5252
Rp5253
(dp5254
g72
g135
sg4796
(dp5255
g1397
g627
ssg1171
Nsg85
I21
sg4797
g68
sg1168
F1.0
sbag0
(g5207
g2
Ntp5256
Rp5257
(dp5258
g72
g137
sg4796
(dp5259
g1397
g630
ssg1171
Nsg85
I22
sg4797
g68
sg1168
F1.0
sbag0
(g5207
g2
Ntp5260
Rp5261
(dp5262
g72
g139
sg4796
(dp5263
g1397
g633
ssg1171
Nsg85
I23
sg4797
g68
sg1168
F1.0
sbag0
(g5207
g2
Ntp5264
Rp5265
(dp5266
g72
g141
sg4796
(dp5267
g1397
g636
ssg1171
Nsg85
I24
sg4797
g68
sg1168
F1.0
sbag0
(g5207
g2
Ntp5268
Rp5269
(dp5270
g72
g143
sg4796
(dp5271
g1397
g639
ssg1171
Nsg85
I25
sg4797
g68
sg1168
F1.0
sbag0
(g5207
g2
Ntp5272
Rp5273
(dp5274
g72
g145
sg4796
(dp5275
g1397
g642
ssg1171
Nsg85
I26
sg4797
g68
sg1168
F1.0
sbag0
(g5207
g2
Ntp5276
Rp5277
(dp5278
g72
g147
sg4796
(dp5279
g1397
g645
ssg1171
Nsg85
I27
sg4797
g68
sg1168
F1.0
sbag0
(g5207
g2
Ntp5280
Rp5281
(dp5282
g72
g149
sg4796
(dp5283
g1397
g648
ssg1171
Nsg85
I28
sg4797
g68
sg1168
F1.0
sbag0
(clanguage_schemas
CPT_PROPERTY_SCHEMA
p5284
g2
Ntp5285
Rp5286
(dp5287
g72
g151
sg4796
(dp5288
g1397
g651
ssg1171
Nsg85
I29
sg4797
g68
sg1168
F1.0
sbag0
(g5284
g2
Ntp5289
Rp5290
(dp5291
g72
g153
sg4796
(dp5292
g1397
g654
ssg1171
Nsg85
I30
sg4797
g68
sg1168
F1.0
sbag0
(g5284
g2
Ntp5293
Rp5294
(dp5295
g72
g155
sg4796
(dp5296
g1397
g657
ssg1171
Nsg85
I31
sg4797
g68
sg1168
F1.0
sbag0
(g5284
g2
Ntp5297
Rp5298
(dp5299
g72
g157
sg4796
(dp5300
g1397
g660
ssg1171
Nsg85
I32
sg4797
g68
sg1168
F1.0
sbag0
(g5284
g2
Ntp5301
Rp5302
(dp5303
g72
g159
sg4796
(dp5304
g1397
g663
ssg1171
Nsg85
I33
sg4797
g68
sg1168
F1.0
sbag0
(g5284
g2
Ntp5305
Rp5306
(dp5307
g72
g161
sg4796
(dp5308
g1397
g666
ssg1171
Nsg85
I34
sg4797
g68
sg1168
F1.0
sbag0
(g5284
g2
Ntp5309
Rp5310
(dp5311
g72
g163
sg4796
(dp5312
g1397
g669
ssg1171
Nsg85
I35
sg4797
g68
sg1168
F1.0
sbag0
(g5284
g2
Ntp5313
Rp5314
(dp5315
g72
g165
sg4796
(dp5316
g1397
g672
ssg1171
Nsg85
I36
sg4797
g68
sg1168
F1.0
sbag0
(g5284
g2
Ntp5317
Rp5318
(dp5319
g72
g167
sg4796
(dp5320
g1397
g675
ssg1171
Nsg85
I37
sg4797
g68
sg1168
F1.0
sbag0
(g5284
g2
Ntp5321
Rp5322
(dp5323
g72
g169
sg4796
(dp5324
g1397
g678
ssg1171
Nsg85
I38
sg4797
g68
sg1168
F1.0
sbag0
(g5284
g2
Ntp5325
Rp5326
(dp5327
g72
g171
sg4796
(dp5328
g1397
g681
ssg1171
Nsg85
I39
sg4797
g68
sg1168
F1.0
sbag0
(g5284
g2
Ntp5329
Rp5330
(dp5331
g72
g173
sg4796
(dp5332
g1397
g684
ssg1171
Nsg85
I40
sg4797
g68
sg1168
F1.0
sbag0
(g5284
g2
Ntp5333
Rp5334
(dp5335
g72
g175
sg4796
(dp5336
g1397
g687
ssg1171
Nsg85
I41
sg4797
g68
sg1168
F1.0
sbag0
(g5284
g2
Ntp5337
Rp5338
(dp5339
g72
g177
sg4796
(dp5340
g1397
g690
ssg1171
Nsg85
I42
sg4797
g68
sg1168
F1.0
sbag0
(clanguage_schemas
CPT_RELATION_SCHEMA
p5341
g2
Ntp5342
Rp5343
(dp5344
g72
g179
sg4796
(dp5345
g866
Nsg1397
g693
sg867
Nssg1171
Nsg85
I43
sg4797
g68
sg1168
F1.0
sbag0
(g5341
g2
Ntp5346
Rp5347
(dp5348
g72
g181
sg4796
(dp5349
g866
Nsg1397
g696
sg867
Nssg1171
Nsg85
I44
sg4797
g68
sg1168
F1.0
sbag0
(g5341
g2
Ntp5350
Rp5351
(dp5352
g72
g183
sg4796
(dp5353
g866
Nsg1397
g699
sg867
Nssg1171
Nsg85
I45
sg4797
g68
sg1168
F1.0
sbag0
(g5341
g2
Ntp5354
Rp5355
(dp5356
g72
g185
sg4796
(dp5357
g866
Nsg1397
g702
sg867
Nssg1171
Nsg85
I46
sg4797
g68
sg1168
F1.0
sbag0
(g5341
g2
Ntp5358
Rp5359
(dp5360
g72
g187
sg4796
(dp5361
g866
Nsg1397
g705
sg867
Nssg1171
Nsg85
I47
sg4797
g68
sg1168
F1.0
sbag0
(g5341
g2
Ntp5362
Rp5363
(dp5364
g72
g189
sg4796
(dp5365
g866
Nsg1397
g708
sg867
Nssg1171
Nsg85
I48
sg4797
g68
sg1168
F1.0
sbag0
(g5341
g2
Ntp5366
Rp5367
(dp5368
g72
g191
sg4796
(dp5369
g866
Nsg1397
g711
sg867
Nssg1171
Nsg85
I49
sg4797
g68
sg1168
F1.0
sbag0
(g5341
g2
Ntp5370
Rp5371
(dp5372
g72
g193
sg4796
(dp5373
g866
Nsg1397
g714
sg867
Nssg1171
Nsg85
I50
sg4797
g68
sg1168
F1.0
sbag0
(g5341
g2
Ntp5374
Rp5375
(dp5376
g72
g195
sg4796
(dp5377
g866
Nsg1397
g717
sg867
Nssg1171
Nsg85
I51
sg4797
g68
sg1168
F1.0
sbag0
(g5341
g2
Ntp5378
Rp5379
(dp5380
g72
g197
sg4796
(dp5381
g866
Nsg1397
g720
sg867
Nssg1171
Nsg85
I52
sg4797
g68
sg1168
F1.0
sbag0
(g5341
g2
Ntp5382
Rp5383
(dp5384
g72
g199
sg4796
(dp5385
g866
Nsg1397
g723
sg867
Nssg1171
Nsg85
I53
sg4797
g68
sg1168
F1.0
sbag0
(g5341
g2
Ntp5386
Rp5387
(dp5388
g72
g201
sg4796
(dp5389
g866
Nsg1397
g726
sg867
Nssg1171
Nsg85
I54
sg4797
g68
sg1168
F1.0
sbag0
(g5341
g2
Ntp5390
Rp5391
(dp5392
g72
g203
sg4796
(dp5393
g866
Nsg1397
g729
sg867
Nssg1171
Nsg85
I55
sg4797
g68
sg1168
F1.0
sbag0
(g5341
g2
Ntp5394
Rp5395
(dp5396
g72
g205
sg4796
(dp5397
g866
Nsg1397
g732
sg867
Nssg1171
Nsg85
I56
sg4797
g68
sg1168
F1.0
sbag0
(g5341
g2
Ntp5398
Rp5399
(dp5400
g72
g207
sg4796
(dp5401
g866
Nsg1397
g735
sg867
Nssg1171
Nsg85
I57
sg4797
g68
sg1168
F1.0
sbag0
(g5341
g2
Ntp5402
Rp5403
(dp5404
g72
g209
sg4796
(dp5405
g866
Nsg1397
g738
sg867
Nssg1171
Nsg85
I58
sg4797
g68
sg1168
F1.0
sbag0
(g5341
g2
Ntp5406
Rp5407
(dp5408
g72
g211
sg4796
(dp5409
g866
Nsg1397
g741
sg867
Nssg1171
Nsg85
I59
sg4797
g68
sg1168
F1.0
sbag0
(g5341
g2
Ntp5410
Rp5411
(dp5412
g72
g213
sg4796
(dp5413
g866
Nsg1397
g744
sg867
Nssg1171
Nsg85
I60
sg4797
g68
sg1168
F1.0
sbag0
(g5202
g2
Ntp5414
Rp5415
(dp5416
g72
g215
sg4796
(dp5417
g1397
g747
ssg1171
Nsg85
I61
sg4797
g68
sg1168
F1.0
sbag0
(clanguage_schemas
CPT_ENTITY_SCHEMA
p5418
g2
Ntp5419
Rp5420
(dp5421
g72
g217
sg4796
(dp5422
g1397
g750
ssg1171
Nsg85
I62
sg4797
g68
sg1168
F1.0
sbag0
(g5418
g2
Ntp5423
Rp5424
(dp5425
g72
g219
sg4796
(dp5426
g1397
g753
ssg1171
Nsg85
I63
sg4797
g68
sg1168
F1.0
sbag0
(g5418
g2
Ntp5427
Rp5428
(dp5429
g72
g221
sg4796
(dp5430
g1397
g756
ssg1171
Nsg85
I64
sg4797
g68
sg1168
F1.0
sbag0
(g5418
g2
Ntp5431
Rp5432
(dp5433
g72
g223
sg4796
(dp5434
g1397
g759
ssg1171
Nsg85
I65
sg4797
g68
sg1168
F1.0
sbag0
(g5418
g2
Ntp5435
Rp5436
(dp5437
g72
g225
sg4796
(dp5438
g1397
g762
ssg1171
Nsg85
I66
sg4797
g68
sg1168
F1.0
sbag0
(g5418
g2
Ntp5439
Rp5440
(dp5441
g72
g227
sg4796
(dp5442
g1397
g765
ssg1171
Nsg85
I67
sg4797
g68
sg1168
F1.0
sbag0
(g5418
g2
Ntp5443
Rp5444
(dp5445
g72
g229
sg4796
(dp5446
g1397
g768
ssg1171
Nsg85
I68
sg4797
g68
sg1168
F1.0
sbag0
(g5418
g2
Ntp5447
Rp5448
(dp5449
g72
g231
sg4796
(dp5450
g1397
g771
ssg1171
Nsg85
I69
sg4797
g68
sg1168
F1.0
sbag0
(g5418
g2
Ntp5451
Rp5452
(dp5453
g72
g233
sg4796
(dp5454
g1397
g774
ssg1171
Nsg85
I70
sg4797
g68
sg1168
F1.0
sbag0
(g5418
g2
Ntp5455
Rp5456
(dp5457
g72
g235
sg4796
(dp5458
g1397
g777
ssg1171
Nsg85
I71
sg4797
g68
sg1168
F1.0
sbag0
(g5418
g2
Ntp5459
Rp5460
(dp5461
g72
g237
sg4796
(dp5462
g1397
g780
ssg1171
Nsg85
I72
sg4797
g68
sg1168
F1.0
sbag0
(g5418
g2
Ntp5463
Rp5464
(dp5465
g72
g239
sg4796
(dp5466
g1397
g783
ssg1171
Nsg85
I73
sg4797
g68
sg1168
F1.0
sbag0
(g5418
g2
Ntp5467
Rp5468
(dp5469
g72
g241
sg4796
(dp5470
g1397
g786
ssg1171
Nsg85
I74
sg4797
g68
sg1168
F1.0
sbag0
(g5418
g2
Ntp5471
Rp5472
(dp5473
g72
g243
sg4796
(dp5474
g1397
g789
ssg1171
Nsg85
I75
sg4797
g68
sg1168
F1.0
sbag0
(g5418
g2
Ntp5475
Rp5476
(dp5477
g72
g245
sg4796
(dp5478
g1397
g792
ssg1171
Nsg85
I76
sg4797
g68
sg1168
F1.0
sbag0
(g5418
g2
Ntp5479
Rp5480
(dp5481
g72
g247
sg4796
(dp5482
g1397
g795
ssg1171
Nsg85
I77
sg4797
g68
sg1168
F1.0
sbag0
(g5418
g2
Ntp5483
Rp5484
(dp5485
g72
g249
sg4796
(dp5486
g1397
g798
ssg1171
Nsg85
I78
sg4797
g68
sg1168
F1.0
sbag0
(g5418
g2
Ntp5487
Rp5488
(dp5489
g72
g251
sg4796
(dp5490
g1397
g801
ssg1171
Nsg85
I79
sg4797
g68
sg1168
F1.0
sbag0
(g5418
g2
Ntp5491
Rp5492
(dp5493
g72
g253
sg4796
(dp5494
g1397
g804
ssg1171
Nsg85
I80
sg4797
g68
sg1168
F1.0
sbag0
(g5418
g2
Ntp5495
Rp5496
(dp5497
g72
g255
sg4796
(dp5498
g1397
g807
ssg1171
Nsg85
I81
sg4797
g68
sg1168
F1.0
sbag0
(g5418
g2
Ntp5499
Rp5500
(dp5501
g72
g257
sg4796
(dp5502
g1397
g810
ssg1171
Nsg85
I82
sg4797
g68
sg1168
F1.0
sbag0
(g5418
g2
Ntp5503
Rp5504
(dp5505
g72
g259
sg4796
(dp5506
g1397
g813
ssg1171
Nsg85
I83
sg4797
g68
sg1168
F1.0
sbag0
(g5418
g2
Ntp5507
Rp5508
(dp5509
g72
g261
sg4796
(dp5510
g1397
g816
ssg1171
Nsg85
I84
sg4797
g68
sg1168
F1.0
sbag0
(g5418
g2
Ntp5511
Rp5512
(dp5513
g72
g263
sg4796
(dp5514
g1397
g819
ssg1171
Nsg85
I85
sg4797
g68
sg1168
F1.0
sbag0
(g5418
g2
Ntp5515
Rp5516
(dp5517
g72
g265
sg4796
(dp5518
g1397
g822
ssg1171
Nsg85
I86
sg4797
g68
sg1168
F1.0
sbag0
(g5418
g2
Ntp5519
Rp5520
(dp5521
g72
g267
sg4796
(dp5522
g1397
g825
ssg1171
Nsg85
I87
sg4797
g68
sg1168
F1.0
sbag0
(g5418
g2
Ntp5523
Rp5524
(dp5525
g72
g269
sg4796
(dp5526
g1397
g828
ssg1171
Nsg85
I88
sg4797
g68
sg1168
F1.0
sbag0
(g5418
g2
Ntp5527
Rp5528
(dp5529
g72
g271
sg4796
(dp5530
g1397
g831
ssg1171
Nsg85
I89
sg4797
g68
sg1168
F1.0
sbag0
(g5418
g2
Ntp5531
Rp5532
(dp5533
g72
g273
sg4796
(dp5534
g1397
g834
ssg1171
Nsg85
I90
sg4797
g68
sg1168
F1.0
sbag0
(g5418
g2
Ntp5535
Rp5536
(dp5537
g72
g275
sg4796
(dp5538
g1397
g837
ssg1171
Nsg85
I91
sg4797
g68
sg1168
F1.0
sbag0
(g5418
g2
Ntp5539
Rp5540
(dp5541
g72
g277
sg4796
(dp5542
g1397
g840
ssg1171
Nsg85
I92
sg4797
g68
sg1168
F1.0
sbag0
(g5418
g2
Ntp5543
Rp5544
(dp5545
g72
g279
sg4796
(dp5546
g1397
g843
ssg1171
Nsg85
I93
sg4797
g68
sg1168
F1.0
sbag0
(g5418
g2
Ntp5547
Rp5548
(dp5549
g72
g281
sg4796
(dp5550
g1397
g846
ssg1171
Nsg85
I94
sg4797
g68
sg1168
F1.0
sbag0
(g5418
g2
Ntp5551
Rp5552
(dp5553
g72
g283
sg4796
(dp5554
g1397
g849
ssg1171
Nsg85
I95
sg4797
g68
sg1168
F1.0
sbag0
(g5418
g2
Ntp5555
Rp5556
(dp5557
g72
g285
sg4796
(dp5558
g1397
g852
ssg1171
Nsg85
I96
sg4797
g68
sg1168
F1.0
sbag0
(g5418
g2
Ntp5559
Rp5560
(dp5561
g72
g287
sg4796
(dp5562
g1397
g855
ssg1171
Nsg85
I97
sg4797
g68
sg1168
F1.0
sbag0
(g5418
g2
Ntp5563
Rp5564
(dp5565
g72
g289
sg4796
(dp5566
g1397
g858
ssg1171
Nsg85
I98
sg4797
g68
sg1168
F1.0
sbasbsbsb.