ccopy_reg
_reconstructor
p0
(clanguage_schemas
SEM_GENERATOR
p1
c__builtin__
object
p2
Ntp3
Rp4
(dp5
S'sem_inputs'
p6
(dp7
S'{}'
p8
(dp9
Vtiming
p10
(lp11
F0.0
aF100.0
aF200.0
asVsem_rate
p12
I1
sVpropositions
p13
(dp14
VMAN_AREA
p15
(lp16
VENTITY(e1,F)
p17
aVMAN(man)
p18
aVIS(is1)
p19
aVis1(e1, man)
p20
asVACTION_AREA
p21
(lp22
VEVENT(evt1,F)
p23
aVACTION(a1,F)
p24
aVIS(is3)
p25
aVis3(evt1,a1)
p26
aVKICK(kick)
p27
aVIS(is4)
p28
aVis4(a1, kick)
p29
aVENTITY(e1,F)
p30
aVENTITY(e2,F)
p31
aVAGENT(agt)
p32
aVPATIENT(pt)
p33
aVagt(a1, e2)
p34
aVpt(a1, e1)
p35
asVGIRL_AREA
p36
(lp37
VENTITY(e2,F)
p38
aVGIRL(girl)
p39
aVIS(is2)
p40
aVis2(e2, girl)
p41
assVcomments
p42
V
p43
sVsequence
p44
(lp45
VGIRL_AREA
p46
aVACTION_AREA
p47
aVMAN_AREA
p48
asssS'is_macro'
p49
I01
sS'ground_truths'
p50
NsS'speed_param'
p51
I100
sS'interpreter'
p52
g0
(clanguage_schemas
ISRF_INTERPRETER
p53
g2
Ntp54
Rp55
(dp56
S'name_table'
p57
(dp58
sS'conceptLTM'
p59
g0
(clanguage_schemas
CONCEPT_LTM
p60
g2
Ntp61
Rp62
(dp63
S'inputs'
p64
(dp65
sS'name'
p66
S'Concept_LTM'
p67
sS'out_ports'
p68
(lp69
g0
(cschema_theory
PORT
p70
g2
Ntp71
Rp72
(dp73
g66
S'to_conceptualizer'
p74
sS'data'
p75
NsS'value'
p76
(lp77
g0
(clanguage_schemas
CPT_EVENT_SCHEMA
p78
g2
Ntp79
Rp80
(dp81
g66
S'?'
p82
sS'content'
p83
(dp84
S'concept'
p85
g0
(cconcept
CONCEPT
p86
g2
Ntp87
Rp88
(dp89
S'meaning'
p90
g82
sS'conceptual_knowledge'
p91
g0
(cconcept
CONCEPTUAL_KNOWLEDGE
p92
g2
Ntp93
Rp94
(dp95
S'graph'
p96
g0
(cnetworkx.classes.digraph
DiGraph
p97
g2
Ntp98
Rp99
(dp100
S'node'
p101
(dp102
I1
(dp103
g90
g82
ssI2
(dp104
g90
S'CONCEPT'
p105
ssI3
(dp106
g90
VACTION
p107
ssI4
(dp108
g90
VSYMMETRIC
p109
ssI5
(dp110
g90
VMEET
p111
ssI6
(dp112
g90
VSHAKE_HANDS
p113
ssI7
(dp114
g90
VINTRANSITIVE
p115
ssI8
(dp116
g90
VLAUGH
p117
ssI9
(dp118
g90
VTRANSITIVE
p119
ssI10
(dp120
g90
VHIT
p121
ssI11
(dp122
g90
VWATCH
p123
ssI12
(dp124
g90
VPUNCH
p125
ssI13
(dp126
g90
VSPLASH
p127
ssI14
(dp128
g90
VTALK
p129
ssI15
(dp130
g90
VKISS
p131
ssI16
(dp132
g90
VSQUIRT
p133
ssI17
(dp134
g90
VKICK
p135
ssI18
(dp136
g90
VWEAR
p137
ssI19
(dp138
g90
VDITRANSITIVE
p139
ssI20
(dp140
g90
VSEND
p141
ssI21
(dp142
g90
VGIVE
p143
ssI22
(dp144
g90
VPROPERTY
p145
ssI23
(dp146
g90
VCOLOR
p147
ssI24
(dp148
g90
VBLUE
p149
ssI25
(dp150
g90
VGREEN
p151
ssI26
(dp152
g90
VWHITE
p153
ssI27
(dp154
g90
VBLACK
p155
ssI28
(dp156
g90
VRED
p157
ssI29
(dp158
g90
VAPPEARANCE
p159
ssI30
(dp160
g90
VYOUNG
p161
ssI31
(dp162
g90
VPRETTY
p163
ssI32
(dp164
g90
VHANDSOME
p165
ssI33
(dp166
g90
VSIZE
p167
ssI34
(dp168
g90
VSMALL
p169
ssI35
(dp170
g90
VBIG
p171
ssI36
(dp172
g90
VRELATION
p173
ssI37
(dp174
g90
VACTION_FRAME
p175
ssI38
(dp176
g90
VMODIFY
p177
ssI39
(dp178
g90
VTHEME
p179
ssI40
(dp180
g90
VRECIPIENT
p181
ssI41
(dp182
g90
VATTR
p183
ssI42
(dp184
g90
VAGT_PT
p185
ssI43
(dp186
g90
VPATIENT
p187
ssI44
(dp188
g90
VAGT+PT
p189
ssI45
(dp190
g90
VAGENT
p191
ssI46
(dp192
g90
VEVENT_FRAME
p193
ssI47
(dp194
g90
VTEMPORAL
p195
ssI48
(dp196
g90
VCONCURRENT
p197
ssI49
(dp198
g90
VSUCCESSIVE
p199
ssI50
(dp200
g90
VSPATIAL
p201
ssI51
(dp202
g90
VIN
p203
ssI52
(dp204
g90
VIS
p205
ssI53
(dp206
g90
VOBJECT_FRAME
p207
ssI54
(dp208
g90
VEVENT
p209
ssI55
(dp210
g90
VENTITY
p211
ssI56
(dp212
g90
VANIMATE
p213
ssI57
(dp214
g90
VANIMAL
p215
ssI58
(dp216
g90
VHUMAN
p217
ssI59
(dp218
g90
VOBJECT
p219
ssI60
(dp220
g90
VITEM
p221
ssI61
(dp222
g90
VWAGON
p223
ssI62
(dp224
g90
VWATERING_CAN
p225
ssI63
(dp226
g90
VBAG
p227
ssI64
(dp228
g90
VTREE
p229
ssI65
(dp230
g90
VHOOK
p231
ssI66
(dp232
g90
VCELLO
p233
ssI67
(dp234
g90
VBOOKSHELF
p235
ssI68
(dp236
g90
VCLOTHING
p237
ssI69
(dp238
g90
VTSHIRT
p239
ssI70
(dp240
g90
VDRESS
p241
ssI71
(dp242
g90
VSHIRT
p243
ssI72
(dp244
g90
VSUIT
p245
ssI73
(dp246
g90
VTURTLE
p247
ssI74
(dp248
g90
VMOUSE
p249
ssI75
(dp250
g90
VDOG
p251
ssI76
(dp252
g90
VBOY
p253
ssI77
(dp254
g90
VWOMAN
p255
ssI78
(dp256
g90
VPEOPLE
p257
ssI79
(dp258
g90
VPOLICEMAN
p259
ssI80
(dp260
g90
VHUNTER
p261
ssI81
(dp262
g90
VBALLERINA
p263
ssI82
(dp264
g90
VCELLIST
p265
ssI83
(dp266
g90
VGIRL
p267
ssI84
(dp268
g90
VFENCER
p269
ssI85
(dp270
g90
VROBBER
p271
ssI86
(dp272
g90
VMAN
p273
ssI87
(dp274
g90
VPLACE
p275
ssI88
(dp276
g90
VBOXINGRING
p277
ssI89
(dp278
g90
VPARK
p279
ssI90
(dp280
g90
VMALE
p281
ssI91
(dp282
g90
VFEMALE
p283
sssS'node_dict_factory'
p284
c__builtin__
dict
p285
sS'edge_attr_dict_factory'
p286
g285
sS'succ'
p287
(dp288
I1
(dp289
sI2
(dp290
sI3
(dp291
I2
(dp292
S'type'
p293
S'is_a'
p294
sssI4
(dp295
I3
(dp296
g293
g294
sssI5
(dp297
I4
(dp298
g293
g294
sssI6
(dp299
I4
(dp300
g293
g294
sssI7
(dp301
I3
(dp302
g293
g294
sssI8
(dp303
I7
(dp304
g293
g294
sssI9
(dp305
I3
(dp306
g293
g294
sssI10
(dp307
I9
(dp308
g293
g294
sssI11
(dp309
I9
(dp310
g293
g294
sssI12
(dp311
I9
(dp312
g293
g294
sssI13
(dp313
I9
(dp314
g293
g294
sssI14
(dp315
I9
(dp316
g293
g294
sssI15
(dp317
I9
(dp318
g293
g294
sssI16
(dp319
I9
(dp320
g293
g294
sssI17
(dp321
I9
(dp322
g293
g294
sssI18
(dp323
I9
(dp324
g293
g294
sssI19
(dp325
I3
(dp326
g293
g294
sssI20
(dp327
I19
(dp328
g293
g294
sssI21
(dp329
I19
(dp330
g293
g294
sssI22
(dp331
I2
(dp332
g293
g294
sssI23
(dp333
I22
(dp334
g293
g294
sssI24
(dp335
I23
(dp336
g293
g294
sssI25
(dp337
I23
(dp338
g293
g294
sssI26
(dp339
I23
(dp340
g293
g294
sssI27
(dp341
I23
(dp342
g293
g294
sssI28
(dp343
I23
(dp344
g293
g294
sssI29
(dp345
I22
(dp346
g293
g294
sssI30
(dp347
I29
(dp348
g293
g294
sssI31
(dp349
I29
(dp350
g293
g294
sssI32
(dp351
I29
(dp352
g293
g294
sssI33
(dp353
I22
(dp354
g293
g294
sssI34
(dp355
I33
(dp356
g293
g294
sssI35
(dp357
I33
(dp358
g293
g294
sssI36
(dp359
I2
(dp360
g293
g294
sssI37
(dp361
I36
(dp362
g293
g294
sssI38
(dp363
I37
(dp364
g293
g294
ssI53
(dp365
g293
g294
sssI39
(dp366
I37
(dp367
g293
g294
sssI40
(dp368
I37
(dp369
g293
g294
sssI41
(dp370
I37
(dp371
g293
g294
ssI53
(dp372
g293
g294
sssI42
(dp373
I37
(dp374
g293
g294
sssI43
(dp375
I42
(dp376
g293
g294
sssI44
(dp377
I43
(dp378
g293
g294
ssI45
(dp379
g293
g294
sssI45
(dp380
I42
(dp381
g293
g294
sssI46
(dp382
I36
(dp383
g293
g294
sssI47
(dp384
I46
(dp385
g293
g294
sssI48
(dp386
I47
(dp387
g293
g294
sssI49
(dp388
I47
(dp389
g293
g294
sssI50
(dp390
I46
(dp391
g293
g294
sssI51
(dp392
I50
(dp393
g293
g294
sssI52
(dp394
I36
(dp395
g293
g294
sssI53
(dp396
I36
(dp397
g293
g294
sssI54
(dp398
I2
(dp399
g293
g294
sssI55
(dp400
I2
(dp401
g293
g294
sssI56
(dp402
I55
(dp403
g293
g294
sssI57
(dp404
I56
(dp405
g293
g294
ssI59
(dp406
g293
g294
sssI58
(dp407
I56
(dp408
g293
g294
ssI59
(dp409
g293
g294
sssI59
(dp410
I55
(dp411
g293
g294
sssI60
(dp412
I59
(dp413
g293
g294
sssI61
(dp414
I60
(dp415
g293
g294
sssI62
(dp416
I60
(dp417
g293
g294
sssI63
(dp418
I60
(dp419
g293
g294
sssI64
(dp420
I60
(dp421
g293
g294
sssI65
(dp422
I60
(dp423
g293
g294
sssI66
(dp424
I60
(dp425
g293
g294
sssI67
(dp426
I60
(dp427
g293
g294
sssI68
(dp428
I60
(dp429
g293
g294
sssI69
(dp430
I68
(dp431
g293
g294
sssI70
(dp432
I68
(dp433
g293
g294
sssI71
(dp434
I68
(dp435
g293
g294
sssI72
(dp436
I68
(dp437
g293
g294
sssI73
(dp438
I57
(dp439
g293
g294
sssI74
(dp440
I57
(dp441
g293
g294
sssI75
(dp442
I57
(dp443
g293
g294
sssI76
(dp444
I58
(dp445
g293
g294
ssI90
(dp446
g293
g294
sssI77
(dp447
I58
(dp448
g293
g294
ssI91
(dp449
g293
g294
sssI78
(dp450
I58
(dp451
g293
g294
sssI79
(dp452
I58
(dp453
g293
g294
sssI80
(dp454
I58
(dp455
g293
g294
sssI81
(dp456
I58
(dp457
g293
g294
ssI91
(dp458
g293
g294
sssI82
(dp459
I58
(dp460
g293
g294
sssI83
(dp461
I58
(dp462
g293
g294
ssI91
(dp463
g293
g294
sssI84
(dp464
I58
(dp465
g293
g294
sssI85
(dp466
I58
(dp467
g293
g294
sssI86
(dp468
I58
(dp469
g293
g294
ssI90
(dp470
g293
g294
sssI87
(dp471
I55
(dp472
g293
g294
sssI88
(dp473
I87
(dp474
g293
g294
sssI89
(dp475
I87
(dp476
g293
g294
sssI90
(dp477
I55
(dp478
g293
g294
sssI91
(dp479
I55
(dp480
g293
g294
ssssS'edge'
p481
g288
sg96
(dp482
sS'adjlist_dict_factory'
p483
g285
sS'adj'
p484
g288
sS'pred'
p485
(dp486
I1
(dp487
sI2
(dp488
I3
g292
sI36
g360
sI54
g399
sI22
g332
sI55
g401
ssI3
(dp489
I9
g306
sI19
g326
sI4
g296
sI7
g302
ssI4
(dp490
I5
g298
sI6
g300
ssI5
(dp491
sI6
(dp492
sI7
(dp493
I8
g304
ssI8
(dp494
sI9
(dp495
I10
g308
sI11
g310
sI12
g312
sI13
g314
sI14
g316
sI15
g318
sI16
g320
sI17
g322
sI18
g324
ssI10
(dp496
sI11
(dp497
sI12
(dp498
sI13
(dp499
sI14
(dp500
sI15
(dp501
sI16
(dp502
sI17
(dp503
sI18
(dp504
sI19
(dp505
I20
g328
sI21
g330
ssI20
(dp506
sI21
(dp507
sI22
(dp508
I33
g354
sI29
g346
sI23
g334
ssI23
(dp509
I24
g336
sI25
g338
sI26
g340
sI27
g342
sI28
g344
ssI24
(dp510
sI25
(dp511
sI26
(dp512
sI27
(dp513
sI28
(dp514
sI29
(dp515
I32
g352
sI30
g348
sI31
g350
ssI30
(dp516
sI31
(dp517
sI32
(dp518
sI33
(dp519
I34
g356
sI35
g358
ssI34
(dp520
sI35
(dp521
sI36
(dp522
I52
g395
sI37
g362
sI46
g383
sI53
g397
ssI37
(dp523
I40
g369
sI41
g371
sI42
g374
sI38
g364
sI39
g367
ssI38
(dp524
sI39
(dp525
sI40
(dp526
sI41
(dp527
sI42
(dp528
I43
g376
sI45
g381
ssI43
(dp529
I44
g378
ssI44
(dp530
sI45
(dp531
I44
g379
ssI46
(dp532
I50
g391
sI47
g385
ssI47
(dp533
I48
g387
sI49
g389
ssI48
(dp534
sI49
(dp535
sI50
(dp536
I51
g393
ssI51
(dp537
sI52
(dp538
sI53
(dp539
I41
g372
sI38
g365
ssI54
(dp540
sI55
(dp541
I56
g403
sI91
g480
sI90
g478
sI59
g411
sI87
g472
ssI56
(dp542
I57
g405
sI58
g408
ssI57
(dp543
I73
g439
sI74
g441
sI75
g443
ssI58
(dp544
I76
g445
sI77
g448
sI78
g451
sI79
g453
sI80
g455
sI81
g457
sI82
g460
sI83
g462
sI84
g465
sI85
g467
sI86
g469
ssI59
(dp545
I57
g406
sI58
g409
sI60
g413
ssI60
(dp546
I64
g421
sI65
g423
sI66
g425
sI67
g427
sI68
g429
sI61
g415
sI62
g417
sI63
g419
ssI61
(dp547
sI62
(dp548
sI63
(dp549
sI64
(dp550
sI65
(dp551
sI66
(dp552
sI67
(dp553
sI68
(dp554
I72
g437
sI69
g431
sI70
g433
sI71
g435
ssI69
(dp555
sI70
(dp556
sI71
(dp557
sI72
(dp558
sI73
(dp559
sI74
(dp560
sI75
(dp561
sI76
(dp562
sI77
(dp563
sI78
(dp564
sI79
(dp565
sI80
(dp566
sI81
(dp567
sI82
(dp568
sI83
(dp569
sI84
(dp570
sI85
(dp571
sI86
(dp572
sI87
(dp573
I88
g474
sI89
g476
ssI88
(dp574
sI89
(dp575
sI90
(dp576
I76
g446
sI86
g470
ssI91
(dp577
I81
g458
sI83
g463
sI77
g449
sssbsS'nodes'
p578
(lp579
g88
ag0
(g86
g2
Ntp580
Rp581
(dp582
g90
g105
sg91
g94
sS'id'
p583
I2
sg66
g105
sbag0
(g86
g2
Ntp584
Rp585
(dp586
g90
g107
sg91
g94
sg583
I3
sg66
g107
sbag0
(g86
g2
Ntp587
Rp588
(dp589
g90
g109
sg91
g94
sg583
I4
sg66
g109
sbag0
(g86
g2
Ntp590
Rp591
(dp592
g90
g111
sg91
g94
sg583
I5
sg66
g111
sbag0
(g86
g2
Ntp593
Rp594
(dp595
g90
g113
sg91
g94
sg583
I6
sg66
g113
sbag0
(g86
g2
Ntp596
Rp597
(dp598
g90
g115
sg91
g94
sg583
I7
sg66
g115
sbag0
(g86
g2
Ntp599
Rp600
(dp601
g90
g117
sg91
g94
sg583
I8
sg66
g117
sbag0
(g86
g2
Ntp602
Rp603
(dp604
g90
g119
sg91
g94
sg583
I9
sg66
g119
sbag0
(g86
g2
Ntp605
Rp606
(dp607
g90
g121
sg91
g94
sg583
I10
sg66
g121
sbag0
(g86
g2
Ntp608
Rp609
(dp610
g90
g123
sg91
g94
sg583
I11
sg66
g123
sbag0
(g86
g2
Ntp611
Rp612
(dp613
g90
g125
sg91
g94
sg583
I12
sg66
g125
sbag0
(g86
g2
Ntp614
Rp615
(dp616
g90
g127
sg91
g94
sg583
I13
sg66
g127
sbag0
(g86
g2
Ntp617
Rp618
(dp619
g90
g129
sg91
g94
sg583
I14
sg66
g129
sbag0
(g86
g2
Ntp620
Rp621
(dp622
g90
g131
sg91
g94
sg583
I15
sg66
g131
sbag0
(g86
g2
Ntp623
Rp624
(dp625
g90
g133
sg91
g94
sg583
I16
sg66
g133
sbag0
(g86
g2
Ntp626
Rp627
(dp628
g90
g135
sg91
g94
sg583
I17
sg66
g135
sbag0
(g86
g2
Ntp629
Rp630
(dp631
g90
g137
sg91
g94
sg583
I18
sg66
g137
sbag0
(g86
g2
Ntp632
Rp633
(dp634
g90
g139
sg91
g94
sg583
I19
sg66
g139
sbag0
(g86
g2
Ntp635
Rp636
(dp637
g90
g141
sg91
g94
sg583
I20
sg66
g141
sbag0
(g86
g2
Ntp638
Rp639
(dp640
g90
g143
sg91
g94
sg583
I21
sg66
g143
sbag0
(g86
g2
Ntp641
Rp642
(dp643
g90
g145
sg91
g94
sg583
I22
sg66
g145
sbag0
(g86
g2
Ntp644
Rp645
(dp646
g90
g147
sg91
g94
sg583
I23
sg66
g147
sbag0
(g86
g2
Ntp647
Rp648
(dp649
g90
g149
sg91
g94
sg583
I24
sg66
g149
sbag0
(g86
g2
Ntp650
Rp651
(dp652
g90
g151
sg91
g94
sg583
I25
sg66
g151
sbag0
(g86
g2
Ntp653
Rp654
(dp655
g90
g153
sg91
g94
sg583
I26
sg66
g153
sbag0
(g86
g2
Ntp656
Rp657
(dp658
g90
g155
sg91
g94
sg583
I27
sg66
g155
sbag0
(g86
g2
Ntp659
Rp660
(dp661
g90
g157
sg91
g94
sg583
I28
sg66
g157
sbag0
(g86
g2
Ntp662
Rp663
(dp664
g90
g159
sg91
g94
sg583
I29
sg66
g159
sbag0
(g86
g2
Ntp665
Rp666
(dp667
g90
g161
sg91
g94
sg583
I30
sg66
g161
sbag0
(g86
g2
Ntp668
Rp669
(dp670
g90
g163
sg91
g94
sg583
I31
sg66
g163
sbag0
(g86
g2
Ntp671
Rp672
(dp673
g90
g165
sg91
g94
sg583
I32
sg66
g165
sbag0
(g86
g2
Ntp674
Rp675
(dp676
g90
g167
sg91
g94
sg583
I33
sg66
g167
sbag0
(g86
g2
Ntp677
Rp678
(dp679
g90
g169
sg91
g94
sg583
I34
sg66
g169
sbag0
(g86
g2
Ntp680
Rp681
(dp682
g90
g171
sg91
g94
sg583
I35
sg66
g171
sbag0
(g86
g2
Ntp683
Rp684
(dp685
g90
g173
sg91
g94
sg583
I36
sg66
g173
sbag0
(g86
g2
Ntp686
Rp687
(dp688
g90
g175
sg91
g94
sg583
I37
sg66
g175
sbag0
(g86
g2
Ntp689
Rp690
(dp691
g90
g177
sg91
g94
sg583
I38
sg66
g177
sbag0
(g86
g2
Ntp692
Rp693
(dp694
g90
g179
sg91
g94
sg583
I39
sg66
g179
sbag0
(g86
g2
Ntp695
Rp696
(dp697
g90
g181
sg91
g94
sg583
I40
sg66
g181
sbag0
(g86
g2
Ntp698
Rp699
(dp700
g90
g183
sg91
g94
sg583
I41
sg66
g183
sbag0
(g86
g2
Ntp701
Rp702
(dp703
g90
g185
sg91
g94
sg583
I42
sg66
g185
sbag0
(g86
g2
Ntp704
Rp705
(dp706
g90
g187
sg91
g94
sg583
I43
sg66
g187
sbag0
(g86
g2
Ntp707
Rp708
(dp709
g90
g189
sg91
g94
sg583
I44
sg66
g189
sbag0
(g86
g2
Ntp710
Rp711
(dp712
g90
g191
sg91
g94
sg583
I45
sg66
g191
sbag0
(g86
g2
Ntp713
Rp714
(dp715
g90
g193
sg91
g94
sg583
I46
sg66
g193
sbag0
(g86
g2
Ntp716
Rp717
(dp718
g90
g195
sg91
g94
sg583
I47
sg66
g195
sbag0
(g86
g2
Ntp719
Rp720
(dp721
g90
g197
sg91
g94
sg583
I48
sg66
g197
sbag0
(g86
g2
Ntp722
Rp723
(dp724
g90
g199
sg91
g94
sg583
I49
sg66
g199
sbag0
(g86
g2
Ntp725
Rp726
(dp727
g90
g201
sg91
g94
sg583
I50
sg66
g201
sbag0
(g86
g2
Ntp728
Rp729
(dp730
g90
g203
sg91
g94
sg583
I51
sg66
g203
sbag0
(g86
g2
Ntp731
Rp732
(dp733
g90
g205
sg91
g94
sg583
I52
sg66
g205
sbag0
(g86
g2
Ntp734
Rp735
(dp736
g90
g207
sg91
g94
sg583
I53
sg66
g207
sbag0
(g86
g2
Ntp737
Rp738
(dp739
g90
g209
sg91
g94
sg583
I54
sg66
g209
sbag0
(g86
g2
Ntp740
Rp741
(dp742
g90
g211
sg91
g94
sg583
I55
sg66
g211
sbag0
(g86
g2
Ntp743
Rp744
(dp745
g90
g213
sg91
g94
sg583
I56
sg66
g213
sbag0
(g86
g2
Ntp746
Rp747
(dp748
g90
g215
sg91
g94
sg583
I57
sg66
g215
sbag0
(g86
g2
Ntp749
Rp750
(dp751
g90
g217
sg91
g94
sg583
I58
sg66
g217
sbag0
(g86
g2
Ntp752
Rp753
(dp754
g90
g219
sg91
g94
sg583
I59
sg66
g219
sbag0
(g86
g2
Ntp755
Rp756
(dp757
g90
g221
sg91
g94
sg583
I60
sg66
g221
sbag0
(g86
g2
Ntp758
Rp759
(dp760
g90
g223
sg91
g94
sg583
I61
sg66
g223
sbag0
(g86
g2
Ntp761
Rp762
(dp763
g90
g225
sg91
g94
sg583
I62
sg66
g225
sbag0
(g86
g2
Ntp764
Rp765
(dp766
g90
g227
sg91
g94
sg583
I63
sg66
g227
sbag0
(g86
g2
Ntp767
Rp768
(dp769
g90
g229
sg91
g94
sg583
I64
sg66
g229
sbag0
(g86
g2
Ntp770
Rp771
(dp772
g90
g231
sg91
g94
sg583
I65
sg66
g231
sbag0
(g86
g2
Ntp773
Rp774
(dp775
g90
g233
sg91
g94
sg583
I66
sg66
g233
sbag0
(g86
g2
Ntp776
Rp777
(dp778
g90
g235
sg91
g94
sg583
I67
sg66
g235
sbag0
(g86
g2
Ntp779
Rp780
(dp781
g90
g237
sg91
g94
sg583
I68
sg66
g237
sbag0
(g86
g2
Ntp782
Rp783
(dp784
g90
g239
sg91
g94
sg583
I69
sg66
g239
sbag0
(g86
g2
Ntp785
Rp786
(dp787
g90
g241
sg91
g94
sg583
I70
sg66
g241
sbag0
(g86
g2
Ntp788
Rp789
(dp790
g90
g243
sg91
g94
sg583
I71
sg66
g243
sbag0
(g86
g2
Ntp791
Rp792
(dp793
g90
g245
sg91
g94
sg583
I72
sg66
g245
sbag0
(g86
g2
Ntp794
Rp795
(dp796
g90
g247
sg91
g94
sg583
I73
sg66
g247
sbag0
(g86
g2
Ntp797
Rp798
(dp799
g90
g249
sg91
g94
sg583
I74
sg66
g249
sbag0
(g86
g2
Ntp800
Rp801
(dp802
g90
g251
sg91
g94
sg583
I75
sg66
g251
sbag0
(g86
g2
Ntp803
Rp804
(dp805
g90
g253
sg91
g94
sg583
I76
sg66
g253
sbag0
(g86
g2
Ntp806
Rp807
(dp808
g90
g255
sg91
g94
sg583
I77
sg66
g255
sbag0
(g86
g2
Ntp809
Rp810
(dp811
g90
g257
sg91
g94
sg583
I78
sg66
g257
sbag0
(g86
g2
Ntp812
Rp813
(dp814
g90
g259
sg91
g94
sg583
I79
sg66
g259
sbag0
(g86
g2
Ntp815
Rp816
(dp817
g90
g261
sg91
g94
sg583
I80
sg66
g261
sbag0
(g86
g2
Ntp818
Rp819
(dp820
g90
g263
sg91
g94
sg583
I81
sg66
g263
sbag0
(g86
g2
Ntp821
Rp822
(dp823
g90
g265
sg91
g94
sg583
I82
sg66
g265
sbag0
(g86
g2
Ntp824
Rp825
(dp826
g90
g267
sg91
g94
sg583
I83
sg66
g267
sbag0
(g86
g2
Ntp827
Rp828
(dp829
g90
g269
sg91
g94
sg583
I84
sg66
g269
sbag0
(g86
g2
Ntp830
Rp831
(dp832
g90
g271
sg91
g94
sg583
I85
sg66
g271
sbag0
(g86
g2
Ntp833
Rp834
(dp835
g90
g273
sg91
g94
sg583
I86
sg66
g273
sbag0
(g86
g2
Ntp836
Rp837
(dp838
g90
g275
sg91
g94
sg583
I87
sg66
g275
sbag0
(g86
g2
Ntp839
Rp840
(dp841
g90
g277
sg91
g94
sg583
I88
sg66
g277
sbag0
(g86
g2
Ntp842
Rp843
(dp844
g90
g279
sg91
g94
sg583
I89
sg66
g279
sbag0
(g86
g2
Ntp845
Rp846
(dp847
g90
g281
sg91
g94
sg583
I90
sg66
g281
sbag0
(g86
g2
Ntp848
Rp849
(dp850
g90
g283
sg91
g94
sg583
I91
sg66
g283
sbasS'edges'
p851
(lp852
g0
(cconcept
SEM_REL
p853
g2
Ntp854
Rp855
(dp856
S'pTo'
p857
g581
sg293
g294
sS'pFrom'
p858
g585
sbag0
(g853
g2
Ntp859
Rp860
(dp861
g857
g585
sg293
g294
sg858
g588
sbag0
(g853
g2
Ntp862
Rp863
(dp864
g857
g588
sg293
g294
sg858
g591
sbag0
(g853
g2
Ntp865
Rp866
(dp867
g857
g588
sg293
g294
sg858
g594
sbag0
(g853
g2
Ntp868
Rp869
(dp870
g857
g585
sg293
g294
sg858
g597
sbag0
(g853
g2
Ntp871
Rp872
(dp873
g857
g597
sg293
g294
sg858
g600
sbag0
(g853
g2
Ntp874
Rp875
(dp876
g857
g585
sg293
g294
sg858
g603
sbag0
(g853
g2
Ntp877
Rp878
(dp879
g857
g603
sg293
g294
sg858
g606
sbag0
(g853
g2
Ntp880
Rp881
(dp882
g857
g603
sg293
g294
sg858
g609
sbag0
(g853
g2
Ntp883
Rp884
(dp885
g857
g603
sg293
g294
sg858
g612
sbag0
(g853
g2
Ntp886
Rp887
(dp888
g857
g603
sg293
g294
sg858
g615
sbag0
(g853
g2
Ntp889
Rp890
(dp891
g857
g603
sg293
g294
sg858
g618
sbag0
(g853
g2
Ntp892
Rp893
(dp894
g857
g603
sg293
g294
sg858
g621
sbag0
(g853
g2
Ntp895
Rp896
(dp897
g857
g603
sg293
g294
sg858
g624
sbag0
(g853
g2
Ntp898
Rp899
(dp900
g857
g603
sg293
g294
sg858
g627
sbag0
(g853
g2
Ntp901
Rp902
(dp903
g857
g603
sg293
g294
sg858
g630
sbag0
(g853
g2
Ntp904
Rp905
(dp906
g857
g585
sg293
g294
sg858
g633
sbag0
(g853
g2
Ntp907
Rp908
(dp909
g857
g633
sg293
g294
sg858
g636
sbag0
(g853
g2
Ntp910
Rp911
(dp912
g857
g633
sg293
g294
sg858
g639
sbag0
(g853
g2
Ntp913
Rp914
(dp915
g857
g581
sg293
g294
sg858
g642
sbag0
(g853
g2
Ntp916
Rp917
(dp918
g857
g642
sg293
g294
sg858
g645
sbag0
(g853
g2
Ntp919
Rp920
(dp921
g857
g645
sg293
g294
sg858
g648
sbag0
(g853
g2
Ntp922
Rp923
(dp924
g857
g645
sg293
g294
sg858
g651
sbag0
(g853
g2
Ntp925
Rp926
(dp927
g857
g645
sg293
g294
sg858
g654
sbag0
(g853
g2
Ntp928
Rp929
(dp930
g857
g645
sg293
g294
sg858
g657
sbag0
(g853
g2
Ntp931
Rp932
(dp933
g857
g645
sg293
g294
sg858
g660
sbag0
(g853
g2
Ntp934
Rp935
(dp936
g857
g642
sg293
g294
sg858
g663
sbag0
(g853
g2
Ntp937
Rp938
(dp939
g857
g663
sg293
g294
sg858
g666
sbag0
(g853
g2
Ntp940
Rp941
(dp942
g857
g663
sg293
g294
sg858
g669
sbag0
(g853
g2
Ntp943
Rp944
(dp945
g857
g663
sg293
g294
sg858
g672
sbag0
(g853
g2
Ntp946
Rp947
(dp948
g857
g642
sg293
g294
sg858
g675
sbag0
(g853
g2
Ntp949
Rp950
(dp951
g857
g675
sg293
g294
sg858
g678
sbag0
(g853
g2
Ntp952
Rp953
(dp954
g857
g675
sg293
g294
sg858
g681
sbag0
(g853
g2
Ntp955
Rp956
(dp957
g857
g581
sg293
g294
sg858
g684
sbag0
(g853
g2
Ntp958
Rp959
(dp960
g857
g684
sg293
g294
sg858
g687
sbag0
(g853
g2
Ntp961
Rp962
(dp963
g857
g687
sg293
g294
sg858
g690
sbag0
(g853
g2
Ntp964
Rp965
(dp966
g857
g687
sg293
g294
sg858
g693
sbag0
(g853
g2
Ntp967
Rp968
(dp969
g857
g687
sg293
g294
sg858
g696
sbag0
(g853
g2
Ntp970
Rp971
(dp972
g857
g687
sg293
g294
sg858
g699
sbag0
(g853
g2
Ntp973
Rp974
(dp975
g857
g687
sg293
g294
sg858
g702
sbag0
(g853
g2
Ntp976
Rp977
(dp978
g857
g702
sg293
g294
sg858
g705
sbag0
(g853
g2
Ntp979
Rp980
(dp981
g857
g705
sg293
g294
sg858
g708
sbag0
(g853
g2
Ntp982
Rp983
(dp984
g857
g702
sg293
g294
sg858
g711
sbag0
(g853
g2
Ntp985
Rp986
(dp987
g857
g711
sg293
g294
sg858
g708
sbag0
(g853
g2
Ntp988
Rp989
(dp990
g857
g684
sg293
g294
sg858
g714
sbag0
(g853
g2
Ntp991
Rp992
(dp993
g857
g714
sg293
g294
sg858
g717
sbag0
(g853
g2
Ntp994
Rp995
(dp996
g857
g717
sg293
g294
sg858
g720
sbag0
(g853
g2
Ntp997
Rp998
(dp999
g857
g717
sg293
g294
sg858
g723
sbag0
(g853
g2
Ntp1000
Rp1001
(dp1002
g857
g714
sg293
g294
sg858
g726
sbag0
(g853
g2
Ntp1003
Rp1004
(dp1005
g857
g726
sg293
g294
sg858
g729
sbag0
(g853
g2
Ntp1006
Rp1007
(dp1008
g857
g684
sg293
g294
sg858
g732
sbag0
(g853
g2
Ntp1009
Rp1010
(dp1011
g857
g684
sg293
g294
sg858
g735
sbag0
(g853
g2
Ntp1012
Rp1013
(dp1014
g857
g735
sg293
g294
sg858
g690
sbag0
(g853
g2
Ntp1015
Rp1016
(dp1017
g857
g735
sg293
g294
sg858
g699
sbag0
(g853
g2
Ntp1018
Rp1019
(dp1020
g857
g581
sg293
g294
sg858
g738
sbag0
(g853
g2
Ntp1021
Rp1022
(dp1023
g857
g581
sg293
g294
sg858
g741
sbag0
(g853
g2
Ntp1024
Rp1025
(dp1026
g857
g741
sg293
g294
sg858
g744
sbag0
(g853
g2
Ntp1027
Rp1028
(dp1029
g857
g744
sg293
g294
sg858
g747
sbag0
(g853
g2
Ntp1030
Rp1031
(dp1032
g857
g744
sg293
g294
sg858
g750
sbag0
(g853
g2
Ntp1033
Rp1034
(dp1035
g857
g741
sg293
g294
sg858
g753
sbag0
(g853
g2
Ntp1036
Rp1037
(dp1038
g857
g753
sg293
g294
sg858
g756
sbag0
(g853
g2
Ntp1039
Rp1040
(dp1041
g857
g756
sg293
g294
sg858
g759
sbag0
(g853
g2
Ntp1042
Rp1043
(dp1044
g857
g756
sg293
g294
sg858
g762
sbag0
(g853
g2
Ntp1045
Rp1046
(dp1047
g857
g756
sg293
g294
sg858
g765
sbag0
(g853
g2
Ntp1048
Rp1049
(dp1050
g857
g756
sg293
g294
sg858
g768
sbag0
(g853
g2
Ntp1051
Rp1052
(dp1053
g857
g756
sg293
g294
sg858
g771
sbag0
(g853
g2
Ntp1054
Rp1055
(dp1056
g857
g756
sg293
g294
sg858
g774
sbag0
(g853
g2
Ntp1057
Rp1058
(dp1059
g857
g756
sg293
g294
sg858
g777
sbag0
(g853
g2
Ntp1060
Rp1061
(dp1062
g857
g756
sg293
g294
sg858
g780
sbag0
(g853
g2
Ntp1063
Rp1064
(dp1065
g857
g780
sg293
g294
sg858
g783
sbag0
(g853
g2
Ntp1066
Rp1067
(dp1068
g857
g780
sg293
g294
sg858
g786
sbag0
(g853
g2
Ntp1069
Rp1070
(dp1071
g857
g780
sg293
g294
sg858
g789
sbag0
(g853
g2
Ntp1072
Rp1073
(dp1074
g857
g780
sg293
g294
sg858
g792
sbag0
(g853
g2
Ntp1075
Rp1076
(dp1077
g857
g753
sg293
g294
sg858
g747
sbag0
(g853
g2
Ntp1078
Rp1079
(dp1080
g857
g747
sg293
g294
sg858
g795
sbag0
(g853
g2
Ntp1081
Rp1082
(dp1083
g857
g747
sg293
g294
sg858
g798
sbag0
(g853
g2
Ntp1084
Rp1085
(dp1086
g857
g747
sg293
g294
sg858
g801
sbag0
(g853
g2
Ntp1087
Rp1088
(dp1089
g857
g753
sg293
g294
sg858
g750
sbag0
(g853
g2
Ntp1090
Rp1091
(dp1092
g857
g750
sg293
g294
sg858
g804
sbag0
(g853
g2
Ntp1093
Rp1094
(dp1095
g857
g750
sg293
g294
sg858
g807
sbag0
(g853
g2
Ntp1096
Rp1097
(dp1098
g857
g750
sg293
g294
sg858
g810
sbag0
(g853
g2
Ntp1099
Rp1100
(dp1101
g857
g750
sg293
g294
sg858
g813
sbag0
(g853
g2
Ntp1102
Rp1103
(dp1104
g857
g750
sg293
g294
sg858
g816
sbag0
(g853
g2
Ntp1105
Rp1106
(dp1107
g857
g750
sg293
g294
sg858
g819
sbag0
(g853
g2
Ntp1108
Rp1109
(dp1110
g857
g750
sg293
g294
sg858
g822
sbag0
(g853
g2
Ntp1111
Rp1112
(dp1113
g857
g750
sg293
g294
sg858
g825
sbag0
(g853
g2
Ntp1114
Rp1115
(dp1116
g857
g750
sg293
g294
sg858
g828
sbag0
(g853
g2
Ntp1117
Rp1118
(dp1119
g857
g750
sg293
g294
sg858
g831
sbag0
(g853
g2
Ntp1120
Rp1121
(dp1122
g857
g750
sg293
g294
sg858
g834
sbag0
(g853
g2
Ntp1123
Rp1124
(dp1125
g857
g741
sg293
g294
sg858
g837
sbag0
(g853
g2
Ntp1126
Rp1127
(dp1128
g857
g837
sg293
g294
sg858
g840
sbag0
(g853
g2
Ntp1129
Rp1130
(dp1131
g857
g837
sg293
g294
sg858
g843
sbag0
(g853
g2
Ntp1132
Rp1133
(dp1134
g857
g741
sg293
g294
sg858
g846
sbag0
(g853
g2
Ntp1135
Rp1136
(dp1137
g857
g846
sg293
g294
sg858
g804
sbag0
(g853
g2
Ntp1138
Rp1139
(dp1140
g857
g846
sg293
g294
sg858
g834
sbag0
(g853
g2
Ntp1141
Rp1142
(dp1143
g857
g741
sg293
g294
sg858
g849
sbag0
(g853
g2
Ntp1144
Rp1145
(dp1146
g857
g849
sg293
g294
sg858
g819
sbag0
(g853
g2
Ntp1147
Rp1148
(dp1149
g857
g849
sg293
g294
sg858
g825
sbag0
(g853
g2
Ntp1150
Rp1151
(dp1152
g857
g849
sg293
g294
sg858
g807
sbasS'neutral'
p1153
g88
sbsg583
I1
sg66
g82
sbssS'model'
p1154
Nsg583
I9
sS'LTM'
p1155
g62
sS'init_act'
p1156
F1.0
sbag0
(clanguage_schemas
CPT_ACTION_SCHEMA
p1157
g2
Ntp1158
Rp1159
(dp1160
g66
g107
sg83
(dp1161
g85
g585
ssg1154
Nsg583
I10
sg1155
g62
sg1156
F1.0
sbag0
(g1157
g2
Ntp1162
Rp1163
(dp1164
g66
g109
sg83
(dp1165
g85
g588
ssg1154
Nsg583
I11
sg1155
g62
sg1156
F1.0
sbag0
(g1157
g2
Ntp1166
Rp1167
(dp1168
g66
g111
sg83
(dp1169
g85
g591
ssg1154
Nsg583
I12
sg1155
g62
sg1156
F1.0
sbag0
(g1157
g2
Ntp1170
Rp1171
(dp1172
g66
g113
sg83
(dp1173
g85
g594
ssg1154
Nsg583
I13
sg1155
g62
sg1156
F1.0
sbag0
(g1157
g2
Ntp1174
Rp1175
(dp1176
g66
g115
sg83
(dp1177
g85
g597
ssg1154
Nsg583
I14
sg1155
g62
sg1156
F1.0
sbag0
(g1157
g2
Ntp1178
Rp1179
(dp1180
g66
g117
sg83
(dp1181
g85
g600
ssg1154
Nsg583
I15
sg1155
g62
sg1156
F1.0
sbag0
(g1157
g2
Ntp1182
Rp1183
(dp1184
g66
g119
sg83
(dp1185
g85
g603
ssg1154
Nsg583
I16
sg1155
g62
sg1156
F1.0
sbag0
(g1157
g2
Ntp1186
Rp1187
(dp1188
g66
g121
sg83
(dp1189
g85
g606
ssg1154
Nsg583
I17
sg1155
g62
sg1156
F1.0
sbag0
(g1157
g2
Ntp1190
Rp1191
(dp1192
g66
g123
sg83
(dp1193
g85
g609
ssg1154
Nsg583
I18
sg1155
g62
sg1156
F1.0
sbag0
(g1157
g2
Ntp1194
Rp1195
(dp1196
g66
g125
sg83
(dp1197
g85
g612
ssg1154
Nsg583
I19
sg1155
g62
sg1156
F1.0
sbag0
(g1157
g2
Ntp1198
Rp1199
(dp1200
g66
g127
sg83
(dp1201
g85
g615
ssg1154
Nsg583
I20
sg1155
g62
sg1156
F1.0
sbag0
(g1157
g2
Ntp1202
Rp1203
(dp1204
g66
g129
sg83
(dp1205
g85
g618
ssg1154
Nsg583
I21
sg1155
g62
sg1156
F1.0
sbag0
(g1157
g2
Ntp1206
Rp1207
(dp1208
g66
g131
sg83
(dp1209
g85
g621
ssg1154
Nsg583
I22
sg1155
g62
sg1156
F1.0
sbag0
(g1157
g2
Ntp1210
Rp1211
(dp1212
g66
g133
sg83
(dp1213
g85
g624
ssg1154
Nsg583
I23
sg1155
g62
sg1156
F1.0
sbag0
(g1157
g2
Ntp1214
Rp1215
(dp1216
g66
g135
sg83
(dp1217
g85
g627
ssg1154
Nsg583
I24
sg1155
g62
sg1156
F1.0
sbag0
(g1157
g2
Ntp1218
Rp1219
(dp1220
g66
g137
sg83
(dp1221
g85
g630
ssg1154
Nsg583
I25
sg1155
g62
sg1156
F1.0
sbag0
(g1157
g2
Ntp1222
Rp1223
(dp1224
g66
g139
sg83
(dp1225
g85
g633
ssg1154
Nsg583
I26
sg1155
g62
sg1156
F1.0
sbag0
(g1157
g2
Ntp1226
Rp1227
(dp1228
g66
g141
sg83
(dp1229
g85
g636
ssg1154
Nsg583
I27
sg1155
g62
sg1156
F1.0
sbag0
(g1157
g2
Ntp1230
Rp1231
(dp1232
g66
g143
sg83
(dp1233
g85
g639
ssg1154
Nsg583
I28
sg1155
g62
sg1156
F1.0
sbag0
(clanguage_schemas
CPT_PROPERTY_SCHEMA
p1234
g2
Ntp1235
Rp1236
(dp1237
g66
g145
sg83
(dp1238
g85
g642
ssg1154
Nsg583
I29
sg1155
g62
sg1156
F1.0
sbag0
(g1234
g2
Ntp1239
Rp1240
(dp1241
g66
g147
sg83
(dp1242
g85
g645
ssg1154
Nsg583
I30
sg1155
g62
sg1156
F1.0
sbag0
(g1234
g2
Ntp1243
Rp1244
(dp1245
g66
g149
sg83
(dp1246
g85
g648
ssg1154
Nsg583
I31
sg1155
g62
sg1156
F1.0
sbag0
(g1234
g2
Ntp1247
Rp1248
(dp1249
g66
g151
sg83
(dp1250
g85
g651
ssg1154
Nsg583
I32
sg1155
g62
sg1156
F1.0
sbag0
(g1234
g2
Ntp1251
Rp1252
(dp1253
g66
g153
sg83
(dp1254
g85
g654
ssg1154
Nsg583
I33
sg1155
g62
sg1156
F1.0
sbag0
(g1234
g2
Ntp1255
Rp1256
(dp1257
g66
g155
sg83
(dp1258
g85
g657
ssg1154
Nsg583
I34
sg1155
g62
sg1156
F1.0
sbag0
(g1234
g2
Ntp1259
Rp1260
(dp1261
g66
g157
sg83
(dp1262
g85
g660
ssg1154
Nsg583
I35
sg1155
g62
sg1156
F1.0
sbag0
(g1234
g2
Ntp1263
Rp1264
(dp1265
g66
g159
sg83
(dp1266
g85
g663
ssg1154
Nsg583
I36
sg1155
g62
sg1156
F1.0
sbag0
(g1234
g2
Ntp1267
Rp1268
(dp1269
g66
g161
sg83
(dp1270
g85
g666
ssg1154
Nsg583
I37
sg1155
g62
sg1156
F1.0
sbag0
(g1234
g2
Ntp1271
Rp1272
(dp1273
g66
g163
sg83
(dp1274
g85
g669
ssg1154
Nsg583
I38
sg1155
g62
sg1156
F1.0
sbag0
(g1234
g2
Ntp1275
Rp1276
(dp1277
g66
g165
sg83
(dp1278
g85
g672
ssg1154
Nsg583
I39
sg1155
g62
sg1156
F1.0
sbag0
(g1234
g2
Ntp1279
Rp1280
(dp1281
g66
g167
sg83
(dp1282
g85
g675
ssg1154
Nsg583
I40
sg1155
g62
sg1156
F1.0
sbag0
(g1234
g2
Ntp1283
Rp1284
(dp1285
g66
g169
sg83
(dp1286
g85
g678
ssg1154
Nsg583
I41
sg1155
g62
sg1156
F1.0
sbag0
(g1234
g2
Ntp1287
Rp1288
(dp1289
g66
g171
sg83
(dp1290
g85
g681
ssg1154
Nsg583
I42
sg1155
g62
sg1156
F1.0
sbag0
(clanguage_schemas
CPT_RELATION_SCHEMA
p1291
g2
Ntp1292
Rp1293
(dp1294
g66
g173
sg83
(dp1295
g857
Nsg85
g684
sg858
Nssg1154
Nsg583
I43
sg1155
g62
sg1156
F1.0
sbag0
(g1291
g2
Ntp1296
Rp1297
(dp1298
g66
g175
sg83
(dp1299
g857
Nsg85
g687
sg858
Nssg1154
Nsg583
I44
sg1155
g62
sg1156
F1.0
sbag0
(g1291
g2
Ntp1300
Rp1301
(dp1302
g66
g177
sg83
(dp1303
g857
Nsg85
g690
sg858
Nssg1154
Nsg583
I45
sg1155
g62
sg1156
F1.0
sbag0
(g1291
g2
Ntp1304
Rp1305
(dp1306
g66
g179
sg83
(dp1307
g857
Nsg85
g693
sg858
Nssg1154
Nsg583
I46
sg1155
g62
sg1156
F1.0
sbag0
(g1291
g2
Ntp1308
Rp1309
(dp1310
g66
g181
sg83
(dp1311
g857
Nsg85
g696
sg858
Nssg1154
Nsg583
I47
sg1155
g62
sg1156
F1.0
sbag0
(g1291
g2
Ntp1312
Rp1313
(dp1314
g66
g183
sg83
(dp1315
g857
Nsg85
g699
sg858
Nssg1154
Nsg583
I48
sg1155
g62
sg1156
F1.0
sbag0
(g1291
g2
Ntp1316
Rp1317
(dp1318
g66
g185
sg83
(dp1319
g857
Nsg85
g702
sg858
Nssg1154
Nsg583
I49
sg1155
g62
sg1156
F1.0
sbag0
(g1291
g2
Ntp1320
Rp1321
(dp1322
g66
g187
sg83
(dp1323
g857
Nsg85
g705
sg858
Nssg1154
Nsg583
I50
sg1155
g62
sg1156
F1.0
sbag0
(g1291
g2
Ntp1324
Rp1325
(dp1326
g66
g189
sg83
(dp1327
g857
Nsg85
g708
sg858
Nssg1154
Nsg583
I51
sg1155
g62
sg1156
F1.0
sbag0
(g1291
g2
Ntp1328
Rp1329
(dp1330
g66
g191
sg83
(dp1331
g857
Nsg85
g711
sg858
Nssg1154
Nsg583
I52
sg1155
g62
sg1156
F1.0
sbag0
(g1291
g2
Ntp1332
Rp1333
(dp1334
g66
g193
sg83
(dp1335
g857
Nsg85
g714
sg858
Nssg1154
Nsg583
I53
sg1155
g62
sg1156
F1.0
sbag0
(g1291
g2
Ntp1336
Rp1337
(dp1338
g66
g195
sg83
(dp1339
g857
Nsg85
g717
sg858
Nssg1154
Nsg583
I54
sg1155
g62
sg1156
F1.0
sbag0
(g1291
g2
Ntp1340
Rp1341
(dp1342
g66
g197
sg83
(dp1343
g857
Nsg85
g720
sg858
Nssg1154
Nsg583
I55
sg1155
g62
sg1156
F1.0
sbag0
(g1291
g2
Ntp1344
Rp1345
(dp1346
g66
g199
sg83
(dp1347
g857
Nsg85
g723
sg858
Nssg1154
Nsg583
I56
sg1155
g62
sg1156
F1.0
sbag0
(g1291
g2
Ntp1348
Rp1349
(dp1350
g66
g201
sg83
(dp1351
g857
Nsg85
g726
sg858
Nssg1154
Nsg583
I57
sg1155
g62
sg1156
F1.0
sbag0
(g1291
g2
Ntp1352
Rp1353
(dp1354
g66
g203
sg83
(dp1355
g857
Nsg85
g729
sg858
Nssg1154
Nsg583
I58
sg1155
g62
sg1156
F1.0
sbag0
(g1291
g2
Ntp1356
Rp1357
(dp1358
g66
g205
sg83
(dp1359
g857
Nsg85
g732
sg858
Nssg1154
Nsg583
I59
sg1155
g62
sg1156
F1.0
sbag0
(g1291
g2
Ntp1360
Rp1361
(dp1362
g66
g207
sg83
(dp1363
g857
Nsg85
g735
sg858
Nssg1154
Nsg583
I60
sg1155
g62
sg1156
F1.0
sbag0
(g78
g2
Ntp1364
Rp1365
(dp1366
g66
g209
sg83
(dp1367
g85
g738
ssg1154
Nsg583
I61
sg1155
g62
sg1156
F1.0
sbag0
(clanguage_schemas
CPT_ENTITY_SCHEMA
p1368
g2
Ntp1369
Rp1370
(dp1371
g66
g211
sg83
(dp1372
g85
g741
ssg1154
Nsg583
I62
sg1155
g62
sg1156
F1.0
sbag0
(g1368
g2
Ntp1373
Rp1374
(dp1375
g66
g213
sg83
(dp1376
g85
g744
ssg1154
Nsg583
I63
sg1155
g62
sg1156
F1.0
sbag0
(g1368
g2
Ntp1377
Rp1378
(dp1379
g66
g215
sg83
(dp1380
g85
g747
ssg1154
Nsg583
I64
sg1155
g62
sg1156
F1.0
sbag0
(g1368
g2
Ntp1381
Rp1382
(dp1383
g66
g217
sg83
(dp1384
g85
g750
ssg1154
Nsg583
I65
sg1155
g62
sg1156
F1.0
sbag0
(g1368
g2
Ntp1385
Rp1386
(dp1387
g66
g219
sg83
(dp1388
g85
g753
ssg1154
Nsg583
I66
sg1155
g62
sg1156
F1.0
sbag0
(g1368
g2
Ntp1389
Rp1390
(dp1391
g66
g221
sg83
(dp1392
g85
g756
ssg1154
Nsg583
I67
sg1155
g62
sg1156
F1.0
sbag0
(g1368
g2
Ntp1393
Rp1394
(dp1395
g66
g223
sg83
(dp1396
g85
g759
ssg1154
Nsg583
I68
sg1155
g62
sg1156
F1.0
sbag0
(g1368
g2
Ntp1397
Rp1398
(dp1399
g66
g225
sg83
(dp1400
g85
g762
ssg1154
Nsg583
I69
sg1155
g62
sg1156
F1.0
sbag0
(g1368
g2
Ntp1401
Rp1402
(dp1403
g66
g227
sg83
(dp1404
g85
g765
ssg1154
Nsg583
I70
sg1155
g62
sg1156
F1.0
sbag0
(g1368
g2
Ntp1405
Rp1406
(dp1407
g66
g229
sg83
(dp1408
g85
g768
ssg1154
Nsg583
I71
sg1155
g62
sg1156
F1.0
sbag0
(g1368
g2
Ntp1409
Rp1410
(dp1411
g66
g231
sg83
(dp1412
g85
g771
ssg1154
Nsg583
I72
sg1155
g62
sg1156
F1.0
sbag0
(g1368
g2
Ntp1413
Rp1414
(dp1415
g66
g233
sg83
(dp1416
g85
g774
ssg1154
Nsg583
I73
sg1155
g62
sg1156
F1.0
sbag0
(g1368
g2
Ntp1417
Rp1418
(dp1419
g66
g235
sg83
(dp1420
g85
g777
ssg1154
Nsg583
I74
sg1155
g62
sg1156
F1.0
sbag0
(g1368
g2
Ntp1421
Rp1422
(dp1423
g66
g237
sg83
(dp1424
g85
g780
ssg1154
Nsg583
I75
sg1155
g62
sg1156
F1.0
sbag0
(g1368
g2
Ntp1425
Rp1426
(dp1427
g66
g239
sg83
(dp1428
g85
g783
ssg1154
Nsg583
I76
sg1155
g62
sg1156
F1.0
sbag0
(g1368
g2
Ntp1429
Rp1430
(dp1431
g66
g241
sg83
(dp1432
g85
g786
ssg1154
Nsg583
I77
sg1155
g62
sg1156
F1.0
sbag0
(g1368
g2
Ntp1433
Rp1434
(dp1435
g66
g243
sg83
(dp1436
g85
g789
ssg1154
Nsg583
I78
sg1155
g62
sg1156
F1.0
sbag0
(g1368
g2
Ntp1437
Rp1438
(dp1439
g66
g245
sg83
(dp1440
g85
g792
ssg1154
Nsg583
I79
sg1155
g62
sg1156
F1.0
sbag0
(g1368
g2
Ntp1441
Rp1442
(dp1443
g66
g247
sg83
(dp1444
g85
g795
ssg1154
Nsg583
I80
sg1155
g62
sg1156
F1.0
sbag0
(g1368
g2
Ntp1445
Rp1446
(dp1447
g66
g249
sg83
(dp1448
g85
g798
ssg1154
Nsg583
I81
sg1155
g62
sg1156
F1.0
sbag0
(g1368
g2
Ntp1449
Rp1450
(dp1451
g66
g251
sg83
(dp1452
g85
g801
ssg1154
Nsg583
I82
sg1155
g62
sg1156
F1.0
sbag0
(g1368
g2
Ntp1453
Rp1454
(dp1455
g66
g253
sg83
(dp1456
g85
g804
ssg1154
Nsg583
I83
sg1155
g62
sg1156
F1.0
sbag0
(g1368
g2
Ntp1457
Rp1458
(dp1459
g66
g255
sg83
(dp1460
g85
g807
ssg1154
Nsg583
I84
sg1155
g62
sg1156
F1.0
sbag0
(g1368
g2
Ntp1461
Rp1462
(dp1463
g66
g257
sg83
(dp1464
g85
g810
ssg1154
Nsg583
I85
sg1155
g62
sg1156
F1.0
sbag0
(g1368
g2
Ntp1465
Rp1466
(dp1467
g66
g259
sg83
(dp1468
g85
g813
ssg1154
Nsg583
I86
sg1155
g62
sg1156
F1.0
sbag0
(g1368
g2
Ntp1469
Rp1470
(dp1471
g66
g261
sg83
(dp1472
g85
g816
ssg1154
Nsg583
I87
sg1155
g62
sg1156
F1.0
sbag0
(g1368
g2
Ntp1473
Rp1474
(dp1475
g66
g263
sg83
(dp1476
g85
g819
ssg1154
Nsg583
I88
sg1155
g62
sg1156
F1.0
sbag0
(g1368
g2
Ntp1477
Rp1478
(dp1479
g66
g265
sg83
(dp1480
g85
g822
ssg1154
Nsg583
I89
sg1155
g62
sg1156
F1.0
sbag0
(g1368
g2
Ntp1481
Rp1482
(dp1483
g66
g267
sg83
(dp1484
g85
g825
ssg1154
Nsg583
I90
sg1155
g62
sg1156
F1.0
sbag0
(g1368
g2
Ntp1485
Rp1486
(dp1487
g66
g269
sg83
(dp1488
g85
g828
ssg1154
Nsg583
I91
sg1155
g62
sg1156
F1.0
sbag0
(g1368
g2
Ntp1489
Rp1490
(dp1491
g66
g271
sg83
(dp1492
g85
g831
ssg1154
Nsg583
I92
sg1155
g62
sg1156
F1.0
sbag0
(g1368
g2
Ntp1493
Rp1494
(dp1495
g66
g273
sg83
(dp1496
g85
g834
ssg1154
Nsg583
I93
sg1155
g62
sg1156
F1.0
sbag0
(g1368
g2
Ntp1497
Rp1498
(dp1499
g66
g275
sg83
(dp1500
g85
g837
ssg1154
Nsg583
I94
sg1155
g62
sg1156
F1.0
sbag0
(g1368
g2
Ntp1501
Rp1502
(dp1503
g66
g277
sg83
(dp1504
g85
g840
ssg1154
Nsg583
I95
sg1155
g62
sg1156
F1.0
sbag0
(g1368
g2
Ntp1505
Rp1506
(dp1507
g66
g279
sg83
(dp1508
g85
g843
ssg1154
Nsg583
I96
sg1155
g62
sg1156
F1.0
sbag0
(g1368
g2
Ntp1509
Rp1510
(dp1511
g66
g281
sg83
(dp1512
g85
g846
ssg1154
Nsg583
I97
sg1155
g62
sg1156
F1.0
sbag0
(g1368
g2
Ntp1513
Rp1514
(dp1515
g66
g283
sg83
(dp1516
g85
g849
ssg1154
Nsg583
I98
sg1155
g62
sg1156
F1.0
sbasg293
S'OUT'
p1517
sg583
I11
sS'schema'
p1518
g62
sbag0
(g70
g2
Ntp1519
Rp1520
(dp1521
g66
S'to_semantic_WM'
p1522
sg75
Nsg76
g77
sg293
g1517
sg583
I12
sg1518
g62
sbasS'outputs'
p1523
(dp1524
g74
Nsg1522
NssS'connections'
p1525
(lp1526
sS'cpt_knowledge'
p1527
g94
sS'dt'
p1528
F1.0
sS'in_ports'
p1529
(lp1530
sS'params'
p1531
(dp1532
g1156
F1.0
ssS't'
p1533
I0
sS'activity'
p1534
I0
sg1154
g0
(cschema_theory
MODEL
p1535
g2
Ntp1536
Rp1537
(dp1538
S'verbose'
p1539
I00
sg66
S'language_system_P'
p1540
sS'sim_data'
p1541
(dp1542
S'system_states'
p1543
(dp1544
sg1154
(dp1545
ssg1523
(dp1546
sS'input_ports'
p1547
(lp1548
g0
(g70
g2
Ntp1549
Rp1550
(dp1551
g66
S'from_conceptualizer'
p1552
sg75
Nsg76
Nsg293
S'IN'
p1553
sg583
I1
sg1518
g0
(clanguage_schemas
SEMANTIC_WM
p1554
g2
Ntp1555
Rp1556
(dp1557
g64
(dp1558
S'from_grammatical_WM_P'
p1559
NsS'from_concept_LTM'
p1560
NsS'from_control'
p1561
NsS'from_grammatical_WM_C'
p1562
Nsg1552
NssS'schema_insts'
p1563
(lp1564
sg66
S'Semantic_WM'
p1565
sS'comp_links'
p1566
(lp1567
sg68
(lp1568
g0
(g70
g2
Ntp1569
Rp1570
(dp1571
S'port_data'
p1572
Nsg66
S'to_grammatical_WM_P'
p1573
sg75
Nsg76
NsS'port_value'
p1574
Nsg293
g1517
sg583
I6
sg1518
g1556
sbag0
(g70
g2
Ntp1575
Rp1576
(dp1577
g1572
Nsg66
S'to_cxn_retrieval_P'
p1578
sg75
Nsg76
Nsg1574
Nsg293
g1517
sg583
I7
sg1518
g1556
sbag0
(g70
g2
Ntp1579
Rp1580
(dp1581
g1572
Nsg66
S'to_control'
p1582
sg75
Nsg76
Nsg1574
Nsg293
g1517
sg583
I8
sg1518
g1556
sbag0
(g70
g2
Ntp1583
Rp1584
(dp1585
g66
S'to_visual_WM'
p1586
sg75
Nsg76
Nsg293
g1517
sg583
I9
sg1518
g1556
sbag0
(g70
g2
Ntp1587
Rp1588
(dp1589
g66
S'to_output'
p1590
sg75
Nsg76
Nsg293
g1517
sg583
I10
sg1518
g1556
sbasg1523
(dp1591
g1590
Nsg1573
Nsg1586
Nsg1578
Nsg1582
Nssg1528
F1.0
sS'coop_links'
p1592
(lp1593
sg1529
(lp1594
g1550
ag0
(g70
g2
Ntp1595
Rp1596
(dp1597
g66
g1560
sg75
Nsg76
Nsg293
g1553
sg583
I2
sg1518
g1556
sbag0
(g70
g2
Ntp1598
Rp1599
(dp1600
g66
g1562
sg75
Nsg76
Nsg293
g1553
sg583
I3
sg1518
g1556
sbag0
(g70
g2
Ntp1601
Rp1602
(dp1603
g1572
Nsg66
g1559
sg75
Nsg76
Nsg1574
Nsg293
g1553
sg583
I4
sg1518
g1556
sbag0
(g70
g2
Ntp1604
Rp1605
(dp1606
g1572
Nsg66
g1561
sg75
Nsg76
S'produce'
p1607
sg1574
Nsg293
g1553
sg583
I5
sg1518
g1556
sbasS'save_state'
p1608
(dp1609
S'insts'
p1610
(dp1611
sS'WM_activity'
p1612
(dp1613
S'comp'
p1614
(lp1615
sS'c2_network'
p1616
(dp1617
S'num_insts'
p1618
(lp1619
sS'num_coop_links'
p1620
(lp1621
sS'num_comp_links'
p1622
(lp1623
ssS'coop'
p1624
(lp1625
sg1533
(lp1626
sS'act'
p1627
(lp1628
sssg1531
(dp1629
S'C2'
p1630
(dp1631
S'P_comp'
p1632
F1.0
sS'max_capacity'
p1633
NsS'comp_weight'
p1634
F0.0
sS'P_coop'
p1635
F1.0
sS'coop_asymmetry'
p1636
F1.0
sS'coop_weight'
p1637
F0.0
sS'confidence_threshold'
p1638
F0.0
sS'comp_asymmetry'
p1639
F0.0
sS'prune_threshold'
p1640
F0.01
ssS'dyn'
p1641
(dp1642
S'tau'
p1643
F10000.0
sS'k'
p1644
F10.0
sS'act_rest'
p1645
F0.001
sS'noise_mean'
p1646
F0.0
sS'noise_std'
p1647
F1.0
sS'ext_weight'
p1648
F1.0
sS'int_weight'
p1649
F1.0
sssg1533
I0
sg1534
I0
sg1154
g1537
sS'SemRep'
p1650
g0
(g97
g2
Ntp1651
Rp1652
(dp1653
g101
(dp1654
sg284
g285
sg286
g285
sg287
(dp1655
sg481
g1655
sg96
(dp1656
sg483
g285
sg484
g1655
sg485
(dp1657
sbsg583
I1
sbsbasS'brain_mapping'
p1658
g0
(cschema_theory
BRAIN_MAPPING
p1659
g2
Ntp1660
Rp1661
(dp1662
S'schema_mapping'
p1663
(dp1664
S'Control'
p1665
(lp1666
S'DLPFC'
p1667
asS'Utter'
p1668
(lp1669
S''
p1670
asg1565
(lp1671
S'left_SFG'
p1672
aS'LIP'
p1673
aS'Hippocampus'
p1674
asS'Phonological_WM_P'
p1675
(lp1676
S'left_BA6'
p1677
asg67
(lp1678
g1670
asS'Grammatical_WM_P'
p1679
(lp1680
S'left_BA45'
p1681
aS'leftBA44'
p1682
asS'Grammatical_LTM'
p1683
(lp1684
S'left_STG'
p1685
aS'left_MTG'
p1686
asS'Cxn_retrieval_P'
p1687
(lp1688
ssS'connect_mapping'
p1689
(dp1690
sbsg1525
(lp1691
g0
(cschema_theory
CONNECT
p1692
g2
Ntp1693
Rp1694
(dp1695
S'delay'
p1696
I0
sg66
g1670
sS'weight'
p1697
I0
sS'port_to'
p1698
g0
(g70
g2
Ntp1699
Rp1700
(dp1701
g1572
Nsg66
S'from_semantic_WM'
p1702
sg75
Nsg76
Nsg1574
Nsg293
g1553
sg583
I23
sg1518
g0
(clanguage_schemas
CXN_RETRIEVAL_P
p1703
g2
Ntp1704
Rp1705
(dp1706
g64
(dp1707
g1702
NsS'from_grammatical_LTM'
p1708
Nssg66
g1687
sg68
(lp1709
g0
(g70
g2
Ntp1710
Rp1711
(dp1712
g1572
Nsg66
g1573
sg75
Nsg76
Nsg1574
Nsg293
g1517
sg583
I24
sg1518
g1705
sbasg1523
(dp1713
g1573
NssS'cxn_instances'
p1714
(lp1715
sg1528
F1.0
sg1529
(lp1716
g0
(g70
g2
Ntp1717
Rp1718
(dp1719
g1572
Nsg66
g1708
sg75
Nsg76
(lp1720
g0
(clanguage_schemas
CXN_SCHEMA
p1721
g2
Ntp1722
Rp1723
(dp1724
g66
VCNJ_AND
p1725
sg83
(iconstruction
CXN
p1726
(dp1727
S'SymLinks'
p1728
(iconstruction
TP_SYMLINKS
p1729
(dp1730
S'SL'
p1731
(dp1732
VEVT1_4
p1733
VS1_6
p1734
sVEVT2_5
p1735
VS3_8
p1736
ssg583
I3
sg66
g1670
sbsS'clss'
p1737
VD
p1738
sS'group'
p1739
I3
sg66
g1725
sS'SemFrame'
p1740
(iconstruction
TP_SEMFRAME
p1741
(dp1742
g96
g0
(g97
g2
Ntp1743
Rp1744
(dp1745
g101
(dp1746
(iconstruction
TP_NODE
p1747
(dp1748
S'head'
p1749
I00
sg85
g738
sg66
g1733
sS'frame'
p1750
I00
sS'focus'
p1751
I01
sg583
I4
sb(dp1752
g1750
I00
sg85
g738
ss(iconstruction
TP_NODE
p1753
(dp1754
g1749
I00
sg85
g738
sg66
g1735
sg1750
I00
sg1751
I00
sg583
I5
sb(dp1755
g1750
I00
sg85
g738
sssg284
g285
sg286
g285
sg287
(dp1756
g1747
(dp1757
sg1753
(dp1758
ssg481
g1756
sg96
(dp1759
sg483
g285
sg484
g1756
sg485
(dp1760
g1747
(dp1761
sg1753
(dp1762
ssbsg578
(lp1763
g1747
ag1753
asg851
(lp1764
sg583
I1
sg66
g1670
sbsS'SynForm'
p1765
(iconstruction
TP_SYNFORM
p1766
(dp1767
g583
I2
sS'form'
p1768
(lp1769
(iconstruction
TP_SLOT
p1770
(dp1771
S'cxn_classes'
p1772
(lp1773
VS
p1774
asS'order'
p1775
I0
sg583
I6
sg66
g1734
sba(iconstruction
TP_PHON
p1776
(dp1777
S'num_syllables'
p1778
I3
sg1775
I1
sg583
I7
sS'cxn_phonetics'
p1779
Vand
p1780
sg66
VS2_7
p1781
sba(iconstruction
TP_SLOT
p1782
(dp1783
g1772
(lp1784
VS
p1785
asg1775
I2
sg583
I8
sg66
g1736
sbasg66
g1670
sbsS'preference'
p1786
I1
sbsg1154
Nsg583
I99
sg1155
g0
(clanguage_schemas
GRAMMATICAL_LTM
p1787
g2
Ntp1788
Rp1789
(dp1790
g64
(dp1791
sS'grammar'
p1792
(iconstruction
GRAMMAR
p1793
(dp1794
S'constructions'
p1795
(lp1796
g1726
a(iconstruction
CXN
p1797
(dp1798
g1728
(iconstruction
TP_SYMLINKS
p1799
(dp1800
g1731
(dp1801
VEVT2_13
p1802
VS3_17
p1803
sVEVT1_12
p1804
VS1_15
p1805
ssg583
I11
sg66
g1670
sbsg1737
VD
p1806
sg1739
I3
sg66
VCNJ_THEN
p1807
sg1740
(iconstruction
TP_SEMFRAME
p1808
(dp1809
g96
g0
(g97
g2
Ntp1810
Rp1811
(dp1812
g101
(dp1813
(iconstruction
TP_NODE
p1814
(dp1815
g1749
I00
sg85
g738
sg66
g1802
sg1750
I00
sg1751
I00
sg583
I13
sb(dp1816
g1750
I00
sg85
g738
ss(iconstruction
TP_NODE
p1817
(dp1818
g1749
I00
sg85
g738
sg66
g1804
sg1750
I00
sg1751
I00
sg583
I12
sb(dp1819
g1750
I00
sg85
g738
sssg284
g285
sg286
g285
sg287
(dp1820
g1814
(dp1821
sg1817
(dp1822
g1814
(dp1823
g85
g723
ssssg481
g1820
sg96
(dp1824
sg483
g285
sg484
g1820
sg485
(dp1825
g1814
(dp1826
g1817
g1823
ssg1817
(dp1827
ssbsg578
(lp1828
g1817
ag1814
asg851
(lp1829
(iconstruction
TP_REL
p1830
(dp1831
g857
g1814
sg85
g723
sg583
I14
sg858
g1817
sg66
VEVT1_EVT2_14
p1832
sbasg583
I9
sg66
g1670
sbsg1765
(iconstruction
TP_SYNFORM
p1833
(dp1834
g583
I10
sg1768
(lp1835
(iconstruction
TP_SLOT
p1836
(dp1837
g1772
(lp1838
VS
p1839
asg1775
I0
sg583
I15
sg66
g1805
sba(iconstruction
TP_PHON
p1840
(dp1841
g1778
I4
sg1775
I1
sg583
I16
sg1779
Vthen
p1842
sg66
VS2_16
p1843
sba(iconstruction
TP_SLOT
p1844
(dp1845
g1772
(lp1846
VS
p1847
asg1775
I2
sg583
I17
sg66
g1803
sbasg66
g1670
sbsg1786
I1
sba(iconstruction
CXN
p1848
(dp1849
g1728
(iconstruction
TP_SYMLINKS
p1850
(dp1851
g1731
(dp1852
VEVT2_22
p1853
VS3_26
p1854
sVEVT1_21
p1855
VS1_24
p1856
ssg583
I20
sg66
g1670
sbsg1737
VD
p1857
sg1739
I3
sg66
VCNJ_WHILE
p1858
sg1740
(iconstruction
TP_SEMFRAME
p1859
(dp1860
g96
g0
(g97
g2
Ntp1861
Rp1862
(dp1863
g101
(dp1864
(iconstruction
TP_NODE
p1865
(dp1866
g1749
I00
sg85
g738
sg66
g1855
sg1750
I00
sg1751
I01
sg583
I21
sb(dp1867
g1750
I00
sg85
g738
ss(iconstruction
TP_NODE
p1868
(dp1869
g1749
I00
sg85
g738
sg66
g1853
sg1750
I00
sg1751
I00
sg583
I22
sb(dp1870
g1750
I00
sg85
g738
sssg284
g285
sg286
g285
sg287
(dp1871
g1865
(dp1872
g1868
(dp1873
g85
g720
sssg1868
(dp1874
ssg481
g1871
sg96
(dp1875
sg483
g285
sg484
g1871
sg485
(dp1876
g1865
(dp1877
sg1868
(dp1878
g1865
g1873
sssbsg578
(lp1879
g1865
ag1868
asg851
(lp1880
(iconstruction
TP_REL
p1881
(dp1882
g857
g1868
sg85
g720
sg583
I23
sg858
g1865
sg66
VEVT1_EVT2_23
p1883
sbasg583
I18
sg66
g1670
sbsg1765
(iconstruction
TP_SYNFORM
p1884
(dp1885
g583
I19
sg1768
(lp1886
(iconstruction
TP_SLOT
p1887
(dp1888
g1772
(lp1889
VS
p1890
asg1775
I0
sg583
I24
sg66
g1856
sba(iconstruction
TP_PHON
p1891
(dp1892
g1778
I5
sg1775
I1
sg583
I25
sg1779
Vwhile
p1893
sg66
VS2_25
p1894
sba(iconstruction
TP_SLOT
p1895
(dp1896
g1772
(lp1897
VS
p1898
asg1775
I2
sg583
I26
sg66
g1854
sbasg66
g1670
sbsg1786
I1
sba(iconstruction
CXN
p1899
(dp1900
g1728
(iconstruction
TP_SYMLINKS
p1901
(dp1902
g1731
(dp1903
VACT_31
p1904
VS4_40
p1905
sVACTOR_1_32
p1906
VS1_37
p1907
sVACTOR_2_33
p1908
VS3_39
p1909
ssg583
I29
sg66
g1670
sbsg1737
VS
p1910
sg1739
Nsg66
VSYMMETRIC_TRANS
p1911
sg1740
(iconstruction
TP_SEMFRAME
p1912
(dp1913
g96
g0
(g97
g2
Ntp1914
Rp1915
(dp1916
g101
(dp1917
(iconstruction
TP_NODE
p1918
(dp1919
g1749
I00
sg85
g585
sg66
g1904
sg1750
I01
sg1751
I00
sg583
I31
sb(dp1920
g1750
I01
sg85
g585
ss(iconstruction
TP_NODE
p1921
(dp1922
g1749
I00
sg85
g741
sg66
g1906
sg1750
I01
sg1751
I01
sg583
I32
sb(dp1923
g1750
I01
sg85
g741
ss(iconstruction
TP_NODE
p1924
(dp1925
g1749
I00
sg85
g741
sg66
g1908
sg1750
I01
sg1751
I00
sg583
I33
sb(dp1926
g1750
I01
sg85
g741
ss(iconstruction
TP_NODE
p1927
(dp1928
g1749
I01
sg85
g738
sg66
VEVT_30
p1929
sg1750
I01
sg1751
I00
sg583
I30
sb(dp1930
g1750
I01
sg85
g738
sssg284
g285
sg286
g285
sg287
(dp1931
g1918
(dp1932
g1924
(dp1933
g85
g708
ssg1921
(dp1934
g85
g708
sssg1921
(dp1935
sg1924
(dp1936
sg1927
(dp1937
g1918
(dp1938
g85
g732
ssssg481
g1931
sg96
(dp1939
sg483
g285
sg484
g1931
sg485
(dp1940
g1918
(dp1941
g1927
g1938
ssg1921
(dp1942
g1918
g1934
ssg1924
(dp1943
g1918
g1933
ssg1927
(dp1944
ssbsg578
(lp1945
g1927
ag1918
ag1921
ag1924
asg851
(lp1946
(iconstruction
TP_REL
p1947
(dp1948
g857
g1918
sg85
g732
sg583
I34
sg858
g1927
sg66
VIS_34
p1949
sba(iconstruction
TP_REL
p1950
(dp1951
g857
g1921
sg85
g708
sg583
I35
sg858
g1918
sg66
VAGT_PT_1_35
p1952
sba(iconstruction
TP_REL
p1953
(dp1954
g857
g1924
sg85
g708
sg583
I36
sg858
g1918
sg66
VAGT_PT_2_36
p1955
sbasg583
I27
sg66
g1670
sbsg1765
(iconstruction
TP_SYNFORM
p1956
(dp1957
g583
I28
sg1768
(lp1958
(iconstruction
TP_SLOT
p1959
(dp1960
g1772
(lp1961
VNP
p1962
aVN
p1963
asg1775
I0
sg583
I37
sg66
g1907
sba(iconstruction
TP_PHON
p1964
(dp1965
g1778
I3
sg1775
I1
sg583
I38
sg1779
Vand
p1966
sg66
VS2_38
p1967
sba(iconstruction
TP_SLOT
p1968
(dp1969
g1772
(lp1970
VNP
p1971
aVN
p1972
asg1775
I2
sg583
I39
sg66
g1909
sba(iconstruction
TP_SLOT
p1973
(dp1974
g1772
(lp1975
VVP
p1976
aVV
p1977
asg1775
I3
sg583
I40
sg66
g1905
sbasg66
g1670
sbsg1786
I1
sba(iconstruction
CXN
p1978
(dp1979
g1728
(iconstruction
TP_SYMLINKS
p1980
(dp1981
g1731
(dp1982
VAGT_46
p1983
VS1_51
p1984
sVACT_45
p1985
VS2_52
p1986
sVPT_47
p1987
VS3_53
p1988
ssg583
I43
sg66
g1670
sbsg1737
VS
p1989
sg1739
I2
sg66
VSVO
p1990
sg1740
(iconstruction
TP_SEMFRAME
p1991
(dp1992
g96
g0
(g97
g2
Ntp1993
Rp1994
(dp1995
g101
(dp1996
(iconstruction
TP_NODE
p1997
(dp1998
g1749
I00
sg85
g585
sg66
g1985
sg1750
I01
sg1751
I00
sg583
I45
sb(dp1999
g1750
I01
sg85
g585
ss(iconstruction
TP_NODE
p2000
(dp2001
g1749
I00
sg85
g741
sg66
g1983
sg1750
I01
sg1751
I01
sg583
I46
sb(dp2002
g1750
I01
sg85
g741
ss(iconstruction
TP_NODE
p2003
(dp2004
g1749
I00
sg85
g741
sg66
g1987
sg1750
I01
sg1751
I00
sg583
I47
sb(dp2005
g1750
I01
sg85
g741
ss(iconstruction
TP_NODE
p2006
(dp2007
g1749
I01
sg85
g738
sg66
VEVT_44
p2008
sg1750
I01
sg1751
I00
sg583
I44
sb(dp2009
g1750
I01
sg85
g738
sssg284
g285
sg286
g285
sg287
(dp2010
g1997
(dp2011
g2003
(dp2012
g85
g705
ssg2000
(dp2013
g85
g711
sssg2000
(dp2014
sg2003
(dp2015
sg2006
(dp2016
g1997
(dp2017
g85
g732
ssssg481
g2010
sg96
(dp2018
sg483
g285
sg484
g2010
sg485
(dp2019
g1997
(dp2020
g2006
g2017
ssg2000
(dp2021
g1997
g2013
ssg2003
(dp2022
g1997
g2012
ssg2006
(dp2023
ssbsg578
(lp2024
g2006
ag1997
ag2000
ag2003
asg851
(lp2025
(iconstruction
TP_REL
p2026
(dp2027
g857
g1997
sg85
g732
sg583
I48
sg858
g2006
sg66
VIS_48
p2028
sba(iconstruction
TP_REL
p2029
(dp2030
g857
g2000
sg85
g711
sg583
I49
sg858
g1997
sg66
VACT_AGT_49
p2031
sba(iconstruction
TP_REL
p2032
(dp2033
g857
g2003
sg85
g705
sg583
I50
sg858
g1997
sg66
VACT_PT_50
p2034
sbasg583
I41
sg66
g1670
sbsg1765
(iconstruction
TP_SYNFORM
p2035
(dp2036
g583
I42
sg1768
(lp2037
(iconstruction
TP_SLOT
p2038
(dp2039
g1772
(lp2040
VNP
p2041
aVN
p2042
asg1775
I0
sg583
I51
sg66
g1984
sba(iconstruction
TP_SLOT
p2043
(dp2044
g1772
(lp2045
VVP
p2046
aVV
p2047
asg1775
I1
sg583
I52
sg66
g1986
sba(iconstruction
TP_SLOT
p2048
(dp2049
g1772
(lp2050
VNP
p2051
aVN
p2052
asg1775
I2
sg583
I53
sg66
g1988
sbasg66
g1670
sbsg1786
I1
sba(iconstruction
CXN
p2053
(dp2054
g1728
(iconstruction
TP_SYMLINKS
p2055
(dp2056
g1731
(dp2057
VPT_60
p2058
VS1_64
p2059
sVACT_58
p2060
VS3_66
p2061
sVAGT_59
p2062
VS6_69
p2063
ssg583
I56
sg66
g1670
sbsg1737
VS
p2064
sg1739
I2
sg66
VPAS_SVO
p2065
sg1740
(iconstruction
TP_SEMFRAME
p2066
(dp2067
g96
g0
(g97
g2
Ntp2068
Rp2069
(dp2070
g101
(dp2071
(iconstruction
TP_NODE
p2072
(dp2073
g1749
I00
sg85
g585
sg66
g2060
sg1750
I01
sg1751
I00
sg583
I58
sb(dp2074
g1750
I01
sg85
g585
ss(iconstruction
TP_NODE
p2075
(dp2076
g1749
I00
sg85
g741
sg66
g2062
sg1750
I01
sg1751
I00
sg583
I59
sb(dp2077
g1750
I01
sg85
g741
ss(iconstruction
TP_NODE
p2078
(dp2079
g1749
I01
sg85
g738
sg66
VEVT_57
p2080
sg1750
I01
sg1751
I00
sg583
I57
sb(dp2081
g1750
I01
sg85
g738
ss(iconstruction
TP_NODE
p2082
(dp2083
g1749
I00
sg85
g741
sg66
g2058
sg1750
I01
sg1751
I01
sg583
I60
sb(dp2084
g1750
I01
sg85
g741
sssg284
g285
sg286
g285
sg287
(dp2085
g2072
(dp2086
g2082
(dp2087
g85
g705
ssg2075
(dp2088
g85
g711
sssg2075
(dp2089
sg2078
(dp2090
g2072
(dp2091
g85
g732
sssg2082
(dp2092
ssg481
g2085
sg96
(dp2093
sg483
g285
sg484
g2085
sg485
(dp2094
g2072
(dp2095
g2078
g2091
ssg2075
(dp2096
g2072
g2088
ssg2078
(dp2097
sg2082
(dp2098
g2072
g2087
sssbsg578
(lp2099
g2078
ag2072
ag2075
ag2082
asg851
(lp2100
(iconstruction
TP_REL
p2101
(dp2102
g857
g2072
sg85
g732
sg583
I61
sg858
g2078
sg66
VIS_61
p2103
sba(iconstruction
TP_REL
p2104
(dp2105
g857
g2075
sg85
g711
sg583
I62
sg858
g2072
sg66
VACT_AGT_62
p2106
sba(iconstruction
TP_REL
p2107
(dp2108
g857
g2082
sg85
g705
sg583
I63
sg858
g2072
sg66
VACT_PT_63
p2109
sbasg583
I54
sg66
g1670
sbsg1765
(iconstruction
TP_SYNFORM
p2110
(dp2111
g583
I55
sg1768
(lp2112
(iconstruction
TP_SLOT
p2113
(dp2114
g1772
(lp2115
VNP
p2116
aVN
p2117
asg1775
I0
sg583
I64
sg66
g2059
sba(iconstruction
TP_PHON
p2118
(dp2119
g1778
I2
sg1775
I1
sg583
I65
sg1779
Vis
p2120
sg66
VS2_65
p2121
sba(iconstruction
TP_SLOT
p2122
(dp2123
g1772
(lp2124
VVP
p2125
aVV
p2126
asg1775
I2
sg583
I66
sg66
g2061
sba(iconstruction
TP_PHON
p2127
(dp2128
g1778
I2
sg1775
I3
sg583
I67
sg1779
V-ed
p2129
sg66
VS4_67
p2130
sba(iconstruction
TP_PHON
p2131
(dp2132
g1778
I2
sg1775
I4
sg583
I68
sg1779
Vby
p2133
sg66
VS5_68
p2134
sba(iconstruction
TP_SLOT
p2135
(dp2136
g1772
(lp2137
VNP
p2138
aVN
p2139
asg1775
I5
sg583
I69
sg66
g2063
sbasg66
g1670
sbsg1786
I1
sba(iconstruction
CXN
p2140
(dp2141
g1728
(iconstruction
TP_SYMLINKS
p2142
(dp2143
g1731
(dp2144
VACT_74
p2145
VS2_83
p2146
sVRCPT_77
p2147
VS3_84
p2148
sVTHEME_76
p2149
VS4_85
p2150
sVAGT_75
p2151
VS1_82
p2152
ssg583
I72
sg66
g1670
sbsg1737
VS
p2153
sg1739
I2
sg66
VDOUBLE_OBJ
p2154
sg1740
(iconstruction
TP_SEMFRAME
p2155
(dp2156
g96
g0
(g97
g2
Ntp2157
Rp2158
(dp2159
g101
(dp2160
(iconstruction
TP_NODE
p2161
(dp2162
g1749
I00
sg85
g585
sg66
g2145
sg1750
I01
sg1751
I00
sg583
I74
sb(dp2163
g1750
I01
sg85
g585
ss(iconstruction
TP_NODE
p2164
(dp2165
g1749
I00
sg85
g741
sg66
g2151
sg1750
I01
sg1751
I01
sg583
I75
sb(dp2166
g1750
I01
sg85
g741
ss(iconstruction
TP_NODE
p2167
(dp2168
g1749
I00
sg85
g741
sg66
g2147
sg1750
I01
sg1751
I00
sg583
I77
sb(dp2169
g1750
I01
sg85
g741
ss(iconstruction
TP_NODE
p2170
(dp2171
g1749
I01
sg85
g738
sg66
VEVT_73
p2172
sg1750
I01
sg1751
I00
sg583
I73
sb(dp2173
g1750
I01
sg85
g738
ss(iconstruction
TP_NODE
p2174
(dp2175
g1749
I00
sg85
g741
sg66
g2149
sg1750
I01
sg1751
I00
sg583
I76
sb(dp2176
g1750
I01
sg85
g741
sssg284
g285
sg286
g285
sg287
(dp2177
g2161
(dp2178
g2174
(dp2179
g85
g693
ssg2167
(dp2180
g85
g696
ssg2164
(dp2181
g85
g711
sssg2164
(dp2182
sg2167
(dp2183
sg2170
(dp2184
g2161
(dp2185
g85
g732
sssg2174
(dp2186
ssg481
g2177
sg96
(dp2187
sg483
g285
sg484
g2177
sg485
(dp2188
g2161
(dp2189
g2170
g2185
ssg2164
(dp2190
g2161
g2181
ssg2167
(dp2191
g2161
g2180
ssg2170
(dp2192
sg2174
(dp2193
g2161
g2179
sssbsg578
(lp2194
g2170
ag2161
ag2164
ag2174
ag2167
asg851
(lp2195
(iconstruction
TP_REL
p2196
(dp2197
g857
g2161
sg85
g732
sg583
I78
sg858
g2170
sg66
VIS_78
p2198
sba(iconstruction
TP_REL
p2199
(dp2200
g857
g2164
sg85
g711
sg583
I79
sg858
g2161
sg66
VACT_AGT_79
p2201
sba(iconstruction
TP_REL
p2202
(dp2203
g857
g2174
sg85
g693
sg583
I80
sg858
g2161
sg66
VACT_THEME_80
p2204
sba(iconstruction
TP_REL
p2205
(dp2206
g857
g2167
sg85
g696
sg583
I81
sg858
g2161
sg66
VACT_RCPT_81
p2207
sbasg583
I70
sg66
g1670
sbsg1765
(iconstruction
TP_SYNFORM
p2208
(dp2209
g583
I71
sg1768
(lp2210
(iconstruction
TP_SLOT
p2211
(dp2212
g1772
(lp2213
VNP
p2214
aVN
p2215
asg1775
I0
sg583
I82
sg66
g2152
sba(iconstruction
TP_SLOT
p2216
(dp2217
g1772
(lp2218
VVP
p2219
aVV
p2220
asg1775
I1
sg583
I83
sg66
g2146
sba(iconstruction
TP_SLOT
p2221
(dp2222
g1772
(lp2223
VNP
p2224
aVN
p2225
asg1775
I2
sg583
I84
sg66
g2148
sba(iconstruction
TP_SLOT
p2226
(dp2227
g1772
(lp2228
VNP
p2229
aVN
p2230
asg1775
I3
sg583
I85
sg66
g2150
sbasg66
g1670
sbsg1786
I1
sba(iconstruction
CXN
p2231
(dp2232
g1728
(iconstruction
TP_SYMLINKS
p2233
(dp2234
g1731
(dp2235
VAGT_91
p2236
VS1_98
p2237
sVRCPT_93
p2238
VS5_102
p2239
sVACT_90
p2240
VS2_99
p2241
sVTHEME_92
p2242
VS3_100
p2243
ssg583
I88
sg66
g1670
sbsg1737
VS
p2244
sg1739
I2
sg66
VOBLIQUE_DATIVE
p2245
sg1740
(iconstruction
TP_SEMFRAME
p2246
(dp2247
g96
g0
(g97
g2
Ntp2248
Rp2249
(dp2250
g101
(dp2251
(iconstruction
TP_NODE
p2252
(dp2253
g1749
I00
sg85
g633
sg66
g2240
sg1750
I01
sg1751
I00
sg583
I90
sb(dp2254
g1750
I01
sg85
g633
ss(iconstruction
TP_NODE
p2255
(dp2256
g1749
I00
sg85
g741
sg66
g2236
sg1750
I01
sg1751
I01
sg583
I91
sb(dp2257
g1750
I01
sg85
g741
ss(iconstruction
TP_NODE
p2258
(dp2259
g1749
I00
sg85
g741
sg66
g2238
sg1750
I01
sg1751
I00
sg583
I93
sb(dp2260
g1750
I01
sg85
g741
ss(iconstruction
TP_NODE
p2261
(dp2262
g1749
I01
sg85
g738
sg66
VEVT_89
p2263
sg1750
I01
sg1751
I00
sg583
I89
sb(dp2264
g1750
I01
sg85
g738
ss(iconstruction
TP_NODE
p2265
(dp2266
g1749
I00
sg85
g741
sg66
g2242
sg1750
I01
sg1751
I00
sg583
I92
sb(dp2267
g1750
I01
sg85
g741
sssg284
g285
sg286
g285
sg287
(dp2268
g2252
(dp2269
g2265
(dp2270
g85
g693
ssg2258
(dp2271
g85
g696
ssg2255
(dp2272
g85
g711
sssg2255
(dp2273
sg2258
(dp2274
sg2261
(dp2275
g2252
(dp2276
g85
g732
sssg2265
(dp2277
ssg481
g2268
sg96
(dp2278
sg483
g285
sg484
g2268
sg485
(dp2279
g2252
(dp2280
g2261
g2276
ssg2255
(dp2281
g2252
g2272
ssg2258
(dp2282
g2252
g2271
ssg2261
(dp2283
sg2265
(dp2284
g2252
g2270
sssbsg578
(lp2285
g2261
ag2252
ag2255
ag2265
ag2258
asg851
(lp2286
(iconstruction
TP_REL
p2287
(dp2288
g857
g2252
sg85
g732
sg583
I94
sg858
g2261
sg66
VIS_94
p2289
sba(iconstruction
TP_REL
p2290
(dp2291
g857
g2255
sg85
g711
sg583
I95
sg858
g2252
sg66
VACT_AGT_95
p2292
sba(iconstruction
TP_REL
p2293
(dp2294
g857
g2265
sg85
g693
sg583
I96
sg858
g2252
sg66
VACT_THEME_96
p2295
sba(iconstruction
TP_REL
p2296
(dp2297
g857
g2258
sg85
g696
sg583
I97
sg858
g2252
sg66
VACT_RCPT_97
p2298
sbasg583
I86
sg66
g1670
sbsg1765
(iconstruction
TP_SYNFORM
p2299
(dp2300
g583
I87
sg1768
(lp2301
(iconstruction
TP_SLOT
p2302
(dp2303
g1772
(lp2304
VNP
p2305
aVN
p2306
asg1775
I0
sg583
I98
sg66
g2237
sba(iconstruction
TP_SLOT
p2307
(dp2308
g1772
(lp2309
VVP
p2310
aVV
p2311
asg1775
I1
sg583
I99
sg66
g2241
sba(iconstruction
TP_SLOT
p2312
(dp2313
g1772
(lp2314
VNP
p2315
aVN
p2316
asg1775
I2
sg583
I100
sg66
g2243
sba(iconstruction
TP_PHON
p2317
(dp2318
g1778
I2
sg1775
I3
sg583
I101
sg1779
Vto
p2319
sg66
VS4_101
p2320
sba(iconstruction
TP_SLOT
p2321
(dp2322
g1772
(lp2323
VNP
p2324
aVN
p2325
asg1775
I4
sg583
I102
sg66
g2239
sbasg66
g1670
sbsg1786
I1
sba(iconstruction
CXN
p2326
(dp2327
g1728
(iconstruction
TP_SYMLINKS
p2328
(dp2329
g1731
(dp2330
VATTR_108
p2331
VS3_113
p2332
sVENT_107
p2333
VS1_111
p2334
ssg583
I105
sg66
g1670
sbsg1737
VS
p2335
sg1739
I2
sg66
VSPA
p2336
sg1740
(iconstruction
TP_SEMFRAME
p2337
(dp2338
g96
g0
(g97
g2
Ntp2339
Rp2340
(dp2341
g101
(dp2342
(iconstruction
TP_NODE
p2343
(dp2344
g1749
I00
sg85
g741
sg66
g2333
sg1750
I01
sg1751
I01
sg583
I107
sb(dp2345
g1750
I01
sg85
g741
ss(iconstruction
TP_NODE
p2346
(dp2347
g1749
I00
sg85
g642
sg66
g2331
sg1750
I00
sg1751
I00
sg583
I108
sb(dp2348
g1750
I00
sg85
g642
ss(iconstruction
TP_NODE
p2349
(dp2350
g1749
I01
sg85
g738
sg66
VEVT_106
p2351
sg1750
I01
sg1751
I00
sg583
I106
sb(dp2352
g1750
I01
sg85
g738
sssg284
g285
sg286
g285
sg287
(dp2353
g2343
(dp2354
sg2346
(dp2355
sg2349
(dp2356
g2343
(dp2357
g85
g732
ssg2346
(dp2358
g85
g690
ssssg481
g2353
sg96
(dp2359
sg483
g285
sg484
g2353
sg485
(dp2360
g2343
(dp2361
g2349
g2357
ssg2346
(dp2362
g2349
g2358
ssg2349
(dp2363
ssbsg578
(lp2364
g2349
ag2343
ag2346
asg851
(lp2365
(iconstruction
TP_REL
p2366
(dp2367
g857
g2343
sg85
g732
sg583
I109
sg858
g2349
sg66
VIS_109
p2368
sba(iconstruction
TP_REL
p2369
(dp2370
g857
g2346
sg85
g690
sg583
I110
sg858
g2349
sg66
VEVT_ATTR_110
p2371
sbasg583
I103
sg66
g1670
sbsg1765
(iconstruction
TP_SYNFORM
p2372
(dp2373
g583
I104
sg1768
(lp2374
(iconstruction
TP_SLOT
p2375
(dp2376
g1772
(lp2377
VNP
p2378
aVN
p2379
asg1775
I0
sg583
I111
sg66
g2334
sba(iconstruction
TP_PHON
p2380
(dp2381
g1778
I2
sg1775
I1
sg583
I112
sg1779
Vis
p2382
sg66
VS2_112
p2383
sba(iconstruction
TP_SLOT
p2384
(dp2385
g1772
(lp2386
VA
p2387
asg1775
I2
sg583
I113
sg66
g2332
sbasg66
g1670
sbsg1786
I1
sba(iconstruction
CXN
p2388
(dp2389
g1728
(iconstruction
TP_SYMLINKS
p2390
(dp2391
g1731
(dp2392
VAGT_119
p2393
VS1_122
p2394
sVACT_118
p2395
VS2_123
p2396
ssg583
I116
sg66
g1670
sbsg1737
VS
p2397
sg1739
I2
sg66
VSV
p2398
sg1740
(iconstruction
TP_SEMFRAME
p2399
(dp2400
g96
g0
(g97
g2
Ntp2401
Rp2402
(dp2403
g101
(dp2404
(iconstruction
TP_NODE
p2405
(dp2406
g1749
I01
sg85
g738
sg66
VEVT_117
p2407
sg1750
I01
sg1751
I00
sg583
I117
sb(dp2408
g1750
I01
sg85
g738
ss(iconstruction
TP_NODE
p2409
(dp2410
g1749
I00
sg85
g741
sg66
g2393
sg1750
I01
sg1751
I01
sg583
I119
sb(dp2411
g1750
I01
sg85
g741
ss(iconstruction
TP_NODE
p2412
(dp2413
g1749
I00
sg85
g597
sg66
g2395
sg1750
I01
sg1751
I00
sg583
I118
sb(dp2414
g1750
I01
sg85
g597
sssg284
g285
sg286
g285
sg287
(dp2415
g2405
(dp2416
g2412
(dp2417
g85
g732
sssg2409
(dp2418
sg2412
(dp2419
g2409
(dp2420
g85
g711
ssssg481
g2415
sg96
(dp2421
sg483
g285
sg484
g2415
sg485
(dp2422
g2405
(dp2423
sg2409
(dp2424
g2412
g2420
ssg2412
(dp2425
g2405
g2417
sssbsg578
(lp2426
g2405
ag2412
ag2409
asg851
(lp2427
(iconstruction
TP_REL
p2428
(dp2429
g857
g2412
sg85
g732
sg583
I120
sg858
g2405
sg66
VIS_120
p2430
sba(iconstruction
TP_REL
p2431
(dp2432
g857
g2409
sg85
g711
sg583
I121
sg858
g2412
sg66
VACT_AGT_121
p2433
sbasg583
I114
sg66
g1670
sbsg1765
(iconstruction
TP_SYNFORM
p2434
(dp2435
g583
I115
sg1768
(lp2436
(iconstruction
TP_SLOT
p2437
(dp2438
g1772
(lp2439
VNP
p2440
aVN
p2441
asg1775
I0
sg583
I122
sg66
g2394
sba(iconstruction
TP_SLOT
p2442
(dp2443
g1772
(lp2444
VVP
p2445
aVV
p2446
asg1775
I1
sg583
I123
sg66
g2396
sbasg66
g1670
sbsg1786
I1
sba(iconstruction
CXN
p2447
(dp2448
g1728
(iconstruction
TP_SYMLINKS
p2449
(dp2450
g1731
(dp2451
VEVT_127
p2452
VS1_130
p2453
sVPLACE_128
p2454
VS3_132
p2455
ssg583
I126
sg66
g1670
sbsg1737
VS
p2456
sg1739
I2
sg66
VPP_IN
p2457
sg1740
(iconstruction
TP_SEMFRAME
p2458
(dp2459
g96
g0
(g97
g2
Ntp2460
Rp2461
(dp2462
g101
(dp2463
(iconstruction
TP_NODE
p2464
(dp2465
g1749
I01
sg85
g738
sg66
g2452
sg1750
I01
sg1751
I00
sg583
I127
sb(dp2466
g1750
I01
sg85
g738
ss(iconstruction
TP_NODE
p2467
(dp2468
g1749
I00
sg85
g741
sg66
g2454
sg1750
I01
sg1751
I00
sg583
I128
sb(dp2469
g1750
I01
sg85
g741
sssg284
g285
sg286
g285
sg287
(dp2470
g2464
(dp2471
g2467
(dp2472
g85
g729
sssg2467
(dp2473
ssg481
g2470
sg96
(dp2474
sg483
g285
sg484
g2470
sg485
(dp2475
g2464
(dp2476
sg2467
(dp2477
g2464
g2472
sssbsg578
(lp2478
g2464
ag2467
asg851
(lp2479
(iconstruction
TP_REL
p2480
(dp2481
g857
g2467
sg85
g729
sg583
I129
sg858
g2464
sg66
VEVT_PP_129
p2482
sbasg583
I124
sg66
g1670
sbsg1765
(iconstruction
TP_SYNFORM
p2483
(dp2484
g583
I125
sg1768
(lp2485
(iconstruction
TP_SLOT
p2486
(dp2487
g1772
(lp2488
VS
p2489
asg1775
I0
sg583
I130
sg66
g2453
sba(iconstruction
TP_PHON
p2490
(dp2491
g1778
I2
sg1775
I1
sg583
I131
sg1779
Vin
p2492
sg66
VS2_131
p2493
sba(iconstruction
TP_SLOT
p2494
(dp2495
g1772
(lp2496
VNP
p2497
aVN
p2498
asg1775
I2
sg583
I132
sg66
g2455
sbasg66
g1670
sbsg1786
I1
sba(iconstruction
CXN
p2499
(dp2500
g1728
(iconstruction
TP_SYMLINKS
p2501
(dp2502
g1731
(dp2503
VEVT2_137
p2504
VS2_140
p2505
sVEVT1_136
p2506
VS1_139
p2507
ssg583
I135
sg66
g1670
sbsg1737
VS
p2508
sg1739
I2
sg66
VS_PP
p2509
sg1740
(iconstruction
TP_SEMFRAME
p2510
(dp2511
g96
g0
(g97
g2
Ntp2512
Rp2513
(dp2514
g101
(dp2515
(iconstruction
TP_NODE
p2516
(dp2517
g1749
I00
sg85
g738
sg66
g2504
sg1750
I01
sg1751
I00
sg583
I137
sb(dp2518
g1750
I01
sg85
g738
ss(iconstruction
TP_NODE
p2519
(dp2520
g1749
I01
sg85
g738
sg66
g2506
sg1750
I01
sg1751
I01
sg583
I136
sb(dp2521
g1750
I01
sg85
g738
sssg284
g285
sg286
g285
sg287
(dp2522
g2516
(dp2523
sg2519
(dp2524
g2516
(dp2525
g85
g690
ssssg481
g2522
sg96
(dp2526
sg483
g285
sg484
g2522
sg485
(dp2527
g2516
(dp2528
g2519
g2525
ssg2519
(dp2529
ssbsg578
(lp2530
g2519
ag2516
asg851
(lp2531
(iconstruction
TP_REL
p2532
(dp2533
g857
g2516
sg85
g690
sg583
I138
sg858
g2519
sg66
VMOD_138
p2534
sbasg583
I133
sg66
g1670
sbsg1765
(iconstruction
TP_SYNFORM
p2535
(dp2536
g583
I134
sg1768
(lp2537
(iconstruction
TP_SLOT
p2538
(dp2539
g1772
(lp2540
VS
p2541
asg1775
I0
sg583
I139
sg66
g2507
sba(iconstruction
TP_SLOT
p2542
(dp2543
g1772
(lp2544
VPP
p2545
asg1775
I1
sg583
I140
sg66
g2505
sbasg66
g1670
sbsg1786
I1
sba(iconstruction
CXN
p2546
(dp2547
g1728
(iconstruction
TP_SYMLINKS
p2548
(dp2549
g1731
(dp2550
VENT_144
p2551
VS2_148
p2552
sVATTR_145
p2553
VS1_147
p2554
ssg583
I143
sg66
g1670
sbsg1737
VN
p2555
sg1739
I2
sg66
VADJUNCT_N
p2556
sg1740
(iconstruction
TP_SEMFRAME
p2557
(dp2558
g96
g0
(g97
g2
Ntp2559
Rp2560
(dp2561
g101
(dp2562
(iconstruction
TP_NODE
p2563
(dp2564
g1749
I00
sg85
g642
sg66
g2553
sg1750
I00
sg1751
I00
sg583
I145
sb(dp2565
g1750
I00
sg85
g642
ss(iconstruction
TP_NODE
p2566
(dp2567
g1749
I01
sg85
g741
sg66
g2551
sg1750
I01
sg1751
I00
sg583
I144
sb(dp2568
g1750
I01
sg85
g741
sssg284
g285
sg286
g285
sg287
(dp2569
g2563
(dp2570
sg2566
(dp2571
g2563
(dp2572
g85
g690
ssssg481
g2569
sg96
(dp2573
sg483
g285
sg484
g2569
sg485
(dp2574
g2563
(dp2575
g2566
g2572
ssg2566
(dp2576
ssbsg578
(lp2577
g2566
ag2563
asg851
(lp2578
(iconstruction
TP_REL
p2579
(dp2580
g857
g2563
sg85
g690
sg583
I146
sg858
g2566
sg66
VENT_ATTR_146
p2581
sbasg583
I141
sg66
g1670
sbsg1765
(iconstruction
TP_SYNFORM
p2582
(dp2583
g583
I142
sg1768
(lp2584
(iconstruction
TP_SLOT
p2585
(dp2586
g1772
(lp2587
VA
p2588
asg1775
I0
sg583
I147
sg66
g2554
sba(iconstruction
TP_SLOT
p2589
(dp2590
g1772
(lp2591
VN
p2592
asg1775
I1
sg583
I148
sg66
g2552
sbasg66
g1670
sbsg1786
I1
sba(iconstruction
CXN
p2593
(dp2594
g1728
(iconstruction
TP_SYMLINKS
p2595
(dp2596
g1731
(dp2597
VAGT_154
p2598
VS1_160
p2599
sVACT_153
p2600
VS3_162
p2601
sVPT_155
p2602
VS4_163
p2603
ssg583
I151
sg66
g1670
sbsg1737
VN
p2604
sg1739
I2
sg66
VSUBJ_REL_SVO
p2605
sg1740
(iconstruction
TP_SEMFRAME
p2606
(dp2607
g96
g0
(g97
g2
Ntp2608
Rp2609
(dp2610
g101
(dp2611
(iconstruction
TP_NODE
p2612
(dp2613
g1749
I00
sg85
g738
sg66
VEVT_152
p2614
sg1750
I01
sg1751
I00
sg583
I152
sb(dp2615
g1750
I01
sg85
g738
ss(iconstruction
TP_NODE
p2616
(dp2617
g1749
I01
sg85
g741
sg66
g2598
sg1750
I01
sg1751
I00
sg583
I154
sb(dp2618
g1750
I01
sg85
g741
ss(iconstruction
TP_NODE
p2619
(dp2620
g1749
I00
sg85
g603
sg66
g2600
sg1750
I01
sg1751
I01
sg583
I153
sb(dp2621
g1750
I01
sg85
g603
ss(iconstruction
TP_NODE
p2622
(dp2623
g1749
I00
sg85
g741
sg66
g2602
sg1750
I01
sg1751
I00
sg583
I155
sb(dp2624
g1750
I01
sg85
g741
sssg284
g285
sg286
g285
sg287
(dp2625
g2612
(dp2626
g2619
(dp2627
g85
g732
sssg2616
(dp2628
g2612
(dp2629
g85
g690
sssg2619
(dp2630
g2616
(dp2631
g85
g711
ssg2622
(dp2632
g85
g705
sssg2622
(dp2633
ssg481
g2625
sg96
(dp2634
sg483
g285
sg484
g2625
sg485
(dp2635
g2612
(dp2636
g2616
g2629
ssg2616
(dp2637
g2619
g2631
ssg2619
(dp2638
g2612
g2627
ssg2622
(dp2639
g2619
g2632
sssbsg578
(lp2640
g2612
ag2619
ag2616
ag2622
asg851
(lp2641
(iconstruction
TP_REL
p2642
(dp2643
g857
g2619
sg85
g732
sg583
I156
sg858
g2612
sg66
VIS_156
p2644
sba(iconstruction
TP_REL
p2645
(dp2646
g857
g2616
sg85
g711
sg583
I157
sg858
g2619
sg66
VACT_AGT_157
p2647
sba(iconstruction
TP_REL
p2648
(dp2649
g857
g2622
sg85
g705
sg583
I158
sg858
g2619
sg66
VACT_PT_158
p2650
sba(iconstruction
TP_REL
p2651
(dp2652
g857
g2612
sg85
g690
sg583
I159
sg858
g2616
sg66
VAGT_EVT_159
p2653
sbasg583
I149
sg66
g1670
sbsg1765
(iconstruction
TP_SYNFORM
p2654
(dp2655
g583
I150
sg1768
(lp2656
(iconstruction
TP_SLOT
p2657
(dp2658
g1772
(lp2659
VN
p2660
asg1775
I0
sg583
I160
sg66
g2599
sba(iconstruction
TP_PHON
p2661
(dp2662
g1778
I4
sg1775
I1
sg583
I161
sg1779
Vthat
p2663
sg66
VS2_161
p2664
sba(iconstruction
TP_SLOT
p2665
(dp2666
g1772
(lp2667
VVP
p2668
aVV
p2669
asg1775
I2
sg583
I162
sg66
g2601
sba(iconstruction
TP_SLOT
p2670
(dp2671
g1772
(lp2672
VNP
p2673
aVN
p2674
asg1775
I3
sg583
I163
sg66
g2603
sbasg66
g1670
sbsg1786
I1
sba(iconstruction
CXN
p2675
(dp2676
g1728
(iconstruction
TP_SYMLINKS
p2677
(dp2678
g1731
(dp2679
VAGT_169
p2680
VS1_173
p2681
sVACT_168
p2682
VS3_175
p2683
ssg583
I166
sg66
g1670
sbsg1737
VN
p2684
sg1739
I2
sg66
VSUBJ_REL_SV
p2685
sg1740
(iconstruction
TP_SEMFRAME
p2686
(dp2687
g96
g0
(g97
g2
Ntp2688
Rp2689
(dp2690
g101
(dp2691
(iconstruction
TP_NODE
p2692
(dp2693
g1749
I00
sg85
g585
sg66
g2682
sg1750
I01
sg1751
I01
sg583
I168
sb(dp2694
g1750
I01
sg85
g585
ss(iconstruction
TP_NODE
p2695
(dp2696
g1749
I01
sg85
g741
sg66
g2680
sg1750
I01
sg1751
I00
sg583
I169
sb(dp2697
g1750
I01
sg85
g741
ss(iconstruction
TP_NODE
p2698
(dp2699
g1749
I00
sg85
g738
sg66
VEVT_167
p2700
sg1750
I01
sg1751
I00
sg583
I167
sb(dp2701
g1750
I01
sg85
g738
sssg284
g285
sg286
g285
sg287
(dp2702
g2692
(dp2703
g2695
(dp2704
g85
g711
sssg2695
(dp2705
g2698
(dp2706
g85
g690
sssg2698
(dp2707
g2692
(dp2708
g85
g732
ssssg481
g2702
sg96
(dp2709
sg483
g285
sg484
g2702
sg485
(dp2710
g2692
(dp2711
g2698
g2708
ssg2695
(dp2712
g2692
g2704
ssg2698
(dp2713
g2695
g2706
sssbsg578
(lp2714
g2698
ag2692
ag2695
asg851
(lp2715
(iconstruction
TP_REL
p2716
(dp2717
g857
g2692
sg85
g732
sg583
I170
sg858
g2698
sg66
VIS_170
p2718
sba(iconstruction
TP_REL
p2719
(dp2720
g857
g2695
sg85
g711
sg583
I171
sg858
g2692
sg66
VACT_AGT_171
p2721
sba(iconstruction
TP_REL
p2722
(dp2723
g857
g2698
sg85
g690
sg583
I172
sg858
g2695
sg66
VAGT_EVT_172
p2724
sbasg583
I164
sg66
g1670
sbsg1765
(iconstruction
TP_SYNFORM
p2725
(dp2726
g583
I165
sg1768
(lp2727
(iconstruction
TP_SLOT
p2728
(dp2729
g1772
(lp2730
VN
p2731
asg1775
I0
sg583
I173
sg66
g2681
sba(iconstruction
TP_PHON
p2732
(dp2733
g1778
I4
sg1775
I1
sg583
I174
sg1779
Vthat
p2734
sg66
VS2_174
p2735
sba(iconstruction
TP_SLOT
p2736
(dp2737
g1772
(lp2738
VVP
p2739
aVV
p2740
asg1775
I2
sg583
I175
sg66
g2683
sbasg66
g1670
sbsg1786
I1
sba(iconstruction
CXN
p2741
(dp2742
g1728
(iconstruction
TP_SYMLINKS
p2743
(dp2744
g1731
(dp2745
VAGT_181
p2746
VS7_193
p2747
sVPT_182
p2748
VS1_187
p2749
sVACT_180
p2750
VS4_190
p2751
ssg583
I178
sg66
g1670
sbsg1737
VN
p2752
sg1739
I2
sg66
VSUBJ_REL_PAS_SVO
p2753
sg1740
(iconstruction
TP_SEMFRAME
p2754
(dp2755
g96
g0
(g97
g2
Ntp2756
Rp2757
(dp2758
g101
(dp2759
(iconstruction
TP_NODE
p2760
(dp2761
g1749
I00
sg85
g585
sg66
g2750
sg1750
I01
sg1751
I01
sg583
I180
sb(dp2762
g1750
I01
sg85
g585
ss(iconstruction
TP_NODE
p2763
(dp2764
g1749
I00
sg85
g741
sg66
g2746
sg1750
I01
sg1751
I00
sg583
I181
sb(dp2765
g1750
I01
sg85
g741
ss(iconstruction
TP_NODE
p2766
(dp2767
g1749
I01
sg85
g741
sg66
g2748
sg1750
I01
sg1751
I00
sg583
I182
sb(dp2768
g1750
I01
sg85
g741
ss(iconstruction
TP_NODE
p2769
(dp2770
g1749
I00
sg85
g738
sg66
VEVT_179
p2771
sg1750
I01
sg1751
I00
sg583
I179
sb(dp2772
g1750
I01
sg85
g738
sssg284
g285
sg286
g285
sg287
(dp2773
g2760
(dp2774
g2766
(dp2775
g85
g705
ssg2763
(dp2776
g85
g711
sssg2763
(dp2777
sg2766
(dp2778
g2769
(dp2779
g85
g690
sssg2769
(dp2780
g2760
(dp2781
g85
g732
ssssg481
g2773
sg96
(dp2782
sg483
g285
sg484
g2773
sg485
(dp2783
g2760
(dp2784
g2769
g2781
ssg2763
(dp2785
g2760
g2776
ssg2766
(dp2786
g2760
g2775
ssg2769
(dp2787
g2766
g2779
sssbsg578
(lp2788
g2769
ag2760
ag2763
ag2766
asg851
(lp2789
(iconstruction
TP_REL
p2790
(dp2791
g857
g2760
sg85
g732
sg583
I183
sg858
g2769
sg66
VIS_183
p2792
sba(iconstruction
TP_REL
p2793
(dp2794
g857
g2763
sg85
g711
sg583
I184
sg858
g2760
sg66
VACT_AGT_184
p2795
sba(iconstruction
TP_REL
p2796
(dp2797
g857
g2766
sg85
g705
sg583
I185
sg858
g2760
sg66
VACT_PT_185
p2798
sba(iconstruction
TP_REL
p2799
(dp2800
g857
g2769
sg85
g690
sg583
I186
sg858
g2766
sg66
VPT_EVT_186
p2801
sbasg583
I176
sg66
g1670
sbsg1765
(iconstruction
TP_SYNFORM
p2802
(dp2803
g583
I177
sg1768
(lp2804
(iconstruction
TP_SLOT
p2805
(dp2806
g1772
(lp2807
VN
p2808
asg1775
I0
sg583
I187
sg66
g2749
sba(iconstruction
TP_PHON
p2809
(dp2810
g1778
I4
sg1775
I1
sg583
I188
sg1779
Vthat
p2811
sg66
VS2_188
p2812
sba(iconstruction
TP_PHON
p2813
(dp2814
g1778
I2
sg1775
I2
sg583
I189
sg1779
Vis
p2815
sg66
VS3_189
p2816
sba(iconstruction
TP_SLOT
p2817
(dp2818
g1772
(lp2819
VVP
p2820
aVV
p2821
asg1775
I3
sg583
I190
sg66
g2751
sba(iconstruction
TP_PHON
p2822
(dp2823
g1778
I2
sg1775
I4
sg583
I191
sg1779
V-ed
p2824
sg66
VS5_191
p2825
sba(iconstruction
TP_PHON
p2826
(dp2827
g1778
I2
sg1775
I5
sg583
I192
sg1779
Vby
p2828
sg66
VS6_192
p2829
sba(iconstruction
TP_SLOT
p2830
(dp2831
g1772
(lp2832
VNP
p2833
aVN
p2834
asg1775
I6
sg583
I193
sg66
g2747
sbasg66
g1670
sbsg1786
I1
sba(iconstruction
CXN
p2835
(dp2836
g1728
(iconstruction
TP_SYMLINKS
p2837
(dp2838
g1731
(dp2839
VAGT_199
p2840
VS3_207
p2841
sVACT_198
p2842
VS4_208
p2843
sVPT_200
p2844
VS1_205
p2845
ssg583
I196
sg66
g1670
sbsg1737
VN
p2846
sg1739
I2
sg66
VOBJ_REL_SVO
p2847
sg1740
(iconstruction
TP_SEMFRAME
p2848
(dp2849
g96
g0
(g97
g2
Ntp2850
Rp2851
(dp2852
g101
(dp2853
(iconstruction
TP_NODE
p2854
(dp2855
g1749
I00
sg85
g741
sg66
g2840
sg1750
I01
sg1751
I00
sg583
I199
sb(dp2856
g1750
I01
sg85
g741
ss(iconstruction
TP_NODE
p2857
(dp2858
g1749
I00
sg85
g585
sg66
g2842
sg1750
I01
sg1751
I01
sg583
I198
sb(dp2859
g1750
I01
sg85
g585
ss(iconstruction
TP_NODE
p2860
(dp2861
g1749
I00
sg85
g738
sg66
VEVT_197
p2862
sg1750
I01
sg1751
I00
sg583
I197
sb(dp2863
g1750
I01
sg85
g738
ss(iconstruction
TP_NODE
p2864
(dp2865
g1749
I01
sg85
g741
sg66
g2844
sg1750
I01
sg1751
I00
sg583
I200
sb(dp2866
g1750
I01
sg85
g741
sssg284
g285
sg286
g285
sg287
(dp2867
g2854
(dp2868
sg2857
(dp2869
g2854
(dp2870
g85
g711
ssg2864
(dp2871
g85
g705
sssg2860
(dp2872
g2857
(dp2873
g85
g732
sssg2864
(dp2874
g2860
(dp2875
g85
g690
ssssg481
g2867
sg96
(dp2876
sg483
g285
sg484
g2867
sg485
(dp2877
g2854
(dp2878
g2857
g2870
ssg2857
(dp2879
g2860
g2873
ssg2860
(dp2880
g2864
g2875
ssg2864
(dp2881
g2857
g2871
sssbsg578
(lp2882
g2860
ag2857
ag2854
ag2864
asg851
(lp2883
(iconstruction
TP_REL
p2884
(dp2885
g857
g2857
sg85
g732
sg583
I201
sg858
g2860
sg66
VIS_201
p2886
sba(iconstruction
TP_REL
p2887
(dp2888
g857
g2854
sg85
g711
sg583
I202
sg858
g2857
sg66
VACT_AGT_202
p2889
sba(iconstruction
TP_REL
p2890
(dp2891
g857
g2864
sg85
g705
sg583
I203
sg858
g2857
sg66
VACT_PT_203
p2892
sba(iconstruction
TP_REL
p2893
(dp2894
g857
g2860
sg85
g690
sg583
I204
sg858
g2864
sg66
VPT_EVT_204
p2895
sbasg583
I194
sg66
g1670
sbsg1765
(iconstruction
TP_SYNFORM
p2896
(dp2897
g583
I195
sg1768
(lp2898
(iconstruction
TP_SLOT
p2899
(dp2900
g1772
(lp2901
VN
p2902
asg1775
I0
sg583
I205
sg66
g2845
sba(iconstruction
TP_PHON
p2903
(dp2904
g1778
I4
sg1775
I1
sg583
I206
sg1779
Vthat
p2905
sg66
VS2_206
p2906
sba(iconstruction
TP_SLOT
p2907
(dp2908
g1772
(lp2909
VNP
p2910
aVN
p2911
asg1775
I2
sg583
I207
sg66
g2841
sba(iconstruction
TP_SLOT
p2912
(dp2913
g1772
(lp2914
VVP
p2915
aVV
p2916
asg1775
I3
sg583
I208
sg66
g2843
sbasg66
g1670
sbsg1786
I1
sba(iconstruction
CXN
p2917
(dp2918
g1728
(iconstruction
TP_SYMLINKS
p2919
(dp2920
g1731
(dp2921
VPT_215
p2922
VS3_222
p2923
sVACT_213
p2924
VS5_224
p2925
sVAGT_214
p2926
VS1_220
p2927
ssg583
I211
sg66
g1670
sbsg1737
VN
p2928
sg1739
I2
sg66
VOBJ_REL_PAS_SVO
p2929
sg1740
(iconstruction
TP_SEMFRAME
p2930
(dp2931
g96
g0
(g97
g2
Ntp2932
Rp2933
(dp2934
g101
(dp2935
(iconstruction
TP_NODE
p2936
(dp2937
g1749
I00
sg85
g585
sg66
g2924
sg1750
I01
sg1751
I01
sg583
I213
sb(dp2938
g1750
I01
sg85
g585
ss(iconstruction
TP_NODE
p2939
(dp2940
g1749
I01
sg85
g741
sg66
g2926
sg1750
I01
sg1751
I00
sg583
I214
sb(dp2941
g1750
I01
sg85
g741
ss(iconstruction
TP_NODE
p2942
(dp2943
g1749
I00
sg85
g738
sg66
VEVT_212
p2944
sg1750
I01
sg1751
I00
sg583
I212
sb(dp2945
g1750
I01
sg85
g738
ss(iconstruction
TP_NODE
p2946
(dp2947
g1749
I00
sg85
g741
sg66
g2922
sg1750
I01
sg1751
I00
sg583
I215
sb(dp2948
g1750
I01
sg85
g741
sssg284
g285
sg286
g285
sg287
(dp2949
g2936
(dp2950
g2946
(dp2951
g85
g705
ssg2939
(dp2952
g85
g711
sssg2939
(dp2953
g2942
(dp2954
g85
g690
sssg2942
(dp2955
g2936
(dp2956
g85
g732
sssg2946
(dp2957
ssg481
g2949
sg96
(dp2958
sg483
g285
sg484
g2949
sg485
(dp2959
g2936
(dp2960
g2942
g2956
ssg2939
(dp2961
g2936
g2952
ssg2942
(dp2962
g2939
g2954
ssg2946
(dp2963
g2936
g2951
sssbsg578
(lp2964
g2942
ag2936
ag2939
ag2946
asg851
(lp2965
(iconstruction
TP_REL
p2966
(dp2967
g857
g2936
sg85
g732
sg583
I216
sg858
g2942
sg66
VIS_216
p2968
sba(iconstruction
TP_REL
p2969
(dp2970
g857
g2939
sg85
g711
sg583
I217
sg858
g2936
sg66
VACT_AGT_217
p2971
sba(iconstruction
TP_REL
p2972
(dp2973
g857
g2946
sg85
g705
sg583
I218
sg858
g2936
sg66
VACT_PT_218
p2974
sba(iconstruction
TP_REL
p2975
(dp2976
g857
g2942
sg85
g690
sg583
I219
sg858
g2939
sg66
VAGT_EVT_219
p2977
sbasg583
I209
sg66
g1670
sbsg1765
(iconstruction
TP_SYNFORM
p2978
(dp2979
g583
I210
sg1768
(lp2980
(iconstruction
TP_SLOT
p2981
(dp2982
g1772
(lp2983
VN
p2984
asg1775
I0
sg583
I220
sg66
g2927
sba(iconstruction
TP_PHON
p2985
(dp2986
g1778
I4
sg1775
I1
sg583
I221
sg1779
Vthat
p2987
sg66
VS2_221
p2988
sba(iconstruction
TP_SLOT
p2989
(dp2990
g1772
(lp2991
VNP
p2992
aVN
p2993
asg1775
I2
sg583
I222
sg66
g2923
sba(iconstruction
TP_PHON
p2994
(dp2995
g1778
I2
sg1775
I3
sg583
I223
sg1779
Vis
p2996
sg66
VS4_223
p2997
sba(iconstruction
TP_SLOT
p2998
(dp2999
g1772
(lp3000
VVP
p3001
aVV
p3002
asg1775
I4
sg583
I224
sg66
g2925
sba(iconstruction
TP_PHON
p3003
(dp3004
g1778
I2
sg1775
I5
sg583
I225
sg1779
V-ed
p3005
sg66
VS6_225
p3006
sba(iconstruction
TP_PHON
p3007
(dp3008
g1778
I2
sg1775
I6
sg583
I226
sg1779
Vby
p3009
sg66
VS7_226
p3010
sbasg66
g1670
sbsg1786
I1
sba(iconstruction
CXN
p3011
(dp3012
g1728
(iconstruction
TP_SYMLINKS
p3013
(dp3014
g1731
(dp3015
VATTR_232
p3016
VS4_238
p3017
sVENT_231
p3018
VS1_235
p3019
ssg583
I229
sg66
g1670
sbsg1737
VN
p3020
sg1739
I2
sg66
VREL_SPA
p3021
sg1740
(iconstruction
TP_SEMFRAME
p3022
(dp3023
g96
g0
(g97
g2
Ntp3024
Rp3025
(dp3026
g101
(dp3027
(iconstruction
TP_NODE
p3028
(dp3029
g1749
I01
sg85
g741
sg66
g3018
sg1750
I01
sg1751
I01
sg583
I231
sb(dp3030
g1750
I01
sg85
g741
ss(iconstruction
TP_NODE
p3031
(dp3032
g1749
I00
sg85
g642
sg66
g3016
sg1750
I00
sg1751
I00
sg583
I232
sb(dp3033
g1750
I00
sg85
g642
ss(iconstruction
TP_NODE
p3034
(dp3035
g1749
I00
sg85
g738
sg66
VEVT_230
p3036
sg1750
I01
sg1751
I00
sg583
I230
sb(dp3037
g1750
I01
sg85
g738
sssg284
g285
sg286
g285
sg287
(dp3038
g3028
(dp3039
sg3031
(dp3040
sg3034
(dp3041
g3028
(dp3042
g85
g732
ssg3031
(dp3043
g85
g690
ssssg481
g3038
sg96
(dp3044
sg483
g285
sg484
g3038
sg485
(dp3045
g3028
(dp3046
g3034
g3042
ssg3031
(dp3047
g3034
g3043
ssg3034
(dp3048
ssbsg578
(lp3049
g3034
ag3028
ag3031
asg851
(lp3050
(iconstruction
TP_REL
p3051
(dp3052
g857
g3028
sg85
g732
sg583
I233
sg858
g3034
sg66
VIS_233
p3053
sba(iconstruction
TP_REL
p3054
(dp3055
g857
g3031
sg85
g690
sg583
I234
sg858
g3034
sg66
VEVT_ATTR_234
p3056
sbasg583
I227
sg66
g1670
sbsg1765
(iconstruction
TP_SYNFORM
p3057
(dp3058
g583
I228
sg1768
(lp3059
(iconstruction
TP_SLOT
p3060
(dp3061
g1772
(lp3062
VN
p3063
asg1775
I0
sg583
I235
sg66
g3019
sba(iconstruction
TP_PHON
p3064
(dp3065
g1778
I4
sg1775
I1
sg583
I236
sg1779
Vthat
p3066
sg66
VS2_236
p3067
sba(iconstruction
TP_PHON
p3068
(dp3069
g1778
I2
sg1775
I2
sg583
I237
sg1779
Vis
p3070
sg66
VS3_237
p3071
sba(iconstruction
TP_SLOT
p3072
(dp3073
g1772
(lp3074
VA
p3075
asg1775
I3
sg583
I238
sg66
g3017
sbasg66
g1670
sbsg1786
I1
sba(iconstruction
CXN
p3076
(dp3077
g1728
(iconstruction
TP_SYMLINKS
p3078
(dp3079
g1731
(dp3080
VAGT_244
p3081
VS1_251
p3082
sVCOLOR_246
p3083
VS3_253
p3084
ssg583
I241
sg66
g1670
sbsg1737
VN
p3085
sg1739
I2
sg66
VIN_COLOR
p3086
sg1740
(iconstruction
TP_SEMFRAME
p3087
(dp3088
g96
g0
(g97
g2
Ntp3089
Rp3090
(dp3091
g101
(dp3092
(iconstruction
TP_NODE
p3093
(dp3094
g1749
I00
sg85
g630
sg66
VACT_243
p3095
sg1750
I01
sg1751
I00
sg583
I243
sb(dp3096
g1750
I01
sg85
g630
ss(iconstruction
TP_NODE
p3097
(dp3098
g1749
I01
sg85
g750
sg66
g3081
sg1750
I01
sg1751
I00
sg583
I244
sb(dp3099
g1750
I01
sg85
g750
ss(iconstruction
TP_NODE
p3100
(dp3101
g1749
I00
sg85
g645
sg66
g3083
sg1750
I00
sg1751
I01
sg583
I246
sb(dp3102
g1750
I00
sg85
g645
ss(iconstruction
TP_NODE
p3103
(dp3104
g1749
I00
sg85
g738
sg66
VEVT_242
p3105
sg1750
I01
sg1751
I00
sg583
I242
sb(dp3106
g1750
I01
sg85
g738
ss(iconstruction
TP_NODE
p3107
(dp3108
g1749
I00
sg85
g780
sg66
VPT_245
p3109
sg1750
I01
sg1751
I00
sg583
I245
sb(dp3110
g1750
I01
sg85
g780
sssg284
g285
sg286
g285
sg287
(dp3111
g3093
(dp3112
g3107
(dp3113
g85
g705
ssg3097
(dp3114
g85
g711
sssg3097
(dp3115
sg3100
(dp3116
sg3103
(dp3117
g3093
(dp3118
g85
g732
sssg3107
(dp3119
g3100
(dp3120
g85
g690
ssssg481
g3111
sg96
(dp3121
sg483
g285
sg484
g3111
sg485
(dp3122
g3093
(dp3123
g3103
g3118
ssg3097
(dp3124
g3093
g3114
ssg3100
(dp3125
g3107
g3120
ssg3103
(dp3126
sg3107
(dp3127
g3093
g3113
sssbsg578
(lp3128
g3103
ag3093
ag3097
ag3107
ag3100
asg851
(lp3129
(iconstruction
TP_REL
p3130
(dp3131
g857
g3093
sg85
g732
sg583
I247
sg858
g3103
sg66
VIS_247
p3132
sba(iconstruction
TP_REL
p3133
(dp3134
g857
g3097
sg85
g711
sg583
I248
sg858
g3093
sg66
VACT_AGT_248
p3135
sba(iconstruction
TP_REL
p3136
(dp3137
g857
g3107
sg85
g705
sg583
I249
sg858
g3093
sg66
VACT_PT_249
p3138
sba(iconstruction
TP_REL
p3139
(dp3140
g857
g3100
sg85
g690
sg583
I250
sg858
g3107
sg66
VPT_COLOR_250
p3141
sbasg583
I239
sg66
g1670
sbsg1765
(iconstruction
TP_SYNFORM
p3142
(dp3143
g583
I240
sg1768
(lp3144
(iconstruction
TP_SLOT
p3145
(dp3146
g1772
(lp3147
VN
p3148
asg1775
I0
sg583
I251
sg66
g3082
sba(iconstruction
TP_PHON
p3149
(dp3150
g1778
I2
sg1775
I1
sg583
I252
sg1779
Vin
p3151
sg66
VS2_252
p3152
sba(iconstruction
TP_SLOT
p3153
(dp3154
g1772
(lp3155
VA
p3156
asg1775
I2
sg583
I253
sg66
g3084
sbasg66
g1670
sbsg1786
I1
sba(iconstruction
CXN
p3157
(dp3158
g1728
(iconstruction
TP_SYMLINKS
p3159
(dp3160
g1731
(dp3161
VN1_258
p3162
VS1_260
p3163
ssg583
I256
sg66
g1670
sbsg1737
VV
p3164
sg1739
I1
sg66
VHIT
p3165
sg1740
(iconstruction
TP_SEMFRAME
p3166
(dp3167
g96
g0
(g97
g2
Ntp3168
Rp3169
(dp3170
g101
(dp3171
(iconstruction
TP_NODE
p3172
(dp3173
g1749
I00
sg85
g606
sg66
g3162
sg1750
I00
sg1751
I00
sg583
I258
sb(dp3174
g1750
I00
sg85
g606
ss(iconstruction
TP_NODE
p3175
(dp3176
g1749
I01
sg85
g585
sg66
VACT_257
p3177
sg1750
I01
sg1751
I00
sg583
I257
sb(dp3178
g1750
I01
sg85
g585
sssg284
g285
sg286
g285
sg287
(dp3179
g3172
(dp3180
sg3175
(dp3181
g3172
(dp3182
g85
g732
ssssg481
g3179
sg96
(dp3183
sg483
g285
sg484
g3179
sg485
(dp3184
g3172
(dp3185
g3175
g3182
ssg3175
(dp3186
ssbsg578
(lp3187
g3175
ag3172
asg851
(lp3188
(iconstruction
TP_REL
p3189
(dp3190
g857
g3172
sg85
g732
sg583
I259
sg858
g3175
sg66
VIS_259
p3191
sbasg583
I254
sg66
g1670
sbsg1765
(iconstruction
TP_SYNFORM
p3192
(dp3193
g583
I255
sg1768
(lp3194
(iconstruction
TP_PHON
p3195
(dp3196
g1778
I3
sg1775
I0
sg583
I260
sg1779
Vhit
p3197
sg66
g3163
sbasg66
g1670
sbsg1786
I1
sba(iconstruction
CXN
p3198
(dp3199
g1728
(iconstruction
TP_SYMLINKS
p3200
(dp3201
g1731
(dp3202
VN1_265
p3203
VS1_267
p3204
ssg583
I263
sg66
g1670
sbsg1737
VV
p3205
sg1739
I1
sg66
VKICK
p3206
sg1740
(iconstruction
TP_SEMFRAME
p3207
(dp3208
g96
g0
(g97
g2
Ntp3209
Rp3210
(dp3211
g101
(dp3212
(iconstruction
TP_NODE
p3213
(dp3214
g1749
I01
sg85
g585
sg66
VACT_264
p3215
sg1750
I01
sg1751
I00
sg583
I264
sb(dp3216
g1750
I01
sg85
g585
ss(iconstruction
TP_NODE
p3217
(dp3218
g1749
I00
sg85
g627
sg66
g3203
sg1750
I00
sg1751
I00
sg583
I265
sb(dp3219
g1750
I00
sg85
g627
sssg284
g285
sg286
g285
sg287
(dp3220
g3213
(dp3221
g3217
(dp3222
g85
g732
sssg3217
(dp3223
ssg481
g3220
sg96
(dp3224
sg483
g285
sg484
g3220
sg485
(dp3225
g3213
(dp3226
sg3217
(dp3227
g3213
g3222
sssbsg578
(lp3228
g3213
ag3217
asg851
(lp3229
(iconstruction
TP_REL
p3230
(dp3231
g857
g3217
sg85
g732
sg583
I266
sg858
g3213
sg66
VIS_266
p3232
sbasg583
I261
sg66
g1670
sbsg1765
(iconstruction
TP_SYNFORM
p3233
(dp3234
g583
I262
sg1768
(lp3235
(iconstruction
TP_PHON
p3236
(dp3237
g1778
I4
sg1775
I0
sg583
I267
sg1779
Vkick
p3238
sg66
g3204
sbasg66
g1670
sbsg1786
I1
sba(iconstruction
CXN
p3239
(dp3240
g1728
(iconstruction
TP_SYMLINKS
p3241
(dp3242
g1731
(dp3243
VN1_272
p3244
VS1_274
p3245
ssg583
I270
sg66
g1670
sbsg1737
VV
p3246
sg1739
I1
sg66
VPUNCH
p3247
sg1740
(iconstruction
TP_SEMFRAME
p3248
(dp3249
g96
g0
(g97
g2
Ntp3250
Rp3251
(dp3252
g101
(dp3253
(iconstruction
TP_NODE
p3254
(dp3255
g1749
I00
sg85
g612
sg66
g3244
sg1750
I00
sg1751
I00
sg583
I272
sb(dp3256
g1750
I00
sg85
g612
ss(iconstruction
TP_NODE
p3257
(dp3258
g1749
I01
sg85
g585
sg66
VACT_271
p3259
sg1750
I01
sg1751
I00
sg583
I271
sb(dp3260
g1750
I01
sg85
g585
sssg284
g285
sg286
g285
sg287
(dp3261
g3254
(dp3262
sg3257
(dp3263
g3254
(dp3264
g85
g732
ssssg481
g3261
sg96
(dp3265
sg483
g285
sg484
g3261
sg485
(dp3266
g3254
(dp3267
g3257
g3264
ssg3257
(dp3268
ssbsg578
(lp3269
g3257
ag3254
asg851
(lp3270
(iconstruction
TP_REL
p3271
(dp3272
g857
g3254
sg85
g732
sg583
I273
sg858
g3257
sg66
VIS_273
p3273
sbasg583
I268
sg66
g1670
sbsg1765
(iconstruction
TP_SYNFORM
p3274
(dp3275
g583
I269
sg1768
(lp3276
(iconstruction
TP_PHON
p3277
(dp3278
g1778
I5
sg1775
I0
sg583
I274
sg1779
Vpunch
p3279
sg66
g3245
sbasg66
g1670
sbsg1786
I1
sba(iconstruction
CXN
p3280
(dp3281
g1728
(iconstruction
TP_SYMLINKS
p3282
(dp3283
g1731
(dp3284
VN1_279
p3285
VS1_281
p3286
ssg583
I277
sg66
g1670
sbsg1737
VV
p3287
sg1739
I1
sg66
VWEAR
p3288
sg1740
(iconstruction
TP_SEMFRAME
p3289
(dp3290
g96
g0
(g97
g2
Ntp3291
Rp3292
(dp3293
g101
(dp3294
(iconstruction
TP_NODE
p3295
(dp3296
g1749
I01
sg85
g585
sg66
VACT_278
p3297
sg1750
I01
sg1751
I00
sg583
I278
sb(dp3298
g1750
I01
sg85
g585
ss(iconstruction
TP_NODE
p3299
(dp3300
g1749
I00
sg85
g630
sg66
g3285
sg1750
I00
sg1751
I00
sg583
I279
sb(dp3301
g1750
I00
sg85
g630
sssg284
g285
sg286
g285
sg287
(dp3302
g3295
(dp3303
g3299
(dp3304
g85
g732
sssg3299
(dp3305
ssg481
g3302
sg96
(dp3306
sg483
g285
sg484
g3302
sg485
(dp3307
g3295
(dp3308
sg3299
(dp3309
g3295
g3304
sssbsg578
(lp3310
g3295
ag3299
asg851
(lp3311
(iconstruction
TP_REL
p3312
(dp3313
g857
g3299
sg85
g732
sg583
I280
sg858
g3295
sg66
VIS_280
p3314
sbasg583
I275
sg66
g1670
sbsg1765
(iconstruction
TP_SYNFORM
p3315
(dp3316
g583
I276
sg1768
(lp3317
(iconstruction
TP_PHON
p3318
(dp3319
g1778
I4
sg1775
I0
sg583
I281
sg1779
Vwear
p3320
sg66
g3286
sbasg66
g1670
sbsg1786
I1
sba(iconstruction
CXN
p3321
(dp3322
g1728
(iconstruction
TP_SYMLINKS
p3323
(dp3324
g1731
(dp3325
VN1_286
p3326
VS1_288
p3327
ssg583
I284
sg66
g1670
sbsg1737
VV
p3328
sg1739
I1
sg66
VLAUGH
p3329
sg1740
(iconstruction
TP_SEMFRAME
p3330
(dp3331
g96
g0
(g97
g2
Ntp3332
Rp3333
(dp3334
g101
(dp3335
(iconstruction
TP_NODE
p3336
(dp3337
g1749
I00
sg85
g600
sg66
g3326
sg1750
I00
sg1751
I00
sg583
I286
sb(dp3338
g1750
I00
sg85
g600
ss(iconstruction
TP_NODE
p3339
(dp3340
g1749
I01
sg85
g585
sg66
VACT_285
p3341
sg1750
I01
sg1751
I00
sg583
I285
sb(dp3342
g1750
I01
sg85
g585
sssg284
g285
sg286
g285
sg287
(dp3343
g3336
(dp3344
sg3339
(dp3345
g3336
(dp3346
g85
g732
ssssg481
g3343
sg96
(dp3347
sg483
g285
sg484
g3343
sg485
(dp3348
g3336
(dp3349
g3339
g3346
ssg3339
(dp3350
ssbsg578
(lp3351
g3339
ag3336
asg851
(lp3352
(iconstruction
TP_REL
p3353
(dp3354
g857
g3336
sg85
g732
sg583
I287
sg858
g3339
sg66
VIS_287
p3355
sbasg583
I282
sg66
g1670
sbsg1765
(iconstruction
TP_SYNFORM
p3356
(dp3357
g583
I283
sg1768
(lp3358
(iconstruction
TP_PHON
p3359
(dp3360
g1778
I5
sg1775
I0
sg583
I288
sg1779
Vlaugh
p3361
sg66
g3327
sbasg66
g1670
sbsg1786
I1
sba(iconstruction
CXN
p3362
(dp3363
g1728
(iconstruction
TP_SYMLINKS
p3364
(dp3365
g1731
(dp3366
VN1_293
p3367
VS1_295
p3368
ssg583
I291
sg66
g1670
sbsg1737
VV
p3369
sg1739
I1
sg66
VWATCH
p3370
sg1740
(iconstruction
TP_SEMFRAME
p3371
(dp3372
g96
g0
(g97
g2
Ntp3373
Rp3374
(dp3375
g101
(dp3376
(iconstruction
TP_NODE
p3377
(dp3378
g1749
I00
sg85
g609
sg66
g3367
sg1750
I00
sg1751
I00
sg583
I293
sb(dp3379
g1750
I00
sg85
g609
ss(iconstruction
TP_NODE
p3380
(dp3381
g1749
I01
sg85
g585
sg66
VACT_292
p3382
sg1750
I01
sg1751
I00
sg583
I292
sb(dp3383
g1750
I01
sg85
g585
sssg284
g285
sg286
g285
sg287
(dp3384
g3377
(dp3385
sg3380
(dp3386
g3377
(dp3387
g85
g732
ssssg481
g3384
sg96
(dp3388
sg483
g285
sg484
g3384
sg485
(dp3389
g3377
(dp3390
g3380
g3387
ssg3380
(dp3391
ssbsg578
(lp3392
g3380
ag3377
asg851
(lp3393
(iconstruction
TP_REL
p3394
(dp3395
g857
g3377
sg85
g732
sg583
I294
sg858
g3380
sg66
VIS_294
p3396
sbasg583
I289
sg66
g1670
sbsg1765
(iconstruction
TP_SYNFORM
p3397
(dp3398
g583
I290
sg1768
(lp3399
(iconstruction
TP_PHON
p3400
(dp3401
g1778
I5
sg1775
I0
sg583
I295
sg1779
Vwatch
p3402
sg66
g3368
sbasg66
g1670
sbsg1786
I1
sba(iconstruction
CXN
p3403
(dp3404
g1728
(iconstruction
TP_SYMLINKS
p3405
(dp3406
g1731
(dp3407
VN1_300
p3408
VS1_302
p3409
ssg583
I298
sg66
g1670
sbsg1737
VV
p3410
sg1739
I1
sg66
VTALK
p3411
sg1740
(iconstruction
TP_SEMFRAME
p3412
(dp3413
g96
g0
(g97
g2
Ntp3414
Rp3415
(dp3416
g101
(dp3417
(iconstruction
TP_NODE
p3418
(dp3419
g1749
I01
sg85
g585
sg66
VACT_299
p3420
sg1750
I01
sg1751
I00
sg583
I299
sb(dp3421
g1750
I01
sg85
g585
ss(iconstruction
TP_NODE
p3422
(dp3423
g1749
I00
sg85
g618
sg66
g3408
sg1750
I00
sg1751
I00
sg583
I300
sb(dp3424
g1750
I00
sg85
g618
sssg284
g285
sg286
g285
sg287
(dp3425
g3418
(dp3426
g3422
(dp3427
g85
g732
sssg3422
(dp3428
ssg481
g3425
sg96
(dp3429
sg483
g285
sg484
g3425
sg485
(dp3430
g3418
(dp3431
sg3422
(dp3432
g3418
g3427
sssbsg578
(lp3433
g3418
ag3422
asg851
(lp3434
(iconstruction
TP_REL
p3435
(dp3436
g857
g3422
sg85
g732
sg583
I301
sg858
g3418
sg66
VIS_301
p3437
sbasg583
I296
sg66
g1670
sbsg1765
(iconstruction
TP_SYNFORM
p3438
(dp3439
g583
I297
sg1768
(lp3440
(iconstruction
TP_PHON
p3441
(dp3442
g1778
I4
sg1775
I0
sg583
I302
sg1779
Vtalk
p3443
sg66
g3409
sba(iconstruction
TP_PHON
p3444
(dp3445
g1778
I2
sg1775
I1
sg583
I303
sg1779
Vto
p3446
sg66
VS2_303
p3447
sbasg66
g1670
sbsg1786
I1
sba(iconstruction
CXN
p3448
(dp3449
g1728
(iconstruction
TP_SYMLINKS
p3450
(dp3451
g1731
(dp3452
VN1_308
p3453
VS1_310
p3454
ssg583
I306
sg66
g1670
sbsg1737
VV
p3455
sg1739
I1
sg66
VSQUIRT
p3456
sg1740
(iconstruction
TP_SEMFRAME
p3457
(dp3458
g96
g0
(g97
g2
Ntp3459
Rp3460
(dp3461
g101
(dp3462
(iconstruction
TP_NODE
p3463
(dp3464
g1749
I01
sg85
g585
sg66
VACT_307
p3465
sg1750
I01
sg1751
I00
sg583
I307
sb(dp3466
g1750
I01
sg85
g585
ss(iconstruction
TP_NODE
p3467
(dp3468
g1749
I00
sg85
g624
sg66
g3453
sg1750
I00
sg1751
I00
sg583
I308
sb(dp3469
g1750
I00
sg85
g624
sssg284
g285
sg286
g285
sg287
(dp3470
g3463
(dp3471
g3467
(dp3472
g85
g732
sssg3467
(dp3473
ssg481
g3470
sg96
(dp3474
sg483
g285
sg484
g3470
sg485
(dp3475
g3463
(dp3476
sg3467
(dp3477
g3463
g3472
sssbsg578
(lp3478
g3463
ag3467
asg851
(lp3479
(iconstruction
TP_REL
p3480
(dp3481
g857
g3467
sg85
g732
sg583
I309
sg858
g3463
sg66
VIS_309
p3482
sbasg583
I304
sg66
g1670
sbsg1765
(iconstruction
TP_SYNFORM
p3483
(dp3484
g583
I305
sg1768
(lp3485
(iconstruction
TP_PHON
p3486
(dp3487
g1778
I6
sg1775
I0
sg583
I310
sg1779
Vsquirt
p3488
sg66
g3454
sba(iconstruction
TP_PHON
p3489
(dp3490
g1778
I2
sg1775
I1
sg583
I311
sg1779
Vat
p3491
sg66
VS2_311
p3492
sbasg66
g1670
sbsg1786
I1
sba(iconstruction
CXN
p3493
(dp3494
g1728
(iconstruction
TP_SYMLINKS
p3495
(dp3496
g1731
(dp3497
VN1_316
p3498
VS1_318
p3499
ssg583
I314
sg66
g1670
sbsg1737
VV
p3500
sg1739
I1
sg66
VSPLASH
p3501
sg1740
(iconstruction
TP_SEMFRAME
p3502
(dp3503
g96
g0
(g97
g2
Ntp3504
Rp3505
(dp3506
g101
(dp3507
(iconstruction
TP_NODE
p3508
(dp3509
g1749
I01
sg85
g585
sg66
VACT_315
p3510
sg1750
I01
sg1751
I00
sg583
I315
sb(dp3511
g1750
I01
sg85
g585
ss(iconstruction
TP_NODE
p3512
(dp3513
g1749
I00
sg85
g615
sg66
g3498
sg1750
I00
sg1751
I00
sg583
I316
sb(dp3514
g1750
I00
sg85
g615
sssg284
g285
sg286
g285
sg287
(dp3515
g3508
(dp3516
g3512
(dp3517
g85
g732
sssg3512
(dp3518
ssg481
g3515
sg96
(dp3519
sg483
g285
sg484
g3515
sg485
(dp3520
g3508
(dp3521
sg3512
(dp3522
g3508
g3517
sssbsg578
(lp3523
g3508
ag3512
asg851
(lp3524
(iconstruction
TP_REL
p3525
(dp3526
g857
g3512
sg85
g732
sg583
I317
sg858
g3508
sg66
VIS_317
p3527
sbasg583
I312
sg66
g1670
sbsg1765
(iconstruction
TP_SYNFORM
p3528
(dp3529
g583
I313
sg1768
(lp3530
(iconstruction
TP_PHON
p3531
(dp3532
g1778
I6
sg1775
I0
sg583
I318
sg1779
Vsplash
p3533
sg66
g3499
sbasg66
g1670
sbsg1786
I1
sba(iconstruction
CXN
p3534
(dp3535
g1728
(iconstruction
TP_SYMLINKS
p3536
(dp3537
g1731
(dp3538
VN1_323
p3539
VS1_325
p3540
ssg583
I321
sg66
g1670
sbsg1737
VV
p3541
sg1739
I1
sg66
VGIVE
p3542
sg1740
(iconstruction
TP_SEMFRAME
p3543
(dp3544
g96
g0
(g97
g2
Ntp3545
Rp3546
(dp3547
g101
(dp3548
(iconstruction
TP_NODE
p3549
(dp3550
g1749
I00
sg85
g639
sg66
g3539
sg1750
I00
sg1751
I00
sg583
I323
sb(dp3551
g1750
I00
sg85
g639
ss(iconstruction
TP_NODE
p3552
(dp3553
g1749
I01
sg85
g585
sg66
VACT_322
p3554
sg1750
I01
sg1751
I00
sg583
I322
sb(dp3555
g1750
I01
sg85
g585
sssg284
g285
sg286
g285
sg287
(dp3556
g3549
(dp3557
sg3552
(dp3558
g3549
(dp3559
g85
g732
ssssg481
g3556
sg96
(dp3560
sg483
g285
sg484
g3556
sg485
(dp3561
g3549
(dp3562
g3552
g3559
ssg3552
(dp3563
ssbsg578
(lp3564
g3552
ag3549
asg851
(lp3565
(iconstruction
TP_REL
p3566
(dp3567
g857
g3549
sg85
g732
sg583
I324
sg858
g3552
sg66
VIS_324
p3568
sbasg583
I319
sg66
g1670
sbsg1765
(iconstruction
TP_SYNFORM
p3569
(dp3570
g583
I320
sg1768
(lp3571
(iconstruction
TP_PHON
p3572
(dp3573
g1778
I4
sg1775
I0
sg583
I325
sg1779
Vgive
p3574
sg66
g3540
sbasg66
g1670
sbsg1786
I1
sba(iconstruction
CXN
p3575
(dp3576
g1728
(iconstruction
TP_SYMLINKS
p3577
(dp3578
g1731
(dp3579
VN1_330
p3580
VS1_332
p3581
ssg583
I328
sg66
g1670
sbsg1737
VV
p3582
sg1739
I1
sg66
VSEND
p3583
sg1740
(iconstruction
TP_SEMFRAME
p3584
(dp3585
g96
g0
(g97
g2
Ntp3586
Rp3587
(dp3588
g101
(dp3589
(iconstruction
TP_NODE
p3590
(dp3591
g1749
I01
sg85
g585
sg66
VACT_329
p3592
sg1750
I01
sg1751
I00
sg583
I329
sb(dp3593
g1750
I01
sg85
g585
ss(iconstruction
TP_NODE
p3594
(dp3595
g1749
I00
sg85
g636
sg66
g3580
sg1750
I00
sg1751
I00
sg583
I330
sb(dp3596
g1750
I00
sg85
g636
sssg284
g285
sg286
g285
sg287
(dp3597
g3590
(dp3598
g3594
(dp3599
g85
g732
sssg3594
(dp3600
ssg481
g3597
sg96
(dp3601
sg483
g285
sg484
g3597
sg485
(dp3602
g3590
(dp3603
sg3594
(dp3604
g3590
g3599
sssbsg578
(lp3605
g3590
ag3594
asg851
(lp3606
(iconstruction
TP_REL
p3607
(dp3608
g857
g3594
sg85
g732
sg583
I331
sg858
g3590
sg66
VIS_331
p3609
sbasg583
I326
sg66
g1670
sbsg1765
(iconstruction
TP_SYNFORM
p3610
(dp3611
g583
I327
sg1768
(lp3612
(iconstruction
TP_PHON
p3613
(dp3614
g1778
I4
sg1775
I0
sg583
I332
sg1779
Vsend
p3615
sg66
g3581
sbasg66
g1670
sbsg1786
I1
sba(iconstruction
CXN
p3616
(dp3617
g1728
(iconstruction
TP_SYMLINKS
p3618
(dp3619
g1731
(dp3620
VN1_337
p3621
VS1_339
p3622
ssg583
I335
sg66
g1670
sbsg1737
VV
p3623
sg1739
I1
sg66
VMEET
p3624
sg1740
(iconstruction
TP_SEMFRAME
p3625
(dp3626
g96
g0
(g97
g2
Ntp3627
Rp3628
(dp3629
g101
(dp3630
(iconstruction
TP_NODE
p3631
(dp3632
g1749
I01
sg85
g585
sg66
VACT_336
p3633
sg1750
I01
sg1751
I00
sg583
I336
sb(dp3634
g1750
I01
sg85
g585
ss(iconstruction
TP_NODE
p3635
(dp3636
g1749
I00
sg85
g591
sg66
g3621
sg1750
I00
sg1751
I00
sg583
I337
sb(dp3637
g1750
I00
sg85
g591
sssg284
g285
sg286
g285
sg287
(dp3638
g3631
(dp3639
g3635
(dp3640
g85
g732
sssg3635
(dp3641
ssg481
g3638
sg96
(dp3642
sg483
g285
sg484
g3638
sg485
(dp3643
g3631
(dp3644
sg3635
(dp3645
g3631
g3640
sssbsg578
(lp3646
g3631
ag3635
asg851
(lp3647
(iconstruction
TP_REL
p3648
(dp3649
g857
g3635
sg85
g732
sg583
I338
sg858
g3631
sg66
VIS_338
p3650
sbasg583
I333
sg66
g1670
sbsg1765
(iconstruction
TP_SYNFORM
p3651
(dp3652
g583
I334
sg1768
(lp3653
(iconstruction
TP_PHON
p3654
(dp3655
g1778
I4
sg1775
I0
sg583
I339
sg1779
Vmeet
p3656
sg66
g3622
sbasg66
g1670
sbsg1786
I1
sba(iconstruction
CXN
p3657
(dp3658
g1728
(iconstruction
TP_SYMLINKS
p3659
(dp3660
g1731
(dp3661
VN1_344
p3662
VS1_346
p3663
ssg583
I342
sg66
g1670
sbsg1737
VV
p3664
sg1739
I1
sg66
VKISS
p3665
sg1740
(iconstruction
TP_SEMFRAME
p3666
(dp3667
g96
g0
(g97
g2
Ntp3668
Rp3669
(dp3670
g101
(dp3671
(iconstruction
TP_NODE
p3672
(dp3673
g1749
I00
sg85
g621
sg66
g3662
sg1750
I00
sg1751
I00
sg583
I344
sb(dp3674
g1750
I00
sg85
g621
ss(iconstruction
TP_NODE
p3675
(dp3676
g1749
I01
sg85
g585
sg66
VACT_343
p3677
sg1750
I01
sg1751
I00
sg583
I343
sb(dp3678
g1750
I01
sg85
g585
sssg284
g285
sg286
g285
sg287
(dp3679
g3672
(dp3680
sg3675
(dp3681
g3672
(dp3682
g85
g732
ssssg481
g3679
sg96
(dp3683
sg483
g285
sg484
g3679
sg485
(dp3684
g3672
(dp3685
g3675
g3682
ssg3675
(dp3686
ssbsg578
(lp3687
g3675
ag3672
asg851
(lp3688
(iconstruction
TP_REL
p3689
(dp3690
g857
g3672
sg85
g732
sg583
I345
sg858
g3675
sg66
VIS_345
p3691
sbasg583
I340
sg66
g1670
sbsg1765
(iconstruction
TP_SYNFORM
p3692
(dp3693
g583
I341
sg1768
(lp3694
(iconstruction
TP_PHON
p3695
(dp3696
g1778
I4
sg1775
I0
sg583
I346
sg1779
Vkiss
p3697
sg66
g3663
sbasg66
g1670
sbsg1786
I1
sba(iconstruction
CXN
p3698
(dp3699
g1728
(iconstruction
TP_SYMLINKS
p3700
(dp3701
g1731
(dp3702
VN1_351
p3703
VS1_353
p3704
ssg583
I349
sg66
g1670
sbsg1737
VV
p3705
sg1739
I1
sg66
VSHAKE_HANDS
p3706
sg1740
(iconstruction
TP_SEMFRAME
p3707
(dp3708
g96
g0
(g97
g2
Ntp3709
Rp3710
(dp3711
g101
(dp3712
(iconstruction
TP_NODE
p3713
(dp3714
g1749
I01
sg85
g585
sg66
VACT_350
p3715
sg1750
I01
sg1751
I00
sg583
I350
sb(dp3716
g1750
I01
sg85
g585
ss(iconstruction
TP_NODE
p3717
(dp3718
g1749
I00
sg85
g594
sg66
g3703
sg1750
I00
sg1751
I00
sg583
I351
sb(dp3719
g1750
I00
sg85
g594
sssg284
g285
sg286
g285
sg287
(dp3720
g3713
(dp3721
g3717
(dp3722
g85
g732
sssg3717
(dp3723
ssg481
g3720
sg96
(dp3724
sg483
g285
sg484
g3720
sg485
(dp3725
g3713
(dp3726
sg3717
(dp3727
g3713
g3722
sssbsg578
(lp3728
g3713
ag3717
asg851
(lp3729
(iconstruction
TP_REL
p3730
(dp3731
g857
g3717
sg85
g732
sg583
I352
sg858
g3713
sg66
VIS_352
p3732
sbasg583
I347
sg66
g1670
sbsg1765
(iconstruction
TP_SYNFORM
p3733
(dp3734
g583
I348
sg1768
(lp3735
(iconstruction
TP_PHON
p3736
(dp3737
g1778
I10
sg1775
I0
sg583
I353
sg1779
Vshake hands
p3738
sg66
g3704
sbasg66
g1670
sbsg1786
I1
sba(iconstruction
CXN
p3739
(dp3740
g1728
(iconstruction
TP_SYMLINKS
p3741
(dp3742
g1731
(dp3743
VN1_357
p3744
VS1_358
p3745
ssg583
I356
sg66
g1670
sbsg1737
VA
p3746
sg1739
I1
sg66
VBLUE
p3747
sg1740
(iconstruction
TP_SEMFRAME
p3748
(dp3749
g96
g0
(g97
g2
Ntp3750
Rp3751
(dp3752
g101
(dp3753
(iconstruction
TP_NODE
p3754
(dp3755
g1749
I01
sg85
g648
sg66
g3744
sg1750
I00
sg1751
I00
sg583
I357
sb(dp3756
g1750
I00
sg85
g648
sssg284
g285
sg286
g285
sg287
(dp3757
g3754
(dp3758
ssg481
g3757
sg96
(dp3759
sg483
g285
sg484
g3757
sg485
(dp3760
g3754
(dp3761
ssbsg578
(lp3762
g3754
asg851
(lp3763
sg583
I354
sg66
g1670
sbsg1765
(iconstruction
TP_SYNFORM
p3764
(dp3765
g583
I355
sg1768
(lp3766
(iconstruction
TP_PHON
p3767
(dp3768
g1778
I4
sg1775
I0
sg583
I358
sg1779
Vblue
p3769
sg66
g3745
sbasg66
g1670
sbsg1786
I1
sba(iconstruction
CXN
p3770
(dp3771
g1728
(iconstruction
TP_SYMLINKS
p3772
(dp3773
g1731
(dp3774
VN1_362
p3775
VS1_363
p3776
ssg583
I361
sg66
g1670
sbsg1737
VA
p3777
sg1739
I1
sg66
VBLACK
p3778
sg1740
(iconstruction
TP_SEMFRAME
p3779
(dp3780
g96
g0
(g97
g2
Ntp3781
Rp3782
(dp3783
g101
(dp3784
(iconstruction
TP_NODE
p3785
(dp3786
g1749
I01
sg85
g657
sg66
g3775
sg1750
I00
sg1751
I00
sg583
I362
sb(dp3787
g1750
I00
sg85
g657
sssg284
g285
sg286
g285
sg287
(dp3788
g3785
(dp3789
ssg481
g3788
sg96
(dp3790
sg483
g285
sg484
g3788
sg485
(dp3791
g3785
(dp3792
ssbsg578
(lp3793
g3785
asg851
(lp3794
sg583
I359
sg66
g1670
sbsg1765
(iconstruction
TP_SYNFORM
p3795
(dp3796
g583
I360
sg1768
(lp3797
(iconstruction
TP_PHON
p3798
(dp3799
g1778
I5
sg1775
I0
sg583
I363
sg1779
Vblack
p3800
sg66
g3776
sbasg66
g1670
sbsg1786
I1
sba(iconstruction
CXN
p3801
(dp3802
g1728
(iconstruction
TP_SYMLINKS
p3803
(dp3804
g1731
(dp3805
VN1_367
p3806
VS1_368
p3807
ssg583
I366
sg66
g1670
sbsg1737
VA
p3808
sg1739
I1
sg66
VGREEN
p3809
sg1740
(iconstruction
TP_SEMFRAME
p3810
(dp3811
g96
g0
(g97
g2
Ntp3812
Rp3813
(dp3814
g101
(dp3815
(iconstruction
TP_NODE
p3816
(dp3817
g1749
I01
sg85
g651
sg66
g3806
sg1750
I00
sg1751
I00
sg583
I367
sb(dp3818
g1750
I00
sg85
g651
sssg284
g285
sg286
g285
sg287
(dp3819
g3816
(dp3820
ssg481
g3819
sg96
(dp3821
sg483
g285
sg484
g3819
sg485
(dp3822
g3816
(dp3823
ssbsg578
(lp3824
g3816
asg851
(lp3825
sg583
I364
sg66
g1670
sbsg1765
(iconstruction
TP_SYNFORM
p3826
(dp3827
g583
I365
sg1768
(lp3828
(iconstruction
TP_PHON
p3829
(dp3830
g1778
I5
sg1775
I0
sg583
I368
sg1779
Vgreen
p3831
sg66
g3807
sbasg66
g1670
sbsg1786
I1
sba(iconstruction
CXN
p3832
(dp3833
g1728
(iconstruction
TP_SYMLINKS
p3834
(dp3835
g1731
(dp3836
VN1_372
p3837
VS1_373
p3838
ssg583
I371
sg66
g1670
sbsg1737
VA
p3839
sg1739
I1
sg66
VSMALL
p3840
sg1740
(iconstruction
TP_SEMFRAME
p3841
(dp3842
g96
g0
(g97
g2
Ntp3843
Rp3844
(dp3845
g101
(dp3846
(iconstruction
TP_NODE
p3847
(dp3848
g1749
I01
sg85
g678
sg66
g3837
sg1750
I00
sg1751
I00
sg583
I372
sb(dp3849
g1750
I00
sg85
g678
sssg284
g285
sg286
g285
sg287
(dp3850
g3847
(dp3851
ssg481
g3850
sg96
(dp3852
sg483
g285
sg484
g3850
sg485
(dp3853
g3847
(dp3854
ssbsg578
(lp3855
g3847
asg851
(lp3856
sg583
I369
sg66
g1670
sbsg1765
(iconstruction
TP_SYNFORM
p3857
(dp3858
g583
I370
sg1768
(lp3859
(iconstruction
TP_PHON
p3860
(dp3861
g1778
I5
sg1775
I0
sg583
I373
sg1779
Vsmall
p3862
sg66
g3838
sbasg66
g1670
sbsg1786
I1
sba(iconstruction
CXN
p3863
(dp3864
g1728
(iconstruction
TP_SYMLINKS
p3865
(dp3866
g1731
(dp3867
VN1_377
p3868
VS1_378
p3869
ssg583
I376
sg66
g1670
sbsg1737
VA
p3870
sg1739
I1
sg66
VBIG
p3871
sg1740
(iconstruction
TP_SEMFRAME
p3872
(dp3873
g96
g0
(g97
g2
Ntp3874
Rp3875
(dp3876
g101
(dp3877
(iconstruction
TP_NODE
p3878
(dp3879
g1749
I01
sg85
g681
sg66
g3868
sg1750
I00
sg1751
I00
sg583
I377
sb(dp3880
g1750
I00
sg85
g681
sssg284
g285
sg286
g285
sg287
(dp3881
g3878
(dp3882
ssg481
g3881
sg96
(dp3883
sg483
g285
sg484
g3881
sg485
(dp3884
g3878
(dp3885
ssbsg578
(lp3886
g3878
asg851
(lp3887
sg583
I374
sg66
g1670
sbsg1765
(iconstruction
TP_SYNFORM
p3888
(dp3889
g583
I375
sg1768
(lp3890
(iconstruction
TP_PHON
p3891
(dp3892
g1778
I3
sg1775
I0
sg583
I378
sg1779
Vbig
p3893
sg66
g3869
sbasg66
g1670
sbsg1786
I1
sba(iconstruction
CXN
p3894
(dp3895
g1728
(iconstruction
TP_SYMLINKS
p3896
(dp3897
g1731
(dp3898
VN1_382
p3899
VS1_383
p3900
ssg583
I381
sg66
g1670
sbsg1737
VA
p3901
sg1739
I1
sg66
VHANDSOME
p3902
sg1740
(iconstruction
TP_SEMFRAME
p3903
(dp3904
g96
g0
(g97
g2
Ntp3905
Rp3906
(dp3907
g101
(dp3908
(iconstruction
TP_NODE
p3909
(dp3910
g1749
I01
sg85
g672
sg66
g3899
sg1750
I00
sg1751
I00
sg583
I382
sb(dp3911
g1750
I00
sg85
g672
sssg284
g285
sg286
g285
sg287
(dp3912
g3909
(dp3913
ssg481
g3912
sg96
(dp3914
sg483
g285
sg484
g3912
sg485
(dp3915
g3909
(dp3916
ssbsg578
(lp3917
g3909
asg851
(lp3918
sg583
I379
sg66
g1670
sbsg1765
(iconstruction
TP_SYNFORM
p3919
(dp3920
g583
I380
sg1768
(lp3921
(iconstruction
TP_PHON
p3922
(dp3923
g1778
I8
sg1775
I0
sg583
I383
sg1779
Vhandsome
p3924
sg66
g3900
sbasg66
g1670
sbsg1786
I1
sba(iconstruction
CXN
p3925
(dp3926
g1728
(iconstruction
TP_SYMLINKS
p3927
(dp3928
g1731
(dp3929
VN1_387
p3930
VS1_388
p3931
ssg583
I386
sg66
g1670
sbsg1737
VA
p3932
sg1739
I1
sg66
VPRETTY
p3933
sg1740
(iconstruction
TP_SEMFRAME
p3934
(dp3935
g96
g0
(g97
g2
Ntp3936
Rp3937
(dp3938
g101
(dp3939
(iconstruction
TP_NODE
p3940
(dp3941
g1749
I01
sg85
g669
sg66
g3930
sg1750
I00
sg1751
I00
sg583
I387
sb(dp3942
g1750
I00
sg85
g669
sssg284
g285
sg286
g285
sg287
(dp3943
g3940
(dp3944
ssg481
g3943
sg96
(dp3945
sg483
g285
sg484
g3943
sg485
(dp3946
g3940
(dp3947
ssbsg578
(lp3948
g3940
asg851
(lp3949
sg583
I384
sg66
g1670
sbsg1765
(iconstruction
TP_SYNFORM
p3950
(dp3951
g583
I385
sg1768
(lp3952
(iconstruction
TP_PHON
p3953
(dp3954
g1778
I6
sg1775
I0
sg583
I388
sg1779
Vpretty
p3955
sg66
g3931
sbasg66
g1670
sbsg1786
I1
sba(iconstruction
CXN
p3956
(dp3957
g1728
(iconstruction
TP_SYMLINKS
p3958
(dp3959
g1731
(dp3960
VN1_392
p3961
VS1_393
p3962
ssg583
I391
sg66
g1670
sbsg1737
VA
p3963
sg1739
I1
sg66
VYOUNG
p3964
sg1740
(iconstruction
TP_SEMFRAME
p3965
(dp3966
g96
g0
(g97
g2
Ntp3967
Rp3968
(dp3969
g101
(dp3970
(iconstruction
TP_NODE
p3971
(dp3972
g1749
I01
sg85
g666
sg66
g3961
sg1750
I00
sg1751
I00
sg583
I392
sb(dp3973
g1750
I00
sg85
g666
sssg284
g285
sg286
g285
sg287
(dp3974
g3971
(dp3975
ssg481
g3974
sg96
(dp3976
sg483
g285
sg484
g3974
sg485
(dp3977
g3971
(dp3978
ssbsg578
(lp3979
g3971
asg851
(lp3980
sg583
I389
sg66
g1670
sbsg1765
(iconstruction
TP_SYNFORM
p3981
(dp3982
g583
I390
sg1768
(lp3983
(iconstruction
TP_PHON
p3984
(dp3985
g1778
I5
sg1775
I0
sg583
I393
sg1779
Vyoung
p3986
sg66
g3962
sbasg66
g1670
sbsg1786
I1
sba(iconstruction
CXN
p3987
(dp3988
g1728
(iconstruction
TP_SYMLINKS
p3989
(dp3990
g1731
(dp3991
VN1_398
p3992
VS1_400
p3993
ssg583
I396
sg66
g1670
sbsg1737
VN
p3994
sg1739
I1
sg66
VWOMAN
p3995
sg1740
(iconstruction
TP_SEMFRAME
p3996
(dp3997
g96
g0
(g97
g2
Ntp3998
Rp3999
(dp4000
g101
(dp4001
(iconstruction
TP_NODE
p4002
(dp4003
g1749
I01
sg85
g741
sg66
VENT_397
p4004
sg1750
I01
sg1751
I00
sg583
I397
sb(dp4005
g1750
I01
sg85
g741
ss(iconstruction
TP_NODE
p4006
(dp4007
g1749
I00
sg85
g807
sg66
g3992
sg1750
I00
sg1751
I00
sg583
I398
sb(dp4008
g1750
I00
sg85
g807
sssg284
g285
sg286
g285
sg287
(dp4009
g4002
(dp4010
g4006
(dp4011
g85
g732
sssg4006
(dp4012
ssg481
g4009
sg96
(dp4013
sg483
g285
sg484
g4009
sg485
(dp4014
g4002
(dp4015
sg4006
(dp4016
g4002
g4011
sssbsg578
(lp4017
g4002
ag4006
asg851
(lp4018
(iconstruction
TP_REL
p4019
(dp4020
g857
g4006
sg85
g732
sg583
I399
sg858
g4002
sg66
VIS_399
p4021
sbasg583
I394
sg66
g1670
sbsg1765
(iconstruction
TP_SYNFORM
p4022
(dp4023
g583
I395
sg1768
(lp4024
(iconstruction
TP_PHON
p4025
(dp4026
g1778
I5
sg1775
I0
sg583
I400
sg1779
Vwoman
p4027
sg66
g3993
sbasg66
g1670
sbsg1786
I1
sba(iconstruction
CXN
p4028
(dp4029
g1728
(iconstruction
TP_SYMLINKS
p4030
(dp4031
g1731
(dp4032
VN1_405
p4033
VS1_407
p4034
ssg583
I403
sg66
g1670
sbsg1737
VN
p4035
sg1739
I1
sg66
VWOMAN2
p4036
sg1740
(iconstruction
TP_SEMFRAME
p4037
(dp4038
g96
g0
(g97
g2
Ntp4039
Rp4040
(dp4041
g101
(dp4042
(iconstruction
TP_NODE
p4043
(dp4044
g1749
I00
sg85
g807
sg66
g4033
sg1750
I00
sg1751
I00
sg583
I405
sb(dp4045
g1750
I00
sg85
g807
ss(iconstruction
TP_NODE
p4046
(dp4047
g1749
I01
sg85
g741
sg66
VENT_404
p4048
sg1750
I01
sg1751
I00
sg583
I404
sb(dp4049
g1750
I01
sg85
g741
sssg284
g285
sg286
g285
sg287
(dp4050
g4043
(dp4051
sg4046
(dp4052
g4043
(dp4053
g85
g732
ssssg481
g4050
sg96
(dp4054
sg483
g285
sg484
g4050
sg485
(dp4055
g4043
(dp4056
g4046
g4053
ssg4046
(dp4057
ssbsg578
(lp4058
g4046
ag4043
asg851
(lp4059
(iconstruction
TP_REL
p4060
(dp4061
g857
g4043
sg85
g732
sg583
I406
sg858
g4046
sg66
VIS_406
p4062
sbasg583
I401
sg66
g1670
sbsg1765
(iconstruction
TP_SYNFORM
p4063
(dp4064
g583
I402
sg1768
(lp4065
(iconstruction
TP_PHON
p4066
(dp4067
g1778
I4
sg1775
I0
sg583
I407
sg1779
Vlady
p4068
sg66
g4034
sbasg66
g1670
sbsg1786
I1
sba(iconstruction
CXN
p4069
(dp4070
g1728
(iconstruction
TP_SYMLINKS
p4071
(dp4072
g1731
(dp4073
VN1_412
p4074
VS1_414
p4075
ssg583
I410
sg66
g1670
sbsg1737
VN
p4076
sg1739
I1
sg66
VMAN
p4077
sg1740
(iconstruction
TP_SEMFRAME
p4078
(dp4079
g96
g0
(g97
g2
Ntp4080
Rp4081
(dp4082
g101
(dp4083
(iconstruction
TP_NODE
p4084
(dp4085
g1749
I00
sg85
g834
sg66
g4074
sg1750
I00
sg1751
I00
sg583
I412
sb(dp4086
g1750
I00
sg85
g834
ss(iconstruction
TP_NODE
p4087
(dp4088
g1749
I01
sg85
g741
sg66
VENT_411
p4089
sg1750
I01
sg1751
I00
sg583
I411
sb(dp4090
g1750
I01
sg85
g741
sssg284
g285
sg286
g285
sg287
(dp4091
g4084
(dp4092
sg4087
(dp4093
g4084
(dp4094
g85
g732
ssssg481
g4091
sg96
(dp4095
sg483
g285
sg484
g4091
sg485
(dp4096
g4084
(dp4097
g4087
g4094
ssg4087
(dp4098
ssbsg578
(lp4099
g4087
ag4084
asg851
(lp4100
(iconstruction
TP_REL
p4101
(dp4102
g857
g4084
sg85
g732
sg583
I413
sg858
g4087
sg66
VIS_413
p4103
sbasg583
I408
sg66
g1670
sbsg1765
(iconstruction
TP_SYNFORM
p4104
(dp4105
g583
I409
sg1768
(lp4106
(iconstruction
TP_PHON
p4107
(dp4108
g1778
I3
sg1775
I0
sg583
I414
sg1779
Vman
p4109
sg66
g4075
sbasg66
g1670
sbsg1786
I1
sba(iconstruction
CXN
p4110
(dp4111
g1728
(iconstruction
TP_SYMLINKS
p4112
(dp4113
g1731
(dp4114
VN1_419
p4115
VS1_421
p4116
ssg583
I417
sg66
g1670
sbsg1737
VN
p4117
sg1739
I1
sg66
VGIRL
p4118
sg1740
(iconstruction
TP_SEMFRAME
p4119
(dp4120
g96
g0
(g97
g2
Ntp4121
Rp4122
(dp4123
g101
(dp4124
(iconstruction
TP_NODE
p4125
(dp4126
g1749
I01
sg85
g741
sg66
VENT_418
p4127
sg1750
I01
sg1751
I00
sg583
I418
sb(dp4128
g1750
I01
sg85
g741
ss(iconstruction
TP_NODE
p4129
(dp4130
g1749
I00
sg85
g825
sg66
g4115
sg1750
I00
sg1751
I00
sg583
I419
sb(dp4131
g1750
I00
sg85
g825
sssg284
g285
sg286
g285
sg287
(dp4132
g4125
(dp4133
g4129
(dp4134
g85
g732
sssg4129
(dp4135
ssg481
g4132
sg96
(dp4136
sg483
g285
sg484
g4132
sg485
(dp4137
g4125
(dp4138
sg4129
(dp4139
g4125
g4134
sssbsg578
(lp4140
g4125
ag4129
asg851
(lp4141
(iconstruction
TP_REL
p4142
(dp4143
g857
g4129
sg85
g732
sg583
I420
sg858
g4125
sg66
VIS_420
p4144
sbasg583
I415
sg66
g1670
sbsg1765
(iconstruction
TP_SYNFORM
p4145
(dp4146
g583
I416
sg1768
(lp4147
(iconstruction
TP_PHON
p4148
(dp4149
g1778
I4
sg1775
I0
sg583
I421
sg1779
Vgirl
p4150
sg66
g4116
sbasg66
g1670
sbsg1786
I1
sba(iconstruction
CXN
p4151
(dp4152
g1728
(iconstruction
TP_SYMLINKS
p4153
(dp4154
g1731
(dp4155
VN1_426
p4156
VS1_428
p4157
ssg583
I424
sg66
g1670
sbsg1737
VN
p4158
sg1739
I1
sg66
VBOY
p4159
sg1740
(iconstruction
TP_SEMFRAME
p4160
(dp4161
g96
g0
(g97
g2
Ntp4162
Rp4163
(dp4164
g101
(dp4165
(iconstruction
TP_NODE
p4166
(dp4167
g1749
I00
sg85
g804
sg66
g4156
sg1750
I00
sg1751
I00
sg583
I426
sb(dp4168
g1750
I00
sg85
g804
ss(iconstruction
TP_NODE
p4169
(dp4170
g1749
I01
sg85
g741
sg66
VENT_425
p4171
sg1750
I01
sg1751
I00
sg583
I425
sb(dp4172
g1750
I01
sg85
g741
sssg284
g285
sg286
g285
sg287
(dp4173
g4166
(dp4174
sg4169
(dp4175
g4166
(dp4176
g85
g732
ssssg481
g4173
sg96
(dp4177
sg483
g285
sg484
g4173
sg485
(dp4178
g4166
(dp4179
g4169
g4176
ssg4169
(dp4180
ssbsg578
(lp4181
g4169
ag4166
asg851
(lp4182
(iconstruction
TP_REL
p4183
(dp4184
g857
g4166
sg85
g732
sg583
I427
sg858
g4169
sg66
VIS_427
p4185
sbasg583
I422
sg66
g1670
sbsg1765
(iconstruction
TP_SYNFORM
p4186
(dp4187
g583
I423
sg1768
(lp4188
(iconstruction
TP_PHON
p4189
(dp4190
g1778
I3
sg1775
I0
sg583
I428
sg1779
Vboy
p4191
sg66
g4157
sbasg66
g1670
sbsg1786
I1
sba(iconstruction
CXN
p4192
(dp4193
g1728
(iconstruction
TP_SYMLINKS
p4194
(dp4195
g1731
(dp4196
VN1_433
p4197
VS1_435
p4198
ssg583
I431
sg66
g1670
sbsg1737
VN
p4199
sg1739
I1
sg66
VPEOPLE
p4200
sg1740
(iconstruction
TP_SEMFRAME
p4201
(dp4202
g96
g0
(g97
g2
Ntp4203
Rp4204
(dp4205
g101
(dp4206
(iconstruction
TP_NODE
p4207
(dp4208
g1749
I01
sg85
g741
sg66
VENT_432
p4209
sg1750
I01
sg1751
I00
sg583
I432
sb(dp4210
g1750
I01
sg85
g741
ss(iconstruction
TP_NODE
p4211
(dp4212
g1749
I00
sg85
g810
sg66
g4197
sg1750
I00
sg1751
I00
sg583
I433
sb(dp4213
g1750
I00
sg85
g810
sssg284
g285
sg286
g285
sg287
(dp4214
g4207
(dp4215
g4211
(dp4216
g85
g732
sssg4211
(dp4217
ssg481
g4214
sg96
(dp4218
sg483
g285
sg484
g4214
sg485
(dp4219
g4207
(dp4220
sg4211
(dp4221
g4207
g4216
sssbsg578
(lp4222
g4207
ag4211
asg851
(lp4223
(iconstruction
TP_REL
p4224
(dp4225
g857
g4211
sg85
g732
sg583
I434
sg858
g4207
sg66
VIS_434
p4226
sbasg583
I429
sg66
g1670
sbsg1765
(iconstruction
TP_SYNFORM
p4227
(dp4228
g583
I430
sg1768
(lp4229
(iconstruction
TP_PHON
p4230
(dp4231
g1778
I6
sg1775
I0
sg583
I435
sg1779
Vpeople
p4232
sg66
g4198
sbasg66
g1670
sbsg1786
I1
sba(iconstruction
CXN
p4233
(dp4234
g1728
(iconstruction
TP_SYMLINKS
p4235
(dp4236
g1731
(dp4237
VN1_440
p4238
VS1_442
p4239
ssg583
I438
sg66
g1670
sbsg1737
VN
p4240
sg1739
I1
sg66
VMOUSE
p4241
sg1740
(iconstruction
TP_SEMFRAME
p4242
(dp4243
g96
g0
(g97
g2
Ntp4244
Rp4245
(dp4246
g101
(dp4247
(iconstruction
TP_NODE
p4248
(dp4249
g1749
I00
sg85
g798
sg66
g4238
sg1750
I00
sg1751
I00
sg583
I440
sb(dp4250
g1750
I00
sg85
g798
ss(iconstruction
TP_NODE
p4251
(dp4252
g1749
I01
sg85
g741
sg66
VENT_439
p4253
sg1750
I01
sg1751
I00
sg583
I439
sb(dp4254
g1750
I01
sg85
g741
sssg284
g285
sg286
g285
sg287
(dp4255
g4248
(dp4256
sg4251
(dp4257
g4248
(dp4258
g85
g732
ssssg481
g4255
sg96
(dp4259
sg483
g285
sg484
g4255
sg485
(dp4260
g4248
(dp4261
g4251
g4258
ssg4251
(dp4262
ssbsg578
(lp4263
g4251
ag4248
asg851
(lp4264
(iconstruction
TP_REL
p4265
(dp4266
g857
g4248
sg85
g732
sg583
I441
sg858
g4251
sg66
VIS_441
p4267
sbasg583
I436
sg66
g1670
sbsg1765
(iconstruction
TP_SYNFORM
p4268
(dp4269
g583
I437
sg1768
(lp4270
(iconstruction
TP_PHON
p4271
(dp4272
g1778
I5
sg1775
I0
sg583
I442
sg1779
Vmouse
p4273
sg66
g4239
sbasg66
g1670
sbsg1786
I1
sba(iconstruction
CXN
p4274
(dp4275
g1728
(iconstruction
TP_SYMLINKS
p4276
(dp4277
g1731
(dp4278
VN1_447
p4279
VS1_449
p4280
ssg583
I445
sg66
g1670
sbsg1737
VN
p4281
sg1739
I1
sg66
VTURTLE
p4282
sg1740
(iconstruction
TP_SEMFRAME
p4283
(dp4284
g96
g0
(g97
g2
Ntp4285
Rp4286
(dp4287
g101
(dp4288
(iconstruction
TP_NODE
p4289
(dp4290
g1749
I00
sg85
g795
sg66
g4279
sg1750
I00
sg1751
I00
sg583
I447
sb(dp4291
g1750
I00
sg85
g795
ss(iconstruction
TP_NODE
p4292
(dp4293
g1749
I01
sg85
g741
sg66
VENT_446
p4294
sg1750
I01
sg1751
I00
sg583
I446
sb(dp4295
g1750
I01
sg85
g741
sssg284
g285
sg286
g285
sg287
(dp4296
g4289
(dp4297
sg4292
(dp4298
g4289
(dp4299
g85
g732
ssssg481
g4296
sg96
(dp4300
sg483
g285
sg484
g4296
sg485
(dp4301
g4289
(dp4302
g4292
g4299
ssg4292
(dp4303
ssbsg578
(lp4304
g4292
ag4289
asg851
(lp4305
(iconstruction
TP_REL
p4306
(dp4307
g857
g4289
sg85
g732
sg583
I448
sg858
g4292
sg66
VIS_448
p4308
sbasg583
I443
sg66
g1670
sbsg1765
(iconstruction
TP_SYNFORM
p4309
(dp4310
g583
I444
sg1768
(lp4311
(iconstruction
TP_PHON
p4312
(dp4313
g1778
I6
sg1775
I0
sg583
I449
sg1779
Vturtle
p4314
sg66
g4280
sbasg66
g1670
sbsg1786
I1
sba(iconstruction
CXN
p4315
(dp4316
g1728
(iconstruction
TP_SYMLINKS
p4317
(dp4318
g1731
(dp4319
VN1_454
p4320
VS1_456
p4321
ssg583
I452
sg66
g1670
sbsg1737
VN
p4322
sg1739
I1
sg66
VDRESS
p4323
sg1740
(iconstruction
TP_SEMFRAME
p4324
(dp4325
g96
g0
(g97
g2
Ntp4326
Rp4327
(dp4328
g101
(dp4329
(iconstruction
TP_NODE
p4330
(dp4331
g1749
I01
sg85
g741
sg66
VENT_453
p4332
sg1750
I01
sg1751
I00
sg583
I453
sb(dp4333
g1750
I01
sg85
g741
ss(iconstruction
TP_NODE
p4334
(dp4335
g1749
I00
sg85
g786
sg66
g4320
sg1750
I00
sg1751
I00
sg583
I454
sb(dp4336
g1750
I00
sg85
g786
sssg284
g285
sg286
g285
sg287
(dp4337
g4330
(dp4338
g4334
(dp4339
g85
g732
sssg4334
(dp4340
ssg481
g4337
sg96
(dp4341
sg483
g285
sg484
g4337
sg485
(dp4342
g4330
(dp4343
sg4334
(dp4344
g4330
g4339
sssbsg578
(lp4345
g4330
ag4334
asg851
(lp4346
(iconstruction
TP_REL
p4347
(dp4348
g857
g4334
sg85
g732
sg583
I455
sg858
g4330
sg66
VIS_455
p4349
sbasg583
I450
sg66
g1670
sbsg1765
(iconstruction
TP_SYNFORM
p4350
(dp4351
g583
I451
sg1768
(lp4352
(iconstruction
TP_PHON
p4353
(dp4354
g1778
I5
sg1775
I0
sg583
I456
sg1779
Vdress
p4355
sg66
g4321
sbasg66
g1670
sbsg1786
I1
sba(iconstruction
CXN
p4356
(dp4357
g1728
(iconstruction
TP_SYMLINKS
p4358
(dp4359
g1731
(dp4360
VN1_461
p4361
VS1_463
p4362
ssg583
I459
sg66
g1670
sbsg1737
VN
p4363
sg1739
I1
sg66
VTSHIRT
p4364
sg1740
(iconstruction
TP_SEMFRAME
p4365
(dp4366
g96
g0
(g97
g2
Ntp4367
Rp4368
(dp4369
g101
(dp4370
(iconstruction
TP_NODE
p4371
(dp4372
g1749
I00
sg85
g783
sg66
g4361
sg1750
I00
sg1751
I00
sg583
I461
sb(dp4373
g1750
I00
sg85
g783
ss(iconstruction
TP_NODE
p4374
(dp4375
g1749
I01
sg85
g741
sg66
VENT_460
p4376
sg1750
I01
sg1751
I00
sg583
I460
sb(dp4377
g1750
I01
sg85
g741
sssg284
g285
sg286
g285
sg287
(dp4378
g4371
(dp4379
sg4374
(dp4380
g4371
(dp4381
g85
g732
ssssg481
g4378
sg96
(dp4382
sg483
g285
sg484
g4378
sg485
(dp4383
g4371
(dp4384
g4374
g4381
ssg4374
(dp4385
ssbsg578
(lp4386
g4374
ag4371
asg851
(lp4387
(iconstruction
TP_REL
p4388
(dp4389
g857
g4371
sg85
g732
sg583
I462
sg858
g4374
sg66
VIS_462
p4390
sbasg583
I457
sg66
g1670
sbsg1765
(iconstruction
TP_SYNFORM
p4391
(dp4392
g583
I458
sg1768
(lp4393
(iconstruction
TP_PHON
p4394
(dp4395
g1778
I6
sg1775
I0
sg583
I463
sg1779
Vt-shirt
p4396
sg66
g4362
sbasg66
g1670
sbsg1786
I1
sba(iconstruction
CXN
p4397
(dp4398
g1728
(iconstruction
TP_SYMLINKS
p4399
(dp4400
g1731
(dp4401
VN1_468
p4402
VS2_471
p4403
ssg583
I466
sg66
g1670
sbsg1737
VN
p4404
sg1739
I1
sg66
VBOXINGRING
p4405
sg1740
(iconstruction
TP_SEMFRAME
p4406
(dp4407
g96
g0
(g97
g2
Ntp4408
Rp4409
(dp4410
g101
(dp4411
(iconstruction
TP_NODE
p4412
(dp4413
g1749
I01
sg85
g741
sg66
VENT_467
p4414
sg1750
I01
sg1751
I00
sg583
I467
sb(dp4415
g1750
I01
sg85
g741
ss(iconstruction
TP_NODE
p4416
(dp4417
g1749
I00
sg85
g840
sg66
g4402
sg1750
I00
sg1751
I00
sg583
I468
sb(dp4418
g1750
I00
sg85
g840
sssg284
g285
sg286
g285
sg287
(dp4419
g4412
(dp4420
g4416
(dp4421
g85
g732
sssg4416
(dp4422
ssg481
g4419
sg96
(dp4423
sg483
g285
sg484
g4419
sg485
(dp4424
g4412
(dp4425
sg4416
(dp4426
g4412
g4421
sssbsg578
(lp4427
g4412
ag4416
asg851
(lp4428
(iconstruction
TP_REL
p4429
(dp4430
g857
g4416
sg85
g732
sg583
I469
sg858
g4412
sg66
VIS_469
p4431
sbasg583
I464
sg66
g1670
sbsg1765
(iconstruction
TP_SYNFORM
p4432
(dp4433
g583
I465
sg1768
(lp4434
(iconstruction
TP_PHON
p4435
(dp4436
g1778
I6
sg1775
I0
sg583
I470
sg1779
Vboxing
p4437
sg66
VS1_470
p4438
sba(iconstruction
TP_PHON
p4439
(dp4440
g1778
I4
sg1775
I1
sg583
I471
sg1779
Vring
p4441
sg66
g4403
sbasg66
g1670
sbsg1786
I1
sba(iconstruction
CXN
p4442
(dp4443
g1728
(iconstruction
TP_SYMLINKS
p4444
(dp4445
g1731
(dp4446
VN1_476
p4447
VS1_478
p4448
ssg583
I474
sg66
g1670
sbsg1737
VN
p4449
sg1739
I1
sg66
VPARK
p4450
sg1740
(iconstruction
TP_SEMFRAME
p4451
(dp4452
g96
g0
(g97
g2
Ntp4453
Rp4454
(dp4455
g101
(dp4456
(iconstruction
TP_NODE
p4457
(dp4458
g1749
I01
sg85
g741
sg66
VENT_475
p4459
sg1750
I01
sg1751
I00
sg583
I475
sb(dp4460
g1750
I01
sg85
g741
ss(iconstruction
TP_NODE
p4461
(dp4462
g1749
I00
sg85
g843
sg66
g4447
sg1750
I00
sg1751
I00
sg583
I476
sb(dp4463
g1750
I00
sg85
g843
sssg284
g285
sg286
g285
sg287
(dp4464
g4457
(dp4465
g4461
(dp4466
g85
g732
sssg4461
(dp4467
ssg481
g4464
sg96
(dp4468
sg483
g285
sg484
g4464
sg485
(dp4469
g4457
(dp4470
sg4461
(dp4471
g4457
g4466
sssbsg578
(lp4472
g4457
ag4461
asg851
(lp4473
(iconstruction
TP_REL
p4474
(dp4475
g857
g4461
sg85
g732
sg583
I477
sg858
g4457
sg66
VIS_477
p4476
sbasg583
I472
sg66
g1670
sbsg1765
(iconstruction
TP_SYNFORM
p4477
(dp4478
g583
I473
sg1768
(lp4479
(iconstruction
TP_PHON
p4480
(dp4481
g1778
I4
sg1775
I0
sg583
I478
sg1779
Vpark
p4482
sg66
g4448
sbasg66
g1670
sbsg1786
I1
sba(iconstruction
CXN
p4483
(dp4484
g1728
(iconstruction
TP_SYMLINKS
p4485
(dp4486
g1731
(dp4487
VN1_483
p4488
VS1_485
p4489
ssg583
I481
sg66
g1670
sbsg1737
VN
p4490
sg1739
I1
sg66
VSHIRT
p4491
sg1740
(iconstruction
TP_SEMFRAME
p4492
(dp4493
g96
g0
(g97
g2
Ntp4494
Rp4495
(dp4496
g101
(dp4497
(iconstruction
TP_NODE
p4498
(dp4499
g1749
I00
sg85
g789
sg66
g4488
sg1750
I00
sg1751
I00
sg583
I483
sb(dp4500
g1750
I00
sg85
g789
ss(iconstruction
TP_NODE
p4501
(dp4502
g1749
I01
sg85
g741
sg66
VENT_482
p4503
sg1750
I01
sg1751
I00
sg583
I482
sb(dp4504
g1750
I01
sg85
g741
sssg284
g285
sg286
g285
sg287
(dp4505
g4498
(dp4506
sg4501
(dp4507
g4498
(dp4508
g85
g732
ssssg481
g4505
sg96
(dp4509
sg483
g285
sg484
g4505
sg485
(dp4510
g4498
(dp4511
g4501
g4508
ssg4501
(dp4512
ssbsg578
(lp4513
g4501
ag4498
asg851
(lp4514
(iconstruction
TP_REL
p4515
(dp4516
g857
g4498
sg85
g732
sg583
I484
sg858
g4501
sg66
VIS_484
p4517
sbasg583
I479
sg66
g1670
sbsg1765
(iconstruction
TP_SYNFORM
p4518
(dp4519
g583
I480
sg1768
(lp4520
(iconstruction
TP_PHON
p4521
(dp4522
g1778
I5
sg1775
I0
sg583
I485
sg1779
Vshirt
p4523
sg66
g4489
sbasg66
g1670
sbsg1786
I1
sba(iconstruction
CXN
p4524
(dp4525
g1728
(iconstruction
TP_SYMLINKS
p4526
(dp4527
g1731
(dp4528
VN1_490
p4529
VS1_492
p4530
ssg583
I488
sg66
g1670
sbsg1737
VN
p4531
sg1739
I1
sg66
VSUIT
p4532
sg1740
(iconstruction
TP_SEMFRAME
p4533
(dp4534
g96
g0
(g97
g2
Ntp4535
Rp4536
(dp4537
g101
(dp4538
(iconstruction
TP_NODE
p4539
(dp4540
g1749
I00
sg85
g792
sg66
g4529
sg1750
I00
sg1751
I00
sg583
I490
sb(dp4541
g1750
I00
sg85
g792
ss(iconstruction
TP_NODE
p4542
(dp4543
g1749
I01
sg85
g741
sg66
VENT_489
p4544
sg1750
I01
sg1751
I00
sg583
I489
sb(dp4545
g1750
I01
sg85
g741
sssg284
g285
sg286
g285
sg287
(dp4546
g4539
(dp4547
sg4542
(dp4548
g4539
(dp4549
g85
g732
ssssg481
g4546
sg96
(dp4550
sg483
g285
sg484
g4546
sg485
(dp4551
g4539
(dp4552
g4542
g4549
ssg4542
(dp4553
ssbsg578
(lp4554
g4542
ag4539
asg851
(lp4555
(iconstruction
TP_REL
p4556
(dp4557
g857
g4539
sg85
g732
sg583
I491
sg858
g4542
sg66
VIS_491
p4558
sbasg583
I486
sg66
g1670
sbsg1765
(iconstruction
TP_SYNFORM
p4559
(dp4560
g583
I487
sg1768
(lp4561
(iconstruction
TP_PHON
p4562
(dp4563
g1778
I4
sg1775
I0
sg583
I492
sg1779
Vsuit
p4564
sg66
g4530
sbasg66
g1670
sbsg1786
I1
sba(iconstruction
CXN
p4565
(dp4566
g1728
(iconstruction
TP_SYMLINKS
p4567
(dp4568
g1731
(dp4569
VN1_497
p4570
VS1_499
p4571
ssg583
I495
sg66
g1670
sbsg1737
VN
p4572
sg1739
I1
sg66
VCELLO
p4573
sg1740
(iconstruction
TP_SEMFRAME
p4574
(dp4575
g96
g0
(g97
g2
Ntp4576
Rp4577
(dp4578
g101
(dp4579
(iconstruction
TP_NODE
p4580
(dp4581
g1749
I01
sg85
g741
sg66
VENT_496
p4582
sg1750
I01
sg1751
I00
sg583
I496
sb(dp4583
g1750
I01
sg85
g741
ss(iconstruction
TP_NODE
p4584
(dp4585
g1749
I00
sg85
g774
sg66
g4570
sg1750
I00
sg1751
I00
sg583
I497
sb(dp4586
g1750
I00
sg85
g774
sssg284
g285
sg286
g285
sg287
(dp4587
g4580
(dp4588
g4584
(dp4589
g85
g732
sssg4584
(dp4590
ssg481
g4587
sg96
(dp4591
sg483
g285
sg484
g4587
sg485
(dp4592
g4580
(dp4593
sg4584
(dp4594
g4580
g4589
sssbsg578
(lp4595
g4580
ag4584
asg851
(lp4596
(iconstruction
TP_REL
p4597
(dp4598
g857
g4584
sg85
g732
sg583
I498
sg858
g4580
sg66
VIS_498
p4599
sbasg583
I493
sg66
g1670
sbsg1765
(iconstruction
TP_SYNFORM
p4600
(dp4601
g583
I494
sg1768
(lp4602
(iconstruction
TP_PHON
p4603
(dp4604
g1778
I5
sg1775
I0
sg583
I499
sg1779
VCELLO
p4605
sg66
g4571
sbasg66
g1670
sbsg1786
I1
sba(iconstruction
CXN
p4606
(dp4607
g1728
(iconstruction
TP_SYMLINKS
p4608
(dp4609
g1731
(dp4610
VN1_504
p4611
VS1_506
p4612
ssg583
I502
sg66
g1670
sbsg1737
VN
p4613
sg1739
I1
sg66
VBAG
p4614
sg1740
(iconstruction
TP_SEMFRAME
p4615
(dp4616
g96
g0
(g97
g2
Ntp4617
Rp4618
(dp4619
g101
(dp4620
(iconstruction
TP_NODE
p4621
(dp4622
g1749
I00
sg85
g765
sg66
g4611
sg1750
I00
sg1751
I00
sg583
I504
sb(dp4623
g1750
I00
sg85
g765
ss(iconstruction
TP_NODE
p4624
(dp4625
g1749
I01
sg85
g741
sg66
VENT_503
p4626
sg1750
I01
sg1751
I00
sg583
I503
sb(dp4627
g1750
I01
sg85
g741
sssg284
g285
sg286
g285
sg287
(dp4628
g4621
(dp4629
sg4624
(dp4630
g4621
(dp4631
g85
g732
ssssg481
g4628
sg96
(dp4632
sg483
g285
sg484
g4628
sg485
(dp4633
g4621
(dp4634
g4624
g4631
ssg4624
(dp4635
ssbsg578
(lp4636
g4624
ag4621
asg851
(lp4637
(iconstruction
TP_REL
p4638
(dp4639
g857
g4621
sg85
g732
sg583
I505
sg858
g4624
sg66
VIS_505
p4640
sbasg583
I500
sg66
g1670
sbsg1765
(iconstruction
TP_SYNFORM
p4641
(dp4642
g583
I501
sg1768
(lp4643
(iconstruction
TP_PHON
p4644
(dp4645
g1778
I3
sg1775
I0
sg583
I506
sg1779
Vbag
p4646
sg66
g4612
sbasg66
g1670
sbsg1786
I1
sba(iconstruction
CXN
p4647
(dp4648
g1728
(iconstruction
TP_SYMLINKS
p4649
(dp4650
g1731
(dp4651
VN1_511
p4652
VS2_514
p4653
ssg583
I509
sg66
g1670
sbsg1737
VN
p4654
sg1739
I1
sg66
VWATERING_CAN
p4655
sg1740
(iconstruction
TP_SEMFRAME
p4656
(dp4657
g96
g0
(g97
g2
Ntp4658
Rp4659
(dp4660
g101
(dp4661
(iconstruction
TP_NODE
p4662
(dp4663
g1749
I01
sg85
g741
sg66
VENT_510
p4664
sg1750
I01
sg1751
I00
sg583
I510
sb(dp4665
g1750
I01
sg85
g741
ss(iconstruction
TP_NODE
p4666
(dp4667
g1749
I00
sg85
g762
sg66
g4652
sg1750
I00
sg1751
I00
sg583
I511
sb(dp4668
g1750
I00
sg85
g762
sssg284
g285
sg286
g285
sg287
(dp4669
g4662
(dp4670
g4666
(dp4671
g85
g732
sssg4666
(dp4672
ssg481
g4669
sg96
(dp4673
sg483
g285
sg484
g4669
sg485
(dp4674
g4662
(dp4675
sg4666
(dp4676
g4662
g4671
sssbsg578
(lp4677
g4662
ag4666
asg851
(lp4678
(iconstruction
TP_REL
p4679
(dp4680
g857
g4666
sg85
g732
sg583
I512
sg858
g4662
sg66
VIS_512
p4681
sbasg583
I507
sg66
g1670
sbsg1765
(iconstruction
TP_SYNFORM
p4682
(dp4683
g583
I508
sg1768
(lp4684
(iconstruction
TP_PHON
p4685
(dp4686
g1778
I8
sg1775
I0
sg583
I513
sg1779
Vwatering
p4687
sg66
VS1_513
p4688
sba(iconstruction
TP_PHON
p4689
(dp4690
g1778
I3
sg1775
I1
sg583
I514
sg1779
Vcan
p4691
sg66
g4653
sbasg66
g1670
sbsg1786
I1
sba(iconstruction
CXN
p4692
(dp4693
g1728
(iconstruction
TP_SYMLINKS
p4694
(dp4695
g1731
(dp4696
VN1_519
p4697
VS1_521
p4698
ssg583
I517
sg66
g1670
sbsg1737
VN
p4699
sg1739
I1
sg66
VBALLERINA
p4700
sg1740
(iconstruction
TP_SEMFRAME
p4701
(dp4702
g96
g0
(g97
g2
Ntp4703
Rp4704
(dp4705
g101
(dp4706
(iconstruction
TP_NODE
p4707
(dp4708
g1749
I01
sg85
g741
sg66
VENT_518
p4709
sg1750
I01
sg1751
I00
sg583
I518
sb(dp4710
g1750
I01
sg85
g741
ss(iconstruction
TP_NODE
p4711
(dp4712
g1749
I00
sg85
g819
sg66
g4697
sg1750
I00
sg1751
I00
sg583
I519
sb(dp4713
g1750
I00
sg85
g819
sssg284
g285
sg286
g285
sg287
(dp4714
g4707
(dp4715
g4711
(dp4716
g85
g732
sssg4711
(dp4717
ssg481
g4714
sg96
(dp4718
sg483
g285
sg484
g4714
sg485
(dp4719
g4707
(dp4720
sg4711
(dp4721
g4707
g4716
sssbsg578
(lp4722
g4707
ag4711
asg851
(lp4723
(iconstruction
TP_REL
p4724
(dp4725
g857
g4711
sg85
g732
sg583
I520
sg858
g4707
sg66
VIS_520
p4726
sbasg583
I515
sg66
g1670
sbsg1765
(iconstruction
TP_SYNFORM
p4727
(dp4728
g583
I516
sg1768
(lp4729
(iconstruction
TP_PHON
p4730
(dp4731
g1778
I9
sg1775
I0
sg583
I521
sg1779
Vballerina
p4732
sg66
g4698
sbasg66
g1670
sbsg1786
I1
sba(iconstruction
CXN
p4733
(dp4734
g1728
(iconstruction
TP_SYMLINKS
p4735
(dp4736
g1731
(dp4737
VN1_526
p4738
VS1_528
p4739
ssg583
I524
sg66
g1670
sbsg1737
VN
p4740
sg1739
I1
sg66
VCELLIST
p4741
sg1740
(iconstruction
TP_SEMFRAME
p4742
(dp4743
g96
g0
(g97
g2
Ntp4744
Rp4745
(dp4746
g101
(dp4747
(iconstruction
TP_NODE
p4748
(dp4749
g1749
I00
sg85
g822
sg66
g4738
sg1750
I00
sg1751
I00
sg583
I526
sb(dp4750
g1750
I00
sg85
g822
ss(iconstruction
TP_NODE
p4751
(dp4752
g1749
I01
sg85
g741
sg66
VENT_525
p4753
sg1750
I01
sg1751
I00
sg583
I525
sb(dp4754
g1750
I01
sg85
g741
sssg284
g285
sg286
g285
sg287
(dp4755
g4748
(dp4756
sg4751
(dp4757
g4748
(dp4758
g85
g732
ssssg481
g4755
sg96
(dp4759
sg483
g285
sg484
g4755
sg485
(dp4760
g4748
(dp4761
g4751
g4758
ssg4751
(dp4762
ssbsg578
(lp4763
g4751
ag4748
asg851
(lp4764
(iconstruction
TP_REL
p4765
(dp4766
g857
g4748
sg85
g732
sg583
I527
sg858
g4751
sg66
VIS_527
p4767
sbasg583
I522
sg66
g1670
sbsg1765
(iconstruction
TP_SYNFORM
p4768
(dp4769
g583
I523
sg1768
(lp4770
(iconstruction
TP_PHON
p4771
(dp4772
g1778
I7
sg1775
I0
sg583
I528
sg1779
Vcellist
p4773
sg66
g4739
sbasg66
g1670
sbsg1786
I1
sba(iconstruction
CXN
p4774
(dp4775
g1728
(iconstruction
TP_SYMLINKS
p4776
(dp4777
g1731
(dp4778
VN1_533
p4779
VS1_535
p4780
ssg583
I531
sg66
g1670
sbsg1737
VN
p4781
sg1739
I1
sg66
VFENCER
p4782
sg1740
(iconstruction
TP_SEMFRAME
p4783
(dp4784
g96
g0
(g97
g2
Ntp4785
Rp4786
(dp4787
g101
(dp4788
(iconstruction
TP_NODE
p4789
(dp4790
g1749
I00
sg85
g828
sg66
g4779
sg1750
I00
sg1751
I00
sg583
I533
sb(dp4791
g1750
I00
sg85
g828
ss(iconstruction
TP_NODE
p4792
(dp4793
g1749
I01
sg85
g741
sg66
VENT_532
p4794
sg1750
I01
sg1751
I00
sg583
I532
sb(dp4795
g1750
I01
sg85
g741
sssg284
g285
sg286
g285
sg287
(dp4796
g4789
(dp4797
sg4792
(dp4798
g4789
(dp4799
g85
g732
ssssg481
g4796
sg96
(dp4800
sg483
g285
sg484
g4796
sg485
(dp4801
g4789
(dp4802
g4792
g4799
ssg4792
(dp4803
ssbsg578
(lp4804
g4792
ag4789
asg851
(lp4805
(iconstruction
TP_REL
p4806
(dp4807
g857
g4789
sg85
g732
sg583
I534
sg858
g4792
sg66
VIS_534
p4808
sbasg583
I529
sg66
g1670
sbsg1765
(iconstruction
TP_SYNFORM
p4809
(dp4810
g583
I530
sg1768
(lp4811
(iconstruction
TP_PHON
p4812
(dp4813
g1778
I6
sg1775
I0
sg583
I535
sg1779
Vfencer
p4814
sg66
g4780
sbasg66
g1670
sbsg1786
I1
sba(iconstruction
CXN
p4815
(dp4816
g1728
(iconstruction
TP_SYMLINKS
p4817
(dp4818
g1731
(dp4819
VN1_540
p4820
VS1_542
p4821
ssg583
I538
sg66
g1670
sbsg1737
VN
p4822
sg1739
I1
sg66
VROBBER
p4823
sg1740
(iconstruction
TP_SEMFRAME
p4824
(dp4825
g96
g0
(g97
g2
Ntp4826
Rp4827
(dp4828
g101
(dp4829
(iconstruction
TP_NODE
p4830
(dp4831
g1749
I01
sg85
g741
sg66
VENT_539
p4832
sg1750
I01
sg1751
I00
sg583
I539
sb(dp4833
g1750
I01
sg85
g741
ss(iconstruction
TP_NODE
p4834
(dp4835
g1749
I00
sg85
g831
sg66
g4820
sg1750
I00
sg1751
I00
sg583
I540
sb(dp4836
g1750
I00
sg85
g831
sssg284
g285
sg286
g285
sg287
(dp4837
g4830
(dp4838
g4834
(dp4839
g85
g732
sssg4834
(dp4840
ssg481
g4837
sg96
(dp4841
sg483
g285
sg484
g4837
sg485
(dp4842
g4830
(dp4843
sg4834
(dp4844
g4830
g4839
sssbsg578
(lp4845
g4830
ag4834
asg851
(lp4846
(iconstruction
TP_REL
p4847
(dp4848
g857
g4834
sg85
g732
sg583
I541
sg858
g4830
sg66
VIS_541
p4849
sbasg583
I536
sg66
g1670
sbsg1765
(iconstruction
TP_SYNFORM
p4850
(dp4851
g583
I537
sg1768
(lp4852
(iconstruction
TP_PHON
p4853
(dp4854
g1778
I5
sg1775
I0
sg583
I542
sg1779
Vthief
p4855
sg66
g4821
sbasg66
g1670
sbsg1786
I1
sba(iconstruction
CXN
p4856
(dp4857
g1728
(iconstruction
TP_SYMLINKS
p4858
(dp4859
g1731
(dp4860
VN1_547
p4861
VS1_549
p4862
ssg583
I545
sg66
g1670
sbsg1737
VN
p4863
sg1739
I1
sg66
VPOLICEMAN
p4864
sg1740
(iconstruction
TP_SEMFRAME
p4865
(dp4866
g96
g0
(g97
g2
Ntp4867
Rp4868
(dp4869
g101
(dp4870
(iconstruction
TP_NODE
p4871
(dp4872
g1749
I00
sg85
g813
sg66
g4861
sg1750
I00
sg1751
I00
sg583
I547
sb(dp4873
g1750
I00
sg85
g813
ss(iconstruction
TP_NODE
p4874
(dp4875
g1749
I01
sg85
g741
sg66
VENT_546
p4876
sg1750
I01
sg1751
I00
sg583
I546
sb(dp4877
g1750
I01
sg85
g741
sssg284
g285
sg286
g285
sg287
(dp4878
g4871
(dp4879
sg4874
(dp4880
g4871
(dp4881
g85
g732
ssssg481
g4878
sg96
(dp4882
sg483
g285
sg484
g4878
sg485
(dp4883
g4871
(dp4884
g4874
g4881
ssg4874
(dp4885
ssbsg578
(lp4886
g4874
ag4871
asg851
(lp4887
(iconstruction
TP_REL
p4888
(dp4889
g857
g4871
sg85
g732
sg583
I548
sg858
g4874
sg66
VIS_548
p4890
sbasg583
I543
sg66
g1670
sbsg1765
(iconstruction
TP_SYNFORM
p4891
(dp4892
g583
I544
sg1768
(lp4893
(iconstruction
TP_PHON
p4894
(dp4895
g1778
I9
sg1775
I0
sg583
I549
sg1779
Vpoliceman
p4896
sg66
g4862
sbasg66
g1670
sbsg1786
I1
sba(iconstruction
CXN
p4897
(dp4898
g1728
(iconstruction
TP_SYMLINKS
p4899
(dp4900
g1731
(dp4901
VN1_554
p4902
VS1_556
p4903
ssg583
I552
sg66
g1670
sbsg1737
VN
p4904
sg1739
I1
sg66
VHUNTER
p4905
sg1740
(iconstruction
TP_SEMFRAME
p4906
(dp4907
g96
g0
(g97
g2
Ntp4908
Rp4909
(dp4910
g101
(dp4911
(iconstruction
TP_NODE
p4912
(dp4913
g1749
I01
sg85
g741
sg66
VENT_553
p4914
sg1750
I01
sg1751
I00
sg583
I553
sb(dp4915
g1750
I01
sg85
g741
ss(iconstruction
TP_NODE
p4916
(dp4917
g1749
I00
sg85
g816
sg66
g4902
sg1750
I00
sg1751
I00
sg583
I554
sb(dp4918
g1750
I00
sg85
g816
sssg284
g285
sg286
g285
sg287
(dp4919
g4912
(dp4920
g4916
(dp4921
g85
g732
sssg4916
(dp4922
ssg481
g4919
sg96
(dp4923
sg483
g285
sg484
g4919
sg485
(dp4924
g4912
(dp4925
sg4916
(dp4926
g4912
g4921
sssbsg578
(lp4927
g4912
ag4916
asg851
(lp4928
(iconstruction
TP_REL
p4929
(dp4930
g857
g4916
sg85
g732
sg583
I555
sg858
g4912
sg66
VIS_555
p4931
sbasg583
I550
sg66
g1670
sbsg1765
(iconstruction
TP_SYNFORM
p4932
(dp4933
g583
I551
sg1768
(lp4934
(iconstruction
TP_PHON
p4935
(dp4936
g1778
I6
sg1775
I0
sg583
I556
sg1779
Vhunter
p4937
sg66
g4903
sbasg66
g1670
sbsg1786
I1
sba(iconstruction
CXN
p4938
(dp4939
g1728
(iconstruction
TP_SYMLINKS
p4940
(dp4941
g1731
(dp4942
VN1_561
p4943
VS1_563
p4944
ssg583
I559
sg66
g1670
sbsg1737
VN
p4945
sg1739
I1
sg66
VDOG
p4946
sg1740
(iconstruction
TP_SEMFRAME
p4947
(dp4948
g96
g0
(g97
g2
Ntp4949
Rp4950
(dp4951
g101
(dp4952
(iconstruction
TP_NODE
p4953
(dp4954
g1749
I00
sg85
g801
sg66
g4943
sg1750
I00
sg1751
I00
sg583
I561
sb(dp4955
g1750
I00
sg85
g801
ss(iconstruction
TP_NODE
p4956
(dp4957
g1749
I01
sg85
g741
sg66
VENT_560
p4958
sg1750
I01
sg1751
I00
sg583
I560
sb(dp4959
g1750
I01
sg85
g741
sssg284
g285
sg286
g285
sg287
(dp4960
g4953
(dp4961
sg4956
(dp4962
g4953
(dp4963
g85
g732
ssssg481
g4960
sg96
(dp4964
sg483
g285
sg484
g4960
sg485
(dp4965
g4953
(dp4966
g4956
g4963
ssg4956
(dp4967
ssbsg578
(lp4968
g4956
ag4953
asg851
(lp4969
(iconstruction
TP_REL
p4970
(dp4971
g857
g4953
sg85
g732
sg583
I562
sg858
g4956
sg66
VIS_562
p4972
sbasg583
I557
sg66
g1670
sbsg1765
(iconstruction
TP_SYNFORM
p4973
(dp4974
g583
I558
sg1768
(lp4975
(iconstruction
TP_PHON
p4976
(dp4977
g1778
I3
sg1775
I0
sg583
I563
sg1779
Vdog
p4978
sg66
g4944
sbasg66
g1670
sbsg1786
I1
sba(iconstruction
CXN
p4979
(dp4980
g1728
(iconstruction
TP_SYMLINKS
p4981
(dp4982
g1731
(dp4983
VN1_568
p4984
VS1_570
p4985
ssg583
I566
sg66
g1670
sbsg1737
VN
p4986
sg1739
I1
sg66
VHOOK
p4987
sg1740
(iconstruction
TP_SEMFRAME
p4988
(dp4989
g96
g0
(g97
g2
Ntp4990
Rp4991
(dp4992
g101
(dp4993
(iconstruction
TP_NODE
p4994
(dp4995
g1749
I00
sg85
g771
sg66
g4984
sg1750
I00
sg1751
I00
sg583
I568
sb(dp4996
g1750
I00
sg85
g771
ss(iconstruction
TP_NODE
p4997
(dp4998
g1749
I01
sg85
g741
sg66
VENT_567
p4999
sg1750
I01
sg1751
I00
sg583
I567
sb(dp5000
g1750
I01
sg85
g741
sssg284
g285
sg286
g285
sg287
(dp5001
g4994
(dp5002
sg4997
(dp5003
g4994
(dp5004
g85
g732
ssssg481
g5001
sg96
(dp5005
sg483
g285
sg484
g5001
sg485
(dp5006
g4994
(dp5007
g4997
g5004
ssg4997
(dp5008
ssbsg578
(lp5009
g4997
ag4994
asg851
(lp5010
(iconstruction
TP_REL
p5011
(dp5012
g857
g4994
sg85
g732
sg583
I569
sg858
g4997
sg66
VIS_569
p5013
sbasg583
I564
sg66
g1670
sbsg1765
(iconstruction
TP_SYNFORM
p5014
(dp5015
g583
I565
sg1768
(lp5016
(iconstruction
TP_PHON
p5017
(dp5018
g1778
I4
sg1775
I0
sg583
I570
sg1779
Vhook
p5019
sg66
g4985
sbasg66
g1670
sbsg1786
I1
sba(iconstruction
CXN
p5020
(dp5021
g1728
(iconstruction
TP_SYMLINKS
p5022
(dp5023
g1731
(dp5024
VN1_575
p5025
VS1_577
p5026
ssg583
I573
sg66
g1670
sbsg1737
VN
p5027
sg1739
I1
sg66
VBOOKSHELF
p5028
sg1740
(iconstruction
TP_SEMFRAME
p5029
(dp5030
g96
g0
(g97
g2
Ntp5031
Rp5032
(dp5033
g101
(dp5034
(iconstruction
TP_NODE
p5035
(dp5036
g1749
I01
sg85
g741
sg66
VENT_574
p5037
sg1750
I01
sg1751
I00
sg583
I574
sb(dp5038
g1750
I01
sg85
g741
ss(iconstruction
TP_NODE
p5039
(dp5040
g1749
I00
sg85
g777
sg66
g5025
sg1750
I00
sg1751
I00
sg583
I575
sb(dp5041
g1750
I00
sg85
g777
sssg284
g285
sg286
g285
sg287
(dp5042
g5035
(dp5043
g5039
(dp5044
g85
g732
sssg5039
(dp5045
ssg481
g5042
sg96
(dp5046
sg483
g285
sg484
g5042
sg485
(dp5047
g5035
(dp5048
sg5039
(dp5049
g5035
g5044
sssbsg578
(lp5050
g5035
ag5039
asg851
(lp5051
(iconstruction
TP_REL
p5052
(dp5053
g857
g5039
sg85
g732
sg583
I576
sg858
g5035
sg66
VIS_576
p5054
sbasg583
I571
sg66
g1670
sbsg1765
(iconstruction
TP_SYNFORM
p5055
(dp5056
g583
I572
sg1768
(lp5057
(iconstruction
TP_PHON
p5058
(dp5059
g1778
I9
sg1775
I0
sg583
I577
sg1779
Vbookshelf
p5060
sg66
g5026
sbasg66
g1670
sbsg1786
I1
sba(iconstruction
CXN
p5061
(dp5062
g1728
(iconstruction
TP_SYMLINKS
p5063
(dp5064
g1731
(dp5065
VN1_582
p5066
VS1_584
p5067
ssg583
I580
sg66
g1670
sbsg1737
VN
p5068
sg1739
I1
sg66
VWAGON
p5069
sg1740
(iconstruction
TP_SEMFRAME
p5070
(dp5071
g96
g0
(g97
g2
Ntp5072
Rp5073
(dp5074
g101
(dp5075
(iconstruction
TP_NODE
p5076
(dp5077
g1749
I00
sg85
g759
sg66
g5066
sg1750
I00
sg1751
I00
sg583
I582
sb(dp5078
g1750
I00
sg85
g759
ss(iconstruction
TP_NODE
p5079
(dp5080
g1749
I01
sg85
g741
sg66
VENT_581
p5081
sg1750
I01
sg1751
I00
sg583
I581
sb(dp5082
g1750
I01
sg85
g741
sssg284
g285
sg286
g285
sg287
(dp5083
g5076
(dp5084
sg5079
(dp5085
g5076
(dp5086
g85
g732
ssssg481
g5083
sg96
(dp5087
sg483
g285
sg484
g5083
sg485
(dp5088
g5076
(dp5089
g5079
g5086
ssg5079
(dp5090
ssbsg578
(lp5091
g5079
ag5076
asg851
(lp5092
(iconstruction
TP_REL
p5093
(dp5094
g857
g5076
sg85
g732
sg583
I583
sg858
g5079
sg66
VIS_583
p5095
sbasg583
I578
sg66
g1670
sbsg1765
(iconstruction
TP_SYNFORM
p5096
(dp5097
g583
I579
sg1768
(lp5098
(iconstruction
TP_PHON
p5099
(dp5100
g1778
I5
sg1775
I0
sg583
I584
sg1779
Vwagon
p5101
sg66
g5067
sbasg66
g1670
sbsg1786
I1
sba(iconstruction
CXN
p5102
(dp5103
g1728
(iconstruction
TP_SYMLINKS
p5104
(dp5105
g1731
(dp5106
VN1_589
p5107
VS1_591
p5108
ssg583
I587
sg66
g1670
sbsg1737
VN
p5109
sg1739
I1
sg66
VTREE
p5110
sg1740
(iconstruction
TP_SEMFRAME
p5111
(dp5112
g96
g0
(g97
g2
Ntp5113
Rp5114
(dp5115
g101
(dp5116
(iconstruction
TP_NODE
p5117
(dp5118
g1749
I01
sg85
g741
sg66
VENT_588
p5119
sg1750
I01
sg1751
I00
sg583
I588
sb(dp5120
g1750
I01
sg85
g741
ss(iconstruction
TP_NODE
p5121
(dp5122
g1749
I00
sg85
g768
sg66
g5107
sg1750
I00
sg1751
I00
sg583
I589
sb(dp5123
g1750
I00
sg85
g768
sssg284
g285
sg286
g285
sg287
(dp5124
g5117
(dp5125
g5121
(dp5126
g85
g732
sssg5121
(dp5127
ssg481
g5124
sg96
(dp5128
sg483
g285
sg484
g5124
sg485
(dp5129
g5117
(dp5130
sg5121
(dp5131
g5117
g5126
sssbsg578
(lp5132
g5117
ag5121
asg851
(lp5133
(iconstruction
TP_REL
p5134
(dp5135
g857
g5121
sg85
g732
sg583
I590
sg858
g5117
sg66
VIS_590
p5136
sbasg583
I585
sg66
g1670
sbsg1765
(iconstruction
TP_SYNFORM
p5137
(dp5138
g583
I586
sg1768
(lp5139
(iconstruction
TP_PHON
p5140
(dp5141
g1778
I4
sg1775
I0
sg583
I591
sg1779
Vtree
p5142
sg66
g5108
sbasg66
g1670
sbsg1786
I1
sbasbsg66
g1683
sg68
(lp5143
g0
(g70
g2
Ntp5144
Rp5145
(dp5146
g1572
Nsg66
g1578
sg75
Nsg76
Nsg1574
Nsg293
g1517
sg583
I20
sg1518
g1789
sbag0
(g70
g2
Ntp5147
Rp5148
(dp5149
g66
S'to_cxn_retrieval_C'
p5150
sg75
Nsg76
g1720
sg293
g1517
sg583
I21
sg1518
g1789
sbasg1523
(dp5151
g1578
Nsg5150
Nssg1525
(lp5152
sg1528
F1.0
sg1529
(lp5153
sg1531
(dp5154
g1156
F0.3
ssg1533
I0
sg1534
I0
sg1154
g1537
sg583
I4
sS'schemas'
p5155
g1720
sbsg1156
F0.3
sbag0
(g1721
g2
Ntp5156
Rp5157
(dp5158
g66
g1807
sg83
g1797
sg1154
Nsg583
I100
sg1155
g1789
sg1156
F0.3
sbag0
(g1721
g2
Ntp5159
Rp5160
(dp5161
g66
g1858
sg83
g1848
sg1154
Nsg583
I101
sg1155
g1789
sg1156
F0.3
sbag0
(g1721
g2
Ntp5162
Rp5163
(dp5164
g66
g1911
sg83
g1899
sg1154
Nsg583
I102
sg1155
g1789
sg1156
F0.3
sbag0
(g1721
g2
Ntp5165
Rp5166
(dp5167
g66
g1990
sg83
g1978
sg1154
Nsg583
I103
sg1155
g1789
sg1156
F0.3
sbag0
(g1721
g2
Ntp5168
Rp5169
(dp5170
g66
g2065
sg83
g2053
sg1154
Nsg583
I104
sg1155
g1789
sg1156
F0.3
sbag0
(g1721
g2
Ntp5171
Rp5172
(dp5173
g66
g2154
sg83
g2140
sg1154
Nsg583
I105
sg1155
g1789
sg1156
F0.3
sbag0
(g1721
g2
Ntp5174
Rp5175
(dp5176
g66
g2245
sg83
g2231
sg1154
Nsg583
I106
sg1155
g1789
sg1156
F0.3
sbag0
(g1721
g2
Ntp5177
Rp5178
(dp5179
g66
g2336
sg83
g2326
sg1154
Nsg583
I107
sg1155
g1789
sg1156
F0.3
sbag0
(g1721
g2
Ntp5180
Rp5181
(dp5182
g66
g2398
sg83
g2388
sg1154
Nsg583
I108
sg1155
g1789
sg1156
F0.3
sbag0
(g1721
g2
Ntp5183
Rp5184
(dp5185
g66
g2457
sg83
g2447
sg1154
Nsg583
I109
sg1155
g1789
sg1156
F0.3
sbag0
(g1721
g2
Ntp5186
Rp5187
(dp5188
g66
g2509
sg83
g2499
sg1154
Nsg583
I110
sg1155
g1789
sg1156
F0.3
sbag0
(g1721
g2
Ntp5189
Rp5190
(dp5191
g66
g2556
sg83
g2546
sg1154
Nsg583
I111
sg1155
g1789
sg1156
F0.3
sbag0
(g1721
g2
Ntp5192
Rp5193
(dp5194
g66
g2605
sg83
g2593
sg1154
Nsg583
I112
sg1155
g1789
sg1156
F0.3
sbag0
(g1721
g2
Ntp5195
Rp5196
(dp5197
g66
g2685
sg83
g2675
sg1154
Nsg583
I113
sg1155
g1789
sg1156
F0.3
sbag0
(g1721
g2
Ntp5198
Rp5199
(dp5200
g66
g2753
sg83
g2741
sg1154
Nsg583
I114
sg1155
g1789
sg1156
F0.3
sbag0
(g1721
g2
Ntp5201
Rp5202
(dp5203
g66
g2847
sg83
g2835
sg1154
Nsg583
I115
sg1155
g1789
sg1156
F0.3
sbag0
(g1721
g2
Ntp5204
Rp5205
(dp5206
g66
g2929
sg83
g2917
sg1154
Nsg583
I116
sg1155
g1789
sg1156
F0.3
sbag0
(g1721
g2
Ntp5207
Rp5208
(dp5209
g66
g3021
sg83
g3011
sg1154
Nsg583
I117
sg1155
g1789
sg1156
F0.3
sbag0
(g1721
g2
Ntp5210
Rp5211
(dp5212
g66
g3086
sg83
g3076
sg1154
Nsg583
I118
sg1155
g1789
sg1156
F0.3
sbag0
(g1721
g2
Ntp5213
Rp5214
(dp5215
g66
g3165
sg83
g3157
sg1154
Nsg583
I119
sg1155
g1789
sg1156
F0.3
sbag0
(g1721
g2
Ntp5216
Rp5217
(dp5218
g66
g3206
sg83
g3198
sg1154
Nsg583
I120
sg1155
g1789
sg1156
F0.3
sbag0
(g1721
g2
Ntp5219
Rp5220
(dp5221
g66
g3247
sg83
g3239
sg1154
Nsg583
I121
sg1155
g1789
sg1156
F0.3
sbag0
(g1721
g2
Ntp5222
Rp5223
(dp5224
g66
g3288
sg83
g3280
sg1154
Nsg583
I122
sg1155
g1789
sg1156
F0.3
sbag0
(g1721
g2
Ntp5225
Rp5226
(dp5227
g66
g3329
sg83
g3321
sg1154
Nsg583
I123
sg1155
g1789
sg1156
F0.3
sbag0
(g1721
g2
Ntp5228
Rp5229
(dp5230
g66
g3370
sg83
g3362
sg1154
Nsg583
I124
sg1155
g1789
sg1156
F0.3
sbag0
(g1721
g2
Ntp5231
Rp5232
(dp5233
g66
g3411
sg83
g3403
sg1154
Nsg583
I125
sg1155
g1789
sg1156
F0.3
sbag0
(g1721
g2
Ntp5234
Rp5235
(dp5236
g66
g3456
sg83
g3448
sg1154
Nsg583
I126
sg1155
g1789
sg1156
F0.3
sbag0
(g1721
g2
Ntp5237
Rp5238
(dp5239
g66
g3501
sg83
g3493
sg1154
Nsg583
I127
sg1155
g1789
sg1156
F0.3
sbag0
(g1721
g2
Ntp5240
Rp5241
(dp5242
g66
g3542
sg83
g3534
sg1154
Nsg583
I128
sg1155
g1789
sg1156
F0.3
sbag0
(g1721
g2
Ntp5243
Rp5244
(dp5245
g66
g3583
sg83
g3575
sg1154
Nsg583
I129
sg1155
g1789
sg1156
F0.3
sbag0
(g1721
g2
Ntp5246
Rp5247
(dp5248
g66
g3624
sg83
g3616
sg1154
Nsg583
I130
sg1155
g1789
sg1156
F0.3
sbag0
(g1721
g2
Ntp5249
Rp5250
(dp5251
g66
g3665
sg83
g3657
sg1154
Nsg583
I131
sg1155
g1789
sg1156
F0.3
sbag0
(g1721
g2
Ntp5252
Rp5253
(dp5254
g66
g3706
sg83
g3698
sg1154
Nsg583
I132
sg1155
g1789
sg1156
F0.3
sbag0
(g1721
g2
Ntp5255
Rp5256
(dp5257
g66
g3747
sg83
g3739
sg1154
Nsg583
I133
sg1155
g1789
sg1156
F0.3
sbag0
(g1721
g2
Ntp5258
Rp5259
(dp5260
g66
g3778
sg83
g3770
sg1154
Nsg583
I134
sg1155
g1789
sg1156
F0.3
sbag0
(g1721
g2
Ntp5261
Rp5262
(dp5263
g66
g3809
sg83
g3801
sg1154
Nsg583
I135
sg1155
g1789
sg1156
F0.3
sbag0
(g1721
g2
Ntp5264
Rp5265
(dp5266
g66
g3840
sg83
g3832
sg1154
Nsg583
I136
sg1155
g1789
sg1156
F0.3
sbag0
(g1721
g2
Ntp5267
Rp5268
(dp5269
g66
g3871
sg83
g3863
sg1154
Nsg583
I137
sg1155
g1789
sg1156
F0.3
sbag0
(g1721
g2
Ntp5270
Rp5271
(dp5272
g66
g3902
sg83
g3894
sg1154
Nsg583
I138
sg1155
g1789
sg1156
F0.3
sbag0
(g1721
g2
Ntp5273
Rp5274
(dp5275
g66
g3933
sg83
g3925
sg1154
Nsg583
I139
sg1155
g1789
sg1156
F0.3
sbag0
(g1721
g2
Ntp5276
Rp5277
(dp5278
g66
g3964
sg83
g3956
sg1154
Nsg583
I140
sg1155
g1789
sg1156
F0.3
sbag0
(g1721
g2
Ntp5279
Rp5280
(dp5281
g66
g3995
sg83
g3987
sg1154
Nsg583
I141
sg1155
g1789
sg1156
F0.3
sbag0
(g1721
g2
Ntp5282
Rp5283
(dp5284
g66
g4036
sg83
g4028
sg1154
Nsg583
I142
sg1155
g1789
sg1156
F0.3
sbag0
(g1721
g2
Ntp5285
Rp5286
(dp5287
g66
g4077
sg83
g4069
sg1154
Nsg583
I143
sg1155
g1789
sg1156
F0.3
sbag0
(g1721
g2
Ntp5288
Rp5289
(dp5290
g66
g4118
sg83
g4110
sg1154
Nsg583
I144
sg1155
g1789
sg1156
F0.3
sbag0
(g1721
g2
Ntp5291
Rp5292
(dp5293
g66
g4159
sg83
g4151
sg1154
Nsg583
I145
sg1155
g1789
sg1156
F0.3
sbag0
(g1721
g2
Ntp5294
Rp5295
(dp5296
g66
g4200
sg83
g4192
sg1154
Nsg583
I146
sg1155
g1789
sg1156
F0.3
sbag0
(g1721
g2
Ntp5297
Rp5298
(dp5299
g66
g4241
sg83
g4233
sg1154
Nsg583
I147
sg1155
g1789
sg1156
F0.3
sbag0
(g1721
g2
Ntp5300
Rp5301
(dp5302
g66
g4282
sg83
g4274
sg1154
Nsg583
I148
sg1155
g1789
sg1156
F0.3
sbag0
(g1721
g2
Ntp5303
Rp5304
(dp5305
g66
g4323
sg83
g4315
sg1154
Nsg583
I149
sg1155
g1789
sg1156
F0.3
sbag0
(g1721
g2
Ntp5306
Rp5307
(dp5308
g66
g4364
sg83
g4356
sg1154
Nsg583
I150
sg1155
g1789
sg1156
F0.3
sbag0
(g1721
g2
Ntp5309
Rp5310
(dp5311
g66
g4405
sg83
g4397
sg1154
Nsg583
I151
sg1155
g1789
sg1156
F0.3
sbag0
(g1721
g2
Ntp5312
Rp5313
(dp5314
g66
g4450
sg83
g4442
sg1154
Nsg583
I152
sg1155
g1789
sg1156
F0.3
sbag0
(g1721
g2
Ntp5315
Rp5316
(dp5317
g66
g4491
sg83
g4483
sg1154
Nsg583
I153
sg1155
g1789
sg1156
F0.3
sbag0
(g1721
g2
Ntp5318
Rp5319
(dp5320
g66
g4532
sg83
g4524
sg1154
Nsg583
I154
sg1155
g1789
sg1156
F0.3
sbag0
(g1721
g2
Ntp5321
Rp5322
(dp5323
g66
g4573
sg83
g4565
sg1154
Nsg583
I155
sg1155
g1789
sg1156
F0.3
sbag0
(g1721
g2
Ntp5324
Rp5325
(dp5326
g66
g4614
sg83
g4606
sg1154
Nsg583
I156
sg1155
g1789
sg1156
F0.3
sbag0
(g1721
g2
Ntp5327
Rp5328
(dp5329
g66
g4655
sg83
g4647
sg1154
Nsg583
I157
sg1155
g1789
sg1156
F0.3
sbag0
(g1721
g2
Ntp5330
Rp5331
(dp5332
g66
g4700
sg83
g4692
sg1154
Nsg583
I158
sg1155
g1789
sg1156
F0.3
sbag0
(g1721
g2
Ntp5333
Rp5334
(dp5335
g66
g4741
sg83
g4733
sg1154
Nsg583
I159
sg1155
g1789
sg1156
F0.3
sbag0
(g1721
g2
Ntp5336
Rp5337
(dp5338
g66
g4782
sg83
g4774
sg1154
Nsg583
I160
sg1155
g1789
sg1156
F0.3
sbag0
(g1721
g2
Ntp5339
Rp5340
(dp5341
g66
g4823
sg83
g4815
sg1154
Nsg583
I161
sg1155
g1789
sg1156
F0.3
sbag0
(g1721
g2
Ntp5342
Rp5343
(dp5344
g66
g4864
sg83
g4856
sg1154
Nsg583
I162
sg1155
g1789
sg1156
F0.3
sbag0
(g1721
g2
Ntp5345
Rp5346
(dp5347
g66
g4905
sg83
g4897
sg1154
Nsg583
I163
sg1155
g1789
sg1156
F0.3
sbag0
(g1721
g2
Ntp5348
Rp5349
(dp5350
g66
g4946
sg83
g4938
sg1154
Nsg583
I164
sg1155
g1789
sg1156
F0.3
sbag0
(g1721
g2
Ntp5351
Rp5352
(dp5353
g66
g4987
sg83
g4979
sg1154
Nsg583
I165
sg1155
g1789
sg1156
F0.3
sbag0
(g1721
g2
Ntp5354
Rp5355
(dp5356
g66
g5028
sg83
g5020
sg1154
Nsg583
I166
sg1155
g1789
sg1156
F0.3
sbag0
(g1721
g2
Ntp5357
Rp5358
(dp5359
g66
g5069
sg83
g5061
sg1154
Nsg583
I167
sg1155
g1789
sg1156
F0.3
sbag0
(g1721
g2
Ntp5360
Rp5361
(dp5362
g66
g5110
sg83
g5102
sg1154
Nsg583
I168
sg1155
g1789
sg1156
F0.3
sbasg1574
Nsg293
g1553
sg583
I22
sg1518
g1705
sbag1700
asg1531
(dp5363
sg1533
I0
sg1534
I0
sg1154
g1537
sg583
I5
sbsbsS'port_from'
p5364
g1576
sg1154
g1537
sg583
I1
sbag0
(g1692
g2
Ntp5365
Rp5366
(dp5367
g1696
I0
sg66
g1670
sg1697
I0
sg1698
g1718
sg5364
g5145
sg1154
g1537
sg583
I2
sbag0
(g1692
g2
Ntp5368
Rp5369
(dp5370
g1696
I0
sg66
g1670
sg1697
I0
sg1698
g0
(g70
g2
Ntp5371
Rp5372
(dp5373
g1572
Nsg66
S'from_cxn_retrieval_P'
p5374
sg75
Nsg76
Nsg1574
Nsg293
g1553
sg583
I14
sg1518
g0
(clanguage_schemas
GRAMMATICAL_WM_P
p5375
g2
Ntp5376
Rp5377
(dp5378
g64
(dp5379
g5374
NsS'from_phonological_WM_P'
p5380
Nsg1702
Nsg1561
Nssg1563
(lp5381
sg66
g1679
sg1566
(lp5382
sg68
(lp5383
g0
(g70
g2
Ntp5384
Rp5385
(dp5386
g1572
Nsg66
g1522
sg75
Nsg76
Nsg1574
Nsg293
g1517
sg583
I17
sg1518
g5377
sbag0
(g70
g2
Ntp5387
Rp5388
(dp5389
g1572
Nsg66
S'to_phonological_WM_P'
p5390
sg75
Nsg76
Nsg1574
Nsg293
g1517
sg583
I18
sg1518
g5377
sbag0
(g70
g2
Ntp5391
Rp5392
(dp5393
g66
g1590
sg75
Nsg76
Nsg293
g1517
sg583
I19
sg1518
g5377
sbasg1523
(dp5394
g1590
Nsg5390
Nsg1522
NssS'time_to_next_prod'
p5395
I8
sg1528
F1.0
sg1592
(lp5396
sg1529
(lp5397
g0
(g70
g2
Ntp5398
Rp5399
(dp5400
g1572
Nsg66
g1702
sg75
Nsg76
(dp5401
g578
(dp5402
sg851
(dp5403
ssg1574
Nsg293
g1553
sg583
I13
sg1518
g5377
sbag5372
ag0
(g70
g2
Ntp5404
Rp5405
(dp5406
g1572
Nsg66
g1561
sg75
Nsg76
(dp5407
S'params_style'
p5408
(dp5409
S'continuity'
p5410
F0.3
sS'form_length'
p5411
F0.0
sS'sem_length'
p5412
F0.0
sS'activation'
p5413
F0.7
ssS'pressure'
p5414
I0
sg1607
I00
ssg1574
Nsg293
g1553
sg583
I15
sg1518
g5377
sbag0
(g70
g2
Ntp5415
Rp5416
(dp5417
g1572
Nsg66
g5380
sg75
Nsg76
(lp5418
g4150
ag3238
ag4109
asg1574
Nsg293
g1553
sg583
I16
sg1518
g5377
sbasS'refractory_period'
p5419
I10
sg1608
(dp5420
g1610
(dp5421
sg1612
(dp5422
g1614
(lp5423
sg1616
(dp5424
g1618
(lp5425
sg1620
(lp5426
sg1622
(lp5427
ssg1624
(lp5428
sg1533
(lp5429
sg1627
(lp5430
sssg1531
(dp5431
g1630
(dp5432
g1636
F1.0
sg1637
F1.0
sS'sub_threshold_r'
p5433
F0.8
sg1639
F0.0
sS'deact_weight'
p5434
F0.0
sg1638
F0.3
sg1640
F0.01
sg5419
I10
sg1632
F1.0
sg1633
Nsg1634
F-10.0
sg1635
F1.0
ssg1641
(dp5435
g1643
I1000
sg1644
I10
sg1645
F0.001
sg1646
F0.0
sg1647
F1.0
sg1648
F1.0
sg1649
F1.0
ssS'style'
p5436
(dp5437
g5410
F0.3
sg5411
F0.0
sg5412
F0.0
sg5413
F0.7
sssg1533
I0
sg1534
I0
sg1154
g1537
sg583
I3
sbsbsg5364
g1711
sg1154
g1537
sg583
I3
sbag0
(g1692
g2
Ntp5438
Rp5439
(dp5440
g1696
I0
sg66
g1670
sg1697
I0
sg1698
g5399
sg5364
g1570
sg1154
g1537
sg583
I4
sbag0
(g1692
g2
Ntp5441
Rp5442
(dp5443
g1696
I0
sg66
g1670
sg1697
I0
sg1698
g1602
sg5364
g5385
sg1154
g1537
sg583
I5
sbag0
(g1692
g2
Ntp5444
Rp5445
(dp5446
g1696
I0
sg66
g1670
sg1697
I0
sg1698
g0
(g70
g2
Ntp5447
Rp5448
(dp5449
g1572
Nsg66
g1559
sg75
Nsg76
Nsg1574
Nsg293
g1553
sg583
I25
sg1518
g0
(clanguage_schemas
PHON_WM_P
p5450
g2
Ntp5451
Rp5452
(dp5453
g64
(dp5454
g1559
Nssg1563
(lp5455
sg66
g1675
sg1566
(lp5456
sg68
(lp5457
g0
(g70
g2
Ntp5458
Rp5459
(dp5460
g1572
Nsg66
S'to_utter'
p5461
sg75
Nsg76
Nsg1574
Nsg293
g1517
sg583
I26
sg1518
g5452
sbag0
(g70
g2
Ntp5462
Rp5463
(dp5464
g1572
Nsg66
g1573
sg75
Nsg76
Nsg1574
Nsg293
g1517
sg583
I27
sg1518
g5452
sbag0
(g70
g2
Ntp5465
Rp5466
(dp5467
g1572
Nsg66
g1582
sg75
Nsg76
Nsg1574
Nsg293
g1517
sg583
I28
sg1518
g5452
sbag0
(g70
g2
Ntp5468
Rp5469
(dp5470
g66
g1590
sg75
Nsg76
Nsg293
g1517
sg583
I29
sg1518
g5452
sbasg1523
(dp5471
g1590
Nsg1573
Nsg5461
Nsg1582
NssS'needs_filler'
p5472
I01
sg1528
F1.0
sg1592
(lp5473
sg1529
(lp5474
g5448
asS'filler'
p5475
S'....'
p5476
sg1608
(dp5477
g1610
(dp5478
sg1612
(dp5479
g1614
(lp5480
sg1616
(dp5481
g1618
(lp5482
sg1620
(lp5483
sg1622
(lp5484
ssg1624
(lp5485
sg1533
(lp5486
sg1627
(lp5487
sssg1531
(dp5488
g1630
(dp5489
g1632
F1.0
sg1633
Nsg1634
F0.0
sg1635
F1.0
sg1636
F1.0
sg1637
F0.0
sg1638
F0.0
sg1639
F0.0
sg1640
F0.01
ssg1641
(dp5490
g1643
F100.0
sg1644
F10.0
sg1645
F0.001
sg1646
F0.0
sg1647
F1.0
sg1648
F1.0
sg1649
F1.0
sssg1533
I0
sg1534
I0
sg1154
g1537
sS'phon_sequence'
p5491
(lp5492
sg583
I6
sbsbsg5364
g5388
sg1154
g1537
sg583
I6
sbag0
(g1692
g2
Ntp5493
Rp5494
(dp5495
g1696
I0
sg66
g1670
sg1697
I0
sg1698
g5416
sg5364
g5463
sg1154
g1537
sg583
I7
sbag0
(g1692
g2
Ntp5496
Rp5497
(dp5498
g1696
I0
sg66
g1670
sg1697
I0
sg1698
g0
(g70
g2
Ntp5499
Rp5500
(dp5501
g1572
Nsg66
g1702
sg75
Nsg76
I00
sg1574
Nsg293
g1553
sg583
I32
sg1518
g0
(clanguage_schemas
CONTROL
p5502
g2
Ntp5503
Rp5504
(dp5505
g64
(dp5506
g5380
Nsg1702
Nssg66
g1665
sg68
(lp5507
g0
(g70
g2
Ntp5508
Rp5509
(dp5510
g1572
Nsg66
g1522
sg75
Nsg76
Nsg1574
Nsg293
g1517
sg583
I34
sg1518
g5504
sbag0
(g70
g2
Ntp5511
Rp5512
(dp5513
g1572
Nsg66
g1573
sg75
Nsg76
Nsg1574
Nsg293
g1517
sg583
I35
sg1518
g5504
sbag0
(g70
g2
Ntp5514
Rp5515
(dp5516
g66
S'to_grammatical_WM_C'
p5517
sg75
Nsg76
I00
sg293
g1517
sg583
I36
sg1518
g5504
sbasg1523
(dp5518
g1573
Nsg5517
Nsg1522
Nssg1528
F1.0
sg1529
(lp5519
g5500
ag0
(g70
g2
Ntp5520
Rp5521
(dp5522
g1572
Nsg66
g5380
sg75
Nsg76
Nsg1574
Nsg293
g1553
sg583
I33
sg1518
g5504
sbasS'state'
p5523
(dp5524
g1607
I00
sS'unexpressed_sem'
p5525
I00
sS'mode'
p5526
g1607
sS'last_prod_time'
p5527
I0
ssg1531
(dp5528
g5436
(dp5529
g5410
F0.3
sg5411
F0.0
sg5413
F0.7
sg5412
F0.0
ssS'task'
p5530
(dp5531
S'time_pressure'
p5532
cnumpy.core.multiarray
scalar
p5533
(cnumpy
dtype
p5534
(S'f8'
p5535
I0
I1
tp5536
Rp5537
(I3
S'<'
p5538
NNNI-1
I-1
I0
tp5539
bS'\x00\x00\x00\x00\x00@\x8f@'
p5540
tp5541
Rp5542
sS'start_produce'
p5543
I1
sssg1533
I0
sg1534
I0
sg1154
g1537
sg583
I8
sbsbsg5364
g1580
sg1154
g1537
sg583
I8
sbag0
(g1692
g2
Ntp5544
Rp5545
(dp5546
g1696
I0
sg66
g1670
sg1697
I0
sg1698
g0
(g70
g2
Ntp5547
Rp5548
(dp5549
g1572
Nsg66
g5380
sg75
Nsg76
Nsg1574
Nsg293
g1553
sg583
I30
sg1518
g0
(clanguage_schemas
UTTER
p5550
g2
Ntp5551
Rp5552
(dp5553
g64
(dp5554
g5380
Nssg66
g1668
sg68
(lp5555
g0
(g70
g2
Ntp5556
Rp5557
(dp5558
g66
g1590
sg75
Nsg76
Nsg293
g1517
sg583
I31
sg1518
g5552
sbasg1523
(dp5559
g1590
NssS'utterance_stack'
p5560
(lp5561
sg1528
F1.0
sg1529
(lp5562
g5548
asg1531
(dp5563
S'speech_rate'
p5564
F1.0
ssg1533
I0
sg1534
I0
sg1154
g1537
sg583
I7
sbsbsg5364
g5459
sg1154
g1537
sg583
I9
sbag0
(g1692
g2
Ntp5565
Rp5566
(dp5567
g1696
I0
sg66
g1670
sg1697
I0
sg1698
g5521
sg5364
g5466
sg1154
g1537
sg583
I10
sbag0
(g1692
g2
Ntp5568
Rp5569
(dp5570
g1696
I0
sg66
g1670
sg1697
I0
sg1698
g5405
sg5364
g5512
sg1154
g1537
sg583
I11
sbag0
(g1692
g2
Ntp5571
Rp5572
(dp5573
g1696
I0
sg66
g1670
sg1697
I0
sg1698
g1605
sg5364
g5509
sg1154
g1537
sg583
I12
sbasg1531
(dp5574
g1665
g5528
sg1675
g5488
sg67
g1532
sg1683
g5154
sg1687
g5363
sg1565
g1629
sg1668
g5563
sg1679
g5431
ssg1533
F0.0
sS'set_up_time'
p5575
I10
sS'input'
p5576
NsS'default_params'
p5577
Nsg1528
F1.0
sS'output_ports'
p5578
(lp5579
g5557
ag5469
ag5392
ag1588
asg5155
(dp5580
g1665
g5504
sg1675
g5452
sg67
g62
sg1687
g1705
sg1679
g5377
sg1565
g1556
sg1668
g5552
sg1683
g1789
ssbsg583
I2
sg5155
g77
sbsbsb.