ccopy_reg
_reconstructor
p0
(clanguage_schemas
SEM_GENERATOR
p1
c__builtin__
object
p2
Ntp3
Rp4
(dp5
S'sem_inputs'
p6
(dp7
S'{}'
p8
(dp9
Vtiming
p10
(lp11
F0.0
aF100.0
aF200.0
asVsem_rate
p12
I1
sVpropositions
p13
(dp14
VMAN_AREA
p15
(lp16
VENTITY(e1,F)
p17
aVMAN(man)
p18
aVIS(is1)
p19
aVis1(e1, man)
p20
asVACTION_AREA
p21
(lp22
VEVENT(evt1,F)
p23
aVACTION(a1,F)
p24
aVIS(is3)
p25
aVis3(evt1,a1)
p26
aVKICK(kick)
p27
aVIS(is4)
p28
aVis4(a1, kick)
p29
aVENTITY(e1,F)
p30
aVENTITY(e2,F)
p31
aVAGENT(agt)
p32
aVPATIENT(pt)
p33
aVagt(a1, e2)
p34
aVpt(a1, e1)
p35
asVGIRL_AREA
p36
(lp37
VENTITY(e2,F)
p38
aVGIRL(girl)
p39
aVIS(is2)
p40
aVis2(e2, girl)
p41
assVcomments
p42
V
p43
sVsequence
p44
(lp45
VGIRL_AREA
p46
aVMAN_AREA
p47
aVACTION_AREA
p48
asssS'is_macro'
p49
I01
sS'ground_truths'
p50
NsS'speed_param'
p51
I100
sS'interpreter'
p52
g0
(clanguage_schemas
ISRF_INTERPRETER
p53
g2
Ntp54
Rp55
(dp56
S'name_table'
p57
(dp58
sS'conceptLTM'
p59
g0
(clanguage_schemas
CONCEPT_LTM
p60
g2
Ntp61
Rp62
(dp63
S'inputs'
p64
(dp65
sS'name'
p66
S'Concept_LTM'
p67
sS'out_ports'
p68
(lp69
g0
(cschema_theory
PORT
p70
g2
Ntp71
Rp72
(dp73
g66
S'to_conceptualizer'
p74
sS'data'
p75
NsS'value'
p76
NsS'type'
p77
S'OUT'
p78
sS'id'
p79
I11
sS'schema'
p80
g62
sbag0
(g70
g2
Ntp81
Rp82
(dp83
g66
S'to_semantic_WM'
p84
sg75
Nsg76
Nsg77
g78
sg79
I12
sg80
g62
sbasS'outputs'
p85
(dp86
g74
Nsg84
NssS'connections'
p87
(lp88
sS'cpt_knowledge'
p89
g0
(cconcept
CONCEPTUAL_KNOWLEDGE
p90
g2
Ntp91
Rp92
(dp93
S'graph'
p94
g0
(cnetworkx.classes.digraph
DiGraph
p95
g2
Ntp96
Rp97
(dp98
S'node'
p99
(dp100
I1
(dp101
S'meaning'
p102
S'?'
p103
ssI2
(dp104
g102
S'CONCEPT'
p105
ssI3
(dp106
g102
VACTION
p107
ssI4
(dp108
g102
VSYMMETRIC
p109
ssI5
(dp110
g102
VMEET
p111
ssI6
(dp112
g102
VSHAKE_HANDS
p113
ssI7
(dp114
g102
VINTRANSITIVE
p115
ssI8
(dp116
g102
VLAUGH
p117
ssI9
(dp118
g102
VTRANSITIVE
p119
ssI10
(dp120
g102
VHIT
p121
ssI11
(dp122
g102
VWATCH
p123
ssI12
(dp124
g102
VPUNCH
p125
ssI13
(dp126
g102
VSPLASH
p127
ssI14
(dp128
g102
VTALK
p129
ssI15
(dp130
g102
VKISS
p131
ssI16
(dp132
g102
VSQUIRT
p133
ssI17
(dp134
g102
VKICK
p135
ssI18
(dp136
g102
VWEAR
p137
ssI19
(dp138
g102
VDITRANSITIVE
p139
ssI20
(dp140
g102
VSEND
p141
ssI21
(dp142
g102
VGIVE
p143
ssI22
(dp144
g102
VPROPERTY
p145
ssI23
(dp146
g102
VCOLOR
p147
ssI24
(dp148
g102
VBLUE
p149
ssI25
(dp150
g102
VGREEN
p151
ssI26
(dp152
g102
VWHITE
p153
ssI27
(dp154
g102
VBLACK
p155
ssI28
(dp156
g102
VRED
p157
ssI29
(dp158
g102
VAPPEARANCE
p159
ssI30
(dp160
g102
VYOUNG
p161
ssI31
(dp162
g102
VPRETTY
p163
ssI32
(dp164
g102
VHANDSOME
p165
ssI33
(dp166
g102
VSIZE
p167
ssI34
(dp168
g102
VSMALL
p169
ssI35
(dp170
g102
VBIG
p171
ssI36
(dp172
g102
VRELATION
p173
ssI37
(dp174
g102
VACTION_FRAME
p175
ssI38
(dp176
g102
VMODIFY
p177
ssI39
(dp178
g102
VTHEME
p179
ssI40
(dp180
g102
VRECIPIENT
p181
ssI41
(dp182
g102
VATTR
p183
ssI42
(dp184
g102
VAGT_PT
p185
ssI43
(dp186
g102
VPATIENT
p187
ssI44
(dp188
g102
VAGT+PT
p189
ssI45
(dp190
g102
VAGENT
p191
ssI46
(dp192
g102
VEVENT_FRAME
p193
ssI47
(dp194
g102
VTEMPORAL
p195
ssI48
(dp196
g102
VCONCURRENT
p197
ssI49
(dp198
g102
VSUCCESSIVE
p199
ssI50
(dp200
g102
VSPATIAL
p201
ssI51
(dp202
g102
VIN
p203
ssI52
(dp204
g102
VIS
p205
ssI53
(dp206
g102
VOBJECT_FRAME
p207
ssI54
(dp208
g102
VEVENT
p209
ssI55
(dp210
g102
VENTITY
p211
ssI56
(dp212
g102
VANIMATE
p213
ssI57
(dp214
g102
VANIMAL
p215
ssI58
(dp216
g102
VHUMAN
p217
ssI59
(dp218
g102
VOBJECT
p219
ssI60
(dp220
g102
VITEM
p221
ssI61
(dp222
g102
VWAGON
p223
ssI62
(dp224
g102
VWATERING_CAN
p225
ssI63
(dp226
g102
VBAG
p227
ssI64
(dp228
g102
VTREE
p229
ssI65
(dp230
g102
VHOOK
p231
ssI66
(dp232
g102
VCELLO
p233
ssI67
(dp234
g102
VBOOKSHELF
p235
ssI68
(dp236
g102
VCLOTHING
p237
ssI69
(dp238
g102
VTSHIRT
p239
ssI70
(dp240
g102
VDRESS
p241
ssI71
(dp242
g102
VSHIRT
p243
ssI72
(dp244
g102
VSUIT
p245
ssI73
(dp246
g102
VTURTLE
p247
ssI74
(dp248
g102
VMOUSE
p249
ssI75
(dp250
g102
VDOG
p251
ssI76
(dp252
g102
VBOY
p253
ssI77
(dp254
g102
VWOMAN
p255
ssI78
(dp256
g102
VPEOPLE
p257
ssI79
(dp258
g102
VPOLICEMAN
p259
ssI80
(dp260
g102
VHUNTER
p261
ssI81
(dp262
g102
VBALLERINA
p263
ssI82
(dp264
g102
VCELLIST
p265
ssI83
(dp266
g102
VGIRL
p267
ssI84
(dp268
g102
VFENCER
p269
ssI85
(dp270
g102
VROBBER
p271
ssI86
(dp272
g102
VMAN
p273
ssI87
(dp274
g102
VPLACE
p275
ssI88
(dp276
g102
VBOXINGRING
p277
ssI89
(dp278
g102
VPARK
p279
ssI90
(dp280
g102
VMALE
p281
ssI91
(dp282
g102
VFEMALE
p283
sssS'node_dict_factory'
p284
c__builtin__
dict
p285
sS'edge_attr_dict_factory'
p286
g285
sS'succ'
p287
(dp288
I1
(dp289
sI2
(dp290
sI3
(dp291
I2
(dp292
g77
S'is_a'
p293
sssI4
(dp294
I3
(dp295
g77
g293
sssI5
(dp296
I4
(dp297
g77
g293
sssI6
(dp298
I4
(dp299
g77
g293
sssI7
(dp300
I3
(dp301
g77
g293
sssI8
(dp302
I7
(dp303
g77
g293
sssI9
(dp304
I3
(dp305
g77
g293
sssI10
(dp306
I9
(dp307
g77
g293
sssI11
(dp308
I9
(dp309
g77
g293
sssI12
(dp310
I9
(dp311
g77
g293
sssI13
(dp312
I9
(dp313
g77
g293
sssI14
(dp314
I9
(dp315
g77
g293
sssI15
(dp316
I9
(dp317
g77
g293
sssI16
(dp318
I9
(dp319
g77
g293
sssI17
(dp320
I9
(dp321
g77
g293
sssI18
(dp322
I9
(dp323
g77
g293
sssI19
(dp324
I3
(dp325
g77
g293
sssI20
(dp326
I19
(dp327
g77
g293
sssI21
(dp328
I19
(dp329
g77
g293
sssI22
(dp330
I2
(dp331
g77
g293
sssI23
(dp332
I22
(dp333
g77
g293
sssI24
(dp334
I23
(dp335
g77
g293
sssI25
(dp336
I23
(dp337
g77
g293
sssI26
(dp338
I23
(dp339
g77
g293
sssI27
(dp340
I23
(dp341
g77
g293
sssI28
(dp342
I23
(dp343
g77
g293
sssI29
(dp344
I22
(dp345
g77
g293
sssI30
(dp346
I29
(dp347
g77
g293
sssI31
(dp348
I29
(dp349
g77
g293
sssI32
(dp350
I29
(dp351
g77
g293
sssI33
(dp352
I22
(dp353
g77
g293
sssI34
(dp354
I33
(dp355
g77
g293
sssI35
(dp356
I33
(dp357
g77
g293
sssI36
(dp358
I2
(dp359
g77
g293
sssI37
(dp360
I36
(dp361
g77
g293
sssI38
(dp362
I37
(dp363
g77
g293
ssI53
(dp364
g77
g293
sssI39
(dp365
I37
(dp366
g77
g293
sssI40
(dp367
I37
(dp368
g77
g293
sssI41
(dp369
I37
(dp370
g77
g293
ssI53
(dp371
g77
g293
sssI42
(dp372
I37
(dp373
g77
g293
sssI43
(dp374
I42
(dp375
g77
g293
sssI44
(dp376
I43
(dp377
g77
g293
ssI45
(dp378
g77
g293
sssI45
(dp379
I42
(dp380
g77
g293
sssI46
(dp381
I36
(dp382
g77
g293
sssI47
(dp383
I46
(dp384
g77
g293
sssI48
(dp385
I47
(dp386
g77
g293
sssI49
(dp387
I47
(dp388
g77
g293
sssI50
(dp389
I46
(dp390
g77
g293
sssI51
(dp391
I50
(dp392
g77
g293
sssI52
(dp393
I36
(dp394
g77
g293
sssI53
(dp395
I36
(dp396
g77
g293
sssI54
(dp397
I2
(dp398
g77
g293
sssI55
(dp399
I2
(dp400
g77
g293
sssI56
(dp401
I55
(dp402
g77
g293
sssI57
(dp403
I56
(dp404
g77
g293
ssI59
(dp405
g77
g293
sssI58
(dp406
I56
(dp407
g77
g293
ssI59
(dp408
g77
g293
sssI59
(dp409
I55
(dp410
g77
g293
sssI60
(dp411
I59
(dp412
g77
g293
sssI61
(dp413
I60
(dp414
g77
g293
sssI62
(dp415
I60
(dp416
g77
g293
sssI63
(dp417
I60
(dp418
g77
g293
sssI64
(dp419
I60
(dp420
g77
g293
sssI65
(dp421
I60
(dp422
g77
g293
sssI66
(dp423
I60
(dp424
g77
g293
sssI67
(dp425
I60
(dp426
g77
g293
sssI68
(dp427
I60
(dp428
g77
g293
sssI69
(dp429
I68
(dp430
g77
g293
sssI70
(dp431
I68
(dp432
g77
g293
sssI71
(dp433
I68
(dp434
g77
g293
sssI72
(dp435
I68
(dp436
g77
g293
sssI73
(dp437
I57
(dp438
g77
g293
sssI74
(dp439
I57
(dp440
g77
g293
sssI75
(dp441
I57
(dp442
g77
g293
sssI76
(dp443
I58
(dp444
g77
g293
ssI90
(dp445
g77
g293
sssI77
(dp446
I58
(dp447
g77
g293
ssI91
(dp448
g77
g293
sssI78
(dp449
I58
(dp450
g77
g293
sssI79
(dp451
I58
(dp452
g77
g293
sssI80
(dp453
I58
(dp454
g77
g293
sssI81
(dp455
I58
(dp456
g77
g293
ssI91
(dp457
g77
g293
sssI82
(dp458
I58
(dp459
g77
g293
sssI83
(dp460
I58
(dp461
g77
g293
ssI91
(dp462
g77
g293
sssI84
(dp463
I58
(dp464
g77
g293
sssI85
(dp465
I58
(dp466
g77
g293
sssI86
(dp467
I58
(dp468
g77
g293
ssI90
(dp469
g77
g293
sssI87
(dp470
I55
(dp471
g77
g293
sssI88
(dp472
I87
(dp473
g77
g293
sssI89
(dp474
I87
(dp475
g77
g293
sssI90
(dp476
I55
(dp477
g77
g293
sssI91
(dp478
I55
(dp479
g77
g293
ssssS'edge'
p480
g288
sg94
(dp481
sS'adjlist_dict_factory'
p482
g285
sS'adj'
p483
g288
sS'pred'
p484
(dp485
I1
(dp486
sI2
(dp487
I3
g292
sI36
g359
sI54
g398
sI22
g331
sI55
g400
ssI3
(dp488
I9
g305
sI19
g325
sI4
g295
sI7
g301
ssI4
(dp489
I5
g297
sI6
g299
ssI5
(dp490
sI6
(dp491
sI7
(dp492
I8
g303
ssI8
(dp493
sI9
(dp494
I10
g307
sI11
g309
sI12
g311
sI13
g313
sI14
g315
sI15
g317
sI16
g319
sI17
g321
sI18
g323
ssI10
(dp495
sI11
(dp496
sI12
(dp497
sI13
(dp498
sI14
(dp499
sI15
(dp500
sI16
(dp501
sI17
(dp502
sI18
(dp503
sI19
(dp504
I20
g327
sI21
g329
ssI20
(dp505
sI21
(dp506
sI22
(dp507
I33
g353
sI29
g345
sI23
g333
ssI23
(dp508
I24
g335
sI25
g337
sI26
g339
sI27
g341
sI28
g343
ssI24
(dp509
sI25
(dp510
sI26
(dp511
sI27
(dp512
sI28
(dp513
sI29
(dp514
I32
g351
sI30
g347
sI31
g349
ssI30
(dp515
sI31
(dp516
sI32
(dp517
sI33
(dp518
I34
g355
sI35
g357
ssI34
(dp519
sI35
(dp520
sI36
(dp521
I52
g394
sI37
g361
sI46
g382
sI53
g396
ssI37
(dp522
I40
g368
sI41
g370
sI42
g373
sI38
g363
sI39
g366
ssI38
(dp523
sI39
(dp524
sI40
(dp525
sI41
(dp526
sI42
(dp527
I43
g375
sI45
g380
ssI43
(dp528
I44
g377
ssI44
(dp529
sI45
(dp530
I44
g378
ssI46
(dp531
I50
g390
sI47
g384
ssI47
(dp532
I48
g386
sI49
g388
ssI48
(dp533
sI49
(dp534
sI50
(dp535
I51
g392
ssI51
(dp536
sI52
(dp537
sI53
(dp538
I41
g371
sI38
g364
ssI54
(dp539
sI55
(dp540
I56
g402
sI91
g479
sI90
g477
sI59
g410
sI87
g471
ssI56
(dp541
I57
g404
sI58
g407
ssI57
(dp542
I73
g438
sI74
g440
sI75
g442
ssI58
(dp543
I76
g444
sI77
g447
sI78
g450
sI79
g452
sI80
g454
sI81
g456
sI82
g459
sI83
g461
sI84
g464
sI85
g466
sI86
g468
ssI59
(dp544
I57
g405
sI58
g408
sI60
g412
ssI60
(dp545
I64
g420
sI65
g422
sI66
g424
sI67
g426
sI68
g428
sI61
g414
sI62
g416
sI63
g418
ssI61
(dp546
sI62
(dp547
sI63
(dp548
sI64
(dp549
sI65
(dp550
sI66
(dp551
sI67
(dp552
sI68
(dp553
I72
g436
sI69
g430
sI70
g432
sI71
g434
ssI69
(dp554
sI70
(dp555
sI71
(dp556
sI72
(dp557
sI73
(dp558
sI74
(dp559
sI75
(dp560
sI76
(dp561
sI77
(dp562
sI78
(dp563
sI79
(dp564
sI80
(dp565
sI81
(dp566
sI82
(dp567
sI83
(dp568
sI84
(dp569
sI85
(dp570
sI86
(dp571
sI87
(dp572
I88
g473
sI89
g475
ssI88
(dp573
sI89
(dp574
sI90
(dp575
I76
g445
sI86
g469
ssI91
(dp576
I81
g457
sI83
g462
sI77
g448
sssbsS'nodes'
p577
(lp578
g0
(cconcept
CONCEPT
p579
g2
Ntp580
Rp581
(dp582
g102
g103
sS'conceptual_knowledge'
p583
g92
sg79
I1
sg66
g103
sbag0
(g579
g2
Ntp584
Rp585
(dp586
g102
g105
sg583
g92
sg79
I2
sg66
g105
sbag0
(g579
g2
Ntp587
Rp588
(dp589
g102
g107
sg583
g92
sg79
I3
sg66
g107
sbag0
(g579
g2
Ntp590
Rp591
(dp592
g102
g109
sg583
g92
sg79
I4
sg66
g109
sbag0
(g579
g2
Ntp593
Rp594
(dp595
g102
g111
sg583
g92
sg79
I5
sg66
g111
sbag0
(g579
g2
Ntp596
Rp597
(dp598
g102
g113
sg583
g92
sg79
I6
sg66
g113
sbag0
(g579
g2
Ntp599
Rp600
(dp601
g102
g115
sg583
g92
sg79
I7
sg66
g115
sbag0
(g579
g2
Ntp602
Rp603
(dp604
g102
g117
sg583
g92
sg79
I8
sg66
g117
sbag0
(g579
g2
Ntp605
Rp606
(dp607
g102
g119
sg583
g92
sg79
I9
sg66
g119
sbag0
(g579
g2
Ntp608
Rp609
(dp610
g102
g121
sg583
g92
sg79
I10
sg66
g121
sbag0
(g579
g2
Ntp611
Rp612
(dp613
g102
g123
sg583
g92
sg79
I11
sg66
g123
sbag0
(g579
g2
Ntp614
Rp615
(dp616
g102
g125
sg583
g92
sg79
I12
sg66
g125
sbag0
(g579
g2
Ntp617
Rp618
(dp619
g102
g127
sg583
g92
sg79
I13
sg66
g127
sbag0
(g579
g2
Ntp620
Rp621
(dp622
g102
g129
sg583
g92
sg79
I14
sg66
g129
sbag0
(g579
g2
Ntp623
Rp624
(dp625
g102
g131
sg583
g92
sg79
I15
sg66
g131
sbag0
(g579
g2
Ntp626
Rp627
(dp628
g102
g133
sg583
g92
sg79
I16
sg66
g133
sbag0
(g579
g2
Ntp629
Rp630
(dp631
g102
g135
sg583
g92
sg79
I17
sg66
g135
sbag0
(g579
g2
Ntp632
Rp633
(dp634
g102
g137
sg583
g92
sg79
I18
sg66
g137
sbag0
(g579
g2
Ntp635
Rp636
(dp637
g102
g139
sg583
g92
sg79
I19
sg66
g139
sbag0
(g579
g2
Ntp638
Rp639
(dp640
g102
g141
sg583
g92
sg79
I20
sg66
g141
sbag0
(g579
g2
Ntp641
Rp642
(dp643
g102
g143
sg583
g92
sg79
I21
sg66
g143
sbag0
(g579
g2
Ntp644
Rp645
(dp646
g102
g145
sg583
g92
sg79
I22
sg66
g145
sbag0
(g579
g2
Ntp647
Rp648
(dp649
g102
g147
sg583
g92
sg79
I23
sg66
g147
sbag0
(g579
g2
Ntp650
Rp651
(dp652
g102
g149
sg583
g92
sg79
I24
sg66
g149
sbag0
(g579
g2
Ntp653
Rp654
(dp655
g102
g151
sg583
g92
sg79
I25
sg66
g151
sbag0
(g579
g2
Ntp656
Rp657
(dp658
g102
g153
sg583
g92
sg79
I26
sg66
g153
sbag0
(g579
g2
Ntp659
Rp660
(dp661
g102
g155
sg583
g92
sg79
I27
sg66
g155
sbag0
(g579
g2
Ntp662
Rp663
(dp664
g102
g157
sg583
g92
sg79
I28
sg66
g157
sbag0
(g579
g2
Ntp665
Rp666
(dp667
g102
g159
sg583
g92
sg79
I29
sg66
g159
sbag0
(g579
g2
Ntp668
Rp669
(dp670
g102
g161
sg583
g92
sg79
I30
sg66
g161
sbag0
(g579
g2
Ntp671
Rp672
(dp673
g102
g163
sg583
g92
sg79
I31
sg66
g163
sbag0
(g579
g2
Ntp674
Rp675
(dp676
g102
g165
sg583
g92
sg79
I32
sg66
g165
sbag0
(g579
g2
Ntp677
Rp678
(dp679
g102
g167
sg583
g92
sg79
I33
sg66
g167
sbag0
(g579
g2
Ntp680
Rp681
(dp682
g102
g169
sg583
g92
sg79
I34
sg66
g169
sbag0
(g579
g2
Ntp683
Rp684
(dp685
g102
g171
sg583
g92
sg79
I35
sg66
g171
sbag0
(g579
g2
Ntp686
Rp687
(dp688
g102
g173
sg583
g92
sg79
I36
sg66
g173
sbag0
(g579
g2
Ntp689
Rp690
(dp691
g102
g175
sg583
g92
sg79
I37
sg66
g175
sbag0
(g579
g2
Ntp692
Rp693
(dp694
g102
g177
sg583
g92
sg79
I38
sg66
g177
sbag0
(g579
g2
Ntp695
Rp696
(dp697
g102
g179
sg583
g92
sg79
I39
sg66
g179
sbag0
(g579
g2
Ntp698
Rp699
(dp700
g102
g181
sg583
g92
sg79
I40
sg66
g181
sbag0
(g579
g2
Ntp701
Rp702
(dp703
g102
g183
sg583
g92
sg79
I41
sg66
g183
sbag0
(g579
g2
Ntp704
Rp705
(dp706
g102
g185
sg583
g92
sg79
I42
sg66
g185
sbag0
(g579
g2
Ntp707
Rp708
(dp709
g102
g187
sg583
g92
sg79
I43
sg66
g187
sbag0
(g579
g2
Ntp710
Rp711
(dp712
g102
g189
sg583
g92
sg79
I44
sg66
g189
sbag0
(g579
g2
Ntp713
Rp714
(dp715
g102
g191
sg583
g92
sg79
I45
sg66
g191
sbag0
(g579
g2
Ntp716
Rp717
(dp718
g102
g193
sg583
g92
sg79
I46
sg66
g193
sbag0
(g579
g2
Ntp719
Rp720
(dp721
g102
g195
sg583
g92
sg79
I47
sg66
g195
sbag0
(g579
g2
Ntp722
Rp723
(dp724
g102
g197
sg583
g92
sg79
I48
sg66
g197
sbag0
(g579
g2
Ntp725
Rp726
(dp727
g102
g199
sg583
g92
sg79
I49
sg66
g199
sbag0
(g579
g2
Ntp728
Rp729
(dp730
g102
g201
sg583
g92
sg79
I50
sg66
g201
sbag0
(g579
g2
Ntp731
Rp732
(dp733
g102
g203
sg583
g92
sg79
I51
sg66
g203
sbag0
(g579
g2
Ntp734
Rp735
(dp736
g102
g205
sg583
g92
sg79
I52
sg66
g205
sbag0
(g579
g2
Ntp737
Rp738
(dp739
g102
g207
sg583
g92
sg79
I53
sg66
g207
sbag0
(g579
g2
Ntp740
Rp741
(dp742
g102
g209
sg583
g92
sg79
I54
sg66
g209
sbag0
(g579
g2
Ntp743
Rp744
(dp745
g102
g211
sg583
g92
sg79
I55
sg66
g211
sbag0
(g579
g2
Ntp746
Rp747
(dp748
g102
g213
sg583
g92
sg79
I56
sg66
g213
sbag0
(g579
g2
Ntp749
Rp750
(dp751
g102
g215
sg583
g92
sg79
I57
sg66
g215
sbag0
(g579
g2
Ntp752
Rp753
(dp754
g102
g217
sg583
g92
sg79
I58
sg66
g217
sbag0
(g579
g2
Ntp755
Rp756
(dp757
g102
g219
sg583
g92
sg79
I59
sg66
g219
sbag0
(g579
g2
Ntp758
Rp759
(dp760
g102
g221
sg583
g92
sg79
I60
sg66
g221
sbag0
(g579
g2
Ntp761
Rp762
(dp763
g102
g223
sg583
g92
sg79
I61
sg66
g223
sbag0
(g579
g2
Ntp764
Rp765
(dp766
g102
g225
sg583
g92
sg79
I62
sg66
g225
sbag0
(g579
g2
Ntp767
Rp768
(dp769
g102
g227
sg583
g92
sg79
I63
sg66
g227
sbag0
(g579
g2
Ntp770
Rp771
(dp772
g102
g229
sg583
g92
sg79
I64
sg66
g229
sbag0
(g579
g2
Ntp773
Rp774
(dp775
g102
g231
sg583
g92
sg79
I65
sg66
g231
sbag0
(g579
g2
Ntp776
Rp777
(dp778
g102
g233
sg583
g92
sg79
I66
sg66
g233
sbag0
(g579
g2
Ntp779
Rp780
(dp781
g102
g235
sg583
g92
sg79
I67
sg66
g235
sbag0
(g579
g2
Ntp782
Rp783
(dp784
g102
g237
sg583
g92
sg79
I68
sg66
g237
sbag0
(g579
g2
Ntp785
Rp786
(dp787
g102
g239
sg583
g92
sg79
I69
sg66
g239
sbag0
(g579
g2
Ntp788
Rp789
(dp790
g102
g241
sg583
g92
sg79
I70
sg66
g241
sbag0
(g579
g2
Ntp791
Rp792
(dp793
g102
g243
sg583
g92
sg79
I71
sg66
g243
sbag0
(g579
g2
Ntp794
Rp795
(dp796
g102
g245
sg583
g92
sg79
I72
sg66
g245
sbag0
(g579
g2
Ntp797
Rp798
(dp799
g102
g247
sg583
g92
sg79
I73
sg66
g247
sbag0
(g579
g2
Ntp800
Rp801
(dp802
g102
g249
sg583
g92
sg79
I74
sg66
g249
sbag0
(g579
g2
Ntp803
Rp804
(dp805
g102
g251
sg583
g92
sg79
I75
sg66
g251
sbag0
(g579
g2
Ntp806
Rp807
(dp808
g102
g253
sg583
g92
sg79
I76
sg66
g253
sbag0
(g579
g2
Ntp809
Rp810
(dp811
g102
g255
sg583
g92
sg79
I77
sg66
g255
sbag0
(g579
g2
Ntp812
Rp813
(dp814
g102
g257
sg583
g92
sg79
I78
sg66
g257
sbag0
(g579
g2
Ntp815
Rp816
(dp817
g102
g259
sg583
g92
sg79
I79
sg66
g259
sbag0
(g579
g2
Ntp818
Rp819
(dp820
g102
g261
sg583
g92
sg79
I80
sg66
g261
sbag0
(g579
g2
Ntp821
Rp822
(dp823
g102
g263
sg583
g92
sg79
I81
sg66
g263
sbag0
(g579
g2
Ntp824
Rp825
(dp826
g102
g265
sg583
g92
sg79
I82
sg66
g265
sbag0
(g579
g2
Ntp827
Rp828
(dp829
g102
g267
sg583
g92
sg79
I83
sg66
g267
sbag0
(g579
g2
Ntp830
Rp831
(dp832
g102
g269
sg583
g92
sg79
I84
sg66
g269
sbag0
(g579
g2
Ntp833
Rp834
(dp835
g102
g271
sg583
g92
sg79
I85
sg66
g271
sbag0
(g579
g2
Ntp836
Rp837
(dp838
g102
g273
sg583
g92
sg79
I86
sg66
g273
sbag0
(g579
g2
Ntp839
Rp840
(dp841
g102
g275
sg583
g92
sg79
I87
sg66
g275
sbag0
(g579
g2
Ntp842
Rp843
(dp844
g102
g277
sg583
g92
sg79
I88
sg66
g277
sbag0
(g579
g2
Ntp845
Rp846
(dp847
g102
g279
sg583
g92
sg79
I89
sg66
g279
sbag0
(g579
g2
Ntp848
Rp849
(dp850
g102
g281
sg583
g92
sg79
I90
sg66
g281
sbag0
(g579
g2
Ntp851
Rp852
(dp853
g102
g283
sg583
g92
sg79
I91
sg66
g283
sbasS'edges'
p854
(lp855
g0
(cconcept
SEM_REL
p856
g2
Ntp857
Rp858
(dp859
S'pTo'
p860
g585
sg77
g293
sS'pFrom'
p861
g588
sbag0
(g856
g2
Ntp862
Rp863
(dp864
g860
g588
sg77
g293
sg861
g591
sbag0
(g856
g2
Ntp865
Rp866
(dp867
g860
g591
sg77
g293
sg861
g594
sbag0
(g856
g2
Ntp868
Rp869
(dp870
g860
g591
sg77
g293
sg861
g597
sbag0
(g856
g2
Ntp871
Rp872
(dp873
g860
g588
sg77
g293
sg861
g600
sbag0
(g856
g2
Ntp874
Rp875
(dp876
g860
g600
sg77
g293
sg861
g603
sbag0
(g856
g2
Ntp877
Rp878
(dp879
g860
g588
sg77
g293
sg861
g606
sbag0
(g856
g2
Ntp880
Rp881
(dp882
g860
g606
sg77
g293
sg861
g609
sbag0
(g856
g2
Ntp883
Rp884
(dp885
g860
g606
sg77
g293
sg861
g612
sbag0
(g856
g2
Ntp886
Rp887
(dp888
g860
g606
sg77
g293
sg861
g615
sbag0
(g856
g2
Ntp889
Rp890
(dp891
g860
g606
sg77
g293
sg861
g618
sbag0
(g856
g2
Ntp892
Rp893
(dp894
g860
g606
sg77
g293
sg861
g621
sbag0
(g856
g2
Ntp895
Rp896
(dp897
g860
g606
sg77
g293
sg861
g624
sbag0
(g856
g2
Ntp898
Rp899
(dp900
g860
g606
sg77
g293
sg861
g627
sbag0
(g856
g2
Ntp901
Rp902
(dp903
g860
g606
sg77
g293
sg861
g630
sbag0
(g856
g2
Ntp904
Rp905
(dp906
g860
g606
sg77
g293
sg861
g633
sbag0
(g856
g2
Ntp907
Rp908
(dp909
g860
g588
sg77
g293
sg861
g636
sbag0
(g856
g2
Ntp910
Rp911
(dp912
g860
g636
sg77
g293
sg861
g639
sbag0
(g856
g2
Ntp913
Rp914
(dp915
g860
g636
sg77
g293
sg861
g642
sbag0
(g856
g2
Ntp916
Rp917
(dp918
g860
g585
sg77
g293
sg861
g645
sbag0
(g856
g2
Ntp919
Rp920
(dp921
g860
g645
sg77
g293
sg861
g648
sbag0
(g856
g2
Ntp922
Rp923
(dp924
g860
g648
sg77
g293
sg861
g651
sbag0
(g856
g2
Ntp925
Rp926
(dp927
g860
g648
sg77
g293
sg861
g654
sbag0
(g856
g2
Ntp928
Rp929
(dp930
g860
g648
sg77
g293
sg861
g657
sbag0
(g856
g2
Ntp931
Rp932
(dp933
g860
g648
sg77
g293
sg861
g660
sbag0
(g856
g2
Ntp934
Rp935
(dp936
g860
g648
sg77
g293
sg861
g663
sbag0
(g856
g2
Ntp937
Rp938
(dp939
g860
g645
sg77
g293
sg861
g666
sbag0
(g856
g2
Ntp940
Rp941
(dp942
g860
g666
sg77
g293
sg861
g669
sbag0
(g856
g2
Ntp943
Rp944
(dp945
g860
g666
sg77
g293
sg861
g672
sbag0
(g856
g2
Ntp946
Rp947
(dp948
g860
g666
sg77
g293
sg861
g675
sbag0
(g856
g2
Ntp949
Rp950
(dp951
g860
g645
sg77
g293
sg861
g678
sbag0
(g856
g2
Ntp952
Rp953
(dp954
g860
g678
sg77
g293
sg861
g681
sbag0
(g856
g2
Ntp955
Rp956
(dp957
g860
g678
sg77
g293
sg861
g684
sbag0
(g856
g2
Ntp958
Rp959
(dp960
g860
g585
sg77
g293
sg861
g687
sbag0
(g856
g2
Ntp961
Rp962
(dp963
g860
g687
sg77
g293
sg861
g690
sbag0
(g856
g2
Ntp964
Rp965
(dp966
g860
g690
sg77
g293
sg861
g693
sbag0
(g856
g2
Ntp967
Rp968
(dp969
g860
g690
sg77
g293
sg861
g696
sbag0
(g856
g2
Ntp970
Rp971
(dp972
g860
g690
sg77
g293
sg861
g699
sbag0
(g856
g2
Ntp973
Rp974
(dp975
g860
g690
sg77
g293
sg861
g702
sbag0
(g856
g2
Ntp976
Rp977
(dp978
g860
g690
sg77
g293
sg861
g705
sbag0
(g856
g2
Ntp979
Rp980
(dp981
g860
g705
sg77
g293
sg861
g708
sbag0
(g856
g2
Ntp982
Rp983
(dp984
g860
g708
sg77
g293
sg861
g711
sbag0
(g856
g2
Ntp985
Rp986
(dp987
g860
g705
sg77
g293
sg861
g714
sbag0
(g856
g2
Ntp988
Rp989
(dp990
g860
g714
sg77
g293
sg861
g711
sbag0
(g856
g2
Ntp991
Rp992
(dp993
g860
g687
sg77
g293
sg861
g717
sbag0
(g856
g2
Ntp994
Rp995
(dp996
g860
g717
sg77
g293
sg861
g720
sbag0
(g856
g2
Ntp997
Rp998
(dp999
g860
g720
sg77
g293
sg861
g723
sbag0
(g856
g2
Ntp1000
Rp1001
(dp1002
g860
g720
sg77
g293
sg861
g726
sbag0
(g856
g2
Ntp1003
Rp1004
(dp1005
g860
g717
sg77
g293
sg861
g729
sbag0
(g856
g2
Ntp1006
Rp1007
(dp1008
g860
g729
sg77
g293
sg861
g732
sbag0
(g856
g2
Ntp1009
Rp1010
(dp1011
g860
g687
sg77
g293
sg861
g735
sbag0
(g856
g2
Ntp1012
Rp1013
(dp1014
g860
g687
sg77
g293
sg861
g738
sbag0
(g856
g2
Ntp1015
Rp1016
(dp1017
g860
g738
sg77
g293
sg861
g693
sbag0
(g856
g2
Ntp1018
Rp1019
(dp1020
g860
g738
sg77
g293
sg861
g702
sbag0
(g856
g2
Ntp1021
Rp1022
(dp1023
g860
g585
sg77
g293
sg861
g741
sbag0
(g856
g2
Ntp1024
Rp1025
(dp1026
g860
g585
sg77
g293
sg861
g744
sbag0
(g856
g2
Ntp1027
Rp1028
(dp1029
g860
g744
sg77
g293
sg861
g747
sbag0
(g856
g2
Ntp1030
Rp1031
(dp1032
g860
g747
sg77
g293
sg861
g750
sbag0
(g856
g2
Ntp1033
Rp1034
(dp1035
g860
g747
sg77
g293
sg861
g753
sbag0
(g856
g2
Ntp1036
Rp1037
(dp1038
g860
g744
sg77
g293
sg861
g756
sbag0
(g856
g2
Ntp1039
Rp1040
(dp1041
g860
g756
sg77
g293
sg861
g759
sbag0
(g856
g2
Ntp1042
Rp1043
(dp1044
g860
g759
sg77
g293
sg861
g762
sbag0
(g856
g2
Ntp1045
Rp1046
(dp1047
g860
g759
sg77
g293
sg861
g765
sbag0
(g856
g2
Ntp1048
Rp1049
(dp1050
g860
g759
sg77
g293
sg861
g768
sbag0
(g856
g2
Ntp1051
Rp1052
(dp1053
g860
g759
sg77
g293
sg861
g771
sbag0
(g856
g2
Ntp1054
Rp1055
(dp1056
g860
g759
sg77
g293
sg861
g774
sbag0
(g856
g2
Ntp1057
Rp1058
(dp1059
g860
g759
sg77
g293
sg861
g777
sbag0
(g856
g2
Ntp1060
Rp1061
(dp1062
g860
g759
sg77
g293
sg861
g780
sbag0
(g856
g2
Ntp1063
Rp1064
(dp1065
g860
g759
sg77
g293
sg861
g783
sbag0
(g856
g2
Ntp1066
Rp1067
(dp1068
g860
g783
sg77
g293
sg861
g786
sbag0
(g856
g2
Ntp1069
Rp1070
(dp1071
g860
g783
sg77
g293
sg861
g789
sbag0
(g856
g2
Ntp1072
Rp1073
(dp1074
g860
g783
sg77
g293
sg861
g792
sbag0
(g856
g2
Ntp1075
Rp1076
(dp1077
g860
g783
sg77
g293
sg861
g795
sbag0
(g856
g2
Ntp1078
Rp1079
(dp1080
g860
g756
sg77
g293
sg861
g750
sbag0
(g856
g2
Ntp1081
Rp1082
(dp1083
g860
g750
sg77
g293
sg861
g798
sbag0
(g856
g2
Ntp1084
Rp1085
(dp1086
g860
g750
sg77
g293
sg861
g801
sbag0
(g856
g2
Ntp1087
Rp1088
(dp1089
g860
g750
sg77
g293
sg861
g804
sbag0
(g856
g2
Ntp1090
Rp1091
(dp1092
g860
g756
sg77
g293
sg861
g753
sbag0
(g856
g2
Ntp1093
Rp1094
(dp1095
g860
g753
sg77
g293
sg861
g807
sbag0
(g856
g2
Ntp1096
Rp1097
(dp1098
g860
g753
sg77
g293
sg861
g810
sbag0
(g856
g2
Ntp1099
Rp1100
(dp1101
g860
g753
sg77
g293
sg861
g813
sbag0
(g856
g2
Ntp1102
Rp1103
(dp1104
g860
g753
sg77
g293
sg861
g816
sbag0
(g856
g2
Ntp1105
Rp1106
(dp1107
g860
g753
sg77
g293
sg861
g819
sbag0
(g856
g2
Ntp1108
Rp1109
(dp1110
g860
g753
sg77
g293
sg861
g822
sbag0
(g856
g2
Ntp1111
Rp1112
(dp1113
g860
g753
sg77
g293
sg861
g825
sbag0
(g856
g2
Ntp1114
Rp1115
(dp1116
g860
g753
sg77
g293
sg861
g828
sbag0
(g856
g2
Ntp1117
Rp1118
(dp1119
g860
g753
sg77
g293
sg861
g831
sbag0
(g856
g2
Ntp1120
Rp1121
(dp1122
g860
g753
sg77
g293
sg861
g834
sbag0
(g856
g2
Ntp1123
Rp1124
(dp1125
g860
g753
sg77
g293
sg861
g837
sbag0
(g856
g2
Ntp1126
Rp1127
(dp1128
g860
g744
sg77
g293
sg861
g840
sbag0
(g856
g2
Ntp1129
Rp1130
(dp1131
g860
g840
sg77
g293
sg861
g843
sbag0
(g856
g2
Ntp1132
Rp1133
(dp1134
g860
g840
sg77
g293
sg861
g846
sbag0
(g856
g2
Ntp1135
Rp1136
(dp1137
g860
g744
sg77
g293
sg861
g849
sbag0
(g856
g2
Ntp1138
Rp1139
(dp1140
g860
g849
sg77
g293
sg861
g807
sbag0
(g856
g2
Ntp1141
Rp1142
(dp1143
g860
g849
sg77
g293
sg861
g837
sbag0
(g856
g2
Ntp1144
Rp1145
(dp1146
g860
g744
sg77
g293
sg861
g852
sbag0
(g856
g2
Ntp1147
Rp1148
(dp1149
g860
g852
sg77
g293
sg861
g822
sbag0
(g856
g2
Ntp1150
Rp1151
(dp1152
g860
g852
sg77
g293
sg861
g828
sbag0
(g856
g2
Ntp1153
Rp1154
(dp1155
g860
g852
sg77
g293
sg861
g810
sbasS'neutral'
p1156
g581
sbsS'dt'
p1157
F1.0
sS'in_ports'
p1158
(lp1159
sS'params'
p1160
(dp1161
S'init_act'
p1162
F1.0
ssS't'
p1163
F0.0
sS'activity'
p1164
F0.0
sS'model'
p1165
g0
(cschema_theory
MODEL
p1166
g2
Ntp1167
Rp1168
(dp1169
S'verbose'
p1170
I00
sg66
S'language_system_P'
p1171
sS'sim_data'
p1172
(dp1173
S'system_states'
p1174
(dp1175
sg1165
(dp1176
ssg85
(dp1177
sS'input_ports'
p1178
(lp1179
g0
(g70
g2
Ntp1180
Rp1181
(dp1182
g66
S'from_conceptualizer'
p1183
sg75
Nsg76
Nsg77
S'IN'
p1184
sg79
I1
sg80
g0
(clanguage_schemas
SEMANTIC_WM
p1185
g2
Ntp1186
Rp1187
(dp1188
g64
(dp1189
S'from_grammatical_WM_P'
p1190
NsS'from_concept_LTM'
p1191
NsS'from_control'
p1192
NsS'from_grammatical_WM_C'
p1193
Nsg1183
NssS'schema_insts'
p1194
(lp1195
sg66
S'Semantic_WM'
p1196
sS'comp_links'
p1197
(lp1198
sg68
(lp1199
g0
(g70
g2
Ntp1200
Rp1201
(dp1202
g66
S'to_grammatical_WM_P'
p1203
sg75
Nsg76
Nsg77
g78
sg79
I6
sg80
g1187
sbag0
(g70
g2
Ntp1204
Rp1205
(dp1206
g66
S'to_cxn_retrieval_P'
p1207
sg75
Nsg76
Nsg77
g78
sg79
I7
sg80
g1187
sbag0
(g70
g2
Ntp1208
Rp1209
(dp1210
g66
S'to_control'
p1211
sg75
Nsg76
Nsg77
g78
sg79
I8
sg80
g1187
sbag0
(g70
g2
Ntp1212
Rp1213
(dp1214
g66
S'to_visual_WM'
p1215
sg75
Nsg76
Nsg77
g78
sg79
I9
sg80
g1187
sbag0
(g70
g2
Ntp1216
Rp1217
(dp1218
g66
S'to_output'
p1219
sg75
Nsg76
Nsg77
g78
sg79
I10
sg80
g1187
sbasg85
(dp1220
g1219
Nsg1203
Nsg1215
Nsg1207
Nsg1211
Nssg1157
F1.0
sS'coop_links'
p1221
(lp1222
sg1158
(lp1223
g1181
ag0
(g70
g2
Ntp1224
Rp1225
(dp1226
g66
g1191
sg75
Nsg76
Nsg77
g1184
sg79
I2
sg80
g1187
sbag0
(g70
g2
Ntp1227
Rp1228
(dp1229
g66
g1193
sg75
Nsg76
Nsg77
g1184
sg79
I3
sg80
g1187
sbag0
(g70
g2
Ntp1230
Rp1231
(dp1232
g66
g1190
sg75
Nsg76
Nsg77
g1184
sg79
I4
sg80
g1187
sbag0
(g70
g2
Ntp1233
Rp1234
(dp1235
g66
g1192
sg75
Nsg76
Nsg77
g1184
sg79
I5
sg80
g1187
sbasS'save_state'
p1236
(dp1237
S'insts'
p1238
(dp1239
sS'WM_activity'
p1240
(dp1241
S'comp'
p1242
(lp1243
sS'c2_network'
p1244
(dp1245
S'num_insts'
p1246
(lp1247
sS'num_coop_links'
p1248
(lp1249
sS'num_comp_links'
p1250
(lp1251
ssS'coop'
p1252
(lp1253
sg1163
(lp1254
sS'act'
p1255
(lp1256
sssg1160
(dp1257
S'C2'
p1258
(dp1259
S'P_comp'
p1260
F1.0
sS'max_capacity'
p1261
NsS'comp_weight'
p1262
F0.0
sS'P_coop'
p1263
F1.0
sS'coop_asymmetry'
p1264
F1.0
sS'coop_weight'
p1265
F0.0
sS'confidence_threshold'
p1266
F0.0
sS'comp_asymmetry'
p1267
F0.0
sS'prune_threshold'
p1268
F0.01
ssS'dyn'
p1269
(dp1270
S'tau'
p1271
F10000.0
sS'k'
p1272
F10.0
sS'act_rest'
p1273
F0.001
sS'noise_mean'
p1274
F0.0
sS'noise_std'
p1275
F1.0
sS'ext_weight'
p1276
F1.0
sS'int_weight'
p1277
F1.0
sssg1163
F0.0
sg1164
F0.0
sg1165
g1168
sS'SemRep'
p1278
g0
(g95
g2
Ntp1279
Rp1280
(dp1281
g99
(dp1282
sg284
g285
sg286
g285
sg287
(dp1283
sg480
g1283
sg94
(dp1284
sg482
g285
sg483
g1283
sg484
(dp1285
sbsg79
I1
sbsbasS'brain_mapping'
p1286
g0
(cschema_theory
BRAIN_MAPPING
p1287
g2
Ntp1288
Rp1289
(dp1290
S'schema_mapping'
p1291
(dp1292
S'Control'
p1293
(lp1294
S'DLPFC'
p1295
asS'Utter'
p1296
(lp1297
S''
p1298
asg1196
(lp1299
S'left_SFG'
p1300
aS'LIP'
p1301
aS'Hippocampus'
p1302
asS'Phonological_WM_P'
p1303
(lp1304
S'left_BA6'
p1305
asg67
(lp1306
g1298
asS'Grammatical_WM_P'
p1307
(lp1308
S'left_BA45'
p1309
aS'leftBA44'
p1310
asS'Grammatical_LTM'
p1311
(lp1312
S'left_STG'
p1313
aS'left_MTG'
p1314
asS'Cxn_retrieval_P'
p1315
(lp1316
ssS'connect_mapping'
p1317
(dp1318
sbsg87
(lp1319
g0
(cschema_theory
CONNECT
p1320
g2
Ntp1321
Rp1322
(dp1323
S'delay'
p1324
I0
sg66
g1298
sS'weight'
p1325
I0
sS'port_to'
p1326
g0
(g70
g2
Ntp1327
Rp1328
(dp1329
g66
S'from_semantic_WM'
p1330
sg75
Nsg76
Nsg77
g1184
sg79
I23
sg80
g0
(clanguage_schemas
CXN_RETRIEVAL_P
p1331
g2
Ntp1332
Rp1333
(dp1334
g64
(dp1335
g1330
NsS'from_grammatical_LTM'
p1336
Nssg66
g1315
sg68
(lp1337
g0
(g70
g2
Ntp1338
Rp1339
(dp1340
g66
g1203
sg75
Nsg76
Nsg77
g78
sg79
I24
sg80
g1333
sbasg85
(dp1341
g1203
NssS'cxn_instances'
p1342
(lp1343
sg1157
F1.0
sg1158
(lp1344
g0
(g70
g2
Ntp1345
Rp1346
(dp1347
g66
g1336
sg75
Nsg76
Nsg77
g1184
sg79
I22
sg80
g1333
sbag1328
asg1160
(dp1348
sg1163
F0.0
sg1164
F0.0
sg1165
g1168
sg79
I5
sbsbsS'port_from'
p1349
g1205
sg1165
g1168
sg79
I1
sbag0
(g1320
g2
Ntp1350
Rp1351
(dp1352
g1324
I0
sg66
g1298
sg1325
I0
sg1326
g1346
sg1349
g0
(g70
g2
Ntp1353
Rp1354
(dp1355
g66
g1207
sg75
Nsg76
Nsg77
g78
sg79
I20
sg80
g0
(clanguage_schemas
GRAMMATICAL_LTM
p1356
g2
Ntp1357
Rp1358
(dp1359
g64
(dp1360
sS'grammar'
p1361
(iconstruction
GRAMMAR
p1362
(dp1363
S'constructions'
p1364
(lp1365
(iconstruction
CXN
p1366
(dp1367
S'SymLinks'
p1368
(iconstruction
TP_SYMLINKS
p1369
(dp1370
S'SL'
p1371
(dp1372
VEVT1_4
p1373
VS1_6
p1374
sVEVT2_5
p1375
VS3_8
p1376
ssg79
I3
sg66
g1298
sbsS'clss'
p1377
VD
p1378
sS'group'
p1379
I3
sg66
VCNJ_AND
p1380
sS'SemFrame'
p1381
(iconstruction
TP_SEMFRAME
p1382
(dp1383
g94
g0
(g95
g2
Ntp1384
Rp1385
(dp1386
g99
(dp1387
(iconstruction
TP_NODE
p1388
(dp1389
S'head'
p1390
I00
sS'concept'
p1391
g741
sg66
g1375
sS'frame'
p1392
I00
sS'focus'
p1393
I00
sg79
I5
sb(dp1394
g1392
I00
sg1391
g741
ss(iconstruction
TP_NODE
p1395
(dp1396
g1390
I00
sg1391
g741
sg66
g1373
sg1392
I00
sg1393
I01
sg79
I4
sb(dp1397
g1392
I00
sg1391
g741
sssg284
g285
sg286
g285
sg287
(dp1398
g1388
(dp1399
sg1395
(dp1400
ssg480
g1398
sg94
(dp1401
sg482
g285
sg483
g1398
sg484
(dp1402
g1388
(dp1403
sg1395
(dp1404
ssbsg577
(lp1405
g1395
ag1388
asg854
(lp1406
sg79
I1
sg66
g1298
sbsS'SynForm'
p1407
(iconstruction
TP_SYNFORM
p1408
(dp1409
g79
I2
sS'form'
p1410
(lp1411
(iconstruction
TP_SLOT
p1412
(dp1413
S'cxn_classes'
p1414
(lp1415
VS
p1416
asS'order'
p1417
I0
sg79
I6
sg66
g1374
sba(iconstruction
TP_PHON
p1418
(dp1419
S'num_syllables'
p1420
I3
sg1417
I1
sg79
I7
sS'cxn_phonetics'
p1421
Vand
p1422
sg66
VS2_7
p1423
sba(iconstruction
TP_SLOT
p1424
(dp1425
g1414
(lp1426
VS
p1427
asg1417
I2
sg79
I8
sg66
g1376
sbasg66
g1298
sbsS'preference'
p1428
I1
sba(iconstruction
CXN
p1429
(dp1430
g1368
(iconstruction
TP_SYMLINKS
p1431
(dp1432
g1371
(dp1433
VEVT2_13
p1434
VS3_17
p1435
sVEVT1_12
p1436
VS1_15
p1437
ssg79
I11
sg66
g1298
sbsg1377
VD
p1438
sg1379
I3
sg66
VCNJ_THEN
p1439
sg1381
(iconstruction
TP_SEMFRAME
p1440
(dp1441
g94
g0
(g95
g2
Ntp1442
Rp1443
(dp1444
g99
(dp1445
(iconstruction
TP_NODE
p1446
(dp1447
g1390
I00
sg1391
g741
sg66
g1434
sg1392
I00
sg1393
I00
sg79
I13
sb(dp1448
g1392
I00
sg1391
g741
ss(iconstruction
TP_NODE
p1449
(dp1450
g1390
I00
sg1391
g741
sg66
g1436
sg1392
I00
sg1393
I00
sg79
I12
sb(dp1451
g1392
I00
sg1391
g741
sssg284
g285
sg286
g285
sg287
(dp1452
g1446
(dp1453
sg1449
(dp1454
g1446
(dp1455
g1391
g726
ssssg480
g1452
sg94
(dp1456
sg482
g285
sg483
g1452
sg484
(dp1457
g1446
(dp1458
g1449
g1455
ssg1449
(dp1459
ssbsg577
(lp1460
g1449
ag1446
asg854
(lp1461
(iconstruction
TP_REL
p1462
(dp1463
g860
g1446
sg1391
g726
sg79
I14
sg861
g1449
sg66
VEVT1_EVT2_14
p1464
sbasg79
I9
sg66
g1298
sbsg1407
(iconstruction
TP_SYNFORM
p1465
(dp1466
g79
I10
sg1410
(lp1467
(iconstruction
TP_SLOT
p1468
(dp1469
g1414
(lp1470
VS
p1471
asg1417
I0
sg79
I15
sg66
g1437
sba(iconstruction
TP_PHON
p1472
(dp1473
g1420
I4
sg1417
I1
sg79
I16
sg1421
Vthen
p1474
sg66
VS2_16
p1475
sba(iconstruction
TP_SLOT
p1476
(dp1477
g1414
(lp1478
VS
p1479
asg1417
I2
sg79
I17
sg66
g1435
sbasg66
g1298
sbsg1428
I1
sba(iconstruction
CXN
p1480
(dp1481
g1368
(iconstruction
TP_SYMLINKS
p1482
(dp1483
g1371
(dp1484
VEVT2_22
p1485
VS3_26
p1486
sVEVT1_21
p1487
VS1_24
p1488
ssg79
I20
sg66
g1298
sbsg1377
VD
p1489
sg1379
I3
sg66
VCNJ_WHILE
p1490
sg1381
(iconstruction
TP_SEMFRAME
p1491
(dp1492
g94
g0
(g95
g2
Ntp1493
Rp1494
(dp1495
g99
(dp1496
(iconstruction
TP_NODE
p1497
(dp1498
g1390
I00
sg1391
g741
sg66
g1487
sg1392
I00
sg1393
I01
sg79
I21
sb(dp1499
g1392
I00
sg1391
g741
ss(iconstruction
TP_NODE
p1500
(dp1501
g1390
I00
sg1391
g741
sg66
g1485
sg1392
I00
sg1393
I00
sg79
I22
sb(dp1502
g1392
I00
sg1391
g741
sssg284
g285
sg286
g285
sg287
(dp1503
g1497
(dp1504
g1500
(dp1505
g1391
g723
sssg1500
(dp1506
ssg480
g1503
sg94
(dp1507
sg482
g285
sg483
g1503
sg484
(dp1508
g1497
(dp1509
sg1500
(dp1510
g1497
g1505
sssbsg577
(lp1511
g1497
ag1500
asg854
(lp1512
(iconstruction
TP_REL
p1513
(dp1514
g860
g1500
sg1391
g723
sg79
I23
sg861
g1497
sg66
VEVT1_EVT2_23
p1515
sbasg79
I18
sg66
g1298
sbsg1407
(iconstruction
TP_SYNFORM
p1516
(dp1517
g79
I19
sg1410
(lp1518
(iconstruction
TP_SLOT
p1519
(dp1520
g1414
(lp1521
VS
p1522
asg1417
I0
sg79
I24
sg66
g1488
sba(iconstruction
TP_PHON
p1523
(dp1524
g1420
I5
sg1417
I1
sg79
I25
sg1421
Vwhile
p1525
sg66
VS2_25
p1526
sba(iconstruction
TP_SLOT
p1527
(dp1528
g1414
(lp1529
VS
p1530
asg1417
I2
sg79
I26
sg66
g1486
sbasg66
g1298
sbsg1428
I1
sba(iconstruction
CXN
p1531
(dp1532
g1368
(iconstruction
TP_SYMLINKS
p1533
(dp1534
g1371
(dp1535
VACT_31
p1536
VS4_40
p1537
sVACTOR_1_32
p1538
VS1_37
p1539
sVACTOR_2_33
p1540
VS3_39
p1541
ssg79
I29
sg66
g1298
sbsg1377
VS
p1542
sg1379
Nsg66
VSYMMETRIC_TRANS
p1543
sg1381
(iconstruction
TP_SEMFRAME
p1544
(dp1545
g94
g0
(g95
g2
Ntp1546
Rp1547
(dp1548
g99
(dp1549
(iconstruction
TP_NODE
p1550
(dp1551
g1390
I00
sg1391
g588
sg66
g1536
sg1392
I01
sg1393
I00
sg79
I31
sb(dp1552
g1392
I01
sg1391
g588
ss(iconstruction
TP_NODE
p1553
(dp1554
g1390
I00
sg1391
g744
sg66
g1538
sg1392
I01
sg1393
I01
sg79
I32
sb(dp1555
g1392
I01
sg1391
g744
ss(iconstruction
TP_NODE
p1556
(dp1557
g1390
I00
sg1391
g744
sg66
g1540
sg1392
I01
sg1393
I00
sg79
I33
sb(dp1558
g1392
I01
sg1391
g744
ss(iconstruction
TP_NODE
p1559
(dp1560
g1390
I01
sg1391
g741
sg66
VEVT_30
p1561
sg1392
I01
sg1393
I00
sg79
I30
sb(dp1562
g1392
I01
sg1391
g741
sssg284
g285
sg286
g285
sg287
(dp1563
g1550
(dp1564
g1556
(dp1565
g1391
g711
ssg1553
(dp1566
g1391
g711
sssg1553
(dp1567
sg1556
(dp1568
sg1559
(dp1569
g1550
(dp1570
g1391
g735
ssssg480
g1563
sg94
(dp1571
sg482
g285
sg483
g1563
sg484
(dp1572
g1550
(dp1573
g1559
g1570
ssg1553
(dp1574
g1550
g1566
ssg1556
(dp1575
g1550
g1565
ssg1559
(dp1576
ssbsg577
(lp1577
g1559
ag1550
ag1553
ag1556
asg854
(lp1578
(iconstruction
TP_REL
p1579
(dp1580
g860
g1550
sg1391
g735
sg79
I34
sg861
g1559
sg66
VIS_34
p1581
sba(iconstruction
TP_REL
p1582
(dp1583
g860
g1553
sg1391
g711
sg79
I35
sg861
g1550
sg66
VAGT_PT_1_35
p1584
sba(iconstruction
TP_REL
p1585
(dp1586
g860
g1556
sg1391
g711
sg79
I36
sg861
g1550
sg66
VAGT_PT_2_36
p1587
sbasg79
I27
sg66
g1298
sbsg1407
(iconstruction
TP_SYNFORM
p1588
(dp1589
g79
I28
sg1410
(lp1590
(iconstruction
TP_SLOT
p1591
(dp1592
g1414
(lp1593
VNP
p1594
aVN
p1595
asg1417
I0
sg79
I37
sg66
g1539
sba(iconstruction
TP_PHON
p1596
(dp1597
g1420
I3
sg1417
I1
sg79
I38
sg1421
Vand
p1598
sg66
VS2_38
p1599
sba(iconstruction
TP_SLOT
p1600
(dp1601
g1414
(lp1602
VNP
p1603
aVN
p1604
asg1417
I2
sg79
I39
sg66
g1541
sba(iconstruction
TP_SLOT
p1605
(dp1606
g1414
(lp1607
VVP
p1608
aVV
p1609
asg1417
I3
sg79
I40
sg66
g1537
sbasg66
g1298
sbsg1428
I1
sba(iconstruction
CXN
p1610
(dp1611
g1368
(iconstruction
TP_SYMLINKS
p1612
(dp1613
g1371
(dp1614
VAGT_46
p1615
VS1_51
p1616
sVACT_45
p1617
VS2_52
p1618
sVPT_47
p1619
VS3_53
p1620
ssg79
I43
sg66
g1298
sbsg1377
VS
p1621
sg1379
I2
sg66
VSVO
p1622
sg1381
(iconstruction
TP_SEMFRAME
p1623
(dp1624
g94
g0
(g95
g2
Ntp1625
Rp1626
(dp1627
g99
(dp1628
(iconstruction
TP_NODE
p1629
(dp1630
g1390
I00
sg1391
g744
sg66
g1615
sg1392
I01
sg1393
I01
sg79
I46
sb(dp1631
g1392
I01
sg1391
g744
ss(iconstruction
TP_NODE
p1632
(dp1633
g1390
I00
sg1391
g588
sg66
g1617
sg1392
I01
sg1393
I00
sg79
I45
sb(dp1634
g1392
I01
sg1391
g588
ss(iconstruction
TP_NODE
p1635
(dp1636
g1390
I01
sg1391
g741
sg66
VEVT_44
p1637
sg1392
I01
sg1393
I00
sg79
I44
sb(dp1638
g1392
I01
sg1391
g741
ss(iconstruction
TP_NODE
p1639
(dp1640
g1390
I00
sg1391
g744
sg66
g1619
sg1392
I01
sg1393
I00
sg79
I47
sb(dp1641
g1392
I01
sg1391
g744
sssg284
g285
sg286
g285
sg287
(dp1642
g1629
(dp1643
sg1632
(dp1644
g1629
(dp1645
g1391
g714
ssg1639
(dp1646
g1391
g708
sssg1635
(dp1647
g1632
(dp1648
g1391
g735
sssg1639
(dp1649
ssg480
g1642
sg94
(dp1650
sg482
g285
sg483
g1642
sg484
(dp1651
g1629
(dp1652
g1632
g1645
ssg1632
(dp1653
g1635
g1648
ssg1635
(dp1654
sg1639
(dp1655
g1632
g1646
sssbsg577
(lp1656
g1635
ag1632
ag1629
ag1639
asg854
(lp1657
(iconstruction
TP_REL
p1658
(dp1659
g860
g1632
sg1391
g735
sg79
I48
sg861
g1635
sg66
VIS_48
p1660
sba(iconstruction
TP_REL
p1661
(dp1662
g860
g1629
sg1391
g714
sg79
I49
sg861
g1632
sg66
VACT_AGT_49
p1663
sba(iconstruction
TP_REL
p1664
(dp1665
g860
g1639
sg1391
g708
sg79
I50
sg861
g1632
sg66
VACT_PT_50
p1666
sbasg79
I41
sg66
g1298
sbsg1407
(iconstruction
TP_SYNFORM
p1667
(dp1668
g79
I42
sg1410
(lp1669
(iconstruction
TP_SLOT
p1670
(dp1671
g1414
(lp1672
VNP
p1673
aVN
p1674
asg1417
I0
sg79
I51
sg66
g1616
sba(iconstruction
TP_SLOT
p1675
(dp1676
g1414
(lp1677
VVP
p1678
aVV
p1679
asg1417
I1
sg79
I52
sg66
g1618
sba(iconstruction
TP_SLOT
p1680
(dp1681
g1414
(lp1682
VNP
p1683
aVN
p1684
asg1417
I2
sg79
I53
sg66
g1620
sbasg66
g1298
sbsg1428
I1
sba(iconstruction
CXN
p1685
(dp1686
g1368
(iconstruction
TP_SYMLINKS
p1687
(dp1688
g1371
(dp1689
VPT_60
p1690
VS1_64
p1691
sVACT_58
p1692
VS3_66
p1693
sVAGT_59
p1694
VS6_69
p1695
ssg79
I56
sg66
g1298
sbsg1377
VS
p1696
sg1379
I2
sg66
VPAS_SVO
p1697
sg1381
(iconstruction
TP_SEMFRAME
p1698
(dp1699
g94
g0
(g95
g2
Ntp1700
Rp1701
(dp1702
g99
(dp1703
(iconstruction
TP_NODE
p1704
(dp1705
g1390
I00
sg1391
g588
sg66
g1692
sg1392
I01
sg1393
I00
sg79
I58
sb(dp1706
g1392
I01
sg1391
g588
ss(iconstruction
TP_NODE
p1707
(dp1708
g1390
I00
sg1391
g744
sg66
g1694
sg1392
I01
sg1393
I00
sg79
I59
sb(dp1709
g1392
I01
sg1391
g744
ss(iconstruction
TP_NODE
p1710
(dp1711
g1390
I00
sg1391
g744
sg66
g1690
sg1392
I01
sg1393
I01
sg79
I60
sb(dp1712
g1392
I01
sg1391
g744
ss(iconstruction
TP_NODE
p1713
(dp1714
g1390
I01
sg1391
g741
sg66
VEVT_57
p1715
sg1392
I01
sg1393
I00
sg79
I57
sb(dp1716
g1392
I01
sg1391
g741
sssg284
g285
sg286
g285
sg287
(dp1717
g1704
(dp1718
g1710
(dp1719
g1391
g708
ssg1707
(dp1720
g1391
g714
sssg1707
(dp1721
sg1710
(dp1722
sg1713
(dp1723
g1704
(dp1724
g1391
g735
ssssg480
g1717
sg94
(dp1725
sg482
g285
sg483
g1717
sg484
(dp1726
g1704
(dp1727
g1713
g1724
ssg1707
(dp1728
g1704
g1720
ssg1710
(dp1729
g1704
g1719
ssg1713
(dp1730
ssbsg577
(lp1731
g1713
ag1704
ag1707
ag1710
asg854
(lp1732
(iconstruction
TP_REL
p1733
(dp1734
g860
g1704
sg1391
g735
sg79
I61
sg861
g1713
sg66
VIS_61
p1735
sba(iconstruction
TP_REL
p1736
(dp1737
g860
g1707
sg1391
g714
sg79
I62
sg861
g1704
sg66
VACT_AGT_62
p1738
sba(iconstruction
TP_REL
p1739
(dp1740
g860
g1710
sg1391
g708
sg79
I63
sg861
g1704
sg66
VACT_PT_63
p1741
sbasg79
I54
sg66
g1298
sbsg1407
(iconstruction
TP_SYNFORM
p1742
(dp1743
g79
I55
sg1410
(lp1744
(iconstruction
TP_SLOT
p1745
(dp1746
g1414
(lp1747
VNP
p1748
aVN
p1749
asg1417
I0
sg79
I64
sg66
g1691
sba(iconstruction
TP_PHON
p1750
(dp1751
g1420
I2
sg1417
I1
sg79
I65
sg1421
Vis
p1752
sg66
VS2_65
p1753
sba(iconstruction
TP_SLOT
p1754
(dp1755
g1414
(lp1756
VVP
p1757
aVV
p1758
asg1417
I2
sg79
I66
sg66
g1693
sba(iconstruction
TP_PHON
p1759
(dp1760
g1420
I2
sg1417
I3
sg79
I67
sg1421
V-ed
p1761
sg66
VS4_67
p1762
sba(iconstruction
TP_PHON
p1763
(dp1764
g1420
I2
sg1417
I4
sg79
I68
sg1421
Vby
p1765
sg66
VS5_68
p1766
sba(iconstruction
TP_SLOT
p1767
(dp1768
g1414
(lp1769
VNP
p1770
aVN
p1771
asg1417
I5
sg79
I69
sg66
g1695
sbasg66
g1298
sbsg1428
I1
sba(iconstruction
CXN
p1772
(dp1773
g1368
(iconstruction
TP_SYMLINKS
p1774
(dp1775
g1371
(dp1776
VACT_74
p1777
VS2_83
p1778
sVRCPT_77
p1779
VS3_84
p1780
sVTHEME_76
p1781
VS4_85
p1782
sVAGT_75
p1783
VS1_82
p1784
ssg79
I72
sg66
g1298
sbsg1377
VS
p1785
sg1379
I2
sg66
VDOUBLE_OBJ
p1786
sg1381
(iconstruction
TP_SEMFRAME
p1787
(dp1788
g94
g0
(g95
g2
Ntp1789
Rp1790
(dp1791
g99
(dp1792
(iconstruction
TP_NODE
p1793
(dp1794
g1390
I00
sg1391
g588
sg66
g1777
sg1392
I01
sg1393
I00
sg79
I74
sb(dp1795
g1392
I01
sg1391
g588
ss(iconstruction
TP_NODE
p1796
(dp1797
g1390
I00
sg1391
g744
sg66
g1783
sg1392
I01
sg1393
I01
sg79
I75
sb(dp1798
g1392
I01
sg1391
g744
ss(iconstruction
TP_NODE
p1799
(dp1800
g1390
I00
sg1391
g744
sg66
g1781
sg1392
I01
sg1393
I00
sg79
I76
sb(dp1801
g1392
I01
sg1391
g744
ss(iconstruction
TP_NODE
p1802
(dp1803
g1390
I01
sg1391
g741
sg66
VEVT_73
p1804
sg1392
I01
sg1393
I00
sg79
I73
sb(dp1805
g1392
I01
sg1391
g741
ss(iconstruction
TP_NODE
p1806
(dp1807
g1390
I00
sg1391
g744
sg66
g1779
sg1392
I01
sg1393
I00
sg79
I77
sb(dp1808
g1392
I01
sg1391
g744
sssg284
g285
sg286
g285
sg287
(dp1809
g1793
(dp1810
g1799
(dp1811
g1391
g696
ssg1806
(dp1812
g1391
g699
ssg1796
(dp1813
g1391
g714
sssg1796
(dp1814
sg1799
(dp1815
sg1802
(dp1816
g1793
(dp1817
g1391
g735
sssg1806
(dp1818
ssg480
g1809
sg94
(dp1819
sg482
g285
sg483
g1809
sg484
(dp1820
g1793
(dp1821
g1802
g1817
ssg1796
(dp1822
g1793
g1813
ssg1799
(dp1823
g1793
g1811
ssg1802
(dp1824
sg1806
(dp1825
g1793
g1812
sssbsg577
(lp1826
g1802
ag1793
ag1796
ag1799
ag1806
asg854
(lp1827
(iconstruction
TP_REL
p1828
(dp1829
g860
g1793
sg1391
g735
sg79
I78
sg861
g1802
sg66
VIS_78
p1830
sba(iconstruction
TP_REL
p1831
(dp1832
g860
g1796
sg1391
g714
sg79
I79
sg861
g1793
sg66
VACT_AGT_79
p1833
sba(iconstruction
TP_REL
p1834
(dp1835
g860
g1799
sg1391
g696
sg79
I80
sg861
g1793
sg66
VACT_THEME_80
p1836
sba(iconstruction
TP_REL
p1837
(dp1838
g860
g1806
sg1391
g699
sg79
I81
sg861
g1793
sg66
VACT_RCPT_81
p1839
sbasg79
I70
sg66
g1298
sbsg1407
(iconstruction
TP_SYNFORM
p1840
(dp1841
g79
I71
sg1410
(lp1842
(iconstruction
TP_SLOT
p1843
(dp1844
g1414
(lp1845
VNP
p1846
aVN
p1847
asg1417
I0
sg79
I82
sg66
g1784
sba(iconstruction
TP_SLOT
p1848
(dp1849
g1414
(lp1850
VVP
p1851
aVV
p1852
asg1417
I1
sg79
I83
sg66
g1778
sba(iconstruction
TP_SLOT
p1853
(dp1854
g1414
(lp1855
VNP
p1856
aVN
p1857
asg1417
I2
sg79
I84
sg66
g1780
sba(iconstruction
TP_SLOT
p1858
(dp1859
g1414
(lp1860
VNP
p1861
aVN
p1862
asg1417
I3
sg79
I85
sg66
g1782
sbasg66
g1298
sbsg1428
I1
sba(iconstruction
CXN
p1863
(dp1864
g1368
(iconstruction
TP_SYMLINKS
p1865
(dp1866
g1371
(dp1867
VAGT_91
p1868
VS1_98
p1869
sVRCPT_93
p1870
VS5_102
p1871
sVACT_90
p1872
VS2_99
p1873
sVTHEME_92
p1874
VS3_100
p1875
ssg79
I88
sg66
g1298
sbsg1377
VS
p1876
sg1379
I2
sg66
VOBLIQUE_DATIVE
p1877
sg1381
(iconstruction
TP_SEMFRAME
p1878
(dp1879
g94
g0
(g95
g2
Ntp1880
Rp1881
(dp1882
g99
(dp1883
(iconstruction
TP_NODE
p1884
(dp1885
g1390
I00
sg1391
g636
sg66
g1872
sg1392
I01
sg1393
I00
sg79
I90
sb(dp1886
g1392
I01
sg1391
g636
ss(iconstruction
TP_NODE
p1887
(dp1888
g1390
I00
sg1391
g744
sg66
g1868
sg1392
I01
sg1393
I01
sg79
I91
sb(dp1889
g1392
I01
sg1391
g744
ss(iconstruction
TP_NODE
p1890
(dp1891
g1390
I00
sg1391
g744
sg66
g1870
sg1392
I01
sg1393
I00
sg79
I93
sb(dp1892
g1392
I01
sg1391
g744
ss(iconstruction
TP_NODE
p1893
(dp1894
g1390
I01
sg1391
g741
sg66
VEVT_89
p1895
sg1392
I01
sg1393
I00
sg79
I89
sb(dp1896
g1392
I01
sg1391
g741
ss(iconstruction
TP_NODE
p1897
(dp1898
g1390
I00
sg1391
g744
sg66
g1874
sg1392
I01
sg1393
I00
sg79
I92
sb(dp1899
g1392
I01
sg1391
g744
sssg284
g285
sg286
g285
sg287
(dp1900
g1884
(dp1901
g1897
(dp1902
g1391
g696
ssg1890
(dp1903
g1391
g699
ssg1887
(dp1904
g1391
g714
sssg1887
(dp1905
sg1890
(dp1906
sg1893
(dp1907
g1884
(dp1908
g1391
g735
sssg1897
(dp1909
ssg480
g1900
sg94
(dp1910
sg482
g285
sg483
g1900
sg484
(dp1911
g1884
(dp1912
g1893
g1908
ssg1887
(dp1913
g1884
g1904
ssg1890
(dp1914
g1884
g1903
ssg1893
(dp1915
sg1897
(dp1916
g1884
g1902
sssbsg577
(lp1917
g1893
ag1884
ag1887
ag1897
ag1890
asg854
(lp1918
(iconstruction
TP_REL
p1919
(dp1920
g860
g1884
sg1391
g735
sg79
I94
sg861
g1893
sg66
VIS_94
p1921
sba(iconstruction
TP_REL
p1922
(dp1923
g860
g1887
sg1391
g714
sg79
I95
sg861
g1884
sg66
VACT_AGT_95
p1924
sba(iconstruction
TP_REL
p1925
(dp1926
g860
g1897
sg1391
g696
sg79
I96
sg861
g1884
sg66
VACT_THEME_96
p1927
sba(iconstruction
TP_REL
p1928
(dp1929
g860
g1890
sg1391
g699
sg79
I97
sg861
g1884
sg66
VACT_RCPT_97
p1930
sbasg79
I86
sg66
g1298
sbsg1407
(iconstruction
TP_SYNFORM
p1931
(dp1932
g79
I87
sg1410
(lp1933
(iconstruction
TP_SLOT
p1934
(dp1935
g1414
(lp1936
VNP
p1937
aVN
p1938
asg1417
I0
sg79
I98
sg66
g1869
sba(iconstruction
TP_SLOT
p1939
(dp1940
g1414
(lp1941
VVP
p1942
aVV
p1943
asg1417
I1
sg79
I99
sg66
g1873
sba(iconstruction
TP_SLOT
p1944
(dp1945
g1414
(lp1946
VNP
p1947
aVN
p1948
asg1417
I2
sg79
I100
sg66
g1875
sba(iconstruction
TP_PHON
p1949
(dp1950
g1420
I2
sg1417
I3
sg79
I101
sg1421
Vto
p1951
sg66
VS4_101
p1952
sba(iconstruction
TP_SLOT
p1953
(dp1954
g1414
(lp1955
VNP
p1956
aVN
p1957
asg1417
I4
sg79
I102
sg66
g1871
sbasg66
g1298
sbsg1428
I1
sba(iconstruction
CXN
p1958
(dp1959
g1368
(iconstruction
TP_SYMLINKS
p1960
(dp1961
g1371
(dp1962
VATTR_108
p1963
VS3_113
p1964
sVENT_107
p1965
VS1_111
p1966
ssg79
I105
sg66
g1298
sbsg1377
VS
p1967
sg1379
I2
sg66
VSPA
p1968
sg1381
(iconstruction
TP_SEMFRAME
p1969
(dp1970
g94
g0
(g95
g2
Ntp1971
Rp1972
(dp1973
g99
(dp1974
(iconstruction
TP_NODE
p1975
(dp1976
g1390
I00
sg1391
g744
sg66
g1965
sg1392
I01
sg1393
I01
sg79
I107
sb(dp1977
g1392
I01
sg1391
g744
ss(iconstruction
TP_NODE
p1978
(dp1979
g1390
I00
sg1391
g645
sg66
g1963
sg1392
I00
sg1393
I00
sg79
I108
sb(dp1980
g1392
I00
sg1391
g645
ss(iconstruction
TP_NODE
p1981
(dp1982
g1390
I01
sg1391
g741
sg66
VEVT_106
p1983
sg1392
I01
sg1393
I00
sg79
I106
sb(dp1984
g1392
I01
sg1391
g741
sssg284
g285
sg286
g285
sg287
(dp1985
g1975
(dp1986
sg1978
(dp1987
sg1981
(dp1988
g1975
(dp1989
g1391
g735
ssg1978
(dp1990
g1391
g693
ssssg480
g1985
sg94
(dp1991
sg482
g285
sg483
g1985
sg484
(dp1992
g1975
(dp1993
g1981
g1989
ssg1978
(dp1994
g1981
g1990
ssg1981
(dp1995
ssbsg577
(lp1996
g1981
ag1975
ag1978
asg854
(lp1997
(iconstruction
TP_REL
p1998
(dp1999
g860
g1975
sg1391
g735
sg79
I109
sg861
g1981
sg66
VIS_109
p2000
sba(iconstruction
TP_REL
p2001
(dp2002
g860
g1978
sg1391
g693
sg79
I110
sg861
g1981
sg66
VEVT_ATTR_110
p2003
sbasg79
I103
sg66
g1298
sbsg1407
(iconstruction
TP_SYNFORM
p2004
(dp2005
g79
I104
sg1410
(lp2006
(iconstruction
TP_SLOT
p2007
(dp2008
g1414
(lp2009
VNP
p2010
aVN
p2011
asg1417
I0
sg79
I111
sg66
g1966
sba(iconstruction
TP_PHON
p2012
(dp2013
g1420
I2
sg1417
I1
sg79
I112
sg1421
Vis
p2014
sg66
VS2_112
p2015
sba(iconstruction
TP_SLOT
p2016
(dp2017
g1414
(lp2018
VA
p2019
asg1417
I2
sg79
I113
sg66
g1964
sbasg66
g1298
sbsg1428
I1
sba(iconstruction
CXN
p2020
(dp2021
g1368
(iconstruction
TP_SYMLINKS
p2022
(dp2023
g1371
(dp2024
VAGT_119
p2025
VS1_122
p2026
sVACT_118
p2027
VS2_123
p2028
ssg79
I116
sg66
g1298
sbsg1377
VS
p2029
sg1379
I2
sg66
VSV
p2030
sg1381
(iconstruction
TP_SEMFRAME
p2031
(dp2032
g94
g0
(g95
g2
Ntp2033
Rp2034
(dp2035
g99
(dp2036
(iconstruction
TP_NODE
p2037
(dp2038
g1390
I01
sg1391
g741
sg66
VEVT_117
p2039
sg1392
I01
sg1393
I00
sg79
I117
sb(dp2040
g1392
I01
sg1391
g741
ss(iconstruction
TP_NODE
p2041
(dp2042
g1390
I00
sg1391
g744
sg66
g2025
sg1392
I01
sg1393
I01
sg79
I119
sb(dp2043
g1392
I01
sg1391
g744
ss(iconstruction
TP_NODE
p2044
(dp2045
g1390
I00
sg1391
g600
sg66
g2027
sg1392
I01
sg1393
I00
sg79
I118
sb(dp2046
g1392
I01
sg1391
g600
sssg284
g285
sg286
g285
sg287
(dp2047
g2037
(dp2048
g2044
(dp2049
g1391
g735
sssg2041
(dp2050
sg2044
(dp2051
g2041
(dp2052
g1391
g714
ssssg480
g2047
sg94
(dp2053
sg482
g285
sg483
g2047
sg484
(dp2054
g2037
(dp2055
sg2041
(dp2056
g2044
g2052
ssg2044
(dp2057
g2037
g2049
sssbsg577
(lp2058
g2037
ag2044
ag2041
asg854
(lp2059
(iconstruction
TP_REL
p2060
(dp2061
g860
g2044
sg1391
g735
sg79
I120
sg861
g2037
sg66
VIS_120
p2062
sba(iconstruction
TP_REL
p2063
(dp2064
g860
g2041
sg1391
g714
sg79
I121
sg861
g2044
sg66
VACT_AGT_121
p2065
sbasg79
I114
sg66
g1298
sbsg1407
(iconstruction
TP_SYNFORM
p2066
(dp2067
g79
I115
sg1410
(lp2068
(iconstruction
TP_SLOT
p2069
(dp2070
g1414
(lp2071
VNP
p2072
aVN
p2073
asg1417
I0
sg79
I122
sg66
g2026
sba(iconstruction
TP_SLOT
p2074
(dp2075
g1414
(lp2076
VVP
p2077
aVV
p2078
asg1417
I1
sg79
I123
sg66
g2028
sbasg66
g1298
sbsg1428
I1
sba(iconstruction
CXN
p2079
(dp2080
g1368
(iconstruction
TP_SYMLINKS
p2081
(dp2082
g1371
(dp2083
VEVT_127
p2084
VS1_130
p2085
sVPLACE_128
p2086
VS3_132
p2087
ssg79
I126
sg66
g1298
sbsg1377
VS
p2088
sg1379
I2
sg66
VPP_IN
p2089
sg1381
(iconstruction
TP_SEMFRAME
p2090
(dp2091
g94
g0
(g95
g2
Ntp2092
Rp2093
(dp2094
g99
(dp2095
(iconstruction
TP_NODE
p2096
(dp2097
g1390
I01
sg1391
g741
sg66
g2084
sg1392
I01
sg1393
I00
sg79
I127
sb(dp2098
g1392
I01
sg1391
g741
ss(iconstruction
TP_NODE
p2099
(dp2100
g1390
I00
sg1391
g744
sg66
g2086
sg1392
I01
sg1393
I00
sg79
I128
sb(dp2101
g1392
I01
sg1391
g744
sssg284
g285
sg286
g285
sg287
(dp2102
g2096
(dp2103
g2099
(dp2104
g1391
g732
sssg2099
(dp2105
ssg480
g2102
sg94
(dp2106
sg482
g285
sg483
g2102
sg484
(dp2107
g2096
(dp2108
sg2099
(dp2109
g2096
g2104
sssbsg577
(lp2110
g2096
ag2099
asg854
(lp2111
(iconstruction
TP_REL
p2112
(dp2113
g860
g2099
sg1391
g732
sg79
I129
sg861
g2096
sg66
VEVT_PP_129
p2114
sbasg79
I124
sg66
g1298
sbsg1407
(iconstruction
TP_SYNFORM
p2115
(dp2116
g79
I125
sg1410
(lp2117
(iconstruction
TP_SLOT
p2118
(dp2119
g1414
(lp2120
VS
p2121
asg1417
I0
sg79
I130
sg66
g2085
sba(iconstruction
TP_PHON
p2122
(dp2123
g1420
I2
sg1417
I1
sg79
I131
sg1421
Vin
p2124
sg66
VS2_131
p2125
sba(iconstruction
TP_SLOT
p2126
(dp2127
g1414
(lp2128
VNP
p2129
aVN
p2130
asg1417
I2
sg79
I132
sg66
g2087
sbasg66
g1298
sbsg1428
I1
sba(iconstruction
CXN
p2131
(dp2132
g1368
(iconstruction
TP_SYMLINKS
p2133
(dp2134
g1371
(dp2135
VEVT2_137
p2136
VS2_140
p2137
sVEVT1_136
p2138
VS1_139
p2139
ssg79
I135
sg66
g1298
sbsg1377
VS
p2140
sg1379
I2
sg66
VS_PP
p2141
sg1381
(iconstruction
TP_SEMFRAME
p2142
(dp2143
g94
g0
(g95
g2
Ntp2144
Rp2145
(dp2146
g99
(dp2147
(iconstruction
TP_NODE
p2148
(dp2149
g1390
I00
sg1391
g741
sg66
g2136
sg1392
I01
sg1393
I00
sg79
I137
sb(dp2150
g1392
I01
sg1391
g741
ss(iconstruction
TP_NODE
p2151
(dp2152
g1390
I01
sg1391
g741
sg66
g2138
sg1392
I01
sg1393
I01
sg79
I136
sb(dp2153
g1392
I01
sg1391
g741
sssg284
g285
sg286
g285
sg287
(dp2154
g2148
(dp2155
sg2151
(dp2156
g2148
(dp2157
g1391
g693
ssssg480
g2154
sg94
(dp2158
sg482
g285
sg483
g2154
sg484
(dp2159
g2148
(dp2160
g2151
g2157
ssg2151
(dp2161
ssbsg577
(lp2162
g2151
ag2148
asg854
(lp2163
(iconstruction
TP_REL
p2164
(dp2165
g860
g2148
sg1391
g693
sg79
I138
sg861
g2151
sg66
VMOD_138
p2166
sbasg79
I133
sg66
g1298
sbsg1407
(iconstruction
TP_SYNFORM
p2167
(dp2168
g79
I134
sg1410
(lp2169
(iconstruction
TP_SLOT
p2170
(dp2171
g1414
(lp2172
VS
p2173
asg1417
I0
sg79
I139
sg66
g2139
sba(iconstruction
TP_SLOT
p2174
(dp2175
g1414
(lp2176
VPP
p2177
asg1417
I1
sg79
I140
sg66
g2137
sbasg66
g1298
sbsg1428
I1
sba(iconstruction
CXN
p2178
(dp2179
g1368
(iconstruction
TP_SYMLINKS
p2180
(dp2181
g1371
(dp2182
VENT_144
p2183
VS2_148
p2184
sVATTR_145
p2185
VS1_147
p2186
ssg79
I143
sg66
g1298
sbsg1377
VN
p2187
sg1379
I2
sg66
VADJUNCT_N
p2188
sg1381
(iconstruction
TP_SEMFRAME
p2189
(dp2190
g94
g0
(g95
g2
Ntp2191
Rp2192
(dp2193
g99
(dp2194
(iconstruction
TP_NODE
p2195
(dp2196
g1390
I01
sg1391
g744
sg66
g2183
sg1392
I01
sg1393
I00
sg79
I144
sb(dp2197
g1392
I01
sg1391
g744
ss(iconstruction
TP_NODE
p2198
(dp2199
g1390
I00
sg1391
g645
sg66
g2185
sg1392
I00
sg1393
I00
sg79
I145
sb(dp2200
g1392
I00
sg1391
g645
sssg284
g285
sg286
g285
sg287
(dp2201
g2195
(dp2202
g2198
(dp2203
g1391
g693
sssg2198
(dp2204
ssg480
g2201
sg94
(dp2205
sg482
g285
sg483
g2201
sg484
(dp2206
g2195
(dp2207
sg2198
(dp2208
g2195
g2203
sssbsg577
(lp2209
g2195
ag2198
asg854
(lp2210
(iconstruction
TP_REL
p2211
(dp2212
g860
g2198
sg1391
g693
sg79
I146
sg861
g2195
sg66
VENT_ATTR_146
p2213
sbasg79
I141
sg66
g1298
sbsg1407
(iconstruction
TP_SYNFORM
p2214
(dp2215
g79
I142
sg1410
(lp2216
(iconstruction
TP_SLOT
p2217
(dp2218
g1414
(lp2219
VA
p2220
asg1417
I0
sg79
I147
sg66
g2186
sba(iconstruction
TP_SLOT
p2221
(dp2222
g1414
(lp2223
VN
p2224
asg1417
I1
sg79
I148
sg66
g2184
sbasg66
g1298
sbsg1428
I1
sba(iconstruction
CXN
p2225
(dp2226
g1368
(iconstruction
TP_SYMLINKS
p2227
(dp2228
g1371
(dp2229
VAGT_154
p2230
VS1_160
p2231
sVACT_153
p2232
VS3_162
p2233
sVPT_155
p2234
VS4_163
p2235
ssg79
I151
sg66
g1298
sbsg1377
VN
p2236
sg1379
I2
sg66
VSUBJ_REL_SVO
p2237
sg1381
(iconstruction
TP_SEMFRAME
p2238
(dp2239
g94
g0
(g95
g2
Ntp2240
Rp2241
(dp2242
g99
(dp2243
(iconstruction
TP_NODE
p2244
(dp2245
g1390
I00
sg1391
g741
sg66
VEVT_152
p2246
sg1392
I01
sg1393
I00
sg79
I152
sb(dp2247
g1392
I01
sg1391
g741
ss(iconstruction
TP_NODE
p2248
(dp2249
g1390
I01
sg1391
g744
sg66
g2230
sg1392
I01
sg1393
I00
sg79
I154
sb(dp2250
g1392
I01
sg1391
g744
ss(iconstruction
TP_NODE
p2251
(dp2252
g1390
I00
sg1391
g606
sg66
g2232
sg1392
I01
sg1393
I01
sg79
I153
sb(dp2253
g1392
I01
sg1391
g606
ss(iconstruction
TP_NODE
p2254
(dp2255
g1390
I00
sg1391
g744
sg66
g2234
sg1392
I01
sg1393
I00
sg79
I155
sb(dp2256
g1392
I01
sg1391
g744
sssg284
g285
sg286
g285
sg287
(dp2257
g2244
(dp2258
g2251
(dp2259
g1391
g735
sssg2248
(dp2260
g2244
(dp2261
g1391
g693
sssg2251
(dp2262
g2248
(dp2263
g1391
g714
ssg2254
(dp2264
g1391
g708
sssg2254
(dp2265
ssg480
g2257
sg94
(dp2266
sg482
g285
sg483
g2257
sg484
(dp2267
g2244
(dp2268
g2248
g2261
ssg2248
(dp2269
g2251
g2263
ssg2251
(dp2270
g2244
g2259
ssg2254
(dp2271
g2251
g2264
sssbsg577
(lp2272
g2244
ag2251
ag2248
ag2254
asg854
(lp2273
(iconstruction
TP_REL
p2274
(dp2275
g860
g2251
sg1391
g735
sg79
I156
sg861
g2244
sg66
VIS_156
p2276
sba(iconstruction
TP_REL
p2277
(dp2278
g860
g2248
sg1391
g714
sg79
I157
sg861
g2251
sg66
VACT_AGT_157
p2279
sba(iconstruction
TP_REL
p2280
(dp2281
g860
g2254
sg1391
g708
sg79
I158
sg861
g2251
sg66
VACT_PT_158
p2282
sba(iconstruction
TP_REL
p2283
(dp2284
g860
g2244
sg1391
g693
sg79
I159
sg861
g2248
sg66
VAGT_EVT_159
p2285
sbasg79
I149
sg66
g1298
sbsg1407
(iconstruction
TP_SYNFORM
p2286
(dp2287
g79
I150
sg1410
(lp2288
(iconstruction
TP_SLOT
p2289
(dp2290
g1414
(lp2291
VN
p2292
asg1417
I0
sg79
I160
sg66
g2231
sba(iconstruction
TP_PHON
p2293
(dp2294
g1420
I4
sg1417
I1
sg79
I161
sg1421
Vthat
p2295
sg66
VS2_161
p2296
sba(iconstruction
TP_SLOT
p2297
(dp2298
g1414
(lp2299
VVP
p2300
aVV
p2301
asg1417
I2
sg79
I162
sg66
g2233
sba(iconstruction
TP_SLOT
p2302
(dp2303
g1414
(lp2304
VNP
p2305
aVN
p2306
asg1417
I3
sg79
I163
sg66
g2235
sbasg66
g1298
sbsg1428
I1
sba(iconstruction
CXN
p2307
(dp2308
g1368
(iconstruction
TP_SYMLINKS
p2309
(dp2310
g1371
(dp2311
VAGT_169
p2312
VS1_173
p2313
sVACT_168
p2314
VS3_175
p2315
ssg79
I166
sg66
g1298
sbsg1377
VN
p2316
sg1379
I2
sg66
VSUBJ_REL_SV
p2317
sg1381
(iconstruction
TP_SEMFRAME
p2318
(dp2319
g94
g0
(g95
g2
Ntp2320
Rp2321
(dp2322
g99
(dp2323
(iconstruction
TP_NODE
p2324
(dp2325
g1390
I00
sg1391
g588
sg66
g2314
sg1392
I01
sg1393
I01
sg79
I168
sb(dp2326
g1392
I01
sg1391
g588
ss(iconstruction
TP_NODE
p2327
(dp2328
g1390
I01
sg1391
g744
sg66
g2312
sg1392
I01
sg1393
I00
sg79
I169
sb(dp2329
g1392
I01
sg1391
g744
ss(iconstruction
TP_NODE
p2330
(dp2331
g1390
I00
sg1391
g741
sg66
VEVT_167
p2332
sg1392
I01
sg1393
I00
sg79
I167
sb(dp2333
g1392
I01
sg1391
g741
sssg284
g285
sg286
g285
sg287
(dp2334
g2324
(dp2335
g2327
(dp2336
g1391
g714
sssg2327
(dp2337
g2330
(dp2338
g1391
g693
sssg2330
(dp2339
g2324
(dp2340
g1391
g735
ssssg480
g2334
sg94
(dp2341
sg482
g285
sg483
g2334
sg484
(dp2342
g2324
(dp2343
g2330
g2340
ssg2327
(dp2344
g2324
g2336
ssg2330
(dp2345
g2327
g2338
sssbsg577
(lp2346
g2330
ag2324
ag2327
asg854
(lp2347
(iconstruction
TP_REL
p2348
(dp2349
g860
g2324
sg1391
g735
sg79
I170
sg861
g2330
sg66
VIS_170
p2350
sba(iconstruction
TP_REL
p2351
(dp2352
g860
g2327
sg1391
g714
sg79
I171
sg861
g2324
sg66
VACT_AGT_171
p2353
sba(iconstruction
TP_REL
p2354
(dp2355
g860
g2330
sg1391
g693
sg79
I172
sg861
g2327
sg66
VAGT_EVT_172
p2356
sbasg79
I164
sg66
g1298
sbsg1407
(iconstruction
TP_SYNFORM
p2357
(dp2358
g79
I165
sg1410
(lp2359
(iconstruction
TP_SLOT
p2360
(dp2361
g1414
(lp2362
VN
p2363
asg1417
I0
sg79
I173
sg66
g2313
sba(iconstruction
TP_PHON
p2364
(dp2365
g1420
I4
sg1417
I1
sg79
I174
sg1421
Vthat
p2366
sg66
VS2_174
p2367
sba(iconstruction
TP_SLOT
p2368
(dp2369
g1414
(lp2370
VVP
p2371
aVV
p2372
asg1417
I2
sg79
I175
sg66
g2315
sbasg66
g1298
sbsg1428
I1
sba(iconstruction
CXN
p2373
(dp2374
g1368
(iconstruction
TP_SYMLINKS
p2375
(dp2376
g1371
(dp2377
VAGT_181
p2378
VS7_193
p2379
sVPT_182
p2380
VS1_187
p2381
sVACT_180
p2382
VS4_190
p2383
ssg79
I178
sg66
g1298
sbsg1377
VN
p2384
sg1379
I2
sg66
VSUBJ_REL_PAS_SVO
p2385
sg1381
(iconstruction
TP_SEMFRAME
p2386
(dp2387
g94
g0
(g95
g2
Ntp2388
Rp2389
(dp2390
g99
(dp2391
(iconstruction
TP_NODE
p2392
(dp2393
g1390
I00
sg1391
g588
sg66
g2382
sg1392
I01
sg1393
I01
sg79
I180
sb(dp2394
g1392
I01
sg1391
g588
ss(iconstruction
TP_NODE
p2395
(dp2396
g1390
I00
sg1391
g744
sg66
g2378
sg1392
I01
sg1393
I00
sg79
I181
sb(dp2397
g1392
I01
sg1391
g744
ss(iconstruction
TP_NODE
p2398
(dp2399
g1390
I00
sg1391
g741
sg66
VEVT_179
p2400
sg1392
I01
sg1393
I00
sg79
I179
sb(dp2401
g1392
I01
sg1391
g741
ss(iconstruction
TP_NODE
p2402
(dp2403
g1390
I01
sg1391
g744
sg66
g2380
sg1392
I01
sg1393
I00
sg79
I182
sb(dp2404
g1392
I01
sg1391
g744
sssg284
g285
sg286
g285
sg287
(dp2405
g2392
(dp2406
g2402
(dp2407
g1391
g708
ssg2395
(dp2408
g1391
g714
sssg2395
(dp2409
sg2398
(dp2410
g2392
(dp2411
g1391
g735
sssg2402
(dp2412
g2398
(dp2413
g1391
g693
ssssg480
g2405
sg94
(dp2414
sg482
g285
sg483
g2405
sg484
(dp2415
g2392
(dp2416
g2398
g2411
ssg2395
(dp2417
g2392
g2408
ssg2398
(dp2418
g2402
g2413
ssg2402
(dp2419
g2392
g2407
sssbsg577
(lp2420
g2398
ag2392
ag2395
ag2402
asg854
(lp2421
(iconstruction
TP_REL
p2422
(dp2423
g860
g2392
sg1391
g735
sg79
I183
sg861
g2398
sg66
VIS_183
p2424
sba(iconstruction
TP_REL
p2425
(dp2426
g860
g2395
sg1391
g714
sg79
I184
sg861
g2392
sg66
VACT_AGT_184
p2427
sba(iconstruction
TP_REL
p2428
(dp2429
g860
g2402
sg1391
g708
sg79
I185
sg861
g2392
sg66
VACT_PT_185
p2430
sba(iconstruction
TP_REL
p2431
(dp2432
g860
g2398
sg1391
g693
sg79
I186
sg861
g2402
sg66
VPT_EVT_186
p2433
sbasg79
I176
sg66
g1298
sbsg1407
(iconstruction
TP_SYNFORM
p2434
(dp2435
g79
I177
sg1410
(lp2436
(iconstruction
TP_SLOT
p2437
(dp2438
g1414
(lp2439
VN
p2440
asg1417
I0
sg79
I187
sg66
g2381
sba(iconstruction
TP_PHON
p2441
(dp2442
g1420
I4
sg1417
I1
sg79
I188
sg1421
Vthat
p2443
sg66
VS2_188
p2444
sba(iconstruction
TP_PHON
p2445
(dp2446
g1420
I2
sg1417
I2
sg79
I189
sg1421
Vis
p2447
sg66
VS3_189
p2448
sba(iconstruction
TP_SLOT
p2449
(dp2450
g1414
(lp2451
VVP
p2452
aVV
p2453
asg1417
I3
sg79
I190
sg66
g2383
sba(iconstruction
TP_PHON
p2454
(dp2455
g1420
I2
sg1417
I4
sg79
I191
sg1421
V-ed
p2456
sg66
VS5_191
p2457
sba(iconstruction
TP_PHON
p2458
(dp2459
g1420
I2
sg1417
I5
sg79
I192
sg1421
Vby
p2460
sg66
VS6_192
p2461
sba(iconstruction
TP_SLOT
p2462
(dp2463
g1414
(lp2464
VNP
p2465
aVN
p2466
asg1417
I6
sg79
I193
sg66
g2379
sbasg66
g1298
sbsg1428
I1
sba(iconstruction
CXN
p2467
(dp2468
g1368
(iconstruction
TP_SYMLINKS
p2469
(dp2470
g1371
(dp2471
VAGT_199
p2472
VS3_207
p2473
sVACT_198
p2474
VS4_208
p2475
sVPT_200
p2476
VS1_205
p2477
ssg79
I196
sg66
g1298
sbsg1377
VN
p2478
sg1379
I2
sg66
VOBJ_REL_SVO
p2479
sg1381
(iconstruction
TP_SEMFRAME
p2480
(dp2481
g94
g0
(g95
g2
Ntp2482
Rp2483
(dp2484
g99
(dp2485
(iconstruction
TP_NODE
p2486
(dp2487
g1390
I00
sg1391
g741
sg66
VEVT_197
p2488
sg1392
I01
sg1393
I00
sg79
I197
sb(dp2489
g1392
I01
sg1391
g741
ss(iconstruction
TP_NODE
p2490
(dp2491
g1390
I00
sg1391
g744
sg66
g2472
sg1392
I01
sg1393
I00
sg79
I199
sb(dp2492
g1392
I01
sg1391
g744
ss(iconstruction
TP_NODE
p2493
(dp2494
g1390
I00
sg1391
g588
sg66
g2474
sg1392
I01
sg1393
I01
sg79
I198
sb(dp2495
g1392
I01
sg1391
g588
ss(iconstruction
TP_NODE
p2496
(dp2497
g1390
I01
sg1391
g744
sg66
g2476
sg1392
I01
sg1393
I00
sg79
I200
sb(dp2498
g1392
I01
sg1391
g744
sssg284
g285
sg286
g285
sg287
(dp2499
g2486
(dp2500
g2493
(dp2501
g1391
g735
sssg2490
(dp2502
sg2493
(dp2503
g2490
(dp2504
g1391
g714
ssg2496
(dp2505
g1391
g708
sssg2496
(dp2506
g2486
(dp2507
g1391
g693
ssssg480
g2499
sg94
(dp2508
sg482
g285
sg483
g2499
sg484
(dp2509
g2486
(dp2510
g2496
g2507
ssg2490
(dp2511
g2493
g2504
ssg2493
(dp2512
g2486
g2501
ssg2496
(dp2513
g2493
g2505
sssbsg577
(lp2514
g2486
ag2493
ag2490
ag2496
asg854
(lp2515
(iconstruction
TP_REL
p2516
(dp2517
g860
g2493
sg1391
g735
sg79
I201
sg861
g2486
sg66
VIS_201
p2518
sba(iconstruction
TP_REL
p2519
(dp2520
g860
g2490
sg1391
g714
sg79
I202
sg861
g2493
sg66
VACT_AGT_202
p2521
sba(iconstruction
TP_REL
p2522
(dp2523
g860
g2496
sg1391
g708
sg79
I203
sg861
g2493
sg66
VACT_PT_203
p2524
sba(iconstruction
TP_REL
p2525
(dp2526
g860
g2486
sg1391
g693
sg79
I204
sg861
g2496
sg66
VPT_EVT_204
p2527
sbasg79
I194
sg66
g1298
sbsg1407
(iconstruction
TP_SYNFORM
p2528
(dp2529
g79
I195
sg1410
(lp2530
(iconstruction
TP_SLOT
p2531
(dp2532
g1414
(lp2533
VN
p2534
asg1417
I0
sg79
I205
sg66
g2477
sba(iconstruction
TP_PHON
p2535
(dp2536
g1420
I4
sg1417
I1
sg79
I206
sg1421
Vthat
p2537
sg66
VS2_206
p2538
sba(iconstruction
TP_SLOT
p2539
(dp2540
g1414
(lp2541
VNP
p2542
aVN
p2543
asg1417
I2
sg79
I207
sg66
g2473
sba(iconstruction
TP_SLOT
p2544
(dp2545
g1414
(lp2546
VVP
p2547
aVV
p2548
asg1417
I3
sg79
I208
sg66
g2475
sbasg66
g1298
sbsg1428
I1
sba(iconstruction
CXN
p2549
(dp2550
g1368
(iconstruction
TP_SYMLINKS
p2551
(dp2552
g1371
(dp2553
VPT_215
p2554
VS3_222
p2555
sVACT_213
p2556
VS5_224
p2557
sVAGT_214
p2558
VS1_220
p2559
ssg79
I211
sg66
g1298
sbsg1377
VN
p2560
sg1379
I2
sg66
VOBJ_REL_PAS_SVO
p2561
sg1381
(iconstruction
TP_SEMFRAME
p2562
(dp2563
g94
g0
(g95
g2
Ntp2564
Rp2565
(dp2566
g99
(dp2567
(iconstruction
TP_NODE
p2568
(dp2569
g1390
I00
sg1391
g588
sg66
g2556
sg1392
I01
sg1393
I01
sg79
I213
sb(dp2570
g1392
I01
sg1391
g588
ss(iconstruction
TP_NODE
p2571
(dp2572
g1390
I01
sg1391
g744
sg66
g2558
sg1392
I01
sg1393
I00
sg79
I214
sb(dp2573
g1392
I01
sg1391
g744
ss(iconstruction
TP_NODE
p2574
(dp2575
g1390
I00
sg1391
g744
sg66
g2554
sg1392
I01
sg1393
I00
sg79
I215
sb(dp2576
g1392
I01
sg1391
g744
ss(iconstruction
TP_NODE
p2577
(dp2578
g1390
I00
sg1391
g741
sg66
VEVT_212
p2579
sg1392
I01
sg1393
I00
sg79
I212
sb(dp2580
g1392
I01
sg1391
g741
sssg284
g285
sg286
g285
sg287
(dp2581
g2568
(dp2582
g2574
(dp2583
g1391
g708
ssg2571
(dp2584
g1391
g714
sssg2571
(dp2585
g2577
(dp2586
g1391
g693
sssg2574
(dp2587
sg2577
(dp2588
g2568
(dp2589
g1391
g735
ssssg480
g2581
sg94
(dp2590
sg482
g285
sg483
g2581
sg484
(dp2591
g2568
(dp2592
g2577
g2589
ssg2571
(dp2593
g2568
g2584
ssg2574
(dp2594
g2568
g2583
ssg2577
(dp2595
g2571
g2586
sssbsg577
(lp2596
g2577
ag2568
ag2571
ag2574
asg854
(lp2597
(iconstruction
TP_REL
p2598
(dp2599
g860
g2568
sg1391
g735
sg79
I216
sg861
g2577
sg66
VIS_216
p2600
sba(iconstruction
TP_REL
p2601
(dp2602
g860
g2571
sg1391
g714
sg79
I217
sg861
g2568
sg66
VACT_AGT_217
p2603
sba(iconstruction
TP_REL
p2604
(dp2605
g860
g2574
sg1391
g708
sg79
I218
sg861
g2568
sg66
VACT_PT_218
p2606
sba(iconstruction
TP_REL
p2607
(dp2608
g860
g2577
sg1391
g693
sg79
I219
sg861
g2571
sg66
VAGT_EVT_219
p2609
sbasg79
I209
sg66
g1298
sbsg1407
(iconstruction
TP_SYNFORM
p2610
(dp2611
g79
I210
sg1410
(lp2612
(iconstruction
TP_SLOT
p2613
(dp2614
g1414
(lp2615
VN
p2616
asg1417
I0
sg79
I220
sg66
g2559
sba(iconstruction
TP_PHON
p2617
(dp2618
g1420
I4
sg1417
I1
sg79
I221
sg1421
Vthat
p2619
sg66
VS2_221
p2620
sba(iconstruction
TP_SLOT
p2621
(dp2622
g1414
(lp2623
VNP
p2624
aVN
p2625
asg1417
I2
sg79
I222
sg66
g2555
sba(iconstruction
TP_PHON
p2626
(dp2627
g1420
I2
sg1417
I3
sg79
I223
sg1421
Vis
p2628
sg66
VS4_223
p2629
sba(iconstruction
TP_SLOT
p2630
(dp2631
g1414
(lp2632
VVP
p2633
aVV
p2634
asg1417
I4
sg79
I224
sg66
g2557
sba(iconstruction
TP_PHON
p2635
(dp2636
g1420
I2
sg1417
I5
sg79
I225
sg1421
V-ed
p2637
sg66
VS6_225
p2638
sba(iconstruction
TP_PHON
p2639
(dp2640
g1420
I2
sg1417
I6
sg79
I226
sg1421
Vby
p2641
sg66
VS7_226
p2642
sbasg66
g1298
sbsg1428
I1
sba(iconstruction
CXN
p2643
(dp2644
g1368
(iconstruction
TP_SYMLINKS
p2645
(dp2646
g1371
(dp2647
VATTR_232
p2648
VS4_238
p2649
sVENT_231
p2650
VS1_235
p2651
ssg79
I229
sg66
g1298
sbsg1377
VN
p2652
sg1379
I2
sg66
VREL_SPA
p2653
sg1381
(iconstruction
TP_SEMFRAME
p2654
(dp2655
g94
g0
(g95
g2
Ntp2656
Rp2657
(dp2658
g99
(dp2659
(iconstruction
TP_NODE
p2660
(dp2661
g1390
I01
sg1391
g744
sg66
g2650
sg1392
I01
sg1393
I01
sg79
I231
sb(dp2662
g1392
I01
sg1391
g744
ss(iconstruction
TP_NODE
p2663
(dp2664
g1390
I00
sg1391
g645
sg66
g2648
sg1392
I00
sg1393
I00
sg79
I232
sb(dp2665
g1392
I00
sg1391
g645
ss(iconstruction
TP_NODE
p2666
(dp2667
g1390
I00
sg1391
g741
sg66
VEVT_230
p2668
sg1392
I01
sg1393
I00
sg79
I230
sb(dp2669
g1392
I01
sg1391
g741
sssg284
g285
sg286
g285
sg287
(dp2670
g2660
(dp2671
sg2663
(dp2672
sg2666
(dp2673
g2660
(dp2674
g1391
g735
ssg2663
(dp2675
g1391
g693
ssssg480
g2670
sg94
(dp2676
sg482
g285
sg483
g2670
sg484
(dp2677
g2660
(dp2678
g2666
g2674
ssg2663
(dp2679
g2666
g2675
ssg2666
(dp2680
ssbsg577
(lp2681
g2666
ag2660
ag2663
asg854
(lp2682
(iconstruction
TP_REL
p2683
(dp2684
g860
g2660
sg1391
g735
sg79
I233
sg861
g2666
sg66
VIS_233
p2685
sba(iconstruction
TP_REL
p2686
(dp2687
g860
g2663
sg1391
g693
sg79
I234
sg861
g2666
sg66
VEVT_ATTR_234
p2688
sbasg79
I227
sg66
g1298
sbsg1407
(iconstruction
TP_SYNFORM
p2689
(dp2690
g79
I228
sg1410
(lp2691
(iconstruction
TP_SLOT
p2692
(dp2693
g1414
(lp2694
VN
p2695
asg1417
I0
sg79
I235
sg66
g2651
sba(iconstruction
TP_PHON
p2696
(dp2697
g1420
I4
sg1417
I1
sg79
I236
sg1421
Vthat
p2698
sg66
VS2_236
p2699
sba(iconstruction
TP_PHON
p2700
(dp2701
g1420
I2
sg1417
I2
sg79
I237
sg1421
Vis
p2702
sg66
VS3_237
p2703
sba(iconstruction
TP_SLOT
p2704
(dp2705
g1414
(lp2706
VA
p2707
asg1417
I3
sg79
I238
sg66
g2649
sbasg66
g1298
sbsg1428
I1
sba(iconstruction
CXN
p2708
(dp2709
g1368
(iconstruction
TP_SYMLINKS
p2710
(dp2711
g1371
(dp2712
VAGT_244
p2713
VS1_251
p2714
sVCOLOR_246
p2715
VS3_253
p2716
ssg79
I241
sg66
g1298
sbsg1377
VN
p2717
sg1379
I2
sg66
VIN_COLOR
p2718
sg1381
(iconstruction
TP_SEMFRAME
p2719
(dp2720
g94
g0
(g95
g2
Ntp2721
Rp2722
(dp2723
g99
(dp2724
(iconstruction
TP_NODE
p2725
(dp2726
g1390
I00
sg1391
g741
sg66
VEVT_242
p2727
sg1392
I01
sg1393
I00
sg79
I242
sb(dp2728
g1392
I01
sg1391
g741
ss(iconstruction
TP_NODE
p2729
(dp2730
g1390
I01
sg1391
g753
sg66
g2713
sg1392
I01
sg1393
I00
sg79
I244
sb(dp2731
g1392
I01
sg1391
g753
ss(iconstruction
TP_NODE
p2732
(dp2733
g1390
I00
sg1391
g633
sg66
VACT_243
p2734
sg1392
I01
sg1393
I00
sg79
I243
sb(dp2735
g1392
I01
sg1391
g633
ss(iconstruction
TP_NODE
p2736
(dp2737
g1390
I00
sg1391
g648
sg66
g2715
sg1392
I00
sg1393
I01
sg79
I246
sb(dp2738
g1392
I00
sg1391
g648
ss(iconstruction
TP_NODE
p2739
(dp2740
g1390
I00
sg1391
g783
sg66
VPT_245
p2741
sg1392
I01
sg1393
I00
sg79
I245
sb(dp2742
g1392
I01
sg1391
g783
sssg284
g285
sg286
g285
sg287
(dp2743
g2725
(dp2744
g2732
(dp2745
g1391
g735
sssg2729
(dp2746
sg2732
(dp2747
g2729
(dp2748
g1391
g714
ssg2739
(dp2749
g1391
g708
sssg2736
(dp2750
sg2739
(dp2751
g2736
(dp2752
g1391
g693
ssssg480
g2743
sg94
(dp2753
sg482
g285
sg483
g2743
sg484
(dp2754
g2725
(dp2755
sg2729
(dp2756
g2732
g2748
ssg2732
(dp2757
g2725
g2745
ssg2736
(dp2758
g2739
g2752
ssg2739
(dp2759
g2732
g2749
sssbsg577
(lp2760
g2725
ag2732
ag2729
ag2739
ag2736
asg854
(lp2761
(iconstruction
TP_REL
p2762
(dp2763
g860
g2732
sg1391
g735
sg79
I247
sg861
g2725
sg66
VIS_247
p2764
sba(iconstruction
TP_REL
p2765
(dp2766
g860
g2729
sg1391
g714
sg79
I248
sg861
g2732
sg66
VACT_AGT_248
p2767
sba(iconstruction
TP_REL
p2768
(dp2769
g860
g2739
sg1391
g708
sg79
I249
sg861
g2732
sg66
VACT_PT_249
p2770
sba(iconstruction
TP_REL
p2771
(dp2772
g860
g2736
sg1391
g693
sg79
I250
sg861
g2739
sg66
VPT_COLOR_250
p2773
sbasg79
I239
sg66
g1298
sbsg1407
(iconstruction
TP_SYNFORM
p2774
(dp2775
g79
I240
sg1410
(lp2776
(iconstruction
TP_SLOT
p2777
(dp2778
g1414
(lp2779
VN
p2780
asg1417
I0
sg79
I251
sg66
g2714
sba(iconstruction
TP_PHON
p2781
(dp2782
g1420
I2
sg1417
I1
sg79
I252
sg1421
Vin
p2783
sg66
VS2_252
p2784
sba(iconstruction
TP_SLOT
p2785
(dp2786
g1414
(lp2787
VA
p2788
asg1417
I2
sg79
I253
sg66
g2716
sbasg66
g1298
sbsg1428
I1
sba(iconstruction
CXN
p2789
(dp2790
g1368
(iconstruction
TP_SYMLINKS
p2791
(dp2792
g1371
(dp2793
VN1_258
p2794
VS1_260
p2795
ssg79
I256
sg66
g1298
sbsg1377
VV
p2796
sg1379
I1
sg66
VHIT
p2797
sg1381
(iconstruction
TP_SEMFRAME
p2798
(dp2799
g94
g0
(g95
g2
Ntp2800
Rp2801
(dp2802
g99
(dp2803
(iconstruction
TP_NODE
p2804
(dp2805
g1390
I00
sg1391
g609
sg66
g2794
sg1392
I00
sg1393
I00
sg79
I258
sb(dp2806
g1392
I00
sg1391
g609
ss(iconstruction
TP_NODE
p2807
(dp2808
g1390
I01
sg1391
g588
sg66
VACT_257
p2809
sg1392
I01
sg1393
I00
sg79
I257
sb(dp2810
g1392
I01
sg1391
g588
sssg284
g285
sg286
g285
sg287
(dp2811
g2804
(dp2812
sg2807
(dp2813
g2804
(dp2814
g1391
g735
ssssg480
g2811
sg94
(dp2815
sg482
g285
sg483
g2811
sg484
(dp2816
g2804
(dp2817
g2807
g2814
ssg2807
(dp2818
ssbsg577
(lp2819
g2807
ag2804
asg854
(lp2820
(iconstruction
TP_REL
p2821
(dp2822
g860
g2804
sg1391
g735
sg79
I259
sg861
g2807
sg66
VIS_259
p2823
sbasg79
I254
sg66
g1298
sbsg1407
(iconstruction
TP_SYNFORM
p2824
(dp2825
g79
I255
sg1410
(lp2826
(iconstruction
TP_PHON
p2827
(dp2828
g1420
I3
sg1417
I0
sg79
I260
sg1421
Vhit
p2829
sg66
g2795
sbasg66
g1298
sbsg1428
I1
sba(iconstruction
CXN
p2830
(dp2831
g1368
(iconstruction
TP_SYMLINKS
p2832
(dp2833
g1371
(dp2834
VN1_265
p2835
VS1_267
p2836
ssg79
I263
sg66
g1298
sbsg1377
VV
p2837
sg1379
I1
sg66
VKICK
p2838
sg1381
(iconstruction
TP_SEMFRAME
p2839
(dp2840
g94
g0
(g95
g2
Ntp2841
Rp2842
(dp2843
g99
(dp2844
(iconstruction
TP_NODE
p2845
(dp2846
g1390
I01
sg1391
g588
sg66
VACT_264
p2847
sg1392
I01
sg1393
I00
sg79
I264
sb(dp2848
g1392
I01
sg1391
g588
ss(iconstruction
TP_NODE
p2849
(dp2850
g1390
I00
sg1391
g630
sg66
g2835
sg1392
I00
sg1393
I00
sg79
I265
sb(dp2851
g1392
I00
sg1391
g630
sssg284
g285
sg286
g285
sg287
(dp2852
g2845
(dp2853
g2849
(dp2854
g1391
g735
sssg2849
(dp2855
ssg480
g2852
sg94
(dp2856
sg482
g285
sg483
g2852
sg484
(dp2857
g2845
(dp2858
sg2849
(dp2859
g2845
g2854
sssbsg577
(lp2860
g2845
ag2849
asg854
(lp2861
(iconstruction
TP_REL
p2862
(dp2863
g860
g2849
sg1391
g735
sg79
I266
sg861
g2845
sg66
VIS_266
p2864
sbasg79
I261
sg66
g1298
sbsg1407
(iconstruction
TP_SYNFORM
p2865
(dp2866
g79
I262
sg1410
(lp2867
(iconstruction
TP_PHON
p2868
(dp2869
g1420
I4
sg1417
I0
sg79
I267
sg1421
Vkick
p2870
sg66
g2836
sbasg66
g1298
sbsg1428
I1
sba(iconstruction
CXN
p2871
(dp2872
g1368
(iconstruction
TP_SYMLINKS
p2873
(dp2874
g1371
(dp2875
VN1_272
p2876
VS1_274
p2877
ssg79
I270
sg66
g1298
sbsg1377
VV
p2878
sg1379
I1
sg66
VPUNCH
p2879
sg1381
(iconstruction
TP_SEMFRAME
p2880
(dp2881
g94
g0
(g95
g2
Ntp2882
Rp2883
(dp2884
g99
(dp2885
(iconstruction
TP_NODE
p2886
(dp2887
g1390
I00
sg1391
g615
sg66
g2876
sg1392
I00
sg1393
I00
sg79
I272
sb(dp2888
g1392
I00
sg1391
g615
ss(iconstruction
TP_NODE
p2889
(dp2890
g1390
I01
sg1391
g588
sg66
VACT_271
p2891
sg1392
I01
sg1393
I00
sg79
I271
sb(dp2892
g1392
I01
sg1391
g588
sssg284
g285
sg286
g285
sg287
(dp2893
g2886
(dp2894
sg2889
(dp2895
g2886
(dp2896
g1391
g735
ssssg480
g2893
sg94
(dp2897
sg482
g285
sg483
g2893
sg484
(dp2898
g2886
(dp2899
g2889
g2896
ssg2889
(dp2900
ssbsg577
(lp2901
g2889
ag2886
asg854
(lp2902
(iconstruction
TP_REL
p2903
(dp2904
g860
g2886
sg1391
g735
sg79
I273
sg861
g2889
sg66
VIS_273
p2905
sbasg79
I268
sg66
g1298
sbsg1407
(iconstruction
TP_SYNFORM
p2906
(dp2907
g79
I269
sg1410
(lp2908
(iconstruction
TP_PHON
p2909
(dp2910
g1420
I5
sg1417
I0
sg79
I274
sg1421
Vpunch
p2911
sg66
g2877
sbasg66
g1298
sbsg1428
I1
sba(iconstruction
CXN
p2912
(dp2913
g1368
(iconstruction
TP_SYMLINKS
p2914
(dp2915
g1371
(dp2916
VN1_279
p2917
VS1_281
p2918
ssg79
I277
sg66
g1298
sbsg1377
VV
p2919
sg1379
I1
sg66
VWEAR
p2920
sg1381
(iconstruction
TP_SEMFRAME
p2921
(dp2922
g94
g0
(g95
g2
Ntp2923
Rp2924
(dp2925
g99
(dp2926
(iconstruction
TP_NODE
p2927
(dp2928
g1390
I01
sg1391
g588
sg66
VACT_278
p2929
sg1392
I01
sg1393
I00
sg79
I278
sb(dp2930
g1392
I01
sg1391
g588
ss(iconstruction
TP_NODE
p2931
(dp2932
g1390
I00
sg1391
g633
sg66
g2917
sg1392
I00
sg1393
I00
sg79
I279
sb(dp2933
g1392
I00
sg1391
g633
sssg284
g285
sg286
g285
sg287
(dp2934
g2927
(dp2935
g2931
(dp2936
g1391
g735
sssg2931
(dp2937
ssg480
g2934
sg94
(dp2938
sg482
g285
sg483
g2934
sg484
(dp2939
g2927
(dp2940
sg2931
(dp2941
g2927
g2936
sssbsg577
(lp2942
g2927
ag2931
asg854
(lp2943
(iconstruction
TP_REL
p2944
(dp2945
g860
g2931
sg1391
g735
sg79
I280
sg861
g2927
sg66
VIS_280
p2946
sbasg79
I275
sg66
g1298
sbsg1407
(iconstruction
TP_SYNFORM
p2947
(dp2948
g79
I276
sg1410
(lp2949
(iconstruction
TP_PHON
p2950
(dp2951
g1420
I4
sg1417
I0
sg79
I281
sg1421
Vwear
p2952
sg66
g2918
sbasg66
g1298
sbsg1428
I1
sba(iconstruction
CXN
p2953
(dp2954
g1368
(iconstruction
TP_SYMLINKS
p2955
(dp2956
g1371
(dp2957
VN1_286
p2958
VS1_288
p2959
ssg79
I284
sg66
g1298
sbsg1377
VV
p2960
sg1379
I1
sg66
VLAUGH
p2961
sg1381
(iconstruction
TP_SEMFRAME
p2962
(dp2963
g94
g0
(g95
g2
Ntp2964
Rp2965
(dp2966
g99
(dp2967
(iconstruction
TP_NODE
p2968
(dp2969
g1390
I01
sg1391
g588
sg66
VACT_285
p2970
sg1392
I01
sg1393
I00
sg79
I285
sb(dp2971
g1392
I01
sg1391
g588
ss(iconstruction
TP_NODE
p2972
(dp2973
g1390
I00
sg1391
g603
sg66
g2958
sg1392
I00
sg1393
I00
sg79
I286
sb(dp2974
g1392
I00
sg1391
g603
sssg284
g285
sg286
g285
sg287
(dp2975
g2968
(dp2976
g2972
(dp2977
g1391
g735
sssg2972
(dp2978
ssg480
g2975
sg94
(dp2979
sg482
g285
sg483
g2975
sg484
(dp2980
g2968
(dp2981
sg2972
(dp2982
g2968
g2977
sssbsg577
(lp2983
g2968
ag2972
asg854
(lp2984
(iconstruction
TP_REL
p2985
(dp2986
g860
g2972
sg1391
g735
sg79
I287
sg861
g2968
sg66
VIS_287
p2987
sbasg79
I282
sg66
g1298
sbsg1407
(iconstruction
TP_SYNFORM
p2988
(dp2989
g79
I283
sg1410
(lp2990
(iconstruction
TP_PHON
p2991
(dp2992
g1420
I5
sg1417
I0
sg79
I288
sg1421
Vlaugh
p2993
sg66
g2959
sbasg66
g1298
sbsg1428
I1
sba(iconstruction
CXN
p2994
(dp2995
g1368
(iconstruction
TP_SYMLINKS
p2996
(dp2997
g1371
(dp2998
VN1_293
p2999
VS1_295
p3000
ssg79
I291
sg66
g1298
sbsg1377
VV
p3001
sg1379
I1
sg66
VWATCH
p3002
sg1381
(iconstruction
TP_SEMFRAME
p3003
(dp3004
g94
g0
(g95
g2
Ntp3005
Rp3006
(dp3007
g99
(dp3008
(iconstruction
TP_NODE
p3009
(dp3010
g1390
I00
sg1391
g612
sg66
g2999
sg1392
I00
sg1393
I00
sg79
I293
sb(dp3011
g1392
I00
sg1391
g612
ss(iconstruction
TP_NODE
p3012
(dp3013
g1390
I01
sg1391
g588
sg66
VACT_292
p3014
sg1392
I01
sg1393
I00
sg79
I292
sb(dp3015
g1392
I01
sg1391
g588
sssg284
g285
sg286
g285
sg287
(dp3016
g3009
(dp3017
sg3012
(dp3018
g3009
(dp3019
g1391
g735
ssssg480
g3016
sg94
(dp3020
sg482
g285
sg483
g3016
sg484
(dp3021
g3009
(dp3022
g3012
g3019
ssg3012
(dp3023
ssbsg577
(lp3024
g3012
ag3009
asg854
(lp3025
(iconstruction
TP_REL
p3026
(dp3027
g860
g3009
sg1391
g735
sg79
I294
sg861
g3012
sg66
VIS_294
p3028
sbasg79
I289
sg66
g1298
sbsg1407
(iconstruction
TP_SYNFORM
p3029
(dp3030
g79
I290
sg1410
(lp3031
(iconstruction
TP_PHON
p3032
(dp3033
g1420
I5
sg1417
I0
sg79
I295
sg1421
Vwatch
p3034
sg66
g3000
sbasg66
g1298
sbsg1428
I1
sba(iconstruction
CXN
p3035
(dp3036
g1368
(iconstruction
TP_SYMLINKS
p3037
(dp3038
g1371
(dp3039
VN1_300
p3040
VS1_302
p3041
ssg79
I298
sg66
g1298
sbsg1377
VV
p3042
sg1379
I1
sg66
VTALK
p3043
sg1381
(iconstruction
TP_SEMFRAME
p3044
(dp3045
g94
g0
(g95
g2
Ntp3046
Rp3047
(dp3048
g99
(dp3049
(iconstruction
TP_NODE
p3050
(dp3051
g1390
I01
sg1391
g588
sg66
VACT_299
p3052
sg1392
I01
sg1393
I00
sg79
I299
sb(dp3053
g1392
I01
sg1391
g588
ss(iconstruction
TP_NODE
p3054
(dp3055
g1390
I00
sg1391
g621
sg66
g3040
sg1392
I00
sg1393
I00
sg79
I300
sb(dp3056
g1392
I00
sg1391
g621
sssg284
g285
sg286
g285
sg287
(dp3057
g3050
(dp3058
g3054
(dp3059
g1391
g735
sssg3054
(dp3060
ssg480
g3057
sg94
(dp3061
sg482
g285
sg483
g3057
sg484
(dp3062
g3050
(dp3063
sg3054
(dp3064
g3050
g3059
sssbsg577
(lp3065
g3050
ag3054
asg854
(lp3066
(iconstruction
TP_REL
p3067
(dp3068
g860
g3054
sg1391
g735
sg79
I301
sg861
g3050
sg66
VIS_301
p3069
sbasg79
I296
sg66
g1298
sbsg1407
(iconstruction
TP_SYNFORM
p3070
(dp3071
g79
I297
sg1410
(lp3072
(iconstruction
TP_PHON
p3073
(dp3074
g1420
I4
sg1417
I0
sg79
I302
sg1421
Vtalk
p3075
sg66
g3041
sba(iconstruction
TP_PHON
p3076
(dp3077
g1420
I2
sg1417
I1
sg79
I303
sg1421
Vto
p3078
sg66
VS2_303
p3079
sbasg66
g1298
sbsg1428
I1
sba(iconstruction
CXN
p3080
(dp3081
g1368
(iconstruction
TP_SYMLINKS
p3082
(dp3083
g1371
(dp3084
VN1_308
p3085
VS1_310
p3086
ssg79
I306
sg66
g1298
sbsg1377
VV
p3087
sg1379
I1
sg66
VSQUIRT
p3088
sg1381
(iconstruction
TP_SEMFRAME
p3089
(dp3090
g94
g0
(g95
g2
Ntp3091
Rp3092
(dp3093
g99
(dp3094
(iconstruction
TP_NODE
p3095
(dp3096
g1390
I01
sg1391
g588
sg66
VACT_307
p3097
sg1392
I01
sg1393
I00
sg79
I307
sb(dp3098
g1392
I01
sg1391
g588
ss(iconstruction
TP_NODE
p3099
(dp3100
g1390
I00
sg1391
g627
sg66
g3085
sg1392
I00
sg1393
I00
sg79
I308
sb(dp3101
g1392
I00
sg1391
g627
sssg284
g285
sg286
g285
sg287
(dp3102
g3095
(dp3103
g3099
(dp3104
g1391
g735
sssg3099
(dp3105
ssg480
g3102
sg94
(dp3106
sg482
g285
sg483
g3102
sg484
(dp3107
g3095
(dp3108
sg3099
(dp3109
g3095
g3104
sssbsg577
(lp3110
g3095
ag3099
asg854
(lp3111
(iconstruction
TP_REL
p3112
(dp3113
g860
g3099
sg1391
g735
sg79
I309
sg861
g3095
sg66
VIS_309
p3114
sbasg79
I304
sg66
g1298
sbsg1407
(iconstruction
TP_SYNFORM
p3115
(dp3116
g79
I305
sg1410
(lp3117
(iconstruction
TP_PHON
p3118
(dp3119
g1420
I6
sg1417
I0
sg79
I310
sg1421
Vsquirt
p3120
sg66
g3086
sba(iconstruction
TP_PHON
p3121
(dp3122
g1420
I2
sg1417
I1
sg79
I311
sg1421
Vat
p3123
sg66
VS2_311
p3124
sbasg66
g1298
sbsg1428
I1
sba(iconstruction
CXN
p3125
(dp3126
g1368
(iconstruction
TP_SYMLINKS
p3127
(dp3128
g1371
(dp3129
VN1_316
p3130
VS1_318
p3131
ssg79
I314
sg66
g1298
sbsg1377
VV
p3132
sg1379
I1
sg66
VSPLASH
p3133
sg1381
(iconstruction
TP_SEMFRAME
p3134
(dp3135
g94
g0
(g95
g2
Ntp3136
Rp3137
(dp3138
g99
(dp3139
(iconstruction
TP_NODE
p3140
(dp3141
g1390
I01
sg1391
g588
sg66
VACT_315
p3142
sg1392
I01
sg1393
I00
sg79
I315
sb(dp3143
g1392
I01
sg1391
g588
ss(iconstruction
TP_NODE
p3144
(dp3145
g1390
I00
sg1391
g618
sg66
g3130
sg1392
I00
sg1393
I00
sg79
I316
sb(dp3146
g1392
I00
sg1391
g618
sssg284
g285
sg286
g285
sg287
(dp3147
g3140
(dp3148
g3144
(dp3149
g1391
g735
sssg3144
(dp3150
ssg480
g3147
sg94
(dp3151
sg482
g285
sg483
g3147
sg484
(dp3152
g3140
(dp3153
sg3144
(dp3154
g3140
g3149
sssbsg577
(lp3155
g3140
ag3144
asg854
(lp3156
(iconstruction
TP_REL
p3157
(dp3158
g860
g3144
sg1391
g735
sg79
I317
sg861
g3140
sg66
VIS_317
p3159
sbasg79
I312
sg66
g1298
sbsg1407
(iconstruction
TP_SYNFORM
p3160
(dp3161
g79
I313
sg1410
(lp3162
(iconstruction
TP_PHON
p3163
(dp3164
g1420
I6
sg1417
I0
sg79
I318
sg1421
Vsplash
p3165
sg66
g3131
sbasg66
g1298
sbsg1428
I1
sba(iconstruction
CXN
p3166
(dp3167
g1368
(iconstruction
TP_SYMLINKS
p3168
(dp3169
g1371
(dp3170
VN1_323
p3171
VS1_325
p3172
ssg79
I321
sg66
g1298
sbsg1377
VV
p3173
sg1379
I1
sg66
VGIVE
p3174
sg1381
(iconstruction
TP_SEMFRAME
p3175
(dp3176
g94
g0
(g95
g2
Ntp3177
Rp3178
(dp3179
g99
(dp3180
(iconstruction
TP_NODE
p3181
(dp3182
g1390
I00
sg1391
g642
sg66
g3171
sg1392
I00
sg1393
I00
sg79
I323
sb(dp3183
g1392
I00
sg1391
g642
ss(iconstruction
TP_NODE
p3184
(dp3185
g1390
I01
sg1391
g588
sg66
VACT_322
p3186
sg1392
I01
sg1393
I00
sg79
I322
sb(dp3187
g1392
I01
sg1391
g588
sssg284
g285
sg286
g285
sg287
(dp3188
g3181
(dp3189
sg3184
(dp3190
g3181
(dp3191
g1391
g735
ssssg480
g3188
sg94
(dp3192
sg482
g285
sg483
g3188
sg484
(dp3193
g3181
(dp3194
g3184
g3191
ssg3184
(dp3195
ssbsg577
(lp3196
g3184
ag3181
asg854
(lp3197
(iconstruction
TP_REL
p3198
(dp3199
g860
g3181
sg1391
g735
sg79
I324
sg861
g3184
sg66
VIS_324
p3200
sbasg79
I319
sg66
g1298
sbsg1407
(iconstruction
TP_SYNFORM
p3201
(dp3202
g79
I320
sg1410
(lp3203
(iconstruction
TP_PHON
p3204
(dp3205
g1420
I4
sg1417
I0
sg79
I325
sg1421
Vgive
p3206
sg66
g3172
sbasg66
g1298
sbsg1428
I1
sba(iconstruction
CXN
p3207
(dp3208
g1368
(iconstruction
TP_SYMLINKS
p3209
(dp3210
g1371
(dp3211
VN1_330
p3212
VS1_332
p3213
ssg79
I328
sg66
g1298
sbsg1377
VV
p3214
sg1379
I1
sg66
VSEND
p3215
sg1381
(iconstruction
TP_SEMFRAME
p3216
(dp3217
g94
g0
(g95
g2
Ntp3218
Rp3219
(dp3220
g99
(dp3221
(iconstruction
TP_NODE
p3222
(dp3223
g1390
I00
sg1391
g639
sg66
g3212
sg1392
I00
sg1393
I00
sg79
I330
sb(dp3224
g1392
I00
sg1391
g639
ss(iconstruction
TP_NODE
p3225
(dp3226
g1390
I01
sg1391
g588
sg66
VACT_329
p3227
sg1392
I01
sg1393
I00
sg79
I329
sb(dp3228
g1392
I01
sg1391
g588
sssg284
g285
sg286
g285
sg287
(dp3229
g3222
(dp3230
sg3225
(dp3231
g3222
(dp3232
g1391
g735
ssssg480
g3229
sg94
(dp3233
sg482
g285
sg483
g3229
sg484
(dp3234
g3222
(dp3235
g3225
g3232
ssg3225
(dp3236
ssbsg577
(lp3237
g3225
ag3222
asg854
(lp3238
(iconstruction
TP_REL
p3239
(dp3240
g860
g3222
sg1391
g735
sg79
I331
sg861
g3225
sg66
VIS_331
p3241
sbasg79
I326
sg66
g1298
sbsg1407
(iconstruction
TP_SYNFORM
p3242
(dp3243
g79
I327
sg1410
(lp3244
(iconstruction
TP_PHON
p3245
(dp3246
g1420
I4
sg1417
I0
sg79
I332
sg1421
Vsend
p3247
sg66
g3213
sbasg66
g1298
sbsg1428
I1
sba(iconstruction
CXN
p3248
(dp3249
g1368
(iconstruction
TP_SYMLINKS
p3250
(dp3251
g1371
(dp3252
VN1_337
p3253
VS1_339
p3254
ssg79
I335
sg66
g1298
sbsg1377
VV
p3255
sg1379
I1
sg66
VMEET
p3256
sg1381
(iconstruction
TP_SEMFRAME
p3257
(dp3258
g94
g0
(g95
g2
Ntp3259
Rp3260
(dp3261
g99
(dp3262
(iconstruction
TP_NODE
p3263
(dp3264
g1390
I01
sg1391
g588
sg66
VACT_336
p3265
sg1392
I01
sg1393
I00
sg79
I336
sb(dp3266
g1392
I01
sg1391
g588
ss(iconstruction
TP_NODE
p3267
(dp3268
g1390
I00
sg1391
g594
sg66
g3253
sg1392
I00
sg1393
I00
sg79
I337
sb(dp3269
g1392
I00
sg1391
g594
sssg284
g285
sg286
g285
sg287
(dp3270
g3263
(dp3271
g3267
(dp3272
g1391
g735
sssg3267
(dp3273
ssg480
g3270
sg94
(dp3274
sg482
g285
sg483
g3270
sg484
(dp3275
g3263
(dp3276
sg3267
(dp3277
g3263
g3272
sssbsg577
(lp3278
g3263
ag3267
asg854
(lp3279
(iconstruction
TP_REL
p3280
(dp3281
g860
g3267
sg1391
g735
sg79
I338
sg861
g3263
sg66
VIS_338
p3282
sbasg79
I333
sg66
g1298
sbsg1407
(iconstruction
TP_SYNFORM
p3283
(dp3284
g79
I334
sg1410
(lp3285
(iconstruction
TP_PHON
p3286
(dp3287
g1420
I4
sg1417
I0
sg79
I339
sg1421
Vmeet
p3288
sg66
g3254
sbasg66
g1298
sbsg1428
I1
sba(iconstruction
CXN
p3289
(dp3290
g1368
(iconstruction
TP_SYMLINKS
p3291
(dp3292
g1371
(dp3293
VN1_344
p3294
VS1_346
p3295
ssg79
I342
sg66
g1298
sbsg1377
VV
p3296
sg1379
I1
sg66
VKISS
p3297
sg1381
(iconstruction
TP_SEMFRAME
p3298
(dp3299
g94
g0
(g95
g2
Ntp3300
Rp3301
(dp3302
g99
(dp3303
(iconstruction
TP_NODE
p3304
(dp3305
g1390
I00
sg1391
g624
sg66
g3294
sg1392
I00
sg1393
I00
sg79
I344
sb(dp3306
g1392
I00
sg1391
g624
ss(iconstruction
TP_NODE
p3307
(dp3308
g1390
I01
sg1391
g588
sg66
VACT_343
p3309
sg1392
I01
sg1393
I00
sg79
I343
sb(dp3310
g1392
I01
sg1391
g588
sssg284
g285
sg286
g285
sg287
(dp3311
g3304
(dp3312
sg3307
(dp3313
g3304
(dp3314
g1391
g735
ssssg480
g3311
sg94
(dp3315
sg482
g285
sg483
g3311
sg484
(dp3316
g3304
(dp3317
g3307
g3314
ssg3307
(dp3318
ssbsg577
(lp3319
g3307
ag3304
asg854
(lp3320
(iconstruction
TP_REL
p3321
(dp3322
g860
g3304
sg1391
g735
sg79
I345
sg861
g3307
sg66
VIS_345
p3323
sbasg79
I340
sg66
g1298
sbsg1407
(iconstruction
TP_SYNFORM
p3324
(dp3325
g79
I341
sg1410
(lp3326
(iconstruction
TP_PHON
p3327
(dp3328
g1420
I4
sg1417
I0
sg79
I346
sg1421
Vkiss
p3329
sg66
g3295
sbasg66
g1298
sbsg1428
I1
sba(iconstruction
CXN
p3330
(dp3331
g1368
(iconstruction
TP_SYMLINKS
p3332
(dp3333
g1371
(dp3334
VN1_351
p3335
VS1_353
p3336
ssg79
I349
sg66
g1298
sbsg1377
VV
p3337
sg1379
I1
sg66
VSHAKE_HANDS
p3338
sg1381
(iconstruction
TP_SEMFRAME
p3339
(dp3340
g94
g0
(g95
g2
Ntp3341
Rp3342
(dp3343
g99
(dp3344
(iconstruction
TP_NODE
p3345
(dp3346
g1390
I01
sg1391
g588
sg66
VACT_350
p3347
sg1392
I01
sg1393
I00
sg79
I350
sb(dp3348
g1392
I01
sg1391
g588
ss(iconstruction
TP_NODE
p3349
(dp3350
g1390
I00
sg1391
g597
sg66
g3335
sg1392
I00
sg1393
I00
sg79
I351
sb(dp3351
g1392
I00
sg1391
g597
sssg284
g285
sg286
g285
sg287
(dp3352
g3345
(dp3353
g3349
(dp3354
g1391
g735
sssg3349
(dp3355
ssg480
g3352
sg94
(dp3356
sg482
g285
sg483
g3352
sg484
(dp3357
g3345
(dp3358
sg3349
(dp3359
g3345
g3354
sssbsg577
(lp3360
g3345
ag3349
asg854
(lp3361
(iconstruction
TP_REL
p3362
(dp3363
g860
g3349
sg1391
g735
sg79
I352
sg861
g3345
sg66
VIS_352
p3364
sbasg79
I347
sg66
g1298
sbsg1407
(iconstruction
TP_SYNFORM
p3365
(dp3366
g79
I348
sg1410
(lp3367
(iconstruction
TP_PHON
p3368
(dp3369
g1420
I10
sg1417
I0
sg79
I353
sg1421
Vshake hands
p3370
sg66
g3336
sbasg66
g1298
sbsg1428
I1
sba(iconstruction
CXN
p3371
(dp3372
g1368
(iconstruction
TP_SYMLINKS
p3373
(dp3374
g1371
(dp3375
VN1_357
p3376
VS1_358
p3377
ssg79
I356
sg66
g1298
sbsg1377
VA
p3378
sg1379
I1
sg66
VBLUE
p3379
sg1381
(iconstruction
TP_SEMFRAME
p3380
(dp3381
g94
g0
(g95
g2
Ntp3382
Rp3383
(dp3384
g99
(dp3385
(iconstruction
TP_NODE
p3386
(dp3387
g1390
I01
sg1391
g651
sg66
g3376
sg1392
I00
sg1393
I00
sg79
I357
sb(dp3388
g1392
I00
sg1391
g651
sssg284
g285
sg286
g285
sg287
(dp3389
g3386
(dp3390
ssg480
g3389
sg94
(dp3391
sg482
g285
sg483
g3389
sg484
(dp3392
g3386
(dp3393
ssbsg577
(lp3394
g3386
asg854
(lp3395
sg79
I354
sg66
g1298
sbsg1407
(iconstruction
TP_SYNFORM
p3396
(dp3397
g79
I355
sg1410
(lp3398
(iconstruction
TP_PHON
p3399
(dp3400
g1420
I4
sg1417
I0
sg79
I358
sg1421
Vblue
p3401
sg66
g3377
sbasg66
g1298
sbsg1428
I1
sba(iconstruction
CXN
p3402
(dp3403
g1368
(iconstruction
TP_SYMLINKS
p3404
(dp3405
g1371
(dp3406
VN1_362
p3407
VS1_363
p3408
ssg79
I361
sg66
g1298
sbsg1377
VA
p3409
sg1379
I1
sg66
VBLACK
p3410
sg1381
(iconstruction
TP_SEMFRAME
p3411
(dp3412
g94
g0
(g95
g2
Ntp3413
Rp3414
(dp3415
g99
(dp3416
(iconstruction
TP_NODE
p3417
(dp3418
g1390
I01
sg1391
g660
sg66
g3407
sg1392
I00
sg1393
I00
sg79
I362
sb(dp3419
g1392
I00
sg1391
g660
sssg284
g285
sg286
g285
sg287
(dp3420
g3417
(dp3421
ssg480
g3420
sg94
(dp3422
sg482
g285
sg483
g3420
sg484
(dp3423
g3417
(dp3424
ssbsg577
(lp3425
g3417
asg854
(lp3426
sg79
I359
sg66
g1298
sbsg1407
(iconstruction
TP_SYNFORM
p3427
(dp3428
g79
I360
sg1410
(lp3429
(iconstruction
TP_PHON
p3430
(dp3431
g1420
I5
sg1417
I0
sg79
I363
sg1421
Vblack
p3432
sg66
g3408
sbasg66
g1298
sbsg1428
I1
sba(iconstruction
CXN
p3433
(dp3434
g1368
(iconstruction
TP_SYMLINKS
p3435
(dp3436
g1371
(dp3437
VN1_367
p3438
VS1_368
p3439
ssg79
I366
sg66
g1298
sbsg1377
VA
p3440
sg1379
I1
sg66
VGREEN
p3441
sg1381
(iconstruction
TP_SEMFRAME
p3442
(dp3443
g94
g0
(g95
g2
Ntp3444
Rp3445
(dp3446
g99
(dp3447
(iconstruction
TP_NODE
p3448
(dp3449
g1390
I01
sg1391
g654
sg66
g3438
sg1392
I00
sg1393
I00
sg79
I367
sb(dp3450
g1392
I00
sg1391
g654
sssg284
g285
sg286
g285
sg287
(dp3451
g3448
(dp3452
ssg480
g3451
sg94
(dp3453
sg482
g285
sg483
g3451
sg484
(dp3454
g3448
(dp3455
ssbsg577
(lp3456
g3448
asg854
(lp3457
sg79
I364
sg66
g1298
sbsg1407
(iconstruction
TP_SYNFORM
p3458
(dp3459
g79
I365
sg1410
(lp3460
(iconstruction
TP_PHON
p3461
(dp3462
g1420
I5
sg1417
I0
sg79
I368
sg1421
Vgreen
p3463
sg66
g3439
sbasg66
g1298
sbsg1428
I1
sba(iconstruction
CXN
p3464
(dp3465
g1368
(iconstruction
TP_SYMLINKS
p3466
(dp3467
g1371
(dp3468
VN1_372
p3469
VS1_373
p3470
ssg79
I371
sg66
g1298
sbsg1377
VA
p3471
sg1379
I1
sg66
VSMALL
p3472
sg1381
(iconstruction
TP_SEMFRAME
p3473
(dp3474
g94
g0
(g95
g2
Ntp3475
Rp3476
(dp3477
g99
(dp3478
(iconstruction
TP_NODE
p3479
(dp3480
g1390
I01
sg1391
g681
sg66
g3469
sg1392
I00
sg1393
I00
sg79
I372
sb(dp3481
g1392
I00
sg1391
g681
sssg284
g285
sg286
g285
sg287
(dp3482
g3479
(dp3483
ssg480
g3482
sg94
(dp3484
sg482
g285
sg483
g3482
sg484
(dp3485
g3479
(dp3486
ssbsg577
(lp3487
g3479
asg854
(lp3488
sg79
I369
sg66
g1298
sbsg1407
(iconstruction
TP_SYNFORM
p3489
(dp3490
g79
I370
sg1410
(lp3491
(iconstruction
TP_PHON
p3492
(dp3493
g1420
I5
sg1417
I0
sg79
I373
sg1421
Vsmall
p3494
sg66
g3470
sbasg66
g1298
sbsg1428
I1
sba(iconstruction
CXN
p3495
(dp3496
g1368
(iconstruction
TP_SYMLINKS
p3497
(dp3498
g1371
(dp3499
VN1_377
p3500
VS1_378
p3501
ssg79
I376
sg66
g1298
sbsg1377
VA
p3502
sg1379
I1
sg66
VBIG
p3503
sg1381
(iconstruction
TP_SEMFRAME
p3504
(dp3505
g94
g0
(g95
g2
Ntp3506
Rp3507
(dp3508
g99
(dp3509
(iconstruction
TP_NODE
p3510
(dp3511
g1390
I01
sg1391
g684
sg66
g3500
sg1392
I00
sg1393
I00
sg79
I377
sb(dp3512
g1392
I00
sg1391
g684
sssg284
g285
sg286
g285
sg287
(dp3513
g3510
(dp3514
ssg480
g3513
sg94
(dp3515
sg482
g285
sg483
g3513
sg484
(dp3516
g3510
(dp3517
ssbsg577
(lp3518
g3510
asg854
(lp3519
sg79
I374
sg66
g1298
sbsg1407
(iconstruction
TP_SYNFORM
p3520
(dp3521
g79
I375
sg1410
(lp3522
(iconstruction
TP_PHON
p3523
(dp3524
g1420
I3
sg1417
I0
sg79
I378
sg1421
Vbig
p3525
sg66
g3501
sbasg66
g1298
sbsg1428
I1
sba(iconstruction
CXN
p3526
(dp3527
g1368
(iconstruction
TP_SYMLINKS
p3528
(dp3529
g1371
(dp3530
VN1_382
p3531
VS1_383
p3532
ssg79
I381
sg66
g1298
sbsg1377
VA
p3533
sg1379
I1
sg66
VHANDSOME
p3534
sg1381
(iconstruction
TP_SEMFRAME
p3535
(dp3536
g94
g0
(g95
g2
Ntp3537
Rp3538
(dp3539
g99
(dp3540
(iconstruction
TP_NODE
p3541
(dp3542
g1390
I01
sg1391
g675
sg66
g3531
sg1392
I00
sg1393
I00
sg79
I382
sb(dp3543
g1392
I00
sg1391
g675
sssg284
g285
sg286
g285
sg287
(dp3544
g3541
(dp3545
ssg480
g3544
sg94
(dp3546
sg482
g285
sg483
g3544
sg484
(dp3547
g3541
(dp3548
ssbsg577
(lp3549
g3541
asg854
(lp3550
sg79
I379
sg66
g1298
sbsg1407
(iconstruction
TP_SYNFORM
p3551
(dp3552
g79
I380
sg1410
(lp3553
(iconstruction
TP_PHON
p3554
(dp3555
g1420
I8
sg1417
I0
sg79
I383
sg1421
Vhandsome
p3556
sg66
g3532
sbasg66
g1298
sbsg1428
I1
sba(iconstruction
CXN
p3557
(dp3558
g1368
(iconstruction
TP_SYMLINKS
p3559
(dp3560
g1371
(dp3561
VN1_387
p3562
VS1_388
p3563
ssg79
I386
sg66
g1298
sbsg1377
VA
p3564
sg1379
I1
sg66
VPRETTY
p3565
sg1381
(iconstruction
TP_SEMFRAME
p3566
(dp3567
g94
g0
(g95
g2
Ntp3568
Rp3569
(dp3570
g99
(dp3571
(iconstruction
TP_NODE
p3572
(dp3573
g1390
I01
sg1391
g672
sg66
g3562
sg1392
I00
sg1393
I00
sg79
I387
sb(dp3574
g1392
I00
sg1391
g672
sssg284
g285
sg286
g285
sg287
(dp3575
g3572
(dp3576
ssg480
g3575
sg94
(dp3577
sg482
g285
sg483
g3575
sg484
(dp3578
g3572
(dp3579
ssbsg577
(lp3580
g3572
asg854
(lp3581
sg79
I384
sg66
g1298
sbsg1407
(iconstruction
TP_SYNFORM
p3582
(dp3583
g79
I385
sg1410
(lp3584
(iconstruction
TP_PHON
p3585
(dp3586
g1420
I6
sg1417
I0
sg79
I388
sg1421
Vpretty
p3587
sg66
g3563
sbasg66
g1298
sbsg1428
I1
sba(iconstruction
CXN
p3588
(dp3589
g1368
(iconstruction
TP_SYMLINKS
p3590
(dp3591
g1371
(dp3592
VN1_392
p3593
VS1_393
p3594
ssg79
I391
sg66
g1298
sbsg1377
VA
p3595
sg1379
I1
sg66
VYOUNG
p3596
sg1381
(iconstruction
TP_SEMFRAME
p3597
(dp3598
g94
g0
(g95
g2
Ntp3599
Rp3600
(dp3601
g99
(dp3602
(iconstruction
TP_NODE
p3603
(dp3604
g1390
I01
sg1391
g669
sg66
g3593
sg1392
I00
sg1393
I00
sg79
I392
sb(dp3605
g1392
I00
sg1391
g669
sssg284
g285
sg286
g285
sg287
(dp3606
g3603
(dp3607
ssg480
g3606
sg94
(dp3608
sg482
g285
sg483
g3606
sg484
(dp3609
g3603
(dp3610
ssbsg577
(lp3611
g3603
asg854
(lp3612
sg79
I389
sg66
g1298
sbsg1407
(iconstruction
TP_SYNFORM
p3613
(dp3614
g79
I390
sg1410
(lp3615
(iconstruction
TP_PHON
p3616
(dp3617
g1420
I5
sg1417
I0
sg79
I393
sg1421
Vyoung
p3618
sg66
g3594
sbasg66
g1298
sbsg1428
I1
sba(iconstruction
CXN
p3619
(dp3620
g1368
(iconstruction
TP_SYMLINKS
p3621
(dp3622
g1371
(dp3623
VN1_398
p3624
VS1_400
p3625
ssg79
I396
sg66
g1298
sbsg1377
VN
p3626
sg1379
I1
sg66
VWOMAN
p3627
sg1381
(iconstruction
TP_SEMFRAME
p3628
(dp3629
g94
g0
(g95
g2
Ntp3630
Rp3631
(dp3632
g99
(dp3633
(iconstruction
TP_NODE
p3634
(dp3635
g1390
I00
sg1391
g810
sg66
g3624
sg1392
I00
sg1393
I00
sg79
I398
sb(dp3636
g1392
I00
sg1391
g810
ss(iconstruction
TP_NODE
p3637
(dp3638
g1390
I01
sg1391
g744
sg66
VENT_397
p3639
sg1392
I01
sg1393
I00
sg79
I397
sb(dp3640
g1392
I01
sg1391
g744
sssg284
g285
sg286
g285
sg287
(dp3641
g3634
(dp3642
sg3637
(dp3643
g3634
(dp3644
g1391
g735
ssssg480
g3641
sg94
(dp3645
sg482
g285
sg483
g3641
sg484
(dp3646
g3634
(dp3647
g3637
g3644
ssg3637
(dp3648
ssbsg577
(lp3649
g3637
ag3634
asg854
(lp3650
(iconstruction
TP_REL
p3651
(dp3652
g860
g3634
sg1391
g735
sg79
I399
sg861
g3637
sg66
VIS_399
p3653
sbasg79
I394
sg66
g1298
sbsg1407
(iconstruction
TP_SYNFORM
p3654
(dp3655
g79
I395
sg1410
(lp3656
(iconstruction
TP_PHON
p3657
(dp3658
g1420
I5
sg1417
I0
sg79
I400
sg1421
Vwoman
p3659
sg66
g3625
sbasg66
g1298
sbsg1428
I1
sba(iconstruction
CXN
p3660
(dp3661
g1368
(iconstruction
TP_SYMLINKS
p3662
(dp3663
g1371
(dp3664
VN1_405
p3665
VS1_407
p3666
ssg79
I403
sg66
g1298
sbsg1377
VN
p3667
sg1379
I1
sg66
VWOMAN2
p3668
sg1381
(iconstruction
TP_SEMFRAME
p3669
(dp3670
g94
g0
(g95
g2
Ntp3671
Rp3672
(dp3673
g99
(dp3674
(iconstruction
TP_NODE
p3675
(dp3676
g1390
I01
sg1391
g744
sg66
VENT_404
p3677
sg1392
I01
sg1393
I00
sg79
I404
sb(dp3678
g1392
I01
sg1391
g744
ss(iconstruction
TP_NODE
p3679
(dp3680
g1390
I00
sg1391
g810
sg66
g3665
sg1392
I00
sg1393
I00
sg79
I405
sb(dp3681
g1392
I00
sg1391
g810
sssg284
g285
sg286
g285
sg287
(dp3682
g3675
(dp3683
g3679
(dp3684
g1391
g735
sssg3679
(dp3685
ssg480
g3682
sg94
(dp3686
sg482
g285
sg483
g3682
sg484
(dp3687
g3675
(dp3688
sg3679
(dp3689
g3675
g3684
sssbsg577
(lp3690
g3675
ag3679
asg854
(lp3691
(iconstruction
TP_REL
p3692
(dp3693
g860
g3679
sg1391
g735
sg79
I406
sg861
g3675
sg66
VIS_406
p3694
sbasg79
I401
sg66
g1298
sbsg1407
(iconstruction
TP_SYNFORM
p3695
(dp3696
g79
I402
sg1410
(lp3697
(iconstruction
TP_PHON
p3698
(dp3699
g1420
I4
sg1417
I0
sg79
I407
sg1421
Vlady
p3700
sg66
g3666
sbasg66
g1298
sbsg1428
I1
sba(iconstruction
CXN
p3701
(dp3702
g1368
(iconstruction
TP_SYMLINKS
p3703
(dp3704
g1371
(dp3705
VN1_412
p3706
VS1_414
p3707
ssg79
I410
sg66
g1298
sbsg1377
VN
p3708
sg1379
I1
sg66
VMAN
p3709
sg1381
(iconstruction
TP_SEMFRAME
p3710
(dp3711
g94
g0
(g95
g2
Ntp3712
Rp3713
(dp3714
g99
(dp3715
(iconstruction
TP_NODE
p3716
(dp3717
g1390
I00
sg1391
g837
sg66
g3706
sg1392
I00
sg1393
I00
sg79
I412
sb(dp3718
g1392
I00
sg1391
g837
ss(iconstruction
TP_NODE
p3719
(dp3720
g1390
I01
sg1391
g744
sg66
VENT_411
p3721
sg1392
I01
sg1393
I00
sg79
I411
sb(dp3722
g1392
I01
sg1391
g744
sssg284
g285
sg286
g285
sg287
(dp3723
g3716
(dp3724
sg3719
(dp3725
g3716
(dp3726
g1391
g735
ssssg480
g3723
sg94
(dp3727
sg482
g285
sg483
g3723
sg484
(dp3728
g3716
(dp3729
g3719
g3726
ssg3719
(dp3730
ssbsg577
(lp3731
g3719
ag3716
asg854
(lp3732
(iconstruction
TP_REL
p3733
(dp3734
g860
g3716
sg1391
g735
sg79
I413
sg861
g3719
sg66
VIS_413
p3735
sbasg79
I408
sg66
g1298
sbsg1407
(iconstruction
TP_SYNFORM
p3736
(dp3737
g79
I409
sg1410
(lp3738
(iconstruction
TP_PHON
p3739
(dp3740
g1420
I3
sg1417
I0
sg79
I414
sg1421
Vman
p3741
sg66
g3707
sbasg66
g1298
sbsg1428
I1
sba(iconstruction
CXN
p3742
(dp3743
g1368
(iconstruction
TP_SYMLINKS
p3744
(dp3745
g1371
(dp3746
VN1_419
p3747
VS1_421
p3748
ssg79
I417
sg66
g1298
sbsg1377
VN
p3749
sg1379
I1
sg66
VGIRL
p3750
sg1381
(iconstruction
TP_SEMFRAME
p3751
(dp3752
g94
g0
(g95
g2
Ntp3753
Rp3754
(dp3755
g99
(dp3756
(iconstruction
TP_NODE
p3757
(dp3758
g1390
I01
sg1391
g744
sg66
VENT_418
p3759
sg1392
I01
sg1393
I00
sg79
I418
sb(dp3760
g1392
I01
sg1391
g744
ss(iconstruction
TP_NODE
p3761
(dp3762
g1390
I00
sg1391
g828
sg66
g3747
sg1392
I00
sg1393
I00
sg79
I419
sb(dp3763
g1392
I00
sg1391
g828
sssg284
g285
sg286
g285
sg287
(dp3764
g3757
(dp3765
g3761
(dp3766
g1391
g735
sssg3761
(dp3767
ssg480
g3764
sg94
(dp3768
sg482
g285
sg483
g3764
sg484
(dp3769
g3757
(dp3770
sg3761
(dp3771
g3757
g3766
sssbsg577
(lp3772
g3757
ag3761
asg854
(lp3773
(iconstruction
TP_REL
p3774
(dp3775
g860
g3761
sg1391
g735
sg79
I420
sg861
g3757
sg66
VIS_420
p3776
sbasg79
I415
sg66
g1298
sbsg1407
(iconstruction
TP_SYNFORM
p3777
(dp3778
g79
I416
sg1410
(lp3779
(iconstruction
TP_PHON
p3780
(dp3781
g1420
I4
sg1417
I0
sg79
I421
sg1421
Vgirl
p3782
sg66
g3748
sbasg66
g1298
sbsg1428
I1
sba(iconstruction
CXN
p3783
(dp3784
g1368
(iconstruction
TP_SYMLINKS
p3785
(dp3786
g1371
(dp3787
VN1_426
p3788
VS1_428
p3789
ssg79
I424
sg66
g1298
sbsg1377
VN
p3790
sg1379
I1
sg66
VBOY
p3791
sg1381
(iconstruction
TP_SEMFRAME
p3792
(dp3793
g94
g0
(g95
g2
Ntp3794
Rp3795
(dp3796
g99
(dp3797
(iconstruction
TP_NODE
p3798
(dp3799
g1390
I00
sg1391
g807
sg66
g3788
sg1392
I00
sg1393
I00
sg79
I426
sb(dp3800
g1392
I00
sg1391
g807
ss(iconstruction
TP_NODE
p3801
(dp3802
g1390
I01
sg1391
g744
sg66
VENT_425
p3803
sg1392
I01
sg1393
I00
sg79
I425
sb(dp3804
g1392
I01
sg1391
g744
sssg284
g285
sg286
g285
sg287
(dp3805
g3798
(dp3806
sg3801
(dp3807
g3798
(dp3808
g1391
g735
ssssg480
g3805
sg94
(dp3809
sg482
g285
sg483
g3805
sg484
(dp3810
g3798
(dp3811
g3801
g3808
ssg3801
(dp3812
ssbsg577
(lp3813
g3801
ag3798
asg854
(lp3814
(iconstruction
TP_REL
p3815
(dp3816
g860
g3798
sg1391
g735
sg79
I427
sg861
g3801
sg66
VIS_427
p3817
sbasg79
I422
sg66
g1298
sbsg1407
(iconstruction
TP_SYNFORM
p3818
(dp3819
g79
I423
sg1410
(lp3820
(iconstruction
TP_PHON
p3821
(dp3822
g1420
I3
sg1417
I0
sg79
I428
sg1421
Vboy
p3823
sg66
g3789
sbasg66
g1298
sbsg1428
I1
sba(iconstruction
CXN
p3824
(dp3825
g1368
(iconstruction
TP_SYMLINKS
p3826
(dp3827
g1371
(dp3828
VN1_433
p3829
VS1_435
p3830
ssg79
I431
sg66
g1298
sbsg1377
VN
p3831
sg1379
I1
sg66
VPEOPLE
p3832
sg1381
(iconstruction
TP_SEMFRAME
p3833
(dp3834
g94
g0
(g95
g2
Ntp3835
Rp3836
(dp3837
g99
(dp3838
(iconstruction
TP_NODE
p3839
(dp3840
g1390
I01
sg1391
g744
sg66
VENT_432
p3841
sg1392
I01
sg1393
I00
sg79
I432
sb(dp3842
g1392
I01
sg1391
g744
ss(iconstruction
TP_NODE
p3843
(dp3844
g1390
I00
sg1391
g813
sg66
g3829
sg1392
I00
sg1393
I00
sg79
I433
sb(dp3845
g1392
I00
sg1391
g813
sssg284
g285
sg286
g285
sg287
(dp3846
g3839
(dp3847
g3843
(dp3848
g1391
g735
sssg3843
(dp3849
ssg480
g3846
sg94
(dp3850
sg482
g285
sg483
g3846
sg484
(dp3851
g3839
(dp3852
sg3843
(dp3853
g3839
g3848
sssbsg577
(lp3854
g3839
ag3843
asg854
(lp3855
(iconstruction
TP_REL
p3856
(dp3857
g860
g3843
sg1391
g735
sg79
I434
sg861
g3839
sg66
VIS_434
p3858
sbasg79
I429
sg66
g1298
sbsg1407
(iconstruction
TP_SYNFORM
p3859
(dp3860
g79
I430
sg1410
(lp3861
(iconstruction
TP_PHON
p3862
(dp3863
g1420
I6
sg1417
I0
sg79
I435
sg1421
Vpeople
p3864
sg66
g3830
sbasg66
g1298
sbsg1428
I1
sba(iconstruction
CXN
p3865
(dp3866
g1368
(iconstruction
TP_SYMLINKS
p3867
(dp3868
g1371
(dp3869
VN1_440
p3870
VS1_442
p3871
ssg79
I438
sg66
g1298
sbsg1377
VN
p3872
sg1379
I1
sg66
VMOUSE
p3873
sg1381
(iconstruction
TP_SEMFRAME
p3874
(dp3875
g94
g0
(g95
g2
Ntp3876
Rp3877
(dp3878
g99
(dp3879
(iconstruction
TP_NODE
p3880
(dp3881
g1390
I01
sg1391
g744
sg66
VENT_439
p3882
sg1392
I01
sg1393
I00
sg79
I439
sb(dp3883
g1392
I01
sg1391
g744
ss(iconstruction
TP_NODE
p3884
(dp3885
g1390
I00
sg1391
g801
sg66
g3870
sg1392
I00
sg1393
I00
sg79
I440
sb(dp3886
g1392
I00
sg1391
g801
sssg284
g285
sg286
g285
sg287
(dp3887
g3880
(dp3888
g3884
(dp3889
g1391
g735
sssg3884
(dp3890
ssg480
g3887
sg94
(dp3891
sg482
g285
sg483
g3887
sg484
(dp3892
g3880
(dp3893
sg3884
(dp3894
g3880
g3889
sssbsg577
(lp3895
g3880
ag3884
asg854
(lp3896
(iconstruction
TP_REL
p3897
(dp3898
g860
g3884
sg1391
g735
sg79
I441
sg861
g3880
sg66
VIS_441
p3899
sbasg79
I436
sg66
g1298
sbsg1407
(iconstruction
TP_SYNFORM
p3900
(dp3901
g79
I437
sg1410
(lp3902
(iconstruction
TP_PHON
p3903
(dp3904
g1420
I5
sg1417
I0
sg79
I442
sg1421
Vmouse
p3905
sg66
g3871
sbasg66
g1298
sbsg1428
I1
sba(iconstruction
CXN
p3906
(dp3907
g1368
(iconstruction
TP_SYMLINKS
p3908
(dp3909
g1371
(dp3910
VN1_447
p3911
VS1_449
p3912
ssg79
I445
sg66
g1298
sbsg1377
VN
p3913
sg1379
I1
sg66
VTURTLE
p3914
sg1381
(iconstruction
TP_SEMFRAME
p3915
(dp3916
g94
g0
(g95
g2
Ntp3917
Rp3918
(dp3919
g99
(dp3920
(iconstruction
TP_NODE
p3921
(dp3922
g1390
I00
sg1391
g798
sg66
g3911
sg1392
I00
sg1393
I00
sg79
I447
sb(dp3923
g1392
I00
sg1391
g798
ss(iconstruction
TP_NODE
p3924
(dp3925
g1390
I01
sg1391
g744
sg66
VENT_446
p3926
sg1392
I01
sg1393
I00
sg79
I446
sb(dp3927
g1392
I01
sg1391
g744
sssg284
g285
sg286
g285
sg287
(dp3928
g3921
(dp3929
sg3924
(dp3930
g3921
(dp3931
g1391
g735
ssssg480
g3928
sg94
(dp3932
sg482
g285
sg483
g3928
sg484
(dp3933
g3921
(dp3934
g3924
g3931
ssg3924
(dp3935
ssbsg577
(lp3936
g3924
ag3921
asg854
(lp3937
(iconstruction
TP_REL
p3938
(dp3939
g860
g3921
sg1391
g735
sg79
I448
sg861
g3924
sg66
VIS_448
p3940
sbasg79
I443
sg66
g1298
sbsg1407
(iconstruction
TP_SYNFORM
p3941
(dp3942
g79
I444
sg1410
(lp3943
(iconstruction
TP_PHON
p3944
(dp3945
g1420
I6
sg1417
I0
sg79
I449
sg1421
Vturtle
p3946
sg66
g3912
sbasg66
g1298
sbsg1428
I1
sba(iconstruction
CXN
p3947
(dp3948
g1368
(iconstruction
TP_SYMLINKS
p3949
(dp3950
g1371
(dp3951
VN1_454
p3952
VS1_456
p3953
ssg79
I452
sg66
g1298
sbsg1377
VN
p3954
sg1379
I1
sg66
VDRESS
p3955
sg1381
(iconstruction
TP_SEMFRAME
p3956
(dp3957
g94
g0
(g95
g2
Ntp3958
Rp3959
(dp3960
g99
(dp3961
(iconstruction
TP_NODE
p3962
(dp3963
g1390
I01
sg1391
g744
sg66
VENT_453
p3964
sg1392
I01
sg1393
I00
sg79
I453
sb(dp3965
g1392
I01
sg1391
g744
ss(iconstruction
TP_NODE
p3966
(dp3967
g1390
I00
sg1391
g789
sg66
g3952
sg1392
I00
sg1393
I00
sg79
I454
sb(dp3968
g1392
I00
sg1391
g789
sssg284
g285
sg286
g285
sg287
(dp3969
g3962
(dp3970
g3966
(dp3971
g1391
g735
sssg3966
(dp3972
ssg480
g3969
sg94
(dp3973
sg482
g285
sg483
g3969
sg484
(dp3974
g3962
(dp3975
sg3966
(dp3976
g3962
g3971
sssbsg577
(lp3977
g3962
ag3966
asg854
(lp3978
(iconstruction
TP_REL
p3979
(dp3980
g860
g3966
sg1391
g735
sg79
I455
sg861
g3962
sg66
VIS_455
p3981
sbasg79
I450
sg66
g1298
sbsg1407
(iconstruction
TP_SYNFORM
p3982
(dp3983
g79
I451
sg1410
(lp3984
(iconstruction
TP_PHON
p3985
(dp3986
g1420
I5
sg1417
I0
sg79
I456
sg1421
Vdress
p3987
sg66
g3953
sbasg66
g1298
sbsg1428
I1
sba(iconstruction
CXN
p3988
(dp3989
g1368
(iconstruction
TP_SYMLINKS
p3990
(dp3991
g1371
(dp3992
VN1_461
p3993
VS1_463
p3994
ssg79
I459
sg66
g1298
sbsg1377
VN
p3995
sg1379
I1
sg66
VTSHIRT
p3996
sg1381
(iconstruction
TP_SEMFRAME
p3997
(dp3998
g94
g0
(g95
g2
Ntp3999
Rp4000
(dp4001
g99
(dp4002
(iconstruction
TP_NODE
p4003
(dp4004
g1390
I00
sg1391
g786
sg66
g3993
sg1392
I00
sg1393
I00
sg79
I461
sb(dp4005
g1392
I00
sg1391
g786
ss(iconstruction
TP_NODE
p4006
(dp4007
g1390
I01
sg1391
g744
sg66
VENT_460
p4008
sg1392
I01
sg1393
I00
sg79
I460
sb(dp4009
g1392
I01
sg1391
g744
sssg284
g285
sg286
g285
sg287
(dp4010
g4003
(dp4011
sg4006
(dp4012
g4003
(dp4013
g1391
g735
ssssg480
g4010
sg94
(dp4014
sg482
g285
sg483
g4010
sg484
(dp4015
g4003
(dp4016
g4006
g4013
ssg4006
(dp4017
ssbsg577
(lp4018
g4006
ag4003
asg854
(lp4019
(iconstruction
TP_REL
p4020
(dp4021
g860
g4003
sg1391
g735
sg79
I462
sg861
g4006
sg66
VIS_462
p4022
sbasg79
I457
sg66
g1298
sbsg1407
(iconstruction
TP_SYNFORM
p4023
(dp4024
g79
I458
sg1410
(lp4025
(iconstruction
TP_PHON
p4026
(dp4027
g1420
I6
sg1417
I0
sg79
I463
sg1421
Vt-shirt
p4028
sg66
g3994
sbasg66
g1298
sbsg1428
I1
sba(iconstruction
CXN
p4029
(dp4030
g1368
(iconstruction
TP_SYMLINKS
p4031
(dp4032
g1371
(dp4033
VN1_468
p4034
VS2_471
p4035
ssg79
I466
sg66
g1298
sbsg1377
VN
p4036
sg1379
I1
sg66
VBOXINGRING
p4037
sg1381
(iconstruction
TP_SEMFRAME
p4038
(dp4039
g94
g0
(g95
g2
Ntp4040
Rp4041
(dp4042
g99
(dp4043
(iconstruction
TP_NODE
p4044
(dp4045
g1390
I01
sg1391
g744
sg66
VENT_467
p4046
sg1392
I01
sg1393
I00
sg79
I467
sb(dp4047
g1392
I01
sg1391
g744
ss(iconstruction
TP_NODE
p4048
(dp4049
g1390
I00
sg1391
g843
sg66
g4034
sg1392
I00
sg1393
I00
sg79
I468
sb(dp4050
g1392
I00
sg1391
g843
sssg284
g285
sg286
g285
sg287
(dp4051
g4044
(dp4052
g4048
(dp4053
g1391
g735
sssg4048
(dp4054
ssg480
g4051
sg94
(dp4055
sg482
g285
sg483
g4051
sg484
(dp4056
g4044
(dp4057
sg4048
(dp4058
g4044
g4053
sssbsg577
(lp4059
g4044
ag4048
asg854
(lp4060
(iconstruction
TP_REL
p4061
(dp4062
g860
g4048
sg1391
g735
sg79
I469
sg861
g4044
sg66
VIS_469
p4063
sbasg79
I464
sg66
g1298
sbsg1407
(iconstruction
TP_SYNFORM
p4064
(dp4065
g79
I465
sg1410
(lp4066
(iconstruction
TP_PHON
p4067
(dp4068
g1420
I6
sg1417
I0
sg79
I470
sg1421
Vboxing
p4069
sg66
VS1_470
p4070
sba(iconstruction
TP_PHON
p4071
(dp4072
g1420
I4
sg1417
I1
sg79
I471
sg1421
Vring
p4073
sg66
g4035
sbasg66
g1298
sbsg1428
I1
sba(iconstruction
CXN
p4074
(dp4075
g1368
(iconstruction
TP_SYMLINKS
p4076
(dp4077
g1371
(dp4078
VN1_476
p4079
VS1_478
p4080
ssg79
I474
sg66
g1298
sbsg1377
VN
p4081
sg1379
I1
sg66
VPARK
p4082
sg1381
(iconstruction
TP_SEMFRAME
p4083
(dp4084
g94
g0
(g95
g2
Ntp4085
Rp4086
(dp4087
g99
(dp4088
(iconstruction
TP_NODE
p4089
(dp4090
g1390
I01
sg1391
g744
sg66
VENT_475
p4091
sg1392
I01
sg1393
I00
sg79
I475
sb(dp4092
g1392
I01
sg1391
g744
ss(iconstruction
TP_NODE
p4093
(dp4094
g1390
I00
sg1391
g846
sg66
g4079
sg1392
I00
sg1393
I00
sg79
I476
sb(dp4095
g1392
I00
sg1391
g846
sssg284
g285
sg286
g285
sg287
(dp4096
g4089
(dp4097
g4093
(dp4098
g1391
g735
sssg4093
(dp4099
ssg480
g4096
sg94
(dp4100
sg482
g285
sg483
g4096
sg484
(dp4101
g4089
(dp4102
sg4093
(dp4103
g4089
g4098
sssbsg577
(lp4104
g4089
ag4093
asg854
(lp4105
(iconstruction
TP_REL
p4106
(dp4107
g860
g4093
sg1391
g735
sg79
I477
sg861
g4089
sg66
VIS_477
p4108
sbasg79
I472
sg66
g1298
sbsg1407
(iconstruction
TP_SYNFORM
p4109
(dp4110
g79
I473
sg1410
(lp4111
(iconstruction
TP_PHON
p4112
(dp4113
g1420
I4
sg1417
I0
sg79
I478
sg1421
Vpark
p4114
sg66
g4080
sbasg66
g1298
sbsg1428
I1
sba(iconstruction
CXN
p4115
(dp4116
g1368
(iconstruction
TP_SYMLINKS
p4117
(dp4118
g1371
(dp4119
VN1_483
p4120
VS1_485
p4121
ssg79
I481
sg66
g1298
sbsg1377
VN
p4122
sg1379
I1
sg66
VSHIRT
p4123
sg1381
(iconstruction
TP_SEMFRAME
p4124
(dp4125
g94
g0
(g95
g2
Ntp4126
Rp4127
(dp4128
g99
(dp4129
(iconstruction
TP_NODE
p4130
(dp4131
g1390
I01
sg1391
g744
sg66
VENT_482
p4132
sg1392
I01
sg1393
I00
sg79
I482
sb(dp4133
g1392
I01
sg1391
g744
ss(iconstruction
TP_NODE
p4134
(dp4135
g1390
I00
sg1391
g792
sg66
g4120
sg1392
I00
sg1393
I00
sg79
I483
sb(dp4136
g1392
I00
sg1391
g792
sssg284
g285
sg286
g285
sg287
(dp4137
g4130
(dp4138
g4134
(dp4139
g1391
g735
sssg4134
(dp4140
ssg480
g4137
sg94
(dp4141
sg482
g285
sg483
g4137
sg484
(dp4142
g4130
(dp4143
sg4134
(dp4144
g4130
g4139
sssbsg577
(lp4145
g4130
ag4134
asg854
(lp4146
(iconstruction
TP_REL
p4147
(dp4148
g860
g4134
sg1391
g735
sg79
I484
sg861
g4130
sg66
VIS_484
p4149
sbasg79
I479
sg66
g1298
sbsg1407
(iconstruction
TP_SYNFORM
p4150
(dp4151
g79
I480
sg1410
(lp4152
(iconstruction
TP_PHON
p4153
(dp4154
g1420
I5
sg1417
I0
sg79
I485
sg1421
Vshirt
p4155
sg66
g4121
sbasg66
g1298
sbsg1428
I1
sba(iconstruction
CXN
p4156
(dp4157
g1368
(iconstruction
TP_SYMLINKS
p4158
(dp4159
g1371
(dp4160
VN1_490
p4161
VS1_492
p4162
ssg79
I488
sg66
g1298
sbsg1377
VN
p4163
sg1379
I1
sg66
VSUIT
p4164
sg1381
(iconstruction
TP_SEMFRAME
p4165
(dp4166
g94
g0
(g95
g2
Ntp4167
Rp4168
(dp4169
g99
(dp4170
(iconstruction
TP_NODE
p4171
(dp4172
g1390
I00
sg1391
g795
sg66
g4161
sg1392
I00
sg1393
I00
sg79
I490
sb(dp4173
g1392
I00
sg1391
g795
ss(iconstruction
TP_NODE
p4174
(dp4175
g1390
I01
sg1391
g744
sg66
VENT_489
p4176
sg1392
I01
sg1393
I00
sg79
I489
sb(dp4177
g1392
I01
sg1391
g744
sssg284
g285
sg286
g285
sg287
(dp4178
g4171
(dp4179
sg4174
(dp4180
g4171
(dp4181
g1391
g735
ssssg480
g4178
sg94
(dp4182
sg482
g285
sg483
g4178
sg484
(dp4183
g4171
(dp4184
g4174
g4181
ssg4174
(dp4185
ssbsg577
(lp4186
g4174
ag4171
asg854
(lp4187
(iconstruction
TP_REL
p4188
(dp4189
g860
g4171
sg1391
g735
sg79
I491
sg861
g4174
sg66
VIS_491
p4190
sbasg79
I486
sg66
g1298
sbsg1407
(iconstruction
TP_SYNFORM
p4191
(dp4192
g79
I487
sg1410
(lp4193
(iconstruction
TP_PHON
p4194
(dp4195
g1420
I4
sg1417
I0
sg79
I492
sg1421
Vsuit
p4196
sg66
g4162
sbasg66
g1298
sbsg1428
I1
sba(iconstruction
CXN
p4197
(dp4198
g1368
(iconstruction
TP_SYMLINKS
p4199
(dp4200
g1371
(dp4201
VN1_497
p4202
VS1_499
p4203
ssg79
I495
sg66
g1298
sbsg1377
VN
p4204
sg1379
I1
sg66
VCELLO
p4205
sg1381
(iconstruction
TP_SEMFRAME
p4206
(dp4207
g94
g0
(g95
g2
Ntp4208
Rp4209
(dp4210
g99
(dp4211
(iconstruction
TP_NODE
p4212
(dp4213
g1390
I01
sg1391
g744
sg66
VENT_496
p4214
sg1392
I01
sg1393
I00
sg79
I496
sb(dp4215
g1392
I01
sg1391
g744
ss(iconstruction
TP_NODE
p4216
(dp4217
g1390
I00
sg1391
g777
sg66
g4202
sg1392
I00
sg1393
I00
sg79
I497
sb(dp4218
g1392
I00
sg1391
g777
sssg284
g285
sg286
g285
sg287
(dp4219
g4212
(dp4220
g4216
(dp4221
g1391
g735
sssg4216
(dp4222
ssg480
g4219
sg94
(dp4223
sg482
g285
sg483
g4219
sg484
(dp4224
g4212
(dp4225
sg4216
(dp4226
g4212
g4221
sssbsg577
(lp4227
g4212
ag4216
asg854
(lp4228
(iconstruction
TP_REL
p4229
(dp4230
g860
g4216
sg1391
g735
sg79
I498
sg861
g4212
sg66
VIS_498
p4231
sbasg79
I493
sg66
g1298
sbsg1407
(iconstruction
TP_SYNFORM
p4232
(dp4233
g79
I494
sg1410
(lp4234
(iconstruction
TP_PHON
p4235
(dp4236
g1420
I5
sg1417
I0
sg79
I499
sg1421
VCELLO
p4237
sg66
g4203
sbasg66
g1298
sbsg1428
I1
sba(iconstruction
CXN
p4238
(dp4239
g1368
(iconstruction
TP_SYMLINKS
p4240
(dp4241
g1371
(dp4242
VN1_504
p4243
VS1_506
p4244
ssg79
I502
sg66
g1298
sbsg1377
VN
p4245
sg1379
I1
sg66
VBAG
p4246
sg1381
(iconstruction
TP_SEMFRAME
p4247
(dp4248
g94
g0
(g95
g2
Ntp4249
Rp4250
(dp4251
g99
(dp4252
(iconstruction
TP_NODE
p4253
(dp4254
g1390
I00
sg1391
g768
sg66
g4243
sg1392
I00
sg1393
I00
sg79
I504
sb(dp4255
g1392
I00
sg1391
g768
ss(iconstruction
TP_NODE
p4256
(dp4257
g1390
I01
sg1391
g744
sg66
VENT_503
p4258
sg1392
I01
sg1393
I00
sg79
I503
sb(dp4259
g1392
I01
sg1391
g744
sssg284
g285
sg286
g285
sg287
(dp4260
g4253
(dp4261
sg4256
(dp4262
g4253
(dp4263
g1391
g735
ssssg480
g4260
sg94
(dp4264
sg482
g285
sg483
g4260
sg484
(dp4265
g4253
(dp4266
g4256
g4263
ssg4256
(dp4267
ssbsg577
(lp4268
g4256
ag4253
asg854
(lp4269
(iconstruction
TP_REL
p4270
(dp4271
g860
g4253
sg1391
g735
sg79
I505
sg861
g4256
sg66
VIS_505
p4272
sbasg79
I500
sg66
g1298
sbsg1407
(iconstruction
TP_SYNFORM
p4273
(dp4274
g79
I501
sg1410
(lp4275
(iconstruction
TP_PHON
p4276
(dp4277
g1420
I3
sg1417
I0
sg79
I506
sg1421
Vbag
p4278
sg66
g4244
sbasg66
g1298
sbsg1428
I1
sba(iconstruction
CXN
p4279
(dp4280
g1368
(iconstruction
TP_SYMLINKS
p4281
(dp4282
g1371
(dp4283
VN1_511
p4284
VS2_514
p4285
ssg79
I509
sg66
g1298
sbsg1377
VN
p4286
sg1379
I1
sg66
VWATERING_CAN
p4287
sg1381
(iconstruction
TP_SEMFRAME
p4288
(dp4289
g94
g0
(g95
g2
Ntp4290
Rp4291
(dp4292
g99
(dp4293
(iconstruction
TP_NODE
p4294
(dp4295
g1390
I01
sg1391
g744
sg66
VENT_510
p4296
sg1392
I01
sg1393
I00
sg79
I510
sb(dp4297
g1392
I01
sg1391
g744
ss(iconstruction
TP_NODE
p4298
(dp4299
g1390
I00
sg1391
g765
sg66
g4284
sg1392
I00
sg1393
I00
sg79
I511
sb(dp4300
g1392
I00
sg1391
g765
sssg284
g285
sg286
g285
sg287
(dp4301
g4294
(dp4302
g4298
(dp4303
g1391
g735
sssg4298
(dp4304
ssg480
g4301
sg94
(dp4305
sg482
g285
sg483
g4301
sg484
(dp4306
g4294
(dp4307
sg4298
(dp4308
g4294
g4303
sssbsg577
(lp4309
g4294
ag4298
asg854
(lp4310
(iconstruction
TP_REL
p4311
(dp4312
g860
g4298
sg1391
g735
sg79
I512
sg861
g4294
sg66
VIS_512
p4313
sbasg79
I507
sg66
g1298
sbsg1407
(iconstruction
TP_SYNFORM
p4314
(dp4315
g79
I508
sg1410
(lp4316
(iconstruction
TP_PHON
p4317
(dp4318
g1420
I8
sg1417
I0
sg79
I513
sg1421
Vwatering
p4319
sg66
VS1_513
p4320
sba(iconstruction
TP_PHON
p4321
(dp4322
g1420
I3
sg1417
I1
sg79
I514
sg1421
Vcan
p4323
sg66
g4285
sbasg66
g1298
sbsg1428
I1
sba(iconstruction
CXN
p4324
(dp4325
g1368
(iconstruction
TP_SYMLINKS
p4326
(dp4327
g1371
(dp4328
VN1_519
p4329
VS1_521
p4330
ssg79
I517
sg66
g1298
sbsg1377
VN
p4331
sg1379
I1
sg66
VBALLERINA
p4332
sg1381
(iconstruction
TP_SEMFRAME
p4333
(dp4334
g94
g0
(g95
g2
Ntp4335
Rp4336
(dp4337
g99
(dp4338
(iconstruction
TP_NODE
p4339
(dp4340
g1390
I00
sg1391
g822
sg66
g4329
sg1392
I00
sg1393
I00
sg79
I519
sb(dp4341
g1392
I00
sg1391
g822
ss(iconstruction
TP_NODE
p4342
(dp4343
g1390
I01
sg1391
g744
sg66
VENT_518
p4344
sg1392
I01
sg1393
I00
sg79
I518
sb(dp4345
g1392
I01
sg1391
g744
sssg284
g285
sg286
g285
sg287
(dp4346
g4339
(dp4347
sg4342
(dp4348
g4339
(dp4349
g1391
g735
ssssg480
g4346
sg94
(dp4350
sg482
g285
sg483
g4346
sg484
(dp4351
g4339
(dp4352
g4342
g4349
ssg4342
(dp4353
ssbsg577
(lp4354
g4342
ag4339
asg854
(lp4355
(iconstruction
TP_REL
p4356
(dp4357
g860
g4339
sg1391
g735
sg79
I520
sg861
g4342
sg66
VIS_520
p4358
sbasg79
I515
sg66
g1298
sbsg1407
(iconstruction
TP_SYNFORM
p4359
(dp4360
g79
I516
sg1410
(lp4361
(iconstruction
TP_PHON
p4362
(dp4363
g1420
I9
sg1417
I0
sg79
I521
sg1421
Vballerina
p4364
sg66
g4330
sbasg66
g1298
sbsg1428
I1
sba(iconstruction
CXN
p4365
(dp4366
g1368
(iconstruction
TP_SYMLINKS
p4367
(dp4368
g1371
(dp4369
VN1_526
p4370
VS1_528
p4371
ssg79
I524
sg66
g1298
sbsg1377
VN
p4372
sg1379
I1
sg66
VCELLIST
p4373
sg1381
(iconstruction
TP_SEMFRAME
p4374
(dp4375
g94
g0
(g95
g2
Ntp4376
Rp4377
(dp4378
g99
(dp4379
(iconstruction
TP_NODE
p4380
(dp4381
g1390
I01
sg1391
g744
sg66
VENT_525
p4382
sg1392
I01
sg1393
I00
sg79
I525
sb(dp4383
g1392
I01
sg1391
g744
ss(iconstruction
TP_NODE
p4384
(dp4385
g1390
I00
sg1391
g825
sg66
g4370
sg1392
I00
sg1393
I00
sg79
I526
sb(dp4386
g1392
I00
sg1391
g825
sssg284
g285
sg286
g285
sg287
(dp4387
g4380
(dp4388
g4384
(dp4389
g1391
g735
sssg4384
(dp4390
ssg480
g4387
sg94
(dp4391
sg482
g285
sg483
g4387
sg484
(dp4392
g4380
(dp4393
sg4384
(dp4394
g4380
g4389
sssbsg577
(lp4395
g4380
ag4384
asg854
(lp4396
(iconstruction
TP_REL
p4397
(dp4398
g860
g4384
sg1391
g735
sg79
I527
sg861
g4380
sg66
VIS_527
p4399
sbasg79
I522
sg66
g1298
sbsg1407
(iconstruction
TP_SYNFORM
p4400
(dp4401
g79
I523
sg1410
(lp4402
(iconstruction
TP_PHON
p4403
(dp4404
g1420
I7
sg1417
I0
sg79
I528
sg1421
Vcellist
p4405
sg66
g4371
sbasg66
g1298
sbsg1428
I1
sba(iconstruction
CXN
p4406
(dp4407
g1368
(iconstruction
TP_SYMLINKS
p4408
(dp4409
g1371
(dp4410
VN1_533
p4411
VS1_535
p4412
ssg79
I531
sg66
g1298
sbsg1377
VN
p4413
sg1379
I1
sg66
VFENCER
p4414
sg1381
(iconstruction
TP_SEMFRAME
p4415
(dp4416
g94
g0
(g95
g2
Ntp4417
Rp4418
(dp4419
g99
(dp4420
(iconstruction
TP_NODE
p4421
(dp4422
g1390
I00
sg1391
g831
sg66
g4411
sg1392
I00
sg1393
I00
sg79
I533
sb(dp4423
g1392
I00
sg1391
g831
ss(iconstruction
TP_NODE
p4424
(dp4425
g1390
I01
sg1391
g744
sg66
VENT_532
p4426
sg1392
I01
sg1393
I00
sg79
I532
sb(dp4427
g1392
I01
sg1391
g744
sssg284
g285
sg286
g285
sg287
(dp4428
g4421
(dp4429
sg4424
(dp4430
g4421
(dp4431
g1391
g735
ssssg480
g4428
sg94
(dp4432
sg482
g285
sg483
g4428
sg484
(dp4433
g4421
(dp4434
g4424
g4431
ssg4424
(dp4435
ssbsg577
(lp4436
g4424
ag4421
asg854
(lp4437
(iconstruction
TP_REL
p4438
(dp4439
g860
g4421
sg1391
g735
sg79
I534
sg861
g4424
sg66
VIS_534
p4440
sbasg79
I529
sg66
g1298
sbsg1407
(iconstruction
TP_SYNFORM
p4441
(dp4442
g79
I530
sg1410
(lp4443
(iconstruction
TP_PHON
p4444
(dp4445
g1420
I6
sg1417
I0
sg79
I535
sg1421
Vfencer
p4446
sg66
g4412
sbasg66
g1298
sbsg1428
I1
sba(iconstruction
CXN
p4447
(dp4448
g1368
(iconstruction
TP_SYMLINKS
p4449
(dp4450
g1371
(dp4451
VN1_540
p4452
VS1_542
p4453
ssg79
I538
sg66
g1298
sbsg1377
VN
p4454
sg1379
I1
sg66
VROBBER
p4455
sg1381
(iconstruction
TP_SEMFRAME
p4456
(dp4457
g94
g0
(g95
g2
Ntp4458
Rp4459
(dp4460
g99
(dp4461
(iconstruction
TP_NODE
p4462
(dp4463
g1390
I01
sg1391
g744
sg66
VENT_539
p4464
sg1392
I01
sg1393
I00
sg79
I539
sb(dp4465
g1392
I01
sg1391
g744
ss(iconstruction
TP_NODE
p4466
(dp4467
g1390
I00
sg1391
g834
sg66
g4452
sg1392
I00
sg1393
I00
sg79
I540
sb(dp4468
g1392
I00
sg1391
g834
sssg284
g285
sg286
g285
sg287
(dp4469
g4462
(dp4470
g4466
(dp4471
g1391
g735
sssg4466
(dp4472
ssg480
g4469
sg94
(dp4473
sg482
g285
sg483
g4469
sg484
(dp4474
g4462
(dp4475
sg4466
(dp4476
g4462
g4471
sssbsg577
(lp4477
g4462
ag4466
asg854
(lp4478
(iconstruction
TP_REL
p4479
(dp4480
g860
g4466
sg1391
g735
sg79
I541
sg861
g4462
sg66
VIS_541
p4481
sbasg79
I536
sg66
g1298
sbsg1407
(iconstruction
TP_SYNFORM
p4482
(dp4483
g79
I537
sg1410
(lp4484
(iconstruction
TP_PHON
p4485
(dp4486
g1420
I5
sg1417
I0
sg79
I542
sg1421
Vthief
p4487
sg66
g4453
sbasg66
g1298
sbsg1428
I1
sba(iconstruction
CXN
p4488
(dp4489
g1368
(iconstruction
TP_SYMLINKS
p4490
(dp4491
g1371
(dp4492
VN1_547
p4493
VS1_549
p4494
ssg79
I545
sg66
g1298
sbsg1377
VN
p4495
sg1379
I1
sg66
VPOLICEMAN
p4496
sg1381
(iconstruction
TP_SEMFRAME
p4497
(dp4498
g94
g0
(g95
g2
Ntp4499
Rp4500
(dp4501
g99
(dp4502
(iconstruction
TP_NODE
p4503
(dp4504
g1390
I00
sg1391
g816
sg66
g4493
sg1392
I00
sg1393
I00
sg79
I547
sb(dp4505
g1392
I00
sg1391
g816
ss(iconstruction
TP_NODE
p4506
(dp4507
g1390
I01
sg1391
g744
sg66
VENT_546
p4508
sg1392
I01
sg1393
I00
sg79
I546
sb(dp4509
g1392
I01
sg1391
g744
sssg284
g285
sg286
g285
sg287
(dp4510
g4503
(dp4511
sg4506
(dp4512
g4503
(dp4513
g1391
g735
ssssg480
g4510
sg94
(dp4514
sg482
g285
sg483
g4510
sg484
(dp4515
g4503
(dp4516
g4506
g4513
ssg4506
(dp4517
ssbsg577
(lp4518
g4506
ag4503
asg854
(lp4519
(iconstruction
TP_REL
p4520
(dp4521
g860
g4503
sg1391
g735
sg79
I548
sg861
g4506
sg66
VIS_548
p4522
sbasg79
I543
sg66
g1298
sbsg1407
(iconstruction
TP_SYNFORM
p4523
(dp4524
g79
I544
sg1410
(lp4525
(iconstruction
TP_PHON
p4526
(dp4527
g1420
I9
sg1417
I0
sg79
I549
sg1421
Vpoliceman
p4528
sg66
g4494
sbasg66
g1298
sbsg1428
I1
sba(iconstruction
CXN
p4529
(dp4530
g1368
(iconstruction
TP_SYMLINKS
p4531
(dp4532
g1371
(dp4533
VN1_554
p4534
VS1_556
p4535
ssg79
I552
sg66
g1298
sbsg1377
VN
p4536
sg1379
I1
sg66
VHUNTER
p4537
sg1381
(iconstruction
TP_SEMFRAME
p4538
(dp4539
g94
g0
(g95
g2
Ntp4540
Rp4541
(dp4542
g99
(dp4543
(iconstruction
TP_NODE
p4544
(dp4545
g1390
I01
sg1391
g744
sg66
VENT_553
p4546
sg1392
I01
sg1393
I00
sg79
I553
sb(dp4547
g1392
I01
sg1391
g744
ss(iconstruction
TP_NODE
p4548
(dp4549
g1390
I00
sg1391
g819
sg66
g4534
sg1392
I00
sg1393
I00
sg79
I554
sb(dp4550
g1392
I00
sg1391
g819
sssg284
g285
sg286
g285
sg287
(dp4551
g4544
(dp4552
g4548
(dp4553
g1391
g735
sssg4548
(dp4554
ssg480
g4551
sg94
(dp4555
sg482
g285
sg483
g4551
sg484
(dp4556
g4544
(dp4557
sg4548
(dp4558
g4544
g4553
sssbsg577
(lp4559
g4544
ag4548
asg854
(lp4560
(iconstruction
TP_REL
p4561
(dp4562
g860
g4548
sg1391
g735
sg79
I555
sg861
g4544
sg66
VIS_555
p4563
sbasg79
I550
sg66
g1298
sbsg1407
(iconstruction
TP_SYNFORM
p4564
(dp4565
g79
I551
sg1410
(lp4566
(iconstruction
TP_PHON
p4567
(dp4568
g1420
I6
sg1417
I0
sg79
I556
sg1421
Vhunter
p4569
sg66
g4535
sbasg66
g1298
sbsg1428
I1
sba(iconstruction
CXN
p4570
(dp4571
g1368
(iconstruction
TP_SYMLINKS
p4572
(dp4573
g1371
(dp4574
VN1_561
p4575
VS1_563
p4576
ssg79
I559
sg66
g1298
sbsg1377
VN
p4577
sg1379
I1
sg66
VDOG
p4578
sg1381
(iconstruction
TP_SEMFRAME
p4579
(dp4580
g94
g0
(g95
g2
Ntp4581
Rp4582
(dp4583
g99
(dp4584
(iconstruction
TP_NODE
p4585
(dp4586
g1390
I01
sg1391
g744
sg66
VENT_560
p4587
sg1392
I01
sg1393
I00
sg79
I560
sb(dp4588
g1392
I01
sg1391
g744
ss(iconstruction
TP_NODE
p4589
(dp4590
g1390
I00
sg1391
g804
sg66
g4575
sg1392
I00
sg1393
I00
sg79
I561
sb(dp4591
g1392
I00
sg1391
g804
sssg284
g285
sg286
g285
sg287
(dp4592
g4585
(dp4593
g4589
(dp4594
g1391
g735
sssg4589
(dp4595
ssg480
g4592
sg94
(dp4596
sg482
g285
sg483
g4592
sg484
(dp4597
g4585
(dp4598
sg4589
(dp4599
g4585
g4594
sssbsg577
(lp4600
g4585
ag4589
asg854
(lp4601
(iconstruction
TP_REL
p4602
(dp4603
g860
g4589
sg1391
g735
sg79
I562
sg861
g4585
sg66
VIS_562
p4604
sbasg79
I557
sg66
g1298
sbsg1407
(iconstruction
TP_SYNFORM
p4605
(dp4606
g79
I558
sg1410
(lp4607
(iconstruction
TP_PHON
p4608
(dp4609
g1420
I3
sg1417
I0
sg79
I563
sg1421
Vdog
p4610
sg66
g4576
sbasg66
g1298
sbsg1428
I1
sba(iconstruction
CXN
p4611
(dp4612
g1368
(iconstruction
TP_SYMLINKS
p4613
(dp4614
g1371
(dp4615
VN1_568
p4616
VS1_570
p4617
ssg79
I566
sg66
g1298
sbsg1377
VN
p4618
sg1379
I1
sg66
VHOOK
p4619
sg1381
(iconstruction
TP_SEMFRAME
p4620
(dp4621
g94
g0
(g95
g2
Ntp4622
Rp4623
(dp4624
g99
(dp4625
(iconstruction
TP_NODE
p4626
(dp4627
g1390
I00
sg1391
g774
sg66
g4616
sg1392
I00
sg1393
I00
sg79
I568
sb(dp4628
g1392
I00
sg1391
g774
ss(iconstruction
TP_NODE
p4629
(dp4630
g1390
I01
sg1391
g744
sg66
VENT_567
p4631
sg1392
I01
sg1393
I00
sg79
I567
sb(dp4632
g1392
I01
sg1391
g744
sssg284
g285
sg286
g285
sg287
(dp4633
g4626
(dp4634
sg4629
(dp4635
g4626
(dp4636
g1391
g735
ssssg480
g4633
sg94
(dp4637
sg482
g285
sg483
g4633
sg484
(dp4638
g4626
(dp4639
g4629
g4636
ssg4629
(dp4640
ssbsg577
(lp4641
g4629
ag4626
asg854
(lp4642
(iconstruction
TP_REL
p4643
(dp4644
g860
g4626
sg1391
g735
sg79
I569
sg861
g4629
sg66
VIS_569
p4645
sbasg79
I564
sg66
g1298
sbsg1407
(iconstruction
TP_SYNFORM
p4646
(dp4647
g79
I565
sg1410
(lp4648
(iconstruction
TP_PHON
p4649
(dp4650
g1420
I4
sg1417
I0
sg79
I570
sg1421
Vhook
p4651
sg66
g4617
sbasg66
g1298
sbsg1428
I1
sba(iconstruction
CXN
p4652
(dp4653
g1368
(iconstruction
TP_SYMLINKS
p4654
(dp4655
g1371
(dp4656
VN1_575
p4657
VS1_577
p4658
ssg79
I573
sg66
g1298
sbsg1377
VN
p4659
sg1379
I1
sg66
VBOOKSHELF
p4660
sg1381
(iconstruction
TP_SEMFRAME
p4661
(dp4662
g94
g0
(g95
g2
Ntp4663
Rp4664
(dp4665
g99
(dp4666
(iconstruction
TP_NODE
p4667
(dp4668
g1390
I01
sg1391
g744
sg66
VENT_574
p4669
sg1392
I01
sg1393
I00
sg79
I574
sb(dp4670
g1392
I01
sg1391
g744
ss(iconstruction
TP_NODE
p4671
(dp4672
g1390
I00
sg1391
g780
sg66
g4657
sg1392
I00
sg1393
I00
sg79
I575
sb(dp4673
g1392
I00
sg1391
g780
sssg284
g285
sg286
g285
sg287
(dp4674
g4667
(dp4675
g4671
(dp4676
g1391
g735
sssg4671
(dp4677
ssg480
g4674
sg94
(dp4678
sg482
g285
sg483
g4674
sg484
(dp4679
g4667
(dp4680
sg4671
(dp4681
g4667
g4676
sssbsg577
(lp4682
g4667
ag4671
asg854
(lp4683
(iconstruction
TP_REL
p4684
(dp4685
g860
g4671
sg1391
g735
sg79
I576
sg861
g4667
sg66
VIS_576
p4686
sbasg79
I571
sg66
g1298
sbsg1407
(iconstruction
TP_SYNFORM
p4687
(dp4688
g79
I572
sg1410
(lp4689
(iconstruction
TP_PHON
p4690
(dp4691
g1420
I9
sg1417
I0
sg79
I577
sg1421
Vbookshelf
p4692
sg66
g4658
sbasg66
g1298
sbsg1428
I1
sba(iconstruction
CXN
p4693
(dp4694
g1368
(iconstruction
TP_SYMLINKS
p4695
(dp4696
g1371
(dp4697
VN1_582
p4698
VS1_584
p4699
ssg79
I580
sg66
g1298
sbsg1377
VN
p4700
sg1379
I1
sg66
VWAGON
p4701
sg1381
(iconstruction
TP_SEMFRAME
p4702
(dp4703
g94
g0
(g95
g2
Ntp4704
Rp4705
(dp4706
g99
(dp4707
(iconstruction
TP_NODE
p4708
(dp4709
g1390
I00
sg1391
g762
sg66
g4698
sg1392
I00
sg1393
I00
sg79
I582
sb(dp4710
g1392
I00
sg1391
g762
ss(iconstruction
TP_NODE
p4711
(dp4712
g1390
I01
sg1391
g744
sg66
VENT_581
p4713
sg1392
I01
sg1393
I00
sg79
I581
sb(dp4714
g1392
I01
sg1391
g744
sssg284
g285
sg286
g285
sg287
(dp4715
g4708
(dp4716
sg4711
(dp4717
g4708
(dp4718
g1391
g735
ssssg480
g4715
sg94
(dp4719
sg482
g285
sg483
g4715
sg484
(dp4720
g4708
(dp4721
g4711
g4718
ssg4711
(dp4722
ssbsg577
(lp4723
g4711
ag4708
asg854
(lp4724
(iconstruction
TP_REL
p4725
(dp4726
g860
g4708
sg1391
g735
sg79
I583
sg861
g4711
sg66
VIS_583
p4727
sbasg79
I578
sg66
g1298
sbsg1407
(iconstruction
TP_SYNFORM
p4728
(dp4729
g79
I579
sg1410
(lp4730
(iconstruction
TP_PHON
p4731
(dp4732
g1420
I5
sg1417
I0
sg79
I584
sg1421
Vwagon
p4733
sg66
g4699
sbasg66
g1298
sbsg1428
I1
sba(iconstruction
CXN
p4734
(dp4735
g1368
(iconstruction
TP_SYMLINKS
p4736
(dp4737
g1371
(dp4738
VN1_589
p4739
VS1_591
p4740
ssg79
I587
sg66
g1298
sbsg1377
VN
p4741
sg1379
I1
sg66
VTREE
p4742
sg1381
(iconstruction
TP_SEMFRAME
p4743
(dp4744
g94
g0
(g95
g2
Ntp4745
Rp4746
(dp4747
g99
(dp4748
(iconstruction
TP_NODE
p4749
(dp4750
g1390
I01
sg1391
g744
sg66
VENT_588
p4751
sg1392
I01
sg1393
I00
sg79
I588
sb(dp4752
g1392
I01
sg1391
g744
ss(iconstruction
TP_NODE
p4753
(dp4754
g1390
I00
sg1391
g771
sg66
g4739
sg1392
I00
sg1393
I00
sg79
I589
sb(dp4755
g1392
I00
sg1391
g771
sssg284
g285
sg286
g285
sg287
(dp4756
g4749
(dp4757
g4753
(dp4758
g1391
g735
sssg4753
(dp4759
ssg480
g4756
sg94
(dp4760
sg482
g285
sg483
g4756
sg484
(dp4761
g4749
(dp4762
sg4753
(dp4763
g4749
g4758
sssbsg577
(lp4764
g4749
ag4753
asg854
(lp4765
(iconstruction
TP_REL
p4766
(dp4767
g860
g4753
sg1391
g735
sg79
I590
sg861
g4749
sg66
VIS_590
p4768
sbasg79
I585
sg66
g1298
sbsg1407
(iconstruction
TP_SYNFORM
p4769
(dp4770
g79
I586
sg1410
(lp4771
(iconstruction
TP_PHON
p4772
(dp4773
g1420
I4
sg1417
I0
sg79
I591
sg1421
Vtree
p4774
sg66
g4740
sbasg66
g1298
sbsg1428
I1
sbasbsg66
g1311
sg68
(lp4775
g1354
ag0
(g70
g2
Ntp4776
Rp4777
(dp4778
g66
S'to_cxn_retrieval_C'
p4779
sg75
Nsg76
Nsg77
g78
sg79
I21
sg80
g1358
sbasg85
(dp4780
g1207
Nsg4779
Nssg87
(lp4781
sg1157
F1.0
sg1158
(lp4782
sg1160
(dp4783
g1162
F0.3
ssg1163
F0.0
sg1164
F0.0
sg1165
g1168
sg79
I4
sS'schemas'
p4784
(lp4785
g0
(clanguage_schemas
CXN_SCHEMA
p4786
g2
Ntp4787
Rp4788
(dp4789
g66
g1380
sS'content'
p4790
g1366
sg1165
Nsg79
I99
sS'LTM'
p4791
g1358
sg1162
F0.3
sbag0
(g4786
g2
Ntp4792
Rp4793
(dp4794
g66
g1439
sg4790
g1429
sg1165
Nsg79
I100
sg4791
g1358
sg1162
F0.3
sbag0
(g4786
g2
Ntp4795
Rp4796
(dp4797
g66
g1490
sg4790
g1480
sg1165
Nsg79
I101
sg4791
g1358
sg1162
F0.3
sbag0
(g4786
g2
Ntp4798
Rp4799
(dp4800
g66
g1543
sg4790
g1531
sg1165
Nsg79
I102
sg4791
g1358
sg1162
F0.3
sbag0
(g4786
g2
Ntp4801
Rp4802
(dp4803
g66
g1622
sg4790
g1610
sg1165
Nsg79
I103
sg4791
g1358
sg1162
F0.3
sbag0
(g4786
g2
Ntp4804
Rp4805
(dp4806
g66
g1697
sg4790
g1685
sg1165
Nsg79
I104
sg4791
g1358
sg1162
F0.3
sbag0
(g4786
g2
Ntp4807
Rp4808
(dp4809
g66
g1786
sg4790
g1772
sg1165
Nsg79
I105
sg4791
g1358
sg1162
F0.3
sbag0
(g4786
g2
Ntp4810
Rp4811
(dp4812
g66
g1877
sg4790
g1863
sg1165
Nsg79
I106
sg4791
g1358
sg1162
F0.3
sbag0
(g4786
g2
Ntp4813
Rp4814
(dp4815
g66
g1968
sg4790
g1958
sg1165
Nsg79
I107
sg4791
g1358
sg1162
F0.3
sbag0
(g4786
g2
Ntp4816
Rp4817
(dp4818
g66
g2030
sg4790
g2020
sg1165
Nsg79
I108
sg4791
g1358
sg1162
F0.3
sbag0
(g4786
g2
Ntp4819
Rp4820
(dp4821
g66
g2089
sg4790
g2079
sg1165
Nsg79
I109
sg4791
g1358
sg1162
F0.3
sbag0
(g4786
g2
Ntp4822
Rp4823
(dp4824
g66
g2141
sg4790
g2131
sg1165
Nsg79
I110
sg4791
g1358
sg1162
F0.3
sbag0
(g4786
g2
Ntp4825
Rp4826
(dp4827
g66
g2188
sg4790
g2178
sg1165
Nsg79
I111
sg4791
g1358
sg1162
F0.3
sbag0
(g4786
g2
Ntp4828
Rp4829
(dp4830
g66
g2237
sg4790
g2225
sg1165
Nsg79
I112
sg4791
g1358
sg1162
F0.3
sbag0
(g4786
g2
Ntp4831
Rp4832
(dp4833
g66
g2317
sg4790
g2307
sg1165
Nsg79
I113
sg4791
g1358
sg1162
F0.3
sbag0
(g4786
g2
Ntp4834
Rp4835
(dp4836
g66
g2385
sg4790
g2373
sg1165
Nsg79
I114
sg4791
g1358
sg1162
F0.3
sbag0
(g4786
g2
Ntp4837
Rp4838
(dp4839
g66
g2479
sg4790
g2467
sg1165
Nsg79
I115
sg4791
g1358
sg1162
F0.3
sbag0
(g4786
g2
Ntp4840
Rp4841
(dp4842
g66
g2561
sg4790
g2549
sg1165
Nsg79
I116
sg4791
g1358
sg1162
F0.3
sbag0
(g4786
g2
Ntp4843
Rp4844
(dp4845
g66
g2653
sg4790
g2643
sg1165
Nsg79
I117
sg4791
g1358
sg1162
F0.3
sbag0
(g4786
g2
Ntp4846
Rp4847
(dp4848
g66
g2718
sg4790
g2708
sg1165
Nsg79
I118
sg4791
g1358
sg1162
F0.3
sbag0
(g4786
g2
Ntp4849
Rp4850
(dp4851
g66
g2797
sg4790
g2789
sg1165
Nsg79
I119
sg4791
g1358
sg1162
F0.3
sbag0
(g4786
g2
Ntp4852
Rp4853
(dp4854
g66
g2838
sg4790
g2830
sg1165
Nsg79
I120
sg4791
g1358
sg1162
F0.3
sbag0
(g4786
g2
Ntp4855
Rp4856
(dp4857
g66
g2879
sg4790
g2871
sg1165
Nsg79
I121
sg4791
g1358
sg1162
F0.3
sbag0
(g4786
g2
Ntp4858
Rp4859
(dp4860
g66
g2920
sg4790
g2912
sg1165
Nsg79
I122
sg4791
g1358
sg1162
F0.3
sbag0
(g4786
g2
Ntp4861
Rp4862
(dp4863
g66
g2961
sg4790
g2953
sg1165
Nsg79
I123
sg4791
g1358
sg1162
F0.3
sbag0
(g4786
g2
Ntp4864
Rp4865
(dp4866
g66
g3002
sg4790
g2994
sg1165
Nsg79
I124
sg4791
g1358
sg1162
F0.3
sbag0
(g4786
g2
Ntp4867
Rp4868
(dp4869
g66
g3043
sg4790
g3035
sg1165
Nsg79
I125
sg4791
g1358
sg1162
F0.3
sbag0
(g4786
g2
Ntp4870
Rp4871
(dp4872
g66
g3088
sg4790
g3080
sg1165
Nsg79
I126
sg4791
g1358
sg1162
F0.3
sbag0
(g4786
g2
Ntp4873
Rp4874
(dp4875
g66
g3133
sg4790
g3125
sg1165
Nsg79
I127
sg4791
g1358
sg1162
F0.3
sbag0
(g4786
g2
Ntp4876
Rp4877
(dp4878
g66
g3174
sg4790
g3166
sg1165
Nsg79
I128
sg4791
g1358
sg1162
F0.3
sbag0
(g4786
g2
Ntp4879
Rp4880
(dp4881
g66
g3215
sg4790
g3207
sg1165
Nsg79
I129
sg4791
g1358
sg1162
F0.3
sbag0
(g4786
g2
Ntp4882
Rp4883
(dp4884
g66
g3256
sg4790
g3248
sg1165
Nsg79
I130
sg4791
g1358
sg1162
F0.3
sbag0
(g4786
g2
Ntp4885
Rp4886
(dp4887
g66
g3297
sg4790
g3289
sg1165
Nsg79
I131
sg4791
g1358
sg1162
F0.3
sbag0
(g4786
g2
Ntp4888
Rp4889
(dp4890
g66
g3338
sg4790
g3330
sg1165
Nsg79
I132
sg4791
g1358
sg1162
F0.3
sbag0
(g4786
g2
Ntp4891
Rp4892
(dp4893
g66
g3379
sg4790
g3371
sg1165
Nsg79
I133
sg4791
g1358
sg1162
F0.3
sbag0
(g4786
g2
Ntp4894
Rp4895
(dp4896
g66
g3410
sg4790
g3402
sg1165
Nsg79
I134
sg4791
g1358
sg1162
F0.3
sbag0
(g4786
g2
Ntp4897
Rp4898
(dp4899
g66
g3441
sg4790
g3433
sg1165
Nsg79
I135
sg4791
g1358
sg1162
F0.3
sbag0
(g4786
g2
Ntp4900
Rp4901
(dp4902
g66
g3472
sg4790
g3464
sg1165
Nsg79
I136
sg4791
g1358
sg1162
F0.3
sbag0
(g4786
g2
Ntp4903
Rp4904
(dp4905
g66
g3503
sg4790
g3495
sg1165
Nsg79
I137
sg4791
g1358
sg1162
F0.3
sbag0
(g4786
g2
Ntp4906
Rp4907
(dp4908
g66
g3534
sg4790
g3526
sg1165
Nsg79
I138
sg4791
g1358
sg1162
F0.3
sbag0
(g4786
g2
Ntp4909
Rp4910
(dp4911
g66
g3565
sg4790
g3557
sg1165
Nsg79
I139
sg4791
g1358
sg1162
F0.3
sbag0
(g4786
g2
Ntp4912
Rp4913
(dp4914
g66
g3596
sg4790
g3588
sg1165
Nsg79
I140
sg4791
g1358
sg1162
F0.3
sbag0
(g4786
g2
Ntp4915
Rp4916
(dp4917
g66
g3627
sg4790
g3619
sg1165
Nsg79
I141
sg4791
g1358
sg1162
F0.3
sbag0
(g4786
g2
Ntp4918
Rp4919
(dp4920
g66
g3668
sg4790
g3660
sg1165
Nsg79
I142
sg4791
g1358
sg1162
F0.3
sbag0
(g4786
g2
Ntp4921
Rp4922
(dp4923
g66
g3709
sg4790
g3701
sg1165
Nsg79
I143
sg4791
g1358
sg1162
F0.3
sbag0
(g4786
g2
Ntp4924
Rp4925
(dp4926
g66
g3750
sg4790
g3742
sg1165
Nsg79
I144
sg4791
g1358
sg1162
F0.3
sbag0
(g4786
g2
Ntp4927
Rp4928
(dp4929
g66
g3791
sg4790
g3783
sg1165
Nsg79
I145
sg4791
g1358
sg1162
F0.3
sbag0
(g4786
g2
Ntp4930
Rp4931
(dp4932
g66
g3832
sg4790
g3824
sg1165
Nsg79
I146
sg4791
g1358
sg1162
F0.3
sbag0
(g4786
g2
Ntp4933
Rp4934
(dp4935
g66
g3873
sg4790
g3865
sg1165
Nsg79
I147
sg4791
g1358
sg1162
F0.3
sbag0
(g4786
g2
Ntp4936
Rp4937
(dp4938
g66
g3914
sg4790
g3906
sg1165
Nsg79
I148
sg4791
g1358
sg1162
F0.3
sbag0
(g4786
g2
Ntp4939
Rp4940
(dp4941
g66
g3955
sg4790
g3947
sg1165
Nsg79
I149
sg4791
g1358
sg1162
F0.3
sbag0
(g4786
g2
Ntp4942
Rp4943
(dp4944
g66
g3996
sg4790
g3988
sg1165
Nsg79
I150
sg4791
g1358
sg1162
F0.3
sbag0
(g4786
g2
Ntp4945
Rp4946
(dp4947
g66
g4037
sg4790
g4029
sg1165
Nsg79
I151
sg4791
g1358
sg1162
F0.3
sbag0
(g4786
g2
Ntp4948
Rp4949
(dp4950
g66
g4082
sg4790
g4074
sg1165
Nsg79
I152
sg4791
g1358
sg1162
F0.3
sbag0
(g4786
g2
Ntp4951
Rp4952
(dp4953
g66
g4123
sg4790
g4115
sg1165
Nsg79
I153
sg4791
g1358
sg1162
F0.3
sbag0
(g4786
g2
Ntp4954
Rp4955
(dp4956
g66
g4164
sg4790
g4156
sg1165
Nsg79
I154
sg4791
g1358
sg1162
F0.3
sbag0
(g4786
g2
Ntp4957
Rp4958
(dp4959
g66
g4205
sg4790
g4197
sg1165
Nsg79
I155
sg4791
g1358
sg1162
F0.3
sbag0
(g4786
g2
Ntp4960
Rp4961
(dp4962
g66
g4246
sg4790
g4238
sg1165
Nsg79
I156
sg4791
g1358
sg1162
F0.3
sbag0
(g4786
g2
Ntp4963
Rp4964
(dp4965
g66
g4287
sg4790
g4279
sg1165
Nsg79
I157
sg4791
g1358
sg1162
F0.3
sbag0
(g4786
g2
Ntp4966
Rp4967
(dp4968
g66
g4332
sg4790
g4324
sg1165
Nsg79
I158
sg4791
g1358
sg1162
F0.3
sbag0
(g4786
g2
Ntp4969
Rp4970
(dp4971
g66
g4373
sg4790
g4365
sg1165
Nsg79
I159
sg4791
g1358
sg1162
F0.3
sbag0
(g4786
g2
Ntp4972
Rp4973
(dp4974
g66
g4414
sg4790
g4406
sg1165
Nsg79
I160
sg4791
g1358
sg1162
F0.3
sbag0
(g4786
g2
Ntp4975
Rp4976
(dp4977
g66
g4455
sg4790
g4447
sg1165
Nsg79
I161
sg4791
g1358
sg1162
F0.3
sbag0
(g4786
g2
Ntp4978
Rp4979
(dp4980
g66
g4496
sg4790
g4488
sg1165
Nsg79
I162
sg4791
g1358
sg1162
F0.3
sbag0
(g4786
g2
Ntp4981
Rp4982
(dp4983
g66
g4537
sg4790
g4529
sg1165
Nsg79
I163
sg4791
g1358
sg1162
F0.3
sbag0
(g4786
g2
Ntp4984
Rp4985
(dp4986
g66
g4578
sg4790
g4570
sg1165
Nsg79
I164
sg4791
g1358
sg1162
F0.3
sbag0
(g4786
g2
Ntp4987
Rp4988
(dp4989
g66
g4619
sg4790
g4611
sg1165
Nsg79
I165
sg4791
g1358
sg1162
F0.3
sbag0
(g4786
g2
Ntp4990
Rp4991
(dp4992
g66
g4660
sg4790
g4652
sg1165
Nsg79
I166
sg4791
g1358
sg1162
F0.3
sbag0
(g4786
g2
Ntp4993
Rp4994
(dp4995
g66
g4701
sg4790
g4693
sg1165
Nsg79
I167
sg4791
g1358
sg1162
F0.3
sbag0
(g4786
g2
Ntp4996
Rp4997
(dp4998
g66
g4742
sg4790
g4734
sg1165
Nsg79
I168
sg4791
g1358
sg1162
F0.3
sbasbsbsg1165
g1168
sg79
I2
sbag0
(g1320
g2
Ntp4999
Rp5000
(dp5001
g1324
I0
sg66
g1298
sg1325
I0
sg1326
g0
(g70
g2
Ntp5002
Rp5003
(dp5004
g66
S'from_cxn_retrieval_P'
p5005
sg75
Nsg76
Nsg77
g1184
sg79
I14
sg80
g0
(clanguage_schemas
GRAMMATICAL_WM_P
p5006
g2
Ntp5007
Rp5008
(dp5009
g64
(dp5010
g5005
NsS'from_phonological_WM_P'
p5011
Nsg1330
Nsg1192
Nssg1194
(lp5012
sg66
g1307
sg1197
(lp5013
sg68
(lp5014
g0
(g70
g2
Ntp5015
Rp5016
(dp5017
g66
g84
sg75
Nsg76
Nsg77
g78
sg79
I17
sg80
g5008
sbag0
(g70
g2
Ntp5018
Rp5019
(dp5020
g66
S'to_phonological_WM_P'
p5021
sg75
Nsg76
Nsg77
g78
sg79
I18
sg80
g5008
sbag0
(g70
g2
Ntp5022
Rp5023
(dp5024
g66
g1219
sg75
Nsg76
Nsg77
g78
sg79
I19
sg80
g5008
sbasg85
(dp5025
g1219
Nsg5021
Nsg84
NssS'time_to_next_prod'
p5026
I0
sg1157
F1.0
sg1221
(lp5027
sg1158
(lp5028
g0
(g70
g2
Ntp5029
Rp5030
(dp5031
g66
g1330
sg75
Nsg76
Nsg77
g1184
sg79
I13
sg80
g5008
sbag5003
ag0
(g70
g2
Ntp5032
Rp5033
(dp5034
g66
g1192
sg75
Nsg76
Nsg77
g1184
sg79
I15
sg80
g5008
sbag0
(g70
g2
Ntp5035
Rp5036
(dp5037
g66
g5011
sg75
Nsg76
Nsg77
g1184
sg79
I16
sg80
g5008
sbasS'refractory_period'
p5038
I10
sg1236
(dp5039
g1238
(dp5040
sg1240
(dp5041
g1242
(lp5042
sg1244
(dp5043
g1246
(lp5044
sg1248
(lp5045
sg1250
(lp5046
ssg1252
(lp5047
sg1163
(lp5048
sg1255
(lp5049
sssg1160
(dp5050
g1258
(dp5051
g1264
F1.0
sg1265
F1.0
sS'sub_threshold_r'
p5052
F0.8
sg1267
F0.0
sS'deact_weight'
p5053
F0.0
sg1266
F0.3
sg1268
F0.01
sg5038
I10
sg1260
F1.0
sg1261
Nsg1262
F-10.0
sg1263
F1.0
ssg1269
(dp5054
g1271
F100.0
sg1272
F10.0
sg1273
F0.001
sg1274
F0.0
sg1275
F0.1
sg1276
F1.0
sg1277
F1.0
ssS'style'
p5055
(dp5056
S'continuity'
p5057
I0
sS'form_length'
p5058
I0
sS'activation'
p5059
F1.0
sS'sem_length'
p5060
I0
sssg1163
F0.0
sg1164
F0.0
sg1165
g1168
sg79
I3
sbsbsg1349
g1339
sg1165
g1168
sg79
I3
sbag0
(g1320
g2
Ntp5061
Rp5062
(dp5063
g1324
I0
sg66
g1298
sg1325
I0
sg1326
g5030
sg1349
g1201
sg1165
g1168
sg79
I4
sbag0
(g1320
g2
Ntp5064
Rp5065
(dp5066
g1324
I0
sg66
g1298
sg1325
I0
sg1326
g1231
sg1349
g5016
sg1165
g1168
sg79
I5
sbag0
(g1320
g2
Ntp5067
Rp5068
(dp5069
g1324
I0
sg66
g1298
sg1325
I0
sg1326
g0
(g70
g2
Ntp5070
Rp5071
(dp5072
g66
g1190
sg75
Nsg76
Nsg77
g1184
sg79
I25
sg80
g0
(clanguage_schemas
PHON_WM_P
p5073
g2
Ntp5074
Rp5075
(dp5076
g64
(dp5077
g1190
Nssg1194
(lp5078
sg66
g1303
sg1197
(lp5079
sg68
(lp5080
g0
(g70
g2
Ntp5081
Rp5082
(dp5083
g66
S'to_utter'
p5084
sg75
Nsg76
Nsg77
g78
sg79
I26
sg80
g5075
sbag0
(g70
g2
Ntp5085
Rp5086
(dp5087
g66
g1203
sg75
Nsg76
Nsg77
g78
sg79
I27
sg80
g5075
sbag0
(g70
g2
Ntp5088
Rp5089
(dp5090
g66
g1211
sg75
Nsg76
Nsg77
g78
sg79
I28
sg80
g5075
sbag0
(g70
g2
Ntp5091
Rp5092
(dp5093
g66
g1219
sg75
Nsg76
Nsg77
g78
sg79
I29
sg80
g5075
sbasg85
(dp5094
g1219
Nsg1203
Nsg5084
Nsg1211
NssS'needs_filler'
p5095
I00
sg1157
F1.0
sg1221
(lp5096
sg1158
(lp5097
g5071
asS'filler'
p5098
S'....'
p5099
sg1236
(dp5100
g1238
(dp5101
sg1240
(dp5102
g1242
(lp5103
sg1244
(dp5104
g1246
(lp5105
sg1248
(lp5106
sg1250
(lp5107
ssg1252
(lp5108
sg1163
(lp5109
sg1255
(lp5110
sssg1160
(dp5111
g1258
(dp5112
g1260
F1.0
sg1261
Nsg1262
F0.0
sg1263
F1.0
sg1264
F1.0
sg1265
F0.0
sg1266
F0.0
sg1267
F0.0
sg1268
F0.01
ssg1269
(dp5113
g1271
F100.0
sg1272
F10.0
sg1273
F0.001
sg1274
F0.0
sg1275
F1.0
sg1276
F1.0
sg1277
F1.0
sssg1163
F0.0
sg1164
F0.0
sg1165
g1168
sS'phon_sequence'
p5114
(lp5115
sg79
I6
sbsbsg1349
g5019
sg1165
g1168
sg79
I6
sbag0
(g1320
g2
Ntp5116
Rp5117
(dp5118
g1324
I0
sg66
g1298
sg1325
I0
sg1326
g5036
sg1349
g5086
sg1165
g1168
sg79
I7
sbag0
(g1320
g2
Ntp5119
Rp5120
(dp5121
g1324
I0
sg66
g1298
sg1325
I0
sg1326
g0
(g70
g2
Ntp5122
Rp5123
(dp5124
g66
g1330
sg75
Nsg76
Nsg77
g1184
sg79
I32
sg80
g0
(clanguage_schemas
CONTROL
p5125
g2
Ntp5126
Rp5127
(dp5128
g64
(dp5129
g5011
Nsg1330
Nssg66
g1293
sg68
(lp5130
g0
(g70
g2
Ntp5131
Rp5132
(dp5133
g66
g84
sg75
Nsg76
Nsg77
g78
sg79
I34
sg80
g5127
sbag0
(g70
g2
Ntp5134
Rp5135
(dp5136
g66
g1203
sg75
Nsg76
Nsg77
g78
sg79
I35
sg80
g5127
sbag0
(g70
g2
Ntp5137
Rp5138
(dp5139
g66
S'to_grammatical_WM_C'
p5140
sg75
Nsg76
Nsg77
g78
sg79
I36
sg80
g5127
sbasg85
(dp5141
g1203
Nsg5140
Nsg84
Nssg1157
F1.0
sg1158
(lp5142
g5123
ag0
(g70
g2
Ntp5143
Rp5144
(dp5145
g66
g5011
sg75
Nsg76
Nsg77
g1184
sg79
I33
sg80
g5127
sbasS'state'
p5146
(dp5147
S'produce'
p5148
I00
sS'unexpressed_sem'
p5149
I00
sS'mode'
p5150
g5148
sS'last_prod_time'
p5151
I0
ssg1160
(dp5152
g5055
(dp5153
g5057
F0.3
sg5058
F0.0
sg5059
F0.7
sg5060
F0.0
ssS'task'
p5154
(dp5155
S'time_pressure'
p5156
F10.0
sS'start_produce'
p5157
F1.0
sssg1163
F0.0
sg1164
F0.0
sg1165
g1168
sg79
I8
sbsbsg1349
g1209
sg1165
g1168
sg79
I8
sbag0
(g1320
g2
Ntp5158
Rp5159
(dp5160
g1324
I0
sg66
g1298
sg1325
I0
sg1326
g0
(g70
g2
Ntp5161
Rp5162
(dp5163
g66
g5011
sg75
Nsg76
Nsg77
g1184
sg79
I30
sg80
g0
(clanguage_schemas
UTTER
p5164
g2
Ntp5165
Rp5166
(dp5167
g64
(dp5168
g5011
Nssg66
g1296
sg68
(lp5169
g0
(g70
g2
Ntp5170
Rp5171
(dp5172
g66
g1219
sg75
Nsg76
Nsg77
g78
sg79
I31
sg80
g5166
sbasg85
(dp5173
g1219
NssS'utterance_stack'
p5174
(lp5175
sg1157
F1.0
sg1158
(lp5176
g5162
asg1160
(dp5177
S'speech_rate'
p5178
F1.0
ssg1163
F0.0
sg1164
F0.0
sg1165
g1168
sg79
I7
sbsbsg1349
g5082
sg1165
g1168
sg79
I9
sbag0
(g1320
g2
Ntp5179
Rp5180
(dp5181
g1324
I0
sg66
g1298
sg1325
I0
sg1326
g5144
sg1349
g5089
sg1165
g1168
sg79
I10
sbag0
(g1320
g2
Ntp5182
Rp5183
(dp5184
g1324
I0
sg66
g1298
sg1325
I0
sg1326
g5033
sg1349
g5135
sg1165
g1168
sg79
I11
sbag0
(g1320
g2
Ntp5185
Rp5186
(dp5187
g1324
I0
sg66
g1298
sg1325
I0
sg1326
g1234
sg1349
g5132
sg1165
g1168
sg79
I12
sbasg1160
(dp5188
g1293
g5152
sg1303
g5111
sg67
g1161
sg1311
g4783
sg1315
g1348
sg1196
g1257
sg1296
g5177
sg1307
g5050
ssg1163
F0.0
sS'set_up_time'
p5189
I10
sS'input'
p5190
NsS'default_params'
p5191
Nsg1157
F1.0
sS'output_ports'
p5192
(lp5193
g5171
ag5092
ag5023
ag1217
asg4784
(dp5194
g1293
g5127
sg1303
g5075
sg67
g62
sg1315
g1333
sg1307
g5008
sg1196
g1187
sg1296
g5166
sg1311
g1358
ssbsg79
I2
sg4784
(lp5195
g0
(clanguage_schemas
CPT_EVENT_SCHEMA
p5196
g2
Ntp5197
Rp5198
(dp5199
g66
g103
sg4790
(dp5200
g1391
g581
ssg1165
Nsg79
I9
sg4791
g62
sg1162
F1.0
sbag0
(clanguage_schemas
CPT_ACTION_SCHEMA
p5201
g2
Ntp5202
Rp5203
(dp5204
g66
g107
sg4790
(dp5205
g1391
g588
ssg1165
Nsg79
I10
sg4791
g62
sg1162
F1.0
sbag0
(g5201
g2
Ntp5206
Rp5207
(dp5208
g66
g109
sg4790
(dp5209
g1391
g591
ssg1165
Nsg79
I11
sg4791
g62
sg1162
F1.0
sbag0
(g5201
g2
Ntp5210
Rp5211
(dp5212
g66
g111
sg4790
(dp5213
g1391
g594
ssg1165
Nsg79
I12
sg4791
g62
sg1162
F1.0
sbag0
(g5201
g2
Ntp5214
Rp5215
(dp5216
g66
g113
sg4790
(dp5217
g1391
g597
ssg1165
Nsg79
I13
sg4791
g62
sg1162
F1.0
sbag0
(g5201
g2
Ntp5218
Rp5219
(dp5220
g66
g115
sg4790
(dp5221
g1391
g600
ssg1165
Nsg79
I14
sg4791
g62
sg1162
F1.0
sbag0
(g5201
g2
Ntp5222
Rp5223
(dp5224
g66
g117
sg4790
(dp5225
g1391
g603
ssg1165
Nsg79
I15
sg4791
g62
sg1162
F1.0
sbag0
(g5201
g2
Ntp5226
Rp5227
(dp5228
g66
g119
sg4790
(dp5229
g1391
g606
ssg1165
Nsg79
I16
sg4791
g62
sg1162
F1.0
sbag0
(g5201
g2
Ntp5230
Rp5231
(dp5232
g66
g121
sg4790
(dp5233
g1391
g609
ssg1165
Nsg79
I17
sg4791
g62
sg1162
F1.0
sbag0
(g5201
g2
Ntp5234
Rp5235
(dp5236
g66
g123
sg4790
(dp5237
g1391
g612
ssg1165
Nsg79
I18
sg4791
g62
sg1162
F1.0
sbag0
(g5201
g2
Ntp5238
Rp5239
(dp5240
g66
g125
sg4790
(dp5241
g1391
g615
ssg1165
Nsg79
I19
sg4791
g62
sg1162
F1.0
sbag0
(g5201
g2
Ntp5242
Rp5243
(dp5244
g66
g127
sg4790
(dp5245
g1391
g618
ssg1165
Nsg79
I20
sg4791
g62
sg1162
F1.0
sbag0
(g5201
g2
Ntp5246
Rp5247
(dp5248
g66
g129
sg4790
(dp5249
g1391
g621
ssg1165
Nsg79
I21
sg4791
g62
sg1162
F1.0
sbag0
(g5201
g2
Ntp5250
Rp5251
(dp5252
g66
g131
sg4790
(dp5253
g1391
g624
ssg1165
Nsg79
I22
sg4791
g62
sg1162
F1.0
sbag0
(g5201
g2
Ntp5254
Rp5255
(dp5256
g66
g133
sg4790
(dp5257
g1391
g627
ssg1165
Nsg79
I23
sg4791
g62
sg1162
F1.0
sbag0
(g5201
g2
Ntp5258
Rp5259
(dp5260
g66
g135
sg4790
(dp5261
g1391
g630
ssg1165
Nsg79
I24
sg4791
g62
sg1162
F1.0
sbag0
(g5201
g2
Ntp5262
Rp5263
(dp5264
g66
g137
sg4790
(dp5265
g1391
g633
ssg1165
Nsg79
I25
sg4791
g62
sg1162
F1.0
sbag0
(g5201
g2
Ntp5266
Rp5267
(dp5268
g66
g139
sg4790
(dp5269
g1391
g636
ssg1165
Nsg79
I26
sg4791
g62
sg1162
F1.0
sbag0
(g5201
g2
Ntp5270
Rp5271
(dp5272
g66
g141
sg4790
(dp5273
g1391
g639
ssg1165
Nsg79
I27
sg4791
g62
sg1162
F1.0
sbag0
(g5201
g2
Ntp5274
Rp5275
(dp5276
g66
g143
sg4790
(dp5277
g1391
g642
ssg1165
Nsg79
I28
sg4791
g62
sg1162
F1.0
sbag0
(clanguage_schemas
CPT_PROPERTY_SCHEMA
p5278
g2
Ntp5279
Rp5280
(dp5281
g66
g145
sg4790
(dp5282
g1391
g645
ssg1165
Nsg79
I29
sg4791
g62
sg1162
F1.0
sbag0
(g5278
g2
Ntp5283
Rp5284
(dp5285
g66
g147
sg4790
(dp5286
g1391
g648
ssg1165
Nsg79
I30
sg4791
g62
sg1162
F1.0
sbag0
(g5278
g2
Ntp5287
Rp5288
(dp5289
g66
g149
sg4790
(dp5290
g1391
g651
ssg1165
Nsg79
I31
sg4791
g62
sg1162
F1.0
sbag0
(g5278
g2
Ntp5291
Rp5292
(dp5293
g66
g151
sg4790
(dp5294
g1391
g654
ssg1165
Nsg79
I32
sg4791
g62
sg1162
F1.0
sbag0
(g5278
g2
Ntp5295
Rp5296
(dp5297
g66
g153
sg4790
(dp5298
g1391
g657
ssg1165
Nsg79
I33
sg4791
g62
sg1162
F1.0
sbag0
(g5278
g2
Ntp5299
Rp5300
(dp5301
g66
g155
sg4790
(dp5302
g1391
g660
ssg1165
Nsg79
I34
sg4791
g62
sg1162
F1.0
sbag0
(g5278
g2
Ntp5303
Rp5304
(dp5305
g66
g157
sg4790
(dp5306
g1391
g663
ssg1165
Nsg79
I35
sg4791
g62
sg1162
F1.0
sbag0
(g5278
g2
Ntp5307
Rp5308
(dp5309
g66
g159
sg4790
(dp5310
g1391
g666
ssg1165
Nsg79
I36
sg4791
g62
sg1162
F1.0
sbag0
(g5278
g2
Ntp5311
Rp5312
(dp5313
g66
g161
sg4790
(dp5314
g1391
g669
ssg1165
Nsg79
I37
sg4791
g62
sg1162
F1.0
sbag0
(g5278
g2
Ntp5315
Rp5316
(dp5317
g66
g163
sg4790
(dp5318
g1391
g672
ssg1165
Nsg79
I38
sg4791
g62
sg1162
F1.0
sbag0
(g5278
g2
Ntp5319
Rp5320
(dp5321
g66
g165
sg4790
(dp5322
g1391
g675
ssg1165
Nsg79
I39
sg4791
g62
sg1162
F1.0
sbag0
(g5278
g2
Ntp5323
Rp5324
(dp5325
g66
g167
sg4790
(dp5326
g1391
g678
ssg1165
Nsg79
I40
sg4791
g62
sg1162
F1.0
sbag0
(g5278
g2
Ntp5327
Rp5328
(dp5329
g66
g169
sg4790
(dp5330
g1391
g681
ssg1165
Nsg79
I41
sg4791
g62
sg1162
F1.0
sbag0
(g5278
g2
Ntp5331
Rp5332
(dp5333
g66
g171
sg4790
(dp5334
g1391
g684
ssg1165
Nsg79
I42
sg4791
g62
sg1162
F1.0
sbag0
(clanguage_schemas
CPT_RELATION_SCHEMA
p5335
g2
Ntp5336
Rp5337
(dp5338
g66
g173
sg4790
(dp5339
g860
Nsg1391
g687
sg861
Nssg1165
Nsg79
I43
sg4791
g62
sg1162
F1.0
sbag0
(g5335
g2
Ntp5340
Rp5341
(dp5342
g66
g175
sg4790
(dp5343
g860
Nsg1391
g690
sg861
Nssg1165
Nsg79
I44
sg4791
g62
sg1162
F1.0
sbag0
(g5335
g2
Ntp5344
Rp5345
(dp5346
g66
g177
sg4790
(dp5347
g860
Nsg1391
g693
sg861
Nssg1165
Nsg79
I45
sg4791
g62
sg1162
F1.0
sbag0
(g5335
g2
Ntp5348
Rp5349
(dp5350
g66
g179
sg4790
(dp5351
g860
Nsg1391
g696
sg861
Nssg1165
Nsg79
I46
sg4791
g62
sg1162
F1.0
sbag0
(g5335
g2
Ntp5352
Rp5353
(dp5354
g66
g181
sg4790
(dp5355
g860
Nsg1391
g699
sg861
Nssg1165
Nsg79
I47
sg4791
g62
sg1162
F1.0
sbag0
(g5335
g2
Ntp5356
Rp5357
(dp5358
g66
g183
sg4790
(dp5359
g860
Nsg1391
g702
sg861
Nssg1165
Nsg79
I48
sg4791
g62
sg1162
F1.0
sbag0
(g5335
g2
Ntp5360
Rp5361
(dp5362
g66
g185
sg4790
(dp5363
g860
Nsg1391
g705
sg861
Nssg1165
Nsg79
I49
sg4791
g62
sg1162
F1.0
sbag0
(g5335
g2
Ntp5364
Rp5365
(dp5366
g66
g187
sg4790
(dp5367
g860
Nsg1391
g708
sg861
Nssg1165
Nsg79
I50
sg4791
g62
sg1162
F1.0
sbag0
(g5335
g2
Ntp5368
Rp5369
(dp5370
g66
g189
sg4790
(dp5371
g860
Nsg1391
g711
sg861
Nssg1165
Nsg79
I51
sg4791
g62
sg1162
F1.0
sbag0
(g5335
g2
Ntp5372
Rp5373
(dp5374
g66
g191
sg4790
(dp5375
g860
Nsg1391
g714
sg861
Nssg1165
Nsg79
I52
sg4791
g62
sg1162
F1.0
sbag0
(g5335
g2
Ntp5376
Rp5377
(dp5378
g66
g193
sg4790
(dp5379
g860
Nsg1391
g717
sg861
Nssg1165
Nsg79
I53
sg4791
g62
sg1162
F1.0
sbag0
(g5335
g2
Ntp5380
Rp5381
(dp5382
g66
g195
sg4790
(dp5383
g860
Nsg1391
g720
sg861
Nssg1165
Nsg79
I54
sg4791
g62
sg1162
F1.0
sbag0
(g5335
g2
Ntp5384
Rp5385
(dp5386
g66
g197
sg4790
(dp5387
g860
Nsg1391
g723
sg861
Nssg1165
Nsg79
I55
sg4791
g62
sg1162
F1.0
sbag0
(g5335
g2
Ntp5388
Rp5389
(dp5390
g66
g199
sg4790
(dp5391
g860
Nsg1391
g726
sg861
Nssg1165
Nsg79
I56
sg4791
g62
sg1162
F1.0
sbag0
(g5335
g2
Ntp5392
Rp5393
(dp5394
g66
g201
sg4790
(dp5395
g860
Nsg1391
g729
sg861
Nssg1165
Nsg79
I57
sg4791
g62
sg1162
F1.0
sbag0
(g5335
g2
Ntp5396
Rp5397
(dp5398
g66
g203
sg4790
(dp5399
g860
Nsg1391
g732
sg861
Nssg1165
Nsg79
I58
sg4791
g62
sg1162
F1.0
sbag0
(g5335
g2
Ntp5400
Rp5401
(dp5402
g66
g205
sg4790
(dp5403
g860
Nsg1391
g735
sg861
Nssg1165
Nsg79
I59
sg4791
g62
sg1162
F1.0
sbag0
(g5335
g2
Ntp5404
Rp5405
(dp5406
g66
g207
sg4790
(dp5407
g860
Nsg1391
g738
sg861
Nssg1165
Nsg79
I60
sg4791
g62
sg1162
F1.0
sbag0
(g5196
g2
Ntp5408
Rp5409
(dp5410
g66
g209
sg4790
(dp5411
g1391
g741
ssg1165
Nsg79
I61
sg4791
g62
sg1162
F1.0
sbag0
(clanguage_schemas
CPT_ENTITY_SCHEMA
p5412
g2
Ntp5413
Rp5414
(dp5415
g66
g211
sg4790
(dp5416
g1391
g744
ssg1165
Nsg79
I62
sg4791
g62
sg1162
F1.0
sbag0
(g5412
g2
Ntp5417
Rp5418
(dp5419
g66
g213
sg4790
(dp5420
g1391
g747
ssg1165
Nsg79
I63
sg4791
g62
sg1162
F1.0
sbag0
(g5412
g2
Ntp5421
Rp5422
(dp5423
g66
g215
sg4790
(dp5424
g1391
g750
ssg1165
Nsg79
I64
sg4791
g62
sg1162
F1.0
sbag0
(g5412
g2
Ntp5425
Rp5426
(dp5427
g66
g217
sg4790
(dp5428
g1391
g753
ssg1165
Nsg79
I65
sg4791
g62
sg1162
F1.0
sbag0
(g5412
g2
Ntp5429
Rp5430
(dp5431
g66
g219
sg4790
(dp5432
g1391
g756
ssg1165
Nsg79
I66
sg4791
g62
sg1162
F1.0
sbag0
(g5412
g2
Ntp5433
Rp5434
(dp5435
g66
g221
sg4790
(dp5436
g1391
g759
ssg1165
Nsg79
I67
sg4791
g62
sg1162
F1.0
sbag0
(g5412
g2
Ntp5437
Rp5438
(dp5439
g66
g223
sg4790
(dp5440
g1391
g762
ssg1165
Nsg79
I68
sg4791
g62
sg1162
F1.0
sbag0
(g5412
g2
Ntp5441
Rp5442
(dp5443
g66
g225
sg4790
(dp5444
g1391
g765
ssg1165
Nsg79
I69
sg4791
g62
sg1162
F1.0
sbag0
(g5412
g2
Ntp5445
Rp5446
(dp5447
g66
g227
sg4790
(dp5448
g1391
g768
ssg1165
Nsg79
I70
sg4791
g62
sg1162
F1.0
sbag0
(g5412
g2
Ntp5449
Rp5450
(dp5451
g66
g229
sg4790
(dp5452
g1391
g771
ssg1165
Nsg79
I71
sg4791
g62
sg1162
F1.0
sbag0
(g5412
g2
Ntp5453
Rp5454
(dp5455
g66
g231
sg4790
(dp5456
g1391
g774
ssg1165
Nsg79
I72
sg4791
g62
sg1162
F1.0
sbag0
(g5412
g2
Ntp5457
Rp5458
(dp5459
g66
g233
sg4790
(dp5460
g1391
g777
ssg1165
Nsg79
I73
sg4791
g62
sg1162
F1.0
sbag0
(g5412
g2
Ntp5461
Rp5462
(dp5463
g66
g235
sg4790
(dp5464
g1391
g780
ssg1165
Nsg79
I74
sg4791
g62
sg1162
F1.0
sbag0
(g5412
g2
Ntp5465
Rp5466
(dp5467
g66
g237
sg4790
(dp5468
g1391
g783
ssg1165
Nsg79
I75
sg4791
g62
sg1162
F1.0
sbag0
(g5412
g2
Ntp5469
Rp5470
(dp5471
g66
g239
sg4790
(dp5472
g1391
g786
ssg1165
Nsg79
I76
sg4791
g62
sg1162
F1.0
sbag0
(g5412
g2
Ntp5473
Rp5474
(dp5475
g66
g241
sg4790
(dp5476
g1391
g789
ssg1165
Nsg79
I77
sg4791
g62
sg1162
F1.0
sbag0
(g5412
g2
Ntp5477
Rp5478
(dp5479
g66
g243
sg4790
(dp5480
g1391
g792
ssg1165
Nsg79
I78
sg4791
g62
sg1162
F1.0
sbag0
(g5412
g2
Ntp5481
Rp5482
(dp5483
g66
g245
sg4790
(dp5484
g1391
g795
ssg1165
Nsg79
I79
sg4791
g62
sg1162
F1.0
sbag0
(g5412
g2
Ntp5485
Rp5486
(dp5487
g66
g247
sg4790
(dp5488
g1391
g798
ssg1165
Nsg79
I80
sg4791
g62
sg1162
F1.0
sbag0
(g5412
g2
Ntp5489
Rp5490
(dp5491
g66
g249
sg4790
(dp5492
g1391
g801
ssg1165
Nsg79
I81
sg4791
g62
sg1162
F1.0
sbag0
(g5412
g2
Ntp5493
Rp5494
(dp5495
g66
g251
sg4790
(dp5496
g1391
g804
ssg1165
Nsg79
I82
sg4791
g62
sg1162
F1.0
sbag0
(g5412
g2
Ntp5497
Rp5498
(dp5499
g66
g253
sg4790
(dp5500
g1391
g807
ssg1165
Nsg79
I83
sg4791
g62
sg1162
F1.0
sbag0
(g5412
g2
Ntp5501
Rp5502
(dp5503
g66
g255
sg4790
(dp5504
g1391
g810
ssg1165
Nsg79
I84
sg4791
g62
sg1162
F1.0
sbag0
(g5412
g2
Ntp5505
Rp5506
(dp5507
g66
g257
sg4790
(dp5508
g1391
g813
ssg1165
Nsg79
I85
sg4791
g62
sg1162
F1.0
sbag0
(g5412
g2
Ntp5509
Rp5510
(dp5511
g66
g259
sg4790
(dp5512
g1391
g816
ssg1165
Nsg79
I86
sg4791
g62
sg1162
F1.0
sbag0
(g5412
g2
Ntp5513
Rp5514
(dp5515
g66
g261
sg4790
(dp5516
g1391
g819
ssg1165
Nsg79
I87
sg4791
g62
sg1162
F1.0
sbag0
(g5412
g2
Ntp5517
Rp5518
(dp5519
g66
g263
sg4790
(dp5520
g1391
g822
ssg1165
Nsg79
I88
sg4791
g62
sg1162
F1.0
sbag0
(g5412
g2
Ntp5521
Rp5522
(dp5523
g66
g265
sg4790
(dp5524
g1391
g825
ssg1165
Nsg79
I89
sg4791
g62
sg1162
F1.0
sbag0
(g5412
g2
Ntp5525
Rp5526
(dp5527
g66
g267
sg4790
(dp5528
g1391
g828
ssg1165
Nsg79
I90
sg4791
g62
sg1162
F1.0
sbag0
(g5412
g2
Ntp5529
Rp5530
(dp5531
g66
g269
sg4790
(dp5532
g1391
g831
ssg1165
Nsg79
I91
sg4791
g62
sg1162
F1.0
sbag0
(g5412
g2
Ntp5533
Rp5534
(dp5535
g66
g271
sg4790
(dp5536
g1391
g834
ssg1165
Nsg79
I92
sg4791
g62
sg1162
F1.0
sbag0
(g5412
g2
Ntp5537
Rp5538
(dp5539
g66
g273
sg4790
(dp5540
g1391
g837
ssg1165
Nsg79
I93
sg4791
g62
sg1162
F1.0
sbag0
(g5412
g2
Ntp5541
Rp5542
(dp5543
g66
g275
sg4790
(dp5544
g1391
g840
ssg1165
Nsg79
I94
sg4791
g62
sg1162
F1.0
sbag0
(g5412
g2
Ntp5545
Rp5546
(dp5547
g66
g277
sg4790
(dp5548
g1391
g843
ssg1165
Nsg79
I95
sg4791
g62
sg1162
F1.0
sbag0
(g5412
g2
Ntp5549
Rp5550
(dp5551
g66
g279
sg4790
(dp5552
g1391
g846
ssg1165
Nsg79
I96
sg4791
g62
sg1162
F1.0
sbag0
(g5412
g2
Ntp5553
Rp5554
(dp5555
g66
g281
sg4790
(dp5556
g1391
g849
ssg1165
Nsg79
I97
sg4791
g62
sg1162
F1.0
sbag0
(g5412
g2
Ntp5557
Rp5558
(dp5559
g66
g283
sg4790
(dp5560
g1391
g852
ssg1165
Nsg79
I98
sg4791
g62
sg1162
F1.0
sbasbsbsb.