ccopy_reg
_reconstructor
p0
(clanguage_schemas
SEM_GENERATOR
p1
c__builtin__
object
p2
Ntp3
Rp4
(dp5
S'sem_inputs'
p6
(dp7
S'{}'
p8
(dp9
Vtiming
p10
(lp11
F0.0
aF100.0
aF200.0
aF300.0
asVsem_rate
p12
I1
sVpropositions
p13
(dp14
VKICK_AREA
p15
(lp16
VACTION(a1,F)
p17
aVKICK(kick)
p18
aVIS(is4)
p19
aVis4(a1, kick)
p20
asVWOMAN_AREA
p21
(lp22
VENTITY(e1,F)
p23
aVWOMAN(woman)
p24
aVIS(is1)
p25
aVis1(e1, woman)
p26
asVACTION_AREA
p27
(lp28
VEVENT(evt1,F)
p29
aVIS(is3)
p30
aVis3(evt1,a1)
p31
aVAGENT(agt)
p32
aVPATIENT(pt)
p33
aVagt(a1, e2)
p34
aVpt(a1, e1)
p35
asVGIRL_AREA
p36
(lp37
VENTITY(e2,F)
p38
aVGIRL(girl)
p39
aVIS(is2)
p40
aVis2(e2, girl)
p41
assVcomments
p42
VEasy objects, hard action, agent cued, patient lexical competition
p43
sVsequence
p44
(lp45
VGIRL_AREA
p46
aVWOMAN_AREA
p47
aVKICK_AREA
p48
aVACTION_AREA
p49
asssS'is_macro'
p50
I01
sS'ground_truths'
p51
NsS'speed_param'
p52
I100
sS'interpreter'
p53
g0
(clanguage_schemas
ISRF_INTERPRETER
p54
g2
Ntp55
Rp56
(dp57
S'name_table'
p58
(dp59
sS'conceptLTM'
p60
g0
(clanguage_schemas
CONCEPT_LTM
p61
g2
Ntp62
Rp63
(dp64
S'inputs'
p65
(dp66
sS'name'
p67
S'Concept_LTM'
p68
sS'out_ports'
p69
(lp70
g0
(cschema_theory
PORT
p71
g2
Ntp72
Rp73
(dp74
g67
S'to_conceptualizer'
p75
sS'data'
p76
NsS'value'
p77
(lp78
g0
(clanguage_schemas
CPT_EVENT_SCHEMA
p79
g2
Ntp80
Rp81
(dp82
g67
S'?'
p83
sS'content'
p84
(dp85
S'concept'
p86
g0
(cconcept
CONCEPT
p87
g2
Ntp88
Rp89
(dp90
S'meaning'
p91
g83
sS'conceptual_knowledge'
p92
g0
(cconcept
CONCEPTUAL_KNOWLEDGE
p93
g2
Ntp94
Rp95
(dp96
S'graph'
p97
g0
(cnetworkx.classes.digraph
DiGraph
p98
g2
Ntp99
Rp100
(dp101
S'node'
p102
(dp103
I1
(dp104
g91
g83
ssI2
(dp105
g91
S'CONCEPT'
p106
ssI3
(dp107
g91
VACTION
p108
ssI4
(dp109
g91
VSYMMETRIC
p110
ssI5
(dp111
g91
VMEET
p112
ssI6
(dp113
g91
VSHAKE_HANDS
p114
ssI7
(dp115
g91
VINTRANSITIVE
p116
ssI8
(dp117
g91
VLAUGH
p118
ssI9
(dp119
g91
VTRANSITIVE
p120
ssI10
(dp121
g91
VHIT
p122
ssI11
(dp123
g91
VWATCH
p124
ssI12
(dp125
g91
VPUNCH
p126
ssI13
(dp127
g91
VSPLASH
p128
ssI14
(dp129
g91
VTALK
p130
ssI15
(dp131
g91
VKISS
p132
ssI16
(dp133
g91
VSQUIRT
p134
ssI17
(dp135
g91
VKICK
p136
ssI18
(dp137
g91
VWEAR
p138
ssI19
(dp139
g91
VDITRANSITIVE
p140
ssI20
(dp141
g91
VSEND
p142
ssI21
(dp143
g91
VGIVE
p144
ssI22
(dp145
g91
VPROPERTY
p146
ssI23
(dp147
g91
VCOLOR
p148
ssI24
(dp149
g91
VBLUE
p150
ssI25
(dp151
g91
VGREEN
p152
ssI26
(dp153
g91
VWHITE
p154
ssI27
(dp155
g91
VBLACK
p156
ssI28
(dp157
g91
VRED
p158
ssI29
(dp159
g91
VAPPEARANCE
p160
ssI30
(dp161
g91
VYOUNG
p162
ssI31
(dp163
g91
VPRETTY
p164
ssI32
(dp165
g91
VHANDSOME
p166
ssI33
(dp167
g91
VSIZE
p168
ssI34
(dp169
g91
VSMALL
p170
ssI35
(dp171
g91
VBIG
p172
ssI36
(dp173
g91
VRELATION
p174
ssI37
(dp175
g91
VACTION_FRAME
p176
ssI38
(dp177
g91
VMODIFY
p178
ssI39
(dp179
g91
VTHEME
p180
ssI40
(dp181
g91
VRECIPIENT
p182
ssI41
(dp183
g91
VATTR
p184
ssI42
(dp185
g91
VAGT_PT
p186
ssI43
(dp187
g91
VPATIENT
p188
ssI44
(dp189
g91
VAGT+PT
p190
ssI45
(dp191
g91
VAGENT
p192
ssI46
(dp193
g91
VEVENT_FRAME
p194
ssI47
(dp195
g91
VTEMPORAL
p196
ssI48
(dp197
g91
VCONCURRENT
p198
ssI49
(dp199
g91
VSUCCESSIVE
p200
ssI50
(dp201
g91
VSPATIAL
p202
ssI51
(dp203
g91
VIN
p204
ssI52
(dp205
g91
VIS
p206
ssI53
(dp207
g91
VOBJECT_FRAME
p208
ssI54
(dp209
g91
VEVENT
p210
ssI55
(dp211
g91
VENTITY
p212
ssI56
(dp213
g91
VANIMATE
p214
ssI57
(dp215
g91
VANIMAL
p216
ssI58
(dp217
g91
VHUMAN
p218
ssI59
(dp219
g91
VOBJECT
p220
ssI60
(dp221
g91
VITEM
p222
ssI61
(dp223
g91
VWAGON
p224
ssI62
(dp225
g91
VWATERING_CAN
p226
ssI63
(dp227
g91
VBAG
p228
ssI64
(dp229
g91
VTREE
p230
ssI65
(dp231
g91
VHOOK
p232
ssI66
(dp233
g91
VCELLO
p234
ssI67
(dp235
g91
VBOOKSHELF
p236
ssI68
(dp237
g91
VCLOTHING
p238
ssI69
(dp239
g91
VTSHIRT
p240
ssI70
(dp241
g91
VDRESS
p242
ssI71
(dp243
g91
VSHIRT
p244
ssI72
(dp245
g91
VSUIT
p246
ssI73
(dp247
g91
VTURTLE
p248
ssI74
(dp249
g91
VMOUSE
p250
ssI75
(dp251
g91
VDOG
p252
ssI76
(dp253
g91
VBOY
p254
ssI77
(dp255
g91
VWOMAN
p256
ssI78
(dp257
g91
VPEOPLE
p258
ssI79
(dp259
g91
VPOLICEMAN
p260
ssI80
(dp261
g91
VHUNTER
p262
ssI81
(dp263
g91
VBALLERINA
p264
ssI82
(dp265
g91
VCELLIST
p266
ssI83
(dp267
g91
VGIRL
p268
ssI84
(dp269
g91
VFENCER
p270
ssI85
(dp271
g91
VROBBER
p272
ssI86
(dp273
g91
VMAN
p274
ssI87
(dp275
g91
VPLACE
p276
ssI88
(dp277
g91
VBOXINGRING
p278
ssI89
(dp279
g91
VPARK
p280
ssI90
(dp281
g91
VMALE
p282
ssI91
(dp283
g91
VFEMALE
p284
sssS'node_dict_factory'
p285
c__builtin__
dict
p286
sS'edge_attr_dict_factory'
p287
g286
sS'succ'
p288
(dp289
I1
(dp290
sI2
(dp291
sI3
(dp292
I2
(dp293
S'type'
p294
S'is_a'
p295
sssI4
(dp296
I3
(dp297
g294
g295
sssI5
(dp298
I4
(dp299
g294
g295
sssI6
(dp300
I4
(dp301
g294
g295
sssI7
(dp302
I3
(dp303
g294
g295
sssI8
(dp304
I7
(dp305
g294
g295
sssI9
(dp306
I3
(dp307
g294
g295
sssI10
(dp308
I9
(dp309
g294
g295
sssI11
(dp310
I9
(dp311
g294
g295
sssI12
(dp312
I9
(dp313
g294
g295
sssI13
(dp314
I9
(dp315
g294
g295
sssI14
(dp316
I9
(dp317
g294
g295
sssI15
(dp318
I9
(dp319
g294
g295
sssI16
(dp320
I9
(dp321
g294
g295
sssI17
(dp322
I9
(dp323
g294
g295
sssI18
(dp324
I9
(dp325
g294
g295
sssI19
(dp326
I3
(dp327
g294
g295
sssI20
(dp328
I19
(dp329
g294
g295
sssI21
(dp330
I19
(dp331
g294
g295
sssI22
(dp332
I2
(dp333
g294
g295
sssI23
(dp334
I22
(dp335
g294
g295
sssI24
(dp336
I23
(dp337
g294
g295
sssI25
(dp338
I23
(dp339
g294
g295
sssI26
(dp340
I23
(dp341
g294
g295
sssI27
(dp342
I23
(dp343
g294
g295
sssI28
(dp344
I23
(dp345
g294
g295
sssI29
(dp346
I22
(dp347
g294
g295
sssI30
(dp348
I29
(dp349
g294
g295
sssI31
(dp350
I29
(dp351
g294
g295
sssI32
(dp352
I29
(dp353
g294
g295
sssI33
(dp354
I22
(dp355
g294
g295
sssI34
(dp356
I33
(dp357
g294
g295
sssI35
(dp358
I33
(dp359
g294
g295
sssI36
(dp360
I2
(dp361
g294
g295
sssI37
(dp362
I36
(dp363
g294
g295
sssI38
(dp364
I37
(dp365
g294
g295
ssI53
(dp366
g294
g295
sssI39
(dp367
I37
(dp368
g294
g295
sssI40
(dp369
I37
(dp370
g294
g295
sssI41
(dp371
I37
(dp372
g294
g295
ssI53
(dp373
g294
g295
sssI42
(dp374
I37
(dp375
g294
g295
sssI43
(dp376
I42
(dp377
g294
g295
sssI44
(dp378
I43
(dp379
g294
g295
ssI45
(dp380
g294
g295
sssI45
(dp381
I42
(dp382
g294
g295
sssI46
(dp383
I36
(dp384
g294
g295
sssI47
(dp385
I46
(dp386
g294
g295
sssI48
(dp387
I47
(dp388
g294
g295
sssI49
(dp389
I47
(dp390
g294
g295
sssI50
(dp391
I46
(dp392
g294
g295
sssI51
(dp393
I50
(dp394
g294
g295
sssI52
(dp395
I36
(dp396
g294
g295
sssI53
(dp397
I36
(dp398
g294
g295
sssI54
(dp399
I2
(dp400
g294
g295
sssI55
(dp401
I2
(dp402
g294
g295
sssI56
(dp403
I55
(dp404
g294
g295
sssI57
(dp405
I56
(dp406
g294
g295
ssI59
(dp407
g294
g295
sssI58
(dp408
I56
(dp409
g294
g295
ssI59
(dp410
g294
g295
sssI59
(dp411
I55
(dp412
g294
g295
sssI60
(dp413
I59
(dp414
g294
g295
sssI61
(dp415
I60
(dp416
g294
g295
sssI62
(dp417
I60
(dp418
g294
g295
sssI63
(dp419
I60
(dp420
g294
g295
sssI64
(dp421
I60
(dp422
g294
g295
sssI65
(dp423
I60
(dp424
g294
g295
sssI66
(dp425
I60
(dp426
g294
g295
sssI67
(dp427
I60
(dp428
g294
g295
sssI68
(dp429
I60
(dp430
g294
g295
sssI69
(dp431
I68
(dp432
g294
g295
sssI70
(dp433
I68
(dp434
g294
g295
sssI71
(dp435
I68
(dp436
g294
g295
sssI72
(dp437
I68
(dp438
g294
g295
sssI73
(dp439
I57
(dp440
g294
g295
sssI74
(dp441
I57
(dp442
g294
g295
sssI75
(dp443
I57
(dp444
g294
g295
sssI76
(dp445
I58
(dp446
g294
g295
ssI90
(dp447
g294
g295
sssI77
(dp448
I58
(dp449
g294
g295
ssI91
(dp450
g294
g295
sssI78
(dp451
I58
(dp452
g294
g295
sssI79
(dp453
I58
(dp454
g294
g295
sssI80
(dp455
I58
(dp456
g294
g295
sssI81
(dp457
I58
(dp458
g294
g295
ssI91
(dp459
g294
g295
sssI82
(dp460
I58
(dp461
g294
g295
sssI83
(dp462
I58
(dp463
g294
g295
ssI91
(dp464
g294
g295
sssI84
(dp465
I58
(dp466
g294
g295
sssI85
(dp467
I58
(dp468
g294
g295
sssI86
(dp469
I58
(dp470
g294
g295
ssI90
(dp471
g294
g295
sssI87
(dp472
I55
(dp473
g294
g295
sssI88
(dp474
I87
(dp475
g294
g295
sssI89
(dp476
I87
(dp477
g294
g295
sssI90
(dp478
I55
(dp479
g294
g295
sssI91
(dp480
I55
(dp481
g294
g295
ssssS'edge'
p482
g289
sg97
(dp483
sS'adjlist_dict_factory'
p484
g286
sS'adj'
p485
g289
sS'pred'
p486
(dp487
I1
(dp488
sI2
(dp489
I3
g293
sI36
g361
sI54
g400
sI22
g333
sI55
g402
ssI3
(dp490
I9
g307
sI19
g327
sI4
g297
sI7
g303
ssI4
(dp491
I5
g299
sI6
g301
ssI5
(dp492
sI6
(dp493
sI7
(dp494
I8
g305
ssI8
(dp495
sI9
(dp496
I10
g309
sI11
g311
sI12
g313
sI13
g315
sI14
g317
sI15
g319
sI16
g321
sI17
g323
sI18
g325
ssI10
(dp497
sI11
(dp498
sI12
(dp499
sI13
(dp500
sI14
(dp501
sI15
(dp502
sI16
(dp503
sI17
(dp504
sI18
(dp505
sI19
(dp506
I20
g329
sI21
g331
ssI20
(dp507
sI21
(dp508
sI22
(dp509
I33
g355
sI29
g347
sI23
g335
ssI23
(dp510
I24
g337
sI25
g339
sI26
g341
sI27
g343
sI28
g345
ssI24
(dp511
sI25
(dp512
sI26
(dp513
sI27
(dp514
sI28
(dp515
sI29
(dp516
I32
g353
sI30
g349
sI31
g351
ssI30
(dp517
sI31
(dp518
sI32
(dp519
sI33
(dp520
I34
g357
sI35
g359
ssI34
(dp521
sI35
(dp522
sI36
(dp523
I52
g396
sI37
g363
sI46
g384
sI53
g398
ssI37
(dp524
I40
g370
sI41
g372
sI42
g375
sI38
g365
sI39
g368
ssI38
(dp525
sI39
(dp526
sI40
(dp527
sI41
(dp528
sI42
(dp529
I43
g377
sI45
g382
ssI43
(dp530
I44
g379
ssI44
(dp531
sI45
(dp532
I44
g380
ssI46
(dp533
I50
g392
sI47
g386
ssI47
(dp534
I48
g388
sI49
g390
ssI48
(dp535
sI49
(dp536
sI50
(dp537
I51
g394
ssI51
(dp538
sI52
(dp539
sI53
(dp540
I41
g373
sI38
g366
ssI54
(dp541
sI55
(dp542
I56
g404
sI91
g481
sI90
g479
sI59
g412
sI87
g473
ssI56
(dp543
I57
g406
sI58
g409
ssI57
(dp544
I73
g440
sI74
g442
sI75
g444
ssI58
(dp545
I76
g446
sI77
g449
sI78
g452
sI79
g454
sI80
g456
sI81
g458
sI82
g461
sI83
g463
sI84
g466
sI85
g468
sI86
g470
ssI59
(dp546
I57
g407
sI58
g410
sI60
g414
ssI60
(dp547
I64
g422
sI65
g424
sI66
g426
sI67
g428
sI68
g430
sI61
g416
sI62
g418
sI63
g420
ssI61
(dp548
sI62
(dp549
sI63
(dp550
sI64
(dp551
sI65
(dp552
sI66
(dp553
sI67
(dp554
sI68
(dp555
I72
g438
sI69
g432
sI70
g434
sI71
g436
ssI69
(dp556
sI70
(dp557
sI71
(dp558
sI72
(dp559
sI73
(dp560
sI74
(dp561
sI75
(dp562
sI76
(dp563
sI77
(dp564
sI78
(dp565
sI79
(dp566
sI80
(dp567
sI81
(dp568
sI82
(dp569
sI83
(dp570
sI84
(dp571
sI85
(dp572
sI86
(dp573
sI87
(dp574
I88
g475
sI89
g477
ssI88
(dp575
sI89
(dp576
sI90
(dp577
I76
g447
sI86
g471
ssI91
(dp578
I81
g459
sI83
g464
sI77
g450
sssbsS'nodes'
p579
(lp580
g89
ag0
(g87
g2
Ntp581
Rp582
(dp583
g91
g106
sg92
g95
sS'id'
p584
I2
sg67
g106
sbag0
(g87
g2
Ntp585
Rp586
(dp587
g91
g108
sg92
g95
sg584
I3
sg67
g108
sbag0
(g87
g2
Ntp588
Rp589
(dp590
g91
g110
sg92
g95
sg584
I4
sg67
g110
sbag0
(g87
g2
Ntp591
Rp592
(dp593
g91
g112
sg92
g95
sg584
I5
sg67
g112
sbag0
(g87
g2
Ntp594
Rp595
(dp596
g91
g114
sg92
g95
sg584
I6
sg67
g114
sbag0
(g87
g2
Ntp597
Rp598
(dp599
g91
g116
sg92
g95
sg584
I7
sg67
g116
sbag0
(g87
g2
Ntp600
Rp601
(dp602
g91
g118
sg92
g95
sg584
I8
sg67
g118
sbag0
(g87
g2
Ntp603
Rp604
(dp605
g91
g120
sg92
g95
sg584
I9
sg67
g120
sbag0
(g87
g2
Ntp606
Rp607
(dp608
g91
g122
sg92
g95
sg584
I10
sg67
g122
sbag0
(g87
g2
Ntp609
Rp610
(dp611
g91
g124
sg92
g95
sg584
I11
sg67
g124
sbag0
(g87
g2
Ntp612
Rp613
(dp614
g91
g126
sg92
g95
sg584
I12
sg67
g126
sbag0
(g87
g2
Ntp615
Rp616
(dp617
g91
g128
sg92
g95
sg584
I13
sg67
g128
sbag0
(g87
g2
Ntp618
Rp619
(dp620
g91
g130
sg92
g95
sg584
I14
sg67
g130
sbag0
(g87
g2
Ntp621
Rp622
(dp623
g91
g132
sg92
g95
sg584
I15
sg67
g132
sbag0
(g87
g2
Ntp624
Rp625
(dp626
g91
g134
sg92
g95
sg584
I16
sg67
g134
sbag0
(g87
g2
Ntp627
Rp628
(dp629
g91
g136
sg92
g95
sg584
I17
sg67
g136
sbag0
(g87
g2
Ntp630
Rp631
(dp632
g91
g138
sg92
g95
sg584
I18
sg67
g138
sbag0
(g87
g2
Ntp633
Rp634
(dp635
g91
g140
sg92
g95
sg584
I19
sg67
g140
sbag0
(g87
g2
Ntp636
Rp637
(dp638
g91
g142
sg92
g95
sg584
I20
sg67
g142
sbag0
(g87
g2
Ntp639
Rp640
(dp641
g91
g144
sg92
g95
sg584
I21
sg67
g144
sbag0
(g87
g2
Ntp642
Rp643
(dp644
g91
g146
sg92
g95
sg584
I22
sg67
g146
sbag0
(g87
g2
Ntp645
Rp646
(dp647
g91
g148
sg92
g95
sg584
I23
sg67
g148
sbag0
(g87
g2
Ntp648
Rp649
(dp650
g91
g150
sg92
g95
sg584
I24
sg67
g150
sbag0
(g87
g2
Ntp651
Rp652
(dp653
g91
g152
sg92
g95
sg584
I25
sg67
g152
sbag0
(g87
g2
Ntp654
Rp655
(dp656
g91
g154
sg92
g95
sg584
I26
sg67
g154
sbag0
(g87
g2
Ntp657
Rp658
(dp659
g91
g156
sg92
g95
sg584
I27
sg67
g156
sbag0
(g87
g2
Ntp660
Rp661
(dp662
g91
g158
sg92
g95
sg584
I28
sg67
g158
sbag0
(g87
g2
Ntp663
Rp664
(dp665
g91
g160
sg92
g95
sg584
I29
sg67
g160
sbag0
(g87
g2
Ntp666
Rp667
(dp668
g91
g162
sg92
g95
sg584
I30
sg67
g162
sbag0
(g87
g2
Ntp669
Rp670
(dp671
g91
g164
sg92
g95
sg584
I31
sg67
g164
sbag0
(g87
g2
Ntp672
Rp673
(dp674
g91
g166
sg92
g95
sg584
I32
sg67
g166
sbag0
(g87
g2
Ntp675
Rp676
(dp677
g91
g168
sg92
g95
sg584
I33
sg67
g168
sbag0
(g87
g2
Ntp678
Rp679
(dp680
g91
g170
sg92
g95
sg584
I34
sg67
g170
sbag0
(g87
g2
Ntp681
Rp682
(dp683
g91
g172
sg92
g95
sg584
I35
sg67
g172
sbag0
(g87
g2
Ntp684
Rp685
(dp686
g91
g174
sg92
g95
sg584
I36
sg67
g174
sbag0
(g87
g2
Ntp687
Rp688
(dp689
g91
g176
sg92
g95
sg584
I37
sg67
g176
sbag0
(g87
g2
Ntp690
Rp691
(dp692
g91
g178
sg92
g95
sg584
I38
sg67
g178
sbag0
(g87
g2
Ntp693
Rp694
(dp695
g91
g180
sg92
g95
sg584
I39
sg67
g180
sbag0
(g87
g2
Ntp696
Rp697
(dp698
g91
g182
sg92
g95
sg584
I40
sg67
g182
sbag0
(g87
g2
Ntp699
Rp700
(dp701
g91
g184
sg92
g95
sg584
I41
sg67
g184
sbag0
(g87
g2
Ntp702
Rp703
(dp704
g91
g186
sg92
g95
sg584
I42
sg67
g186
sbag0
(g87
g2
Ntp705
Rp706
(dp707
g91
g188
sg92
g95
sg584
I43
sg67
g188
sbag0
(g87
g2
Ntp708
Rp709
(dp710
g91
g190
sg92
g95
sg584
I44
sg67
g190
sbag0
(g87
g2
Ntp711
Rp712
(dp713
g91
g192
sg92
g95
sg584
I45
sg67
g192
sbag0
(g87
g2
Ntp714
Rp715
(dp716
g91
g194
sg92
g95
sg584
I46
sg67
g194
sbag0
(g87
g2
Ntp717
Rp718
(dp719
g91
g196
sg92
g95
sg584
I47
sg67
g196
sbag0
(g87
g2
Ntp720
Rp721
(dp722
g91
g198
sg92
g95
sg584
I48
sg67
g198
sbag0
(g87
g2
Ntp723
Rp724
(dp725
g91
g200
sg92
g95
sg584
I49
sg67
g200
sbag0
(g87
g2
Ntp726
Rp727
(dp728
g91
g202
sg92
g95
sg584
I50
sg67
g202
sbag0
(g87
g2
Ntp729
Rp730
(dp731
g91
g204
sg92
g95
sg584
I51
sg67
g204
sbag0
(g87
g2
Ntp732
Rp733
(dp734
g91
g206
sg92
g95
sg584
I52
sg67
g206
sbag0
(g87
g2
Ntp735
Rp736
(dp737
g91
g208
sg92
g95
sg584
I53
sg67
g208
sbag0
(g87
g2
Ntp738
Rp739
(dp740
g91
g210
sg92
g95
sg584
I54
sg67
g210
sbag0
(g87
g2
Ntp741
Rp742
(dp743
g91
g212
sg92
g95
sg584
I55
sg67
g212
sbag0
(g87
g2
Ntp744
Rp745
(dp746
g91
g214
sg92
g95
sg584
I56
sg67
g214
sbag0
(g87
g2
Ntp747
Rp748
(dp749
g91
g216
sg92
g95
sg584
I57
sg67
g216
sbag0
(g87
g2
Ntp750
Rp751
(dp752
g91
g218
sg92
g95
sg584
I58
sg67
g218
sbag0
(g87
g2
Ntp753
Rp754
(dp755
g91
g220
sg92
g95
sg584
I59
sg67
g220
sbag0
(g87
g2
Ntp756
Rp757
(dp758
g91
g222
sg92
g95
sg584
I60
sg67
g222
sbag0
(g87
g2
Ntp759
Rp760
(dp761
g91
g224
sg92
g95
sg584
I61
sg67
g224
sbag0
(g87
g2
Ntp762
Rp763
(dp764
g91
g226
sg92
g95
sg584
I62
sg67
g226
sbag0
(g87
g2
Ntp765
Rp766
(dp767
g91
g228
sg92
g95
sg584
I63
sg67
g228
sbag0
(g87
g2
Ntp768
Rp769
(dp770
g91
g230
sg92
g95
sg584
I64
sg67
g230
sbag0
(g87
g2
Ntp771
Rp772
(dp773
g91
g232
sg92
g95
sg584
I65
sg67
g232
sbag0
(g87
g2
Ntp774
Rp775
(dp776
g91
g234
sg92
g95
sg584
I66
sg67
g234
sbag0
(g87
g2
Ntp777
Rp778
(dp779
g91
g236
sg92
g95
sg584
I67
sg67
g236
sbag0
(g87
g2
Ntp780
Rp781
(dp782
g91
g238
sg92
g95
sg584
I68
sg67
g238
sbag0
(g87
g2
Ntp783
Rp784
(dp785
g91
g240
sg92
g95
sg584
I69
sg67
g240
sbag0
(g87
g2
Ntp786
Rp787
(dp788
g91
g242
sg92
g95
sg584
I70
sg67
g242
sbag0
(g87
g2
Ntp789
Rp790
(dp791
g91
g244
sg92
g95
sg584
I71
sg67
g244
sbag0
(g87
g2
Ntp792
Rp793
(dp794
g91
g246
sg92
g95
sg584
I72
sg67
g246
sbag0
(g87
g2
Ntp795
Rp796
(dp797
g91
g248
sg92
g95
sg584
I73
sg67
g248
sbag0
(g87
g2
Ntp798
Rp799
(dp800
g91
g250
sg92
g95
sg584
I74
sg67
g250
sbag0
(g87
g2
Ntp801
Rp802
(dp803
g91
g252
sg92
g95
sg584
I75
sg67
g252
sbag0
(g87
g2
Ntp804
Rp805
(dp806
g91
g254
sg92
g95
sg584
I76
sg67
g254
sbag0
(g87
g2
Ntp807
Rp808
(dp809
g91
g256
sg92
g95
sg584
I77
sg67
g256
sbag0
(g87
g2
Ntp810
Rp811
(dp812
g91
g258
sg92
g95
sg584
I78
sg67
g258
sbag0
(g87
g2
Ntp813
Rp814
(dp815
g91
g260
sg92
g95
sg584
I79
sg67
g260
sbag0
(g87
g2
Ntp816
Rp817
(dp818
g91
g262
sg92
g95
sg584
I80
sg67
g262
sbag0
(g87
g2
Ntp819
Rp820
(dp821
g91
g264
sg92
g95
sg584
I81
sg67
g264
sbag0
(g87
g2
Ntp822
Rp823
(dp824
g91
g266
sg92
g95
sg584
I82
sg67
g266
sbag0
(g87
g2
Ntp825
Rp826
(dp827
g91
g268
sg92
g95
sg584
I83
sg67
g268
sbag0
(g87
g2
Ntp828
Rp829
(dp830
g91
g270
sg92
g95
sg584
I84
sg67
g270
sbag0
(g87
g2
Ntp831
Rp832
(dp833
g91
g272
sg92
g95
sg584
I85
sg67
g272
sbag0
(g87
g2
Ntp834
Rp835
(dp836
g91
g274
sg92
g95
sg584
I86
sg67
g274
sbag0
(g87
g2
Ntp837
Rp838
(dp839
g91
g276
sg92
g95
sg584
I87
sg67
g276
sbag0
(g87
g2
Ntp840
Rp841
(dp842
g91
g278
sg92
g95
sg584
I88
sg67
g278
sbag0
(g87
g2
Ntp843
Rp844
(dp845
g91
g280
sg92
g95
sg584
I89
sg67
g280
sbag0
(g87
g2
Ntp846
Rp847
(dp848
g91
g282
sg92
g95
sg584
I90
sg67
g282
sbag0
(g87
g2
Ntp849
Rp850
(dp851
g91
g284
sg92
g95
sg584
I91
sg67
g284
sbasS'edges'
p852
(lp853
g0
(cconcept
SEM_REL
p854
g2
Ntp855
Rp856
(dp857
S'pTo'
p858
g582
sg294
g295
sS'pFrom'
p859
g586
sbag0
(g854
g2
Ntp860
Rp861
(dp862
g858
g586
sg294
g295
sg859
g589
sbag0
(g854
g2
Ntp863
Rp864
(dp865
g858
g589
sg294
g295
sg859
g592
sbag0
(g854
g2
Ntp866
Rp867
(dp868
g858
g589
sg294
g295
sg859
g595
sbag0
(g854
g2
Ntp869
Rp870
(dp871
g858
g586
sg294
g295
sg859
g598
sbag0
(g854
g2
Ntp872
Rp873
(dp874
g858
g598
sg294
g295
sg859
g601
sbag0
(g854
g2
Ntp875
Rp876
(dp877
g858
g586
sg294
g295
sg859
g604
sbag0
(g854
g2
Ntp878
Rp879
(dp880
g858
g604
sg294
g295
sg859
g607
sbag0
(g854
g2
Ntp881
Rp882
(dp883
g858
g604
sg294
g295
sg859
g610
sbag0
(g854
g2
Ntp884
Rp885
(dp886
g858
g604
sg294
g295
sg859
g613
sbag0
(g854
g2
Ntp887
Rp888
(dp889
g858
g604
sg294
g295
sg859
g616
sbag0
(g854
g2
Ntp890
Rp891
(dp892
g858
g604
sg294
g295
sg859
g619
sbag0
(g854
g2
Ntp893
Rp894
(dp895
g858
g604
sg294
g295
sg859
g622
sbag0
(g854
g2
Ntp896
Rp897
(dp898
g858
g604
sg294
g295
sg859
g625
sbag0
(g854
g2
Ntp899
Rp900
(dp901
g858
g604
sg294
g295
sg859
g628
sbag0
(g854
g2
Ntp902
Rp903
(dp904
g858
g604
sg294
g295
sg859
g631
sbag0
(g854
g2
Ntp905
Rp906
(dp907
g858
g586
sg294
g295
sg859
g634
sbag0
(g854
g2
Ntp908
Rp909
(dp910
g858
g634
sg294
g295
sg859
g637
sbag0
(g854
g2
Ntp911
Rp912
(dp913
g858
g634
sg294
g295
sg859
g640
sbag0
(g854
g2
Ntp914
Rp915
(dp916
g858
g582
sg294
g295
sg859
g643
sbag0
(g854
g2
Ntp917
Rp918
(dp919
g858
g643
sg294
g295
sg859
g646
sbag0
(g854
g2
Ntp920
Rp921
(dp922
g858
g646
sg294
g295
sg859
g649
sbag0
(g854
g2
Ntp923
Rp924
(dp925
g858
g646
sg294
g295
sg859
g652
sbag0
(g854
g2
Ntp926
Rp927
(dp928
g858
g646
sg294
g295
sg859
g655
sbag0
(g854
g2
Ntp929
Rp930
(dp931
g858
g646
sg294
g295
sg859
g658
sbag0
(g854
g2
Ntp932
Rp933
(dp934
g858
g646
sg294
g295
sg859
g661
sbag0
(g854
g2
Ntp935
Rp936
(dp937
g858
g643
sg294
g295
sg859
g664
sbag0
(g854
g2
Ntp938
Rp939
(dp940
g858
g664
sg294
g295
sg859
g667
sbag0
(g854
g2
Ntp941
Rp942
(dp943
g858
g664
sg294
g295
sg859
g670
sbag0
(g854
g2
Ntp944
Rp945
(dp946
g858
g664
sg294
g295
sg859
g673
sbag0
(g854
g2
Ntp947
Rp948
(dp949
g858
g643
sg294
g295
sg859
g676
sbag0
(g854
g2
Ntp950
Rp951
(dp952
g858
g676
sg294
g295
sg859
g679
sbag0
(g854
g2
Ntp953
Rp954
(dp955
g858
g676
sg294
g295
sg859
g682
sbag0
(g854
g2
Ntp956
Rp957
(dp958
g858
g582
sg294
g295
sg859
g685
sbag0
(g854
g2
Ntp959
Rp960
(dp961
g858
g685
sg294
g295
sg859
g688
sbag0
(g854
g2
Ntp962
Rp963
(dp964
g858
g688
sg294
g295
sg859
g691
sbag0
(g854
g2
Ntp965
Rp966
(dp967
g858
g688
sg294
g295
sg859
g694
sbag0
(g854
g2
Ntp968
Rp969
(dp970
g858
g688
sg294
g295
sg859
g697
sbag0
(g854
g2
Ntp971
Rp972
(dp973
g858
g688
sg294
g295
sg859
g700
sbag0
(g854
g2
Ntp974
Rp975
(dp976
g858
g688
sg294
g295
sg859
g703
sbag0
(g854
g2
Ntp977
Rp978
(dp979
g858
g703
sg294
g295
sg859
g706
sbag0
(g854
g2
Ntp980
Rp981
(dp982
g858
g706
sg294
g295
sg859
g709
sbag0
(g854
g2
Ntp983
Rp984
(dp985
g858
g703
sg294
g295
sg859
g712
sbag0
(g854
g2
Ntp986
Rp987
(dp988
g858
g712
sg294
g295
sg859
g709
sbag0
(g854
g2
Ntp989
Rp990
(dp991
g858
g685
sg294
g295
sg859
g715
sbag0
(g854
g2
Ntp992
Rp993
(dp994
g858
g715
sg294
g295
sg859
g718
sbag0
(g854
g2
Ntp995
Rp996
(dp997
g858
g718
sg294
g295
sg859
g721
sbag0
(g854
g2
Ntp998
Rp999
(dp1000
g858
g718
sg294
g295
sg859
g724
sbag0
(g854
g2
Ntp1001
Rp1002
(dp1003
g858
g715
sg294
g295
sg859
g727
sbag0
(g854
g2
Ntp1004
Rp1005
(dp1006
g858
g727
sg294
g295
sg859
g730
sbag0
(g854
g2
Ntp1007
Rp1008
(dp1009
g858
g685
sg294
g295
sg859
g733
sbag0
(g854
g2
Ntp1010
Rp1011
(dp1012
g858
g685
sg294
g295
sg859
g736
sbag0
(g854
g2
Ntp1013
Rp1014
(dp1015
g858
g736
sg294
g295
sg859
g691
sbag0
(g854
g2
Ntp1016
Rp1017
(dp1018
g858
g736
sg294
g295
sg859
g700
sbag0
(g854
g2
Ntp1019
Rp1020
(dp1021
g858
g582
sg294
g295
sg859
g739
sbag0
(g854
g2
Ntp1022
Rp1023
(dp1024
g858
g582
sg294
g295
sg859
g742
sbag0
(g854
g2
Ntp1025
Rp1026
(dp1027
g858
g742
sg294
g295
sg859
g745
sbag0
(g854
g2
Ntp1028
Rp1029
(dp1030
g858
g745
sg294
g295
sg859
g748
sbag0
(g854
g2
Ntp1031
Rp1032
(dp1033
g858
g745
sg294
g295
sg859
g751
sbag0
(g854
g2
Ntp1034
Rp1035
(dp1036
g858
g742
sg294
g295
sg859
g754
sbag0
(g854
g2
Ntp1037
Rp1038
(dp1039
g858
g754
sg294
g295
sg859
g757
sbag0
(g854
g2
Ntp1040
Rp1041
(dp1042
g858
g757
sg294
g295
sg859
g760
sbag0
(g854
g2
Ntp1043
Rp1044
(dp1045
g858
g757
sg294
g295
sg859
g763
sbag0
(g854
g2
Ntp1046
Rp1047
(dp1048
g858
g757
sg294
g295
sg859
g766
sbag0
(g854
g2
Ntp1049
Rp1050
(dp1051
g858
g757
sg294
g295
sg859
g769
sbag0
(g854
g2
Ntp1052
Rp1053
(dp1054
g858
g757
sg294
g295
sg859
g772
sbag0
(g854
g2
Ntp1055
Rp1056
(dp1057
g858
g757
sg294
g295
sg859
g775
sbag0
(g854
g2
Ntp1058
Rp1059
(dp1060
g858
g757
sg294
g295
sg859
g778
sbag0
(g854
g2
Ntp1061
Rp1062
(dp1063
g858
g757
sg294
g295
sg859
g781
sbag0
(g854
g2
Ntp1064
Rp1065
(dp1066
g858
g781
sg294
g295
sg859
g784
sbag0
(g854
g2
Ntp1067
Rp1068
(dp1069
g858
g781
sg294
g295
sg859
g787
sbag0
(g854
g2
Ntp1070
Rp1071
(dp1072
g858
g781
sg294
g295
sg859
g790
sbag0
(g854
g2
Ntp1073
Rp1074
(dp1075
g858
g781
sg294
g295
sg859
g793
sbag0
(g854
g2
Ntp1076
Rp1077
(dp1078
g858
g754
sg294
g295
sg859
g748
sbag0
(g854
g2
Ntp1079
Rp1080
(dp1081
g858
g748
sg294
g295
sg859
g796
sbag0
(g854
g2
Ntp1082
Rp1083
(dp1084
g858
g748
sg294
g295
sg859
g799
sbag0
(g854
g2
Ntp1085
Rp1086
(dp1087
g858
g748
sg294
g295
sg859
g802
sbag0
(g854
g2
Ntp1088
Rp1089
(dp1090
g858
g754
sg294
g295
sg859
g751
sbag0
(g854
g2
Ntp1091
Rp1092
(dp1093
g858
g751
sg294
g295
sg859
g805
sbag0
(g854
g2
Ntp1094
Rp1095
(dp1096
g858
g751
sg294
g295
sg859
g808
sbag0
(g854
g2
Ntp1097
Rp1098
(dp1099
g858
g751
sg294
g295
sg859
g811
sbag0
(g854
g2
Ntp1100
Rp1101
(dp1102
g858
g751
sg294
g295
sg859
g814
sbag0
(g854
g2
Ntp1103
Rp1104
(dp1105
g858
g751
sg294
g295
sg859
g817
sbag0
(g854
g2
Ntp1106
Rp1107
(dp1108
g858
g751
sg294
g295
sg859
g820
sbag0
(g854
g2
Ntp1109
Rp1110
(dp1111
g858
g751
sg294
g295
sg859
g823
sbag0
(g854
g2
Ntp1112
Rp1113
(dp1114
g858
g751
sg294
g295
sg859
g826
sbag0
(g854
g2
Ntp1115
Rp1116
(dp1117
g858
g751
sg294
g295
sg859
g829
sbag0
(g854
g2
Ntp1118
Rp1119
(dp1120
g858
g751
sg294
g295
sg859
g832
sbag0
(g854
g2
Ntp1121
Rp1122
(dp1123
g858
g751
sg294
g295
sg859
g835
sbag0
(g854
g2
Ntp1124
Rp1125
(dp1126
g858
g742
sg294
g295
sg859
g838
sbag0
(g854
g2
Ntp1127
Rp1128
(dp1129
g858
g838
sg294
g295
sg859
g841
sbag0
(g854
g2
Ntp1130
Rp1131
(dp1132
g858
g838
sg294
g295
sg859
g844
sbag0
(g854
g2
Ntp1133
Rp1134
(dp1135
g858
g742
sg294
g295
sg859
g847
sbag0
(g854
g2
Ntp1136
Rp1137
(dp1138
g858
g847
sg294
g295
sg859
g805
sbag0
(g854
g2
Ntp1139
Rp1140
(dp1141
g858
g847
sg294
g295
sg859
g835
sbag0
(g854
g2
Ntp1142
Rp1143
(dp1144
g858
g742
sg294
g295
sg859
g850
sbag0
(g854
g2
Ntp1145
Rp1146
(dp1147
g858
g850
sg294
g295
sg859
g820
sbag0
(g854
g2
Ntp1148
Rp1149
(dp1150
g858
g850
sg294
g295
sg859
g826
sbag0
(g854
g2
Ntp1151
Rp1152
(dp1153
g858
g850
sg294
g295
sg859
g808
sbasS'neutral'
p1154
g89
sbsg584
I1
sg67
g83
sbssS'model'
p1155
Nsg584
I9
sS'LTM'
p1156
g63
sS'init_act'
p1157
F1.0
sbag0
(clanguage_schemas
CPT_ACTION_SCHEMA
p1158
g2
Ntp1159
Rp1160
(dp1161
g67
g108
sg84
(dp1162
g86
g586
ssg1155
Nsg584
I10
sg1156
g63
sg1157
F1.0
sbag0
(g1158
g2
Ntp1163
Rp1164
(dp1165
g67
g110
sg84
(dp1166
g86
g589
ssg1155
Nsg584
I11
sg1156
g63
sg1157
F1.0
sbag0
(g1158
g2
Ntp1167
Rp1168
(dp1169
g67
g112
sg84
(dp1170
g86
g592
ssg1155
Nsg584
I12
sg1156
g63
sg1157
F1.0
sbag0
(g1158
g2
Ntp1171
Rp1172
(dp1173
g67
g114
sg84
(dp1174
g86
g595
ssg1155
Nsg584
I13
sg1156
g63
sg1157
F1.0
sbag0
(g1158
g2
Ntp1175
Rp1176
(dp1177
g67
g116
sg84
(dp1178
g86
g598
ssg1155
Nsg584
I14
sg1156
g63
sg1157
F1.0
sbag0
(g1158
g2
Ntp1179
Rp1180
(dp1181
g67
g118
sg84
(dp1182
g86
g601
ssg1155
Nsg584
I15
sg1156
g63
sg1157
F1.0
sbag0
(g1158
g2
Ntp1183
Rp1184
(dp1185
g67
g120
sg84
(dp1186
g86
g604
ssg1155
Nsg584
I16
sg1156
g63
sg1157
F1.0
sbag0
(g1158
g2
Ntp1187
Rp1188
(dp1189
g67
g122
sg84
(dp1190
g86
g607
ssg1155
Nsg584
I17
sg1156
g63
sg1157
F1.0
sbag0
(g1158
g2
Ntp1191
Rp1192
(dp1193
g67
g124
sg84
(dp1194
g86
g610
ssg1155
Nsg584
I18
sg1156
g63
sg1157
F1.0
sbag0
(g1158
g2
Ntp1195
Rp1196
(dp1197
g67
g126
sg84
(dp1198
g86
g613
ssg1155
Nsg584
I19
sg1156
g63
sg1157
F1.0
sbag0
(g1158
g2
Ntp1199
Rp1200
(dp1201
g67
g128
sg84
(dp1202
g86
g616
ssg1155
Nsg584
I20
sg1156
g63
sg1157
F1.0
sbag0
(g1158
g2
Ntp1203
Rp1204
(dp1205
g67
g130
sg84
(dp1206
g86
g619
ssg1155
Nsg584
I21
sg1156
g63
sg1157
F1.0
sbag0
(g1158
g2
Ntp1207
Rp1208
(dp1209
g67
g132
sg84
(dp1210
g86
g622
ssg1155
Nsg584
I22
sg1156
g63
sg1157
F1.0
sbag0
(g1158
g2
Ntp1211
Rp1212
(dp1213
g67
g134
sg84
(dp1214
g86
g625
ssg1155
Nsg584
I23
sg1156
g63
sg1157
F1.0
sbag0
(g1158
g2
Ntp1215
Rp1216
(dp1217
g67
g136
sg84
(dp1218
g86
g628
ssg1155
Nsg584
I24
sg1156
g63
sg1157
F1.0
sbag0
(g1158
g2
Ntp1219
Rp1220
(dp1221
g67
g138
sg84
(dp1222
g86
g631
ssg1155
Nsg584
I25
sg1156
g63
sg1157
F1.0
sbag0
(g1158
g2
Ntp1223
Rp1224
(dp1225
g67
g140
sg84
(dp1226
g86
g634
ssg1155
Nsg584
I26
sg1156
g63
sg1157
F1.0
sbag0
(g1158
g2
Ntp1227
Rp1228
(dp1229
g67
g142
sg84
(dp1230
g86
g637
ssg1155
Nsg584
I27
sg1156
g63
sg1157
F1.0
sbag0
(g1158
g2
Ntp1231
Rp1232
(dp1233
g67
g144
sg84
(dp1234
g86
g640
ssg1155
Nsg584
I28
sg1156
g63
sg1157
F1.0
sbag0
(clanguage_schemas
CPT_PROPERTY_SCHEMA
p1235
g2
Ntp1236
Rp1237
(dp1238
g67
g146
sg84
(dp1239
g86
g643
ssg1155
Nsg584
I29
sg1156
g63
sg1157
F1.0
sbag0
(g1235
g2
Ntp1240
Rp1241
(dp1242
g67
g148
sg84
(dp1243
g86
g646
ssg1155
Nsg584
I30
sg1156
g63
sg1157
F1.0
sbag0
(g1235
g2
Ntp1244
Rp1245
(dp1246
g67
g150
sg84
(dp1247
g86
g649
ssg1155
Nsg584
I31
sg1156
g63
sg1157
F1.0
sbag0
(g1235
g2
Ntp1248
Rp1249
(dp1250
g67
g152
sg84
(dp1251
g86
g652
ssg1155
Nsg584
I32
sg1156
g63
sg1157
F1.0
sbag0
(g1235
g2
Ntp1252
Rp1253
(dp1254
g67
g154
sg84
(dp1255
g86
g655
ssg1155
Nsg584
I33
sg1156
g63
sg1157
F1.0
sbag0
(g1235
g2
Ntp1256
Rp1257
(dp1258
g67
g156
sg84
(dp1259
g86
g658
ssg1155
Nsg584
I34
sg1156
g63
sg1157
F1.0
sbag0
(g1235
g2
Ntp1260
Rp1261
(dp1262
g67
g158
sg84
(dp1263
g86
g661
ssg1155
Nsg584
I35
sg1156
g63
sg1157
F1.0
sbag0
(g1235
g2
Ntp1264
Rp1265
(dp1266
g67
g160
sg84
(dp1267
g86
g664
ssg1155
Nsg584
I36
sg1156
g63
sg1157
F1.0
sbag0
(g1235
g2
Ntp1268
Rp1269
(dp1270
g67
g162
sg84
(dp1271
g86
g667
ssg1155
Nsg584
I37
sg1156
g63
sg1157
F1.0
sbag0
(g1235
g2
Ntp1272
Rp1273
(dp1274
g67
g164
sg84
(dp1275
g86
g670
ssg1155
Nsg584
I38
sg1156
g63
sg1157
F1.0
sbag0
(g1235
g2
Ntp1276
Rp1277
(dp1278
g67
g166
sg84
(dp1279
g86
g673
ssg1155
Nsg584
I39
sg1156
g63
sg1157
F1.0
sbag0
(g1235
g2
Ntp1280
Rp1281
(dp1282
g67
g168
sg84
(dp1283
g86
g676
ssg1155
Nsg584
I40
sg1156
g63
sg1157
F1.0
sbag0
(g1235
g2
Ntp1284
Rp1285
(dp1286
g67
g170
sg84
(dp1287
g86
g679
ssg1155
Nsg584
I41
sg1156
g63
sg1157
F1.0
sbag0
(g1235
g2
Ntp1288
Rp1289
(dp1290
g67
g172
sg84
(dp1291
g86
g682
ssg1155
Nsg584
I42
sg1156
g63
sg1157
F1.0
sbag0
(clanguage_schemas
CPT_RELATION_SCHEMA
p1292
g2
Ntp1293
Rp1294
(dp1295
g67
g174
sg84
(dp1296
g858
Nsg86
g685
sg859
Nssg1155
Nsg584
I43
sg1156
g63
sg1157
F1.0
sbag0
(g1292
g2
Ntp1297
Rp1298
(dp1299
g67
g176
sg84
(dp1300
g858
Nsg86
g688
sg859
Nssg1155
Nsg584
I44
sg1156
g63
sg1157
F1.0
sbag0
(g1292
g2
Ntp1301
Rp1302
(dp1303
g67
g178
sg84
(dp1304
g858
Nsg86
g691
sg859
Nssg1155
Nsg584
I45
sg1156
g63
sg1157
F1.0
sbag0
(g1292
g2
Ntp1305
Rp1306
(dp1307
g67
g180
sg84
(dp1308
g858
Nsg86
g694
sg859
Nssg1155
Nsg584
I46
sg1156
g63
sg1157
F1.0
sbag0
(g1292
g2
Ntp1309
Rp1310
(dp1311
g67
g182
sg84
(dp1312
g858
Nsg86
g697
sg859
Nssg1155
Nsg584
I47
sg1156
g63
sg1157
F1.0
sbag0
(g1292
g2
Ntp1313
Rp1314
(dp1315
g67
g184
sg84
(dp1316
g858
Nsg86
g700
sg859
Nssg1155
Nsg584
I48
sg1156
g63
sg1157
F1.0
sbag0
(g1292
g2
Ntp1317
Rp1318
(dp1319
g67
g186
sg84
(dp1320
g858
Nsg86
g703
sg859
Nssg1155
Nsg584
I49
sg1156
g63
sg1157
F1.0
sbag0
(g1292
g2
Ntp1321
Rp1322
(dp1323
g67
g188
sg84
(dp1324
g858
Nsg86
g706
sg859
Nssg1155
Nsg584
I50
sg1156
g63
sg1157
F1.0
sbag0
(g1292
g2
Ntp1325
Rp1326
(dp1327
g67
g190
sg84
(dp1328
g858
Nsg86
g709
sg859
Nssg1155
Nsg584
I51
sg1156
g63
sg1157
F1.0
sbag0
(g1292
g2
Ntp1329
Rp1330
(dp1331
g67
g192
sg84
(dp1332
g858
Nsg86
g712
sg859
Nssg1155
Nsg584
I52
sg1156
g63
sg1157
F1.0
sbag0
(g1292
g2
Ntp1333
Rp1334
(dp1335
g67
g194
sg84
(dp1336
g858
Nsg86
g715
sg859
Nssg1155
Nsg584
I53
sg1156
g63
sg1157
F1.0
sbag0
(g1292
g2
Ntp1337
Rp1338
(dp1339
g67
g196
sg84
(dp1340
g858
Nsg86
g718
sg859
Nssg1155
Nsg584
I54
sg1156
g63
sg1157
F1.0
sbag0
(g1292
g2
Ntp1341
Rp1342
(dp1343
g67
g198
sg84
(dp1344
g858
Nsg86
g721
sg859
Nssg1155
Nsg584
I55
sg1156
g63
sg1157
F1.0
sbag0
(g1292
g2
Ntp1345
Rp1346
(dp1347
g67
g200
sg84
(dp1348
g858
Nsg86
g724
sg859
Nssg1155
Nsg584
I56
sg1156
g63
sg1157
F1.0
sbag0
(g1292
g2
Ntp1349
Rp1350
(dp1351
g67
g202
sg84
(dp1352
g858
Nsg86
g727
sg859
Nssg1155
Nsg584
I57
sg1156
g63
sg1157
F1.0
sbag0
(g1292
g2
Ntp1353
Rp1354
(dp1355
g67
g204
sg84
(dp1356
g858
Nsg86
g730
sg859
Nssg1155
Nsg584
I58
sg1156
g63
sg1157
F1.0
sbag0
(g1292
g2
Ntp1357
Rp1358
(dp1359
g67
g206
sg84
(dp1360
g858
Nsg86
g733
sg859
Nssg1155
Nsg584
I59
sg1156
g63
sg1157
F1.0
sbag0
(g1292
g2
Ntp1361
Rp1362
(dp1363
g67
g208
sg84
(dp1364
g858
Nsg86
g736
sg859
Nssg1155
Nsg584
I60
sg1156
g63
sg1157
F1.0
sbag0
(g79
g2
Ntp1365
Rp1366
(dp1367
g67
g210
sg84
(dp1368
g86
g739
ssg1155
Nsg584
I61
sg1156
g63
sg1157
F1.0
sbag0
(clanguage_schemas
CPT_ENTITY_SCHEMA
p1369
g2
Ntp1370
Rp1371
(dp1372
g67
g212
sg84
(dp1373
g86
g742
ssg1155
Nsg584
I62
sg1156
g63
sg1157
F1.0
sbag0
(g1369
g2
Ntp1374
Rp1375
(dp1376
g67
g214
sg84
(dp1377
g86
g745
ssg1155
Nsg584
I63
sg1156
g63
sg1157
F1.0
sbag0
(g1369
g2
Ntp1378
Rp1379
(dp1380
g67
g216
sg84
(dp1381
g86
g748
ssg1155
Nsg584
I64
sg1156
g63
sg1157
F1.0
sbag0
(g1369
g2
Ntp1382
Rp1383
(dp1384
g67
g218
sg84
(dp1385
g86
g751
ssg1155
Nsg584
I65
sg1156
g63
sg1157
F1.0
sbag0
(g1369
g2
Ntp1386
Rp1387
(dp1388
g67
g220
sg84
(dp1389
g86
g754
ssg1155
Nsg584
I66
sg1156
g63
sg1157
F1.0
sbag0
(g1369
g2
Ntp1390
Rp1391
(dp1392
g67
g222
sg84
(dp1393
g86
g757
ssg1155
Nsg584
I67
sg1156
g63
sg1157
F1.0
sbag0
(g1369
g2
Ntp1394
Rp1395
(dp1396
g67
g224
sg84
(dp1397
g86
g760
ssg1155
Nsg584
I68
sg1156
g63
sg1157
F1.0
sbag0
(g1369
g2
Ntp1398
Rp1399
(dp1400
g67
g226
sg84
(dp1401
g86
g763
ssg1155
Nsg584
I69
sg1156
g63
sg1157
F1.0
sbag0
(g1369
g2
Ntp1402
Rp1403
(dp1404
g67
g228
sg84
(dp1405
g86
g766
ssg1155
Nsg584
I70
sg1156
g63
sg1157
F1.0
sbag0
(g1369
g2
Ntp1406
Rp1407
(dp1408
g67
g230
sg84
(dp1409
g86
g769
ssg1155
Nsg584
I71
sg1156
g63
sg1157
F1.0
sbag0
(g1369
g2
Ntp1410
Rp1411
(dp1412
g67
g232
sg84
(dp1413
g86
g772
ssg1155
Nsg584
I72
sg1156
g63
sg1157
F1.0
sbag0
(g1369
g2
Ntp1414
Rp1415
(dp1416
g67
g234
sg84
(dp1417
g86
g775
ssg1155
Nsg584
I73
sg1156
g63
sg1157
F1.0
sbag0
(g1369
g2
Ntp1418
Rp1419
(dp1420
g67
g236
sg84
(dp1421
g86
g778
ssg1155
Nsg584
I74
sg1156
g63
sg1157
F1.0
sbag0
(g1369
g2
Ntp1422
Rp1423
(dp1424
g67
g238
sg84
(dp1425
g86
g781
ssg1155
Nsg584
I75
sg1156
g63
sg1157
F1.0
sbag0
(g1369
g2
Ntp1426
Rp1427
(dp1428
g67
g240
sg84
(dp1429
g86
g784
ssg1155
Nsg584
I76
sg1156
g63
sg1157
F1.0
sbag0
(g1369
g2
Ntp1430
Rp1431
(dp1432
g67
g242
sg84
(dp1433
g86
g787
ssg1155
Nsg584
I77
sg1156
g63
sg1157
F1.0
sbag0
(g1369
g2
Ntp1434
Rp1435
(dp1436
g67
g244
sg84
(dp1437
g86
g790
ssg1155
Nsg584
I78
sg1156
g63
sg1157
F1.0
sbag0
(g1369
g2
Ntp1438
Rp1439
(dp1440
g67
g246
sg84
(dp1441
g86
g793
ssg1155
Nsg584
I79
sg1156
g63
sg1157
F1.0
sbag0
(g1369
g2
Ntp1442
Rp1443
(dp1444
g67
g248
sg84
(dp1445
g86
g796
ssg1155
Nsg584
I80
sg1156
g63
sg1157
F1.0
sbag0
(g1369
g2
Ntp1446
Rp1447
(dp1448
g67
g250
sg84
(dp1449
g86
g799
ssg1155
Nsg584
I81
sg1156
g63
sg1157
F1.0
sbag0
(g1369
g2
Ntp1450
Rp1451
(dp1452
g67
g252
sg84
(dp1453
g86
g802
ssg1155
Nsg584
I82
sg1156
g63
sg1157
F1.0
sbag0
(g1369
g2
Ntp1454
Rp1455
(dp1456
g67
g254
sg84
(dp1457
g86
g805
ssg1155
Nsg584
I83
sg1156
g63
sg1157
F1.0
sbag0
(g1369
g2
Ntp1458
Rp1459
(dp1460
g67
g256
sg84
(dp1461
g86
g808
ssg1155
Nsg584
I84
sg1156
g63
sg1157
F1.0
sbag0
(g1369
g2
Ntp1462
Rp1463
(dp1464
g67
g258
sg84
(dp1465
g86
g811
ssg1155
Nsg584
I85
sg1156
g63
sg1157
F1.0
sbag0
(g1369
g2
Ntp1466
Rp1467
(dp1468
g67
g260
sg84
(dp1469
g86
g814
ssg1155
Nsg584
I86
sg1156
g63
sg1157
F1.0
sbag0
(g1369
g2
Ntp1470
Rp1471
(dp1472
g67
g262
sg84
(dp1473
g86
g817
ssg1155
Nsg584
I87
sg1156
g63
sg1157
F1.0
sbag0
(g1369
g2
Ntp1474
Rp1475
(dp1476
g67
g264
sg84
(dp1477
g86
g820
ssg1155
Nsg584
I88
sg1156
g63
sg1157
F1.0
sbag0
(g1369
g2
Ntp1478
Rp1479
(dp1480
g67
g266
sg84
(dp1481
g86
g823
ssg1155
Nsg584
I89
sg1156
g63
sg1157
F1.0
sbag0
(g1369
g2
Ntp1482
Rp1483
(dp1484
g67
g268
sg84
(dp1485
g86
g826
ssg1155
Nsg584
I90
sg1156
g63
sg1157
F1.0
sbag0
(g1369
g2
Ntp1486
Rp1487
(dp1488
g67
g270
sg84
(dp1489
g86
g829
ssg1155
Nsg584
I91
sg1156
g63
sg1157
F1.0
sbag0
(g1369
g2
Ntp1490
Rp1491
(dp1492
g67
g272
sg84
(dp1493
g86
g832
ssg1155
Nsg584
I92
sg1156
g63
sg1157
F1.0
sbag0
(g1369
g2
Ntp1494
Rp1495
(dp1496
g67
g274
sg84
(dp1497
g86
g835
ssg1155
Nsg584
I93
sg1156
g63
sg1157
F1.0
sbag0
(g1369
g2
Ntp1498
Rp1499
(dp1500
g67
g276
sg84
(dp1501
g86
g838
ssg1155
Nsg584
I94
sg1156
g63
sg1157
F1.0
sbag0
(g1369
g2
Ntp1502
Rp1503
(dp1504
g67
g278
sg84
(dp1505
g86
g841
ssg1155
Nsg584
I95
sg1156
g63
sg1157
F1.0
sbag0
(g1369
g2
Ntp1506
Rp1507
(dp1508
g67
g280
sg84
(dp1509
g86
g844
ssg1155
Nsg584
I96
sg1156
g63
sg1157
F1.0
sbag0
(g1369
g2
Ntp1510
Rp1511
(dp1512
g67
g282
sg84
(dp1513
g86
g847
ssg1155
Nsg584
I97
sg1156
g63
sg1157
F1.0
sbag0
(g1369
g2
Ntp1514
Rp1515
(dp1516
g67
g284
sg84
(dp1517
g86
g850
ssg1155
Nsg584
I98
sg1156
g63
sg1157
F1.0
sbasg294
S'OUT'
p1518
sg584
I11
sS'schema'
p1519
g63
sbag0
(g71
g2
Ntp1520
Rp1521
(dp1522
g67
S'to_semantic_WM'
p1523
sg76
Nsg77
g78
sg294
g1518
sg584
I12
sg1519
g63
sbasS'outputs'
p1524
(dp1525
g75
Nsg1523
NssS'connections'
p1526
(lp1527
sS'cpt_knowledge'
p1528
g95
sS'dt'
p1529
F1.0
sS'in_ports'
p1530
(lp1531
sS'params'
p1532
(dp1533
g1157
F1.0
ssS't'
p1534
I0
sS'activity'
p1535
I0
sg1155
g0
(cschema_theory
MODEL
p1536
g2
Ntp1537
Rp1538
(dp1539
S'verbose'
p1540
I00
sg67
S'language_system_P'
p1541
sS'sim_data'
p1542
(dp1543
S'system_states'
p1544
(dp1545
sg1155
(dp1546
ssg1524
(dp1547
sS'input_ports'
p1548
(lp1549
g0
(g71
g2
Ntp1550
Rp1551
(dp1552
g67
S'from_conceptualizer'
p1553
sg76
Nsg77
Nsg294
S'IN'
p1554
sg584
I1
sg1519
g0
(clanguage_schemas
SEMANTIC_WM
p1555
g2
Ntp1556
Rp1557
(dp1558
g65
(dp1559
S'from_grammatical_WM_P'
p1560
NsS'from_concept_LTM'
p1561
NsS'from_control'
p1562
NsS'from_grammatical_WM_C'
p1563
Nsg1553
NssS'schema_insts'
p1564
(lp1565
sg67
S'Semantic_WM'
p1566
sS'comp_links'
p1567
(lp1568
sg69
(lp1569
g0
(g71
g2
Ntp1570
Rp1571
(dp1572
S'port_data'
p1573
Nsg67
S'to_grammatical_WM_P'
p1574
sg76
Nsg77
NsS'port_value'
p1575
Nsg294
g1518
sg584
I6
sg1519
g1557
sbag0
(g71
g2
Ntp1576
Rp1577
(dp1578
g1573
Nsg67
S'to_cxn_retrieval_P'
p1579
sg76
Nsg77
Nsg1575
Nsg294
g1518
sg584
I7
sg1519
g1557
sbag0
(g71
g2
Ntp1580
Rp1581
(dp1582
g1573
Nsg67
S'to_control'
p1583
sg76
Nsg77
Nsg1575
Nsg294
g1518
sg584
I8
sg1519
g1557
sbag0
(g71
g2
Ntp1584
Rp1585
(dp1586
g67
S'to_visual_WM'
p1587
sg76
Nsg77
Nsg294
g1518
sg584
I9
sg1519
g1557
sbag0
(g71
g2
Ntp1588
Rp1589
(dp1590
g67
S'to_output'
p1591
sg76
Nsg77
Nsg294
g1518
sg584
I10
sg1519
g1557
sbasg1524
(dp1592
g1591
Nsg1574
Nsg1587
Nsg1579
Nsg1583
Nssg1529
F1.0
sS'coop_links'
p1593
(lp1594
sg1530
(lp1595
g1551
ag0
(g71
g2
Ntp1596
Rp1597
(dp1598
g67
g1561
sg76
Nsg77
Nsg294
g1554
sg584
I2
sg1519
g1557
sbag0
(g71
g2
Ntp1599
Rp1600
(dp1601
g67
g1563
sg76
Nsg77
Nsg294
g1554
sg584
I3
sg1519
g1557
sbag0
(g71
g2
Ntp1602
Rp1603
(dp1604
g1573
Nsg67
g1560
sg76
Nsg77
Nsg1575
Nsg294
g1554
sg584
I4
sg1519
g1557
sbag0
(g71
g2
Ntp1605
Rp1606
(dp1607
g1573
Nsg67
g1562
sg76
Nsg77
S'produce'
p1608
sg1575
Nsg294
g1554
sg584
I5
sg1519
g1557
sbasS'save_state'
p1609
(dp1610
S'insts'
p1611
(dp1612
sS'WM_activity'
p1613
(dp1614
S'comp'
p1615
(lp1616
sS'c2_network'
p1617
(dp1618
S'num_insts'
p1619
(lp1620
sS'num_coop_links'
p1621
(lp1622
sS'num_comp_links'
p1623
(lp1624
ssS'coop'
p1625
(lp1626
sg1534
(lp1627
sS'act'
p1628
(lp1629
sssg1532
(dp1630
S'C2'
p1631
(dp1632
S'P_comp'
p1633
F1.0
sS'max_capacity'
p1634
NsS'comp_weight'
p1635
F0.0
sS'P_coop'
p1636
F1.0
sS'coop_asymmetry'
p1637
F1.0
sS'coop_weight'
p1638
F0.0
sS'confidence_threshold'
p1639
F0.0
sS'comp_asymmetry'
p1640
F0.0
sS'prune_threshold'
p1641
F0.01
ssS'dyn'
p1642
(dp1643
S'tau'
p1644
F10000.0
sS'k'
p1645
F10.0
sS'act_rest'
p1646
F0.001
sS'noise_mean'
p1647
F0.0
sS'noise_std'
p1648
F1.0
sS'ext_weight'
p1649
F1.0
sS'int_weight'
p1650
F1.0
sssg1534
I0
sg1535
I0
sg1155
g1538
sS'SemRep'
p1651
g0
(g98
g2
Ntp1652
Rp1653
(dp1654
g102
(dp1655
sg285
g286
sg287
g286
sg288
(dp1656
sg482
g1656
sg97
(dp1657
sg484
g286
sg485
g1656
sg486
(dp1658
sbsg584
I1
sbsbasS'brain_mapping'
p1659
g0
(cschema_theory
BRAIN_MAPPING
p1660
g2
Ntp1661
Rp1662
(dp1663
S'schema_mapping'
p1664
(dp1665
S'Control'
p1666
(lp1667
S'DLPFC'
p1668
asS'Utter'
p1669
(lp1670
S''
p1671
asg1566
(lp1672
S'left_SFG'
p1673
aS'LIP'
p1674
aS'Hippocampus'
p1675
asS'Phonological_WM_P'
p1676
(lp1677
S'left_BA6'
p1678
asg68
(lp1679
g1671
asS'Grammatical_WM_P'
p1680
(lp1681
S'left_BA45'
p1682
aS'leftBA44'
p1683
asS'Grammatical_LTM'
p1684
(lp1685
S'left_STG'
p1686
aS'left_MTG'
p1687
asS'Cxn_retrieval_P'
p1688
(lp1689
ssS'connect_mapping'
p1690
(dp1691
sbsg1526
(lp1692
g0
(cschema_theory
CONNECT
p1693
g2
Ntp1694
Rp1695
(dp1696
S'delay'
p1697
I0
sg67
g1671
sS'weight'
p1698
I0
sS'port_to'
p1699
g0
(g71
g2
Ntp1700
Rp1701
(dp1702
g1573
Nsg67
S'from_semantic_WM'
p1703
sg76
Nsg77
Nsg1575
Nsg294
g1554
sg584
I23
sg1519
g0
(clanguage_schemas
CXN_RETRIEVAL_P
p1704
g2
Ntp1705
Rp1706
(dp1707
g65
(dp1708
g1703
NsS'from_grammatical_LTM'
p1709
Nssg67
g1688
sg69
(lp1710
g0
(g71
g2
Ntp1711
Rp1712
(dp1713
g1573
Nsg67
g1574
sg76
Nsg77
Nsg1575
Nsg294
g1518
sg584
I24
sg1519
g1706
sbasg1524
(dp1714
g1574
NssS'cxn_instances'
p1715
(lp1716
sg1529
F1.0
sg1530
(lp1717
g0
(g71
g2
Ntp1718
Rp1719
(dp1720
g1573
Nsg67
g1709
sg76
Nsg77
(lp1721
g0
(clanguage_schemas
CXN_SCHEMA
p1722
g2
Ntp1723
Rp1724
(dp1725
g67
VCNJ_AND
p1726
sg84
(iconstruction
CXN
p1727
(dp1728
S'SymLinks'
p1729
(iconstruction
TP_SYMLINKS
p1730
(dp1731
S'SL'
p1732
(dp1733
VEVT1_4
p1734
VS1_6
p1735
sVEVT2_5
p1736
VS3_8
p1737
ssg584
I3
sg67
g1671
sbsS'clss'
p1738
VD
p1739
sS'group'
p1740
I3
sg67
g1726
sS'SemFrame'
p1741
(iconstruction
TP_SEMFRAME
p1742
(dp1743
g97
g0
(g98
g2
Ntp1744
Rp1745
(dp1746
g102
(dp1747
(iconstruction
TP_NODE
p1748
(dp1749
S'head'
p1750
I00
sg86
g739
sg67
g1736
sS'frame'
p1751
I00
sS'focus'
p1752
I00
sg584
I5
sb(dp1753
g1751
I00
sg86
g739
ss(iconstruction
TP_NODE
p1754
(dp1755
g1750
I00
sg86
g739
sg67
g1734
sg1751
I00
sg1752
I01
sg584
I4
sb(dp1756
g1751
I00
sg86
g739
sssg285
g286
sg287
g286
sg288
(dp1757
g1748
(dp1758
sg1754
(dp1759
ssg482
g1757
sg97
(dp1760
sg484
g286
sg485
g1757
sg486
(dp1761
g1748
(dp1762
sg1754
(dp1763
ssbsg579
(lp1764
g1754
ag1748
asg852
(lp1765
sg584
I1
sg67
g1671
sbsS'SynForm'
p1766
(iconstruction
TP_SYNFORM
p1767
(dp1768
g584
I2
sS'form'
p1769
(lp1770
(iconstruction
TP_SLOT
p1771
(dp1772
S'cxn_classes'
p1773
(lp1774
VS
p1775
asS'order'
p1776
I0
sg584
I6
sg67
g1735
sba(iconstruction
TP_PHON
p1777
(dp1778
S'num_syllables'
p1779
I3
sg1776
I1
sg584
I7
sS'cxn_phonetics'
p1780
Vand
p1781
sg67
VS2_7
p1782
sba(iconstruction
TP_SLOT
p1783
(dp1784
g1773
(lp1785
VS
p1786
asg1776
I2
sg584
I8
sg67
g1737
sbasg67
g1671
sbsS'preference'
p1787
I1
sbsg1155
Nsg584
I99
sg1156
g0
(clanguage_schemas
GRAMMATICAL_LTM
p1788
g2
Ntp1789
Rp1790
(dp1791
g65
(dp1792
sS'grammar'
p1793
(iconstruction
GRAMMAR
p1794
(dp1795
S'constructions'
p1796
(lp1797
g1727
a(iconstruction
CXN
p1798
(dp1799
g1729
(iconstruction
TP_SYMLINKS
p1800
(dp1801
g1732
(dp1802
VEVT2_13
p1803
VS3_17
p1804
sVEVT1_12
p1805
VS1_15
p1806
ssg584
I11
sg67
g1671
sbsg1738
VD
p1807
sg1740
I3
sg67
VCNJ_THEN
p1808
sg1741
(iconstruction
TP_SEMFRAME
p1809
(dp1810
g97
g0
(g98
g2
Ntp1811
Rp1812
(dp1813
g102
(dp1814
(iconstruction
TP_NODE
p1815
(dp1816
g1750
I00
sg86
g739
sg67
g1803
sg1751
I00
sg1752
I00
sg584
I13
sb(dp1817
g1751
I00
sg86
g739
ss(iconstruction
TP_NODE
p1818
(dp1819
g1750
I00
sg86
g739
sg67
g1805
sg1751
I00
sg1752
I00
sg584
I12
sb(dp1820
g1751
I00
sg86
g739
sssg285
g286
sg287
g286
sg288
(dp1821
g1815
(dp1822
sg1818
(dp1823
g1815
(dp1824
g86
g724
ssssg482
g1821
sg97
(dp1825
sg484
g286
sg485
g1821
sg486
(dp1826
g1815
(dp1827
g1818
g1824
ssg1818
(dp1828
ssbsg579
(lp1829
g1818
ag1815
asg852
(lp1830
(iconstruction
TP_REL
p1831
(dp1832
g858
g1815
sg86
g724
sg584
I14
sg859
g1818
sg67
VEVT1_EVT2_14
p1833
sbasg584
I9
sg67
g1671
sbsg1766
(iconstruction
TP_SYNFORM
p1834
(dp1835
g584
I10
sg1769
(lp1836
(iconstruction
TP_SLOT
p1837
(dp1838
g1773
(lp1839
VS
p1840
asg1776
I0
sg584
I15
sg67
g1806
sba(iconstruction
TP_PHON
p1841
(dp1842
g1779
I4
sg1776
I1
sg584
I16
sg1780
Vthen
p1843
sg67
VS2_16
p1844
sba(iconstruction
TP_SLOT
p1845
(dp1846
g1773
(lp1847
VS
p1848
asg1776
I2
sg584
I17
sg67
g1804
sbasg67
g1671
sbsg1787
I1
sba(iconstruction
CXN
p1849
(dp1850
g1729
(iconstruction
TP_SYMLINKS
p1851
(dp1852
g1732
(dp1853
VEVT2_22
p1854
VS3_26
p1855
sVEVT1_21
p1856
VS1_24
p1857
ssg584
I20
sg67
g1671
sbsg1738
VD
p1858
sg1740
I3
sg67
VCNJ_WHILE
p1859
sg1741
(iconstruction
TP_SEMFRAME
p1860
(dp1861
g97
g0
(g98
g2
Ntp1862
Rp1863
(dp1864
g102
(dp1865
(iconstruction
TP_NODE
p1866
(dp1867
g1750
I00
sg86
g739
sg67
g1856
sg1751
I00
sg1752
I01
sg584
I21
sb(dp1868
g1751
I00
sg86
g739
ss(iconstruction
TP_NODE
p1869
(dp1870
g1750
I00
sg86
g739
sg67
g1854
sg1751
I00
sg1752
I00
sg584
I22
sb(dp1871
g1751
I00
sg86
g739
sssg285
g286
sg287
g286
sg288
(dp1872
g1866
(dp1873
g1869
(dp1874
g86
g721
sssg1869
(dp1875
ssg482
g1872
sg97
(dp1876
sg484
g286
sg485
g1872
sg486
(dp1877
g1866
(dp1878
sg1869
(dp1879
g1866
g1874
sssbsg579
(lp1880
g1866
ag1869
asg852
(lp1881
(iconstruction
TP_REL
p1882
(dp1883
g858
g1869
sg86
g721
sg584
I23
sg859
g1866
sg67
VEVT1_EVT2_23
p1884
sbasg584
I18
sg67
g1671
sbsg1766
(iconstruction
TP_SYNFORM
p1885
(dp1886
g584
I19
sg1769
(lp1887
(iconstruction
TP_SLOT
p1888
(dp1889
g1773
(lp1890
VS
p1891
asg1776
I0
sg584
I24
sg67
g1857
sba(iconstruction
TP_PHON
p1892
(dp1893
g1779
I5
sg1776
I1
sg584
I25
sg1780
Vwhile
p1894
sg67
VS2_25
p1895
sba(iconstruction
TP_SLOT
p1896
(dp1897
g1773
(lp1898
VS
p1899
asg1776
I2
sg584
I26
sg67
g1855
sbasg67
g1671
sbsg1787
I1
sba(iconstruction
CXN
p1900
(dp1901
g1729
(iconstruction
TP_SYMLINKS
p1902
(dp1903
g1732
(dp1904
VACT_31
p1905
VS4_40
p1906
sVACTOR_1_32
p1907
VS1_37
p1908
sVACTOR_2_33
p1909
VS3_39
p1910
ssg584
I29
sg67
g1671
sbsg1738
VS
p1911
sg1740
Nsg67
VSYMMETRIC_TRANS
p1912
sg1741
(iconstruction
TP_SEMFRAME
p1913
(dp1914
g97
g0
(g98
g2
Ntp1915
Rp1916
(dp1917
g102
(dp1918
(iconstruction
TP_NODE
p1919
(dp1920
g1750
I00
sg86
g586
sg67
g1905
sg1751
I01
sg1752
I00
sg584
I31
sb(dp1921
g1751
I01
sg86
g586
ss(iconstruction
TP_NODE
p1922
(dp1923
g1750
I00
sg86
g742
sg67
g1907
sg1751
I01
sg1752
I01
sg584
I32
sb(dp1924
g1751
I01
sg86
g742
ss(iconstruction
TP_NODE
p1925
(dp1926
g1750
I00
sg86
g742
sg67
g1909
sg1751
I01
sg1752
I00
sg584
I33
sb(dp1927
g1751
I01
sg86
g742
ss(iconstruction
TP_NODE
p1928
(dp1929
g1750
I01
sg86
g739
sg67
VEVT_30
p1930
sg1751
I01
sg1752
I00
sg584
I30
sb(dp1931
g1751
I01
sg86
g739
sssg285
g286
sg287
g286
sg288
(dp1932
g1919
(dp1933
g1925
(dp1934
g86
g709
ssg1922
(dp1935
g86
g709
sssg1922
(dp1936
sg1925
(dp1937
sg1928
(dp1938
g1919
(dp1939
g86
g733
ssssg482
g1932
sg97
(dp1940
sg484
g286
sg485
g1932
sg486
(dp1941
g1919
(dp1942
g1928
g1939
ssg1922
(dp1943
g1919
g1935
ssg1925
(dp1944
g1919
g1934
ssg1928
(dp1945
ssbsg579
(lp1946
g1928
ag1919
ag1922
ag1925
asg852
(lp1947
(iconstruction
TP_REL
p1948
(dp1949
g858
g1919
sg86
g733
sg584
I34
sg859
g1928
sg67
VIS_34
p1950
sba(iconstruction
TP_REL
p1951
(dp1952
g858
g1922
sg86
g709
sg584
I35
sg859
g1919
sg67
VAGT_PT_1_35
p1953
sba(iconstruction
TP_REL
p1954
(dp1955
g858
g1925
sg86
g709
sg584
I36
sg859
g1919
sg67
VAGT_PT_2_36
p1956
sbasg584
I27
sg67
g1671
sbsg1766
(iconstruction
TP_SYNFORM
p1957
(dp1958
g584
I28
sg1769
(lp1959
(iconstruction
TP_SLOT
p1960
(dp1961
g1773
(lp1962
VNP
p1963
aVN
p1964
asg1776
I0
sg584
I37
sg67
g1908
sba(iconstruction
TP_PHON
p1965
(dp1966
g1779
I3
sg1776
I1
sg584
I38
sg1780
Vand
p1967
sg67
VS2_38
p1968
sba(iconstruction
TP_SLOT
p1969
(dp1970
g1773
(lp1971
VNP
p1972
aVN
p1973
asg1776
I2
sg584
I39
sg67
g1910
sba(iconstruction
TP_SLOT
p1974
(dp1975
g1773
(lp1976
VVP
p1977
aVV
p1978
asg1776
I3
sg584
I40
sg67
g1906
sbasg67
g1671
sbsg1787
I1
sba(iconstruction
CXN
p1979
(dp1980
g1729
(iconstruction
TP_SYMLINKS
p1981
(dp1982
g1732
(dp1983
VAGT_46
p1984
VS1_51
p1985
sVACT_45
p1986
VS2_52
p1987
sVPT_47
p1988
VS3_53
p1989
ssg584
I43
sg67
g1671
sbsg1738
VS
p1990
sg1740
I2
sg67
VSVO
p1991
sg1741
(iconstruction
TP_SEMFRAME
p1992
(dp1993
g97
g0
(g98
g2
Ntp1994
Rp1995
(dp1996
g102
(dp1997
(iconstruction
TP_NODE
p1998
(dp1999
g1750
I01
sg86
g739
sg67
VEVT_44
p2000
sg1751
I01
sg1752
I00
sg584
I44
sb(dp2001
g1751
I01
sg86
g739
ss(iconstruction
TP_NODE
p2002
(dp2003
g1750
I00
sg86
g742
sg67
g1984
sg1751
I01
sg1752
I01
sg584
I46
sb(dp2004
g1751
I01
sg86
g742
ss(iconstruction
TP_NODE
p2005
(dp2006
g1750
I00
sg86
g586
sg67
g1986
sg1751
I01
sg1752
I00
sg584
I45
sb(dp2007
g1751
I01
sg86
g586
ss(iconstruction
TP_NODE
p2008
(dp2009
g1750
I00
sg86
g742
sg67
g1988
sg1751
I01
sg1752
I00
sg584
I47
sb(dp2010
g1751
I01
sg86
g742
sssg285
g286
sg287
g286
sg288
(dp2011
g1998
(dp2012
g2005
(dp2013
g86
g733
sssg2002
(dp2014
sg2005
(dp2015
g2002
(dp2016
g86
g712
ssg2008
(dp2017
g86
g706
sssg2008
(dp2018
ssg482
g2011
sg97
(dp2019
sg484
g286
sg485
g2011
sg486
(dp2020
g1998
(dp2021
sg2002
(dp2022
g2005
g2016
ssg2005
(dp2023
g1998
g2013
ssg2008
(dp2024
g2005
g2017
sssbsg579
(lp2025
g1998
ag2005
ag2002
ag2008
asg852
(lp2026
(iconstruction
TP_REL
p2027
(dp2028
g858
g2005
sg86
g733
sg584
I48
sg859
g1998
sg67
VIS_48
p2029
sba(iconstruction
TP_REL
p2030
(dp2031
g858
g2002
sg86
g712
sg584
I49
sg859
g2005
sg67
VACT_AGT_49
p2032
sba(iconstruction
TP_REL
p2033
(dp2034
g858
g2008
sg86
g706
sg584
I50
sg859
g2005
sg67
VACT_PT_50
p2035
sbasg584
I41
sg67
g1671
sbsg1766
(iconstruction
TP_SYNFORM
p2036
(dp2037
g584
I42
sg1769
(lp2038
(iconstruction
TP_SLOT
p2039
(dp2040
g1773
(lp2041
VNP
p2042
aVN
p2043
asg1776
I0
sg584
I51
sg67
g1985
sba(iconstruction
TP_SLOT
p2044
(dp2045
g1773
(lp2046
VVP
p2047
aVV
p2048
asg1776
I1
sg584
I52
sg67
g1987
sba(iconstruction
TP_SLOT
p2049
(dp2050
g1773
(lp2051
VNP
p2052
aVN
p2053
asg1776
I2
sg584
I53
sg67
g1989
sbasg67
g1671
sbsg1787
I1
sba(iconstruction
CXN
p2054
(dp2055
g1729
(iconstruction
TP_SYMLINKS
p2056
(dp2057
g1732
(dp2058
VPT_60
p2059
VS1_64
p2060
sVACT_58
p2061
VS3_66
p2062
sVAGT_59
p2063
VS6_69
p2064
ssg584
I56
sg67
g1671
sbsg1738
VS
p2065
sg1740
I2
sg67
VPAS_SVO
p2066
sg1741
(iconstruction
TP_SEMFRAME
p2067
(dp2068
g97
g0
(g98
g2
Ntp2069
Rp2070
(dp2071
g102
(dp2072
(iconstruction
TP_NODE
p2073
(dp2074
g1750
I00
sg86
g586
sg67
g2061
sg1751
I01
sg1752
I00
sg584
I58
sb(dp2075
g1751
I01
sg86
g586
ss(iconstruction
TP_NODE
p2076
(dp2077
g1750
I00
sg86
g742
sg67
g2063
sg1751
I01
sg1752
I00
sg584
I59
sb(dp2078
g1751
I01
sg86
g742
ss(iconstruction
TP_NODE
p2079
(dp2080
g1750
I01
sg86
g739
sg67
VEVT_57
p2081
sg1751
I01
sg1752
I00
sg584
I57
sb(dp2082
g1751
I01
sg86
g739
ss(iconstruction
TP_NODE
p2083
(dp2084
g1750
I00
sg86
g742
sg67
g2059
sg1751
I01
sg1752
I01
sg584
I60
sb(dp2085
g1751
I01
sg86
g742
sssg285
g286
sg287
g286
sg288
(dp2086
g2073
(dp2087
g2083
(dp2088
g86
g706
ssg2076
(dp2089
g86
g712
sssg2076
(dp2090
sg2079
(dp2091
g2073
(dp2092
g86
g733
sssg2083
(dp2093
ssg482
g2086
sg97
(dp2094
sg484
g286
sg485
g2086
sg486
(dp2095
g2073
(dp2096
g2079
g2092
ssg2076
(dp2097
g2073
g2089
ssg2079
(dp2098
sg2083
(dp2099
g2073
g2088
sssbsg579
(lp2100
g2079
ag2073
ag2076
ag2083
asg852
(lp2101
(iconstruction
TP_REL
p2102
(dp2103
g858
g2073
sg86
g733
sg584
I61
sg859
g2079
sg67
VIS_61
p2104
sba(iconstruction
TP_REL
p2105
(dp2106
g858
g2076
sg86
g712
sg584
I62
sg859
g2073
sg67
VACT_AGT_62
p2107
sba(iconstruction
TP_REL
p2108
(dp2109
g858
g2083
sg86
g706
sg584
I63
sg859
g2073
sg67
VACT_PT_63
p2110
sbasg584
I54
sg67
g1671
sbsg1766
(iconstruction
TP_SYNFORM
p2111
(dp2112
g584
I55
sg1769
(lp2113
(iconstruction
TP_SLOT
p2114
(dp2115
g1773
(lp2116
VNP
p2117
aVN
p2118
asg1776
I0
sg584
I64
sg67
g2060
sba(iconstruction
TP_PHON
p2119
(dp2120
g1779
I2
sg1776
I1
sg584
I65
sg1780
Vis
p2121
sg67
VS2_65
p2122
sba(iconstruction
TP_SLOT
p2123
(dp2124
g1773
(lp2125
VVP
p2126
aVV
p2127
asg1776
I2
sg584
I66
sg67
g2062
sba(iconstruction
TP_PHON
p2128
(dp2129
g1779
I2
sg1776
I3
sg584
I67
sg1780
V-ed
p2130
sg67
VS4_67
p2131
sba(iconstruction
TP_PHON
p2132
(dp2133
g1779
I2
sg1776
I4
sg584
I68
sg1780
Vby
p2134
sg67
VS5_68
p2135
sba(iconstruction
TP_SLOT
p2136
(dp2137
g1773
(lp2138
VNP
p2139
aVN
p2140
asg1776
I5
sg584
I69
sg67
g2064
sbasg67
g1671
sbsg1787
I1
sba(iconstruction
CXN
p2141
(dp2142
g1729
(iconstruction
TP_SYMLINKS
p2143
(dp2144
g1732
(dp2145
VACT_74
p2146
VS2_83
p2147
sVRCPT_77
p2148
VS3_84
p2149
sVTHEME_76
p2150
VS4_85
p2151
sVAGT_75
p2152
VS1_82
p2153
ssg584
I72
sg67
g1671
sbsg1738
VS
p2154
sg1740
I2
sg67
VDOUBLE_OBJ
p2155
sg1741
(iconstruction
TP_SEMFRAME
p2156
(dp2157
g97
g0
(g98
g2
Ntp2158
Rp2159
(dp2160
g102
(dp2161
(iconstruction
TP_NODE
p2162
(dp2163
g1750
I00
sg86
g586
sg67
g2146
sg1751
I01
sg1752
I00
sg584
I74
sb(dp2164
g1751
I01
sg86
g586
ss(iconstruction
TP_NODE
p2165
(dp2166
g1750
I00
sg86
g742
sg67
g2152
sg1751
I01
sg1752
I01
sg584
I75
sb(dp2167
g1751
I01
sg86
g742
ss(iconstruction
TP_NODE
p2168
(dp2169
g1750
I00
sg86
g742
sg67
g2150
sg1751
I01
sg1752
I00
sg584
I76
sb(dp2170
g1751
I01
sg86
g742
ss(iconstruction
TP_NODE
p2171
(dp2172
g1750
I01
sg86
g739
sg67
VEVT_73
p2173
sg1751
I01
sg1752
I00
sg584
I73
sb(dp2174
g1751
I01
sg86
g739
ss(iconstruction
TP_NODE
p2175
(dp2176
g1750
I00
sg86
g742
sg67
g2148
sg1751
I01
sg1752
I00
sg584
I77
sb(dp2177
g1751
I01
sg86
g742
sssg285
g286
sg287
g286
sg288
(dp2178
g2162
(dp2179
g2168
(dp2180
g86
g694
ssg2175
(dp2181
g86
g697
ssg2165
(dp2182
g86
g712
sssg2165
(dp2183
sg2168
(dp2184
sg2171
(dp2185
g2162
(dp2186
g86
g733
sssg2175
(dp2187
ssg482
g2178
sg97
(dp2188
sg484
g286
sg485
g2178
sg486
(dp2189
g2162
(dp2190
g2171
g2186
ssg2165
(dp2191
g2162
g2182
ssg2168
(dp2192
g2162
g2180
ssg2171
(dp2193
sg2175
(dp2194
g2162
g2181
sssbsg579
(lp2195
g2171
ag2162
ag2165
ag2168
ag2175
asg852
(lp2196
(iconstruction
TP_REL
p2197
(dp2198
g858
g2162
sg86
g733
sg584
I78
sg859
g2171
sg67
VIS_78
p2199
sba(iconstruction
TP_REL
p2200
(dp2201
g858
g2165
sg86
g712
sg584
I79
sg859
g2162
sg67
VACT_AGT_79
p2202
sba(iconstruction
TP_REL
p2203
(dp2204
g858
g2168
sg86
g694
sg584
I80
sg859
g2162
sg67
VACT_THEME_80
p2205
sba(iconstruction
TP_REL
p2206
(dp2207
g858
g2175
sg86
g697
sg584
I81
sg859
g2162
sg67
VACT_RCPT_81
p2208
sbasg584
I70
sg67
g1671
sbsg1766
(iconstruction
TP_SYNFORM
p2209
(dp2210
g584
I71
sg1769
(lp2211
(iconstruction
TP_SLOT
p2212
(dp2213
g1773
(lp2214
VNP
p2215
aVN
p2216
asg1776
I0
sg584
I82
sg67
g2153
sba(iconstruction
TP_SLOT
p2217
(dp2218
g1773
(lp2219
VVP
p2220
aVV
p2221
asg1776
I1
sg584
I83
sg67
g2147
sba(iconstruction
TP_SLOT
p2222
(dp2223
g1773
(lp2224
VNP
p2225
aVN
p2226
asg1776
I2
sg584
I84
sg67
g2149
sba(iconstruction
TP_SLOT
p2227
(dp2228
g1773
(lp2229
VNP
p2230
aVN
p2231
asg1776
I3
sg584
I85
sg67
g2151
sbasg67
g1671
sbsg1787
I1
sba(iconstruction
CXN
p2232
(dp2233
g1729
(iconstruction
TP_SYMLINKS
p2234
(dp2235
g1732
(dp2236
VAGT_91
p2237
VS1_98
p2238
sVRCPT_93
p2239
VS5_102
p2240
sVACT_90
p2241
VS2_99
p2242
sVTHEME_92
p2243
VS3_100
p2244
ssg584
I88
sg67
g1671
sbsg1738
VS
p2245
sg1740
I2
sg67
VOBLIQUE_DATIVE
p2246
sg1741
(iconstruction
TP_SEMFRAME
p2247
(dp2248
g97
g0
(g98
g2
Ntp2249
Rp2250
(dp2251
g102
(dp2252
(iconstruction
TP_NODE
p2253
(dp2254
g1750
I00
sg86
g742
sg67
g2237
sg1751
I01
sg1752
I01
sg584
I91
sb(dp2255
g1751
I01
sg86
g742
ss(iconstruction
TP_NODE
p2256
(dp2257
g1750
I00
sg86
g634
sg67
g2241
sg1751
I01
sg1752
I00
sg584
I90
sb(dp2258
g1751
I01
sg86
g634
ss(iconstruction
TP_NODE
p2259
(dp2260
g1750
I00
sg86
g742
sg67
g2239
sg1751
I01
sg1752
I00
sg584
I93
sb(dp2261
g1751
I01
sg86
g742
ss(iconstruction
TP_NODE
p2262
(dp2263
g1750
I01
sg86
g739
sg67
VEVT_89
p2264
sg1751
I01
sg1752
I00
sg584
I89
sb(dp2265
g1751
I01
sg86
g739
ss(iconstruction
TP_NODE
p2266
(dp2267
g1750
I00
sg86
g742
sg67
g2243
sg1751
I01
sg1752
I00
sg584
I92
sb(dp2268
g1751
I01
sg86
g742
sssg285
g286
sg287
g286
sg288
(dp2269
g2253
(dp2270
sg2256
(dp2271
g2253
(dp2272
g86
g712
ssg2259
(dp2273
g86
g697
ssg2266
(dp2274
g86
g694
sssg2259
(dp2275
sg2262
(dp2276
g2256
(dp2277
g86
g733
sssg2266
(dp2278
ssg482
g2269
sg97
(dp2279
sg484
g286
sg485
g2269
sg486
(dp2280
g2253
(dp2281
g2256
g2272
ssg2256
(dp2282
g2262
g2277
ssg2259
(dp2283
g2256
g2273
ssg2262
(dp2284
sg2266
(dp2285
g2256
g2274
sssbsg579
(lp2286
g2262
ag2256
ag2253
ag2266
ag2259
asg852
(lp2287
(iconstruction
TP_REL
p2288
(dp2289
g858
g2256
sg86
g733
sg584
I94
sg859
g2262
sg67
VIS_94
p2290
sba(iconstruction
TP_REL
p2291
(dp2292
g858
g2253
sg86
g712
sg584
I95
sg859
g2256
sg67
VACT_AGT_95
p2293
sba(iconstruction
TP_REL
p2294
(dp2295
g858
g2266
sg86
g694
sg584
I96
sg859
g2256
sg67
VACT_THEME_96
p2296
sba(iconstruction
TP_REL
p2297
(dp2298
g858
g2259
sg86
g697
sg584
I97
sg859
g2256
sg67
VACT_RCPT_97
p2299
sbasg584
I86
sg67
g1671
sbsg1766
(iconstruction
TP_SYNFORM
p2300
(dp2301
g584
I87
sg1769
(lp2302
(iconstruction
TP_SLOT
p2303
(dp2304
g1773
(lp2305
VNP
p2306
aVN
p2307
asg1776
I0
sg584
I98
sg67
g2238
sba(iconstruction
TP_SLOT
p2308
(dp2309
g1773
(lp2310
VVP
p2311
aVV
p2312
asg1776
I1
sg584
I99
sg67
g2242
sba(iconstruction
TP_SLOT
p2313
(dp2314
g1773
(lp2315
VNP
p2316
aVN
p2317
asg1776
I2
sg584
I100
sg67
g2244
sba(iconstruction
TP_PHON
p2318
(dp2319
g1779
I2
sg1776
I3
sg584
I101
sg1780
Vto
p2320
sg67
VS4_101
p2321
sba(iconstruction
TP_SLOT
p2322
(dp2323
g1773
(lp2324
VNP
p2325
aVN
p2326
asg1776
I4
sg584
I102
sg67
g2240
sbasg67
g1671
sbsg1787
I1
sba(iconstruction
CXN
p2327
(dp2328
g1729
(iconstruction
TP_SYMLINKS
p2329
(dp2330
g1732
(dp2331
VATTR_108
p2332
VS3_113
p2333
sVENT_107
p2334
VS1_111
p2335
ssg584
I105
sg67
g1671
sbsg1738
VS
p2336
sg1740
I2
sg67
VSPA
p2337
sg1741
(iconstruction
TP_SEMFRAME
p2338
(dp2339
g97
g0
(g98
g2
Ntp2340
Rp2341
(dp2342
g102
(dp2343
(iconstruction
TP_NODE
p2344
(dp2345
g1750
I00
sg86
g742
sg67
g2334
sg1751
I01
sg1752
I01
sg584
I107
sb(dp2346
g1751
I01
sg86
g742
ss(iconstruction
TP_NODE
p2347
(dp2348
g1750
I00
sg86
g643
sg67
g2332
sg1751
I00
sg1752
I00
sg584
I108
sb(dp2349
g1751
I00
sg86
g643
ss(iconstruction
TP_NODE
p2350
(dp2351
g1750
I01
sg86
g739
sg67
VEVT_106
p2352
sg1751
I01
sg1752
I00
sg584
I106
sb(dp2353
g1751
I01
sg86
g739
sssg285
g286
sg287
g286
sg288
(dp2354
g2344
(dp2355
sg2347
(dp2356
sg2350
(dp2357
g2344
(dp2358
g86
g733
ssg2347
(dp2359
g86
g691
ssssg482
g2354
sg97
(dp2360
sg484
g286
sg485
g2354
sg486
(dp2361
g2344
(dp2362
g2350
g2358
ssg2347
(dp2363
g2350
g2359
ssg2350
(dp2364
ssbsg579
(lp2365
g2350
ag2344
ag2347
asg852
(lp2366
(iconstruction
TP_REL
p2367
(dp2368
g858
g2344
sg86
g733
sg584
I109
sg859
g2350
sg67
VIS_109
p2369
sba(iconstruction
TP_REL
p2370
(dp2371
g858
g2347
sg86
g691
sg584
I110
sg859
g2350
sg67
VEVT_ATTR_110
p2372
sbasg584
I103
sg67
g1671
sbsg1766
(iconstruction
TP_SYNFORM
p2373
(dp2374
g584
I104
sg1769
(lp2375
(iconstruction
TP_SLOT
p2376
(dp2377
g1773
(lp2378
VNP
p2379
aVN
p2380
asg1776
I0
sg584
I111
sg67
g2335
sba(iconstruction
TP_PHON
p2381
(dp2382
g1779
I2
sg1776
I1
sg584
I112
sg1780
Vis
p2383
sg67
VS2_112
p2384
sba(iconstruction
TP_SLOT
p2385
(dp2386
g1773
(lp2387
VA
p2388
asg1776
I2
sg584
I113
sg67
g2333
sbasg67
g1671
sbsg1787
I1
sba(iconstruction
CXN
p2389
(dp2390
g1729
(iconstruction
TP_SYMLINKS
p2391
(dp2392
g1732
(dp2393
VAGT_119
p2394
VS1_122
p2395
sVACT_118
p2396
VS2_123
p2397
ssg584
I116
sg67
g1671
sbsg1738
VS
p2398
sg1740
I2
sg67
VSV
p2399
sg1741
(iconstruction
TP_SEMFRAME
p2400
(dp2401
g97
g0
(g98
g2
Ntp2402
Rp2403
(dp2404
g102
(dp2405
(iconstruction
TP_NODE
p2406
(dp2407
g1750
I01
sg86
g739
sg67
VEVT_117
p2408
sg1751
I01
sg1752
I00
sg584
I117
sb(dp2409
g1751
I01
sg86
g739
ss(iconstruction
TP_NODE
p2410
(dp2411
g1750
I00
sg86
g742
sg67
g2394
sg1751
I01
sg1752
I01
sg584
I119
sb(dp2412
g1751
I01
sg86
g742
ss(iconstruction
TP_NODE
p2413
(dp2414
g1750
I00
sg86
g598
sg67
g2396
sg1751
I01
sg1752
I00
sg584
I118
sb(dp2415
g1751
I01
sg86
g598
sssg285
g286
sg287
g286
sg288
(dp2416
g2406
(dp2417
g2413
(dp2418
g86
g733
sssg2410
(dp2419
sg2413
(dp2420
g2410
(dp2421
g86
g712
ssssg482
g2416
sg97
(dp2422
sg484
g286
sg485
g2416
sg486
(dp2423
g2406
(dp2424
sg2410
(dp2425
g2413
g2421
ssg2413
(dp2426
g2406
g2418
sssbsg579
(lp2427
g2406
ag2413
ag2410
asg852
(lp2428
(iconstruction
TP_REL
p2429
(dp2430
g858
g2413
sg86
g733
sg584
I120
sg859
g2406
sg67
VIS_120
p2431
sba(iconstruction
TP_REL
p2432
(dp2433
g858
g2410
sg86
g712
sg584
I121
sg859
g2413
sg67
VACT_AGT_121
p2434
sbasg584
I114
sg67
g1671
sbsg1766
(iconstruction
TP_SYNFORM
p2435
(dp2436
g584
I115
sg1769
(lp2437
(iconstruction
TP_SLOT
p2438
(dp2439
g1773
(lp2440
VNP
p2441
aVN
p2442
asg1776
I0
sg584
I122
sg67
g2395
sba(iconstruction
TP_SLOT
p2443
(dp2444
g1773
(lp2445
VVP
p2446
aVV
p2447
asg1776
I1
sg584
I123
sg67
g2397
sbasg67
g1671
sbsg1787
I1
sba(iconstruction
CXN
p2448
(dp2449
g1729
(iconstruction
TP_SYMLINKS
p2450
(dp2451
g1732
(dp2452
VEVT_127
p2453
VS1_130
p2454
sVPLACE_128
p2455
VS3_132
p2456
ssg584
I126
sg67
g1671
sbsg1738
VS
p2457
sg1740
I2
sg67
VPP_IN
p2458
sg1741
(iconstruction
TP_SEMFRAME
p2459
(dp2460
g97
g0
(g98
g2
Ntp2461
Rp2462
(dp2463
g102
(dp2464
(iconstruction
TP_NODE
p2465
(dp2466
g1750
I01
sg86
g739
sg67
g2453
sg1751
I01
sg1752
I00
sg584
I127
sb(dp2467
g1751
I01
sg86
g739
ss(iconstruction
TP_NODE
p2468
(dp2469
g1750
I00
sg86
g742
sg67
g2455
sg1751
I01
sg1752
I00
sg584
I128
sb(dp2470
g1751
I01
sg86
g742
sssg285
g286
sg287
g286
sg288
(dp2471
g2465
(dp2472
g2468
(dp2473
g86
g730
sssg2468
(dp2474
ssg482
g2471
sg97
(dp2475
sg484
g286
sg485
g2471
sg486
(dp2476
g2465
(dp2477
sg2468
(dp2478
g2465
g2473
sssbsg579
(lp2479
g2465
ag2468
asg852
(lp2480
(iconstruction
TP_REL
p2481
(dp2482
g858
g2468
sg86
g730
sg584
I129
sg859
g2465
sg67
VEVT_PP_129
p2483
sbasg584
I124
sg67
g1671
sbsg1766
(iconstruction
TP_SYNFORM
p2484
(dp2485
g584
I125
sg1769
(lp2486
(iconstruction
TP_SLOT
p2487
(dp2488
g1773
(lp2489
VS
p2490
asg1776
I0
sg584
I130
sg67
g2454
sba(iconstruction
TP_PHON
p2491
(dp2492
g1779
I2
sg1776
I1
sg584
I131
sg1780
Vin
p2493
sg67
VS2_131
p2494
sba(iconstruction
TP_SLOT
p2495
(dp2496
g1773
(lp2497
VNP
p2498
aVN
p2499
asg1776
I2
sg584
I132
sg67
g2456
sbasg67
g1671
sbsg1787
I1
sba(iconstruction
CXN
p2500
(dp2501
g1729
(iconstruction
TP_SYMLINKS
p2502
(dp2503
g1732
(dp2504
VEVT2_137
p2505
VS2_140
p2506
sVEVT1_136
p2507
VS1_139
p2508
ssg584
I135
sg67
g1671
sbsg1738
VS
p2509
sg1740
I2
sg67
VS_PP
p2510
sg1741
(iconstruction
TP_SEMFRAME
p2511
(dp2512
g97
g0
(g98
g2
Ntp2513
Rp2514
(dp2515
g102
(dp2516
(iconstruction
TP_NODE
p2517
(dp2518
g1750
I00
sg86
g739
sg67
g2505
sg1751
I01
sg1752
I00
sg584
I137
sb(dp2519
g1751
I01
sg86
g739
ss(iconstruction
TP_NODE
p2520
(dp2521
g1750
I01
sg86
g739
sg67
g2507
sg1751
I01
sg1752
I01
sg584
I136
sb(dp2522
g1751
I01
sg86
g739
sssg285
g286
sg287
g286
sg288
(dp2523
g2517
(dp2524
sg2520
(dp2525
g2517
(dp2526
g86
g691
ssssg482
g2523
sg97
(dp2527
sg484
g286
sg485
g2523
sg486
(dp2528
g2517
(dp2529
g2520
g2526
ssg2520
(dp2530
ssbsg579
(lp2531
g2520
ag2517
asg852
(lp2532
(iconstruction
TP_REL
p2533
(dp2534
g858
g2517
sg86
g691
sg584
I138
sg859
g2520
sg67
VMOD_138
p2535
sbasg584
I133
sg67
g1671
sbsg1766
(iconstruction
TP_SYNFORM
p2536
(dp2537
g584
I134
sg1769
(lp2538
(iconstruction
TP_SLOT
p2539
(dp2540
g1773
(lp2541
VS
p2542
asg1776
I0
sg584
I139
sg67
g2508
sba(iconstruction
TP_SLOT
p2543
(dp2544
g1773
(lp2545
VPP
p2546
asg1776
I1
sg584
I140
sg67
g2506
sbasg67
g1671
sbsg1787
I1
sba(iconstruction
CXN
p2547
(dp2548
g1729
(iconstruction
TP_SYMLINKS
p2549
(dp2550
g1732
(dp2551
VENT_144
p2552
VS2_148
p2553
sVATTR_145
p2554
VS1_147
p2555
ssg584
I143
sg67
g1671
sbsg1738
VN
p2556
sg1740
I2
sg67
VADJUNCT_N
p2557
sg1741
(iconstruction
TP_SEMFRAME
p2558
(dp2559
g97
g0
(g98
g2
Ntp2560
Rp2561
(dp2562
g102
(dp2563
(iconstruction
TP_NODE
p2564
(dp2565
g1750
I01
sg86
g742
sg67
g2552
sg1751
I01
sg1752
I00
sg584
I144
sb(dp2566
g1751
I01
sg86
g742
ss(iconstruction
TP_NODE
p2567
(dp2568
g1750
I00
sg86
g643
sg67
g2554
sg1751
I00
sg1752
I00
sg584
I145
sb(dp2569
g1751
I00
sg86
g643
sssg285
g286
sg287
g286
sg288
(dp2570
g2564
(dp2571
g2567
(dp2572
g86
g691
sssg2567
(dp2573
ssg482
g2570
sg97
(dp2574
sg484
g286
sg485
g2570
sg486
(dp2575
g2564
(dp2576
sg2567
(dp2577
g2564
g2572
sssbsg579
(lp2578
g2564
ag2567
asg852
(lp2579
(iconstruction
TP_REL
p2580
(dp2581
g858
g2567
sg86
g691
sg584
I146
sg859
g2564
sg67
VENT_ATTR_146
p2582
sbasg584
I141
sg67
g1671
sbsg1766
(iconstruction
TP_SYNFORM
p2583
(dp2584
g584
I142
sg1769
(lp2585
(iconstruction
TP_SLOT
p2586
(dp2587
g1773
(lp2588
VA
p2589
asg1776
I0
sg584
I147
sg67
g2555
sba(iconstruction
TP_SLOT
p2590
(dp2591
g1773
(lp2592
VN
p2593
asg1776
I1
sg584
I148
sg67
g2553
sbasg67
g1671
sbsg1787
I1
sba(iconstruction
CXN
p2594
(dp2595
g1729
(iconstruction
TP_SYMLINKS
p2596
(dp2597
g1732
(dp2598
VAGT_154
p2599
VS1_160
p2600
sVACT_153
p2601
VS3_162
p2602
sVPT_155
p2603
VS4_163
p2604
ssg584
I151
sg67
g1671
sbsg1738
VN
p2605
sg1740
I2
sg67
VSUBJ_REL_SVO
p2606
sg1741
(iconstruction
TP_SEMFRAME
p2607
(dp2608
g97
g0
(g98
g2
Ntp2609
Rp2610
(dp2611
g102
(dp2612
(iconstruction
TP_NODE
p2613
(dp2614
g1750
I00
sg86
g739
sg67
VEVT_152
p2615
sg1751
I01
sg1752
I00
sg584
I152
sb(dp2616
g1751
I01
sg86
g739
ss(iconstruction
TP_NODE
p2617
(dp2618
g1750
I01
sg86
g742
sg67
g2599
sg1751
I01
sg1752
I00
sg584
I154
sb(dp2619
g1751
I01
sg86
g742
ss(iconstruction
TP_NODE
p2620
(dp2621
g1750
I00
sg86
g742
sg67
g2603
sg1751
I01
sg1752
I00
sg584
I155
sb(dp2622
g1751
I01
sg86
g742
ss(iconstruction
TP_NODE
p2623
(dp2624
g1750
I00
sg86
g604
sg67
g2601
sg1751
I01
sg1752
I01
sg584
I153
sb(dp2625
g1751
I01
sg86
g604
sssg285
g286
sg287
g286
sg288
(dp2626
g2613
(dp2627
g2623
(dp2628
g86
g733
sssg2617
(dp2629
g2613
(dp2630
g86
g691
sssg2620
(dp2631
sg2623
(dp2632
g2617
(dp2633
g86
g712
ssg2620
(dp2634
g86
g706
ssssg482
g2626
sg97
(dp2635
sg484
g286
sg485
g2626
sg486
(dp2636
g2613
(dp2637
g2617
g2630
ssg2617
(dp2638
g2623
g2633
ssg2620
(dp2639
g2623
g2634
ssg2623
(dp2640
g2613
g2628
sssbsg579
(lp2641
g2613
ag2623
ag2617
ag2620
asg852
(lp2642
(iconstruction
TP_REL
p2643
(dp2644
g858
g2623
sg86
g733
sg584
I156
sg859
g2613
sg67
VIS_156
p2645
sba(iconstruction
TP_REL
p2646
(dp2647
g858
g2617
sg86
g712
sg584
I157
sg859
g2623
sg67
VACT_AGT_157
p2648
sba(iconstruction
TP_REL
p2649
(dp2650
g858
g2620
sg86
g706
sg584
I158
sg859
g2623
sg67
VACT_PT_158
p2651
sba(iconstruction
TP_REL
p2652
(dp2653
g858
g2613
sg86
g691
sg584
I159
sg859
g2617
sg67
VAGT_EVT_159
p2654
sbasg584
I149
sg67
g1671
sbsg1766
(iconstruction
TP_SYNFORM
p2655
(dp2656
g584
I150
sg1769
(lp2657
(iconstruction
TP_SLOT
p2658
(dp2659
g1773
(lp2660
VN
p2661
asg1776
I0
sg584
I160
sg67
g2600
sba(iconstruction
TP_PHON
p2662
(dp2663
g1779
I4
sg1776
I1
sg584
I161
sg1780
Vthat
p2664
sg67
VS2_161
p2665
sba(iconstruction
TP_SLOT
p2666
(dp2667
g1773
(lp2668
VVP
p2669
aVV
p2670
asg1776
I2
sg584
I162
sg67
g2602
sba(iconstruction
TP_SLOT
p2671
(dp2672
g1773
(lp2673
VNP
p2674
aVN
p2675
asg1776
I3
sg584
I163
sg67
g2604
sbasg67
g1671
sbsg1787
I1
sba(iconstruction
CXN
p2676
(dp2677
g1729
(iconstruction
TP_SYMLINKS
p2678
(dp2679
g1732
(dp2680
VAGT_169
p2681
VS1_173
p2682
sVACT_168
p2683
VS3_175
p2684
ssg584
I166
sg67
g1671
sbsg1738
VN
p2685
sg1740
I2
sg67
VSUBJ_REL_SV
p2686
sg1741
(iconstruction
TP_SEMFRAME
p2687
(dp2688
g97
g0
(g98
g2
Ntp2689
Rp2690
(dp2691
g102
(dp2692
(iconstruction
TP_NODE
p2693
(dp2694
g1750
I00
sg86
g586
sg67
g2683
sg1751
I01
sg1752
I01
sg584
I168
sb(dp2695
g1751
I01
sg86
g586
ss(iconstruction
TP_NODE
p2696
(dp2697
g1750
I01
sg86
g742
sg67
g2681
sg1751
I01
sg1752
I00
sg584
I169
sb(dp2698
g1751
I01
sg86
g742
ss(iconstruction
TP_NODE
p2699
(dp2700
g1750
I00
sg86
g739
sg67
VEVT_167
p2701
sg1751
I01
sg1752
I00
sg584
I167
sb(dp2702
g1751
I01
sg86
g739
sssg285
g286
sg287
g286
sg288
(dp2703
g2693
(dp2704
g2696
(dp2705
g86
g712
sssg2696
(dp2706
g2699
(dp2707
g86
g691
sssg2699
(dp2708
g2693
(dp2709
g86
g733
ssssg482
g2703
sg97
(dp2710
sg484
g286
sg485
g2703
sg486
(dp2711
g2693
(dp2712
g2699
g2709
ssg2696
(dp2713
g2693
g2705
ssg2699
(dp2714
g2696
g2707
sssbsg579
(lp2715
g2699
ag2693
ag2696
asg852
(lp2716
(iconstruction
TP_REL
p2717
(dp2718
g858
g2693
sg86
g733
sg584
I170
sg859
g2699
sg67
VIS_170
p2719
sba(iconstruction
TP_REL
p2720
(dp2721
g858
g2696
sg86
g712
sg584
I171
sg859
g2693
sg67
VACT_AGT_171
p2722
sba(iconstruction
TP_REL
p2723
(dp2724
g858
g2699
sg86
g691
sg584
I172
sg859
g2696
sg67
VAGT_EVT_172
p2725
sbasg584
I164
sg67
g1671
sbsg1766
(iconstruction
TP_SYNFORM
p2726
(dp2727
g584
I165
sg1769
(lp2728
(iconstruction
TP_SLOT
p2729
(dp2730
g1773
(lp2731
VN
p2732
asg1776
I0
sg584
I173
sg67
g2682
sba(iconstruction
TP_PHON
p2733
(dp2734
g1779
I4
sg1776
I1
sg584
I174
sg1780
Vthat
p2735
sg67
VS2_174
p2736
sba(iconstruction
TP_SLOT
p2737
(dp2738
g1773
(lp2739
VVP
p2740
aVV
p2741
asg1776
I2
sg584
I175
sg67
g2684
sbasg67
g1671
sbsg1787
I1
sba(iconstruction
CXN
p2742
(dp2743
g1729
(iconstruction
TP_SYMLINKS
p2744
(dp2745
g1732
(dp2746
VAGT_181
p2747
VS7_193
p2748
sVPT_182
p2749
VS1_187
p2750
sVACT_180
p2751
VS4_190
p2752
ssg584
I178
sg67
g1671
sbsg1738
VN
p2753
sg1740
I2
sg67
VSUBJ_REL_PAS_SVO
p2754
sg1741
(iconstruction
TP_SEMFRAME
p2755
(dp2756
g97
g0
(g98
g2
Ntp2757
Rp2758
(dp2759
g102
(dp2760
(iconstruction
TP_NODE
p2761
(dp2762
g1750
I00
sg86
g586
sg67
g2751
sg1751
I01
sg1752
I01
sg584
I180
sb(dp2763
g1751
I01
sg86
g586
ss(iconstruction
TP_NODE
p2764
(dp2765
g1750
I00
sg86
g742
sg67
g2747
sg1751
I01
sg1752
I00
sg584
I181
sb(dp2766
g1751
I01
sg86
g742
ss(iconstruction
TP_NODE
p2767
(dp2768
g1750
I00
sg86
g739
sg67
VEVT_179
p2769
sg1751
I01
sg1752
I00
sg584
I179
sb(dp2770
g1751
I01
sg86
g739
ss(iconstruction
TP_NODE
p2771
(dp2772
g1750
I01
sg86
g742
sg67
g2749
sg1751
I01
sg1752
I00
sg584
I182
sb(dp2773
g1751
I01
sg86
g742
sssg285
g286
sg287
g286
sg288
(dp2774
g2761
(dp2775
g2771
(dp2776
g86
g706
ssg2764
(dp2777
g86
g712
sssg2764
(dp2778
sg2767
(dp2779
g2761
(dp2780
g86
g733
sssg2771
(dp2781
g2767
(dp2782
g86
g691
ssssg482
g2774
sg97
(dp2783
sg484
g286
sg485
g2774
sg486
(dp2784
g2761
(dp2785
g2767
g2780
ssg2764
(dp2786
g2761
g2777
ssg2767
(dp2787
g2771
g2782
ssg2771
(dp2788
g2761
g2776
sssbsg579
(lp2789
g2767
ag2761
ag2764
ag2771
asg852
(lp2790
(iconstruction
TP_REL
p2791
(dp2792
g858
g2761
sg86
g733
sg584
I183
sg859
g2767
sg67
VIS_183
p2793
sba(iconstruction
TP_REL
p2794
(dp2795
g858
g2764
sg86
g712
sg584
I184
sg859
g2761
sg67
VACT_AGT_184
p2796
sba(iconstruction
TP_REL
p2797
(dp2798
g858
g2771
sg86
g706
sg584
I185
sg859
g2761
sg67
VACT_PT_185
p2799
sba(iconstruction
TP_REL
p2800
(dp2801
g858
g2767
sg86
g691
sg584
I186
sg859
g2771
sg67
VPT_EVT_186
p2802
sbasg584
I176
sg67
g1671
sbsg1766
(iconstruction
TP_SYNFORM
p2803
(dp2804
g584
I177
sg1769
(lp2805
(iconstruction
TP_SLOT
p2806
(dp2807
g1773
(lp2808
VN
p2809
asg1776
I0
sg584
I187
sg67
g2750
sba(iconstruction
TP_PHON
p2810
(dp2811
g1779
I4
sg1776
I1
sg584
I188
sg1780
Vthat
p2812
sg67
VS2_188
p2813
sba(iconstruction
TP_PHON
p2814
(dp2815
g1779
I2
sg1776
I2
sg584
I189
sg1780
Vis
p2816
sg67
VS3_189
p2817
sba(iconstruction
TP_SLOT
p2818
(dp2819
g1773
(lp2820
VVP
p2821
aVV
p2822
asg1776
I3
sg584
I190
sg67
g2752
sba(iconstruction
TP_PHON
p2823
(dp2824
g1779
I2
sg1776
I4
sg584
I191
sg1780
V-ed
p2825
sg67
VS5_191
p2826
sba(iconstruction
TP_PHON
p2827
(dp2828
g1779
I2
sg1776
I5
sg584
I192
sg1780
Vby
p2829
sg67
VS6_192
p2830
sba(iconstruction
TP_SLOT
p2831
(dp2832
g1773
(lp2833
VNP
p2834
aVN
p2835
asg1776
I6
sg584
I193
sg67
g2748
sbasg67
g1671
sbsg1787
I1
sba(iconstruction
CXN
p2836
(dp2837
g1729
(iconstruction
TP_SYMLINKS
p2838
(dp2839
g1732
(dp2840
VAGT_199
p2841
VS3_207
p2842
sVACT_198
p2843
VS4_208
p2844
sVPT_200
p2845
VS1_205
p2846
ssg584
I196
sg67
g1671
sbsg1738
VN
p2847
sg1740
I2
sg67
VOBJ_REL_SVO
p2848
sg1741
(iconstruction
TP_SEMFRAME
p2849
(dp2850
g97
g0
(g98
g2
Ntp2851
Rp2852
(dp2853
g102
(dp2854
(iconstruction
TP_NODE
p2855
(dp2856
g1750
I00
sg86
g739
sg67
VEVT_197
p2857
sg1751
I01
sg1752
I00
sg584
I197
sb(dp2858
g1751
I01
sg86
g739
ss(iconstruction
TP_NODE
p2859
(dp2860
g1750
I00
sg86
g742
sg67
g2841
sg1751
I01
sg1752
I00
sg584
I199
sb(dp2861
g1751
I01
sg86
g742
ss(iconstruction
TP_NODE
p2862
(dp2863
g1750
I01
sg86
g742
sg67
g2845
sg1751
I01
sg1752
I00
sg584
I200
sb(dp2864
g1751
I01
sg86
g742
ss(iconstruction
TP_NODE
p2865
(dp2866
g1750
I00
sg86
g586
sg67
g2843
sg1751
I01
sg1752
I01
sg584
I198
sb(dp2867
g1751
I01
sg86
g586
sssg285
g286
sg287
g286
sg288
(dp2868
g2855
(dp2869
g2865
(dp2870
g86
g733
sssg2859
(dp2871
sg2862
(dp2872
g2855
(dp2873
g86
g691
sssg2865
(dp2874
g2859
(dp2875
g86
g712
ssg2862
(dp2876
g86
g706
ssssg482
g2868
sg97
(dp2877
sg484
g286
sg485
g2868
sg486
(dp2878
g2855
(dp2879
g2862
g2873
ssg2859
(dp2880
g2865
g2875
ssg2862
(dp2881
g2865
g2876
ssg2865
(dp2882
g2855
g2870
sssbsg579
(lp2883
g2855
ag2865
ag2859
ag2862
asg852
(lp2884
(iconstruction
TP_REL
p2885
(dp2886
g858
g2865
sg86
g733
sg584
I201
sg859
g2855
sg67
VIS_201
p2887
sba(iconstruction
TP_REL
p2888
(dp2889
g858
g2859
sg86
g712
sg584
I202
sg859
g2865
sg67
VACT_AGT_202
p2890
sba(iconstruction
TP_REL
p2891
(dp2892
g858
g2862
sg86
g706
sg584
I203
sg859
g2865
sg67
VACT_PT_203
p2893
sba(iconstruction
TP_REL
p2894
(dp2895
g858
g2855
sg86
g691
sg584
I204
sg859
g2862
sg67
VPT_EVT_204
p2896
sbasg584
I194
sg67
g1671
sbsg1766
(iconstruction
TP_SYNFORM
p2897
(dp2898
g584
I195
sg1769
(lp2899
(iconstruction
TP_SLOT
p2900
(dp2901
g1773
(lp2902
VN
p2903
asg1776
I0
sg584
I205
sg67
g2846
sba(iconstruction
TP_PHON
p2904
(dp2905
g1779
I4
sg1776
I1
sg584
I206
sg1780
Vthat
p2906
sg67
VS2_206
p2907
sba(iconstruction
TP_SLOT
p2908
(dp2909
g1773
(lp2910
VNP
p2911
aVN
p2912
asg1776
I2
sg584
I207
sg67
g2842
sba(iconstruction
TP_SLOT
p2913
(dp2914
g1773
(lp2915
VVP
p2916
aVV
p2917
asg1776
I3
sg584
I208
sg67
g2844
sbasg67
g1671
sbsg1787
I1
sba(iconstruction
CXN
p2918
(dp2919
g1729
(iconstruction
TP_SYMLINKS
p2920
(dp2921
g1732
(dp2922
VPT_215
p2923
VS3_222
p2924
sVACT_213
p2925
VS5_224
p2926
sVAGT_214
p2927
VS1_220
p2928
ssg584
I211
sg67
g1671
sbsg1738
VN
p2929
sg1740
I2
sg67
VOBJ_REL_PAS_SVO
p2930
sg1741
(iconstruction
TP_SEMFRAME
p2931
(dp2932
g97
g0
(g98
g2
Ntp2933
Rp2934
(dp2935
g102
(dp2936
(iconstruction
TP_NODE
p2937
(dp2938
g1750
I00
sg86
g586
sg67
g2925
sg1751
I01
sg1752
I01
sg584
I213
sb(dp2939
g1751
I01
sg86
g586
ss(iconstruction
TP_NODE
p2940
(dp2941
g1750
I01
sg86
g742
sg67
g2927
sg1751
I01
sg1752
I00
sg584
I214
sb(dp2942
g1751
I01
sg86
g742
ss(iconstruction
TP_NODE
p2943
(dp2944
g1750
I00
sg86
g742
sg67
g2923
sg1751
I01
sg1752
I00
sg584
I215
sb(dp2945
g1751
I01
sg86
g742
ss(iconstruction
TP_NODE
p2946
(dp2947
g1750
I00
sg86
g739
sg67
VEVT_212
p2948
sg1751
I01
sg1752
I00
sg584
I212
sb(dp2949
g1751
I01
sg86
g739
sssg285
g286
sg287
g286
sg288
(dp2950
g2937
(dp2951
g2943
(dp2952
g86
g706
ssg2940
(dp2953
g86
g712
sssg2940
(dp2954
g2946
(dp2955
g86
g691
sssg2943
(dp2956
sg2946
(dp2957
g2937
(dp2958
g86
g733
ssssg482
g2950
sg97
(dp2959
sg484
g286
sg485
g2950
sg486
(dp2960
g2937
(dp2961
g2946
g2958
ssg2940
(dp2962
g2937
g2953
ssg2943
(dp2963
g2937
g2952
ssg2946
(dp2964
g2940
g2955
sssbsg579
(lp2965
g2946
ag2937
ag2940
ag2943
asg852
(lp2966
(iconstruction
TP_REL
p2967
(dp2968
g858
g2937
sg86
g733
sg584
I216
sg859
g2946
sg67
VIS_216
p2969
sba(iconstruction
TP_REL
p2970
(dp2971
g858
g2940
sg86
g712
sg584
I217
sg859
g2937
sg67
VACT_AGT_217
p2972
sba(iconstruction
TP_REL
p2973
(dp2974
g858
g2943
sg86
g706
sg584
I218
sg859
g2937
sg67
VACT_PT_218
p2975
sba(iconstruction
TP_REL
p2976
(dp2977
g858
g2946
sg86
g691
sg584
I219
sg859
g2940
sg67
VAGT_EVT_219
p2978
sbasg584
I209
sg67
g1671
sbsg1766
(iconstruction
TP_SYNFORM
p2979
(dp2980
g584
I210
sg1769
(lp2981
(iconstruction
TP_SLOT
p2982
(dp2983
g1773
(lp2984
VN
p2985
asg1776
I0
sg584
I220
sg67
g2928
sba(iconstruction
TP_PHON
p2986
(dp2987
g1779
I4
sg1776
I1
sg584
I221
sg1780
Vthat
p2988
sg67
VS2_221
p2989
sba(iconstruction
TP_SLOT
p2990
(dp2991
g1773
(lp2992
VNP
p2993
aVN
p2994
asg1776
I2
sg584
I222
sg67
g2924
sba(iconstruction
TP_PHON
p2995
(dp2996
g1779
I2
sg1776
I3
sg584
I223
sg1780
Vis
p2997
sg67
VS4_223
p2998
sba(iconstruction
TP_SLOT
p2999
(dp3000
g1773
(lp3001
VVP
p3002
aVV
p3003
asg1776
I4
sg584
I224
sg67
g2926
sba(iconstruction
TP_PHON
p3004
(dp3005
g1779
I2
sg1776
I5
sg584
I225
sg1780
V-ed
p3006
sg67
VS6_225
p3007
sba(iconstruction
TP_PHON
p3008
(dp3009
g1779
I2
sg1776
I6
sg584
I226
sg1780
Vby
p3010
sg67
VS7_226
p3011
sbasg67
g1671
sbsg1787
I1
sba(iconstruction
CXN
p3012
(dp3013
g1729
(iconstruction
TP_SYMLINKS
p3014
(dp3015
g1732
(dp3016
VATTR_232
p3017
VS4_238
p3018
sVENT_231
p3019
VS1_235
p3020
ssg584
I229
sg67
g1671
sbsg1738
VN
p3021
sg1740
I2
sg67
VREL_SPA
p3022
sg1741
(iconstruction
TP_SEMFRAME
p3023
(dp3024
g97
g0
(g98
g2
Ntp3025
Rp3026
(dp3027
g102
(dp3028
(iconstruction
TP_NODE
p3029
(dp3030
g1750
I01
sg86
g742
sg67
g3019
sg1751
I01
sg1752
I01
sg584
I231
sb(dp3031
g1751
I01
sg86
g742
ss(iconstruction
TP_NODE
p3032
(dp3033
g1750
I00
sg86
g643
sg67
g3017
sg1751
I00
sg1752
I00
sg584
I232
sb(dp3034
g1751
I00
sg86
g643
ss(iconstruction
TP_NODE
p3035
(dp3036
g1750
I00
sg86
g739
sg67
VEVT_230
p3037
sg1751
I01
sg1752
I00
sg584
I230
sb(dp3038
g1751
I01
sg86
g739
sssg285
g286
sg287
g286
sg288
(dp3039
g3029
(dp3040
sg3032
(dp3041
sg3035
(dp3042
g3029
(dp3043
g86
g733
ssg3032
(dp3044
g86
g691
ssssg482
g3039
sg97
(dp3045
sg484
g286
sg485
g3039
sg486
(dp3046
g3029
(dp3047
g3035
g3043
ssg3032
(dp3048
g3035
g3044
ssg3035
(dp3049
ssbsg579
(lp3050
g3035
ag3029
ag3032
asg852
(lp3051
(iconstruction
TP_REL
p3052
(dp3053
g858
g3029
sg86
g733
sg584
I233
sg859
g3035
sg67
VIS_233
p3054
sba(iconstruction
TP_REL
p3055
(dp3056
g858
g3032
sg86
g691
sg584
I234
sg859
g3035
sg67
VEVT_ATTR_234
p3057
sbasg584
I227
sg67
g1671
sbsg1766
(iconstruction
TP_SYNFORM
p3058
(dp3059
g584
I228
sg1769
(lp3060
(iconstruction
TP_SLOT
p3061
(dp3062
g1773
(lp3063
VN
p3064
asg1776
I0
sg584
I235
sg67
g3020
sba(iconstruction
TP_PHON
p3065
(dp3066
g1779
I4
sg1776
I1
sg584
I236
sg1780
Vthat
p3067
sg67
VS2_236
p3068
sba(iconstruction
TP_PHON
p3069
(dp3070
g1779
I2
sg1776
I2
sg584
I237
sg1780
Vis
p3071
sg67
VS3_237
p3072
sba(iconstruction
TP_SLOT
p3073
(dp3074
g1773
(lp3075
VA
p3076
asg1776
I3
sg584
I238
sg67
g3018
sbasg67
g1671
sbsg1787
I1
sba(iconstruction
CXN
p3077
(dp3078
g1729
(iconstruction
TP_SYMLINKS
p3079
(dp3080
g1732
(dp3081
VAGT_244
p3082
VS1_251
p3083
sVCOLOR_246
p3084
VS3_253
p3085
ssg584
I241
sg67
g1671
sbsg1738
VN
p3086
sg1740
I2
sg67
VIN_COLOR
p3087
sg1741
(iconstruction
TP_SEMFRAME
p3088
(dp3089
g97
g0
(g98
g2
Ntp3090
Rp3091
(dp3092
g102
(dp3093
(iconstruction
TP_NODE
p3094
(dp3095
g1750
I00
sg86
g739
sg67
VEVT_242
p3096
sg1751
I01
sg1752
I00
sg584
I242
sb(dp3097
g1751
I01
sg86
g739
ss(iconstruction
TP_NODE
p3098
(dp3099
g1750
I01
sg86
g751
sg67
g3082
sg1751
I01
sg1752
I00
sg584
I244
sb(dp3100
g1751
I01
sg86
g751
ss(iconstruction
TP_NODE
p3101
(dp3102
g1750
I00
sg86
g646
sg67
g3084
sg1751
I00
sg1752
I01
sg584
I246
sb(dp3103
g1751
I00
sg86
g646
ss(iconstruction
TP_NODE
p3104
(dp3105
g1750
I00
sg86
g631
sg67
VACT_243
p3106
sg1751
I01
sg1752
I00
sg584
I243
sb(dp3107
g1751
I01
sg86
g631
ss(iconstruction
TP_NODE
p3108
(dp3109
g1750
I00
sg86
g781
sg67
VPT_245
p3110
sg1751
I01
sg1752
I00
sg584
I245
sb(dp3111
g1751
I01
sg86
g781
sssg285
g286
sg287
g286
sg288
(dp3112
g3094
(dp3113
g3104
(dp3114
g86
g733
sssg3098
(dp3115
sg3101
(dp3116
sg3104
(dp3117
g3098
(dp3118
g86
g712
ssg3108
(dp3119
g86
g706
sssg3108
(dp3120
g3101
(dp3121
g86
g691
ssssg482
g3112
sg97
(dp3122
sg484
g286
sg485
g3112
sg486
(dp3123
g3094
(dp3124
sg3098
(dp3125
g3104
g3118
ssg3101
(dp3126
g3108
g3121
ssg3104
(dp3127
g3094
g3114
ssg3108
(dp3128
g3104
g3119
sssbsg579
(lp3129
g3094
ag3104
ag3098
ag3108
ag3101
asg852
(lp3130
(iconstruction
TP_REL
p3131
(dp3132
g858
g3104
sg86
g733
sg584
I247
sg859
g3094
sg67
VIS_247
p3133
sba(iconstruction
TP_REL
p3134
(dp3135
g858
g3098
sg86
g712
sg584
I248
sg859
g3104
sg67
VACT_AGT_248
p3136
sba(iconstruction
TP_REL
p3137
(dp3138
g858
g3108
sg86
g706
sg584
I249
sg859
g3104
sg67
VACT_PT_249
p3139
sba(iconstruction
TP_REL
p3140
(dp3141
g858
g3101
sg86
g691
sg584
I250
sg859
g3108
sg67
VPT_COLOR_250
p3142
sbasg584
I239
sg67
g1671
sbsg1766
(iconstruction
TP_SYNFORM
p3143
(dp3144
g584
I240
sg1769
(lp3145
(iconstruction
TP_SLOT
p3146
(dp3147
g1773
(lp3148
VN
p3149
asg1776
I0
sg584
I251
sg67
g3083
sba(iconstruction
TP_PHON
p3150
(dp3151
g1779
I2
sg1776
I1
sg584
I252
sg1780
Vin
p3152
sg67
VS2_252
p3153
sba(iconstruction
TP_SLOT
p3154
(dp3155
g1773
(lp3156
VA
p3157
asg1776
I2
sg584
I253
sg67
g3085
sbasg67
g1671
sbsg1787
I1
sba(iconstruction
CXN
p3158
(dp3159
g1729
(iconstruction
TP_SYMLINKS
p3160
(dp3161
g1732
(dp3162
VN1_258
p3163
VS1_260
p3164
ssg584
I256
sg67
g1671
sbsg1738
VV
p3165
sg1740
I1
sg67
VHIT
p3166
sg1741
(iconstruction
TP_SEMFRAME
p3167
(dp3168
g97
g0
(g98
g2
Ntp3169
Rp3170
(dp3171
g102
(dp3172
(iconstruction
TP_NODE
p3173
(dp3174
g1750
I00
sg86
g607
sg67
g3163
sg1751
I00
sg1752
I00
sg584
I258
sb(dp3175
g1751
I00
sg86
g607
ss(iconstruction
TP_NODE
p3176
(dp3177
g1750
I01
sg86
g586
sg67
VACT_257
p3178
sg1751
I01
sg1752
I00
sg584
I257
sb(dp3179
g1751
I01
sg86
g586
sssg285
g286
sg287
g286
sg288
(dp3180
g3173
(dp3181
sg3176
(dp3182
g3173
(dp3183
g86
g733
ssssg482
g3180
sg97
(dp3184
sg484
g286
sg485
g3180
sg486
(dp3185
g3173
(dp3186
g3176
g3183
ssg3176
(dp3187
ssbsg579
(lp3188
g3176
ag3173
asg852
(lp3189
(iconstruction
TP_REL
p3190
(dp3191
g858
g3173
sg86
g733
sg584
I259
sg859
g3176
sg67
VIS_259
p3192
sbasg584
I254
sg67
g1671
sbsg1766
(iconstruction
TP_SYNFORM
p3193
(dp3194
g584
I255
sg1769
(lp3195
(iconstruction
TP_PHON
p3196
(dp3197
g1779
I3
sg1776
I0
sg584
I260
sg1780
Vhit
p3198
sg67
g3164
sbasg67
g1671
sbsg1787
I1
sba(iconstruction
CXN
p3199
(dp3200
g1729
(iconstruction
TP_SYMLINKS
p3201
(dp3202
g1732
(dp3203
VN1_265
p3204
VS1_267
p3205
ssg584
I263
sg67
g1671
sbsg1738
VV
p3206
sg1740
I1
sg67
VKICK
p3207
sg1741
(iconstruction
TP_SEMFRAME
p3208
(dp3209
g97
g0
(g98
g2
Ntp3210
Rp3211
(dp3212
g102
(dp3213
(iconstruction
TP_NODE
p3214
(dp3215
g1750
I01
sg86
g586
sg67
VACT_264
p3216
sg1751
I01
sg1752
I00
sg584
I264
sb(dp3217
g1751
I01
sg86
g586
ss(iconstruction
TP_NODE
p3218
(dp3219
g1750
I00
sg86
g628
sg67
g3204
sg1751
I00
sg1752
I00
sg584
I265
sb(dp3220
g1751
I00
sg86
g628
sssg285
g286
sg287
g286
sg288
(dp3221
g3214
(dp3222
g3218
(dp3223
g86
g733
sssg3218
(dp3224
ssg482
g3221
sg97
(dp3225
sg484
g286
sg485
g3221
sg486
(dp3226
g3214
(dp3227
sg3218
(dp3228
g3214
g3223
sssbsg579
(lp3229
g3214
ag3218
asg852
(lp3230
(iconstruction
TP_REL
p3231
(dp3232
g858
g3218
sg86
g733
sg584
I266
sg859
g3214
sg67
VIS_266
p3233
sbasg584
I261
sg67
g1671
sbsg1766
(iconstruction
TP_SYNFORM
p3234
(dp3235
g584
I262
sg1769
(lp3236
(iconstruction
TP_PHON
p3237
(dp3238
g1779
I4
sg1776
I0
sg584
I267
sg1780
Vkick
p3239
sg67
g3205
sbasg67
g1671
sbsg1787
I1
sba(iconstruction
CXN
p3240
(dp3241
g1729
(iconstruction
TP_SYMLINKS
p3242
(dp3243
g1732
(dp3244
VN1_272
p3245
VS1_274
p3246
ssg584
I270
sg67
g1671
sbsg1738
VV
p3247
sg1740
I1
sg67
VPUNCH
p3248
sg1741
(iconstruction
TP_SEMFRAME
p3249
(dp3250
g97
g0
(g98
g2
Ntp3251
Rp3252
(dp3253
g102
(dp3254
(iconstruction
TP_NODE
p3255
(dp3256
g1750
I00
sg86
g613
sg67
g3245
sg1751
I00
sg1752
I00
sg584
I272
sb(dp3257
g1751
I00
sg86
g613
ss(iconstruction
TP_NODE
p3258
(dp3259
g1750
I01
sg86
g586
sg67
VACT_271
p3260
sg1751
I01
sg1752
I00
sg584
I271
sb(dp3261
g1751
I01
sg86
g586
sssg285
g286
sg287
g286
sg288
(dp3262
g3255
(dp3263
sg3258
(dp3264
g3255
(dp3265
g86
g733
ssssg482
g3262
sg97
(dp3266
sg484
g286
sg485
g3262
sg486
(dp3267
g3255
(dp3268
g3258
g3265
ssg3258
(dp3269
ssbsg579
(lp3270
g3258
ag3255
asg852
(lp3271
(iconstruction
TP_REL
p3272
(dp3273
g858
g3255
sg86
g733
sg584
I273
sg859
g3258
sg67
VIS_273
p3274
sbasg584
I268
sg67
g1671
sbsg1766
(iconstruction
TP_SYNFORM
p3275
(dp3276
g584
I269
sg1769
(lp3277
(iconstruction
TP_PHON
p3278
(dp3279
g1779
I5
sg1776
I0
sg584
I274
sg1780
Vpunch
p3280
sg67
g3246
sbasg67
g1671
sbsg1787
I1
sba(iconstruction
CXN
p3281
(dp3282
g1729
(iconstruction
TP_SYMLINKS
p3283
(dp3284
g1732
(dp3285
VN1_279
p3286
VS1_281
p3287
ssg584
I277
sg67
g1671
sbsg1738
VV
p3288
sg1740
I1
sg67
VWEAR
p3289
sg1741
(iconstruction
TP_SEMFRAME
p3290
(dp3291
g97
g0
(g98
g2
Ntp3292
Rp3293
(dp3294
g102
(dp3295
(iconstruction
TP_NODE
p3296
(dp3297
g1750
I01
sg86
g586
sg67
VACT_278
p3298
sg1751
I01
sg1752
I00
sg584
I278
sb(dp3299
g1751
I01
sg86
g586
ss(iconstruction
TP_NODE
p3300
(dp3301
g1750
I00
sg86
g631
sg67
g3286
sg1751
I00
sg1752
I00
sg584
I279
sb(dp3302
g1751
I00
sg86
g631
sssg285
g286
sg287
g286
sg288
(dp3303
g3296
(dp3304
g3300
(dp3305
g86
g733
sssg3300
(dp3306
ssg482
g3303
sg97
(dp3307
sg484
g286
sg485
g3303
sg486
(dp3308
g3296
(dp3309
sg3300
(dp3310
g3296
g3305
sssbsg579
(lp3311
g3296
ag3300
asg852
(lp3312
(iconstruction
TP_REL
p3313
(dp3314
g858
g3300
sg86
g733
sg584
I280
sg859
g3296
sg67
VIS_280
p3315
sbasg584
I275
sg67
g1671
sbsg1766
(iconstruction
TP_SYNFORM
p3316
(dp3317
g584
I276
sg1769
(lp3318
(iconstruction
TP_PHON
p3319
(dp3320
g1779
I4
sg1776
I0
sg584
I281
sg1780
Vwear
p3321
sg67
g3287
sbasg67
g1671
sbsg1787
I1
sba(iconstruction
CXN
p3322
(dp3323
g1729
(iconstruction
TP_SYMLINKS
p3324
(dp3325
g1732
(dp3326
VN1_286
p3327
VS1_288
p3328
ssg584
I284
sg67
g1671
sbsg1738
VV
p3329
sg1740
I1
sg67
VLAUGH
p3330
sg1741
(iconstruction
TP_SEMFRAME
p3331
(dp3332
g97
g0
(g98
g2
Ntp3333
Rp3334
(dp3335
g102
(dp3336
(iconstruction
TP_NODE
p3337
(dp3338
g1750
I01
sg86
g586
sg67
VACT_285
p3339
sg1751
I01
sg1752
I00
sg584
I285
sb(dp3340
g1751
I01
sg86
g586
ss(iconstruction
TP_NODE
p3341
(dp3342
g1750
I00
sg86
g601
sg67
g3327
sg1751
I00
sg1752
I00
sg584
I286
sb(dp3343
g1751
I00
sg86
g601
sssg285
g286
sg287
g286
sg288
(dp3344
g3337
(dp3345
g3341
(dp3346
g86
g733
sssg3341
(dp3347
ssg482
g3344
sg97
(dp3348
sg484
g286
sg485
g3344
sg486
(dp3349
g3337
(dp3350
sg3341
(dp3351
g3337
g3346
sssbsg579
(lp3352
g3337
ag3341
asg852
(lp3353
(iconstruction
TP_REL
p3354
(dp3355
g858
g3341
sg86
g733
sg584
I287
sg859
g3337
sg67
VIS_287
p3356
sbasg584
I282
sg67
g1671
sbsg1766
(iconstruction
TP_SYNFORM
p3357
(dp3358
g584
I283
sg1769
(lp3359
(iconstruction
TP_PHON
p3360
(dp3361
g1779
I5
sg1776
I0
sg584
I288
sg1780
Vlaugh
p3362
sg67
g3328
sbasg67
g1671
sbsg1787
I1
sba(iconstruction
CXN
p3363
(dp3364
g1729
(iconstruction
TP_SYMLINKS
p3365
(dp3366
g1732
(dp3367
VN1_293
p3368
VS1_295
p3369
ssg584
I291
sg67
g1671
sbsg1738
VV
p3370
sg1740
I1
sg67
VWATCH
p3371
sg1741
(iconstruction
TP_SEMFRAME
p3372
(dp3373
g97
g0
(g98
g2
Ntp3374
Rp3375
(dp3376
g102
(dp3377
(iconstruction
TP_NODE
p3378
(dp3379
g1750
I00
sg86
g610
sg67
g3368
sg1751
I00
sg1752
I00
sg584
I293
sb(dp3380
g1751
I00
sg86
g610
ss(iconstruction
TP_NODE
p3381
(dp3382
g1750
I01
sg86
g586
sg67
VACT_292
p3383
sg1751
I01
sg1752
I00
sg584
I292
sb(dp3384
g1751
I01
sg86
g586
sssg285
g286
sg287
g286
sg288
(dp3385
g3378
(dp3386
sg3381
(dp3387
g3378
(dp3388
g86
g733
ssssg482
g3385
sg97
(dp3389
sg484
g286
sg485
g3385
sg486
(dp3390
g3378
(dp3391
g3381
g3388
ssg3381
(dp3392
ssbsg579
(lp3393
g3381
ag3378
asg852
(lp3394
(iconstruction
TP_REL
p3395
(dp3396
g858
g3378
sg86
g733
sg584
I294
sg859
g3381
sg67
VIS_294
p3397
sbasg584
I289
sg67
g1671
sbsg1766
(iconstruction
TP_SYNFORM
p3398
(dp3399
g584
I290
sg1769
(lp3400
(iconstruction
TP_PHON
p3401
(dp3402
g1779
I5
sg1776
I0
sg584
I295
sg1780
Vwatch
p3403
sg67
g3369
sbasg67
g1671
sbsg1787
I1
sba(iconstruction
CXN
p3404
(dp3405
g1729
(iconstruction
TP_SYMLINKS
p3406
(dp3407
g1732
(dp3408
VN1_300
p3409
VS1_302
p3410
ssg584
I298
sg67
g1671
sbsg1738
VV
p3411
sg1740
I1
sg67
VTALK
p3412
sg1741
(iconstruction
TP_SEMFRAME
p3413
(dp3414
g97
g0
(g98
g2
Ntp3415
Rp3416
(dp3417
g102
(dp3418
(iconstruction
TP_NODE
p3419
(dp3420
g1750
I01
sg86
g586
sg67
VACT_299
p3421
sg1751
I01
sg1752
I00
sg584
I299
sb(dp3422
g1751
I01
sg86
g586
ss(iconstruction
TP_NODE
p3423
(dp3424
g1750
I00
sg86
g619
sg67
g3409
sg1751
I00
sg1752
I00
sg584
I300
sb(dp3425
g1751
I00
sg86
g619
sssg285
g286
sg287
g286
sg288
(dp3426
g3419
(dp3427
g3423
(dp3428
g86
g733
sssg3423
(dp3429
ssg482
g3426
sg97
(dp3430
sg484
g286
sg485
g3426
sg486
(dp3431
g3419
(dp3432
sg3423
(dp3433
g3419
g3428
sssbsg579
(lp3434
g3419
ag3423
asg852
(lp3435
(iconstruction
TP_REL
p3436
(dp3437
g858
g3423
sg86
g733
sg584
I301
sg859
g3419
sg67
VIS_301
p3438
sbasg584
I296
sg67
g1671
sbsg1766
(iconstruction
TP_SYNFORM
p3439
(dp3440
g584
I297
sg1769
(lp3441
(iconstruction
TP_PHON
p3442
(dp3443
g1779
I4
sg1776
I0
sg584
I302
sg1780
Vtalk
p3444
sg67
g3410
sba(iconstruction
TP_PHON
p3445
(dp3446
g1779
I2
sg1776
I1
sg584
I303
sg1780
Vto
p3447
sg67
VS2_303
p3448
sbasg67
g1671
sbsg1787
I1
sba(iconstruction
CXN
p3449
(dp3450
g1729
(iconstruction
TP_SYMLINKS
p3451
(dp3452
g1732
(dp3453
VN1_308
p3454
VS1_310
p3455
ssg584
I306
sg67
g1671
sbsg1738
VV
p3456
sg1740
I1
sg67
VSQUIRT
p3457
sg1741
(iconstruction
TP_SEMFRAME
p3458
(dp3459
g97
g0
(g98
g2
Ntp3460
Rp3461
(dp3462
g102
(dp3463
(iconstruction
TP_NODE
p3464
(dp3465
g1750
I01
sg86
g586
sg67
VACT_307
p3466
sg1751
I01
sg1752
I00
sg584
I307
sb(dp3467
g1751
I01
sg86
g586
ss(iconstruction
TP_NODE
p3468
(dp3469
g1750
I00
sg86
g625
sg67
g3454
sg1751
I00
sg1752
I00
sg584
I308
sb(dp3470
g1751
I00
sg86
g625
sssg285
g286
sg287
g286
sg288
(dp3471
g3464
(dp3472
g3468
(dp3473
g86
g733
sssg3468
(dp3474
ssg482
g3471
sg97
(dp3475
sg484
g286
sg485
g3471
sg486
(dp3476
g3464
(dp3477
sg3468
(dp3478
g3464
g3473
sssbsg579
(lp3479
g3464
ag3468
asg852
(lp3480
(iconstruction
TP_REL
p3481
(dp3482
g858
g3468
sg86
g733
sg584
I309
sg859
g3464
sg67
VIS_309
p3483
sbasg584
I304
sg67
g1671
sbsg1766
(iconstruction
TP_SYNFORM
p3484
(dp3485
g584
I305
sg1769
(lp3486
(iconstruction
TP_PHON
p3487
(dp3488
g1779
I6
sg1776
I0
sg584
I310
sg1780
Vsquirt
p3489
sg67
g3455
sba(iconstruction
TP_PHON
p3490
(dp3491
g1779
I2
sg1776
I1
sg584
I311
sg1780
Vat
p3492
sg67
VS2_311
p3493
sbasg67
g1671
sbsg1787
I1
sba(iconstruction
CXN
p3494
(dp3495
g1729
(iconstruction
TP_SYMLINKS
p3496
(dp3497
g1732
(dp3498
VN1_316
p3499
VS1_318
p3500
ssg584
I314
sg67
g1671
sbsg1738
VV
p3501
sg1740
I1
sg67
VSPLASH
p3502
sg1741
(iconstruction
TP_SEMFRAME
p3503
(dp3504
g97
g0
(g98
g2
Ntp3505
Rp3506
(dp3507
g102
(dp3508
(iconstruction
TP_NODE
p3509
(dp3510
g1750
I01
sg86
g586
sg67
VACT_315
p3511
sg1751
I01
sg1752
I00
sg584
I315
sb(dp3512
g1751
I01
sg86
g586
ss(iconstruction
TP_NODE
p3513
(dp3514
g1750
I00
sg86
g616
sg67
g3499
sg1751
I00
sg1752
I00
sg584
I316
sb(dp3515
g1751
I00
sg86
g616
sssg285
g286
sg287
g286
sg288
(dp3516
g3509
(dp3517
g3513
(dp3518
g86
g733
sssg3513
(dp3519
ssg482
g3516
sg97
(dp3520
sg484
g286
sg485
g3516
sg486
(dp3521
g3509
(dp3522
sg3513
(dp3523
g3509
g3518
sssbsg579
(lp3524
g3509
ag3513
asg852
(lp3525
(iconstruction
TP_REL
p3526
(dp3527
g858
g3513
sg86
g733
sg584
I317
sg859
g3509
sg67
VIS_317
p3528
sbasg584
I312
sg67
g1671
sbsg1766
(iconstruction
TP_SYNFORM
p3529
(dp3530
g584
I313
sg1769
(lp3531
(iconstruction
TP_PHON
p3532
(dp3533
g1779
I6
sg1776
I0
sg584
I318
sg1780
Vsplash
p3534
sg67
g3500
sbasg67
g1671
sbsg1787
I1
sba(iconstruction
CXN
p3535
(dp3536
g1729
(iconstruction
TP_SYMLINKS
p3537
(dp3538
g1732
(dp3539
VN1_323
p3540
VS1_325
p3541
ssg584
I321
sg67
g1671
sbsg1738
VV
p3542
sg1740
I1
sg67
VGIVE
p3543
sg1741
(iconstruction
TP_SEMFRAME
p3544
(dp3545
g97
g0
(g98
g2
Ntp3546
Rp3547
(dp3548
g102
(dp3549
(iconstruction
TP_NODE
p3550
(dp3551
g1750
I01
sg86
g586
sg67
VACT_322
p3552
sg1751
I01
sg1752
I00
sg584
I322
sb(dp3553
g1751
I01
sg86
g586
ss(iconstruction
TP_NODE
p3554
(dp3555
g1750
I00
sg86
g640
sg67
g3540
sg1751
I00
sg1752
I00
sg584
I323
sb(dp3556
g1751
I00
sg86
g640
sssg285
g286
sg287
g286
sg288
(dp3557
g3550
(dp3558
g3554
(dp3559
g86
g733
sssg3554
(dp3560
ssg482
g3557
sg97
(dp3561
sg484
g286
sg485
g3557
sg486
(dp3562
g3550
(dp3563
sg3554
(dp3564
g3550
g3559
sssbsg579
(lp3565
g3550
ag3554
asg852
(lp3566
(iconstruction
TP_REL
p3567
(dp3568
g858
g3554
sg86
g733
sg584
I324
sg859
g3550
sg67
VIS_324
p3569
sbasg584
I319
sg67
g1671
sbsg1766
(iconstruction
TP_SYNFORM
p3570
(dp3571
g584
I320
sg1769
(lp3572
(iconstruction
TP_PHON
p3573
(dp3574
g1779
I4
sg1776
I0
sg584
I325
sg1780
Vgive
p3575
sg67
g3541
sbasg67
g1671
sbsg1787
I1
sba(iconstruction
CXN
p3576
(dp3577
g1729
(iconstruction
TP_SYMLINKS
p3578
(dp3579
g1732
(dp3580
VN1_330
p3581
VS1_332
p3582
ssg584
I328
sg67
g1671
sbsg1738
VV
p3583
sg1740
I1
sg67
VSEND
p3584
sg1741
(iconstruction
TP_SEMFRAME
p3585
(dp3586
g97
g0
(g98
g2
Ntp3587
Rp3588
(dp3589
g102
(dp3590
(iconstruction
TP_NODE
p3591
(dp3592
g1750
I00
sg86
g637
sg67
g3581
sg1751
I00
sg1752
I00
sg584
I330
sb(dp3593
g1751
I00
sg86
g637
ss(iconstruction
TP_NODE
p3594
(dp3595
g1750
I01
sg86
g586
sg67
VACT_329
p3596
sg1751
I01
sg1752
I00
sg584
I329
sb(dp3597
g1751
I01
sg86
g586
sssg285
g286
sg287
g286
sg288
(dp3598
g3591
(dp3599
sg3594
(dp3600
g3591
(dp3601
g86
g733
ssssg482
g3598
sg97
(dp3602
sg484
g286
sg485
g3598
sg486
(dp3603
g3591
(dp3604
g3594
g3601
ssg3594
(dp3605
ssbsg579
(lp3606
g3594
ag3591
asg852
(lp3607
(iconstruction
TP_REL
p3608
(dp3609
g858
g3591
sg86
g733
sg584
I331
sg859
g3594
sg67
VIS_331
p3610
sbasg584
I326
sg67
g1671
sbsg1766
(iconstruction
TP_SYNFORM
p3611
(dp3612
g584
I327
sg1769
(lp3613
(iconstruction
TP_PHON
p3614
(dp3615
g1779
I4
sg1776
I0
sg584
I332
sg1780
Vsend
p3616
sg67
g3582
sbasg67
g1671
sbsg1787
I1
sba(iconstruction
CXN
p3617
(dp3618
g1729
(iconstruction
TP_SYMLINKS
p3619
(dp3620
g1732
(dp3621
VN1_337
p3622
VS1_339
p3623
ssg584
I335
sg67
g1671
sbsg1738
VV
p3624
sg1740
I1
sg67
VMEET
p3625
sg1741
(iconstruction
TP_SEMFRAME
p3626
(dp3627
g97
g0
(g98
g2
Ntp3628
Rp3629
(dp3630
g102
(dp3631
(iconstruction
TP_NODE
p3632
(dp3633
g1750
I01
sg86
g586
sg67
VACT_336
p3634
sg1751
I01
sg1752
I00
sg584
I336
sb(dp3635
g1751
I01
sg86
g586
ss(iconstruction
TP_NODE
p3636
(dp3637
g1750
I00
sg86
g592
sg67
g3622
sg1751
I00
sg1752
I00
sg584
I337
sb(dp3638
g1751
I00
sg86
g592
sssg285
g286
sg287
g286
sg288
(dp3639
g3632
(dp3640
g3636
(dp3641
g86
g733
sssg3636
(dp3642
ssg482
g3639
sg97
(dp3643
sg484
g286
sg485
g3639
sg486
(dp3644
g3632
(dp3645
sg3636
(dp3646
g3632
g3641
sssbsg579
(lp3647
g3632
ag3636
asg852
(lp3648
(iconstruction
TP_REL
p3649
(dp3650
g858
g3636
sg86
g733
sg584
I338
sg859
g3632
sg67
VIS_338
p3651
sbasg584
I333
sg67
g1671
sbsg1766
(iconstruction
TP_SYNFORM
p3652
(dp3653
g584
I334
sg1769
(lp3654
(iconstruction
TP_PHON
p3655
(dp3656
g1779
I4
sg1776
I0
sg584
I339
sg1780
Vmeet
p3657
sg67
g3623
sbasg67
g1671
sbsg1787
I1
sba(iconstruction
CXN
p3658
(dp3659
g1729
(iconstruction
TP_SYMLINKS
p3660
(dp3661
g1732
(dp3662
VN1_344
p3663
VS1_346
p3664
ssg584
I342
sg67
g1671
sbsg1738
VV
p3665
sg1740
I1
sg67
VKISS
p3666
sg1741
(iconstruction
TP_SEMFRAME
p3667
(dp3668
g97
g0
(g98
g2
Ntp3669
Rp3670
(dp3671
g102
(dp3672
(iconstruction
TP_NODE
p3673
(dp3674
g1750
I00
sg86
g622
sg67
g3663
sg1751
I00
sg1752
I00
sg584
I344
sb(dp3675
g1751
I00
sg86
g622
ss(iconstruction
TP_NODE
p3676
(dp3677
g1750
I01
sg86
g586
sg67
VACT_343
p3678
sg1751
I01
sg1752
I00
sg584
I343
sb(dp3679
g1751
I01
sg86
g586
sssg285
g286
sg287
g286
sg288
(dp3680
g3673
(dp3681
sg3676
(dp3682
g3673
(dp3683
g86
g733
ssssg482
g3680
sg97
(dp3684
sg484
g286
sg485
g3680
sg486
(dp3685
g3673
(dp3686
g3676
g3683
ssg3676
(dp3687
ssbsg579
(lp3688
g3676
ag3673
asg852
(lp3689
(iconstruction
TP_REL
p3690
(dp3691
g858
g3673
sg86
g733
sg584
I345
sg859
g3676
sg67
VIS_345
p3692
sbasg584
I340
sg67
g1671
sbsg1766
(iconstruction
TP_SYNFORM
p3693
(dp3694
g584
I341
sg1769
(lp3695
(iconstruction
TP_PHON
p3696
(dp3697
g1779
I4
sg1776
I0
sg584
I346
sg1780
Vkiss
p3698
sg67
g3664
sbasg67
g1671
sbsg1787
I1
sba(iconstruction
CXN
p3699
(dp3700
g1729
(iconstruction
TP_SYMLINKS
p3701
(dp3702
g1732
(dp3703
VN1_351
p3704
VS1_353
p3705
ssg584
I349
sg67
g1671
sbsg1738
VV
p3706
sg1740
I1
sg67
VSHAKE_HANDS
p3707
sg1741
(iconstruction
TP_SEMFRAME
p3708
(dp3709
g97
g0
(g98
g2
Ntp3710
Rp3711
(dp3712
g102
(dp3713
(iconstruction
TP_NODE
p3714
(dp3715
g1750
I01
sg86
g586
sg67
VACT_350
p3716
sg1751
I01
sg1752
I00
sg584
I350
sb(dp3717
g1751
I01
sg86
g586
ss(iconstruction
TP_NODE
p3718
(dp3719
g1750
I00
sg86
g595
sg67
g3704
sg1751
I00
sg1752
I00
sg584
I351
sb(dp3720
g1751
I00
sg86
g595
sssg285
g286
sg287
g286
sg288
(dp3721
g3714
(dp3722
g3718
(dp3723
g86
g733
sssg3718
(dp3724
ssg482
g3721
sg97
(dp3725
sg484
g286
sg485
g3721
sg486
(dp3726
g3714
(dp3727
sg3718
(dp3728
g3714
g3723
sssbsg579
(lp3729
g3714
ag3718
asg852
(lp3730
(iconstruction
TP_REL
p3731
(dp3732
g858
g3718
sg86
g733
sg584
I352
sg859
g3714
sg67
VIS_352
p3733
sbasg584
I347
sg67
g1671
sbsg1766
(iconstruction
TP_SYNFORM
p3734
(dp3735
g584
I348
sg1769
(lp3736
(iconstruction
TP_PHON
p3737
(dp3738
g1779
I10
sg1776
I0
sg584
I353
sg1780
Vshake hands
p3739
sg67
g3705
sbasg67
g1671
sbsg1787
I1
sba(iconstruction
CXN
p3740
(dp3741
g1729
(iconstruction
TP_SYMLINKS
p3742
(dp3743
g1732
(dp3744
VN1_357
p3745
VS1_358
p3746
ssg584
I356
sg67
g1671
sbsg1738
VA
p3747
sg1740
I1
sg67
VBLUE
p3748
sg1741
(iconstruction
TP_SEMFRAME
p3749
(dp3750
g97
g0
(g98
g2
Ntp3751
Rp3752
(dp3753
g102
(dp3754
(iconstruction
TP_NODE
p3755
(dp3756
g1750
I01
sg86
g649
sg67
g3745
sg1751
I00
sg1752
I00
sg584
I357
sb(dp3757
g1751
I00
sg86
g649
sssg285
g286
sg287
g286
sg288
(dp3758
g3755
(dp3759
ssg482
g3758
sg97
(dp3760
sg484
g286
sg485
g3758
sg486
(dp3761
g3755
(dp3762
ssbsg579
(lp3763
g3755
asg852
(lp3764
sg584
I354
sg67
g1671
sbsg1766
(iconstruction
TP_SYNFORM
p3765
(dp3766
g584
I355
sg1769
(lp3767
(iconstruction
TP_PHON
p3768
(dp3769
g1779
I4
sg1776
I0
sg584
I358
sg1780
Vblue
p3770
sg67
g3746
sbasg67
g1671
sbsg1787
I1
sba(iconstruction
CXN
p3771
(dp3772
g1729
(iconstruction
TP_SYMLINKS
p3773
(dp3774
g1732
(dp3775
VN1_362
p3776
VS1_363
p3777
ssg584
I361
sg67
g1671
sbsg1738
VA
p3778
sg1740
I1
sg67
VBLACK
p3779
sg1741
(iconstruction
TP_SEMFRAME
p3780
(dp3781
g97
g0
(g98
g2
Ntp3782
Rp3783
(dp3784
g102
(dp3785
(iconstruction
TP_NODE
p3786
(dp3787
g1750
I01
sg86
g658
sg67
g3776
sg1751
I00
sg1752
I00
sg584
I362
sb(dp3788
g1751
I00
sg86
g658
sssg285
g286
sg287
g286
sg288
(dp3789
g3786
(dp3790
ssg482
g3789
sg97
(dp3791
sg484
g286
sg485
g3789
sg486
(dp3792
g3786
(dp3793
ssbsg579
(lp3794
g3786
asg852
(lp3795
sg584
I359
sg67
g1671
sbsg1766
(iconstruction
TP_SYNFORM
p3796
(dp3797
g584
I360
sg1769
(lp3798
(iconstruction
TP_PHON
p3799
(dp3800
g1779
I5
sg1776
I0
sg584
I363
sg1780
Vblack
p3801
sg67
g3777
sbasg67
g1671
sbsg1787
I1
sba(iconstruction
CXN
p3802
(dp3803
g1729
(iconstruction
TP_SYMLINKS
p3804
(dp3805
g1732
(dp3806
VN1_367
p3807
VS1_368
p3808
ssg584
I366
sg67
g1671
sbsg1738
VA
p3809
sg1740
I1
sg67
VGREEN
p3810
sg1741
(iconstruction
TP_SEMFRAME
p3811
(dp3812
g97
g0
(g98
g2
Ntp3813
Rp3814
(dp3815
g102
(dp3816
(iconstruction
TP_NODE
p3817
(dp3818
g1750
I01
sg86
g652
sg67
g3807
sg1751
I00
sg1752
I00
sg584
I367
sb(dp3819
g1751
I00
sg86
g652
sssg285
g286
sg287
g286
sg288
(dp3820
g3817
(dp3821
ssg482
g3820
sg97
(dp3822
sg484
g286
sg485
g3820
sg486
(dp3823
g3817
(dp3824
ssbsg579
(lp3825
g3817
asg852
(lp3826
sg584
I364
sg67
g1671
sbsg1766
(iconstruction
TP_SYNFORM
p3827
(dp3828
g584
I365
sg1769
(lp3829
(iconstruction
TP_PHON
p3830
(dp3831
g1779
I5
sg1776
I0
sg584
I368
sg1780
Vgreen
p3832
sg67
g3808
sbasg67
g1671
sbsg1787
I1
sba(iconstruction
CXN
p3833
(dp3834
g1729
(iconstruction
TP_SYMLINKS
p3835
(dp3836
g1732
(dp3837
VN1_372
p3838
VS1_373
p3839
ssg584
I371
sg67
g1671
sbsg1738
VA
p3840
sg1740
I1
sg67
VSMALL
p3841
sg1741
(iconstruction
TP_SEMFRAME
p3842
(dp3843
g97
g0
(g98
g2
Ntp3844
Rp3845
(dp3846
g102
(dp3847
(iconstruction
TP_NODE
p3848
(dp3849
g1750
I01
sg86
g679
sg67
g3838
sg1751
I00
sg1752
I00
sg584
I372
sb(dp3850
g1751
I00
sg86
g679
sssg285
g286
sg287
g286
sg288
(dp3851
g3848
(dp3852
ssg482
g3851
sg97
(dp3853
sg484
g286
sg485
g3851
sg486
(dp3854
g3848
(dp3855
ssbsg579
(lp3856
g3848
asg852
(lp3857
sg584
I369
sg67
g1671
sbsg1766
(iconstruction
TP_SYNFORM
p3858
(dp3859
g584
I370
sg1769
(lp3860
(iconstruction
TP_PHON
p3861
(dp3862
g1779
I5
sg1776
I0
sg584
I373
sg1780
Vsmall
p3863
sg67
g3839
sbasg67
g1671
sbsg1787
I1
sba(iconstruction
CXN
p3864
(dp3865
g1729
(iconstruction
TP_SYMLINKS
p3866
(dp3867
g1732
(dp3868
VN1_377
p3869
VS1_378
p3870
ssg584
I376
sg67
g1671
sbsg1738
VA
p3871
sg1740
I1
sg67
VBIG
p3872
sg1741
(iconstruction
TP_SEMFRAME
p3873
(dp3874
g97
g0
(g98
g2
Ntp3875
Rp3876
(dp3877
g102
(dp3878
(iconstruction
TP_NODE
p3879
(dp3880
g1750
I01
sg86
g682
sg67
g3869
sg1751
I00
sg1752
I00
sg584
I377
sb(dp3881
g1751
I00
sg86
g682
sssg285
g286
sg287
g286
sg288
(dp3882
g3879
(dp3883
ssg482
g3882
sg97
(dp3884
sg484
g286
sg485
g3882
sg486
(dp3885
g3879
(dp3886
ssbsg579
(lp3887
g3879
asg852
(lp3888
sg584
I374
sg67
g1671
sbsg1766
(iconstruction
TP_SYNFORM
p3889
(dp3890
g584
I375
sg1769
(lp3891
(iconstruction
TP_PHON
p3892
(dp3893
g1779
I3
sg1776
I0
sg584
I378
sg1780
Vbig
p3894
sg67
g3870
sbasg67
g1671
sbsg1787
I1
sba(iconstruction
CXN
p3895
(dp3896
g1729
(iconstruction
TP_SYMLINKS
p3897
(dp3898
g1732
(dp3899
VN1_382
p3900
VS1_383
p3901
ssg584
I381
sg67
g1671
sbsg1738
VA
p3902
sg1740
I1
sg67
VHANDSOME
p3903
sg1741
(iconstruction
TP_SEMFRAME
p3904
(dp3905
g97
g0
(g98
g2
Ntp3906
Rp3907
(dp3908
g102
(dp3909
(iconstruction
TP_NODE
p3910
(dp3911
g1750
I01
sg86
g673
sg67
g3900
sg1751
I00
sg1752
I00
sg584
I382
sb(dp3912
g1751
I00
sg86
g673
sssg285
g286
sg287
g286
sg288
(dp3913
g3910
(dp3914
ssg482
g3913
sg97
(dp3915
sg484
g286
sg485
g3913
sg486
(dp3916
g3910
(dp3917
ssbsg579
(lp3918
g3910
asg852
(lp3919
sg584
I379
sg67
g1671
sbsg1766
(iconstruction
TP_SYNFORM
p3920
(dp3921
g584
I380
sg1769
(lp3922
(iconstruction
TP_PHON
p3923
(dp3924
g1779
I8
sg1776
I0
sg584
I383
sg1780
Vhandsome
p3925
sg67
g3901
sbasg67
g1671
sbsg1787
I1
sba(iconstruction
CXN
p3926
(dp3927
g1729
(iconstruction
TP_SYMLINKS
p3928
(dp3929
g1732
(dp3930
VN1_387
p3931
VS1_388
p3932
ssg584
I386
sg67
g1671
sbsg1738
VA
p3933
sg1740
I1
sg67
VPRETTY
p3934
sg1741
(iconstruction
TP_SEMFRAME
p3935
(dp3936
g97
g0
(g98
g2
Ntp3937
Rp3938
(dp3939
g102
(dp3940
(iconstruction
TP_NODE
p3941
(dp3942
g1750
I01
sg86
g670
sg67
g3931
sg1751
I00
sg1752
I00
sg584
I387
sb(dp3943
g1751
I00
sg86
g670
sssg285
g286
sg287
g286
sg288
(dp3944
g3941
(dp3945
ssg482
g3944
sg97
(dp3946
sg484
g286
sg485
g3944
sg486
(dp3947
g3941
(dp3948
ssbsg579
(lp3949
g3941
asg852
(lp3950
sg584
I384
sg67
g1671
sbsg1766
(iconstruction
TP_SYNFORM
p3951
(dp3952
g584
I385
sg1769
(lp3953
(iconstruction
TP_PHON
p3954
(dp3955
g1779
I6
sg1776
I0
sg584
I388
sg1780
Vpretty
p3956
sg67
g3932
sbasg67
g1671
sbsg1787
I1
sba(iconstruction
CXN
p3957
(dp3958
g1729
(iconstruction
TP_SYMLINKS
p3959
(dp3960
g1732
(dp3961
VN1_392
p3962
VS1_393
p3963
ssg584
I391
sg67
g1671
sbsg1738
VA
p3964
sg1740
I1
sg67
VYOUNG
p3965
sg1741
(iconstruction
TP_SEMFRAME
p3966
(dp3967
g97
g0
(g98
g2
Ntp3968
Rp3969
(dp3970
g102
(dp3971
(iconstruction
TP_NODE
p3972
(dp3973
g1750
I01
sg86
g667
sg67
g3962
sg1751
I00
sg1752
I00
sg584
I392
sb(dp3974
g1751
I00
sg86
g667
sssg285
g286
sg287
g286
sg288
(dp3975
g3972
(dp3976
ssg482
g3975
sg97
(dp3977
sg484
g286
sg485
g3975
sg486
(dp3978
g3972
(dp3979
ssbsg579
(lp3980
g3972
asg852
(lp3981
sg584
I389
sg67
g1671
sbsg1766
(iconstruction
TP_SYNFORM
p3982
(dp3983
g584
I390
sg1769
(lp3984
(iconstruction
TP_PHON
p3985
(dp3986
g1779
I5
sg1776
I0
sg584
I393
sg1780
Vyoung
p3987
sg67
g3963
sbasg67
g1671
sbsg1787
I1
sba(iconstruction
CXN
p3988
(dp3989
g1729
(iconstruction
TP_SYMLINKS
p3990
(dp3991
g1732
(dp3992
VN1_398
p3993
VS1_400
p3994
ssg584
I396
sg67
g1671
sbsg1738
VN
p3995
sg1740
I1
sg67
VWOMAN
p3996
sg1741
(iconstruction
TP_SEMFRAME
p3997
(dp3998
g97
g0
(g98
g2
Ntp3999
Rp4000
(dp4001
g102
(dp4002
(iconstruction
TP_NODE
p4003
(dp4004
g1750
I00
sg86
g808
sg67
g3993
sg1751
I00
sg1752
I00
sg584
I398
sb(dp4005
g1751
I00
sg86
g808
ss(iconstruction
TP_NODE
p4006
(dp4007
g1750
I01
sg86
g742
sg67
VENT_397
p4008
sg1751
I01
sg1752
I00
sg584
I397
sb(dp4009
g1751
I01
sg86
g742
sssg285
g286
sg287
g286
sg288
(dp4010
g4003
(dp4011
sg4006
(dp4012
g4003
(dp4013
g86
g733
ssssg482
g4010
sg97
(dp4014
sg484
g286
sg485
g4010
sg486
(dp4015
g4003
(dp4016
g4006
g4013
ssg4006
(dp4017
ssbsg579
(lp4018
g4006
ag4003
asg852
(lp4019
(iconstruction
TP_REL
p4020
(dp4021
g858
g4003
sg86
g733
sg584
I399
sg859
g4006
sg67
VIS_399
p4022
sbasg584
I394
sg67
g1671
sbsg1766
(iconstruction
TP_SYNFORM
p4023
(dp4024
g584
I395
sg1769
(lp4025
(iconstruction
TP_PHON
p4026
(dp4027
g1779
I5
sg1776
I0
sg584
I400
sg1780
Vwoman
p4028
sg67
g3994
sbasg67
g1671
sbsg1787
I1
sba(iconstruction
CXN
p4029
(dp4030
g1729
(iconstruction
TP_SYMLINKS
p4031
(dp4032
g1732
(dp4033
VN1_405
p4034
VS1_407
p4035
ssg584
I403
sg67
g1671
sbsg1738
VN
p4036
sg1740
I1
sg67
VWOMAN2
p4037
sg1741
(iconstruction
TP_SEMFRAME
p4038
(dp4039
g97
g0
(g98
g2
Ntp4040
Rp4041
(dp4042
g102
(dp4043
(iconstruction
TP_NODE
p4044
(dp4045
g1750
I01
sg86
g742
sg67
VENT_404
p4046
sg1751
I01
sg1752
I00
sg584
I404
sb(dp4047
g1751
I01
sg86
g742
ss(iconstruction
TP_NODE
p4048
(dp4049
g1750
I00
sg86
g808
sg67
g4034
sg1751
I00
sg1752
I00
sg584
I405
sb(dp4050
g1751
I00
sg86
g808
sssg285
g286
sg287
g286
sg288
(dp4051
g4044
(dp4052
g4048
(dp4053
g86
g733
sssg4048
(dp4054
ssg482
g4051
sg97
(dp4055
sg484
g286
sg485
g4051
sg486
(dp4056
g4044
(dp4057
sg4048
(dp4058
g4044
g4053
sssbsg579
(lp4059
g4044
ag4048
asg852
(lp4060
(iconstruction
TP_REL
p4061
(dp4062
g858
g4048
sg86
g733
sg584
I406
sg859
g4044
sg67
VIS_406
p4063
sbasg584
I401
sg67
g1671
sbsg1766
(iconstruction
TP_SYNFORM
p4064
(dp4065
g584
I402
sg1769
(lp4066
(iconstruction
TP_PHON
p4067
(dp4068
g1779
I4
sg1776
I0
sg584
I407
sg1780
Vlady
p4069
sg67
g4035
sbasg67
g1671
sbsg1787
I1
sba(iconstruction
CXN
p4070
(dp4071
g1729
(iconstruction
TP_SYMLINKS
p4072
(dp4073
g1732
(dp4074
VN1_412
p4075
VS1_414
p4076
ssg584
I410
sg67
g1671
sbsg1738
VN
p4077
sg1740
I1
sg67
VMAN
p4078
sg1741
(iconstruction
TP_SEMFRAME
p4079
(dp4080
g97
g0
(g98
g2
Ntp4081
Rp4082
(dp4083
g102
(dp4084
(iconstruction
TP_NODE
p4085
(dp4086
g1750
I00
sg86
g835
sg67
g4075
sg1751
I00
sg1752
I00
sg584
I412
sb(dp4087
g1751
I00
sg86
g835
ss(iconstruction
TP_NODE
p4088
(dp4089
g1750
I01
sg86
g742
sg67
VENT_411
p4090
sg1751
I01
sg1752
I00
sg584
I411
sb(dp4091
g1751
I01
sg86
g742
sssg285
g286
sg287
g286
sg288
(dp4092
g4085
(dp4093
sg4088
(dp4094
g4085
(dp4095
g86
g733
ssssg482
g4092
sg97
(dp4096
sg484
g286
sg485
g4092
sg486
(dp4097
g4085
(dp4098
g4088
g4095
ssg4088
(dp4099
ssbsg579
(lp4100
g4088
ag4085
asg852
(lp4101
(iconstruction
TP_REL
p4102
(dp4103
g858
g4085
sg86
g733
sg584
I413
sg859
g4088
sg67
VIS_413
p4104
sbasg584
I408
sg67
g1671
sbsg1766
(iconstruction
TP_SYNFORM
p4105
(dp4106
g584
I409
sg1769
(lp4107
(iconstruction
TP_PHON
p4108
(dp4109
g1779
I3
sg1776
I0
sg584
I414
sg1780
Vman
p4110
sg67
g4076
sbasg67
g1671
sbsg1787
I1
sba(iconstruction
CXN
p4111
(dp4112
g1729
(iconstruction
TP_SYMLINKS
p4113
(dp4114
g1732
(dp4115
VN1_419
p4116
VS1_421
p4117
ssg584
I417
sg67
g1671
sbsg1738
VN
p4118
sg1740
I1
sg67
VGIRL
p4119
sg1741
(iconstruction
TP_SEMFRAME
p4120
(dp4121
g97
g0
(g98
g2
Ntp4122
Rp4123
(dp4124
g102
(dp4125
(iconstruction
TP_NODE
p4126
(dp4127
g1750
I01
sg86
g742
sg67
VENT_418
p4128
sg1751
I01
sg1752
I00
sg584
I418
sb(dp4129
g1751
I01
sg86
g742
ss(iconstruction
TP_NODE
p4130
(dp4131
g1750
I00
sg86
g826
sg67
g4116
sg1751
I00
sg1752
I00
sg584
I419
sb(dp4132
g1751
I00
sg86
g826
sssg285
g286
sg287
g286
sg288
(dp4133
g4126
(dp4134
g4130
(dp4135
g86
g733
sssg4130
(dp4136
ssg482
g4133
sg97
(dp4137
sg484
g286
sg485
g4133
sg486
(dp4138
g4126
(dp4139
sg4130
(dp4140
g4126
g4135
sssbsg579
(lp4141
g4126
ag4130
asg852
(lp4142
(iconstruction
TP_REL
p4143
(dp4144
g858
g4130
sg86
g733
sg584
I420
sg859
g4126
sg67
VIS_420
p4145
sbasg584
I415
sg67
g1671
sbsg1766
(iconstruction
TP_SYNFORM
p4146
(dp4147
g584
I416
sg1769
(lp4148
(iconstruction
TP_PHON
p4149
(dp4150
g1779
I4
sg1776
I0
sg584
I421
sg1780
Vgirl
p4151
sg67
g4117
sbasg67
g1671
sbsg1787
I1
sba(iconstruction
CXN
p4152
(dp4153
g1729
(iconstruction
TP_SYMLINKS
p4154
(dp4155
g1732
(dp4156
VN1_426
p4157
VS1_428
p4158
ssg584
I424
sg67
g1671
sbsg1738
VN
p4159
sg1740
I1
sg67
VBOY
p4160
sg1741
(iconstruction
TP_SEMFRAME
p4161
(dp4162
g97
g0
(g98
g2
Ntp4163
Rp4164
(dp4165
g102
(dp4166
(iconstruction
TP_NODE
p4167
(dp4168
g1750
I00
sg86
g805
sg67
g4157
sg1751
I00
sg1752
I00
sg584
I426
sb(dp4169
g1751
I00
sg86
g805
ss(iconstruction
TP_NODE
p4170
(dp4171
g1750
I01
sg86
g742
sg67
VENT_425
p4172
sg1751
I01
sg1752
I00
sg584
I425
sb(dp4173
g1751
I01
sg86
g742
sssg285
g286
sg287
g286
sg288
(dp4174
g4167
(dp4175
sg4170
(dp4176
g4167
(dp4177
g86
g733
ssssg482
g4174
sg97
(dp4178
sg484
g286
sg485
g4174
sg486
(dp4179
g4167
(dp4180
g4170
g4177
ssg4170
(dp4181
ssbsg579
(lp4182
g4170
ag4167
asg852
(lp4183
(iconstruction
TP_REL
p4184
(dp4185
g858
g4167
sg86
g733
sg584
I427
sg859
g4170
sg67
VIS_427
p4186
sbasg584
I422
sg67
g1671
sbsg1766
(iconstruction
TP_SYNFORM
p4187
(dp4188
g584
I423
sg1769
(lp4189
(iconstruction
TP_PHON
p4190
(dp4191
g1779
I3
sg1776
I0
sg584
I428
sg1780
Vboy
p4192
sg67
g4158
sbasg67
g1671
sbsg1787
I1
sba(iconstruction
CXN
p4193
(dp4194
g1729
(iconstruction
TP_SYMLINKS
p4195
(dp4196
g1732
(dp4197
VN1_433
p4198
VS1_435
p4199
ssg584
I431
sg67
g1671
sbsg1738
VN
p4200
sg1740
I1
sg67
VPEOPLE
p4201
sg1741
(iconstruction
TP_SEMFRAME
p4202
(dp4203
g97
g0
(g98
g2
Ntp4204
Rp4205
(dp4206
g102
(dp4207
(iconstruction
TP_NODE
p4208
(dp4209
g1750
I01
sg86
g742
sg67
VENT_432
p4210
sg1751
I01
sg1752
I00
sg584
I432
sb(dp4211
g1751
I01
sg86
g742
ss(iconstruction
TP_NODE
p4212
(dp4213
g1750
I00
sg86
g811
sg67
g4198
sg1751
I00
sg1752
I00
sg584
I433
sb(dp4214
g1751
I00
sg86
g811
sssg285
g286
sg287
g286
sg288
(dp4215
g4208
(dp4216
g4212
(dp4217
g86
g733
sssg4212
(dp4218
ssg482
g4215
sg97
(dp4219
sg484
g286
sg485
g4215
sg486
(dp4220
g4208
(dp4221
sg4212
(dp4222
g4208
g4217
sssbsg579
(lp4223
g4208
ag4212
asg852
(lp4224
(iconstruction
TP_REL
p4225
(dp4226
g858
g4212
sg86
g733
sg584
I434
sg859
g4208
sg67
VIS_434
p4227
sbasg584
I429
sg67
g1671
sbsg1766
(iconstruction
TP_SYNFORM
p4228
(dp4229
g584
I430
sg1769
(lp4230
(iconstruction
TP_PHON
p4231
(dp4232
g1779
I6
sg1776
I0
sg584
I435
sg1780
Vpeople
p4233
sg67
g4199
sbasg67
g1671
sbsg1787
I1
sba(iconstruction
CXN
p4234
(dp4235
g1729
(iconstruction
TP_SYMLINKS
p4236
(dp4237
g1732
(dp4238
VN1_440
p4239
VS1_442
p4240
ssg584
I438
sg67
g1671
sbsg1738
VN
p4241
sg1740
I1
sg67
VMOUSE
p4242
sg1741
(iconstruction
TP_SEMFRAME
p4243
(dp4244
g97
g0
(g98
g2
Ntp4245
Rp4246
(dp4247
g102
(dp4248
(iconstruction
TP_NODE
p4249
(dp4250
g1750
I01
sg86
g742
sg67
VENT_439
p4251
sg1751
I01
sg1752
I00
sg584
I439
sb(dp4252
g1751
I01
sg86
g742
ss(iconstruction
TP_NODE
p4253
(dp4254
g1750
I00
sg86
g799
sg67
g4239
sg1751
I00
sg1752
I00
sg584
I440
sb(dp4255
g1751
I00
sg86
g799
sssg285
g286
sg287
g286
sg288
(dp4256
g4249
(dp4257
g4253
(dp4258
g86
g733
sssg4253
(dp4259
ssg482
g4256
sg97
(dp4260
sg484
g286
sg485
g4256
sg486
(dp4261
g4249
(dp4262
sg4253
(dp4263
g4249
g4258
sssbsg579
(lp4264
g4249
ag4253
asg852
(lp4265
(iconstruction
TP_REL
p4266
(dp4267
g858
g4253
sg86
g733
sg584
I441
sg859
g4249
sg67
VIS_441
p4268
sbasg584
I436
sg67
g1671
sbsg1766
(iconstruction
TP_SYNFORM
p4269
(dp4270
g584
I437
sg1769
(lp4271
(iconstruction
TP_PHON
p4272
(dp4273
g1779
I5
sg1776
I0
sg584
I442
sg1780
Vmouse
p4274
sg67
g4240
sbasg67
g1671
sbsg1787
I1
sba(iconstruction
CXN
p4275
(dp4276
g1729
(iconstruction
TP_SYMLINKS
p4277
(dp4278
g1732
(dp4279
VN1_447
p4280
VS1_449
p4281
ssg584
I445
sg67
g1671
sbsg1738
VN
p4282
sg1740
I1
sg67
VTURTLE
p4283
sg1741
(iconstruction
TP_SEMFRAME
p4284
(dp4285
g97
g0
(g98
g2
Ntp4286
Rp4287
(dp4288
g102
(dp4289
(iconstruction
TP_NODE
p4290
(dp4291
g1750
I00
sg86
g796
sg67
g4280
sg1751
I00
sg1752
I00
sg584
I447
sb(dp4292
g1751
I00
sg86
g796
ss(iconstruction
TP_NODE
p4293
(dp4294
g1750
I01
sg86
g742
sg67
VENT_446
p4295
sg1751
I01
sg1752
I00
sg584
I446
sb(dp4296
g1751
I01
sg86
g742
sssg285
g286
sg287
g286
sg288
(dp4297
g4290
(dp4298
sg4293
(dp4299
g4290
(dp4300
g86
g733
ssssg482
g4297
sg97
(dp4301
sg484
g286
sg485
g4297
sg486
(dp4302
g4290
(dp4303
g4293
g4300
ssg4293
(dp4304
ssbsg579
(lp4305
g4293
ag4290
asg852
(lp4306
(iconstruction
TP_REL
p4307
(dp4308
g858
g4290
sg86
g733
sg584
I448
sg859
g4293
sg67
VIS_448
p4309
sbasg584
I443
sg67
g1671
sbsg1766
(iconstruction
TP_SYNFORM
p4310
(dp4311
g584
I444
sg1769
(lp4312
(iconstruction
TP_PHON
p4313
(dp4314
g1779
I6
sg1776
I0
sg584
I449
sg1780
Vturtle
p4315
sg67
g4281
sbasg67
g1671
sbsg1787
I1
sba(iconstruction
CXN
p4316
(dp4317
g1729
(iconstruction
TP_SYMLINKS
p4318
(dp4319
g1732
(dp4320
VN1_454
p4321
VS1_456
p4322
ssg584
I452
sg67
g1671
sbsg1738
VN
p4323
sg1740
I1
sg67
VDRESS
p4324
sg1741
(iconstruction
TP_SEMFRAME
p4325
(dp4326
g97
g0
(g98
g2
Ntp4327
Rp4328
(dp4329
g102
(dp4330
(iconstruction
TP_NODE
p4331
(dp4332
g1750
I01
sg86
g742
sg67
VENT_453
p4333
sg1751
I01
sg1752
I00
sg584
I453
sb(dp4334
g1751
I01
sg86
g742
ss(iconstruction
TP_NODE
p4335
(dp4336
g1750
I00
sg86
g787
sg67
g4321
sg1751
I00
sg1752
I00
sg584
I454
sb(dp4337
g1751
I00
sg86
g787
sssg285
g286
sg287
g286
sg288
(dp4338
g4331
(dp4339
g4335
(dp4340
g86
g733
sssg4335
(dp4341
ssg482
g4338
sg97
(dp4342
sg484
g286
sg485
g4338
sg486
(dp4343
g4331
(dp4344
sg4335
(dp4345
g4331
g4340
sssbsg579
(lp4346
g4331
ag4335
asg852
(lp4347
(iconstruction
TP_REL
p4348
(dp4349
g858
g4335
sg86
g733
sg584
I455
sg859
g4331
sg67
VIS_455
p4350
sbasg584
I450
sg67
g1671
sbsg1766
(iconstruction
TP_SYNFORM
p4351
(dp4352
g584
I451
sg1769
(lp4353
(iconstruction
TP_PHON
p4354
(dp4355
g1779
I5
sg1776
I0
sg584
I456
sg1780
Vdress
p4356
sg67
g4322
sbasg67
g1671
sbsg1787
I1
sba(iconstruction
CXN
p4357
(dp4358
g1729
(iconstruction
TP_SYMLINKS
p4359
(dp4360
g1732
(dp4361
VN1_461
p4362
VS1_463
p4363
ssg584
I459
sg67
g1671
sbsg1738
VN
p4364
sg1740
I1
sg67
VTSHIRT
p4365
sg1741
(iconstruction
TP_SEMFRAME
p4366
(dp4367
g97
g0
(g98
g2
Ntp4368
Rp4369
(dp4370
g102
(dp4371
(iconstruction
TP_NODE
p4372
(dp4373
g1750
I00
sg86
g784
sg67
g4362
sg1751
I00
sg1752
I00
sg584
I461
sb(dp4374
g1751
I00
sg86
g784
ss(iconstruction
TP_NODE
p4375
(dp4376
g1750
I01
sg86
g742
sg67
VENT_460
p4377
sg1751
I01
sg1752
I00
sg584
I460
sb(dp4378
g1751
I01
sg86
g742
sssg285
g286
sg287
g286
sg288
(dp4379
g4372
(dp4380
sg4375
(dp4381
g4372
(dp4382
g86
g733
ssssg482
g4379
sg97
(dp4383
sg484
g286
sg485
g4379
sg486
(dp4384
g4372
(dp4385
g4375
g4382
ssg4375
(dp4386
ssbsg579
(lp4387
g4375
ag4372
asg852
(lp4388
(iconstruction
TP_REL
p4389
(dp4390
g858
g4372
sg86
g733
sg584
I462
sg859
g4375
sg67
VIS_462
p4391
sbasg584
I457
sg67
g1671
sbsg1766
(iconstruction
TP_SYNFORM
p4392
(dp4393
g584
I458
sg1769
(lp4394
(iconstruction
TP_PHON
p4395
(dp4396
g1779
I6
sg1776
I0
sg584
I463
sg1780
Vt-shirt
p4397
sg67
g4363
sbasg67
g1671
sbsg1787
I1
sba(iconstruction
CXN
p4398
(dp4399
g1729
(iconstruction
TP_SYMLINKS
p4400
(dp4401
g1732
(dp4402
VN1_468
p4403
VS2_471
p4404
ssg584
I466
sg67
g1671
sbsg1738
VN
p4405
sg1740
I1
sg67
VBOXINGRING
p4406
sg1741
(iconstruction
TP_SEMFRAME
p4407
(dp4408
g97
g0
(g98
g2
Ntp4409
Rp4410
(dp4411
g102
(dp4412
(iconstruction
TP_NODE
p4413
(dp4414
g1750
I01
sg86
g742
sg67
VENT_467
p4415
sg1751
I01
sg1752
I00
sg584
I467
sb(dp4416
g1751
I01
sg86
g742
ss(iconstruction
TP_NODE
p4417
(dp4418
g1750
I00
sg86
g841
sg67
g4403
sg1751
I00
sg1752
I00
sg584
I468
sb(dp4419
g1751
I00
sg86
g841
sssg285
g286
sg287
g286
sg288
(dp4420
g4413
(dp4421
g4417
(dp4422
g86
g733
sssg4417
(dp4423
ssg482
g4420
sg97
(dp4424
sg484
g286
sg485
g4420
sg486
(dp4425
g4413
(dp4426
sg4417
(dp4427
g4413
g4422
sssbsg579
(lp4428
g4413
ag4417
asg852
(lp4429
(iconstruction
TP_REL
p4430
(dp4431
g858
g4417
sg86
g733
sg584
I469
sg859
g4413
sg67
VIS_469
p4432
sbasg584
I464
sg67
g1671
sbsg1766
(iconstruction
TP_SYNFORM
p4433
(dp4434
g584
I465
sg1769
(lp4435
(iconstruction
TP_PHON
p4436
(dp4437
g1779
I6
sg1776
I0
sg584
I470
sg1780
Vboxing
p4438
sg67
VS1_470
p4439
sba(iconstruction
TP_PHON
p4440
(dp4441
g1779
I4
sg1776
I1
sg584
I471
sg1780
Vring
p4442
sg67
g4404
sbasg67
g1671
sbsg1787
I1
sba(iconstruction
CXN
p4443
(dp4444
g1729
(iconstruction
TP_SYMLINKS
p4445
(dp4446
g1732
(dp4447
VN1_476
p4448
VS1_478
p4449
ssg584
I474
sg67
g1671
sbsg1738
VN
p4450
sg1740
I1
sg67
VPARK
p4451
sg1741
(iconstruction
TP_SEMFRAME
p4452
(dp4453
g97
g0
(g98
g2
Ntp4454
Rp4455
(dp4456
g102
(dp4457
(iconstruction
TP_NODE
p4458
(dp4459
g1750
I00
sg86
g844
sg67
g4448
sg1751
I00
sg1752
I00
sg584
I476
sb(dp4460
g1751
I00
sg86
g844
ss(iconstruction
TP_NODE
p4461
(dp4462
g1750
I01
sg86
g742
sg67
VENT_475
p4463
sg1751
I01
sg1752
I00
sg584
I475
sb(dp4464
g1751
I01
sg86
g742
sssg285
g286
sg287
g286
sg288
(dp4465
g4458
(dp4466
sg4461
(dp4467
g4458
(dp4468
g86
g733
ssssg482
g4465
sg97
(dp4469
sg484
g286
sg485
g4465
sg486
(dp4470
g4458
(dp4471
g4461
g4468
ssg4461
(dp4472
ssbsg579
(lp4473
g4461
ag4458
asg852
(lp4474
(iconstruction
TP_REL
p4475
(dp4476
g858
g4458
sg86
g733
sg584
I477
sg859
g4461
sg67
VIS_477
p4477
sbasg584
I472
sg67
g1671
sbsg1766
(iconstruction
TP_SYNFORM
p4478
(dp4479
g584
I473
sg1769
(lp4480
(iconstruction
TP_PHON
p4481
(dp4482
g1779
I4
sg1776
I0
sg584
I478
sg1780
Vpark
p4483
sg67
g4449
sbasg67
g1671
sbsg1787
I1
sba(iconstruction
CXN
p4484
(dp4485
g1729
(iconstruction
TP_SYMLINKS
p4486
(dp4487
g1732
(dp4488
VN1_483
p4489
VS1_485
p4490
ssg584
I481
sg67
g1671
sbsg1738
VN
p4491
sg1740
I1
sg67
VSHIRT
p4492
sg1741
(iconstruction
TP_SEMFRAME
p4493
(dp4494
g97
g0
(g98
g2
Ntp4495
Rp4496
(dp4497
g102
(dp4498
(iconstruction
TP_NODE
p4499
(dp4500
g1750
I01
sg86
g742
sg67
VENT_482
p4501
sg1751
I01
sg1752
I00
sg584
I482
sb(dp4502
g1751
I01
sg86
g742
ss(iconstruction
TP_NODE
p4503
(dp4504
g1750
I00
sg86
g790
sg67
g4489
sg1751
I00
sg1752
I00
sg584
I483
sb(dp4505
g1751
I00
sg86
g790
sssg285
g286
sg287
g286
sg288
(dp4506
g4499
(dp4507
g4503
(dp4508
g86
g733
sssg4503
(dp4509
ssg482
g4506
sg97
(dp4510
sg484
g286
sg485
g4506
sg486
(dp4511
g4499
(dp4512
sg4503
(dp4513
g4499
g4508
sssbsg579
(lp4514
g4499
ag4503
asg852
(lp4515
(iconstruction
TP_REL
p4516
(dp4517
g858
g4503
sg86
g733
sg584
I484
sg859
g4499
sg67
VIS_484
p4518
sbasg584
I479
sg67
g1671
sbsg1766
(iconstruction
TP_SYNFORM
p4519
(dp4520
g584
I480
sg1769
(lp4521
(iconstruction
TP_PHON
p4522
(dp4523
g1779
I5
sg1776
I0
sg584
I485
sg1780
Vshirt
p4524
sg67
g4490
sbasg67
g1671
sbsg1787
I1
sba(iconstruction
CXN
p4525
(dp4526
g1729
(iconstruction
TP_SYMLINKS
p4527
(dp4528
g1732
(dp4529
VN1_490
p4530
VS1_492
p4531
ssg584
I488
sg67
g1671
sbsg1738
VN
p4532
sg1740
I1
sg67
VSUIT
p4533
sg1741
(iconstruction
TP_SEMFRAME
p4534
(dp4535
g97
g0
(g98
g2
Ntp4536
Rp4537
(dp4538
g102
(dp4539
(iconstruction
TP_NODE
p4540
(dp4541
g1750
I00
sg86
g793
sg67
g4530
sg1751
I00
sg1752
I00
sg584
I490
sb(dp4542
g1751
I00
sg86
g793
ss(iconstruction
TP_NODE
p4543
(dp4544
g1750
I01
sg86
g742
sg67
VENT_489
p4545
sg1751
I01
sg1752
I00
sg584
I489
sb(dp4546
g1751
I01
sg86
g742
sssg285
g286
sg287
g286
sg288
(dp4547
g4540
(dp4548
sg4543
(dp4549
g4540
(dp4550
g86
g733
ssssg482
g4547
sg97
(dp4551
sg484
g286
sg485
g4547
sg486
(dp4552
g4540
(dp4553
g4543
g4550
ssg4543
(dp4554
ssbsg579
(lp4555
g4543
ag4540
asg852
(lp4556
(iconstruction
TP_REL
p4557
(dp4558
g858
g4540
sg86
g733
sg584
I491
sg859
g4543
sg67
VIS_491
p4559
sbasg584
I486
sg67
g1671
sbsg1766
(iconstruction
TP_SYNFORM
p4560
(dp4561
g584
I487
sg1769
(lp4562
(iconstruction
TP_PHON
p4563
(dp4564
g1779
I4
sg1776
I0
sg584
I492
sg1780
Vsuit
p4565
sg67
g4531
sbasg67
g1671
sbsg1787
I1
sba(iconstruction
CXN
p4566
(dp4567
g1729
(iconstruction
TP_SYMLINKS
p4568
(dp4569
g1732
(dp4570
VN1_497
p4571
VS1_499
p4572
ssg584
I495
sg67
g1671
sbsg1738
VN
p4573
sg1740
I1
sg67
VCELLO
p4574
sg1741
(iconstruction
TP_SEMFRAME
p4575
(dp4576
g97
g0
(g98
g2
Ntp4577
Rp4578
(dp4579
g102
(dp4580
(iconstruction
TP_NODE
p4581
(dp4582
g1750
I01
sg86
g742
sg67
VENT_496
p4583
sg1751
I01
sg1752
I00
sg584
I496
sb(dp4584
g1751
I01
sg86
g742
ss(iconstruction
TP_NODE
p4585
(dp4586
g1750
I00
sg86
g775
sg67
g4571
sg1751
I00
sg1752
I00
sg584
I497
sb(dp4587
g1751
I00
sg86
g775
sssg285
g286
sg287
g286
sg288
(dp4588
g4581
(dp4589
g4585
(dp4590
g86
g733
sssg4585
(dp4591
ssg482
g4588
sg97
(dp4592
sg484
g286
sg485
g4588
sg486
(dp4593
g4581
(dp4594
sg4585
(dp4595
g4581
g4590
sssbsg579
(lp4596
g4581
ag4585
asg852
(lp4597
(iconstruction
TP_REL
p4598
(dp4599
g858
g4585
sg86
g733
sg584
I498
sg859
g4581
sg67
VIS_498
p4600
sbasg584
I493
sg67
g1671
sbsg1766
(iconstruction
TP_SYNFORM
p4601
(dp4602
g584
I494
sg1769
(lp4603
(iconstruction
TP_PHON
p4604
(dp4605
g1779
I5
sg1776
I0
sg584
I499
sg1780
VCELLO
p4606
sg67
g4572
sbasg67
g1671
sbsg1787
I1
sba(iconstruction
CXN
p4607
(dp4608
g1729
(iconstruction
TP_SYMLINKS
p4609
(dp4610
g1732
(dp4611
VN1_504
p4612
VS1_506
p4613
ssg584
I502
sg67
g1671
sbsg1738
VN
p4614
sg1740
I1
sg67
VBAG
p4615
sg1741
(iconstruction
TP_SEMFRAME
p4616
(dp4617
g97
g0
(g98
g2
Ntp4618
Rp4619
(dp4620
g102
(dp4621
(iconstruction
TP_NODE
p4622
(dp4623
g1750
I00
sg86
g766
sg67
g4612
sg1751
I00
sg1752
I00
sg584
I504
sb(dp4624
g1751
I00
sg86
g766
ss(iconstruction
TP_NODE
p4625
(dp4626
g1750
I01
sg86
g742
sg67
VENT_503
p4627
sg1751
I01
sg1752
I00
sg584
I503
sb(dp4628
g1751
I01
sg86
g742
sssg285
g286
sg287
g286
sg288
(dp4629
g4622
(dp4630
sg4625
(dp4631
g4622
(dp4632
g86
g733
ssssg482
g4629
sg97
(dp4633
sg484
g286
sg485
g4629
sg486
(dp4634
g4622
(dp4635
g4625
g4632
ssg4625
(dp4636
ssbsg579
(lp4637
g4625
ag4622
asg852
(lp4638
(iconstruction
TP_REL
p4639
(dp4640
g858
g4622
sg86
g733
sg584
I505
sg859
g4625
sg67
VIS_505
p4641
sbasg584
I500
sg67
g1671
sbsg1766
(iconstruction
TP_SYNFORM
p4642
(dp4643
g584
I501
sg1769
(lp4644
(iconstruction
TP_PHON
p4645
(dp4646
g1779
I3
sg1776
I0
sg584
I506
sg1780
Vbag
p4647
sg67
g4613
sbasg67
g1671
sbsg1787
I1
sba(iconstruction
CXN
p4648
(dp4649
g1729
(iconstruction
TP_SYMLINKS
p4650
(dp4651
g1732
(dp4652
VN1_511
p4653
VS2_514
p4654
ssg584
I509
sg67
g1671
sbsg1738
VN
p4655
sg1740
I1
sg67
VWATERING_CAN
p4656
sg1741
(iconstruction
TP_SEMFRAME
p4657
(dp4658
g97
g0
(g98
g2
Ntp4659
Rp4660
(dp4661
g102
(dp4662
(iconstruction
TP_NODE
p4663
(dp4664
g1750
I01
sg86
g742
sg67
VENT_510
p4665
sg1751
I01
sg1752
I00
sg584
I510
sb(dp4666
g1751
I01
sg86
g742
ss(iconstruction
TP_NODE
p4667
(dp4668
g1750
I00
sg86
g763
sg67
g4653
sg1751
I00
sg1752
I00
sg584
I511
sb(dp4669
g1751
I00
sg86
g763
sssg285
g286
sg287
g286
sg288
(dp4670
g4663
(dp4671
g4667
(dp4672
g86
g733
sssg4667
(dp4673
ssg482
g4670
sg97
(dp4674
sg484
g286
sg485
g4670
sg486
(dp4675
g4663
(dp4676
sg4667
(dp4677
g4663
g4672
sssbsg579
(lp4678
g4663
ag4667
asg852
(lp4679
(iconstruction
TP_REL
p4680
(dp4681
g858
g4667
sg86
g733
sg584
I512
sg859
g4663
sg67
VIS_512
p4682
sbasg584
I507
sg67
g1671
sbsg1766
(iconstruction
TP_SYNFORM
p4683
(dp4684
g584
I508
sg1769
(lp4685
(iconstruction
TP_PHON
p4686
(dp4687
g1779
I8
sg1776
I0
sg584
I513
sg1780
Vwatering
p4688
sg67
VS1_513
p4689
sba(iconstruction
TP_PHON
p4690
(dp4691
g1779
I3
sg1776
I1
sg584
I514
sg1780
Vcan
p4692
sg67
g4654
sbasg67
g1671
sbsg1787
I1
sba(iconstruction
CXN
p4693
(dp4694
g1729
(iconstruction
TP_SYMLINKS
p4695
(dp4696
g1732
(dp4697
VN1_519
p4698
VS1_521
p4699
ssg584
I517
sg67
g1671
sbsg1738
VN
p4700
sg1740
I1
sg67
VBALLERINA
p4701
sg1741
(iconstruction
TP_SEMFRAME
p4702
(dp4703
g97
g0
(g98
g2
Ntp4704
Rp4705
(dp4706
g102
(dp4707
(iconstruction
TP_NODE
p4708
(dp4709
g1750
I00
sg86
g820
sg67
g4698
sg1751
I00
sg1752
I00
sg584
I519
sb(dp4710
g1751
I00
sg86
g820
ss(iconstruction
TP_NODE
p4711
(dp4712
g1750
I01
sg86
g742
sg67
VENT_518
p4713
sg1751
I01
sg1752
I00
sg584
I518
sb(dp4714
g1751
I01
sg86
g742
sssg285
g286
sg287
g286
sg288
(dp4715
g4708
(dp4716
sg4711
(dp4717
g4708
(dp4718
g86
g733
ssssg482
g4715
sg97
(dp4719
sg484
g286
sg485
g4715
sg486
(dp4720
g4708
(dp4721
g4711
g4718
ssg4711
(dp4722
ssbsg579
(lp4723
g4711
ag4708
asg852
(lp4724
(iconstruction
TP_REL
p4725
(dp4726
g858
g4708
sg86
g733
sg584
I520
sg859
g4711
sg67
VIS_520
p4727
sbasg584
I515
sg67
g1671
sbsg1766
(iconstruction
TP_SYNFORM
p4728
(dp4729
g584
I516
sg1769
(lp4730
(iconstruction
TP_PHON
p4731
(dp4732
g1779
I9
sg1776
I0
sg584
I521
sg1780
Vballerina
p4733
sg67
g4699
sbasg67
g1671
sbsg1787
I1
sba(iconstruction
CXN
p4734
(dp4735
g1729
(iconstruction
TP_SYMLINKS
p4736
(dp4737
g1732
(dp4738
VN1_526
p4739
VS1_528
p4740
ssg584
I524
sg67
g1671
sbsg1738
VN
p4741
sg1740
I1
sg67
VCELLIST
p4742
sg1741
(iconstruction
TP_SEMFRAME
p4743
(dp4744
g97
g0
(g98
g2
Ntp4745
Rp4746
(dp4747
g102
(dp4748
(iconstruction
TP_NODE
p4749
(dp4750
g1750
I01
sg86
g742
sg67
VENT_525
p4751
sg1751
I01
sg1752
I00
sg584
I525
sb(dp4752
g1751
I01
sg86
g742
ss(iconstruction
TP_NODE
p4753
(dp4754
g1750
I00
sg86
g823
sg67
g4739
sg1751
I00
sg1752
I00
sg584
I526
sb(dp4755
g1751
I00
sg86
g823
sssg285
g286
sg287
g286
sg288
(dp4756
g4749
(dp4757
g4753
(dp4758
g86
g733
sssg4753
(dp4759
ssg482
g4756
sg97
(dp4760
sg484
g286
sg485
g4756
sg486
(dp4761
g4749
(dp4762
sg4753
(dp4763
g4749
g4758
sssbsg579
(lp4764
g4749
ag4753
asg852
(lp4765
(iconstruction
TP_REL
p4766
(dp4767
g858
g4753
sg86
g733
sg584
I527
sg859
g4749
sg67
VIS_527
p4768
sbasg584
I522
sg67
g1671
sbsg1766
(iconstruction
TP_SYNFORM
p4769
(dp4770
g584
I523
sg1769
(lp4771
(iconstruction
TP_PHON
p4772
(dp4773
g1779
I7
sg1776
I0
sg584
I528
sg1780
Vcellist
p4774
sg67
g4740
sbasg67
g1671
sbsg1787
I1
sba(iconstruction
CXN
p4775
(dp4776
g1729
(iconstruction
TP_SYMLINKS
p4777
(dp4778
g1732
(dp4779
VN1_533
p4780
VS1_535
p4781
ssg584
I531
sg67
g1671
sbsg1738
VN
p4782
sg1740
I1
sg67
VFENCER
p4783
sg1741
(iconstruction
TP_SEMFRAME
p4784
(dp4785
g97
g0
(g98
g2
Ntp4786
Rp4787
(dp4788
g102
(dp4789
(iconstruction
TP_NODE
p4790
(dp4791
g1750
I00
sg86
g829
sg67
g4780
sg1751
I00
sg1752
I00
sg584
I533
sb(dp4792
g1751
I00
sg86
g829
ss(iconstruction
TP_NODE
p4793
(dp4794
g1750
I01
sg86
g742
sg67
VENT_532
p4795
sg1751
I01
sg1752
I00
sg584
I532
sb(dp4796
g1751
I01
sg86
g742
sssg285
g286
sg287
g286
sg288
(dp4797
g4790
(dp4798
sg4793
(dp4799
g4790
(dp4800
g86
g733
ssssg482
g4797
sg97
(dp4801
sg484
g286
sg485
g4797
sg486
(dp4802
g4790
(dp4803
g4793
g4800
ssg4793
(dp4804
ssbsg579
(lp4805
g4793
ag4790
asg852
(lp4806
(iconstruction
TP_REL
p4807
(dp4808
g858
g4790
sg86
g733
sg584
I534
sg859
g4793
sg67
VIS_534
p4809
sbasg584
I529
sg67
g1671
sbsg1766
(iconstruction
TP_SYNFORM
p4810
(dp4811
g584
I530
sg1769
(lp4812
(iconstruction
TP_PHON
p4813
(dp4814
g1779
I6
sg1776
I0
sg584
I535
sg1780
Vfencer
p4815
sg67
g4781
sbasg67
g1671
sbsg1787
I1
sba(iconstruction
CXN
p4816
(dp4817
g1729
(iconstruction
TP_SYMLINKS
p4818
(dp4819
g1732
(dp4820
VN1_540
p4821
VS1_542
p4822
ssg584
I538
sg67
g1671
sbsg1738
VN
p4823
sg1740
I1
sg67
VROBBER
p4824
sg1741
(iconstruction
TP_SEMFRAME
p4825
(dp4826
g97
g0
(g98
g2
Ntp4827
Rp4828
(dp4829
g102
(dp4830
(iconstruction
TP_NODE
p4831
(dp4832
g1750
I01
sg86
g742
sg67
VENT_539
p4833
sg1751
I01
sg1752
I00
sg584
I539
sb(dp4834
g1751
I01
sg86
g742
ss(iconstruction
TP_NODE
p4835
(dp4836
g1750
I00
sg86
g832
sg67
g4821
sg1751
I00
sg1752
I00
sg584
I540
sb(dp4837
g1751
I00
sg86
g832
sssg285
g286
sg287
g286
sg288
(dp4838
g4831
(dp4839
g4835
(dp4840
g86
g733
sssg4835
(dp4841
ssg482
g4838
sg97
(dp4842
sg484
g286
sg485
g4838
sg486
(dp4843
g4831
(dp4844
sg4835
(dp4845
g4831
g4840
sssbsg579
(lp4846
g4831
ag4835
asg852
(lp4847
(iconstruction
TP_REL
p4848
(dp4849
g858
g4835
sg86
g733
sg584
I541
sg859
g4831
sg67
VIS_541
p4850
sbasg584
I536
sg67
g1671
sbsg1766
(iconstruction
TP_SYNFORM
p4851
(dp4852
g584
I537
sg1769
(lp4853
(iconstruction
TP_PHON
p4854
(dp4855
g1779
I5
sg1776
I0
sg584
I542
sg1780
Vthief
p4856
sg67
g4822
sbasg67
g1671
sbsg1787
I1
sba(iconstruction
CXN
p4857
(dp4858
g1729
(iconstruction
TP_SYMLINKS
p4859
(dp4860
g1732
(dp4861
VN1_547
p4862
VS1_549
p4863
ssg584
I545
sg67
g1671
sbsg1738
VN
p4864
sg1740
I1
sg67
VPOLICEMAN
p4865
sg1741
(iconstruction
TP_SEMFRAME
p4866
(dp4867
g97
g0
(g98
g2
Ntp4868
Rp4869
(dp4870
g102
(dp4871
(iconstruction
TP_NODE
p4872
(dp4873
g1750
I00
sg86
g814
sg67
g4862
sg1751
I00
sg1752
I00
sg584
I547
sb(dp4874
g1751
I00
sg86
g814
ss(iconstruction
TP_NODE
p4875
(dp4876
g1750
I01
sg86
g742
sg67
VENT_546
p4877
sg1751
I01
sg1752
I00
sg584
I546
sb(dp4878
g1751
I01
sg86
g742
sssg285
g286
sg287
g286
sg288
(dp4879
g4872
(dp4880
sg4875
(dp4881
g4872
(dp4882
g86
g733
ssssg482
g4879
sg97
(dp4883
sg484
g286
sg485
g4879
sg486
(dp4884
g4872
(dp4885
g4875
g4882
ssg4875
(dp4886
ssbsg579
(lp4887
g4875
ag4872
asg852
(lp4888
(iconstruction
TP_REL
p4889
(dp4890
g858
g4872
sg86
g733
sg584
I548
sg859
g4875
sg67
VIS_548
p4891
sbasg584
I543
sg67
g1671
sbsg1766
(iconstruction
TP_SYNFORM
p4892
(dp4893
g584
I544
sg1769
(lp4894
(iconstruction
TP_PHON
p4895
(dp4896
g1779
I9
sg1776
I0
sg584
I549
sg1780
Vpoliceman
p4897
sg67
g4863
sbasg67
g1671
sbsg1787
I1
sba(iconstruction
CXN
p4898
(dp4899
g1729
(iconstruction
TP_SYMLINKS
p4900
(dp4901
g1732
(dp4902
VN1_554
p4903
VS1_556
p4904
ssg584
I552
sg67
g1671
sbsg1738
VN
p4905
sg1740
I1
sg67
VHUNTER
p4906
sg1741
(iconstruction
TP_SEMFRAME
p4907
(dp4908
g97
g0
(g98
g2
Ntp4909
Rp4910
(dp4911
g102
(dp4912
(iconstruction
TP_NODE
p4913
(dp4914
g1750
I01
sg86
g742
sg67
VENT_553
p4915
sg1751
I01
sg1752
I00
sg584
I553
sb(dp4916
g1751
I01
sg86
g742
ss(iconstruction
TP_NODE
p4917
(dp4918
g1750
I00
sg86
g817
sg67
g4903
sg1751
I00
sg1752
I00
sg584
I554
sb(dp4919
g1751
I00
sg86
g817
sssg285
g286
sg287
g286
sg288
(dp4920
g4913
(dp4921
g4917
(dp4922
g86
g733
sssg4917
(dp4923
ssg482
g4920
sg97
(dp4924
sg484
g286
sg485
g4920
sg486
(dp4925
g4913
(dp4926
sg4917
(dp4927
g4913
g4922
sssbsg579
(lp4928
g4913
ag4917
asg852
(lp4929
(iconstruction
TP_REL
p4930
(dp4931
g858
g4917
sg86
g733
sg584
I555
sg859
g4913
sg67
VIS_555
p4932
sbasg584
I550
sg67
g1671
sbsg1766
(iconstruction
TP_SYNFORM
p4933
(dp4934
g584
I551
sg1769
(lp4935
(iconstruction
TP_PHON
p4936
(dp4937
g1779
I6
sg1776
I0
sg584
I556
sg1780
Vhunter
p4938
sg67
g4904
sbasg67
g1671
sbsg1787
I1
sba(iconstruction
CXN
p4939
(dp4940
g1729
(iconstruction
TP_SYMLINKS
p4941
(dp4942
g1732
(dp4943
VN1_561
p4944
VS1_563
p4945
ssg584
I559
sg67
g1671
sbsg1738
VN
p4946
sg1740
I1
sg67
VDOG
p4947
sg1741
(iconstruction
TP_SEMFRAME
p4948
(dp4949
g97
g0
(g98
g2
Ntp4950
Rp4951
(dp4952
g102
(dp4953
(iconstruction
TP_NODE
p4954
(dp4955
g1750
I01
sg86
g742
sg67
VENT_560
p4956
sg1751
I01
sg1752
I00
sg584
I560
sb(dp4957
g1751
I01
sg86
g742
ss(iconstruction
TP_NODE
p4958
(dp4959
g1750
I00
sg86
g802
sg67
g4944
sg1751
I00
sg1752
I00
sg584
I561
sb(dp4960
g1751
I00
sg86
g802
sssg285
g286
sg287
g286
sg288
(dp4961
g4954
(dp4962
g4958
(dp4963
g86
g733
sssg4958
(dp4964
ssg482
g4961
sg97
(dp4965
sg484
g286
sg485
g4961
sg486
(dp4966
g4954
(dp4967
sg4958
(dp4968
g4954
g4963
sssbsg579
(lp4969
g4954
ag4958
asg852
(lp4970
(iconstruction
TP_REL
p4971
(dp4972
g858
g4958
sg86
g733
sg584
I562
sg859
g4954
sg67
VIS_562
p4973
sbasg584
I557
sg67
g1671
sbsg1766
(iconstruction
TP_SYNFORM
p4974
(dp4975
g584
I558
sg1769
(lp4976
(iconstruction
TP_PHON
p4977
(dp4978
g1779
I3
sg1776
I0
sg584
I563
sg1780
Vdog
p4979
sg67
g4945
sbasg67
g1671
sbsg1787
I1
sba(iconstruction
CXN
p4980
(dp4981
g1729
(iconstruction
TP_SYMLINKS
p4982
(dp4983
g1732
(dp4984
VN1_568
p4985
VS1_570
p4986
ssg584
I566
sg67
g1671
sbsg1738
VN
p4987
sg1740
I1
sg67
VHOOK
p4988
sg1741
(iconstruction
TP_SEMFRAME
p4989
(dp4990
g97
g0
(g98
g2
Ntp4991
Rp4992
(dp4993
g102
(dp4994
(iconstruction
TP_NODE
p4995
(dp4996
g1750
I00
sg86
g772
sg67
g4985
sg1751
I00
sg1752
I00
sg584
I568
sb(dp4997
g1751
I00
sg86
g772
ss(iconstruction
TP_NODE
p4998
(dp4999
g1750
I01
sg86
g742
sg67
VENT_567
p5000
sg1751
I01
sg1752
I00
sg584
I567
sb(dp5001
g1751
I01
sg86
g742
sssg285
g286
sg287
g286
sg288
(dp5002
g4995
(dp5003
sg4998
(dp5004
g4995
(dp5005
g86
g733
ssssg482
g5002
sg97
(dp5006
sg484
g286
sg485
g5002
sg486
(dp5007
g4995
(dp5008
g4998
g5005
ssg4998
(dp5009
ssbsg579
(lp5010
g4998
ag4995
asg852
(lp5011
(iconstruction
TP_REL
p5012
(dp5013
g858
g4995
sg86
g733
sg584
I569
sg859
g4998
sg67
VIS_569
p5014
sbasg584
I564
sg67
g1671
sbsg1766
(iconstruction
TP_SYNFORM
p5015
(dp5016
g584
I565
sg1769
(lp5017
(iconstruction
TP_PHON
p5018
(dp5019
g1779
I4
sg1776
I0
sg584
I570
sg1780
Vhook
p5020
sg67
g4986
sbasg67
g1671
sbsg1787
I1
sba(iconstruction
CXN
p5021
(dp5022
g1729
(iconstruction
TP_SYMLINKS
p5023
(dp5024
g1732
(dp5025
VN1_575
p5026
VS1_577
p5027
ssg584
I573
sg67
g1671
sbsg1738
VN
p5028
sg1740
I1
sg67
VBOOKSHELF
p5029
sg1741
(iconstruction
TP_SEMFRAME
p5030
(dp5031
g97
g0
(g98
g2
Ntp5032
Rp5033
(dp5034
g102
(dp5035
(iconstruction
TP_NODE
p5036
(dp5037
g1750
I01
sg86
g742
sg67
VENT_574
p5038
sg1751
I01
sg1752
I00
sg584
I574
sb(dp5039
g1751
I01
sg86
g742
ss(iconstruction
TP_NODE
p5040
(dp5041
g1750
I00
sg86
g778
sg67
g5026
sg1751
I00
sg1752
I00
sg584
I575
sb(dp5042
g1751
I00
sg86
g778
sssg285
g286
sg287
g286
sg288
(dp5043
g5036
(dp5044
g5040
(dp5045
g86
g733
sssg5040
(dp5046
ssg482
g5043
sg97
(dp5047
sg484
g286
sg485
g5043
sg486
(dp5048
g5036
(dp5049
sg5040
(dp5050
g5036
g5045
sssbsg579
(lp5051
g5036
ag5040
asg852
(lp5052
(iconstruction
TP_REL
p5053
(dp5054
g858
g5040
sg86
g733
sg584
I576
sg859
g5036
sg67
VIS_576
p5055
sbasg584
I571
sg67
g1671
sbsg1766
(iconstruction
TP_SYNFORM
p5056
(dp5057
g584
I572
sg1769
(lp5058
(iconstruction
TP_PHON
p5059
(dp5060
g1779
I9
sg1776
I0
sg584
I577
sg1780
Vbookshelf
p5061
sg67
g5027
sbasg67
g1671
sbsg1787
I1
sba(iconstruction
CXN
p5062
(dp5063
g1729
(iconstruction
TP_SYMLINKS
p5064
(dp5065
g1732
(dp5066
VN1_582
p5067
VS1_584
p5068
ssg584
I580
sg67
g1671
sbsg1738
VN
p5069
sg1740
I1
sg67
VWAGON
p5070
sg1741
(iconstruction
TP_SEMFRAME
p5071
(dp5072
g97
g0
(g98
g2
Ntp5073
Rp5074
(dp5075
g102
(dp5076
(iconstruction
TP_NODE
p5077
(dp5078
g1750
I00
sg86
g760
sg67
g5067
sg1751
I00
sg1752
I00
sg584
I582
sb(dp5079
g1751
I00
sg86
g760
ss(iconstruction
TP_NODE
p5080
(dp5081
g1750
I01
sg86
g742
sg67
VENT_581
p5082
sg1751
I01
sg1752
I00
sg584
I581
sb(dp5083
g1751
I01
sg86
g742
sssg285
g286
sg287
g286
sg288
(dp5084
g5077
(dp5085
sg5080
(dp5086
g5077
(dp5087
g86
g733
ssssg482
g5084
sg97
(dp5088
sg484
g286
sg485
g5084
sg486
(dp5089
g5077
(dp5090
g5080
g5087
ssg5080
(dp5091
ssbsg579
(lp5092
g5080
ag5077
asg852
(lp5093
(iconstruction
TP_REL
p5094
(dp5095
g858
g5077
sg86
g733
sg584
I583
sg859
g5080
sg67
VIS_583
p5096
sbasg584
I578
sg67
g1671
sbsg1766
(iconstruction
TP_SYNFORM
p5097
(dp5098
g584
I579
sg1769
(lp5099
(iconstruction
TP_PHON
p5100
(dp5101
g1779
I5
sg1776
I0
sg584
I584
sg1780
Vwagon
p5102
sg67
g5068
sbasg67
g1671
sbsg1787
I1
sba(iconstruction
CXN
p5103
(dp5104
g1729
(iconstruction
TP_SYMLINKS
p5105
(dp5106
g1732
(dp5107
VN1_589
p5108
VS1_591
p5109
ssg584
I587
sg67
g1671
sbsg1738
VN
p5110
sg1740
I1
sg67
VTREE
p5111
sg1741
(iconstruction
TP_SEMFRAME
p5112
(dp5113
g97
g0
(g98
g2
Ntp5114
Rp5115
(dp5116
g102
(dp5117
(iconstruction
TP_NODE
p5118
(dp5119
g1750
I01
sg86
g742
sg67
VENT_588
p5120
sg1751
I01
sg1752
I00
sg584
I588
sb(dp5121
g1751
I01
sg86
g742
ss(iconstruction
TP_NODE
p5122
(dp5123
g1750
I00
sg86
g769
sg67
g5108
sg1751
I00
sg1752
I00
sg584
I589
sb(dp5124
g1751
I00
sg86
g769
sssg285
g286
sg287
g286
sg288
(dp5125
g5118
(dp5126
g5122
(dp5127
g86
g733
sssg5122
(dp5128
ssg482
g5125
sg97
(dp5129
sg484
g286
sg485
g5125
sg486
(dp5130
g5118
(dp5131
sg5122
(dp5132
g5118
g5127
sssbsg579
(lp5133
g5118
ag5122
asg852
(lp5134
(iconstruction
TP_REL
p5135
(dp5136
g858
g5122
sg86
g733
sg584
I590
sg859
g5118
sg67
VIS_590
p5137
sbasg584
I585
sg67
g1671
sbsg1766
(iconstruction
TP_SYNFORM
p5138
(dp5139
g584
I586
sg1769
(lp5140
(iconstruction
TP_PHON
p5141
(dp5142
g1779
I4
sg1776
I0
sg584
I591
sg1780
Vtree
p5143
sg67
g5109
sbasg67
g1671
sbsg1787
I1
sbasbsg67
g1684
sg69
(lp5144
g0
(g71
g2
Ntp5145
Rp5146
(dp5147
g1573
Nsg67
g1579
sg76
Nsg77
Nsg1575
Nsg294
g1518
sg584
I20
sg1519
g1790
sbag0
(g71
g2
Ntp5148
Rp5149
(dp5150
g67
S'to_cxn_retrieval_C'
p5151
sg76
Nsg77
g1721
sg294
g1518
sg584
I21
sg1519
g1790
sbasg1524
(dp5152
g1579
Nsg5151
Nssg1526
(lp5153
sg1529
F1.0
sg1530
(lp5154
sg1532
(dp5155
g1157
F0.3
ssg1534
I0
sg1535
I0
sg1155
g1538
sg584
I4
sS'schemas'
p5156
g1721
sbsg1157
F0.3
sbag0
(g1722
g2
Ntp5157
Rp5158
(dp5159
g67
g1808
sg84
g1798
sg1155
Nsg584
I100
sg1156
g1790
sg1157
F0.3
sbag0
(g1722
g2
Ntp5160
Rp5161
(dp5162
g67
g1859
sg84
g1849
sg1155
Nsg584
I101
sg1156
g1790
sg1157
F0.3
sbag0
(g1722
g2
Ntp5163
Rp5164
(dp5165
g67
g1912
sg84
g1900
sg1155
Nsg584
I102
sg1156
g1790
sg1157
F0.3
sbag0
(g1722
g2
Ntp5166
Rp5167
(dp5168
g67
g1991
sg84
g1979
sg1155
Nsg584
I103
sg1156
g1790
sg1157
F0.3
sbag0
(g1722
g2
Ntp5169
Rp5170
(dp5171
g67
g2066
sg84
g2054
sg1155
Nsg584
I104
sg1156
g1790
sg1157
F0.3
sbag0
(g1722
g2
Ntp5172
Rp5173
(dp5174
g67
g2155
sg84
g2141
sg1155
Nsg584
I105
sg1156
g1790
sg1157
F0.3
sbag0
(g1722
g2
Ntp5175
Rp5176
(dp5177
g67
g2246
sg84
g2232
sg1155
Nsg584
I106
sg1156
g1790
sg1157
F0.3
sbag0
(g1722
g2
Ntp5178
Rp5179
(dp5180
g67
g2337
sg84
g2327
sg1155
Nsg584
I107
sg1156
g1790
sg1157
F0.3
sbag0
(g1722
g2
Ntp5181
Rp5182
(dp5183
g67
g2399
sg84
g2389
sg1155
Nsg584
I108
sg1156
g1790
sg1157
F0.3
sbag0
(g1722
g2
Ntp5184
Rp5185
(dp5186
g67
g2458
sg84
g2448
sg1155
Nsg584
I109
sg1156
g1790
sg1157
F0.3
sbag0
(g1722
g2
Ntp5187
Rp5188
(dp5189
g67
g2510
sg84
g2500
sg1155
Nsg584
I110
sg1156
g1790
sg1157
F0.3
sbag0
(g1722
g2
Ntp5190
Rp5191
(dp5192
g67
g2557
sg84
g2547
sg1155
Nsg584
I111
sg1156
g1790
sg1157
F0.3
sbag0
(g1722
g2
Ntp5193
Rp5194
(dp5195
g67
g2606
sg84
g2594
sg1155
Nsg584
I112
sg1156
g1790
sg1157
F0.3
sbag0
(g1722
g2
Ntp5196
Rp5197
(dp5198
g67
g2686
sg84
g2676
sg1155
Nsg584
I113
sg1156
g1790
sg1157
F0.3
sbag0
(g1722
g2
Ntp5199
Rp5200
(dp5201
g67
g2754
sg84
g2742
sg1155
Nsg584
I114
sg1156
g1790
sg1157
F0.3
sbag0
(g1722
g2
Ntp5202
Rp5203
(dp5204
g67
g2848
sg84
g2836
sg1155
Nsg584
I115
sg1156
g1790
sg1157
F0.3
sbag0
(g1722
g2
Ntp5205
Rp5206
(dp5207
g67
g2930
sg84
g2918
sg1155
Nsg584
I116
sg1156
g1790
sg1157
F0.3
sbag0
(g1722
g2
Ntp5208
Rp5209
(dp5210
g67
g3022
sg84
g3012
sg1155
Nsg584
I117
sg1156
g1790
sg1157
F0.3
sbag0
(g1722
g2
Ntp5211
Rp5212
(dp5213
g67
g3087
sg84
g3077
sg1155
Nsg584
I118
sg1156
g1790
sg1157
F0.3
sbag0
(g1722
g2
Ntp5214
Rp5215
(dp5216
g67
g3166
sg84
g3158
sg1155
Nsg584
I119
sg1156
g1790
sg1157
F0.3
sbag0
(g1722
g2
Ntp5217
Rp5218
(dp5219
g67
g3207
sg84
g3199
sg1155
Nsg584
I120
sg1156
g1790
sg1157
F0.3
sbag0
(g1722
g2
Ntp5220
Rp5221
(dp5222
g67
g3248
sg84
g3240
sg1155
Nsg584
I121
sg1156
g1790
sg1157
F0.3
sbag0
(g1722
g2
Ntp5223
Rp5224
(dp5225
g67
g3289
sg84
g3281
sg1155
Nsg584
I122
sg1156
g1790
sg1157
F0.3
sbag0
(g1722
g2
Ntp5226
Rp5227
(dp5228
g67
g3330
sg84
g3322
sg1155
Nsg584
I123
sg1156
g1790
sg1157
F0.3
sbag0
(g1722
g2
Ntp5229
Rp5230
(dp5231
g67
g3371
sg84
g3363
sg1155
Nsg584
I124
sg1156
g1790
sg1157
F0.3
sbag0
(g1722
g2
Ntp5232
Rp5233
(dp5234
g67
g3412
sg84
g3404
sg1155
Nsg584
I125
sg1156
g1790
sg1157
F0.3
sbag0
(g1722
g2
Ntp5235
Rp5236
(dp5237
g67
g3457
sg84
g3449
sg1155
Nsg584
I126
sg1156
g1790
sg1157
F0.3
sbag0
(g1722
g2
Ntp5238
Rp5239
(dp5240
g67
g3502
sg84
g3494
sg1155
Nsg584
I127
sg1156
g1790
sg1157
F0.3
sbag0
(g1722
g2
Ntp5241
Rp5242
(dp5243
g67
g3543
sg84
g3535
sg1155
Nsg584
I128
sg1156
g1790
sg1157
F0.3
sbag0
(g1722
g2
Ntp5244
Rp5245
(dp5246
g67
g3584
sg84
g3576
sg1155
Nsg584
I129
sg1156
g1790
sg1157
F0.3
sbag0
(g1722
g2
Ntp5247
Rp5248
(dp5249
g67
g3625
sg84
g3617
sg1155
Nsg584
I130
sg1156
g1790
sg1157
F0.3
sbag0
(g1722
g2
Ntp5250
Rp5251
(dp5252
g67
g3666
sg84
g3658
sg1155
Nsg584
I131
sg1156
g1790
sg1157
F0.3
sbag0
(g1722
g2
Ntp5253
Rp5254
(dp5255
g67
g3707
sg84
g3699
sg1155
Nsg584
I132
sg1156
g1790
sg1157
F0.3
sbag0
(g1722
g2
Ntp5256
Rp5257
(dp5258
g67
g3748
sg84
g3740
sg1155
Nsg584
I133
sg1156
g1790
sg1157
F0.3
sbag0
(g1722
g2
Ntp5259
Rp5260
(dp5261
g67
g3779
sg84
g3771
sg1155
Nsg584
I134
sg1156
g1790
sg1157
F0.3
sbag0
(g1722
g2
Ntp5262
Rp5263
(dp5264
g67
g3810
sg84
g3802
sg1155
Nsg584
I135
sg1156
g1790
sg1157
F0.3
sbag0
(g1722
g2
Ntp5265
Rp5266
(dp5267
g67
g3841
sg84
g3833
sg1155
Nsg584
I136
sg1156
g1790
sg1157
F0.3
sbag0
(g1722
g2
Ntp5268
Rp5269
(dp5270
g67
g3872
sg84
g3864
sg1155
Nsg584
I137
sg1156
g1790
sg1157
F0.3
sbag0
(g1722
g2
Ntp5271
Rp5272
(dp5273
g67
g3903
sg84
g3895
sg1155
Nsg584
I138
sg1156
g1790
sg1157
F0.3
sbag0
(g1722
g2
Ntp5274
Rp5275
(dp5276
g67
g3934
sg84
g3926
sg1155
Nsg584
I139
sg1156
g1790
sg1157
F0.3
sbag0
(g1722
g2
Ntp5277
Rp5278
(dp5279
g67
g3965
sg84
g3957
sg1155
Nsg584
I140
sg1156
g1790
sg1157
F0.3
sbag0
(g1722
g2
Ntp5280
Rp5281
(dp5282
g67
g3996
sg84
g3988
sg1155
Nsg584
I141
sg1156
g1790
sg1157
F0.3
sbag0
(g1722
g2
Ntp5283
Rp5284
(dp5285
g67
g4037
sg84
g4029
sg1155
Nsg584
I142
sg1156
g1790
sg1157
F0.3
sbag0
(g1722
g2
Ntp5286
Rp5287
(dp5288
g67
g4078
sg84
g4070
sg1155
Nsg584
I143
sg1156
g1790
sg1157
F0.3
sbag0
(g1722
g2
Ntp5289
Rp5290
(dp5291
g67
g4119
sg84
g4111
sg1155
Nsg584
I144
sg1156
g1790
sg1157
F0.3
sbag0
(g1722
g2
Ntp5292
Rp5293
(dp5294
g67
g4160
sg84
g4152
sg1155
Nsg584
I145
sg1156
g1790
sg1157
F0.3
sbag0
(g1722
g2
Ntp5295
Rp5296
(dp5297
g67
g4201
sg84
g4193
sg1155
Nsg584
I146
sg1156
g1790
sg1157
F0.3
sbag0
(g1722
g2
Ntp5298
Rp5299
(dp5300
g67
g4242
sg84
g4234
sg1155
Nsg584
I147
sg1156
g1790
sg1157
F0.3
sbag0
(g1722
g2
Ntp5301
Rp5302
(dp5303
g67
g4283
sg84
g4275
sg1155
Nsg584
I148
sg1156
g1790
sg1157
F0.3
sbag0
(g1722
g2
Ntp5304
Rp5305
(dp5306
g67
g4324
sg84
g4316
sg1155
Nsg584
I149
sg1156
g1790
sg1157
F0.3
sbag0
(g1722
g2
Ntp5307
Rp5308
(dp5309
g67
g4365
sg84
g4357
sg1155
Nsg584
I150
sg1156
g1790
sg1157
F0.3
sbag0
(g1722
g2
Ntp5310
Rp5311
(dp5312
g67
g4406
sg84
g4398
sg1155
Nsg584
I151
sg1156
g1790
sg1157
F0.3
sbag0
(g1722
g2
Ntp5313
Rp5314
(dp5315
g67
g4451
sg84
g4443
sg1155
Nsg584
I152
sg1156
g1790
sg1157
F0.3
sbag0
(g1722
g2
Ntp5316
Rp5317
(dp5318
g67
g4492
sg84
g4484
sg1155
Nsg584
I153
sg1156
g1790
sg1157
F0.3
sbag0
(g1722
g2
Ntp5319
Rp5320
(dp5321
g67
g4533
sg84
g4525
sg1155
Nsg584
I154
sg1156
g1790
sg1157
F0.3
sbag0
(g1722
g2
Ntp5322
Rp5323
(dp5324
g67
g4574
sg84
g4566
sg1155
Nsg584
I155
sg1156
g1790
sg1157
F0.3
sbag0
(g1722
g2
Ntp5325
Rp5326
(dp5327
g67
g4615
sg84
g4607
sg1155
Nsg584
I156
sg1156
g1790
sg1157
F0.3
sbag0
(g1722
g2
Ntp5328
Rp5329
(dp5330
g67
g4656
sg84
g4648
sg1155
Nsg584
I157
sg1156
g1790
sg1157
F0.3
sbag0
(g1722
g2
Ntp5331
Rp5332
(dp5333
g67
g4701
sg84
g4693
sg1155
Nsg584
I158
sg1156
g1790
sg1157
F0.3
sbag0
(g1722
g2
Ntp5334
Rp5335
(dp5336
g67
g4742
sg84
g4734
sg1155
Nsg584
I159
sg1156
g1790
sg1157
F0.3
sbag0
(g1722
g2
Ntp5337
Rp5338
(dp5339
g67
g4783
sg84
g4775
sg1155
Nsg584
I160
sg1156
g1790
sg1157
F0.3
sbag0
(g1722
g2
Ntp5340
Rp5341
(dp5342
g67
g4824
sg84
g4816
sg1155
Nsg584
I161
sg1156
g1790
sg1157
F0.3
sbag0
(g1722
g2
Ntp5343
Rp5344
(dp5345
g67
g4865
sg84
g4857
sg1155
Nsg584
I162
sg1156
g1790
sg1157
F0.3
sbag0
(g1722
g2
Ntp5346
Rp5347
(dp5348
g67
g4906
sg84
g4898
sg1155
Nsg584
I163
sg1156
g1790
sg1157
F0.3
sbag0
(g1722
g2
Ntp5349
Rp5350
(dp5351
g67
g4947
sg84
g4939
sg1155
Nsg584
I164
sg1156
g1790
sg1157
F0.3
sbag0
(g1722
g2
Ntp5352
Rp5353
(dp5354
g67
g4988
sg84
g4980
sg1155
Nsg584
I165
sg1156
g1790
sg1157
F0.3
sbag0
(g1722
g2
Ntp5355
Rp5356
(dp5357
g67
g5029
sg84
g5021
sg1155
Nsg584
I166
sg1156
g1790
sg1157
F0.3
sbag0
(g1722
g2
Ntp5358
Rp5359
(dp5360
g67
g5070
sg84
g5062
sg1155
Nsg584
I167
sg1156
g1790
sg1157
F0.3
sbag0
(g1722
g2
Ntp5361
Rp5362
(dp5363
g67
g5111
sg84
g5103
sg1155
Nsg584
I168
sg1156
g1790
sg1157
F0.3
sbasg1575
Nsg294
g1554
sg584
I22
sg1519
g1706
sbag1701
asg1532
(dp5364
sg1534
I0
sg1535
I0
sg1155
g1538
sg584
I5
sbsbsS'port_from'
p5365
g1577
sg1155
g1538
sg584
I1
sbag0
(g1693
g2
Ntp5366
Rp5367
(dp5368
g1697
I0
sg67
g1671
sg1698
I0
sg1699
g1719
sg5365
g5146
sg1155
g1538
sg584
I2
sbag0
(g1693
g2
Ntp5369
Rp5370
(dp5371
g1697
I0
sg67
g1671
sg1698
I0
sg1699
g0
(g71
g2
Ntp5372
Rp5373
(dp5374
g1573
Nsg67
S'from_cxn_retrieval_P'
p5375
sg76
Nsg77
Nsg1575
Nsg294
g1554
sg584
I14
sg1519
g0
(clanguage_schemas
GRAMMATICAL_WM_P
p5376
g2
Ntp5377
Rp5378
(dp5379
g65
(dp5380
g5375
NsS'from_phonological_WM_P'
p5381
Nsg1703
Nsg1562
Nssg1564
(lp5382
sg67
g1680
sg1567
(lp5383
sg69
(lp5384
g0
(g71
g2
Ntp5385
Rp5386
(dp5387
g1573
Nsg67
g1523
sg76
Nsg77
Nsg1575
Nsg294
g1518
sg584
I17
sg1519
g5378
sbag0
(g71
g2
Ntp5388
Rp5389
(dp5390
g1573
Nsg67
S'to_phonological_WM_P'
p5391
sg76
Nsg77
Nsg1575
Nsg294
g1518
sg584
I18
sg1519
g5378
sbag0
(g71
g2
Ntp5392
Rp5393
(dp5394
g67
g1591
sg76
Nsg77
Nsg294
g1518
sg584
I19
sg1519
g5378
sbasg1524
(dp5395
g1591
Nsg5391
Nsg1523
NssS'time_to_next_prod'
p5396
I8
sg1529
F1.0
sg1593
(lp5397
sg1530
(lp5398
g0
(g71
g2
Ntp5399
Rp5400
(dp5401
g1573
Nsg67
g1703
sg76
Nsg77
(dp5402
g579
(dp5403
sg852
(dp5404
ssg1575
Nsg294
g1554
sg584
I13
sg1519
g5378
sbag5373
ag0
(g71
g2
Ntp5405
Rp5406
(dp5407
g1573
Nsg67
g1562
sg76
Nsg77
(dp5408
S'params_style'
p5409
(dp5410
S'continuity'
p5411
F0.3
sS'form_length'
p5412
F0.0
sS'sem_length'
p5413
F0.0
sS'activation'
p5414
F0.7
ssS'pressure'
p5415
I0
sg1608
I00
ssg1575
Nsg294
g1554
sg584
I15
sg1519
g5378
sbag0
(g71
g2
Ntp5416
Rp5417
(dp5418
g1573
Nsg67
g5381
sg76
Nsg77
(lp5419
g4110
ag2121
ag3239
ag2130
ag2134
ag4069
asg1575
Nsg294
g1554
sg584
I16
sg1519
g5378
sbasS'refractory_period'
p5420
I10
sg1609
(dp5421
g1611
(dp5422
sg1613
(dp5423
g1615
(lp5424
sg1617
(dp5425
g1619
(lp5426
sg1621
(lp5427
sg1623
(lp5428
ssg1625
(lp5429
sg1534
(lp5430
sg1628
(lp5431
sssg1532
(dp5432
g1631
(dp5433
g1637
F1.0
sg1638
F1.0
sS'sub_threshold_r'
p5434
F0.8
sg1640
F0.0
sS'deact_weight'
p5435
F0.0
sg1639
F0.3
sg1641
F0.01
sg5420
I10
sg1633
F1.0
sg1634
Nsg1635
F-10.0
sg1636
F1.0
ssg1642
(dp5436
g1644
I100
sg1645
I10
sg1646
F0.001
sg1647
F0.0
sg1648
F1.0
sg1649
F1.0
sg1650
F1.0
ssS'style'
p5437
(dp5438
g5411
F0.3
sg5412
F0.0
sg5413
F0.0
sg5414
F0.7
sssg1534
I0
sg1535
I0
sg1155
g1538
sg584
I3
sbsbsg5365
g1712
sg1155
g1538
sg584
I3
sbag0
(g1693
g2
Ntp5439
Rp5440
(dp5441
g1697
I0
sg67
g1671
sg1698
I0
sg1699
g5400
sg5365
g1571
sg1155
g1538
sg584
I4
sbag0
(g1693
g2
Ntp5442
Rp5443
(dp5444
g1697
I0
sg67
g1671
sg1698
I0
sg1699
g1603
sg5365
g5386
sg1155
g1538
sg584
I5
sbag0
(g1693
g2
Ntp5445
Rp5446
(dp5447
g1697
I0
sg67
g1671
sg1698
I0
sg1699
g0
(g71
g2
Ntp5448
Rp5449
(dp5450
g1573
Nsg67
g1560
sg76
Nsg77
Nsg1575
Nsg294
g1554
sg584
I25
sg1519
g0
(clanguage_schemas
PHON_WM_P
p5451
g2
Ntp5452
Rp5453
(dp5454
g65
(dp5455
g1560
Nssg1564
(lp5456
sg67
g1676
sg1567
(lp5457
sg69
(lp5458
g0
(g71
g2
Ntp5459
Rp5460
(dp5461
g1573
Nsg67
S'to_utter'
p5462
sg76
Nsg77
Nsg1575
Nsg294
g1518
sg584
I26
sg1519
g5453
sbag0
(g71
g2
Ntp5463
Rp5464
(dp5465
g1573
Nsg67
g1574
sg76
Nsg77
Nsg1575
Nsg294
g1518
sg584
I27
sg1519
g5453
sbag0
(g71
g2
Ntp5466
Rp5467
(dp5468
g1573
Nsg67
g1583
sg76
Nsg77
Nsg1575
Nsg294
g1518
sg584
I28
sg1519
g5453
sbag0
(g71
g2
Ntp5469
Rp5470
(dp5471
g67
g1591
sg76
Nsg77
Nsg294
g1518
sg584
I29
sg1519
g5453
sbasg1524
(dp5472
g1591
Nsg1574
Nsg5462
Nsg1583
NssS'needs_filler'
p5473
I01
sg1529
F1.0
sg1593
(lp5474
sg1530
(lp5475
g5449
asS'filler'
p5476
S'....'
p5477
sg1609
(dp5478
g1611
(dp5479
sg1613
(dp5480
g1615
(lp5481
sg1617
(dp5482
g1619
(lp5483
sg1621
(lp5484
sg1623
(lp5485
ssg1625
(lp5486
sg1534
(lp5487
sg1628
(lp5488
sssg1532
(dp5489
g1631
(dp5490
g1633
F1.0
sg1634
Nsg1635
F0.0
sg1636
F1.0
sg1637
F1.0
sg1638
F0.0
sg1639
F0.0
sg1640
F0.0
sg1641
F0.01
ssg1642
(dp5491
g1644
F100.0
sg1645
F10.0
sg1646
F0.001
sg1647
F0.0
sg1648
F1.0
sg1649
F1.0
sg1650
F1.0
sssg1534
I0
sg1535
I0
sg1155
g1538
sS'phon_sequence'
p5492
(lp5493
sg584
I6
sbsbsg5365
g5389
sg1155
g1538
sg584
I6
sbag0
(g1693
g2
Ntp5494
Rp5495
(dp5496
g1697
I0
sg67
g1671
sg1698
I0
sg1699
g5417
sg5365
g5464
sg1155
g1538
sg584
I7
sbag0
(g1693
g2
Ntp5497
Rp5498
(dp5499
g1697
I0
sg67
g1671
sg1698
I0
sg1699
g0
(g71
g2
Ntp5500
Rp5501
(dp5502
g1573
Nsg67
g1703
sg76
Nsg77
I00
sg1575
Nsg294
g1554
sg584
I32
sg1519
g0
(clanguage_schemas
CONTROL
p5503
g2
Ntp5504
Rp5505
(dp5506
g65
(dp5507
g5381
Nsg1703
Nssg67
g1666
sg69
(lp5508
g0
(g71
g2
Ntp5509
Rp5510
(dp5511
g1573
Nsg67
g1523
sg76
Nsg77
Nsg1575
Nsg294
g1518
sg584
I34
sg1519
g5505
sbag0
(g71
g2
Ntp5512
Rp5513
(dp5514
g1573
Nsg67
g1574
sg76
Nsg77
Nsg1575
Nsg294
g1518
sg584
I35
sg1519
g5505
sbag0
(g71
g2
Ntp5515
Rp5516
(dp5517
g67
S'to_grammatical_WM_C'
p5518
sg76
Nsg77
I00
sg294
g1518
sg584
I36
sg1519
g5505
sbasg1524
(dp5519
g1574
Nsg5518
Nsg1523
Nssg1529
F1.0
sg1530
(lp5520
g5501
ag0
(g71
g2
Ntp5521
Rp5522
(dp5523
g1573
Nsg67
g5381
sg76
Nsg77
Nsg1575
Nsg294
g1554
sg584
I33
sg1519
g5505
sbasS'state'
p5524
(dp5525
g1608
I00
sS'unexpressed_sem'
p5526
I00
sS'mode'
p5527
g1608
sS'last_prod_time'
p5528
I0
ssg1532
(dp5529
g5437
(dp5530
g5411
F0.3
sg5412
F0.0
sg5414
F0.7
sg5413
F0.0
ssS'task'
p5531
(dp5532
S'time_pressure'
p5533
cnumpy.core.multiarray
scalar
p5534
(cnumpy
dtype
p5535
(S'f8'
p5536
I0
I1
tp5537
Rp5538
(I3
S'<'
p5539
NNNI-1
I-1
I0
tp5540
bS'\x00\x00\x00\x00\x00@\x8f@'
p5541
tp5542
Rp5543
sS'start_produce'
p5544
I1
sssg1534
I0
sg1535
I0
sg1155
g1538
sg584
I8
sbsbsg5365
g1581
sg1155
g1538
sg584
I8
sbag0
(g1693
g2
Ntp5545
Rp5546
(dp5547
g1697
I0
sg67
g1671
sg1698
I0
sg1699
g0
(g71
g2
Ntp5548
Rp5549
(dp5550
g1573
Nsg67
g5381
sg76
Nsg77
Nsg1575
Nsg294
g1554
sg584
I30
sg1519
g0
(clanguage_schemas
UTTER
p5551
g2
Ntp5552
Rp5553
(dp5554
g65
(dp5555
g5381
Nssg67
g1669
sg69
(lp5556
g0
(g71
g2
Ntp5557
Rp5558
(dp5559
g67
g1591
sg76
Nsg77
Nsg294
g1518
sg584
I31
sg1519
g5553
sbasg1524
(dp5560
g1591
NssS'utterance_stack'
p5561
(lp5562
sg1529
F1.0
sg1530
(lp5563
g5549
asg1532
(dp5564
S'speech_rate'
p5565
F1.0
ssg1534
I0
sg1535
I0
sg1155
g1538
sg584
I7
sbsbsg5365
g5460
sg1155
g1538
sg584
I9
sbag0
(g1693
g2
Ntp5566
Rp5567
(dp5568
g1697
I0
sg67
g1671
sg1698
I0
sg1699
g5522
sg5365
g5467
sg1155
g1538
sg584
I10
sbag0
(g1693
g2
Ntp5569
Rp5570
(dp5571
g1697
I0
sg67
g1671
sg1698
I0
sg1699
g5406
sg5365
g5513
sg1155
g1538
sg584
I11
sbag0
(g1693
g2
Ntp5572
Rp5573
(dp5574
g1697
I0
sg67
g1671
sg1698
I0
sg1699
g1606
sg5365
g5510
sg1155
g1538
sg584
I12
sbasg1532
(dp5575
g1666
g5529
sg1676
g5489
sg68
g1533
sg1684
g5155
sg1688
g5364
sg1566
g1630
sg1669
g5564
sg1680
g5432
ssg1534
F0.0
sS'set_up_time'
p5576
I10
sS'input'
p5577
NsS'default_params'
p5578
Nsg1529
F1.0
sS'output_ports'
p5579
(lp5580
g5558
ag5470
ag5393
ag1589
asg5156
(dp5581
g1666
g5505
sg1676
g5453
sg68
g63
sg1688
g1706
sg1680
g5378
sg1566
g1557
sg1669
g5553
sg1684
g1790
ssbsg584
I2
sg5156
g78
sbsbsb.